Archive member included because of file (symbol)

c:/progra~2/codesourcery/sourcery_codebench_lite_for_arm_eabi/bin/../lib/gcc/arm-none-eabi/4.8.1/../../../../arm-none-eabi/lib/thumb2\libm.a(lib_a-s_fpclassify.o)
                              build/obj/chprintf.o (__fpclassifyd)
c:/progra~2/codesourcery/sourcery_codebench_lite_for_arm_eabi/bin/../lib/gcc/arm-none-eabi/4.8.1/../../../../arm-none-eabi/lib/thumb2\libm.a(lib_a-s_modf.o)
                              build/obj/nmea.o (modf)
c:/progra~2/codesourcery/sourcery_codebench_lite_for_arm_eabi/bin/../lib/gcc/arm-none-eabi/4.8.1/../../../../arm-none-eabi/lib/thumb2\libm.a(lib_a-s_round.o)
                              build/obj/nmea.o (round)
c:/progra~2/codesourcery/sourcery_codebench_lite_for_arm_eabi/bin/../lib/gcc/arm-none-eabi/4.8.1/../../../../arm-none-eabi/lib/thumb2\libm.a(lib_a-sf_fpclassify.o)
                              build/obj/rpm_calculator.o (__fpclassifyf)
c:/progra~2/codesourcery/sourcery_codebench_lite_for_arm_eabi/bin/../lib/gcc/arm-none-eabi/4.8.1/../../../../arm-none-eabi/lib/thumb2\libm.a(lib_a-wf_log.o)
                              build/obj/thermistors.o (logf)
c:/progra~2/codesourcery/sourcery_codebench_lite_for_arm_eabi/bin/../lib/gcc/arm-none-eabi/4.8.1/../../../../arm-none-eabi/lib/thumb2\libm.a(lib_a-ef_log.o)
                              c:/progra~2/codesourcery/sourcery_codebench_lite_for_arm_eabi/bin/../lib/gcc/arm-none-eabi/4.8.1/../../../../arm-none-eabi/lib/thumb2\libm.a(lib_a-wf_log.o) (__ieee754_logf)
c:/progra~2/codesourcery/sourcery_codebench_lite_for_arm_eabi/bin/../lib/gcc/arm-none-eabi/4.8.1/../../../../arm-none-eabi/lib/thumb2\libm.a(lib_a-s_lib_ver.o)
                              c:/progra~2/codesourcery/sourcery_codebench_lite_for_arm_eabi/bin/../lib/gcc/arm-none-eabi/4.8.1/../../../../arm-none-eabi/lib/thumb2\libm.a(lib_a-wf_log.o) (__fdlib_version)
c:/progra~2/codesourcery/sourcery_codebench_lite_for_arm_eabi/bin/../lib/gcc/arm-none-eabi/4.8.1/../../../../arm-none-eabi/lib/thumb2\libm.a(lib_a-s_matherr.o)
                              c:/progra~2/codesourcery/sourcery_codebench_lite_for_arm_eabi/bin/../lib/gcc/arm-none-eabi/4.8.1/../../../../arm-none-eabi/lib/thumb2\libm.a(lib_a-wf_log.o) (matherr)
c:/progra~2/codesourcery/sourcery_codebench_lite_for_arm_eabi/bin/../lib/gcc/arm-none-eabi/4.8.1/../../../../arm-none-eabi/lib/thumb2\libm.a(lib_a-s_nan.o)
                              c:/progra~2/codesourcery/sourcery_codebench_lite_for_arm_eabi/bin/../lib/gcc/arm-none-eabi/4.8.1/../../../../arm-none-eabi/lib/thumb2\libm.a(lib_a-wf_log.o) (nan)
c:/progra~2/codesourcery/sourcery_codebench_lite_for_arm_eabi/bin/../lib/gcc/arm-none-eabi/4.8.1/thumb2\libgcc.a(_arm_addsubdf3.o)
                              build/obj/chprintf.o (__aeabi_dsub)
c:/progra~2/codesourcery/sourcery_codebench_lite_for_arm_eabi/bin/../lib/gcc/arm-none-eabi/4.8.1/thumb2\libgcc.a(_arm_muldivdf3.o)
                              build/obj/chprintf.o (__aeabi_dmul)
c:/progra~2/codesourcery/sourcery_codebench_lite_for_arm_eabi/bin/../lib/gcc/arm-none-eabi/4.8.1/thumb2\libgcc.a(_arm_cmpdf2.o)
                              build/obj/chprintf.o (__aeabi_dcmplt)
c:/progra~2/codesourcery/sourcery_codebench_lite_for_arm_eabi/bin/../lib/gcc/arm-none-eabi/4.8.1/thumb2\libgcc.a(_arm_fixdfsi.o)
                              build/obj/chprintf.o (__aeabi_d2iz)
c:/progra~2/codesourcery/sourcery_codebench_lite_for_arm_eabi/bin/../lib/gcc/arm-none-eabi/4.8.1/thumb2\libgcc.a(_arm_truncdfsf2.o)
                              build/obj/chprintf.o (__aeabi_d2f)
c:/progra~2/codesourcery/sourcery_codebench_lite_for_arm_eabi/bin/../lib/gcc/arm-none-eabi/4.8.1/thumb2\libgcc.a(_arm_addsubsf3.o)
                              c:/progra~2/codesourcery/sourcery_codebench_lite_for_arm_eabi/bin/../lib/gcc/arm-none-eabi/4.8.1/../../../../arm-none-eabi/lib/thumb2\libm.a(lib_a-ef_log.o) (__aeabi_fsub)
c:/progra~2/codesourcery/sourcery_codebench_lite_for_arm_eabi/bin/../lib/gcc/arm-none-eabi/4.8.1/thumb2\libgcc.a(_arm_muldivsf3.o)
                              c:/progra~2/codesourcery/sourcery_codebench_lite_for_arm_eabi/bin/../lib/gcc/arm-none-eabi/4.8.1/../../../../arm-none-eabi/lib/thumb2\libm.a(lib_a-ef_log.o) (__aeabi_fmul)
c:/progra~2/codesourcery/sourcery_codebench_lite_for_arm_eabi/bin/../lib/gcc/arm-none-eabi/4.8.1/thumb2\libgcc.a(_arm_cmpsf2.o)
                              c:/progra~2/codesourcery/sourcery_codebench_lite_for_arm_eabi/bin/../lib/gcc/arm-none-eabi/4.8.1/../../../../arm-none-eabi/lib/thumb2\libm.a(lib_a-wf_log.o) (__aeabi_fcmpeq)
c:/progra~2/codesourcery/sourcery_codebench_lite_for_arm_eabi/bin/../lib/gcc/arm-none-eabi/4.8.1/thumb2\libgcc.a(_aeabi_uldivmod.o)
                              build/obj/rpm_calculator.o (__aeabi_uldivmod)
c:/progra~2/codesourcery/sourcery_codebench_lite_for_arm_eabi/bin/../lib/gcc/arm-none-eabi/4.8.1/thumb2\libgcc.a(_fixunssfdi.o)
                              build/obj/trigger_emulator_algo.o (__aeabi_f2ulz)
c:/progra~2/codesourcery/sourcery_codebench_lite_for_arm_eabi/bin/../lib/gcc/arm-none-eabi/4.8.1/thumb2\libgcc.a(bpabi.o)
                              c:/progra~2/codesourcery/sourcery_codebench_lite_for_arm_eabi/bin/../lib/gcc/arm-none-eabi/4.8.1/thumb2\libgcc.a(_aeabi_uldivmod.o) (__gnu_uldivmod_helper)
c:/progra~2/codesourcery/sourcery_codebench_lite_for_arm_eabi/bin/../lib/gcc/arm-none-eabi/4.8.1/thumb2\libgcc.a(_dvmd_tls.o)
                              c:/progra~2/codesourcery/sourcery_codebench_lite_for_arm_eabi/bin/../lib/gcc/arm-none-eabi/4.8.1/thumb2\libgcc.a(_aeabi_uldivmod.o) (__aeabi_ldiv0)
c:/progra~2/codesourcery/sourcery_codebench_lite_for_arm_eabi/bin/../lib/gcc/arm-none-eabi/4.8.1/thumb2\libgcc.a(_arm_fixunsdfsi.o)
                              c:/progra~2/codesourcery/sourcery_codebench_lite_for_arm_eabi/bin/../lib/gcc/arm-none-eabi/4.8.1/thumb2\libgcc.a(_fixunssfdi.o) (__aeabi_d2uiz)
c:/progra~2/codesourcery/sourcery_codebench_lite_for_arm_eabi/bin/../lib/gcc/arm-none-eabi/4.8.1/thumb2\libgcc.a(_divdi3.o)
                              c:/progra~2/codesourcery/sourcery_codebench_lite_for_arm_eabi/bin/../lib/gcc/arm-none-eabi/4.8.1/thumb2\libgcc.a(bpabi.o) (__divdi3)
c:/progra~2/codesourcery/sourcery_codebench_lite_for_arm_eabi/bin/../lib/gcc/arm-none-eabi/4.8.1/thumb2\libgcc.a(_udivdi3.o)
                              c:/progra~2/codesourcery/sourcery_codebench_lite_for_arm_eabi/bin/../lib/gcc/arm-none-eabi/4.8.1/thumb2\libgcc.a(bpabi.o) (__udivdi3)
c:/progra~2/codesourcery/sourcery_codebench_lite_for_arm_eabi/bin/../lib/gcc/arm-none-eabi/4.8.1/thumb2\libgcc.a(_udivsi3.o)
                              c:/progra~2/codesourcery/sourcery_codebench_lite_for_arm_eabi/bin/../lib/gcc/arm-none-eabi/4.8.1/thumb2\libgcc.a(_divdi3.o) (__aeabi_uidiv)
c:/progra~2/codesourcery/sourcery_codebench_lite_for_arm_eabi/bin/../lib/gcc/arm-none-eabi/4.8.1/../../../../arm-none-eabi/lib/thumb2\libc.a(lib_a-errno.o)
                              c:/progra~2/codesourcery/sourcery_codebench_lite_for_arm_eabi/bin/../lib/gcc/arm-none-eabi/4.8.1/../../../../arm-none-eabi/lib/thumb2\libm.a(lib_a-wf_log.o) (__errno)
c:/progra~2/codesourcery/sourcery_codebench_lite_for_arm_eabi/bin/../lib/gcc/arm-none-eabi/4.8.1/../../../../arm-none-eabi/lib/thumb2\libc.a(lib_a-impure.o)
                              c:/progra~2/codesourcery/sourcery_codebench_lite_for_arm_eabi/bin/../lib/gcc/arm-none-eabi/4.8.1/../../../../arm-none-eabi/lib/thumb2\libc.a(lib_a-errno.o) (_impure_ptr)
c:/progra~2/codesourcery/sourcery_codebench_lite_for_arm_eabi/bin/../lib/gcc/arm-none-eabi/4.8.1/../../../../arm-none-eabi/lib/thumb2\libc.a(lib_a-lcltime_r.o)
                              build/obj/chrtclib.o (localtime_r)
c:/progra~2/codesourcery/sourcery_codebench_lite_for_arm_eabi/bin/../lib/gcc/arm-none-eabi/4.8.1/../../../../arm-none-eabi/lib/thumb2\libc.a(lib_a-memcmp.o)
                              build/obj/thermistors.o (memcmp)
c:/progra~2/codesourcery/sourcery_codebench_lite_for_arm_eabi/bin/../lib/gcc/arm-none-eabi/4.8.1/../../../../arm-none-eabi/lib/thumb2\libc.a(lib_a-memcpy-stub.o)
                              build/obj/memstreams.o (memcpy)
c:/progra~2/codesourcery/sourcery_codebench_lite_for_arm_eabi/bin/../lib/gcc/arm-none-eabi/4.8.1/../../../../arm-none-eabi/lib/thumb2\libc.a(lib_a-memset.o)
                              build/obj/usb.o (memset)
c:/progra~2/codesourcery/sourcery_codebench_lite_for_arm_eabi/bin/../lib/gcc/arm-none-eabi/4.8.1/../../../../arm-none-eabi/lib/thumb2\libc.a(lib_a-mktime.o)
                              build/obj/chrtclib.o (mktime)
c:/progra~2/codesourcery/sourcery_codebench_lite_for_arm_eabi/bin/../lib/gcc/arm-none-eabi/4.8.1/../../../../arm-none-eabi/lib/thumb2\libc.a(lib_a-mktm_r.o)
                              c:/progra~2/codesourcery/sourcery_codebench_lite_for_arm_eabi/bin/../lib/gcc/arm-none-eabi/4.8.1/../../../../arm-none-eabi/lib/thumb2\libc.a(lib_a-mktime.o) (__tzcalc_limits)
c:/progra~2/codesourcery/sourcery_codebench_lite_for_arm_eabi/bin/../lib/gcc/arm-none-eabi/4.8.1/../../../../arm-none-eabi/lib/thumb2\libc.a(lib_a-strchr.o)
                              build/obj/nmea.o (strchr)
c:/progra~2/codesourcery/sourcery_codebench_lite_for_arm_eabi/bin/../lib/gcc/arm-none-eabi/4.8.1/../../../../arm-none-eabi/lib/thumb2\libc.a(lib_a-strcpy.o)
                              build/obj/mmc_card.o (strcpy)
c:/progra~2/codesourcery/sourcery_codebench_lite_for_arm_eabi/bin/../lib/gcc/arm-none-eabi/4.8.1/../../../../arm-none-eabi/lib/thumb2\libc.a(lib_a-strlen.o)
                              build/obj/nmea.o (strlen)
c:/progra~2/codesourcery/sourcery_codebench_lite_for_arm_eabi/bin/../lib/gcc/arm-none-eabi/4.8.1/../../../../arm-none-eabi/lib/thumb2\libc.a(lib_a-strncmp.o)
                              build/obj/mmc_card.o (strncmp)
c:/progra~2/codesourcery/sourcery_codebench_lite_for_arm_eabi/bin/../lib/gcc/arm-none-eabi/4.8.1/../../../../arm-none-eabi/lib/thumb2\libc.a(lib_a-strncpy.o)
                              build/obj/eficonsole.o (strncpy)
c:/progra~2/codesourcery/sourcery_codebench_lite_for_arm_eabi/bin/../lib/gcc/arm-none-eabi/4.8.1/../../../../arm-none-eabi/lib/thumb2\libc.a(lib_a-strrchr.o)
                              build/obj/nmea.o (strrchr)
c:/progra~2/codesourcery/sourcery_codebench_lite_for_arm_eabi/bin/../lib/gcc/arm-none-eabi/4.8.1/../../../../arm-none-eabi/lib/thumb2\libc.a(lib_a-strstr.o)
                              build/obj/nmea.o (strstr)
c:/progra~2/codesourcery/sourcery_codebench_lite_for_arm_eabi/bin/../lib/gcc/arm-none-eabi/4.8.1/../../../../arm-none-eabi/lib/thumb2\libc.a(lib_a-tzlock.o)
                              c:/progra~2/codesourcery/sourcery_codebench_lite_for_arm_eabi/bin/../lib/gcc/arm-none-eabi/4.8.1/../../../../arm-none-eabi/lib/thumb2\libc.a(lib_a-mktime.o) (__tz_lock)
c:/progra~2/codesourcery/sourcery_codebench_lite_for_arm_eabi/bin/../lib/gcc/arm-none-eabi/4.8.1/../../../../arm-none-eabi/lib/thumb2\libc.a(lib_a-tzvars.o)
                              c:/progra~2/codesourcery/sourcery_codebench_lite_for_arm_eabi/bin/../lib/gcc/arm-none-eabi/4.8.1/../../../../arm-none-eabi/lib/thumb2\libc.a(lib_a-mktime.o) (_daylight)
c:/progra~2/codesourcery/sourcery_codebench_lite_for_arm_eabi/bin/../lib/gcc/arm-none-eabi/4.8.1/../../../../arm-none-eabi/lib/thumb2\libc.a(lib_a-div.o)
                              c:/progra~2/codesourcery/sourcery_codebench_lite_for_arm_eabi/bin/../lib/gcc/arm-none-eabi/4.8.1/../../../../arm-none-eabi/lib/thumb2\libc.a(lib_a-mktime.o) (div)
c:/progra~2/codesourcery/sourcery_codebench_lite_for_arm_eabi/bin/../lib/gcc/arm-none-eabi/4.8.1/../../../../arm-none-eabi/lib/thumb2\libc.a(lib_a-gettzinfo.o)
                              c:/progra~2/codesourcery/sourcery_codebench_lite_for_arm_eabi/bin/../lib/gcc/arm-none-eabi/4.8.1/../../../../arm-none-eabi/lib/thumb2\libc.a(lib_a-mktime.o) (__gettzinfo)
c:/progra~2/codesourcery/sourcery_codebench_lite_for_arm_eabi/bin/../lib/gcc/arm-none-eabi/4.8.1/../../../../arm-none-eabi/lib/thumb2\libc.a(lib_a-memchr-stub.o)
                              c:/progra~2/codesourcery/sourcery_codebench_lite_for_arm_eabi/bin/../lib/gcc/arm-none-eabi/4.8.1/../../../../arm-none-eabi/lib/thumb2\libc.a(lib_a-strstr.o) (memchr)
c:/progra~2/codesourcery/sourcery_codebench_lite_for_arm_eabi/bin/../lib/gcc/arm-none-eabi/4.8.1/thumb2\libgcc.a(_divsi3.o)
                              c:/progra~2/codesourcery/sourcery_codebench_lite_for_arm_eabi/bin/../lib/gcc/arm-none-eabi/4.8.1/../../../../arm-none-eabi/lib/thumb2\libc.a(lib_a-div.o) (__aeabi_idiv)

Discarded input sections

 .text          0x00000000        0x0 build/obj/crt0.o
 .data          0x00000000        0x0 build/obj/crt0.o
 .bss           0x00000000        0x0 build/obj/crt0.o
 .text.__early_init
                0x00000000       0x10 build/obj/crt0.o
 .text          0x00000000        0x0 build/obj/vectors.o
 .data          0x00000000        0x0 build/obj/vectors.o
 .bss           0x00000000        0x0 build/obj/vectors.o
 .text          0x00000000        0x0 build/obj/chcore.o
 .data          0x00000000        0x0 build/obj/chcore.o
 .bss           0x00000000        0x0 build/obj/chcore.o
 .text          0x00000000        0x0 build/obj/chcore_v7m.o
 .data          0x00000000        0x0 build/obj/chcore_v7m.o
 .bss           0x00000000        0x0 build/obj/chcore_v7m.o
 .text          0x00000000        0x0 build/obj/nvic.o
 .data          0x00000000        0x0 build/obj/nvic.o
 .bss           0x00000000        0x0 build/obj/nvic.o
 .text          0x00000000        0x0 build/obj/chsys.o
 .data          0x00000000        0x0 build/obj/chsys.o
 .bss           0x00000000        0x0 build/obj/chsys.o
 .text          0x00000000        0x0 build/obj/chdebug.o
 .data          0x00000000        0x0 build/obj/chdebug.o
 .bss           0x00000000        0x0 build/obj/chdebug.o
 .text.dbg_check_disable
                0x00000000       0x40 build/obj/chdebug.o
 .text.dbg_check_suspend
                0x00000000       0x40 build/obj/chdebug.o
 .text          0x00000000        0x0 build/obj/chlists.o
 .data          0x00000000        0x0 build/obj/chlists.o
 .bss           0x00000000        0x0 build/obj/chlists.o
 .comment       0x00000000       0x31 build/obj/chlists.o
 .ARM.attributes
                0x00000000       0x37 build/obj/chlists.o
 .text          0x00000000        0x0 build/obj/chvt.o
 .data          0x00000000        0x0 build/obj/chvt.o
 .bss           0x00000000        0x0 build/obj/chvt.o
 .text          0x00000000        0x0 build/obj/chschd.o
 .data          0x00000000        0x0 build/obj/chschd.o
 .bss           0x00000000        0x0 build/obj/chschd.o
 .text          0x00000000        0x0 build/obj/chthreads.o
 .data          0x00000000        0x0 build/obj/chthreads.o
 .bss           0x00000000        0x0 build/obj/chthreads.o
 .text.chThdSetPriority
                0x00000000       0x60 build/obj/chthreads.o
 .text.chThdResume
                0x00000000       0x40 build/obj/chthreads.o
 .text.chThdTerminate
                0x00000000       0x30 build/obj/chthreads.o
 .text.chThdSleepUntil
                0x00000000       0x30 build/obj/chthreads.o
 .text.chThdYield
                0x00000000       0x30 build/obj/chthreads.o
 .text          0x00000000        0x0 build/obj/chdynamic.o
 .data          0x00000000        0x0 build/obj/chdynamic.o
 .bss           0x00000000        0x0 build/obj/chdynamic.o
 .comment       0x00000000       0x31 build/obj/chdynamic.o
 .ARM.attributes
                0x00000000       0x37 build/obj/chdynamic.o
 .text          0x00000000        0x0 build/obj/chregistry.o
 .data          0x00000000        0x0 build/obj/chregistry.o
 .bss           0x00000000        0x0 build/obj/chregistry.o
 .text          0x00000000        0x0 build/obj/chsem.o
 .data          0x00000000        0x0 build/obj/chsem.o
 .bss           0x00000000        0x0 build/obj/chsem.o
 .text.chSemResetI
                0x00000000       0x80 build/obj/chsem.o
 .text.chSemReset
                0x00000000       0x30 build/obj/chsem.o
 .text.chSemWaitS
                0x00000000       0x80 build/obj/chsem.o
 .text.chSemWait
                0x00000000       0x30 build/obj/chsem.o
 .text.chSemWaitTimeout
                0x00000000       0x30 build/obj/chsem.o
 .text.chSemSignal
                0x00000000       0x80 build/obj/chsem.o
 .text.chSemAddCounterI
                0x00000000       0x80 build/obj/chsem.o
 .text          0x00000000        0x0 build/obj/chmtx.o
 .data          0x00000000        0x0 build/obj/chmtx.o
 .bss           0x00000000        0x0 build/obj/chmtx.o
 .text.chMtxTryLockS
                0x00000000       0x40 build/obj/chmtx.o
 .text.chMtxTryLock
                0x00000000       0x30 build/obj/chmtx.o
 .text.chMtxUnlockS
                0x00000000       0x80 build/obj/chmtx.o
 .text.chMtxUnlockAll
                0x00000000       0x60 build/obj/chmtx.o
 .text          0x00000000        0x0 build/obj/chcond.o
 .data          0x00000000        0x0 build/obj/chcond.o
 .bss           0x00000000        0x0 build/obj/chcond.o
 .comment       0x00000000       0x31 build/obj/chcond.o
 .ARM.attributes
                0x00000000       0x37 build/obj/chcond.o
 .text          0x00000000        0x0 build/obj/chevents.o
 .data          0x00000000        0x0 build/obj/chevents.o
 .bss           0x00000000        0x0 build/obj/chevents.o
 .text.chEvtUnregister
                0x00000000       0x60 build/obj/chevents.o
 .text.chEvtGetAndClearEvents
                0x00000000       0x30 build/obj/chevents.o
 .text.chEvtAddEvents
                0x00000000       0x30 build/obj/chevents.o
 .text.chEvtGetAndClearFlags
                0x00000000       0x30 build/obj/chevents.o
 .text.chEvtSignal
                0x00000000       0x50 build/obj/chevents.o
 .text.chEvtBroadcastFlags
                0x00000000       0x30 build/obj/chevents.o
 .text.chEvtDispatch
                0x00000000       0x70 build/obj/chevents.o
 .text.chEvtWaitOne
                0x00000000       0x50 build/obj/chevents.o
 .text.chEvtWaitAny
                0x00000000       0x50 build/obj/chevents.o
 .text.chEvtWaitAll
                0x00000000       0x40 build/obj/chevents.o
 .text.chEvtWaitOneTimeout
                0x00000000       0x70 build/obj/chevents.o
 .text.chEvtWaitAnyTimeout
                0x00000000       0x70 build/obj/chevents.o
 .text.chEvtWaitAllTimeout
                0x00000000       0x70 build/obj/chevents.o
 .text          0x00000000        0x0 build/obj/chmsg.o
 .data          0x00000000        0x0 build/obj/chmsg.o
 .bss           0x00000000        0x0 build/obj/chmsg.o
 .text.chMsgSend
                0x00000000       0x70 build/obj/chmsg.o
 .text.chMsgWait
                0x00000000       0x50 build/obj/chmsg.o
 .text.chMsgRelease
                0x00000000       0x40 build/obj/chmsg.o
 .rodata.str1.4
                0x00000000       0x44 build/obj/chmsg.o
 .comment       0x00000000       0x31 build/obj/chmsg.o
 .ARM.attributes
                0x00000000       0x37 build/obj/chmsg.o
 .text          0x00000000        0x0 build/obj/chmboxes.o
 .data          0x00000000        0x0 build/obj/chmboxes.o
 .bss           0x00000000        0x0 build/obj/chmboxes.o
 .text.chMBInit
                0x00000000       0x50 build/obj/chmboxes.o
 .text.chMBReset
                0x00000000       0x60 build/obj/chmboxes.o
 .text.chMBPostS
                0x00000000       0x60 build/obj/chmboxes.o
 .text.chMBPost
                0x00000000       0x30 build/obj/chmboxes.o
 .text.chMBPostI
                0x00000000       0x60 build/obj/chmboxes.o
 .text.chMBPostAheadS
                0x00000000       0x60 build/obj/chmboxes.o
 .text.chMBPostAhead
                0x00000000       0x30 build/obj/chmboxes.o
 .text.chMBPostAheadI
                0x00000000       0x60 build/obj/chmboxes.o
 .text.chMBFetchS
                0x00000000       0x70 build/obj/chmboxes.o
 .text.chMBFetch
                0x00000000       0x30 build/obj/chmboxes.o
 .text.chMBFetchI
                0x00000000       0x60 build/obj/chmboxes.o
 .rodata.str1.4
                0x00000000       0xac build/obj/chmboxes.o
 .comment       0x00000000       0x31 build/obj/chmboxes.o
 .ARM.attributes
                0x00000000       0x37 build/obj/chmboxes.o
 .text          0x00000000        0x0 build/obj/chqueues.o
 .data          0x00000000        0x0 build/obj/chqueues.o
 .bss           0x00000000        0x0 build/obj/chqueues.o
 .text          0x00000000        0x0 build/obj/chmemcore.o
 .data          0x00000000        0x0 build/obj/chmemcore.o
 .bss           0x00000000        0x0 build/obj/chmemcore.o
 .text.chCoreStatus
                0x00000000       0x20 build/obj/chmemcore.o
 .text          0x00000000        0x0 build/obj/chheap.o
 .data          0x00000000        0x0 build/obj/chheap.o
 .bss           0x00000000        0x0 build/obj/chheap.o
 .text.chHeapInit
                0x00000000       0x40 build/obj/chheap.o
 .text.chHeapStatus
                0x00000000       0x50 build/obj/chheap.o
 .text          0x00000000        0x0 build/obj/chmempools.o
 .data          0x00000000        0x0 build/obj/chmempools.o
 .bss           0x00000000        0x0 build/obj/chmempools.o
 .text.chPoolInit
                0x00000000       0x30 build/obj/chmempools.o
 .text.chPoolAllocI
                0x00000000       0x40 build/obj/chmempools.o
 .text.chPoolAlloc
                0x00000000       0x30 build/obj/chmempools.o
 .text.chPoolFreeI
                0x00000000       0x30 build/obj/chmempools.o
 .text.chPoolFree
                0x00000000       0x30 build/obj/chmempools.o
 .text.chPoolLoadArray
                0x00000000       0x40 build/obj/chmempools.o
 .rodata.str1.4
                0x00000000       0x6c build/obj/chmempools.o
 .comment       0x00000000       0x31 build/obj/chmempools.o
 .ARM.attributes
                0x00000000       0x37 build/obj/chmempools.o
 .text          0x00000000        0x0 build/obj/chprintf.o
 .data          0x00000000        0x0 build/obj/chprintf.o
 .bss           0x00000000        0x0 build/obj/chprintf.o
 .text          0x00000000        0x0 build/obj/memstreams.o
 .data          0x00000000        0x0 build/obj/memstreams.o
 .bss           0x00000000        0x0 build/obj/memstreams.o
 .text          0x00000000        0x0 build/obj/chrtclib.o
 .data          0x00000000        0x0 build/obj/chrtclib.o
 .bss           0x00000000        0x0 build/obj/chrtclib.o
 .text.rtcGetTimeUnixUsec
                0x00000000       0x50 build/obj/chrtclib.o
 .text          0x00000000        0x0 build/obj/crc.o
 .data          0x00000000        0x0 build/obj/crc.o
 .bss           0x00000000        0x0 build/obj/crc.o
 .text          0x00000000        0x0 build/obj/data_buffer.o
 .data          0x00000000        0x0 build/obj/data_buffer.o
 .bss           0x00000000        0x0 build/obj/data_buffer.o
 .text.dbIsFull
                0x00000000       0x10 build/obj/data_buffer.o
 .text.dbClear  0x00000000       0x10 build/obj/data_buffer.o
 .text.dbCopy   0x00000000       0x30 build/obj/data_buffer.o
 .text.dbAdd    0x00000000       0x20 build/obj/data_buffer.o
 .text.modp     0x00000000       0x20 build/obj/data_buffer.o
 .comment       0x00000000       0x31 build/obj/data_buffer.o
 .ARM.attributes
                0x00000000       0x37 build/obj/data_buffer.o
 .text          0x00000000        0x0 build/obj/histogram.o
 .data          0x00000000        0x0 build/obj/histogram.o
 .bss           0x00000000        0x0 build/obj/histogram.o
 .comment       0x00000000       0x31 build/obj/histogram.o
 .ARM.attributes
                0x00000000       0x37 build/obj/histogram.o
 .text          0x00000000        0x0 build/obj/rfiutil.o
 .data          0x00000000        0x0 build/obj/rfiutil.o
 .bss           0x00000000        0x0 build/obj/rfiutil.o
 .text          0x00000000        0x0 build/obj/hal.o
 .data          0x00000000        0x0 build/obj/hal.o
 .bss           0x00000000        0x0 build/obj/hal.o
 .text.halIsCounterWithin
                0x00000000       0x40 build/obj/hal.o
 .text          0x00000000        0x0 build/obj/adc.o
 .data          0x00000000        0x0 build/obj/adc.o
 .bss           0x00000000        0x0 build/obj/adc.o
 .text.adcStop  0x00000000       0x60 build/obj/adc.o
 .text.adcStartConversion
                0x00000000       0x30 build/obj/adc.o
 .text.adcStopConversion
                0x00000000       0x70 build/obj/adc.o
 .text.adcStopConversionI
                0x00000000       0x70 build/obj/adc.o
 .text.adcConvert
                0x00000000       0x60 build/obj/adc.o
 .text.adcAcquireBus
                0x00000000       0x40 build/obj/adc.o
 .text.adcReleaseBus
                0x00000000       0x30 build/obj/adc.o
 .text          0x00000000        0x0 build/obj/can.o
 .data          0x00000000        0x0 build/obj/can.o
 .bss           0x00000000        0x0 build/obj/can.o
 .text.canStop  0x00000000       0x70 build/obj/can.o
 .text.canSleep
                0x00000000       0x80 build/obj/can.o
 .text.canWakeup
                0x00000000       0x80 build/obj/can.o
 .text          0x00000000        0x0 build/obj/ext.o
 .data          0x00000000        0x0 build/obj/ext.o
 .bss           0x00000000        0x0 build/obj/ext.o
 .text.extStop  0x00000000       0x60 build/obj/ext.o
 .text.extChannelEnable
                0x00000000       0x70 build/obj/ext.o
 .text.extChannelDisable
                0x00000000       0x70 build/obj/ext.o
 .text.extSetChannelModeI
                0x00000000       0x60 build/obj/ext.o
 .text          0x00000000        0x0 build/obj/gpt.o
 .data          0x00000000        0x0 build/obj/gpt.o
 .bss           0x00000000        0x0 build/obj/gpt.o
 .text.gptStop  0x00000000       0x60 build/obj/gpt.o
 .text.gptChangeInterval
                0x00000000       0x50 build/obj/gpt.o
 .text.gptStartContinuousI
                0x00000000       0x50 build/obj/gpt.o
 .text.gptStartContinuous
                0x00000000       0x30 build/obj/gpt.o
 .text.gptStartOneShot
                0x00000000       0x30 build/obj/gpt.o
 .text.gptStopTimer
                0x00000000       0x20 build/obj/gpt.o
 .text.gptPolledDelay
                0x00000000       0x30 build/obj/gpt.o
 .text          0x00000000        0x0 build/obj/i2c.o
 .data          0x00000000        0x0 build/obj/i2c.o
 .bss           0x00000000        0x0 build/obj/i2c.o
 .text.i2cStart
                0x00000000       0x70 build/obj/i2c.o
 .text.i2cStop  0x00000000       0x60 build/obj/i2c.o
 .text.i2cGetErrors
                0x00000000       0x30 build/obj/i2c.o
 .text.i2cMasterTransmitTimeout
                0x00000000       0xa0 build/obj/i2c.o
 .text.i2cMasterReceiveTimeout
                0x00000000       0x90 build/obj/i2c.o
 .text.i2cAcquireBus
                0x00000000       0x40 build/obj/i2c.o
 .text.i2cReleaseBus
                0x00000000       0x30 build/obj/i2c.o
 .rodata.str1.4
                0x00000000      0x108 build/obj/i2c.o
 .text          0x00000000        0x0 build/obj/icu.o
 .data          0x00000000        0x0 build/obj/icu.o
 .bss           0x00000000        0x0 build/obj/icu.o
 .text          0x00000000        0x0 build/obj/mac.o
 .data          0x00000000        0x0 build/obj/mac.o
 .bss           0x00000000        0x0 build/obj/mac.o
 .comment       0x00000000       0x31 build/obj/mac.o
 .ARM.attributes
                0x00000000       0x37 build/obj/mac.o
 .text          0x00000000        0x0 build/obj/mmc_spi.o
 .data          0x00000000        0x0 build/obj/mmc_spi.o
 .bss           0x00000000        0x0 build/obj/mmc_spi.o
 .text.mmcErase
                0x00000000       0x70 build/obj/mmc_spi.o
 .text          0x00000000        0x0 build/obj/mmcsd.o
 .data          0x00000000        0x0 build/obj/mmcsd.o
 .bss           0x00000000        0x0 build/obj/mmcsd.o
 .text          0x00000000        0x0 build/obj/pal.o
 .data          0x00000000        0x0 build/obj/pal.o
 .bss           0x00000000        0x0 build/obj/pal.o
 .text.palReadBus
                0x00000000       0x40 build/obj/pal.o
 .text.palWriteBus
                0x00000000       0x50 build/obj/pal.o
 .text.palSetBusMode
                0x00000000       0x40 build/obj/pal.o
 .rodata.str1.4
                0x00000000       0x50 build/obj/pal.o
 .comment       0x00000000       0x31 build/obj/pal.o
 .ARM.attributes
                0x00000000       0x37 build/obj/pal.o
 .text          0x00000000        0x0 build/obj/pwm.o
 .data          0x00000000        0x0 build/obj/pwm.o
 .bss           0x00000000        0x0 build/obj/pwm.o
 .text.pwmStop  0x00000000       0x60 build/obj/pwm.o
 .text.pwmChangePeriod
                0x00000000       0x60 build/obj/pwm.o
 .text.pwmEnableChannel
                0x00000000       0x70 build/obj/pwm.o
 .text.pwmDisableChannel
                0x00000000       0x60 build/obj/pwm.o
 .text          0x00000000        0x0 build/obj/rtc.o
 .data          0x00000000        0x0 build/obj/rtc.o
 .bss           0x00000000        0x0 build/obj/rtc.o
 .text.rtcSetAlarm
                0x00000000       0x50 build/obj/rtc.o
 .text.rtcGetAlarm
                0x00000000       0x60 build/obj/rtc.o
 .text          0x00000000        0x0 build/obj/sdc.o
 .data          0x00000000        0x0 build/obj/sdc.o
 .bss           0x00000000        0x0 build/obj/sdc.o
 .comment       0x00000000       0x31 build/obj/sdc.o
 .ARM.attributes
                0x00000000       0x37 build/obj/sdc.o
 .text          0x00000000        0x0 build/obj/serial.o
 .data          0x00000000        0x0 build/obj/serial.o
 .bss           0x00000000        0x0 build/obj/serial.o
 .text.sdStop   0x00000000       0x70 build/obj/serial.o
 .text.sdRequestDataI
                0x00000000       0x40 build/obj/serial.o
 .text          0x00000000        0x0 build/obj/serial_usb.o
 .data          0x00000000        0x0 build/obj/serial_usb.o
 .bss           0x00000000        0x0 build/obj/serial_usb.o
 .text.sduStop  0x00000000       0x80 build/obj/serial_usb.o
 .text          0x00000000        0x0 build/obj/spi.o
 .data          0x00000000        0x0 build/obj/spi.o
 .bss           0x00000000        0x0 build/obj/spi.o
 .text.spiStartIgnore
                0x00000000       0x60 build/obj/spi.o
 .text.spiStartExchange
                0x00000000       0x70 build/obj/spi.o
 .text.spiStartSend
                0x00000000       0x60 build/obj/spi.o
 .text.spiStartReceive
                0x00000000       0x70 build/obj/spi.o
 .text.spiAcquireBus
                0x00000000       0x40 build/obj/spi.o
 .text.spiReleaseBus
                0x00000000       0x30 build/obj/spi.o
 .text          0x00000000        0x0 build/obj/tm.o
 .data          0x00000000        0x0 build/obj/tm.o
 .bss           0x00000000        0x0 build/obj/tm.o
 .comment       0x00000000       0x31 build/obj/tm.o
 .ARM.attributes
                0x00000000       0x37 build/obj/tm.o
 .text          0x00000000        0x0 build/obj/uart.o
 .data          0x00000000        0x0 build/obj/uart.o
 .bss           0x00000000        0x0 build/obj/uart.o
 .comment       0x00000000       0x31 build/obj/uart.o
 .ARM.attributes
                0x00000000       0x37 build/obj/uart.o
 .text          0x00000000        0x0 build/obj/usb.o
 .data          0x00000000        0x0 build/obj/usb.o
 .bss           0x00000000        0x0 build/obj/usb.o
 .text.usbStop  0x00000000       0x60 build/obj/usb.o
 .text.usbDisableEndpointsI
                0x00000000       0x60 build/obj/usb.o
 .text.usbPrepareReceive
                0x00000000       0x20 build/obj/usb.o
 .text.usbPrepareTransmit
                0x00000000       0x20 build/obj/usb.o
 .text.usbStallReceiveI
                0x00000000       0x40 build/obj/usb.o
 .text.usbStallTransmitI
                0x00000000       0x40 build/obj/usb.o
 .text          0x00000000        0x0 build/obj/test.o
 .data          0x00000000        0x0 build/obj/test.o
 .bss           0x00000000        0x0 build/obj/test.o
 .comment       0x00000000       0x31 build/obj/test.o
 .ARM.attributes
                0x00000000       0x37 build/obj/test.o
 .text          0x00000000        0x0 build/obj/testbmk.o
 .data          0x00000000        0x0 build/obj/testbmk.o
 .bss           0x00000000        0x0 build/obj/testbmk.o
 .comment       0x00000000       0x31 build/obj/testbmk.o
 .ARM.attributes
                0x00000000       0x37 build/obj/testbmk.o
 .text          0x00000000        0x0 build/obj/usbcfg.o
 .data          0x00000000        0x0 build/obj/usbcfg.o
 .bss           0x00000000        0x0 build/obj/usbcfg.o
 .text          0x00000000        0x0 build/obj/usbconsole.o
 .data          0x00000000        0x0 build/obj/usbconsole.o
 .bss           0x00000000        0x0 build/obj/usbconsole.o
 .text          0x00000000        0x0 build/obj/mcp3208.o
 .data          0x00000000        0x0 build/obj/mcp3208.o
 .bss           0x00000000        0x0 build/obj/mcp3208.o
 .comment       0x00000000       0x31 build/obj/mcp3208.o
 .ARM.attributes
                0x00000000       0x37 build/obj/mcp3208.o
 .text          0x00000000        0x0 build/obj/flash.o
 .data          0x00000000        0x0 build/obj/flash.o
 .bss           0x00000000        0x0 build/obj/flash.o
 .text.flashSectorSize
                0x00000000       0x30 build/obj/flash.o
 .text.flashSectorEnd
                0x00000000       0x10 build/obj/flash.o
 .text.flashSectorAt
                0x00000000       0x20 build/obj/flash.o
 .text.flashIsErased
                0x00000000       0x40 build/obj/flash.o
 .text.flashCompare
                0x00000000       0x60 build/obj/flash.o
 .text          0x00000000        0x0 build/obj/map_adjuster.o
 .data          0x00000000        0x0 build/obj/map_adjuster.o
 .bss           0x00000000        0x0 build/obj/map_adjuster.o
 .comment       0x00000000       0x31 build/obj/map_adjuster.o
 .ARM.attributes
                0x00000000       0x37 build/obj/map_adjuster.o
 .text          0x00000000        0x0 build/obj/malfunction_central.o
 .data          0x00000000        0x0 build/obj/malfunction_central.o
 .bss           0x00000000        0x0 build/obj/malfunction_central.o
 .text          0x00000000        0x0 build/obj/nmea.o
 .data          0x00000000        0x0 build/obj/nmea.o
 .bss           0x00000000        0x0 build/obj/nmea.o
 .text.str2int  0x00000000       0x30 build/obj/nmea.o
 .text          0x00000000        0x0 build/obj/stm32_dma.o
 .data          0x00000000        0x0 build/obj/stm32_dma.o
 .bss           0x00000000        0x0 build/obj/stm32_dma.o
 .text          0x00000000        0x0 build/obj/hal_lld.o
 .data          0x00000000        0x0 build/obj/hal_lld.o
 .bss           0x00000000        0x0 build/obj/hal_lld.o
 .text          0x00000000        0x0 build/obj/adc_lld.o
 .data          0x00000000        0x0 build/obj/adc_lld.o
 .bss           0x00000000        0x0 build/obj/adc_lld.o
 .text.adc_lld_stop
                0x00000000       0x60 build/obj/adc_lld.o
 .text.adcSTM32EnableTSVREFE
                0x00000000       0x20 build/obj/adc_lld.o
 .text.adcSTM32DisableTSVREFE
                0x00000000       0x20 build/obj/adc_lld.o
 .text.adcSTM32EnableVBATE
                0x00000000       0x20 build/obj/adc_lld.o
 .text.adcSTM32DisableVBATE
                0x00000000       0x20 build/obj/adc_lld.o
 .text          0x00000000        0x0 build/obj/ext_lld_isr.o
 .data          0x00000000        0x0 build/obj/ext_lld_isr.o
 .bss           0x00000000        0x0 build/obj/ext_lld_isr.o
 .text.TAMPER_STAMP_IRQHandler
                0x00000000       0x40 build/obj/ext_lld_isr.o
 .text.ext_lld_exti_irq_disable
                0x00000000       0x60 build/obj/ext_lld_isr.o
 .text          0x00000000        0x0 build/obj/can_lld.o
 .data          0x00000000        0x0 build/obj/can_lld.o
 .bss           0x00000000        0x0 build/obj/can_lld.o
 .text.can_lld_stop
                0x00000000       0xb0 build/obj/can_lld.o
 .text.can_lld_sleep
                0x00000000       0x10 build/obj/can_lld.o
 .text.can_lld_wakeup
                0x00000000       0x10 build/obj/can_lld.o
 .text.canSTM32SetFilters
                0x00000000       0x70 build/obj/can_lld.o
 .text          0x00000000        0x0 build/obj/ext_lld.o
 .data          0x00000000        0x0 build/obj/ext_lld.o
 .bss           0x00000000        0x0 build/obj/ext_lld.o
 .text.ext_lld_stop
                0x00000000       0x30 build/obj/ext_lld.o
 .text          0x00000000        0x0 build/obj/mac_lld.o
 .data          0x00000000        0x0 build/obj/mac_lld.o
 .bss           0x00000000        0x0 build/obj/mac_lld.o
 .comment       0x00000000       0x31 build/obj/mac_lld.o
 .ARM.attributes
                0x00000000       0x37 build/obj/mac_lld.o
 .text          0x00000000        0x0 build/obj/sdc_lld.o
 .data          0x00000000        0x0 build/obj/sdc_lld.o
 .bss           0x00000000        0x0 build/obj/sdc_lld.o
 .comment       0x00000000       0x31 build/obj/sdc_lld.o
 .ARM.attributes
                0x00000000       0x37 build/obj/sdc_lld.o
 .text          0x00000000        0x0 build/obj/pal_lld.o
 .data          0x00000000        0x0 build/obj/pal_lld.o
 .bss           0x00000000        0x0 build/obj/pal_lld.o
 .text          0x00000000        0x0 build/obj/i2c_lld.o
 .data          0x00000000        0x0 build/obj/i2c_lld.o
 .bss           0x00000000        0x0 build/obj/i2c_lld.o
 .text.i2c_lld_abort_operation
                0x00000000       0x60 build/obj/i2c_lld.o
 .text.i2c_lld_safety_timeout
                0x00000000       0x40 build/obj/i2c_lld.o
 .text.i2c_lld_serve_tx_end_irq
                0x00000000       0x40 build/obj/i2c_lld.o
 .text.i2c_lld_serve_rx_end_irq
                0x00000000       0x80 build/obj/i2c_lld.o
 .text.i2c_lld_start
                0x00000000      0x2f0 build/obj/i2c_lld.o
 .text.i2c_lld_stop
                0x00000000       0x50 build/obj/i2c_lld.o
 .text.i2c_lld_master_receive_timeout
                0x00000000      0x100 build/obj/i2c_lld.o
 .text.i2c_lld_master_transmit_timeout
                0x00000000      0x120 build/obj/i2c_lld.o
 .rodata.str1.4
                0x00000000      0x118 build/obj/i2c_lld.o
 .text          0x00000000        0x0 build/obj/usb_lld.o
 .data          0x00000000        0x0 build/obj/usb_lld.o
 .bss           0x00000000        0x0 build/obj/usb_lld.o
 .text.usb_lld_stop
                0x00000000       0x30 build/obj/usb_lld.o
 .text.usb_lld_disable_endpoints
                0x00000000       0x10 build/obj/usb_lld.o
 .text          0x00000000        0x0 build/obj/rtc_lld.o
 .data          0x00000000        0x0 build/obj/rtc_lld.o
 .bss           0x00000000        0x0 build/obj/rtc_lld.o
 .text.rtc_lld_set_alarm
                0x00000000       0x80 build/obj/rtc_lld.o
 .text.rtc_lld_get_alarm
                0x00000000       0x10 build/obj/rtc_lld.o
 .text.rtcSetPeriodicWakeup_v2
                0x00000000       0x70 build/obj/rtc_lld.o
 .text.rtcGetPeriodicWakeup_v2
                0x00000000       0x20 build/obj/rtc_lld.o
 .rodata.str1.4
                0x00000000       0x68 build/obj/rtc_lld.o
 .text          0x00000000        0x0 build/obj/spi_lld.o
 .data          0x00000000        0x0 build/obj/spi_lld.o
 .bss           0x00000000        0x0 build/obj/spi_lld.o
 .text.spi_lld_polled_exchange
                0x00000000       0x10 build/obj/spi_lld.o
 .text          0x00000000        0x0 build/obj/gpt_lld.o
 .data          0x00000000        0x0 build/obj/gpt_lld.o
 .bss           0x00000000        0x0 build/obj/gpt_lld.o
 .text.gpt_lld_stop
                0x00000000       0x40 build/obj/gpt_lld.o
 .text.gpt_lld_polled_delay
                0x00000000       0x20 build/obj/gpt_lld.o
 .text          0x00000000        0x0 build/obj/icu_lld.o
 .data          0x00000000        0x0 build/obj/icu_lld.o
 .bss           0x00000000        0x0 build/obj/icu_lld.o
 .text          0x00000000        0x0 build/obj/pwm_lld.o
 .data          0x00000000        0x0 build/obj/pwm_lld.o
 .bss           0x00000000        0x0 build/obj/pwm_lld.o
 .text.pwm_lld_stop
                0x00000000       0x70 build/obj/pwm_lld.o
 .text.pwm_lld_enable_channel
                0x00000000       0x40 build/obj/pwm_lld.o
 .text.pwm_lld_disable_channel
                0x00000000       0x20 build/obj/pwm_lld.o
 .text          0x00000000        0x0 build/obj/serial_lld.o
 .data          0x00000000        0x0 build/obj/serial_lld.o
 .bss           0x00000000        0x0 build/obj/serial_lld.o
 .text.sd_lld_stop
                0x00000000       0x80 build/obj/serial_lld.o
 .text          0x00000000        0x0 build/obj/uart_lld.o
 .data          0x00000000        0x0 build/obj/uart_lld.o
 .bss           0x00000000        0x0 build/obj/uart_lld.o
 .comment       0x00000000       0x31 build/obj/uart_lld.o
 .ARM.attributes
                0x00000000       0x37 build/obj/uart_lld.o
 .text          0x00000000        0x0 build/obj/board.o
 .data          0x00000000        0x0 build/obj/board.o
 .bss           0x00000000        0x0 build/obj/board.o
 .text          0x00000000        0x0 build/obj/fatfs_diskio.o
 .data          0x00000000        0x0 build/obj/fatfs_diskio.o
 .bss           0x00000000        0x0 build/obj/fatfs_diskio.o
 .text          0x00000000        0x0 build/obj/fatfs_syscall.o
 .data          0x00000000        0x0 build/obj/fatfs_syscall.o
 .bss           0x00000000        0x0 build/obj/fatfs_syscall.o
 .text          0x00000000        0x0 build/obj/ff.o
 .data          0x00000000        0x0 build/obj/ff.o
 .bss           0x00000000        0x0 build/obj/ff.o
 .text.clust2sect
                0x00000000       0x20 build/obj/ff.o
 .text.get_fat  0x00000000       0x20 build/obj/ff.o
 .text.put_fat  0x00000000       0x20 build/obj/ff.o
 .text.f_stat   0x00000000       0x60 build/obj/ff.o
 .text.f_getfree
                0x00000000      0x130 build/obj/ff.o
 .text.f_truncate
                0x00000000       0xd0 build/obj/ff.o
 .text.f_mkdir  0x00000000      0x240 build/obj/ff.o
 .text.f_chmod  0x00000000       0x70 build/obj/ff.o
 .text.f_utime  0x00000000       0x80 build/obj/ff.o
 .text.f_rename
                0x00000000      0x160 build/obj/ff.o
 .text          0x00000000        0x0 build/obj/ccsbcs.o
 .data          0x00000000        0x0 build/obj/ccsbcs.o
 .bss           0x00000000        0x0 build/obj/ccsbcs.o
 .text          0x00000000        0x0 build/obj/trigger_emulator_algo.o
 .data          0x00000000        0x0 build/obj/trigger_emulator_algo.o
 .bss           0x00000000        0x0 build/obj/trigger_emulator_algo.o
 .text._ZN21TriggerEmulatorHelperC2Ev
                0x00000000       0x10 build/obj/trigger_emulator_algo.o
 .text          0x00000000        0x0 build/obj/rpm_calculator.o
 .data          0x00000000        0x0 build/obj/rpm_calculator.o
 .bss           0x00000000        0x0 build/obj/rpm_calculator.o
 .text._ZN13RpmCalculator11setRpmValueEi
                0x00000000       0x30 build/obj/rpm_calculator.o
 .text._ZN13RpmCalculator16onNewEngineCycleEv
                0x00000000       0x10 build/obj/rpm_calculator.o
 .text          0x00000000        0x0 build/obj/trigger_central.o
 .data          0x00000000        0x0 build/obj/trigger_central.o
 .bss           0x00000000        0x0 build/obj/trigger_central.o
 .text._Z25getStartOfRevolutionIndexv
                0x00000000       0x10 build/obj/trigger_central.o
 .text._ZN14TriggerCentral16addEventListenerEPFv15trigger_event_emEPKcP6Engine
                0x00000000       0x30 build/obj/trigger_central.o
 .text._ZN14TriggerCentral17getHwEventCounterEi
                0x00000000       0x10 build/obj/trigger_central.o
 .text._Z19getTriggerDutyCyclei
                0x00000000       0x10 build/obj/trigger_central.o
 .text          0x00000000        0x0 build/obj/main_trigger_callback.o
 .data          0x00000000        0x0 build/obj/main_trigger_callback.o
 .bss           0x00000000        0x0 build/obj/main_trigger_callback.o
 .text.showMainHistogram
                0x00000000       0x20 build/obj/main_trigger_callback.o
 .text._ZN19MainTriggerCallback4initEP6Engine
                0x00000000       0x20 build/obj/main_trigger_callback.o
 .text          0x00000000        0x0 build/obj/trigger_bmw.o
 .data          0x00000000        0x0 build/obj/trigger_bmw.o
 .bss           0x00000000        0x0 build/obj/trigger_bmw.o
 .text          0x00000000        0x0 build/obj/trigger_mazda.o
 .data          0x00000000        0x0 build/obj/trigger_mazda.o
 .bss           0x00000000        0x0 build/obj/trigger_mazda.o
 .text          0x00000000        0x0 build/obj/trigger_chrysler.o
 .data          0x00000000        0x0 build/obj/trigger_chrysler.o
 .bss           0x00000000        0x0 build/obj/trigger_chrysler.o
 .text          0x00000000        0x0 build/obj/trigger_structure.o
 .data          0x00000000        0x0 build/obj/trigger_structure.o
 .bss           0x00000000        0x0 build/obj/trigger_structure.o
 .text._ZN12TriggerShape30getTriggerShapeSynchPointIndexEv
                0x00000000       0x10 build/obj/trigger_structure.o
 .text._ZNK12multi_wave_s18waveIndertionAngleEfi
                0x00000000       0x40 build/obj/trigger_structure.o
 .text._ZN12TriggerState25getStartOfRevolutionIndexEv
                0x00000000       0x10 build/obj/trigger_structure.o
 .text._ZNK12TriggerShape16getCycleDurationEv
                0x00000000       0x20 build/obj/trigger_structure.o
 .text._ZNK12TriggerShape14getSwitchAngleEi
                0x00000000       0x40 build/obj/trigger_structure.o
 .text          0x00000000        0x0 build/obj/trigger_decoder.o
 .data          0x00000000        0x0 build/obj/trigger_decoder.o
 .bss           0x00000000        0x0 build/obj/trigger_decoder.o
 .text._ZN12TriggerState19getTriggerDutyCycleEi
                0x00000000       0x40 build/obj/trigger_decoder.o
 .text._ZN23TriggerStimulatorHelperC2Ev
                0x00000000       0x10 build/obj/trigger_decoder.o
 .text          0x00000000        0x0 build/obj/trigger_mitsubishi.o
 .data          0x00000000        0x0 build/obj/trigger_mitsubishi.o
 .bss           0x00000000        0x0 build/obj/trigger_mitsubishi.o
 .text          0x00000000        0x0 build/obj/trigger_gm.o
 .data          0x00000000        0x0 build/obj/trigger_gm.o
 .bss           0x00000000        0x0 build/obj/trigger_gm.o
 .text._Z23configureGmTriggerShapeP12TriggerShape
                0x00000000      0x100 build/obj/trigger_gm.o
 .comment       0x00000000       0x31 build/obj/trigger_gm.o
 .ARM.attributes
                0x00000000       0x37 build/obj/trigger_gm.o
 .text          0x00000000        0x0 build/obj/trigger_emulator.o
 .data          0x00000000        0x0 build/obj/trigger_emulator.o
 .bss           0x00000000        0x0 build/obj/trigger_emulator.o
 .text          0x00000000        0x0 build/obj/poten.o
 .data          0x00000000        0x0 build/obj/poten.o
 .bss           0x00000000        0x0 build/obj/poten.o
 .text._Z17initPotentiometerP14Mcp42010DriverP9SPIDriver11brain_pin_e
                0x00000000       0x20 build/obj/poten.o
 .text          0x00000000        0x0 build/obj/sensor_chart.o
 .data          0x00000000        0x0 build/obj/sensor_chart.o
 .bss           0x00000000        0x0 build/obj/sensor_chart.o
 .text          0x00000000        0x0 build/obj/rfi_perftest.o
 .data          0x00000000        0x0 build/obj/rfi_perftest.o
 .bss           0x00000000        0x0 build/obj/rfi_perftest.o
 .comment       0x00000000       0x31 build/obj/rfi_perftest.o
 .ARM.attributes
                0x00000000       0x37 build/obj/rfi_perftest.o
 .text          0x00000000        0x0 build/obj/engine_emulator.o
 .data          0x00000000        0x0 build/obj/engine_emulator.o
 .bss           0x00000000        0x0 build/obj/engine_emulator.o
 .text._Z7setDiagi
                0x00000000       0x30 build/obj/engine_emulator.o
 .text._Z7emulateP6Engine
                0x00000000       0xa0 build/obj/engine_emulator.o
 .text._Z13startEmulatorv
                0x00000000       0x10 build/obj/engine_emulator.o
 .bss._ZL4flag  0x00000000        0x4 build/obj/engine_emulator.o
 .rodata.str1.4
                0x00000000       0x38 build/obj/engine_emulator.o
 .text          0x00000000        0x0 build/obj/wave_chart.o
 .data          0x00000000        0x0 build/obj/wave_chart.o
 .bss           0x00000000        0x0 build/obj/wave_chart.o
 .text._ZN9WaveChart15isWaveChartFullEv
                0x00000000       0x20 build/obj/wave_chart.o
 .text          0x00000000        0x0 build/obj/wave_analyzer.o
 .data          0x00000000        0x0 build/obj/wave_analyzer.o
 .bss           0x00000000        0x0 build/obj/wave_analyzer.o
 .text._ZN10WaveReaderC2Ev
                0x00000000       0x20 build/obj/wave_analyzer.o
 .bss._ZL21engineCycleDurationUs
                0x00000000        0x4 build/obj/wave_analyzer.o
 .group         0x00000000        0x8 build/obj/advance_map.o
 .text          0x00000000        0x0 build/obj/advance_map.o
 .data          0x00000000        0x0 build/obj/advance_map.o
 .bss           0x00000000        0x0 build/obj/advance_map.o
 .text._Z16isStep1Conditioni
                0x00000000       0x30 build/obj/advance_map.o
 .text          0x00000000        0x0 build/obj/idle_controller.o
 .data          0x00000000        0x0 build/obj/idle_controller.o
 .bss           0x00000000        0x0 build/obj/idle_controller.o
 .text          0x00000000        0x0 build/obj/auto_generated_enums.o
 .data          0x00000000        0x0 build/obj/auto_generated_enums.o
 .bss           0x00000000        0x0 build/obj/auto_generated_enums.o
 .text._Z16getEngine_type_e13engine_type_e
                0x00000000      0x210 build/obj/auto_generated_enums.o
 .text._Z21getAdc_channel_mode_e18adc_channel_mode_e
                0x00000000       0x50 build/obj/auto_generated_enums.o
 .text._Z18getTrigger_value_e15trigger_value_e
                0x00000000       0x20 build/obj/auto_generated_enums.o
 .text._Z18getTrigger_wheel_e15trigger_wheel_e
                0x00000000       0x20 build/obj/auto_generated_enums.o
 .text._Z18getTrigger_event_e15trigger_event_e
                0x00000000       0x20 build/obj/auto_generated_enums.o
 .text._Z17getDisplay_mode_e14display_mode_e
                0x00000000       0x50 build/obj/auto_generated_enums.o
 .text._Z15getLog_format_e12log_format_e
                0x00000000       0x40 build/obj/auto_generated_enums.o
 .text._Z14getGpio_mode_e11gpio_mode_e
                0x00000000       0x20 build/obj/auto_generated_enums.o
 .text._Z19getPin_input_mode_e16pin_input_mode_e
                0x00000000       0x50 build/obj/auto_generated_enums.o
 .text._Z17getFiring_order_e14firing_order_e
                0x00000000       0xa0 build/obj/auto_generated_enums.o
 .text._Z19getOperation_mode_e16operation_mode_e
                0x00000000       0x60 build/obj/auto_generated_enums.o
 .text._Z27getCranking_ignition_mode_e24cranking_ignition_mode_e
                0x00000000       0x40 build/obj/auto_generated_enums.o
 .text._Z15getSpi_device_e12spi_device_e
                0x00000000       0x60 build/obj/auto_generated_enums.o
 .text._Z16getAdc_channel_e13adc_channel_e
                0x00000000      0x130 build/obj/auto_generated_enums.o
 .text._Z15getEgo_sensor_e12ego_sensor_e
                0x00000000       0x60 build/obj/auto_generated_enums.o
 .text._Z14getBrain_pin_e11brain_pin_e
                0x00000000      0x550 build/obj/auto_generated_enums.o
 .rodata.CSWTCH.27
                0x00000000        0xc build/obj/auto_generated_enums.o
 .rodata.CSWTCH.29
                0x00000000       0x18 build/obj/auto_generated_enums.o
 .group         0x00000000        0x8 build/obj/fuel_math.o
 .text          0x00000000        0x0 build/obj/fuel_math.o
 .data          0x00000000        0x0 build/obj/fuel_math.o
 .bss           0x00000000        0x0 build/obj/fuel_math.o
 .text._ZN5Map3DILi16ELi16EE8getValueEff
                0x00000000       0x50 build/obj/fuel_math.o
 .text          0x00000000        0x0 build/obj/accel_enrichment.o
 .data          0x00000000        0x0 build/obj/accel_enrichment.o
 .bss           0x00000000        0x0 build/obj/accel_enrichment.o
 .text          0x00000000        0x0 build/obj/engine_configuration.o
 .data          0x00000000        0x0 build/obj/engine_configuration.o
 .bss           0x00000000        0x0 build/obj/engine_configuration.o
 .text._Z12setTimingMapPA16_ff
                0x00000000       0x20 build/obj/engine_configuration.o
 .text._Z16getOperationModePK22engine_configuration_s
                0x00000000       0x10 build/obj/engine_configuration.o
 .group         0x00000000        0x8 build/obj/engine.o
 .text          0x00000000        0x0 build/obj/engine.o
 .data          0x00000000        0x0 build/obj/engine.o
 .bss           0x00000000        0x0 build/obj/engine.o
 .text._ZN11EngineStateC2Ev
                0x00000000       0x20 build/obj/engine.o
 .text._ZN18StartupFuelPumpingC2Ev
                0x00000000       0x10 build/obj/engine.o
 .text._ZN18StartupFuelPumping15setPumpsCounterEP22engine_configuration_si
                0x00000000       0x40 build/obj/engine.o
 .text._ZN18StartupFuelPumping6updateEv
                0x00000000       0x70 build/obj/engine.o
 .text._ZN5Map3DILi16ELi16EE8getValueEff
                0x00000000       0x50 build/obj/engine.o
 .text          0x00000000        0x0 build/obj/lcd_menu_tree.o
 .data          0x00000000        0x0 build/obj/lcd_menu_tree.o
 .bss           0x00000000        0x0 build/obj/lcd_menu_tree.o
 .text          0x00000000        0x0 build/obj/event_registry.o
 .data          0x00000000        0x0 build/obj/event_registry.o
 .bss           0x00000000        0x0 build/obj/event_registry.o
 .text._ZN24event_trigger_position_sC2Ev
                0x00000000       0x10 build/obj/event_registry.o
 .text          0x00000000        0x0 build/obj/algo.o
 .data          0x00000000        0x0 build/obj/algo.o
 .bss           0x00000000        0x0 build/obj/algo.o
 .text          0x00000000        0x0 build/obj/signal_executor.o
 .data          0x00000000        0x0 build/obj/signal_executor.o
 .bss           0x00000000        0x0 build/obj/signal_executor.o
 .text          0x00000000        0x0 build/obj/pwm_generator_logic.o
 .data          0x00000000        0x0 build/obj/pwm_generator_logic.o
 .bss           0x00000000        0x0 build/obj/pwm_generator_logic.o
 .text._ZN9PwmConfig4initEPfP13single_wave_s
                0x00000000       0x10 build/obj/pwm_generator_logic.o
 .text          0x00000000        0x0 build/obj/signal_executor_sleep.o
 .data          0x00000000        0x0 build/obj/signal_executor_sleep.o
 .bss           0x00000000        0x0 build/obj/signal_executor_sleep.o
 .comment       0x00000000       0x31 build/obj/signal_executor_sleep.o
 .ARM.attributes
                0x00000000       0x37 build/obj/signal_executor_sleep.o
 .text          0x00000000        0x0 build/obj/event_queue.o
 .data          0x00000000        0x0 build/obj/event_queue.o
 .bss           0x00000000        0x0 build/obj/event_queue.o
 .text._ZN10EventQueue14checkIfPendingEP12scheduling_s
                0x00000000       0x50 build/obj/event_queue.o
 .text._ZN10EventQueue4sizeEv
                0x00000000       0x20 build/obj/event_queue.o
 .text._ZN10EventQueue7getHeadEv
                0x00000000       0x10 build/obj/event_queue.o
 .text._ZN10EventQueue14getForUnitTextEi
                0x00000000       0x20 build/obj/event_queue.o
 .text._ZN10EventQueue5clearEv
                0x00000000       0x10 build/obj/event_queue.o
 .text          0x00000000        0x0 build/obj/efiGpio.o
 .data          0x00000000        0x0 build/obj/efiGpio.o
 .bss           0x00000000        0x0 build/obj/efiGpio.o
 .text._ZN14NamedOutputPinC2Ev
                0x00000000       0x20 build/obj/efiGpio.o
 .text          0x00000000        0x0 build/obj/SingleTimerExecutor.o
 .data          0x00000000        0x0 build/obj/SingleTimerExecutor.o
 .bss           0x00000000        0x0 build/obj/SingleTimerExecutor.o
 .text._ZN8Executor8scheduleEP12scheduling_syiPFvPvES2_
                0x00000000       0x20 build/obj/SingleTimerExecutor.o
 .text          0x00000000        0x0 build/obj/ford_aspire.o
 .data          0x00000000        0x0 build/obj/ford_aspire.o
 .bss           0x00000000        0x0 build/obj/ford_aspire.o
 .text          0x00000000        0x0 build/obj/custom_engine.o
 .data          0x00000000        0x0 build/obj/custom_engine.o
 .bss           0x00000000        0x0 build/obj/custom_engine.o
 .text          0x00000000        0x0 build/obj/MiniCooperR50.o
 .data          0x00000000        0x0 build/obj/MiniCooperR50.o
 .bss           0x00000000        0x0 build/obj/MiniCooperR50.o
 .text          0x00000000        0x0 build/obj/acura_rsx.o
 .data          0x00000000        0x0 build/obj/acura_rsx.o
 .bss           0x00000000        0x0 build/obj/acura_rsx.o
 .text          0x00000000        0x0 build/obj/audi_aan.o
 .data          0x00000000        0x0 build/obj/audi_aan.o
 .bss           0x00000000        0x0 build/obj/audi_aan.o
 .comment       0x00000000       0x31 build/obj/audi_aan.o
 .ARM.attributes
                0x00000000       0x37 build/obj/audi_aan.o
 .text          0x00000000        0x0 build/obj/bmw_e34.o
 .data          0x00000000        0x0 build/obj/bmw_e34.o
 .bss           0x00000000        0x0 build/obj/bmw_e34.o
 .text          0x00000000        0x0 build/obj/mazda_miata.o
 .data          0x00000000        0x0 build/obj/mazda_miata.o
 .bss           0x00000000        0x0 build/obj/mazda_miata.o
 .text          0x00000000        0x0 build/obj/citroenBerlingoTU3JP.o
 .data          0x00000000        0x0 build/obj/citroenBerlingoTU3JP.o
 .bss           0x00000000        0x0 build/obj/citroenBerlingoTU3JP.o
 .text._Z6setLCDP21board_configuration_s
                0x00000000       0x30 build/obj/citroenBerlingoTU3JP.o
 .text          0x00000000        0x0 build/obj/dodge_neon.o
 .data          0x00000000        0x0 build/obj/dodge_neon.o
 .bss           0x00000000        0x0 build/obj/dodge_neon.o
 .text          0x00000000        0x0 build/obj/ford_fiesta.o
 .data          0x00000000        0x0 build/obj/ford_fiesta.o
 .bss           0x00000000        0x0 build/obj/ford_fiesta.o
 .text          0x00000000        0x0 build/obj/ford_1995_inline_6.o
 .data          0x00000000        0x0 build/obj/ford_1995_inline_6.o
 .bss           0x00000000        0x0 build/obj/ford_1995_inline_6.o
 .text          0x00000000        0x0 build/obj/nissan_primera.o
 .data          0x00000000        0x0 build/obj/nissan_primera.o
 .bss           0x00000000        0x0 build/obj/nissan_primera.o
 .text          0x00000000        0x0 build/obj/mazda_miata_nb.o
 .data          0x00000000        0x0 build/obj/mazda_miata_nb.o
 .bss           0x00000000        0x0 build/obj/mazda_miata_nb.o
 .text          0x00000000        0x0 build/obj/honda_accord.o
 .data          0x00000000        0x0 build/obj/honda_accord.o
 .bss           0x00000000        0x0 build/obj/honda_accord.o
 .text          0x00000000        0x0 build/obj/subaru.o
 .data          0x00000000        0x0 build/obj/subaru.o
 .bss           0x00000000        0x0 build/obj/subaru.o
 .text          0x00000000        0x0 build/obj/snow_blower.o
 .data          0x00000000        0x0 build/obj/snow_blower.o
 .bss           0x00000000        0x0 build/obj/snow_blower.o
 .comment       0x00000000       0x31 build/obj/snow_blower.o
 .ARM.attributes
                0x00000000       0x37 build/obj/snow_blower.o
 .text          0x00000000        0x0 build/obj/GY6_139QMB.o
 .data          0x00000000        0x0 build/obj/GY6_139QMB.o
 .bss           0x00000000        0x0 build/obj/GY6_139QMB.o
 .text          0x00000000        0x0 build/obj/rover_v8.o
 .data          0x00000000        0x0 build/obj/rover_v8.o
 .bss           0x00000000        0x0 build/obj/rover_v8.o
 .text          0x00000000        0x0 build/obj/mazda_323.o
 .data          0x00000000        0x0 build/obj/mazda_323.o
 .bss           0x00000000        0x0 build/obj/mazda_323.o
 .text          0x00000000        0x0 build/obj/mazda_626.o
 .data          0x00000000        0x0 build/obj/mazda_626.o
 .bss           0x00000000        0x0 build/obj/mazda_626.o
 .text          0x00000000        0x0 build/obj/saturn_ion.o
 .data          0x00000000        0x0 build/obj/saturn_ion.o
 .bss           0x00000000        0x0 build/obj/saturn_ion.o
 .text          0x00000000        0x0 build/obj/sachs.o
 .data          0x00000000        0x0 build/obj/sachs.o
 .bss           0x00000000        0x0 build/obj/sachs.o
 .text          0x00000000        0x0 build/obj/test_engine.o
 .data          0x00000000        0x0 build/obj/test_engine.o
 .bss           0x00000000        0x0 build/obj/test_engine.o
 .text          0x00000000        0x0 build/obj/mitsubishi.o
 .data          0x00000000        0x0 build/obj/mitsubishi.o
 .bss           0x00000000        0x0 build/obj/mitsubishi.o
 .text          0x00000000        0x0 build/obj/gm_2_2.o
 .data          0x00000000        0x0 build/obj/gm_2_2.o
 .bss           0x00000000        0x0 build/obj/gm_2_2.o
 .text          0x00000000        0x0 build/obj/dodge_ram.o
 .data          0x00000000        0x0 build/obj/dodge_ram.o
 .bss           0x00000000        0x0 build/obj/dodge_ram.o
 .text          0x00000000        0x0 build/obj/vw.o
 .data          0x00000000        0x0 build/obj/vw.o
 .bss           0x00000000        0x0 build/obj/vw.o
 .text          0x00000000        0x0 build/obj/can_hw.o
 .data          0x00000000        0x0 build/obj/can_hw.o
 .bss           0x00000000        0x0 build/obj/can_hw.o
 .text          0x00000000        0x0 build/obj/max31855.o
 .data          0x00000000        0x0 build/obj/max31855.o
 .bss           0x00000000        0x0 build/obj/max31855.o
 .text          0x00000000        0x0 build/obj/pin_repository.o
 .data          0x00000000        0x0 build/obj/pin_repository.o
 .bss           0x00000000        0x0 build/obj/pin_repository.o
 .text._Z25registedFundamentralIoPinPcP12GPIO_TypeDefmm
                0x00000000       0xa0 build/obj/pin_repository.o
 .text          0x00000000        0x0 build/obj/microsecond_timer.o
 .data          0x00000000        0x0 build/obj/microsecond_timer.o
 .bss           0x00000000        0x0 build/obj/microsecond_timer.o
 .text          0x00000000        0x0 build/obj/digital_input_hw.o
 .data          0x00000000        0x0 build/obj/digital_input_hw.o
 .bss           0x00000000        0x0 build/obj/digital_input_hw.o
 .text._Z22getInputCaptureChannel11brain_pin_e
                0x00000000       0x70 build/obj/digital_input_hw.o
 .text          0x00000000        0x0 build/obj/hardware.o
 .data          0x00000000        0x0 build/obj/hardware.o
 .bss           0x00000000        0x0 build/obj/hardware.o
 .text._Z13initI2Cmodulev
                0x00000000       0x60 build/obj/hardware.o
 .text._Z14turnOnHardwareP7Logging
                0x00000000       0x10 build/obj/hardware.o
 .data._ZL5i2cfg
                0x00000000        0xc build/obj/hardware.o
 .text          0x00000000        0x0 build/obj/neo6m.o
 .data          0x00000000        0x0 build/obj/neo6m.o
 .bss           0x00000000        0x0 build/obj/neo6m.o
 .text.getCurrentSpeed
                0x00000000       0x10 build/obj/neo6m.o
 .text          0x00000000        0x0 build/obj/mmc_card.o
 .data          0x00000000        0x0 build/obj/mmc_card.o
 .bss           0x00000000        0x0 build/obj/mmc_card.o
 .text          0x00000000        0x0 build/obj/lcd_HD44780.o
 .data          0x00000000        0x0 build/obj/lcd_HD44780.o
 .bss           0x00000000        0x0 build/obj/lcd_HD44780.o
 .text.getCurrentHD44780row
                0x00000000       0x10 build/obj/lcd_HD44780.o
 .text          0x00000000        0x0 build/obj/adc_inputs.o
 .data          0x00000000        0x0 build/obj/adc_inputs.o
 .bss           0x00000000        0x0 build/obj/adc_inputs.o
 .text._ZN9AdcDevice22getAdcValueByHwChannelEi
                0x00000000       0x10 build/obj/adc_inputs.o
 .text._ZN9AdcDevice4initEv
                0x00000000       0x20 build/obj/adc_inputs.o
 .text          0x00000000        0x0 build/obj/board_test.o
 .data          0x00000000        0x0 build/obj/board_test.o
 .bss           0x00000000        0x0 build/obj/board_test.o
 .text          0x00000000        0x0 build/obj/pwm_generator.o
 .data          0x00000000        0x0 build/obj/pwm_generator.o
 .bss           0x00000000        0x0 build/obj/pwm_generator.o
 .text          0x00000000        0x0 build/obj/trigger_input.o
 .data          0x00000000        0x0 build/obj/trigger_input.o
 .bss           0x00000000        0x0 build/obj/trigger_input.o
 .text          0x00000000        0x0 build/obj/HIP9011.o
 .data          0x00000000        0x0 build/obj/HIP9011.o
 .bss           0x00000000        0x0 build/obj/HIP9011.o
 .text          0x00000000        0x0 build/obj/vehicle_speed.o
 .data          0x00000000        0x0 build/obj/vehicle_speed.o
 .bss           0x00000000        0x0 build/obj/vehicle_speed.o
 .text          0x00000000        0x0 build/obj/joystick.o
 .data          0x00000000        0x0 build/obj/joystick.o
 .bss           0x00000000        0x0 build/obj/joystick.o
 .text          0x00000000        0x0 build/obj/stepper.o
 .data          0x00000000        0x0 build/obj/stepper.o
 .bss           0x00000000        0x0 build/obj/stepper.o
 .text._ZN12StepperMotor17getTargetPositionEv
                0x00000000       0x10 build/obj/stepper.o
 .text          0x00000000        0x0 build/obj/servo.o
 .data          0x00000000        0x0 build/obj/servo.o
 .bss           0x00000000        0x0 build/obj/servo.o
 .comment       0x00000000       0x31 build/obj/servo.o
 .ARM.attributes
                0x00000000       0x37 build/obj/servo.o
 .text          0x00000000        0x0 build/obj/io_pins.o
 .data          0x00000000        0x0 build/obj/io_pins.o
 .bss           0x00000000        0x0 build/obj/io_pins.o
 .text          0x00000000        0x0 build/obj/gpio_helper.o
 .data          0x00000000        0x0 build/obj/gpio_helper.o
 .bss           0x00000000        0x0 build/obj/gpio_helper.o
 .text._Z13initOutputPinPKcP9OutputPinP12GPIO_TypeDefm
                0x00000000       0x10 build/obj/gpio_helper.o
 .text          0x00000000        0x0 build/obj/mpu_util.o
 .data          0x00000000        0x0 build/obj/mpu_util.o
 .bss           0x00000000        0x0 build/obj/mpu_util.o
 .text.prvGetRegistersFromStack
                0x00000000      0x130 build/obj/mpu_util.o
 .bss.postmortem_lr
                0x00000000        0x4 build/obj/mpu_util.o
 .bss.postmortem_SCB_SHCSR
                0x00000000        0x4 build/obj/mpu_util.o
 .bss.postmortem_pc
                0x00000000        0x4 build/obj/mpu_util.o
 .bss.postmortem_r12
                0x00000000        0x4 build/obj/mpu_util.o
 .bss.postmortem_BFAR
                0x00000000        0x4 build/obj/mpu_util.o
 .bss.postmortem_psr
                0x00000000        0x4 build/obj/mpu_util.o
 .bss.postmortem_CFSR
                0x00000000        0x4 build/obj/mpu_util.o
 .bss.postmortem_DFSR
                0x00000000        0x4 build/obj/mpu_util.o
 .bss.postmortem_MMAR
                0x00000000        0x4 build/obj/mpu_util.o
 .bss.postmortem_HFSR
                0x00000000        0x4 build/obj/mpu_util.o
 .bss.postmortem_AFSR
                0x00000000        0x4 build/obj/mpu_util.o
 .bss.postmortem_r0
                0x00000000        0x4 build/obj/mpu_util.o
 .bss.postmortem_r1
                0x00000000        0x4 build/obj/mpu_util.o
 .bss.postmortem_r2
                0x00000000        0x4 build/obj/mpu_util.o
 .bss.postmortem_r3
                0x00000000        0x4 build/obj/mpu_util.o
 .text          0x00000000        0x0 build/obj/rtc_helper.o
 .data          0x00000000        0x0 build/obj/rtc_helper.o
 .bss           0x00000000        0x0 build/obj/rtc_helper.o
 .text._Z12dateToStringPc
                0x00000000      0x100 build/obj/rtc_helper.o
 .rodata        0x00000000       0x10 build/obj/rtc_helper.o
 .bss._ZZ12dateToStringPcE4buff
                0x00000000        0x4 build/obj/rtc_helper.o
 .text          0x00000000        0x0 build/obj/wbo.o
 .data          0x00000000        0x0 build/obj/wbo.o
 .bss           0x00000000        0x0 build/obj/wbo.o
 .text          0x00000000        0x0 build/obj/tunerstudio_io.o
 .data          0x00000000        0x0 build/obj/tunerstudio_io.o
 .bss           0x00000000        0x0 build/obj/tunerstudio_io.o
 .text          0x00000000        0x0 build/obj/tunerstudio.o
 .data          0x00000000        0x0 build/obj/tunerstudio.o
 .bss           0x00000000        0x0 build/obj/tunerstudio.o
 .text._Z16tunerStudioDebugPKc
                0x00000000       0x20 build/obj/tunerstudio.o
 .text._Z18getWorkingPageAddri
                0x00000000       0x20 build/obj/tunerstudio.o
 .text._Z22getTunerStudioPageSizei
                0x00000000       0x10 build/obj/tunerstudio.o
 .text._Z11yellowMagiciii
                0x00000000       0x20 build/obj/tunerstudio.o
 .text          0x00000000        0x0 build/obj/status_loop.o
 .data          0x00000000        0x0 build/obj/status_loop.o
 .bss           0x00000000        0x0 build/obj/status_loop.o
 .text          0x00000000        0x0 build/obj/console_io.o
 .data          0x00000000        0x0 build/obj/console_io.o
 .bss           0x00000000        0x0 build/obj/console_io.o
 .text._Z14consolePutChari
                0x00000000       0x40 build/obj/console_io.o
 .text          0x00000000        0x0 build/obj/eficonsole.o
 .data          0x00000000        0x0 build/obj/eficonsole.o
 .bss           0x00000000        0x0 build/obj/eficonsole.o
 .text._Z6fatal3PcS_i
                0x00000000       0x30 build/obj/eficonsole.o
 .bss._ZL17fatalErrorMessage
                0x00000000       0xc8 build/obj/eficonsole.o
 .text          0x00000000        0x0 build/obj/thermistors.o
 .data          0x00000000        0x0 build/obj/thermistors.o
 .bss           0x00000000        0x0 build/obj/thermistors.o
 .text._Z21getR1InVoltageDividorfff
                0x00000000       0x20 build/obj/thermistors.o
 .text._Z21getR2InVoltageDividorfff
                0x00000000       0x40 build/obj/thermistors.o
 .text._Z23getVoutInVoltageDividorfff
                0x00000000       0x20 build/obj/thermistors.o
 .text._Z17convertCelsiustoFf
                0x00000000       0x30 build/obj/thermistors.o
 .text._Z17convertFtoCelsiusf
                0x00000000       0x30 build/obj/thermistors.o
 .text._Z25convertKelvinToFahrenheitf
                0x00000000       0x40 build/obj/thermistors.o
 .text          0x00000000        0x0 build/obj/allsensors.o
 .data          0x00000000        0x0 build/obj/allsensors.o
 .bss           0x00000000        0x0 build/obj/allsensors.o
 .text          0x00000000        0x0 build/obj/map.o
 .data          0x00000000        0x0 build/obj/map.o
 .bss           0x00000000        0x0 build/obj/map.o
 .text          0x00000000        0x0 build/obj/voltage.o
 .data          0x00000000        0x0 build/obj/voltage.o
 .bss           0x00000000        0x0 build/obj/voltage.o
 .text._Z7getVRefv
                0x00000000       0x40 build/obj/voltage.o
 .text          0x00000000        0x0 build/obj/maf.o
 .data          0x00000000        0x0 build/obj/maf.o
 .bss           0x00000000        0x0 build/obj/maf.o
 .text._Z18setBosch0280218004P19persistent_config_s
                0x00000000       0x30 build/obj/maf.o
 .text          0x00000000        0x0 build/obj/tps.o
 .data          0x00000000        0x0 build/obj/tps.o
 .bss           0x00000000        0x0 build/obj/tps.o
 .text._Z12saveTpsStatelf
                0x00000000       0x70 build/obj/tps.o
 .text          0x00000000        0x0 build/obj/ego.o
 .data          0x00000000        0x0 build/obj/ego.o
 .bss           0x00000000        0x0 build/obj/ego.o
 .text          0x00000000        0x0 build/obj/hip9011_lookup.o
 .data          0x00000000        0x0 build/obj/hip9011_lookup.o
 .bss           0x00000000        0x0 build/obj/hip9011_lookup.o
 .text._Z28getRpmByAngleWindowAndTimeUsif
                0x00000000       0x50 build/obj/hip9011_lookup.o
 .text          0x00000000        0x0 build/obj/settings.o
 .data          0x00000000        0x0 build/obj/settings.o
 .bss           0x00000000        0x0 build/obj/settings.o
 .text._Z15printFloatArrayPKcPfi
                0x00000000       0x70 build/obj/settings.o
 .text          0x00000000        0x0 build/obj/electronic_throttle.o
 .data          0x00000000        0x0 build/obj/electronic_throttle.o
 .bss           0x00000000        0x0 build/obj/electronic_throttle.o
 .text          0x00000000        0x0 build/obj/error_handling.o
 .data          0x00000000        0x0 build/obj/error_handling.o
 .bss           0x00000000        0x0 build/obj/error_handling.o
 .text._Z10onLockHookv
                0x00000000       0x20 build/obj/error_handling.o
 .text._Z12onUnlockHookv
                0x00000000       0x30 build/obj/error_handling.o
 .text.getVtSizeEstimate
                0x00000000       0x30 build/obj/error_handling.o
 .text.assertVtList
                0x00000000       0x70 build/obj/error_handling.o
 .bss.lastLockTime
                0x00000000        0x4 build/obj/error_handling.o
 .bss.globalVt  0x00000000        0x4 build/obj/error_handling.o
 .bss.allReady  0x00000000        0x4 build/obj/error_handling.o
 .text          0x00000000        0x0 build/obj/map_averaging.o
 .data          0x00000000        0x0 build/obj/map_averaging.o
 .bss           0x00000000        0x0 build/obj/map_averaging.o
 .text._Z13getMapVoltagev
                0x00000000       0x10 build/obj/map_averaging.o
 .text          0x00000000        0x0 build/obj/flash_main.o
 .data          0x00000000        0x0 build/obj/flash_main.o
 .bss           0x00000000        0x0 build/obj/flash_main.o
 .text._Z13flashStateCrcP29persistent_config_container_s
                0x00000000       0x10 build/obj/flash_main.o
 .text          0x00000000        0x0 build/obj/injector_central.o
 .data          0x00000000        0x0 build/obj/injector_central.o
 .bss           0x00000000        0x0 build/obj/injector_central.o
 .text._Z17isInjectorEnabledi
                0x00000000       0x20 build/obj/injector_central.o
 .text          0x00000000        0x0 build/obj/idle_thread.o
 .data          0x00000000        0x0 build/obj/idle_thread.o
 .bss           0x00000000        0x0 build/obj/idle_thread.o
 .text          0x00000000        0x0 build/obj/PwmTester.o
 .data          0x00000000        0x0 build/obj/PwmTester.o
 .bss           0x00000000        0x0 build/obj/PwmTester.o
 .comment       0x00000000       0x31 build/obj/PwmTester.o
 .ARM.attributes
                0x00000000       0x37 build/obj/PwmTester.o
 .text          0x00000000        0x0 build/obj/obd2.o
 .data          0x00000000        0x0 build/obj/obd2.o
 .bss           0x00000000        0x0 build/obj/obd2.o
 .text          0x00000000        0x0 build/obj/malfunction_indicator.o
 .data          0x00000000        0x0 build/obj/malfunction_indicator.o
 .bss           0x00000000        0x0 build/obj/malfunction_indicator.o
 .text          0x00000000        0x0 build/obj/alternatorController.o
 .data          0x00000000        0x0 build/obj/alternatorController.o
 .bss           0x00000000        0x0 build/obj/alternatorController.o
 .text          0x00000000        0x0 build/obj/lcd_controller.o
 .data          0x00000000        0x0 build/obj/lcd_controller.o
 .bss           0x00000000        0x0 build/obj/lcd_controller.o
 .text._Z9appendStrPcPKc
                0x00000000       0x20 build/obj/lcd_controller.o
 .text          0x00000000        0x0 build/obj/engine_controller.o
 .data          0x00000000        0x0 build/obj/engine_controller.o
 .bss           0x00000000        0x0 build/obj/engine_controller.o
 .text._Z18initPeriodicEventsv
                0x00000000       0x10 build/obj/engine_controller.o
 .text          0x00000000        0x0 build/obj/cyclic_buffer.o
 .data          0x00000000        0x0 build/obj/cyclic_buffer.o
 .bss           0x00000000        0x0 build/obj/cyclic_buffer.o
 .comment       0x00000000       0x31 build/obj/cyclic_buffer.o
 .ARM.attributes
                0x00000000       0x37 build/obj/cyclic_buffer.o
 .text          0x00000000        0x0 build/obj/datalogging.o
 .data          0x00000000        0x0 build/obj/datalogging.o
 .bss           0x00000000        0x0 build/obj/datalogging.o
 .text.isInitialized
                0x00000000       0x20 build/obj/datalogging.o
 .text._ZN7Logging15baseConstructorEv
                0x00000000       0x10 build/obj/datalogging.o
 .text          0x00000000        0x0 build/obj/loggingcentral.o
 .data          0x00000000        0x0 build/obj/loggingcentral.o
 .bss           0x00000000        0x0 build/obj/loggingcentral.o
 .text          0x00000000        0x0 build/obj/listener_array.o
 .data          0x00000000        0x0 build/obj/listener_array.o
 .bss           0x00000000        0x0 build/obj/listener_array.o
 .text._ZN16IntListenerArray16registerCallbackEPFvvE
                0x00000000       0x30 build/obj/listener_array.o
 .text._Z15invokeCallbacksP16IntListenerArrayi
                0x00000000       0x30 build/obj/listener_array.o
 .text._Z21invokeArgIntCallbacksP16IntListenerArrayi
                0x00000000       0x30 build/obj/listener_array.o
 .text._Z21invokeIntIntCallbacksP16IntListenerArrayii
                0x00000000       0x30 build/obj/listener_array.o
 .text._Z25invokeIntIntVoidCallbacksP16IntListenerArrayii
                0x00000000       0x30 build/obj/listener_array.o
 .text          0x00000000        0x0 build/obj/cli_registry.o
 .data          0x00000000        0x0 build/obj/cli_registry.o
 .bss           0x00000000        0x0 build/obj/cli_registry.o
 .text.resetConsoleActions
                0x00000000       0x10 build/obj/cli_registry.o
 .text.addConsoleActionIIP
                0x00000000       0x10 build/obj/cli_registry.o
 .text.addConsoleActionFFP
                0x00000000       0x10 build/obj/cli_registry.o
 .text.tokenLength
                0x00000000       0x20 build/obj/cli_registry.o
 .text          0x00000000        0x0 build/obj/efilib.o
 .data          0x00000000        0x0 build/obj/efilib.o
 .bss           0x00000000        0x0 build/obj/efilib.o
 .text.startsWith
                0x00000000       0x60 build/obj/efilib.o
 .text          0x00000000        0x0 build/obj/efilib2.o
 .data          0x00000000        0x0 build/obj/efilib2.o
 .bss           0x00000000        0x0 build/obj/efilib2.o
 .text          0x00000000        0x0 build/obj/LocalVersionHolder.o
 .data          0x00000000        0x0 build/obj/LocalVersionHolder.o
 .bss           0x00000000        0x0 build/obj/LocalVersionHolder.o
 .text          0x00000000        0x0 build/obj/EfiWave.o
 .data          0x00000000        0x0 build/obj/EfiWave.o
 .bss           0x00000000        0x0 build/obj/EfiWave.o
 .text._ZN12multi_wave_s15baseConstructorEv
                0x00000000       0x10 build/obj/EfiWave.o
 .text          0x00000000        0x0 build/obj/avg_values.o
 .data          0x00000000        0x0 build/obj/avg_values.o
 .bss           0x00000000        0x0 build/obj/avg_values.o
 .text._Z7avgFillP8AvgTableif
                0x00000000       0x30 build/obj/avg_values.o
 .text._Z8avgResetP8AvgTable
                0x00000000       0x30 build/obj/avg_values.o
 .text._Z11avgAddValueP8AvgTableiff
                0x00000000       0x80 build/obj/avg_values.o
 .text._Z20avgGetValueByIndexesP8AvgTableii
                0x00000000       0x40 build/obj/avg_values.o
 .text._Z11avgGetValueP8AvgTableif
                0x00000000       0x90 build/obj/avg_values.o
 .text._Z17avgGetValuesCountP8AvgTableif
                0x00000000       0x70 build/obj/avg_values.o
 .comment       0x00000000       0x31 build/obj/avg_values.o
 .ARM.attributes
                0x00000000       0x37 build/obj/avg_values.o
 .text          0x00000000        0x0 build/obj/table_helper.o
 .data          0x00000000        0x0 build/obj/table_helper.o
 .bss           0x00000000        0x0 build/obj/table_helper.o
 .text          0x00000000        0x0 build/obj/fsio_core.o
 .data          0x00000000        0x0 build/obj/fsio_core.o
 .bss           0x00000000        0x0 build/obj/fsio_core.o
 .text._ZN9LEElement4initE11le_action_e
                0x00000000       0x10 build/obj/fsio_core.o
 .text._ZN9LEElement4initE11le_action_ef
                0x00000000       0x10 build/obj/fsio_core.o
 .text._ZN12LECalculator5resetEv
                0x00000000       0x10 build/obj/fsio_core.o
 .text._ZN12LECalculator5resetEP9LEElement
                0x00000000       0x10 build/obj/fsio_core.o
 .text._ZN12LECalculator3addEP9LEElement
                0x00000000       0x20 build/obj/fsio_core.o
 .text._Z9isNumericPKc
                0x00000000       0x10 build/obj/fsio_core.o
 .text          0x00000000        0x0 build/obj/interpolation.o
 .data          0x00000000        0x0 build/obj/interpolation.o
 .bss           0x00000000        0x0 build/obj/interpolation.o
 .data.needInterpolationLogging
                0x00000000        0x4 build/obj/interpolation.o
 .text          0x00000000        0x0 build/obj/fsio_impl.o
 .data          0x00000000        0x0 build/obj/fsio_impl.o
 .bss           0x00000000        0x0 build/obj/fsio_impl.o
 .text          0x00000000        0x0 build/obj/engine_math.o
 .data          0x00000000        0x0 build/obj/engine_math.o
 .bss           0x00000000        0x0 build/obj/engine_math.o
 .text._Z29getCrankshaftRevolutionTimeMsi
                0x00000000       0x30 build/obj/engine_math.o
 .text._ZN12FuelSchedule5clearEv
                0x00000000       0x20 build/obj/engine_math.o
 .text          0x00000000        0x0 build/obj/pid.o
 .data          0x00000000        0x0 build/obj/pid.o
 .bss           0x00000000        0x0 build/obj/pid.o
 .text._ZN3Pid5resetEv
                0x00000000       0x10 build/obj/pid.o
 .group         0x00000000        0x8 build/obj/speed_density.o
 .text          0x00000000        0x0 build/obj/speed_density.o
 .data          0x00000000        0x0 build/obj/speed_density.o
 .bss           0x00000000        0x0 build/obj/speed_density.o
 .text          0x00000000        0x0 build/obj/rusefi.o
 .data          0x00000000        0x0 build/obj/rusefi.o
 .bss           0x00000000        0x0 build/obj/rusefi.o
 .text.getFirmwareError
                0x00000000       0x10 build/obj/rusefi.o
 .text._Z8swo_initv
                0x00000000       0x10 build/obj/rusefi.o
 .text          0x00000000        0x0 build/obj/main.o
 .data          0x00000000        0x0 build/obj/main.o
 .bss           0x00000000        0x0 build/obj/main.o
 .data          0x00000000        0x0 c:/progra~2/codesourcery/sourcery_codebench_lite_for_arm_eabi/bin/../lib/gcc/arm-none-eabi/4.8.1/../../../../arm-none-eabi/lib/thumb2\libm.a(lib_a-s_fpclassify.o)
 .bss           0x00000000        0x0 c:/progra~2/codesourcery/sourcery_codebench_lite_for_arm_eabi/bin/../lib/gcc/arm-none-eabi/4.8.1/../../../../arm-none-eabi/lib/thumb2\libm.a(lib_a-s_fpclassify.o)
 .data          0x00000000        0x0 c:/progra~2/codesourcery/sourcery_codebench_lite_for_arm_eabi/bin/../lib/gcc/arm-none-eabi/4.8.1/../../../../arm-none-eabi/lib/thumb2\libm.a(lib_a-s_modf.o)
 .bss           0x00000000        0x0 c:/progra~2/codesourcery/sourcery_codebench_lite_for_arm_eabi/bin/../lib/gcc/arm-none-eabi/4.8.1/../../../../arm-none-eabi/lib/thumb2\libm.a(lib_a-s_modf.o)
 .data          0x00000000        0x0 c:/progra~2/codesourcery/sourcery_codebench_lite_for_arm_eabi/bin/../lib/gcc/arm-none-eabi/4.8.1/../../../../arm-none-eabi/lib/thumb2\libm.a(lib_a-s_round.o)
 .bss           0x00000000        0x0 c:/progra~2/codesourcery/sourcery_codebench_lite_for_arm_eabi/bin/../lib/gcc/arm-none-eabi/4.8.1/../../../../arm-none-eabi/lib/thumb2\libm.a(lib_a-s_round.o)
 .data          0x00000000        0x0 c:/progra~2/codesourcery/sourcery_codebench_lite_for_arm_eabi/bin/../lib/gcc/arm-none-eabi/4.8.1/../../../../arm-none-eabi/lib/thumb2\libm.a(lib_a-sf_fpclassify.o)
 .bss           0x00000000        0x0 c:/progra~2/codesourcery/sourcery_codebench_lite_for_arm_eabi/bin/../lib/gcc/arm-none-eabi/4.8.1/../../../../arm-none-eabi/lib/thumb2\libm.a(lib_a-sf_fpclassify.o)
 .data          0x00000000        0x0 c:/progra~2/codesourcery/sourcery_codebench_lite_for_arm_eabi/bin/../lib/gcc/arm-none-eabi/4.8.1/../../../../arm-none-eabi/lib/thumb2\libm.a(lib_a-wf_log.o)
 .bss           0x00000000        0x0 c:/progra~2/codesourcery/sourcery_codebench_lite_for_arm_eabi/bin/../lib/gcc/arm-none-eabi/4.8.1/../../../../arm-none-eabi/lib/thumb2\libm.a(lib_a-wf_log.o)
 .data          0x00000000        0x0 c:/progra~2/codesourcery/sourcery_codebench_lite_for_arm_eabi/bin/../lib/gcc/arm-none-eabi/4.8.1/../../../../arm-none-eabi/lib/thumb2\libm.a(lib_a-ef_log.o)
 .bss           0x00000000        0x0 c:/progra~2/codesourcery/sourcery_codebench_lite_for_arm_eabi/bin/../lib/gcc/arm-none-eabi/4.8.1/../../../../arm-none-eabi/lib/thumb2\libm.a(lib_a-ef_log.o)
 .text          0x00000000        0x0 c:/progra~2/codesourcery/sourcery_codebench_lite_for_arm_eabi/bin/../lib/gcc/arm-none-eabi/4.8.1/../../../../arm-none-eabi/lib/thumb2\libm.a(lib_a-s_lib_ver.o)
 .bss           0x00000000        0x0 c:/progra~2/codesourcery/sourcery_codebench_lite_for_arm_eabi/bin/../lib/gcc/arm-none-eabi/4.8.1/../../../../arm-none-eabi/lib/thumb2\libm.a(lib_a-s_lib_ver.o)
 .data          0x00000000        0x0 c:/progra~2/codesourcery/sourcery_codebench_lite_for_arm_eabi/bin/../lib/gcc/arm-none-eabi/4.8.1/../../../../arm-none-eabi/lib/thumb2\libm.a(lib_a-s_matherr.o)
 .bss           0x00000000        0x0 c:/progra~2/codesourcery/sourcery_codebench_lite_for_arm_eabi/bin/../lib/gcc/arm-none-eabi/4.8.1/../../../../arm-none-eabi/lib/thumb2\libm.a(lib_a-s_matherr.o)
 .data          0x00000000        0x0 c:/progra~2/codesourcery/sourcery_codebench_lite_for_arm_eabi/bin/../lib/gcc/arm-none-eabi/4.8.1/../../../../arm-none-eabi/lib/thumb2\libm.a(lib_a-s_nan.o)
 .bss           0x00000000        0x0 c:/progra~2/codesourcery/sourcery_codebench_lite_for_arm_eabi/bin/../lib/gcc/arm-none-eabi/4.8.1/../../../../arm-none-eabi/lib/thumb2\libm.a(lib_a-s_nan.o)
 .data          0x00000000        0x0 c:/progra~2/codesourcery/sourcery_codebench_lite_for_arm_eabi/bin/../lib/gcc/arm-none-eabi/4.8.1/thumb2\libgcc.a(_arm_addsubdf3.o)
 .bss           0x00000000        0x0 c:/progra~2/codesourcery/sourcery_codebench_lite_for_arm_eabi/bin/../lib/gcc/arm-none-eabi/4.8.1/thumb2\libgcc.a(_arm_addsubdf3.o)
 .data          0x00000000        0x0 c:/progra~2/codesourcery/sourcery_codebench_lite_for_arm_eabi/bin/../lib/gcc/arm-none-eabi/4.8.1/thumb2\libgcc.a(_arm_muldivdf3.o)
 .bss           0x00000000        0x0 c:/progra~2/codesourcery/sourcery_codebench_lite_for_arm_eabi/bin/../lib/gcc/arm-none-eabi/4.8.1/thumb2\libgcc.a(_arm_muldivdf3.o)
 .data          0x00000000        0x0 c:/progra~2/codesourcery/sourcery_codebench_lite_for_arm_eabi/bin/../lib/gcc/arm-none-eabi/4.8.1/thumb2\libgcc.a(_arm_cmpdf2.o)
 .bss           0x00000000        0x0 c:/progra~2/codesourcery/sourcery_codebench_lite_for_arm_eabi/bin/../lib/gcc/arm-none-eabi/4.8.1/thumb2\libgcc.a(_arm_cmpdf2.o)
 .data          0x00000000        0x0 c:/progra~2/codesourcery/sourcery_codebench_lite_for_arm_eabi/bin/../lib/gcc/arm-none-eabi/4.8.1/thumb2\libgcc.a(_arm_fixdfsi.o)
 .bss           0x00000000        0x0 c:/progra~2/codesourcery/sourcery_codebench_lite_for_arm_eabi/bin/../lib/gcc/arm-none-eabi/4.8.1/thumb2\libgcc.a(_arm_fixdfsi.o)
 .data          0x00000000        0x0 c:/progra~2/codesourcery/sourcery_codebench_lite_for_arm_eabi/bin/../lib/gcc/arm-none-eabi/4.8.1/thumb2\libgcc.a(_arm_truncdfsf2.o)
 .bss           0x00000000        0x0 c:/progra~2/codesourcery/sourcery_codebench_lite_for_arm_eabi/bin/../lib/gcc/arm-none-eabi/4.8.1/thumb2\libgcc.a(_arm_truncdfsf2.o)
 .data          0x00000000        0x0 c:/progra~2/codesourcery/sourcery_codebench_lite_for_arm_eabi/bin/../lib/gcc/arm-none-eabi/4.8.1/thumb2\libgcc.a(_arm_addsubsf3.o)
 .bss           0x00000000        0x0 c:/progra~2/codesourcery/sourcery_codebench_lite_for_arm_eabi/bin/../lib/gcc/arm-none-eabi/4.8.1/thumb2\libgcc.a(_arm_addsubsf3.o)
 .data          0x00000000        0x0 c:/progra~2/codesourcery/sourcery_codebench_lite_for_arm_eabi/bin/../lib/gcc/arm-none-eabi/4.8.1/thumb2\libgcc.a(_arm_muldivsf3.o)
 .bss           0x00000000        0x0 c:/progra~2/codesourcery/sourcery_codebench_lite_for_arm_eabi/bin/../lib/gcc/arm-none-eabi/4.8.1/thumb2\libgcc.a(_arm_muldivsf3.o)
 .data          0x00000000        0x0 c:/progra~2/codesourcery/sourcery_codebench_lite_for_arm_eabi/bin/../lib/gcc/arm-none-eabi/4.8.1/thumb2\libgcc.a(_arm_cmpsf2.o)
 .bss           0x00000000        0x0 c:/progra~2/codesourcery/sourcery_codebench_lite_for_arm_eabi/bin/../lib/gcc/arm-none-eabi/4.8.1/thumb2\libgcc.a(_arm_cmpsf2.o)
 .data          0x00000000        0x0 c:/progra~2/codesourcery/sourcery_codebench_lite_for_arm_eabi/bin/../lib/gcc/arm-none-eabi/4.8.1/thumb2\libgcc.a(_aeabi_uldivmod.o)
 .bss           0x00000000        0x0 c:/progra~2/codesourcery/sourcery_codebench_lite_for_arm_eabi/bin/../lib/gcc/arm-none-eabi/4.8.1/thumb2\libgcc.a(_aeabi_uldivmod.o)
 .data          0x00000000        0x0 c:/progra~2/codesourcery/sourcery_codebench_lite_for_arm_eabi/bin/../lib/gcc/arm-none-eabi/4.8.1/thumb2\libgcc.a(_fixunssfdi.o)
 .bss           0x00000000        0x0 c:/progra~2/codesourcery/sourcery_codebench_lite_for_arm_eabi/bin/../lib/gcc/arm-none-eabi/4.8.1/thumb2\libgcc.a(_fixunssfdi.o)
 .data          0x00000000        0x0 c:/progra~2/codesourcery/sourcery_codebench_lite_for_arm_eabi/bin/../lib/gcc/arm-none-eabi/4.8.1/thumb2\libgcc.a(bpabi.o)
 .bss           0x00000000        0x0 c:/progra~2/codesourcery/sourcery_codebench_lite_for_arm_eabi/bin/../lib/gcc/arm-none-eabi/4.8.1/thumb2\libgcc.a(bpabi.o)
 .data          0x00000000        0x0 c:/progra~2/codesourcery/sourcery_codebench_lite_for_arm_eabi/bin/../lib/gcc/arm-none-eabi/4.8.1/thumb2\libgcc.a(_dvmd_tls.o)
 .bss           0x00000000        0x0 c:/progra~2/codesourcery/sourcery_codebench_lite_for_arm_eabi/bin/../lib/gcc/arm-none-eabi/4.8.1/thumb2\libgcc.a(_dvmd_tls.o)
 .data          0x00000000        0x0 c:/progra~2/codesourcery/sourcery_codebench_lite_for_arm_eabi/bin/../lib/gcc/arm-none-eabi/4.8.1/thumb2\libgcc.a(_arm_fixunsdfsi.o)
 .bss           0x00000000        0x0 c:/progra~2/codesourcery/sourcery_codebench_lite_for_arm_eabi/bin/../lib/gcc/arm-none-eabi/4.8.1/thumb2\libgcc.a(_arm_fixunsdfsi.o)
 .data          0x00000000        0x0 c:/progra~2/codesourcery/sourcery_codebench_lite_for_arm_eabi/bin/../lib/gcc/arm-none-eabi/4.8.1/thumb2\libgcc.a(_divdi3.o)
 .bss           0x00000000        0x0 c:/progra~2/codesourcery/sourcery_codebench_lite_for_arm_eabi/bin/../lib/gcc/arm-none-eabi/4.8.1/thumb2\libgcc.a(_divdi3.o)
 .ARM.extab     0x00000000        0x0 c:/progra~2/codesourcery/sourcery_codebench_lite_for_arm_eabi/bin/../lib/gcc/arm-none-eabi/4.8.1/thumb2\libgcc.a(_divdi3.o)
 .data          0x00000000        0x0 c:/progra~2/codesourcery/sourcery_codebench_lite_for_arm_eabi/bin/../lib/gcc/arm-none-eabi/4.8.1/thumb2\libgcc.a(_udivdi3.o)
 .bss           0x00000000        0x0 c:/progra~2/codesourcery/sourcery_codebench_lite_for_arm_eabi/bin/../lib/gcc/arm-none-eabi/4.8.1/thumb2\libgcc.a(_udivdi3.o)
 .ARM.extab     0x00000000        0x0 c:/progra~2/codesourcery/sourcery_codebench_lite_for_arm_eabi/bin/../lib/gcc/arm-none-eabi/4.8.1/thumb2\libgcc.a(_udivdi3.o)
 .data          0x00000000        0x0 c:/progra~2/codesourcery/sourcery_codebench_lite_for_arm_eabi/bin/../lib/gcc/arm-none-eabi/4.8.1/thumb2\libgcc.a(_udivsi3.o)
 .bss           0x00000000        0x0 c:/progra~2/codesourcery/sourcery_codebench_lite_for_arm_eabi/bin/../lib/gcc/arm-none-eabi/4.8.1/thumb2\libgcc.a(_udivsi3.o)
 .data          0x00000000        0x0 c:/progra~2/codesourcery/sourcery_codebench_lite_for_arm_eabi/bin/../lib/gcc/arm-none-eabi/4.8.1/../../../../arm-none-eabi/lib/thumb2\libc.a(lib_a-errno.o)
 .bss           0x00000000        0x0 c:/progra~2/codesourcery/sourcery_codebench_lite_for_arm_eabi/bin/../lib/gcc/arm-none-eabi/4.8.1/../../../../arm-none-eabi/lib/thumb2\libc.a(lib_a-errno.o)
 .text          0x00000000        0x0 c:/progra~2/codesourcery/sourcery_codebench_lite_for_arm_eabi/bin/../lib/gcc/arm-none-eabi/4.8.1/../../../../arm-none-eabi/lib/thumb2\libc.a(lib_a-impure.o)
 .bss           0x00000000        0x0 c:/progra~2/codesourcery/sourcery_codebench_lite_for_arm_eabi/bin/../lib/gcc/arm-none-eabi/4.8.1/../../../../arm-none-eabi/lib/thumb2\libc.a(lib_a-impure.o)
 .rodata        0x00000000        0x4 c:/progra~2/codesourcery/sourcery_codebench_lite_for_arm_eabi/bin/../lib/gcc/arm-none-eabi/4.8.1/../../../../arm-none-eabi/lib/thumb2\libc.a(lib_a-impure.o)
 .data          0x00000000        0x0 c:/progra~2/codesourcery/sourcery_codebench_lite_for_arm_eabi/bin/../lib/gcc/arm-none-eabi/4.8.1/../../../../arm-none-eabi/lib/thumb2\libc.a(lib_a-lcltime_r.o)
 .bss           0x00000000        0x0 c:/progra~2/codesourcery/sourcery_codebench_lite_for_arm_eabi/bin/../lib/gcc/arm-none-eabi/4.8.1/../../../../arm-none-eabi/lib/thumb2\libc.a(lib_a-lcltime_r.o)
 .data          0x00000000        0x0 c:/progra~2/codesourcery/sourcery_codebench_lite_for_arm_eabi/bin/../lib/gcc/arm-none-eabi/4.8.1/../../../../arm-none-eabi/lib/thumb2\libc.a(lib_a-memcmp.o)
 .bss           0x00000000        0x0 c:/progra~2/codesourcery/sourcery_codebench_lite_for_arm_eabi/bin/../lib/gcc/arm-none-eabi/4.8.1/../../../../arm-none-eabi/lib/thumb2\libc.a(lib_a-memcmp.o)
 .data          0x00000000        0x0 c:/progra~2/codesourcery/sourcery_codebench_lite_for_arm_eabi/bin/../lib/gcc/arm-none-eabi/4.8.1/../../../../arm-none-eabi/lib/thumb2\libc.a(lib_a-memcpy-stub.o)
 .bss           0x00000000        0x0 c:/progra~2/codesourcery/sourcery_codebench_lite_for_arm_eabi/bin/../lib/gcc/arm-none-eabi/4.8.1/../../../../arm-none-eabi/lib/thumb2\libc.a(lib_a-memcpy-stub.o)
 .data          0x00000000        0x0 c:/progra~2/codesourcery/sourcery_codebench_lite_for_arm_eabi/bin/../lib/gcc/arm-none-eabi/4.8.1/../../../../arm-none-eabi/lib/thumb2\libc.a(lib_a-memset.o)
 .bss           0x00000000        0x0 c:/progra~2/codesourcery/sourcery_codebench_lite_for_arm_eabi/bin/../lib/gcc/arm-none-eabi/4.8.1/../../../../arm-none-eabi/lib/thumb2\libc.a(lib_a-memset.o)
 .data          0x00000000        0x0 c:/progra~2/codesourcery/sourcery_codebench_lite_for_arm_eabi/bin/../lib/gcc/arm-none-eabi/4.8.1/../../../../arm-none-eabi/lib/thumb2\libc.a(lib_a-mktime.o)
 .bss           0x00000000        0x0 c:/progra~2/codesourcery/sourcery_codebench_lite_for_arm_eabi/bin/../lib/gcc/arm-none-eabi/4.8.1/../../../../arm-none-eabi/lib/thumb2\libc.a(lib_a-mktime.o)
 .data          0x00000000        0x0 c:/progra~2/codesourcery/sourcery_codebench_lite_for_arm_eabi/bin/../lib/gcc/arm-none-eabi/4.8.1/../../../../arm-none-eabi/lib/thumb2\libc.a(lib_a-mktm_r.o)
 .bss           0x00000000        0x0 c:/progra~2/codesourcery/sourcery_codebench_lite_for_arm_eabi/bin/../lib/gcc/arm-none-eabi/4.8.1/../../../../arm-none-eabi/lib/thumb2\libc.a(lib_a-mktm_r.o)
 .data          0x00000000        0x0 c:/progra~2/codesourcery/sourcery_codebench_lite_for_arm_eabi/bin/../lib/gcc/arm-none-eabi/4.8.1/../../../../arm-none-eabi/lib/thumb2\libc.a(lib_a-strchr.o)
 .bss           0x00000000        0x0 c:/progra~2/codesourcery/sourcery_codebench_lite_for_arm_eabi/bin/../lib/gcc/arm-none-eabi/4.8.1/../../../../arm-none-eabi/lib/thumb2\libc.a(lib_a-strchr.o)
 .data          0x00000000        0x0 c:/progra~2/codesourcery/sourcery_codebench_lite_for_arm_eabi/bin/../lib/gcc/arm-none-eabi/4.8.1/../../../../arm-none-eabi/lib/thumb2\libc.a(lib_a-strcpy.o)
 .bss           0x00000000        0x0 c:/progra~2/codesourcery/sourcery_codebench_lite_for_arm_eabi/bin/../lib/gcc/arm-none-eabi/4.8.1/../../../../arm-none-eabi/lib/thumb2\libc.a(lib_a-strcpy.o)
 .data          0x00000000        0x0 c:/progra~2/codesourcery/sourcery_codebench_lite_for_arm_eabi/bin/../lib/gcc/arm-none-eabi/4.8.1/../../../../arm-none-eabi/lib/thumb2\libc.a(lib_a-strlen.o)
 .bss           0x00000000        0x0 c:/progra~2/codesourcery/sourcery_codebench_lite_for_arm_eabi/bin/../lib/gcc/arm-none-eabi/4.8.1/../../../../arm-none-eabi/lib/thumb2\libc.a(lib_a-strlen.o)
 .data          0x00000000        0x0 c:/progra~2/codesourcery/sourcery_codebench_lite_for_arm_eabi/bin/../lib/gcc/arm-none-eabi/4.8.1/../../../../arm-none-eabi/lib/thumb2\libc.a(lib_a-strncmp.o)
 .bss           0x00000000        0x0 c:/progra~2/codesourcery/sourcery_codebench_lite_for_arm_eabi/bin/../lib/gcc/arm-none-eabi/4.8.1/../../../../arm-none-eabi/lib/thumb2\libc.a(lib_a-strncmp.o)
 .data          0x00000000        0x0 c:/progra~2/codesourcery/sourcery_codebench_lite_for_arm_eabi/bin/../lib/gcc/arm-none-eabi/4.8.1/../../../../arm-none-eabi/lib/thumb2\libc.a(lib_a-strncpy.o)
 .bss           0x00000000        0x0 c:/progra~2/codesourcery/sourcery_codebench_lite_for_arm_eabi/bin/../lib/gcc/arm-none-eabi/4.8.1/../../../../arm-none-eabi/lib/thumb2\libc.a(lib_a-strncpy.o)
 .data          0x00000000        0x0 c:/progra~2/codesourcery/sourcery_codebench_lite_for_arm_eabi/bin/../lib/gcc/arm-none-eabi/4.8.1/../../../../arm-none-eabi/lib/thumb2\libc.a(lib_a-strrchr.o)
 .bss           0x00000000        0x0 c:/progra~2/codesourcery/sourcery_codebench_lite_for_arm_eabi/bin/../lib/gcc/arm-none-eabi/4.8.1/../../../../arm-none-eabi/lib/thumb2\libc.a(lib_a-strrchr.o)
 .data          0x00000000        0x0 c:/progra~2/codesourcery/sourcery_codebench_lite_for_arm_eabi/bin/../lib/gcc/arm-none-eabi/4.8.1/../../../../arm-none-eabi/lib/thumb2\libc.a(lib_a-strstr.o)
 .bss           0x00000000        0x0 c:/progra~2/codesourcery/sourcery_codebench_lite_for_arm_eabi/bin/../lib/gcc/arm-none-eabi/4.8.1/../../../../arm-none-eabi/lib/thumb2\libc.a(lib_a-strstr.o)
 .data          0x00000000        0x0 c:/progra~2/codesourcery/sourcery_codebench_lite_for_arm_eabi/bin/../lib/gcc/arm-none-eabi/4.8.1/../../../../arm-none-eabi/lib/thumb2\libc.a(lib_a-tzlock.o)
 .bss           0x00000000        0x0 c:/progra~2/codesourcery/sourcery_codebench_lite_for_arm_eabi/bin/../lib/gcc/arm-none-eabi/4.8.1/../../../../arm-none-eabi/lib/thumb2\libc.a(lib_a-tzlock.o)
 .text          0x00000000        0x0 c:/progra~2/codesourcery/sourcery_codebench_lite_for_arm_eabi/bin/../lib/gcc/arm-none-eabi/4.8.1/../../../../arm-none-eabi/lib/thumb2\libc.a(lib_a-tzvars.o)
 .data          0x00000000        0x8 c:/progra~2/codesourcery/sourcery_codebench_lite_for_arm_eabi/bin/../lib/gcc/arm-none-eabi/4.8.1/../../../../arm-none-eabi/lib/thumb2\libc.a(lib_a-tzvars.o)
 .rodata.str1.4
                0x00000000        0x4 c:/progra~2/codesourcery/sourcery_codebench_lite_for_arm_eabi/bin/../lib/gcc/arm-none-eabi/4.8.1/../../../../arm-none-eabi/lib/thumb2\libc.a(lib_a-tzvars.o)
 .data          0x00000000        0x0 c:/progra~2/codesourcery/sourcery_codebench_lite_for_arm_eabi/bin/../lib/gcc/arm-none-eabi/4.8.1/../../../../arm-none-eabi/lib/thumb2\libc.a(lib_a-div.o)
 .bss           0x00000000        0x0 c:/progra~2/codesourcery/sourcery_codebench_lite_for_arm_eabi/bin/../lib/gcc/arm-none-eabi/4.8.1/../../../../arm-none-eabi/lib/thumb2\libc.a(lib_a-div.o)
 .bss           0x00000000        0x0 c:/progra~2/codesourcery/sourcery_codebench_lite_for_arm_eabi/bin/../lib/gcc/arm-none-eabi/4.8.1/../../../../arm-none-eabi/lib/thumb2\libc.a(lib_a-gettzinfo.o)
 .data          0x00000000        0x0 c:/progra~2/codesourcery/sourcery_codebench_lite_for_arm_eabi/bin/../lib/gcc/arm-none-eabi/4.8.1/../../../../arm-none-eabi/lib/thumb2\libc.a(lib_a-memchr-stub.o)
 .bss           0x00000000        0x0 c:/progra~2/codesourcery/sourcery_codebench_lite_for_arm_eabi/bin/../lib/gcc/arm-none-eabi/4.8.1/../../../../arm-none-eabi/lib/thumb2\libc.a(lib_a-memchr-stub.o)
 .data          0x00000000        0x0 c:/progra~2/codesourcery/sourcery_codebench_lite_for_arm_eabi/bin/../lib/gcc/arm-none-eabi/4.8.1/thumb2\libgcc.a(_divsi3.o)
 .bss           0x00000000        0x0 c:/progra~2/codesourcery/sourcery_codebench_lite_for_arm_eabi/bin/../lib/gcc/arm-none-eabi/4.8.1/thumb2\libgcc.a(_divsi3.o)

Memory Configuration

Name             Origin             Length             Attributes
flash            0x08000000         0x00100000
ram              0x20000000         0x0001c000
ethram           0x2001c000         0x00004000
ccmram           0x10000000         0x00010000
*default*        0x00000000         0xffffffff

Linker script and memory map

LOAD build/obj/crt0.o
LOAD build/obj/vectors.o
LOAD build/obj/chcore.o
LOAD build/obj/chcore_v7m.o
LOAD build/obj/nvic.o
LOAD build/obj/chsys.o
LOAD build/obj/chdebug.o
LOAD build/obj/chlists.o
LOAD build/obj/chvt.o
LOAD build/obj/chschd.o
LOAD build/obj/chthreads.o
LOAD build/obj/chdynamic.o
LOAD build/obj/chregistry.o
LOAD build/obj/chsem.o
LOAD build/obj/chmtx.o
LOAD build/obj/chcond.o
LOAD build/obj/chevents.o
LOAD build/obj/chmsg.o
LOAD build/obj/chmboxes.o
LOAD build/obj/chqueues.o
LOAD build/obj/chmemcore.o
LOAD build/obj/chheap.o
LOAD build/obj/chmempools.o
LOAD build/obj/chprintf.o
LOAD build/obj/memstreams.o
LOAD build/obj/chrtclib.o
LOAD build/obj/crc.o
LOAD build/obj/data_buffer.o
LOAD build/obj/histogram.o
LOAD build/obj/rfiutil.o
LOAD build/obj/hal.o
LOAD build/obj/adc.o
LOAD build/obj/can.o
LOAD build/obj/ext.o
LOAD build/obj/gpt.o
LOAD build/obj/i2c.o
LOAD build/obj/icu.o
LOAD build/obj/mac.o
LOAD build/obj/mmc_spi.o
LOAD build/obj/mmcsd.o
LOAD build/obj/pal.o
LOAD build/obj/pwm.o
LOAD build/obj/rtc.o
LOAD build/obj/sdc.o
LOAD build/obj/serial.o
LOAD build/obj/serial_usb.o
LOAD build/obj/spi.o
LOAD build/obj/tm.o
LOAD build/obj/uart.o
LOAD build/obj/usb.o
LOAD build/obj/test.o
LOAD build/obj/testbmk.o
LOAD build/obj/usbcfg.o
LOAD build/obj/usbconsole.o
LOAD build/obj/mcp3208.o
LOAD build/obj/flash.o
LOAD build/obj/map_adjuster.o
LOAD build/obj/malfunction_central.o
LOAD build/obj/nmea.o
LOAD build/obj/stm32_dma.o
LOAD build/obj/hal_lld.o
LOAD build/obj/adc_lld.o
LOAD build/obj/ext_lld_isr.o
LOAD build/obj/can_lld.o
LOAD build/obj/ext_lld.o
LOAD build/obj/mac_lld.o
LOAD build/obj/sdc_lld.o
LOAD build/obj/pal_lld.o
LOAD build/obj/i2c_lld.o
LOAD build/obj/usb_lld.o
LOAD build/obj/rtc_lld.o
LOAD build/obj/spi_lld.o
LOAD build/obj/gpt_lld.o
LOAD build/obj/icu_lld.o
LOAD build/obj/pwm_lld.o
LOAD build/obj/serial_lld.o
LOAD build/obj/uart_lld.o
LOAD build/obj/board.o
LOAD build/obj/fatfs_diskio.o
LOAD build/obj/fatfs_syscall.o
LOAD build/obj/ff.o
LOAD build/obj/ccsbcs.o
LOAD build/obj/trigger_emulator_algo.o
LOAD build/obj/rpm_calculator.o
LOAD build/obj/trigger_central.o
LOAD build/obj/main_trigger_callback.o
LOAD build/obj/trigger_bmw.o
LOAD build/obj/trigger_mazda.o
LOAD build/obj/trigger_chrysler.o
LOAD build/obj/trigger_structure.o
LOAD build/obj/trigger_decoder.o
LOAD build/obj/trigger_mitsubishi.o
LOAD build/obj/trigger_gm.o
LOAD build/obj/trigger_emulator.o
LOAD build/obj/poten.o
LOAD build/obj/sensor_chart.o
LOAD build/obj/rfi_perftest.o
LOAD build/obj/engine_emulator.o
LOAD build/obj/wave_chart.o
LOAD build/obj/wave_analyzer.o
LOAD build/obj/advance_map.o
LOAD build/obj/idle_controller.o
LOAD build/obj/auto_generated_enums.o
LOAD build/obj/fuel_math.o
LOAD build/obj/accel_enrichment.o
LOAD build/obj/engine_configuration.o
LOAD build/obj/engine.o
LOAD build/obj/lcd_menu_tree.o
LOAD build/obj/event_registry.o
LOAD build/obj/algo.o
LOAD build/obj/signal_executor.o
LOAD build/obj/pwm_generator_logic.o
LOAD build/obj/signal_executor_sleep.o
LOAD build/obj/event_queue.o
LOAD build/obj/efiGpio.o
LOAD build/obj/SingleTimerExecutor.o
LOAD build/obj/ford_aspire.o
LOAD build/obj/custom_engine.o
LOAD build/obj/MiniCooperR50.o
LOAD build/obj/acura_rsx.o
LOAD build/obj/audi_aan.o
LOAD build/obj/bmw_e34.o
LOAD build/obj/mazda_miata.o
LOAD build/obj/citroenBerlingoTU3JP.o
LOAD build/obj/dodge_neon.o
LOAD build/obj/ford_fiesta.o
LOAD build/obj/ford_1995_inline_6.o
LOAD build/obj/nissan_primera.o
LOAD build/obj/mazda_miata_nb.o
LOAD build/obj/honda_accord.o
LOAD build/obj/subaru.o
LOAD build/obj/snow_blower.o
LOAD build/obj/GY6_139QMB.o
LOAD build/obj/rover_v8.o
LOAD build/obj/mazda_323.o
LOAD build/obj/mazda_626.o
LOAD build/obj/saturn_ion.o
LOAD build/obj/sachs.o
LOAD build/obj/test_engine.o
LOAD build/obj/mitsubishi.o
LOAD build/obj/gm_2_2.o
LOAD build/obj/dodge_ram.o
LOAD build/obj/vw.o
LOAD build/obj/can_hw.o
LOAD build/obj/max31855.o
LOAD build/obj/pin_repository.o
LOAD build/obj/microsecond_timer.o
LOAD build/obj/digital_input_hw.o
LOAD build/obj/hardware.o
LOAD build/obj/neo6m.o
LOAD build/obj/mmc_card.o
LOAD build/obj/lcd_HD44780.o
LOAD build/obj/adc_inputs.o
LOAD build/obj/board_test.o
LOAD build/obj/pwm_generator.o
LOAD build/obj/trigger_input.o
LOAD build/obj/HIP9011.o
LOAD build/obj/vehicle_speed.o
LOAD build/obj/joystick.o
LOAD build/obj/stepper.o
LOAD build/obj/servo.o
LOAD build/obj/io_pins.o
LOAD build/obj/gpio_helper.o
LOAD build/obj/mpu_util.o
LOAD build/obj/rtc_helper.o
LOAD build/obj/wbo.o
LOAD build/obj/tunerstudio_io.o
LOAD build/obj/tunerstudio.o
LOAD build/obj/status_loop.o
LOAD build/obj/console_io.o
LOAD build/obj/eficonsole.o
LOAD build/obj/thermistors.o
LOAD build/obj/allsensors.o
LOAD build/obj/map.o
LOAD build/obj/voltage.o
LOAD build/obj/maf.o
LOAD build/obj/tps.o
LOAD build/obj/ego.o
LOAD build/obj/hip9011_lookup.o
LOAD build/obj/settings.o
LOAD build/obj/electronic_throttle.o
LOAD build/obj/error_handling.o
LOAD build/obj/map_averaging.o
LOAD build/obj/flash_main.o
LOAD build/obj/injector_central.o
LOAD build/obj/idle_thread.o
LOAD build/obj/PwmTester.o
LOAD build/obj/obd2.o
LOAD build/obj/malfunction_indicator.o
LOAD build/obj/alternatorController.o
LOAD build/obj/lcd_controller.o
LOAD build/obj/engine_controller.o
LOAD build/obj/cyclic_buffer.o
LOAD build/obj/datalogging.o
LOAD build/obj/loggingcentral.o
LOAD build/obj/listener_array.o
LOAD build/obj/cli_registry.o
LOAD build/obj/efilib.o
LOAD build/obj/efilib2.o
LOAD build/obj/LocalVersionHolder.o
LOAD build/obj/EfiWave.o
LOAD build/obj/avg_values.o
LOAD build/obj/table_helper.o
LOAD build/obj/fsio_core.o
LOAD build/obj/interpolation.o
LOAD build/obj/fsio_impl.o
LOAD build/obj/engine_math.o
LOAD build/obj/pid.o
LOAD build/obj/speed_density.o
LOAD build/obj/rusefi.o
LOAD build/obj/main.o
                0x00001000                __main_stack_size__ = 0x1000
                0x00000600                __process_stack_size__ = 0x600
                0x20000000                __ram_start__ = ORIGIN (ram)
                0x0001c000                __ram_size__ = 0x1c000
                0x2001c000                __ram_end__ = (__ram_start__ + __ram_size__)
                0x00000000                . = 0x0
                0x00000000                _text = .

startup         0x08000000      0x1ac
 *(vectors)
 vectors        0x08000000      0x1ac build/obj/vectors.o
                0x08000000                _vectors

constructors    0x080001ac       0xa4
                0x080001ac                PROVIDE (__init_array_start, .)
 *(SORT(.init_array.*))
 *(.init_array)
 .init_array    0x080001ac        0x4 build/obj/trigger_emulator_algo.o
 .init_array    0x080001b0        0x4 build/obj/rpm_calculator.o
 .init_array    0x080001b4        0x4 build/obj/trigger_central.o
 .init_array    0x080001b8        0x4 build/obj/main_trigger_callback.o
 .init_array    0x080001bc        0x4 build/obj/trigger_decoder.o
 .init_array    0x080001c0        0x4 build/obj/trigger_emulator.o
 .init_array    0x080001c4        0x4 build/obj/sensor_chart.o
 .init_array    0x080001c8        0x4 build/obj/wave_chart.o
 .init_array    0x080001cc        0x4 build/obj/wave_analyzer.o
 .init_array    0x080001d0        0x4 build/obj/advance_map.o
 .init_array    0x080001d4        0x4 build/obj/fuel_math.o
 .init_array    0x080001d8        0x4 build/obj/engine.o
 .init_array    0x080001dc        0x4 build/obj/efiGpio.o
 .init_array    0x080001e0        0x4 build/obj/SingleTimerExecutor.o
 .init_array    0x080001e4        0x4 build/obj/can_hw.o
 .init_array    0x080001e8        0x4 build/obj/pin_repository.o
 .init_array    0x080001ec        0x4 build/obj/digital_input_hw.o
 .init_array    0x080001f0        0x4 build/obj/neo6m.o
 .init_array    0x080001f4        0x4 build/obj/mmc_card.o
 .init_array    0x080001f8        0x4 build/obj/adc_inputs.o
 .init_array    0x080001fc        0x4 build/obj/HIP9011.o
 .init_array    0x08000200        0x4 build/obj/io_pins.o
 .init_array    0x08000204        0x4 build/obj/rtc_helper.o
 .init_array    0x08000208        0x4 build/obj/tunerstudio.o
 .init_array    0x0800020c        0x4 build/obj/status_loop.o
 .init_array    0x08000210        0x4 build/obj/eficonsole.o
 .init_array    0x08000214        0x4 build/obj/map.o
 .init_array    0x08000218        0x4 build/obj/settings.o
 .init_array    0x0800021c        0x4 build/obj/electronic_throttle.o
 .init_array    0x08000220        0x4 build/obj/error_handling.o
 .init_array    0x08000224        0x4 build/obj/map_averaging.o
 .init_array    0x08000228        0x4 build/obj/injector_central.o
 .init_array    0x0800022c        0x4 build/obj/idle_thread.o
 .init_array    0x08000230        0x4 build/obj/obd2.o
 .init_array    0x08000234        0x4 build/obj/alternatorController.o
 .init_array    0x08000238        0x4 build/obj/lcd_controller.o
 .init_array    0x0800023c        0x4 build/obj/engine_controller.o
 .init_array    0x08000240        0x4 build/obj/fsio_core.o
 .init_array    0x08000244        0x4 build/obj/fsio_impl.o
 .init_array    0x08000248        0x4 build/obj/speed_density.o
 .init_array    0x0800024c        0x4 build/obj/rusefi.o
                0x08000250                PROVIDE (__init_array_end, .)

destructors     0x08000250        0x0
                0x08000250                PROVIDE (__fini_array_start, .)
 *(.fini_array)
 *(SORT(.fini_array.*))
                0x08000250                PROVIDE (__fini_array_end, .)

.text           0x08000250    0x382b8
 *(.text.startup.*)
 .text.startup._GLOBAL__sub_I__ZN21TriggerEmulatorHelperC2Ev
                0x08000250       0x80 build/obj/trigger_emulator_algo.o
 .text.startup._GLOBAL__sub_I__ZN13RpmCalculatorC2Ev
                0x080002d0       0x20 build/obj/rpm_calculator.o
 .text.startup._GLOBAL__sub_I_waveChart
                0x080002f0       0x20 build/obj/trigger_central.o
 .text.startup._GLOBAL__sub_I_showMainHistogram
                0x08000310       0x40 build/obj/main_trigger_callback.o
 .text.startup._GLOBAL__sub_I_lastDecodingErrorTime
                0x08000350       0x40 build/obj/trigger_decoder.o
 .text.startup._GLOBAL__sub_I__Z19initTriggerEmulatorP7LoggingP6Engine
                0x08000390       0x30 build/obj/trigger_emulator.o
 .text.startup._GLOBAL__sub_I__Z9scAddDataff
                0x080003c0       0x20 build/obj/sensor_chart.o
 .text.startup._GLOBAL__sub_I_waveChartUsedSize
                0x080003e0       0x20 build/obj/wave_chart.o
 .text.startup._GLOBAL__sub_I__ZN10WaveReader11onFallEventEv
                0x08000400       0x30 build/obj/wave_analyzer.o
 .text.startup._GLOBAL__sub_I__Z16isStep1Conditioni
                0x08000430       0x40 build/obj/advance_map.o
 .text.startup._GLOBAL__sub_I__Z14getRealMafFuelfi
                0x08000470       0x40 build/obj/fuel_math.o
 .text.startup._GLOBAL__sub_I__ZN6Engine17updateSlowSensorsEv
                0x080004b0       0x20 build/obj/engine.o
 .text.startup._GLOBAL__sub_I_OUTPUT_MODE_DEFAULT
                0x080004d0       0xa0 build/obj/efiGpio.o
 .text.startup._GLOBAL__sub_I_beforeHwSetTimer
                0x08000570       0x10 build/obj/SingleTimerExecutor.o
 .text.startup._GLOBAL__sub_I_txmsg
                0x08000580       0x20 build/obj/can_hw.o
 .text.startup._GLOBAL__sub_I_PIN_USED
                0x080005a0       0x20 build/obj/pin_repository.o
 .text.startup._GLOBAL__sub_I__Z22getInputCaptureChannel11brain_pin_e
                0x080005c0       0x40 build/obj/digital_input_hw.o
 .text.startup._GLOBAL__sub_I_getCurrentSpeed
                0x08000600       0x20 build/obj/neo6m.o
 .text.startup._GLOBAL__sub_I_MMCD1
                0x08000620       0x20 build/obj/mmc_card.o
 .text.startup._GLOBAL__sub_I__ZN9AdcDeviceC2EP18ADCConversionGroup
                0x08000640       0x50 build/obj/adc_inputs.o
 .text.startup._GLOBAL__sub_I_hipLastExecutionCount
                0x08000690       0x60 build/obj/HIP9011.o
 .text.startup._GLOBAL__sub_I_DEFAULT_OUTPUT
                0x080006f0       0x30 build/obj/io_pins.o
 .text.startup._GLOBAL__sub_I__Z11date_set_tmP2tm
                0x08000720       0x20 build/obj/rtc_helper.o
 .text.startup._GLOBAL__sub_I_tsLogger
                0x08000740       0x20 build/obj/tunerstudio.o
 .text.startup._GLOBAL__sub_I_warningEnabled
                0x08000760       0x80 build/obj/status_loop.o
 .text.startup._GLOBAL__sub_I__Z6fatal3PcS_i
                0x080007e0       0x20 build/obj/eficonsole.o
 .text.startup._GLOBAL__sub_I__Z14decodePressurefP28air_pressure_sensor_config_s
                0x08000800       0xf0 build/obj/map.o
 .text.startup._GLOBAL__sub_I__Z15printFloatArrayPKcPfi
                0x080008f0       0x20 build/obj/settings.o
 .text.startup._GLOBAL__sub_I__Z22initElectronicThrottlev
                0x08000910       0x70 build/obj/electronic_throttle.o
 .text.startup._GLOBAL__sub_I_dbg_panic_file
                0x08000980       0x20 build/obj/error_handling.o
 .text.startup._GLOBAL__sub_I__Z20mapAveragingCallbackt
                0x080009a0       0x50 build/obj/map_averaging.o
 .text.startup._GLOBAL__sub_I__Z18isRunningBenchTestv
                0x080009f0       0x20 build/obj/injector_central.o
 .text.startup._GLOBAL__sub_I__Z9idleDebugPKcf
                0x08000a10       0x40 build/obj/idle_thread.o
 .text.startup._GLOBAL__sub_I__Z16obdOnCanPacketRxP10CANRxFrame
                0x08000a50       0x20 build/obj/obd2.o
 .text.startup._GLOBAL__sub_I__Z11showAltInfov
                0x08000a70       0x50 build/obj/alternatorController.o
 .text.startup._GLOBAL__sub_I__Z10onJoystick17joystick_button_e
                0x08000ac0      0x2a0 build/obj/lcd_controller.o
 .text.startup._GLOBAL__sub_I_persistentState
                0x08000d60       0x50 build/obj/engine_controller.o
 .text.startup._GLOBAL__sub_I_LE_FIRST
                0x08000db0      0x1e0 build/obj/fsio_core.o
 .text.startup._GLOBAL__sub_I_sysPool
                0x08000f90      0x1e0 build/obj/fsio_impl.o
 .text.startup._GLOBAL__sub_I_veMap
                0x08001170       0x80 build/obj/speed_density.o
 .text.startup._GLOBAL__sub_I_main_loop_started
                0x080011f0       0x20 build/obj/rusefi.o
 .text.startup.main
                0x08001210       0x20 build/obj/main.o
                0x08001210                main
 *(.text)
 .text          0x08001230       0x50 c:/progra~2/codesourcery/sourcery_codebench_lite_for_arm_eabi/bin/../lib/gcc/arm-none-eabi/4.8.1/../../../../arm-none-eabi/lib/thumb2\libm.a(lib_a-s_fpclassify.o)
                0x08001230                __fpclassifyd
 .text          0x08001280       0xac c:/progra~2/codesourcery/sourcery_codebench_lite_for_arm_eabi/bin/../lib/gcc/arm-none-eabi/4.8.1/../../../../arm-none-eabi/lib/thumb2\libm.a(lib_a-s_modf.o)
                0x08001280                modf
 *fill*         0x0800132c        0x4 
 .text          0x08001330       0x9c c:/progra~2/codesourcery/sourcery_codebench_lite_for_arm_eabi/bin/../lib/gcc/arm-none-eabi/4.8.1/../../../../arm-none-eabi/lib/thumb2\libm.a(lib_a-s_round.o)
                0x08001330                round
 *fill*         0x080013cc        0x4 
 .text          0x080013d0       0x34 c:/progra~2/codesourcery/sourcery_codebench_lite_for_arm_eabi/bin/../lib/gcc/arm-none-eabi/4.8.1/../../../../arm-none-eabi/lib/thumb2\libm.a(lib_a-sf_fpclassify.o)
                0x080013d0                __fpclassifyf
 *fill*         0x08001404        0xc 
 .text          0x08001410       0xe0 c:/progra~2/codesourcery/sourcery_codebench_lite_for_arm_eabi/bin/../lib/gcc/arm-none-eabi/4.8.1/../../../../arm-none-eabi/lib/thumb2\libm.a(lib_a-wf_log.o)
                0x08001410                logf
 .text          0x080014f0      0x300 c:/progra~2/codesourcery/sourcery_codebench_lite_for_arm_eabi/bin/../lib/gcc/arm-none-eabi/4.8.1/../../../../arm-none-eabi/lib/thumb2\libm.a(lib_a-ef_log.o)
                0x080014f0                __ieee754_logf
 .text          0x080017f0        0x4 c:/progra~2/codesourcery/sourcery_codebench_lite_for_arm_eabi/bin/../lib/gcc/arm-none-eabi/4.8.1/../../../../arm-none-eabi/lib/thumb2\libm.a(lib_a-s_matherr.o)
                0x080017f0                matherr
 *fill*         0x080017f4        0xc 
 .text          0x08001800        0xc c:/progra~2/codesourcery/sourcery_codebench_lite_for_arm_eabi/bin/../lib/gcc/arm-none-eabi/4.8.1/../../../../arm-none-eabi/lib/thumb2\libm.a(lib_a-s_nan.o)
                0x08001800                nan
 *fill*         0x0800180c        0x4 
 .text          0x08001810      0x370 c:/progra~2/codesourcery/sourcery_codebench_lite_for_arm_eabi/bin/../lib/gcc/arm-none-eabi/4.8.1/thumb2\libgcc.a(_arm_addsubdf3.o)
                0x08001810                __aeabi_drsub
                0x08001818                __aeabi_dsub
                0x08001818                __subdf3
                0x0800181c                __aeabi_dadd
                0x0800181c                __adddf3
                0x08001a94                __floatunsidf
                0x08001a94                __aeabi_ui2d
                0x08001ab4                __floatsidf
                0x08001ab4                __aeabi_i2d
                0x08001ad8                __aeabi_f2d
                0x08001ad8                __extendsfdf2
                0x08001b14                __floatundidf
                0x08001b14                __aeabi_ul2d
                0x08001b24                __floatdidf
                0x08001b24                __aeabi_l2d
 .text          0x08001b80      0x424 c:/progra~2/codesourcery/sourcery_codebench_lite_for_arm_eabi/bin/../lib/gcc/arm-none-eabi/4.8.1/thumb2\libgcc.a(_arm_muldivdf3.o)
                0x08001b80                __aeabi_dmul
                0x08001b80                __muldf3
                0x08001dd4                __divdf3
                0x08001dd4                __aeabi_ddiv
 *fill*         0x08001fa4        0xc 
 .text          0x08001fb0      0x110 c:/progra~2/codesourcery/sourcery_codebench_lite_for_arm_eabi/bin/../lib/gcc/arm-none-eabi/4.8.1/thumb2\libgcc.a(_arm_cmpdf2.o)
                0x08001fb0                __gtdf2
                0x08001fb0                __gedf2
                0x08001fb8                __ltdf2
                0x08001fb8                __ledf2
                0x08001fc0                __nedf2
                0x08001fc0                __eqdf2
                0x08001fc0                __cmpdf2
                0x0800203c                __aeabi_cdrcmple
                0x0800204c                __aeabi_cdcmpeq
                0x0800204c                __aeabi_cdcmple
                0x0800205c                __aeabi_dcmpeq
                0x08002070                __aeabi_dcmplt
                0x08002084                __aeabi_dcmple
                0x08002098                __aeabi_dcmpge
                0x080020ac                __aeabi_dcmpgt
 .text          0x080020c0       0x50 c:/progra~2/codesourcery/sourcery_codebench_lite_for_arm_eabi/bin/../lib/gcc/arm-none-eabi/4.8.1/thumb2\libgcc.a(_arm_fixdfsi.o)
                0x080020c0                __aeabi_d2iz
                0x080020c0                __fixdfsi
 .text          0x08002110       0xa0 c:/progra~2/codesourcery/sourcery_codebench_lite_for_arm_eabi/bin/../lib/gcc/arm-none-eabi/4.8.1/thumb2\libgcc.a(_arm_truncdfsf2.o)
                0x08002110                __truncdfsf2
                0x08002110                __aeabi_d2f
 .text          0x080021b0      0x21c c:/progra~2/codesourcery/sourcery_codebench_lite_for_arm_eabi/bin/../lib/gcc/arm-none-eabi/4.8.1/thumb2\libgcc.a(_arm_addsubsf3.o)
                0x080021b0                __aeabi_frsub
                0x080021b8                __subsf3
                0x080021b8                __aeabi_fsub
                0x080021bc                __aeabi_fadd
                0x080021bc                __addsf3
                0x0800231c                __aeabi_ui2f
                0x0800231c                __floatunsisf
                0x08002324                __aeabi_i2f
                0x08002324                __floatsisf
                0x08002340                __aeabi_ul2f
                0x08002340                __floatundisf
                0x08002350                __aeabi_l2f
                0x08002350                __floatdisf
 *fill*         0x080023cc        0x4 
 .text          0x080023d0      0x2a0 c:/progra~2/codesourcery/sourcery_codebench_lite_for_arm_eabi/bin/../lib/gcc/arm-none-eabi/4.8.1/thumb2\libgcc.a(_arm_muldivsf3.o)
                0x080023d0                __mulsf3
                0x080023d0                __aeabi_fmul
                0x08002538                __aeabi_fdiv
                0x08002538                __divsf3
 .text          0x08002670       0xec c:/progra~2/codesourcery/sourcery_codebench_lite_for_arm_eabi/bin/../lib/gcc/arm-none-eabi/4.8.1/thumb2\libgcc.a(_arm_cmpsf2.o)
                0x08002670                __gesf2
                0x08002670                __gtsf2
                0x08002678                __lesf2
                0x08002678                __ltsf2
                0x08002680                __nesf2
                0x08002680                __eqsf2
                0x08002680                __cmpsf2
                0x080026e0                __aeabi_cfrcmple
                0x080026e8                __aeabi_cfcmpeq
                0x080026e8                __aeabi_cfcmple
                0x080026f8                __aeabi_fcmpeq
                0x0800270c                __aeabi_fcmplt
                0x08002720                __aeabi_fcmple
                0x08002734                __aeabi_fcmpge
                0x08002748                __aeabi_fcmpgt
 *fill*         0x0800275c        0x4 
 .text          0x08002760       0x2c c:/progra~2/codesourcery/sourcery_codebench_lite_for_arm_eabi/bin/../lib/gcc/arm-none-eabi/4.8.1/thumb2\libgcc.a(_aeabi_uldivmod.o)
                0x08002760                __aeabi_uldivmod
 *fill*         0x0800278c        0x4 
 .text          0x08002790       0x48 c:/progra~2/codesourcery/sourcery_codebench_lite_for_arm_eabi/bin/../lib/gcc/arm-none-eabi/4.8.1/thumb2\libgcc.a(_fixunssfdi.o)
                0x08002790                __fixunssfdi
                0x08002790                __aeabi_f2ulz
 *fill*         0x080027d8        0x8 
 .text          0x080027e0       0x60 c:/progra~2/codesourcery/sourcery_codebench_lite_for_arm_eabi/bin/../lib/gcc/arm-none-eabi/4.8.1/thumb2\libgcc.a(bpabi.o)
                0x080027e0                __gnu_ldivmod_helper
                0x08002810                __gnu_uldivmod_helper
 .text          0x08002840        0x4 c:/progra~2/codesourcery/sourcery_codebench_lite_for_arm_eabi/bin/../lib/gcc/arm-none-eabi/4.8.1/thumb2\libgcc.a(_dvmd_tls.o)
                0x08002840                __aeabi_idiv0
                0x08002840                __aeabi_ldiv0
 *fill*         0x08002844        0xc 
 .text          0x08002850       0x40 c:/progra~2/codesourcery/sourcery_codebench_lite_for_arm_eabi/bin/../lib/gcc/arm-none-eabi/4.8.1/thumb2\libgcc.a(_arm_fixunsdfsi.o)
                0x08002850                __aeabi_d2uiz
                0x08002850                __fixunsdfsi
 .text          0x08002890      0x354 c:/progra~2/codesourcery/sourcery_codebench_lite_for_arm_eabi/bin/../lib/gcc/arm-none-eabi/4.8.1/thumb2\libgcc.a(_divdi3.o)
                0x08002890                __divdi3
 *fill*         0x08002be4        0xc 
 .text          0x08002bf0      0x300 c:/progra~2/codesourcery/sourcery_codebench_lite_for_arm_eabi/bin/../lib/gcc/arm-none-eabi/4.8.1/thumb2\libgcc.a(_udivdi3.o)
                0x08002bf0                __udivdi3
 .text          0x08002ef0      0x278 c:/progra~2/codesourcery/sourcery_codebench_lite_for_arm_eabi/bin/../lib/gcc/arm-none-eabi/4.8.1/thumb2\libgcc.a(_udivsi3.o)
                0x08002ef0                __aeabi_uidiv
                0x08002ef0                __udivsi3
                0x0800314c                __aeabi_uidivmod
 *fill*         0x08003168        0x8 
 .text          0x08003170        0xc c:/progra~2/codesourcery/sourcery_codebench_lite_for_arm_eabi/bin/../lib/gcc/arm-none-eabi/4.8.1/../../../../arm-none-eabi/lib/thumb2\libc.a(lib_a-errno.o)
                0x08003170                __errno
 *fill*         0x0800317c        0x4 
 .text          0x08003180        0x8 c:/progra~2/codesourcery/sourcery_codebench_lite_for_arm_eabi/bin/../lib/gcc/arm-none-eabi/4.8.1/../../../../arm-none-eabi/lib/thumb2\libc.a(lib_a-lcltime_r.o)
                0x08003180                localtime_r
 *fill*         0x08003188        0x8 
 .text          0x08003190       0x64 c:/progra~2/codesourcery/sourcery_codebench_lite_for_arm_eabi/bin/../lib/gcc/arm-none-eabi/4.8.1/../../../../arm-none-eabi/lib/thumb2\libc.a(lib_a-memcmp.o)
                0x08003190                memcmp
 *fill*         0x080031f4        0xc 
 .text          0x08003200       0xa8 c:/progra~2/codesourcery/sourcery_codebench_lite_for_arm_eabi/bin/../lib/gcc/arm-none-eabi/4.8.1/../../../../arm-none-eabi/lib/thumb2\libc.a(lib_a-memcpy-stub.o)
                0x08003200                memcpy
 *fill*         0x080032a8        0x8 
 .text          0x080032b0       0xa0 c:/progra~2/codesourcery/sourcery_codebench_lite_for_arm_eabi/bin/../lib/gcc/arm-none-eabi/4.8.1/../../../../arm-none-eabi/lib/thumb2\libc.a(lib_a-memset.o)
                0x080032b0                memset
 .text          0x08003350      0x5bc c:/progra~2/codesourcery/sourcery_codebench_lite_for_arm_eabi/bin/../lib/gcc/arm-none-eabi/4.8.1/../../../../arm-none-eabi/lib/thumb2\libc.a(lib_a-mktime.o)
                0x0800357c                mktime
 *fill*         0x0800390c        0x4 
 .text          0x08003910      0x510 c:/progra~2/codesourcery/sourcery_codebench_lite_for_arm_eabi/bin/../lib/gcc/arm-none-eabi/4.8.1/../../../../arm-none-eabi/lib/thumb2\libc.a(lib_a-mktm_r.o)
                0x08003910                __tzcalc_limits
                0x08003ab4                _mktm_r
 .text          0x08003e20       0xf8 c:/progra~2/codesourcery/sourcery_codebench_lite_for_arm_eabi/bin/../lib/gcc/arm-none-eabi/4.8.1/../../../../arm-none-eabi/lib/thumb2\libc.a(lib_a-strchr.o)
                0x08003e20                strchr
 *fill*         0x08003f18        0x8 
 .text          0x08003f20       0xbc c:/progra~2/codesourcery/sourcery_codebench_lite_for_arm_eabi/bin/../lib/gcc/arm-none-eabi/4.8.1/../../../../arm-none-eabi/lib/thumb2\libc.a(lib_a-strcpy.o)
                0x08003f20                strcpy
 *fill*         0x08003fdc        0x4 
 .text          0x08003fe0       0x60 c:/progra~2/codesourcery/sourcery_codebench_lite_for_arm_eabi/bin/../lib/gcc/arm-none-eabi/4.8.1/../../../../arm-none-eabi/lib/thumb2\libc.a(lib_a-strlen.o)
                0x08003fe0                strlen
 .text          0x08004040       0xb8 c:/progra~2/codesourcery/sourcery_codebench_lite_for_arm_eabi/bin/../lib/gcc/arm-none-eabi/4.8.1/../../../../arm-none-eabi/lib/thumb2\libc.a(lib_a-strncmp.o)
                0x08004040                strncmp
 *fill*         0x080040f8        0x8 
 .text          0x08004100       0x68 c:/progra~2/codesourcery/sourcery_codebench_lite_for_arm_eabi/bin/../lib/gcc/arm-none-eabi/4.8.1/../../../../arm-none-eabi/lib/thumb2\libc.a(lib_a-strncpy.o)
                0x08004100                strncpy
 *fill*         0x08004168        0x8 
 .text          0x08004170       0x28 c:/progra~2/codesourcery/sourcery_codebench_lite_for_arm_eabi/bin/../lib/gcc/arm-none-eabi/4.8.1/../../../../arm-none-eabi/lib/thumb2\libc.a(lib_a-strrchr.o)
                0x08004170                strrchr
 *fill*         0x08004198        0x8 
 .text          0x080041a0      0x508 c:/progra~2/codesourcery/sourcery_codebench_lite_for_arm_eabi/bin/../lib/gcc/arm-none-eabi/4.8.1/../../../../arm-none-eabi/lib/thumb2\libc.a(lib_a-strstr.o)
                0x08004484                strstr
 *fill*         0x080046a8        0x8 
 .text          0x080046b0        0x8 c:/progra~2/codesourcery/sourcery_codebench_lite_for_arm_eabi/bin/../lib/gcc/arm-none-eabi/4.8.1/../../../../arm-none-eabi/lib/thumb2\libc.a(lib_a-tzlock.o)
                0x080046b0                __tz_lock
                0x080046b4                __tz_unlock
 *fill*         0x080046b8        0x8 
 .text          0x080046c0       0x44 c:/progra~2/codesourcery/sourcery_codebench_lite_for_arm_eabi/bin/../lib/gcc/arm-none-eabi/4.8.1/../../../../arm-none-eabi/lib/thumb2\libc.a(lib_a-div.o)
                0x080046c0                div
 *fill*         0x08004704        0xc 
 .text          0x08004710        0xc c:/progra~2/codesourcery/sourcery_codebench_lite_for_arm_eabi/bin/../lib/gcc/arm-none-eabi/4.8.1/../../../../arm-none-eabi/lib/thumb2\libc.a(lib_a-gettzinfo.o)
                0x08004710                __gettzinfo
 *fill*         0x0800471c        0x4 
 .text          0x08004720       0x90 c:/progra~2/codesourcery/sourcery_codebench_lite_for_arm_eabi/bin/../lib/gcc/arm-none-eabi/4.8.1/../../../../arm-none-eabi/lib/thumb2\libc.a(lib_a-memchr-stub.o)
                0x08004720                memchr
 .text          0x080047b0      0x2b0 c:/progra~2/codesourcery/sourcery_codebench_lite_for_arm_eabi/bin/../lib/gcc/arm-none-eabi/4.8.1/thumb2\libgcc.a(_divsi3.o)
                0x080047b0                __divsi3
                0x080047b0                __aeabi_idiv
                0x08004a44                __aeabi_idivmod
 *(.text.*)
 .text.__late_init
                0x08004a60       0x10 build/obj/crt0.o
                0x08004a60                __late_init
 .text._default_exit
                0x08004a70       0x10 build/obj/crt0.o
                0x08004a70                _default_exit
 .text.ResetHandler
                0x08004a80      0x170 build/obj/crt0.o
                0x08004a80                ResetHandler
 .text._unhandled_exception
                0x08004bf0       0x10 build/obj/vectors.o
                0x08004bf0                Vector1A0
                0x08004bf0                NMIVector
                0x08004bf0                Vector11C
                0x08004bf0                Vector19C
                0x08004bf0                Vector168
                0x08004bf0                Vector110
                0x08004bf0                VectorC8
                0x08004bf0                VectorA8
                0x08004bf0                Vector160
                0x08004bf0                VectorEC
                0x08004bf0                Vector40
                0x08004bf0                Vector190
                0x08004bf0                Vector188
                0x08004bf0                PendSVVector
                0x08004bf0                Vector198
                0x08004bf0                Vector118
                0x08004bf0                VectorCC
                0x08004bf0                Vector54
                0x08004bf0                Vector24
                0x08004bf0                Vector178
                0x08004bf0                Vector1A4
                0x08004bf0                VectorD0
                0x08004bf0                Vector134
                0x08004bf0                Vector100
                0x08004bf0                VectorF4
                0x08004bf0                MemManageVector
                0x08004bf0                VectorC4
                0x08004bf0                Vector180
                0x08004bf0                Vector114
                0x08004bf0                Vector164
                0x08004bf0                Vector1C
                0x08004bf0                Vector17C
                0x08004bf0                Vector48
                0x08004bf0                Vector1A8
                0x08004bf0                Vector16C
                0x08004bf0                Vector15C
                0x08004bf0                _unhandled_exception
                0x08004bf0                Vector104
                0x08004bf0                Vector184
                0x08004bf0                Vector10C
                0x08004bf0                Vector50
                0x08004bf0                Vector194
                0x08004bf0                Vector28
                0x08004bf0                Vector34
                0x08004bf0                Vector20
                0x08004bf0                Vector18C
                0x08004bf0                Vector174
 .text.port_halt
                0x08004c00       0x10 build/obj/chcore.o
                0x08004c00                port_halt
 .text._port_switch_from_isr
                0x08004c10       0x10 build/obj/chcore_v7m.o
                0x08004c10                _port_switch_from_isr
 .text.SVCallVector
                0x08004c20       0x30 build/obj/chcore_v7m.o
                0x08004c20                SVCallVector
 .text._port_init
                0x08004c50       0x40 build/obj/chcore_v7m.o
                0x08004c50                _port_init
 .text._port_irq_epilogue
                0x08004c90       0x90 build/obj/chcore_v7m.o
                0x08004c90                _port_irq_epilogue
 .text.SysTickVector
                0x08004d20       0x30 build/obj/chcore_v7m.o
                0x08004d20                SysTickVector
 .text._port_switch
                0x08004d50       0x20 build/obj/chcore_v7m.o
                0x08004d50                _port_switch
 .text._port_thread_start
                0x08004d70       0x20 build/obj/chcore_v7m.o
                0x08004d70                _port_thread_start
 .text.nvicEnableVector
                0x08004d90       0x50 build/obj/nvic.o
                0x08004d90                nvicEnableVector
 .text.nvicDisableVector
                0x08004de0       0x50 build/obj/nvic.o
                0x08004de0                nvicDisableVector
 .text.nvicSetSystemHandlerPriority
                0x08004e30       0x30 build/obj/nvic.o
                0x08004e30                nvicSetSystemHandlerPriority
 .text._idle_thread
                0x08004e60       0x20 build/obj/chsys.o
                0x08004e60                _idle_thread
 .text.chSysInit
                0x08004e80       0x90 build/obj/chsys.o
                0x08004e80                chSysInit
 .text.chSysTimerHandlerI
                0x08004f10       0x80 build/obj/chsys.o
                0x08004f10                chSysTimerHandlerI
 .text.dbg_check_enable
                0x08004f90       0x40 build/obj/chdebug.o
                0x08004f90                dbg_check_enable
 .text.dbg_check_lock
                0x08004fd0       0x40 build/obj/chdebug.o
                0x08004fd0                dbg_check_lock
 .text.dbg_check_unlock
                0x08005010       0x40 build/obj/chdebug.o
                0x08005010                dbg_check_unlock
 .text.dbg_check_lock_from_isr
                0x08005050       0x40 build/obj/chdebug.o
                0x08005050                dbg_check_lock_from_isr
 .text.dbg_check_unlock_from_isr
                0x08005090       0x50 build/obj/chdebug.o
                0x08005090                dbg_check_unlock_from_isr
 .text.dbg_check_enter_isr
                0x080050e0       0x60 build/obj/chdebug.o
                0x080050e0                dbg_check_enter_isr
 .text.dbg_check_leave_isr
                0x08005140       0x50 build/obj/chdebug.o
                0x08005140                dbg_check_leave_isr
 .text.chDbgCheckClassI
                0x08005190       0x40 build/obj/chdebug.o
                0x08005190                chDbgCheckClassI
 .text.chDbgCheckClassS
                0x080051d0       0x40 build/obj/chdebug.o
                0x080051d0                chDbgCheckClassS
 .text._trace_init
                0x08005210       0x20 build/obj/chdebug.o
                0x08005210                _trace_init
 .text.dbg_trace
                0x08005230       0x50 build/obj/chdebug.o
                0x08005230                dbg_trace
 .text.chDbgPanic
                0x08005280       0x10 build/obj/chdebug.o
                0x08005280                chDbgPanic
 .text._vt_init
                0x08005290       0x20 build/obj/chvt.o
                0x08005290                _vt_init
 .text.chVTSetI
                0x080052b0       0x70 build/obj/chvt.o
                0x080052b0                chVTSetI
 .text.chVTResetI
                0x08005320       0x60 build/obj/chvt.o
                0x08005320                chVTResetI
 .text._scheduler_init
                0x08005380       0x20 build/obj/chschd.o
                0x08005380                _scheduler_init
 .text.chSchReadyI
                0x080053a0       0x50 build/obj/chschd.o
                0x080053a0                chSchReadyI
 .text.wakeup   0x080053f0       0x60 build/obj/chschd.o
 .text.chSchGoSleepS
                0x08005450       0x60 build/obj/chschd.o
                0x08005450                chSchGoSleepS
 .text.chSchGoSleepTimeoutS
                0x080054b0       0x60 build/obj/chschd.o
                0x080054b0                chSchGoSleepTimeoutS
 .text.chSchWakeupS
                0x08005510       0x60 build/obj/chschd.o
                0x08005510                chSchWakeupS
 .text.chSchDoRescheduleBehind
                0x08005570       0x60 build/obj/chschd.o
                0x08005570                chSchDoRescheduleBehind
 .text.chSchDoRescheduleAhead
                0x080055d0       0x70 build/obj/chschd.o
                0x080055d0                chSchDoRescheduleAhead
 .text.chSchRescheduleS
                0x08005640       0x30 build/obj/chschd.o
                0x08005640                chSchRescheduleS
 .text.chSchDoReschedule
                0x08005670       0x20 build/obj/chschd.o
                0x08005670                chSchDoReschedule
 .text._thread_init
                0x08005690       0x50 build/obj/chthreads.o
                0x08005690                _thread_init
 .text._thread_memfill
                0x080056e0       0x10 build/obj/chthreads.o
                0x080056e0                _thread_memfill
 .text.chThdCreateI
                0x080056f0       0xc0 build/obj/chthreads.o
                0x080056f0                chThdCreateI
 .text.chThdCreateStatic
                0x080057b0       0x70 build/obj/chthreads.o
                0x080057b0                chThdCreateStatic
 .text.chThdSleep
                0x08005820       0x40 build/obj/chthreads.o
                0x08005820                chThdSleep
 .text.chThdExitS
                0x08005860       0x40 build/obj/chthreads.o
                0x08005860                chThdExitS
 .text.chThdExit
                0x080058a0       0x20 build/obj/chthreads.o
                0x080058a0                chThdExit
 .text.chRegFirstThread
                0x080058c0       0x30 build/obj/chregistry.o
                0x080058c0                chRegFirstThread
 .text.chRegNextThread
                0x080058f0       0x30 build/obj/chregistry.o
                0x080058f0                chRegNextThread
 .text.chSemInit
                0x08005920       0x40 build/obj/chsem.o
                0x08005920                chSemInit
 .text.chSemWaitTimeoutS
                0x08005960       0x90 build/obj/chsem.o
                0x08005960                chSemWaitTimeoutS
 .text.chSemSignalI
                0x080059f0       0x70 build/obj/chsem.o
                0x080059f0                chSemSignalI
 .text.chMtxInit
                0x08005a60       0x30 build/obj/chmtx.o
                0x08005a60                chMtxInit
 .text.chMtxLockS
                0x08005a90       0xf0 build/obj/chmtx.o
                0x08005a90                chMtxLockS
 .text.chMtxLock
                0x08005b80       0x20 build/obj/chmtx.o
                0x08005b80                chMtxLock
 .text.chMtxUnlock
                0x08005ba0       0x90 build/obj/chmtx.o
                0x08005ba0                chMtxUnlock
 .text.chEvtRegisterMask
                0x08005c30       0x60 build/obj/chevents.o
                0x08005c30                chEvtRegisterMask
 .text.chEvtSignalI
                0x08005c90       0x60 build/obj/chevents.o
                0x08005c90                chEvtSignalI
 .text.chEvtBroadcastFlagsI
                0x08005cf0       0x40 build/obj/chevents.o
                0x08005cf0                chEvtBroadcastFlagsI
 .text.chEvtGetAndClearFlagsI
                0x08005d30       0x10 build/obj/chevents.o
                0x08005d30                chEvtGetAndClearFlagsI
 .text.qwait    0x08005d40       0x30 build/obj/chqueues.o
 .text.chIQInit
                0x08005d70       0x20 build/obj/chqueues.o
                0x08005d70                chIQInit
 .text.chIQResetI
                0x08005d90       0x30 build/obj/chqueues.o
                0x08005d90                chIQResetI
 .text.chIQPutI
                0x08005dc0       0x60 build/obj/chqueues.o
                0x08005dc0                chIQPutI
 .text.chIQGetTimeout
                0x08005e20       0x70 build/obj/chqueues.o
                0x08005e20                chIQGetTimeout
 .text.chIQReadTimeout
                0x08005e90       0xb0 build/obj/chqueues.o
                0x08005e90                chIQReadTimeout
 .text.chOQInit
                0x08005f40       0x20 build/obj/chqueues.o
                0x08005f40                chOQInit
 .text.chOQResetI
                0x08005f60       0x40 build/obj/chqueues.o
                0x08005f60                chOQResetI
 .text.chOQPutTimeout
                0x08005fa0       0x70 build/obj/chqueues.o
                0x08005fa0                chOQPutTimeout
 .text.chOQGetI
                0x08006010       0x50 build/obj/chqueues.o
                0x08006010                chOQGetI
 .text.chOQWriteTimeout
                0x08006060       0xb0 build/obj/chqueues.o
                0x08006060                chOQWriteTimeout
 .text._core_init
                0x08006110       0x30 build/obj/chmemcore.o
                0x08006110                _core_init
 .text.chCoreAllocI
                0x08006140       0x40 build/obj/chmemcore.o
                0x08006140                chCoreAllocI
 .text.chCoreAlloc
                0x08006180       0x30 build/obj/chmemcore.o
                0x08006180                chCoreAlloc
 .text._heap_init
                0x080061b0       0x20 build/obj/chheap.o
                0x080061b0                _heap_init
 .text.chHeapAlloc
                0x080061d0       0x90 build/obj/chheap.o
                0x080061d0                chHeapAlloc
 .text.chHeapFree
                0x08006260       0xe0 build/obj/chheap.o
                0x08006260                chHeapFree
 .text.long_to_string_with_divisor
                0x08006340       0x50 build/obj/chprintf.o
 .text.ftoa     0x08006390       0xd0 build/obj/chprintf.o
                0x08006390                ftoa
 .text.chvprintf
                0x08006460      0x300 build/obj/chprintf.o
                0x08006460                chvprintf
 .text.put      0x08006760       0x20 build/obj/memstreams.o
 .text.get      0x08006780       0x20 build/obj/memstreams.o
 .text.reads    0x080067a0       0x30 build/obj/memstreams.o
 .text.writes   0x080067d0       0x30 build/obj/memstreams.o
 .text.msObjectInit
                0x08006800       0x20 build/obj/memstreams.o
                0x08006800                msObjectInit
 .text.stm32_rtc_bcd2tm.isra.0
                0x08006820       0xb0 build/obj/chrtclib.o
 .text.stm32_rtc_tm2bcd.isra.1
                0x080068d0      0x110 build/obj/chrtclib.o
 .text.rtcGetTimeTm
                0x080069e0       0x30 build/obj/chrtclib.o
                0x080069e0                rtcGetTimeTm
 .text.rtcSetTimeTm
                0x08006a10       0x30 build/obj/chrtclib.o
                0x08006a10                rtcSetTimeTm
 .text.rtcGetTimeUnixSec
                0x08006a40       0x30 build/obj/chrtclib.o
                0x08006a40                rtcGetTimeUnixSec
 .text.rtcSetTimeUnixSec
                0x08006a70       0x40 build/obj/chrtclib.o
                0x08006a70                rtcSetTimeUnixSec
 .text.calc_crc
                0x08006ab0       0x50 build/obj/crc.o
                0x08006ab0                calc_crc
 .text.crc32    0x08006b00       0x40 build/obj/crc.o
                0x08006b00                crc32
 .text.chVTSetAny
                0x08006b40       0x40 build/obj/rfiutil.o
                0x08006b40                chVTSetAny
 .text.halInit  0x08006b80       0x50 build/obj/hal.o
                0x08006b80                halInit
 .text.halPolledDelay
                0x08006bd0       0x50 build/obj/hal.o
                0x08006bd0                halPolledDelay
 .text.adcInit  0x08006c20       0x10 build/obj/adc.o
                0x08006c20                adcInit
 .text.adcObjectInit
                0x08006c30       0x20 build/obj/adc.o
                0x08006c30                adcObjectInit
 .text.adcStart
                0x08006c50       0x60 build/obj/adc.o
                0x08006c50                adcStart
 .text.adcStartConversionI
                0x08006cb0       0x70 build/obj/adc.o
                0x08006cb0                adcStartConversionI
 .text.canInit  0x08006d20       0x10 build/obj/can.o
                0x08006d20                canInit
 .text.canObjectInit
                0x08006d30       0x40 build/obj/can.o
                0x08006d30                canObjectInit
 .text.canStart
                0x08006d70       0x80 build/obj/can.o
                0x08006d70                canStart
 .text.canTransmit
                0x08006df0       0xb0 build/obj/can.o
                0x08006df0                canTransmit
 .text.canReceive
                0x08006ea0       0xb0 build/obj/can.o
                0x08006ea0                canReceive
 .text.extInit  0x08006f50       0x10 build/obj/ext.o
                0x08006f50                extInit
 .text.extObjectInit
                0x08006f60       0x10 build/obj/ext.o
                0x08006f60                extObjectInit
 .text.extStart
                0x08006f70       0x60 build/obj/ext.o
                0x08006f70                extStart
 .text.gptInit  0x08006fd0       0x10 build/obj/gpt.o
                0x08006fd0                gptInit
 .text.gptObjectInit
                0x08006fe0       0x10 build/obj/gpt.o
                0x08006fe0                gptObjectInit
 .text.gptStart
                0x08006ff0       0x60 build/obj/gpt.o
                0x08006ff0                gptStart
 .text.gptStartOneShotI
                0x08007050       0x50 build/obj/gpt.o
                0x08007050                gptStartOneShotI
 .text.gptStopTimerI
                0x080070a0       0x50 build/obj/gpt.o
                0x080070a0                gptStopTimerI
 .text.i2cInit  0x080070f0       0x10 build/obj/i2c.o
                0x080070f0                i2cInit
 .text.i2cObjectInit
                0x08007100       0x10 build/obj/i2c.o
                0x08007100                i2cObjectInit
 .text.icuInit  0x08007110       0x10 build/obj/icu.o
                0x08007110                icuInit
 .text.icuObjectInit
                0x08007120       0x10 build/obj/icu.o
                0x08007120                icuObjectInit
 .text.icuStart
                0x08007130       0x60 build/obj/icu.o
                0x08007130                icuStart
 .text.icuStop  0x08007190       0x60 build/obj/icu.o
                0x08007190                icuStop
 .text.icuEnable
                0x080071f0       0x50 build/obj/icu.o
                0x080071f0                icuEnable
 .text.icuDisable
                0x08007240       0x60 build/obj/icu.o
                0x08007240                icuDisable
 .text.mmcGetInfo
                0x080072a0       0x40 build/obj/mmc_spi.o
                0x080072a0                mmcGetInfo
 .text.wait.isra.0
                0x080072e0       0x40 build/obj/mmc_spi.o
 .text.send_hdr
                0x08007320       0x70 build/obj/mmc_spi.o
 .text.recvr1.isra.1
                0x08007390       0x30 build/obj/mmc_spi.o
 .text.send_command_R3
                0x080073c0       0x40 build/obj/mmc_spi.o
 .text.send_command_R1
                0x08007400       0x30 build/obj/mmc_spi.o
 .text.read_CxD
                0x08007430       0xb0 build/obj/mmc_spi.o
 .text.mmcConnect
                0x080074e0      0x160 build/obj/mmc_spi.o
                0x080074e0                mmcConnect
 .text.sync.isra.2
                0x08007640       0x40 build/obj/mmc_spi.o
 .text.mmcDisconnect
                0x08007680       0x90 build/obj/mmc_spi.o
                0x08007680                mmcDisconnect
 .text.mmcSync  0x08007710       0x50 build/obj/mmc_spi.o
                0x08007710                mmcSync
 .text.mmcInit  0x08007760       0x10 build/obj/mmc_spi.o
                0x08007760                mmcInit
 .text.mmcObjectInit
                0x08007770       0x20 build/obj/mmc_spi.o
                0x08007770                mmcObjectInit
 .text.mmcStart
                0x08007790       0x50 build/obj/mmc_spi.o
                0x08007790                mmcStart
 .text.mmcStop  0x080077e0       0x50 build/obj/mmc_spi.o
                0x080077e0                mmcStop
 .text.mmcStartSequentialRead
                0x08007830       0x80 build/obj/mmc_spi.o
                0x08007830                mmcStartSequentialRead
 .text.mmcSequentialRead
                0x080078b0       0x90 build/obj/mmc_spi.o
                0x080078b0                mmcSequentialRead
 .text.mmcStopSequentialRead
                0x08007940       0x60 build/obj/mmc_spi.o
                0x08007940                mmcStopSequentialRead
 .text.mmc_read
                0x080079a0       0x40 build/obj/mmc_spi.o
 .text.mmcStartSequentialWrite
                0x080079e0       0x80 build/obj/mmc_spi.o
                0x080079e0                mmcStartSequentialWrite
 .text.mmcSequentialWrite
                0x08007a60       0xb0 build/obj/mmc_spi.o
                0x08007a60                mmcSequentialWrite
 .text.mmcStopSequentialWrite
                0x08007b10       0x50 build/obj/mmc_spi.o
                0x08007b10                mmcStopSequentialWrite
 .text.mmc_write
                0x08007b60       0x40 build/obj/mmc_spi.o
 .text.mmcsd_get_slice
                0x08007ba0       0x70 build/obj/mmcsd.o
 .text.mmcsdGetCapacity
                0x08007c10       0x50 build/obj/mmcsd.o
                0x08007c10                mmcsdGetCapacity
 .text.pwmInit  0x08007c60       0x10 build/obj/pwm.o
                0x08007c60                pwmInit
 .text.pwmObjectInit
                0x08007c70       0x10 build/obj/pwm.o
                0x08007c70                pwmObjectInit
 .text.pwmStart
                0x08007c80       0x70 build/obj/pwm.o
                0x08007c80                pwmStart
 .text.rtcInit  0x08007cf0       0x10 build/obj/rtc.o
                0x08007cf0                rtcInit
 .text.rtcSetTime
                0x08007d00       0x50 build/obj/rtc.o
                0x08007d00                rtcSetTime
 .text.rtcGetTime
                0x08007d50       0x50 build/obj/rtc.o
                0x08007d50                rtcGetTime
 .text.rtcGetTimeFat
                0x08007da0       0x30 build/obj/rtc.o
                0x08007da0                rtcGetTimeFat
 .text.readt    0x08007dd0       0x10 build/obj/serial.o
 .text.read     0x08007de0       0x10 build/obj/serial.o
 .text.writet   0x08007df0       0x10 build/obj/serial.o
 .text.write    0x08007e00       0x10 build/obj/serial.o
 .text.gett     0x08007e10       0x10 build/obj/serial.o
 .text.get      0x08007e20       0x10 build/obj/serial.o
 .text.putt     0x08007e30       0x10 build/obj/serial.o
 .text.put      0x08007e40       0x10 build/obj/serial.o
 .text.sdInit   0x08007e50       0x10 build/obj/serial.o
                0x08007e50                sdInit
 .text.sdObjectInit
                0x08007e60       0x50 build/obj/serial.o
                0x08007e60                sdObjectInit
 .text.sdStart  0x08007eb0       0x60 build/obj/serial.o
                0x08007eb0                sdStart
 .text.sdIncomingDataI
                0x08007f10       0x60 build/obj/serial.o
                0x08007f10                sdIncomingDataI
 .text.onotify  0x08007f70       0x70 build/obj/serial_usb.o
 .text.inotify  0x08007fe0       0x80 build/obj/serial_usb.o
 .text.readt    0x08008060       0x10 build/obj/serial_usb.o
 .text.read     0x08008070       0x10 build/obj/serial_usb.o
 .text.writet   0x08008080       0x10 build/obj/serial_usb.o
 .text.write    0x08008090       0x10 build/obj/serial_usb.o
 .text.gett     0x080080a0       0x10 build/obj/serial_usb.o
 .text.get      0x080080b0       0x10 build/obj/serial_usb.o
 .text.putt     0x080080c0       0x10 build/obj/serial_usb.o
 .text.put      0x080080d0       0x10 build/obj/serial_usb.o
 .text.sduInit  0x080080e0       0x10 build/obj/serial_usb.o
                0x080080e0                sduInit
 .text.sduObjectInit
                0x080080f0       0x50 build/obj/serial_usb.o
                0x080080f0                sduObjectInit
 .text.sduStart
                0x08008140       0x70 build/obj/serial_usb.o
                0x08008140                sduStart
 .text.sduConfigureHookI
                0x080081b0       0x50 build/obj/serial_usb.o
                0x080081b0                sduConfigureHookI
 .text.sduRequestsHook
                0x08008200       0x50 build/obj/serial_usb.o
                0x08008200                sduRequestsHook
 .text.sduDataTransmitted
                0x08008250       0x90 build/obj/serial_usb.o
                0x08008250                sduDataTransmitted
 .text.sduDataReceived
                0x080082e0       0x80 build/obj/serial_usb.o
                0x080082e0                sduDataReceived
 .text.sduInterruptTransmitted
                0x08008360       0x10 build/obj/serial_usb.o
                0x08008360                sduInterruptTransmitted
 .text.spiInit  0x08008370       0x10 build/obj/spi.o
                0x08008370                spiInit
 .text.spiObjectInit
                0x08008380       0x10 build/obj/spi.o
                0x08008380                spiObjectInit
 .text.spiStart
                0x08008390       0x60 build/obj/spi.o
                0x08008390                spiStart
 .text.spiStop  0x080083f0       0x60 build/obj/spi.o
                0x080083f0                spiStop
 .text.spiSelect
                0x08008450       0x50 build/obj/spi.o
                0x08008450                spiSelect
 .text.spiUnselect
                0x080084a0       0x50 build/obj/spi.o
                0x080084a0                spiUnselect
 .text.spiIgnore
                0x080084f0       0x90 build/obj/spi.o
                0x080084f0                spiIgnore
 .text.spiExchange
                0x08008580       0xa0 build/obj/spi.o
                0x08008580                spiExchange
 .text.spiSend  0x08008620       0xa0 build/obj/spi.o
                0x08008620                spiSend
 .text.spiReceive
                0x080086c0       0xa0 build/obj/spi.o
                0x080086c0                spiReceive
 .text.usbInit  0x08008760       0x10 build/obj/usb.o
                0x08008760                usbInit
 .text.usbObjectInit
                0x08008770       0x20 build/obj/usb.o
                0x08008770                usbObjectInit
 .text.usbStart
                0x08008790       0x70 build/obj/usb.o
                0x08008790                usbStart
 .text.usbInitEndpointI
                0x08008800       0x80 build/obj/usb.o
                0x08008800                usbInitEndpointI
 .text.usbPrepareQueuedReceive
                0x08008880       0x20 build/obj/usb.o
                0x08008880                usbPrepareQueuedReceive
 .text.usbPrepareQueuedTransmit
                0x080088a0       0x20 build/obj/usb.o
                0x080088a0                usbPrepareQueuedTransmit
 .text.usbStartReceiveI
                0x080088c0       0x50 build/obj/usb.o
                0x080088c0                usbStartReceiveI
 .text.usbStartTransmitI
                0x08008910       0x50 build/obj/usb.o
                0x08008910                usbStartTransmitI
 .text._usb_reset
                0x08008960       0x30 build/obj/usb.o
                0x08008960                _usb_reset
 .text._usb_ep0setup
                0x08008990      0x330 build/obj/usb.o
                0x08008990                _usb_ep0setup
 .text._usb_ep0in
                0x08008cc0       0xe0 build/obj/usb.o
                0x08008cc0                _usb_ep0in
 .text._usb_ep0out
                0x08008da0       0x90 build/obj/usb.o
                0x08008da0                _usb_ep0out
 .text.get_descriptor
                0x08008e30       0x40 build/obj/usbcfg.o
 .text.usb_event
                0x08008e70       0x50 build/obj/usbcfg.o
 .text.usb_serial_start
                0x08008ec0       0x60 build/obj/usbconsole.o
                0x08008ec0                usb_serial_start
 .text.is_usb_serial_ready
                0x08008f20       0x20 build/obj/usbconsole.o
                0x08008f20                is_usb_serial_ready
 .text.flashSectorBegin
                0x08008f40       0x40 build/obj/flash.o
                0x08008f40                flashSectorBegin
 .text.flashSectorErase
                0x08008f80      0x150 build/obj/flash.o
                0x08008f80                flashSectorErase
 .text.flashErase
                0x080090d0       0x60 build/obj/flash.o
                0x080090d0                flashErase
 .text.flashRead
                0x08009130       0x10 build/obj/flash.o
                0x08009130                flashRead
 .text.flashWrite
                0x08009140      0x170 build/obj/flash.o
                0x08009140                flashWrite
 .text.initMalfunctionCentral
                0x080092b0       0x10 build/obj/malfunction_central.o
                0x080092b0                initMalfunctionCentral
 .text.addError
                0x080092c0       0x50 build/obj/malfunction_central.o
                0x080092c0                addError
 .text.removeError
                0x08009310       0x70 build/obj/malfunction_central.o
                0x08009310                removeError
 .text.setError
                0x08009380       0x10 build/obj/malfunction_central.o
                0x08009380                setError
 .text.getErrorCodes
                0x08009390       0x30 build/obj/malfunction_central.o
                0x08009390                getErrorCodes
 .text.hasErrorCodes
                0x080093c0       0x20 build/obj/malfunction_central.o
                0x080093c0                hasErrorCodes
 .text.hex2int  0x080093e0       0x30 build/obj/nmea.o
                0x080093e0                hex2int
 .text.gps_deg_dec
                0x08009410      0x120 build/obj/nmea.o
                0x08009410                gps_deg_dec
 .text.gps_convert_deg_to_dec
                0x08009530       0x40 build/obj/nmea.o
                0x08009530                gps_convert_deg_to_dec
 .text.str_till_comma
                0x08009570       0x40 build/obj/nmea.o
                0x08009570                str_till_comma
 .text.nmea_parse_gpgga
                0x080095b0       0xe0 build/obj/nmea.o
                0x080095b0                nmea_parse_gpgga
 .text.nmea_parse_gprmc
                0x08009690      0x1d0 build/obj/nmea.o
                0x08009690                nmea_parse_gprmc
 .text.nmea_valid_checksum
                0x08009860       0x40 build/obj/nmea.o
                0x08009860                nmea_valid_checksum
 .text.nmea_get_message_type
                0x080098a0       0x40 build/obj/nmea.o
                0x080098a0                nmea_get_message_type
 .text.gps_location
                0x080098e0       0x50 build/obj/nmea.o
                0x080098e0                gps_location
 .text.Vector6C
                0x08009930       0x40 build/obj/stm32_dma.o
                0x08009930                Vector6C
 .text.Vector70
                0x08009970       0x40 build/obj/stm32_dma.o
                0x08009970                Vector70
 .text.Vector74
                0x080099b0       0x40 build/obj/stm32_dma.o
                0x080099b0                Vector74
 .text.Vector78
                0x080099f0       0x40 build/obj/stm32_dma.o
                0x080099f0                Vector78
 .text.Vector7C
                0x08009a30       0x40 build/obj/stm32_dma.o
                0x08009a30                Vector7C
 .text.Vector80
                0x08009a70       0x40 build/obj/stm32_dma.o
                0x08009a70                Vector80
 .text.Vector84
                0x08009ab0       0x40 build/obj/stm32_dma.o
                0x08009ab0                Vector84
 .text.VectorFC
                0x08009af0       0x40 build/obj/stm32_dma.o
                0x08009af0                VectorFC
 .text.Vector120
                0x08009b30       0x40 build/obj/stm32_dma.o
                0x08009b30                Vector120
 .text.Vector124
                0x08009b70       0x40 build/obj/stm32_dma.o
                0x08009b70                Vector124
 .text.Vector128
                0x08009bb0       0x40 build/obj/stm32_dma.o
                0x08009bb0                Vector128
 .text.Vector12C
                0x08009bf0       0x40 build/obj/stm32_dma.o
                0x08009bf0                Vector12C
 .text.Vector130
                0x08009c30       0x40 build/obj/stm32_dma.o
                0x08009c30                Vector130
 .text.Vector150
                0x08009c70       0x40 build/obj/stm32_dma.o
                0x08009c70                Vector150
 .text.Vector154
                0x08009cb0       0x40 build/obj/stm32_dma.o
                0x08009cb0                Vector154
 .text.Vector158
                0x08009cf0       0x40 build/obj/stm32_dma.o
                0x08009cf0                Vector158
 .text.dmaInit  0x08009d30       0x60 build/obj/stm32_dma.o
                0x08009d30                dmaInit
 .text.dmaStreamAllocate
                0x08009d90       0xd0 build/obj/stm32_dma.o
                0x08009d90                dmaStreamAllocate
 .text.dmaStreamRelease
                0x08009e60       0x90 build/obj/stm32_dma.o
                0x08009e60                dmaStreamRelease
 .text.hal_lld_init
                0x08009ef0       0xf0 build/obj/hal_lld.o
                0x08009ef0                hal_lld_init
 .text.stm32_clock_init
                0x08009fe0      0x110 build/obj/hal_lld.o
                0x08009fe0                stm32_clock_init
 .text.adc_lld_init
                0x0800a0f0       0x60 build/obj/adc_lld.o
                0x0800a0f0                adc_lld_init
 .text.adc_lld_start
                0x0800a150       0xd0 build/obj/adc_lld.o
                0x0800a150                adc_lld_start
 .text.adc_lld_start_conversion
                0x0800a220       0xa0 build/obj/adc_lld.o
                0x0800a220                adc_lld_start_conversion
 .text.adc_lld_stop_conversion
                0x0800a2c0       0x40 build/obj/adc_lld.o
                0x0800a2c0                adc_lld_stop_conversion
 .text.Vector88
                0x0800a300      0x110 build/obj/adc_lld.o
                0x0800a300                Vector88
 .text.adc_lld_serve_rx_interrupt
                0x0800a410      0x110 build/obj/adc_lld.o
 .text.Vector58
                0x0800a520       0x30 build/obj/ext_lld_isr.o
                0x0800a520                Vector58
 .text.Vector5C
                0x0800a550       0x30 build/obj/ext_lld_isr.o
                0x0800a550                Vector5C
 .text.Vector60
                0x0800a580       0x30 build/obj/ext_lld_isr.o
                0x0800a580                Vector60
 .text.Vector64
                0x0800a5b0       0x30 build/obj/ext_lld_isr.o
                0x0800a5b0                Vector64
 .text.Vector68
                0x0800a5e0       0x30 build/obj/ext_lld_isr.o
                0x0800a5e0                Vector68
 .text.Vector9C
                0x0800a610       0xa0 build/obj/ext_lld_isr.o
                0x0800a610                Vector9C
 .text.VectorE0
                0x0800a6b0       0xb0 build/obj/ext_lld_isr.o
                0x0800a6b0                VectorE0
 .text.Vector44
                0x0800a760       0x40 build/obj/ext_lld_isr.o
                0x0800a760                Vector44
 .text.VectorE4
                0x0800a7a0       0x40 build/obj/ext_lld_isr.o
                0x0800a7a0                VectorE4
 .text.VectorE8
                0x0800a7e0       0x40 build/obj/ext_lld_isr.o
                0x0800a7e0                VectorE8
 .text.Vector138
                0x0800a820       0x40 build/obj/ext_lld_isr.o
                0x0800a820                Vector138
 .text.Vector170
                0x0800a860       0x40 build/obj/ext_lld_isr.o
                0x0800a860                Vector170
 .text.Vector4C
                0x0800a8a0       0x40 build/obj/ext_lld_isr.o
                0x0800a8a0                Vector4C
 .text.ext_lld_exti_irq_enable
                0x0800a8e0       0x80 build/obj/ext_lld_isr.o
                0x0800a8e0                ext_lld_exti_irq_enable
 .text.can_lld_set_filters
                0x0800a960      0x140 build/obj/can_lld.o
 .text.can_lld_tx_handler
                0x0800aaa0       0x50 build/obj/can_lld.o
 .text.can_lld_rx0_handler
                0x0800aaf0       0x80 build/obj/can_lld.o
 .text.can_lld_rx1_handler
                0x0800ab70       0x80 build/obj/can_lld.o
 .text.can_lld_sce_handler
                0x0800abf0       0x80 build/obj/can_lld.o
 .text.Vector8C
                0x0800ac70       0x20 build/obj/can_lld.o
                0x0800ac70                Vector8C
 .text.Vector90
                0x0800ac90       0x20 build/obj/can_lld.o
                0x0800ac90                Vector90
 .text.Vector94
                0x0800acb0       0x20 build/obj/can_lld.o
                0x0800acb0                Vector94
 .text.Vector98
                0x0800acd0       0x20 build/obj/can_lld.o
                0x0800acd0                Vector98
 .text.Vector13C
                0x0800acf0       0x20 build/obj/can_lld.o
                0x0800acf0                Vector13C
 .text.Vector140
                0x0800ad10       0x20 build/obj/can_lld.o
                0x0800ad10                Vector140
 .text.Vector144
                0x0800ad30       0x20 build/obj/can_lld.o
                0x0800ad30                Vector144
 .text.Vector148
                0x0800ad50       0x20 build/obj/can_lld.o
                0x0800ad50                Vector148
 .text.can_lld_init
                0x0800ad70       0x40 build/obj/can_lld.o
                0x0800ad70                can_lld_init
 .text.can_lld_start
                0x0800adb0       0xd0 build/obj/can_lld.o
                0x0800adb0                can_lld_start
 .text.can_lld_is_tx_empty
                0x0800ae80       0x40 build/obj/can_lld.o
                0x0800ae80                can_lld_is_tx_empty
 .text.can_lld_transmit
                0x0800aec0       0x80 build/obj/can_lld.o
                0x0800aec0                can_lld_transmit
 .text.can_lld_is_rx_nonempty
                0x0800af40       0x40 build/obj/can_lld.o
                0x0800af40                can_lld_is_rx_nonempty
 .text.can_lld_receive
                0x0800af80       0xd0 build/obj/can_lld.o
                0x0800af80                can_lld_receive
 .text.ext_lld_init
                0x0800b050       0x10 build/obj/ext_lld.o
                0x0800b050                ext_lld_init
 .text.ext_lld_channel_enable
                0x0800b060       0xc0 build/obj/ext_lld.o
                0x0800b060                ext_lld_channel_enable
 .text.ext_lld_channel_disable
                0x0800b120       0x30 build/obj/ext_lld.o
                0x0800b120                ext_lld_channel_disable
 .text.ext_lld_start
                0x0800b150       0x40 build/obj/ext_lld.o
                0x0800b150                ext_lld_start
 .text._pal_lld_init
                0x0800b190      0x1b0 build/obj/pal_lld.o
                0x0800b190                _pal_lld_init
 .text._pal_lld_setgroupmode
                0x0800b340       0xd0 build/obj/pal_lld.o
                0x0800b340                _pal_lld_setgroupmode
 .text.VectorBC
                0x0800b410      0x140 build/obj/i2c_lld.o
                0x0800b410                VectorBC
 .text.VectorC0
                0x0800b550      0x110 build/obj/i2c_lld.o
                0x0800b550                VectorC0
 .text.i2c_lld_init
                0x0800b660       0x30 build/obj/i2c_lld.o
                0x0800b660                i2c_lld_init
 .text.usb_lld_pump
                0x0800b690      0x3e0 build/obj/usb_lld.o
 .text.otg_disable_ep.isra.0
                0x0800ba70       0x80 build/obj/usb_lld.o
 .text.usb_lld_init
                0x0800baf0       0x50 build/obj/usb_lld.o
                0x0800baf0                usb_lld_init
 .text.usb_lld_start
                0x0800bb40       0xf0 build/obj/usb_lld.o
                0x0800bb40                usb_lld_start
 .text.usb_lld_reset
                0x0800bc30       0xe0 build/obj/usb_lld.o
                0x0800bc30                usb_lld_reset
 .text.usb_lld_set_address
                0x0800bd10       0x20 build/obj/usb_lld.o
                0x0800bd10                usb_lld_set_address
 .text.usb_lld_init_endpoint
                0x0800bd30      0x190 build/obj/usb_lld.o
                0x0800bd30                usb_lld_init_endpoint
 .text.usb_lld_get_status_out
                0x0800bec0       0x20 build/obj/usb_lld.o
                0x0800bec0                usb_lld_get_status_out
 .text.usb_lld_get_status_in
                0x0800bee0       0x20 build/obj/usb_lld.o
                0x0800bee0                usb_lld_get_status_in
 .text.usb_lld_read_setup
                0x0800bf00       0x20 build/obj/usb_lld.o
                0x0800bf00                usb_lld_read_setup
 .text.usb_lld_prepare_receive
                0x0800bf20       0x50 build/obj/usb_lld.o
                0x0800bf20                usb_lld_prepare_receive
 .text.otg_epout_handler
                0x0800bf70       0xa0 build/obj/usb_lld.o
 .text.usb_lld_prepare_transmit
                0x0800c010       0x50 build/obj/usb_lld.o
                0x0800c010                usb_lld_prepare_transmit
 .text.otg_epin_handler
                0x0800c060       0xe0 build/obj/usb_lld.o
 .text.Vector14C
                0x0800c140      0x160 build/obj/usb_lld.o
                0x0800c140                Vector14C
 .text.usb_lld_start_out
                0x0800c2a0       0x20 build/obj/usb_lld.o
                0x0800c2a0                usb_lld_start_out
 .text.usb_lld_start_in
                0x0800c2c0       0x30 build/obj/usb_lld.o
                0x0800c2c0                usb_lld_start_in
 .text.usb_lld_stall_out
                0x0800c2f0       0x20 build/obj/usb_lld.o
                0x0800c2f0                usb_lld_stall_out
 .text.usb_lld_stall_in
                0x0800c310       0x20 build/obj/usb_lld.o
                0x0800c310                usb_lld_stall_in
 .text.usb_lld_clear_out
                0x0800c330       0x20 build/obj/usb_lld.o
                0x0800c330                usb_lld_clear_out
 .text.usb_lld_clear_in
                0x0800c350       0x20 build/obj/usb_lld.o
                0x0800c350                usb_lld_clear_in
 .text.rtc_lld_init
                0x0800c370       0x60 build/obj/rtc_lld.o
                0x0800c370                rtc_lld_init
 .text.rtc_lld_set_time
                0x0800c3d0       0x50 build/obj/rtc_lld.o
                0x0800c3d0                rtc_lld_set_time
 .text.rtc_lld_get_time
                0x0800c420       0x50 build/obj/rtc_lld.o
                0x0800c420                rtc_lld_get_time
 .text.rtc_lld_get_time_fat
                0x0800c470       0xc0 build/obj/rtc_lld.o
                0x0800c470                rtc_lld_get_time_fat
 .text.spi_lld_serve_tx_interrupt
                0x0800c530       0x10 build/obj/spi_lld.o
 .text.spi_lld_serve_rx_interrupt
                0x0800c540       0x80 build/obj/spi_lld.o
 .text.spi_lld_init
                0x0800c5c0       0xb0 build/obj/spi_lld.o
                0x0800c5c0                spi_lld_init
 .text.spi_lld_start
                0x0800c670      0x1a0 build/obj/spi_lld.o
                0x0800c670                spi_lld_start
 .text.spi_lld_stop
                0x0800c810       0x80 build/obj/spi_lld.o
                0x0800c810                spi_lld_stop
 .text.spi_lld_select
                0x0800c890       0x20 build/obj/spi_lld.o
                0x0800c890                spi_lld_select
 .text.spi_lld_unselect
                0x0800c8b0       0x20 build/obj/spi_lld.o
                0x0800c8b0                spi_lld_unselect
 .text.spi_lld_ignore
                0x0800c8d0       0x40 build/obj/spi_lld.o
                0x0800c8d0                spi_lld_ignore
 .text.spi_lld_exchange
                0x0800c910       0x40 build/obj/spi_lld.o
                0x0800c910                spi_lld_exchange
 .text.spi_lld_send
                0x0800c950       0x40 build/obj/spi_lld.o
                0x0800c950                spi_lld_send
 .text.spi_lld_receive
                0x0800c990       0x40 build/obj/spi_lld.o
                0x0800c990                spi_lld_receive
 .text.Vector108
                0x0800c9d0       0x50 build/obj/gpt_lld.o
                0x0800c9d0                Vector108
 .text.gpt_lld_init
                0x0800ca20       0x20 build/obj/gpt_lld.o
                0x0800ca20                gpt_lld_init
 .text.gpt_lld_start
                0x0800ca40       0x80 build/obj/gpt_lld.o
                0x0800ca40                gpt_lld_start
 .text.gpt_lld_start_timer
                0x0800cac0       0x20 build/obj/gpt_lld.o
                0x0800cac0                gpt_lld_start_timer
 .text.gpt_lld_stop_timer
                0x0800cae0       0x20 build/obj/gpt_lld.o
                0x0800cae0                gpt_lld_stop_timer
 .text.icu_lld_serve_interrupt
                0x0800cb00       0x80 build/obj/icu_lld.o
 .text.VectorA4
                0x0800cb80       0x20 build/obj/icu_lld.o
                0x0800cb80                VectorA4
 .text.VectorAC
                0x0800cba0       0x20 build/obj/icu_lld.o
                0x0800cba0                VectorAC
 .text.VectorB0
                0x0800cbc0       0x20 build/obj/icu_lld.o
                0x0800cbc0                VectorB0
 .text.VectorB4
                0x0800cbe0       0x20 build/obj/icu_lld.o
                0x0800cbe0                VectorB4
 .text.VectorA0
                0x0800cc00       0x20 build/obj/icu_lld.o
                0x0800cc00                VectorA0
 .text.icu_lld_init
                0x0800cc20       0x60 build/obj/icu_lld.o
                0x0800cc20                icu_lld_init
 .text.icu_lld_start
                0x0800cc80      0x1a0 build/obj/icu_lld.o
                0x0800cc80                icu_lld_start
 .text.icu_lld_stop
                0x0800ce20       0xb0 build/obj/icu_lld.o
                0x0800ce20                icu_lld_stop
 .text.icu_lld_enable
                0x0800ced0       0x60 build/obj/icu_lld.o
                0x0800ced0                icu_lld_enable
 .text.icu_lld_disable
                0x0800cf30       0x20 build/obj/icu_lld.o
                0x0800cf30                icu_lld_disable
 .text.VectorB8
                0x0800cf50       0x90 build/obj/pwm_lld.o
                0x0800cf50                VectorB8
 .text.VectorF0
                0x0800cfe0       0x30 build/obj/pwm_lld.o
                0x0800cfe0                VectorF0
 .text.VectorF8
                0x0800d010       0x80 build/obj/pwm_lld.o
                0x0800d010                VectorF8
 .text.pwm_lld_init
                0x0800d090       0x40 build/obj/pwm_lld.o
                0x0800d090                pwm_lld_init
 .text.pwm_lld_start
                0x0800d0d0      0x160 build/obj/pwm_lld.o
                0x0800d0d0                pwm_lld_start
 .text.notify1  0x0800d230       0x20 build/obj/serial_lld.o
 .text.notify2  0x0800d250       0x20 build/obj/serial_lld.o
 .text.notify3  0x0800d270       0x20 build/obj/serial_lld.o
 .text.serve_interrupt
                0x0800d290      0x150 build/obj/serial_lld.o
 .text.VectorD4
                0x0800d3e0       0x20 build/obj/serial_lld.o
                0x0800d3e0                VectorD4
 .text.VectorD8
                0x0800d400       0x20 build/obj/serial_lld.o
                0x0800d400                VectorD8
 .text.VectorDC
                0x0800d420       0x20 build/obj/serial_lld.o
                0x0800d420                VectorDC
 .text.sd_lld_init
                0x0800d440       0x70 build/obj/serial_lld.o
                0x0800d440                sd_lld_init
 .text.sd_lld_start
                0x0800d4b0       0xf0 build/obj/serial_lld.o
                0x0800d4b0                sd_lld_start
 .text.__early_init
                0x0800d5a0       0x10 build/obj/board.o
                0x0800d5a0                __early_init
 .text.mmc_lld_is_card_inserted
                0x0800d5b0       0x10 build/obj/board.o
                0x0800d5b0                mmc_lld_is_card_inserted
 .text.mmc_lld_is_write_protected
                0x0800d5c0       0x10 build/obj/board.o
                0x0800d5c0                mmc_lld_is_write_protected
 .text.boardInit
                0x0800d5d0       0x10 build/obj/board.o
                0x0800d5d0                boardInit
 .text.disk_initialize
                0x0800d5e0       0x30 build/obj/fatfs_diskio.o
                0x0800d5e0                disk_initialize
 .text.disk_status
                0x0800d610       0x30 build/obj/fatfs_diskio.o
                0x0800d610                disk_status
 .text.disk_read
                0x0800d640       0x70 build/obj/fatfs_diskio.o
                0x0800d640                disk_read
 .text.disk_write
                0x0800d6b0       0x80 build/obj/fatfs_diskio.o
                0x0800d6b0                disk_write
 .text.disk_ioctl
                0x0800d730       0x20 build/obj/fatfs_diskio.o
                0x0800d730                disk_ioctl
 .text.get_fattime
                0x0800d750       0x10 build/obj/fatfs_diskio.o
                0x0800d750                get_fattime
 .text.ff_memalloc
                0x0800d760       0x10 build/obj/fatfs_syscall.o
                0x0800d760                ff_memalloc
 .text.ff_memfree
                0x0800d770       0x10 build/obj/fatfs_syscall.o
                0x0800d770                ff_memfree
 .text.move_window
                0x0800d780       0x80 build/obj/ff.o
 .text.get_fileinfo
                0x0800d800      0x110 build/obj/ff.o
 .text.sync     0x0800d910       0xd0 build/obj/ff.o
 .text.check_fs
                0x0800d9e0       0x90 build/obj/ff.o
 .text.chk_mounted
                0x0800da70      0x310 build/obj/ff.o
 .text.validate
                0x0800dd80       0x30 build/obj/ff.o
 .text.get_fat.part.3
                0x0800ddb0       0xc0 build/obj/ff.o
 .text.dir_sdi  0x0800de70       0xb0 build/obj/ff.o
 .text.put_fat.part.4
                0x0800df20      0x100 build/obj/ff.o
 .text.create_chain
                0x0800e020       0xd0 build/obj/ff.o
 .text.dir_next
                0x0800e0f0      0x140 build/obj/ff.o
 .text.dir_read
                0x0800e230      0x120 build/obj/ff.o
 .text.dir_remove
                0x0800e350       0x60 build/obj/ff.o
 .text.dir_find.part.5
                0x0800e3b0      0x160 build/obj/ff.o
 .text.remove_chain.part.6
                0x0800e510       0x60 build/obj/ff.o
 .text.follow_path
                0x0800e570      0x340 build/obj/ff.o
 .text.gen_numname
                0x0800e8b0       0xa0 build/obj/ff.o
                0x0800e8b0                gen_numname
 .text.dir_register
                0x0800e950      0x250 build/obj/ff.o
 .text.f_mount  0x0800eba0       0x20 build/obj/ff.o
                0x0800eba0                f_mount
 .text.f_open   0x0800ebc0      0x1b0 build/obj/ff.o
                0x0800ebc0                f_open
 .text.f_read   0x0800ed70      0x190 build/obj/ff.o
                0x0800ed70                f_read
 .text.f_write  0x0800ef00      0x1e0 build/obj/ff.o
                0x0800ef00                f_write
 .text.f_sync   0x0800f0e0       0xb0 build/obj/ff.o
                0x0800f0e0                f_sync
 .text.f_close  0x0800f190       0x10 build/obj/ff.o
                0x0800f190                f_close
 .text.f_lseek  0x0800f1a0      0x180 build/obj/ff.o
                0x0800f1a0                f_lseek
 .text.f_opendir
                0x0800f320       0x90 build/obj/ff.o
                0x0800f320                f_opendir
 .text.f_readdir
                0x0800f3b0       0x80 build/obj/ff.o
                0x0800f3b0                f_readdir
 .text.f_unlink
                0x0800f430       0xe0 build/obj/ff.o
                0x0800f430                f_unlink
 .text.ff_convert
                0x0800f510       0x50 build/obj/ccsbcs.o
                0x0800f510                ff_convert
 .text.ff_wtoupper
                0x0800f560       0x30 build/obj/ccsbcs.o
                0x0800f560                ff_wtoupper
 .text._ZL18setEmulatorAtIndexiP6Engine
                0x0800f590       0x10 build/obj/trigger_emulator_algo.o
 .text._ZL16resumeStimulatorP6Engine
                0x0800f5a0       0x20 build/obj/trigger_emulator_algo.o
 .text._ZL15fireShaftSignal15trigger_event_e
                0x0800f5c0       0x30 build/obj/trigger_emulator_algo.o
 .text._Z21setTriggerEmulatorRPMiP6Engine
                0x0800f5f0       0xb0 build/obj/trigger_emulator_algo.o
                0x0800f5f0                setTriggerEmulatorRPM(int, Engine*)
 .text._ZL26updateTriggerShapeIfNeededP9PwmConfig
                0x0800f6a0       0xa0 build/obj/trigger_emulator_algo.o
 .text._ZN21TriggerEmulatorHelper22handleEmulatorCallbackEP9PwmConfigi
                0x0800f740       0x70 build/obj/trigger_emulator_algo.o
                0x0800f740                TriggerEmulatorHelper::handleEmulatorCallback(PwmConfig*, int)
 .text._ZL21emulatorApplyPinStateP9PwmConfigi
                0x0800f7b0       0x60 build/obj/trigger_emulator_algo.o
 .text._Z24initTriggerEmulatorLogicP7LoggingP6Engine
                0x0800f810       0xc0 build/obj/trigger_emulator_algo.o
                0x0800f810                initTriggerEmulatorLogic(Logging*, Engine*)
 .text._ZN13RpmCalculatorC2Ev
                0x0800f8d0       0x80 build/obj/rpm_calculator.o
                0x0800f8d0                RpmCalculator::RpmCalculator()
                0x0800f8d0                RpmCalculator::RpmCalculator()
 .text._ZN13RpmCalculator9isRunningEv
                0x0800f950       0x70 build/obj/rpm_calculator.o
                0x0800f950                RpmCalculator::isRunning()
 .text._ZL13onTdcCallbackv
                0x0800f9c0       0x50 build/obj/rpm_calculator.o
 .text._ZN13RpmCalculator20getRevolutionCounterEv
                0x0800fa10       0x10 build/obj/rpm_calculator.o
                0x0800fa10                RpmCalculator::getRevolutionCounter()
 .text._ZN13RpmCalculator30getRevolutionCounterSinceStartEv
                0x0800fa20       0x10 build/obj/rpm_calculator.o
                0x0800fa20                RpmCalculator::getRevolutionCounterSinceStart()
 .text._ZN13RpmCalculator18getRpmAccelerationEv
                0x0800fa30       0x20 build/obj/rpm_calculator.o
                0x0800fa30                RpmCalculator::getRpmAcceleration()
 .text._ZN13RpmCalculator3rpmEv
                0x0800fa50       0x20 build/obj/rpm_calculator.o
                0x0800fa50                RpmCalculator::rpm()
 .text._Z11isCrankingEP6Engine
                0x0800fa70       0x30 build/obj/rpm_calculator.o
                0x0800fa70                isCrankingE(Engine*)
 .text._Z10isCrankingv
                0x0800faa0       0x10 build/obj/rpm_calculator.o
                0x0800faa0                isCranking()
 .text._Z20getRevolutionCounterv
                0x0800fab0       0x10 build/obj/rpm_calculator.o
                0x0800fab0                getRevolutionCounter()
 .text._Z20getCrankshaftAngleNty
                0x0800fac0       0x80 build/obj/rpm_calculator.o
                0x0800fac0                getCrankshaftAngleNt(unsigned long long)
 .text._Z24rpmShaftPositionCallback15trigger_event_em
                0x0800fb40      0x180 build/obj/rpm_calculator.o
                0x0800fb40                rpmShaftPositionCallback(trigger_event_e, unsigned long)
 .text._Z17initRpmCalculatorP6Engine
                0x0800fcc0       0x40 build/obj/rpm_calculator.o
                0x0800fcc0                initRpmCalculator(Engine*)
 .text._Z15scheduleByAngleiP12scheduling_sfPFvPvES1_P13RpmCalculator
                0x0800fd00       0x80 build/obj/rpm_calculator.o
                0x0800fd00                scheduleByAngle(int, scheduling_s*, float, void (*)(void*), void*, RpmCalculator*)
 .text._ZL15tdcMarkCallback15trigger_event_em
                0x0800fd80       0x90 build/obj/rpm_calculator.o
 .text._Z11triggerInfov
                0x0800fe10      0x460 build/obj/trigger_central.o
                0x0800fe10                triggerInfo()
 .text._ZL16triggerShapeInfov
                0x08010270       0xa0 build/obj/trigger_central.o
 .text._Z20getCrankEventCounterv
                0x08010310       0x10 build/obj/trigger_central.o
                0x08010310                getCrankEventCounter()
 .text._Z23addTriggerEventListenerPFv15trigger_event_emEPKcP6Engine
                0x08010320       0x30 build/obj/trigger_central.o
                0x08010320                addTriggerEventListener(void (*)(trigger_event_e, unsigned long), char const*, Engine*)
 .text._ZN14TriggerCentralC2Ev
                0x08010350       0x30 build/obj/trigger_central.o
                0x08010350                TriggerCentral::TriggerCentral()
                0x08010350                TriggerCentral::TriggerCentral()
 .text._ZN14TriggerCentral13resetCountersEv
                0x08010380       0x20 build/obj/trigger_central.o
                0x08010380                TriggerCentral::resetCounters()
 .text._ZL27resetRunningTriggerCountersv
                0x080103a0       0x20 build/obj/trigger_central.o
 .text._ZN14TriggerCentral17handleShaftSignalE15trigger_event_e
                0x080103c0      0x200 build/obj/trigger_central.o
                0x080103c0                TriggerCentral::handleShaftSignal(trigger_event_e)
 .text._Z19hwHandleShaftSignal15trigger_event_e
                0x080105c0       0xc0 build/obj/trigger_central.o
                0x080105c0                hwHandleShaftSignal(trigger_event_e)
 .text._Z26printAllCallbacksHistogramv
                0x08010680       0x20 build/obj/trigger_central.o
                0x08010680                printAllCallbacksHistogram()
 .text._Z18initTriggerCentralP7LoggingP6Engine
                0x080106a0       0x70 build/obj/trigger_central.o
                0x080106a0                initTriggerCentral(Logging*, Engine*)
 .text._ZL24endSimultaniousInjectionP6Engine
                0x08010710       0x30 build/obj/main_trigger_callback.o
 .text._ZL26startSimultaniousInjectionP6Engine
                0x08010740       0x30 build/obj/main_trigger_callback.o
 .text._Z19mainTriggerCallback15trigger_event_em
                0x08010770      0x910 build/obj/main_trigger_callback.o
                0x08010770                mainTriggerCallback(trigger_event_e, unsigned long)
 .text._ZL12showMainInfoP6Engine
                0x08011080       0x70 build/obj/main_trigger_callback.o
 .text._ZL20showTriggerHistogramv
                0x080110f0       0x30 build/obj/main_trigger_callback.o
 .text._Z21initMainEventListenerP7LoggingP6Engine
                0x08011120       0xa0 build/obj/main_trigger_callback.o
                0x08011120                initMainEventListener(Logging*, Engine*)
 .text._Z21isIgnitionTimingErrorv
                0x080111c0       0x60 build/obj/main_trigger_callback.o
                0x080111c0                isIgnitionTimingError()
 .text._Z31configureMiniCooperTriggerShapeP12TriggerShape
                0x08011220      0x1f0 build/obj/trigger_bmw.o
                0x08011220                configureMiniCooperTriggerShape(TriggerShape*)
 .text._Z27initializeMazdaMiataNaShapeP12TriggerShape
                0x08011410      0x100 build/obj/trigger_mazda.o
                0x08011410                initializeMazdaMiataNaShape(TriggerShape*)
 .text._Z27initializeMazdaMiataNbShapeP12TriggerShape
                0x08011510      0x190 build/obj/trigger_mazda.o
                0x08011510                initializeMazdaMiataNbShape(TriggerShape*)
 .text._Z25configureMazdaProtegeSOHCP12TriggerShape
                0x080116a0       0xa0 build/obj/trigger_mazda.o
                0x080116a0                configureMazdaProtegeSOHC(TriggerShape*)
 .text._Z23configureMazdaProtegeLxP12TriggerShape
                0x08011740       0xe0 build/obj/trigger_mazda.o
                0x08011740                configureMazdaProtegeLx(TriggerShape*)
 .text._Z12initDodgeRamP12TriggerShape
                0x08011820       0xa0 build/obj/trigger_chrysler.o
                0x08011820                initDodgeRam(TriggerShape*)
 .text._Z29configureNeon2003TriggerShapeP12TriggerShape
                0x080118c0      0x130 build/obj/trigger_chrysler.o
                0x080118c0                configureNeon2003TriggerShape(TriggerShape*)
 .text._Z29configureNeon1995TriggerShapeP12TriggerShape
                0x080119f0      0x290 build/obj/trigger_chrysler.o
                0x080119f0                configureNeon1995TriggerShape(TriggerShape*)
 .text._ZN20trigger_shape_helperC2Ev
                0x08011c80       0x40 build/obj/trigger_structure.o
                0x08011c80                trigger_shape_helper::trigger_shape_helper()
                0x08011c80                trigger_shape_helper::trigger_shape_helper()
 .text._ZNK12TriggerShape7getSizeEv
                0x08011cc0       0x10 build/obj/trigger_structure.o
                0x08011cc0                TriggerShape::getSize() const
 .text._ZN12TriggerShape5clearEv
                0x08011cd0       0x50 build/obj/trigger_structure.o
                0x08011cd0                TriggerShape::clear()
 .text._ZN12TriggerShape5resetE16operation_mode_eb
                0x08011d20       0xa0 build/obj/trigger_structure.o
                0x08011d20                TriggerShape::reset(operation_mode_e, bool)
 .text._ZN12TriggerShapeC2Ev
                0x08011dc0       0xa0 build/obj/trigger_structure.o
                0x08011dc0                TriggerShape::TriggerShape()
                0x08011dc0                TriggerShape::TriggerShape()
 .text._ZNK12multi_wave_s15getChannelStateEii
                0x08011e60       0x10 build/obj/trigger_structure.o
                0x08011e60                multi_wave_s::getChannelState(int, int) const
 .text._ZNK12multi_wave_s14findAngleMatchEfi
                0x08011e70       0x40 build/obj/trigger_structure.o
                0x08011e70                multi_wave_s::findAngleMatch(float, int) const
 .text._ZN12multi_wave_s13setSwitchTimeEif
                0x08011eb0       0x10 build/obj/trigger_structure.o
                0x08011eb0                multi_wave_s::setSwitchTime(int, float)
 .text._ZN12TriggerState15getCurrentIndexEv
                0x08011ec0       0x10 build/obj/trigger_structure.o
                0x08011ec0                TriggerState::getCurrentIndex()
 .text._ZN12TriggerState20resetRunningCountersEv
                0x08011ed0       0x10 build/obj/trigger_structure.o
                0x08011ed0                TriggerState::resetRunningCounters()
 .text._ZN12TriggerState20getTotalEventCounterEv
                0x08011ee0       0x20 build/obj/trigger_structure.o
                0x08011ee0                TriggerState::getTotalEventCounter()
 .text._ZN12TriggerState25getTotalRevolutionCounterEv
                0x08011f00       0x10 build/obj/trigger_structure.o
                0x08011f00                TriggerState::getTotalRevolutionCounter()
 .text._ZN12TriggerState5clearEv
                0x08011f10       0x80 build/obj/trigger_structure.o
                0x08011f10                TriggerState::clear()
 .text._ZN12TriggerStateC2Ev
                0x08011f90       0x80 build/obj/trigger_structure.o
                0x08011f90                TriggerState::TriggerState()
                0x08011f90                TriggerState::TriggerState()
 .text._ZNK12TriggerShape9getLengthEv
                0x08012010       0x20 build/obj/trigger_structure.o
                0x08012010                TriggerShape::getLength() const
 .text._ZNK12TriggerShape8getAngleEi
                0x08012030       0x70 build/obj/trigger_structure.o
                0x08012030                TriggerShape::getAngle(int) const
 .text._ZN12TriggerShape26calculateTriggerSynchPointEv
                0x080120a0      0x180 build/obj/trigger_structure.o
                0x080120a0                TriggerShape::calculateTriggerSynchPoint()
 .text._ZN12TriggerShape16getOperationModeEv
                0x08012220       0x10 build/obj/trigger_structure.o
                0x08012220                TriggerShape::getOperationMode()
 .text._ZN12TriggerShape8addEventEf15trigger_wheel_e15trigger_value_e
                0x08012230      0x2c0 build/obj/trigger_structure.o
                0x08012230                TriggerShape::addEvent(float, trigger_wheel_e, trigger_value_e)
 .text._ZN12TriggerShape8addEventEf15trigger_wheel_e15trigger_value_eff
                0x080124f0       0x30 build/obj/trigger_structure.o
                0x080124f0                TriggerShape::addEvent(float, trigger_wheel_e, trigger_value_e, float, float)
 .text._ZL14addAccordPair3P12TriggerShapef
                0x08012520       0x40 build/obj/trigger_structure.o
 .text._ZL13addAccordPairP12TriggerShapef
                0x08012560       0x40 build/obj/trigger_structure.o
 .text._ZN12multi_wave_s16checkSwitchTimesEi
                0x080125a0       0x10 build/obj/trigger_structure.o
                0x080125a0                multi_wave_s::checkSwitchTimes(int)
 .text._Z28setToothedWheelConfigurationP12TriggerShapeii16operation_mode_e
                0x080125b0       0x10 build/obj/trigger_structure.o
                0x080125b0                setToothedWheelConfiguration(TriggerShape*, int, int, operation_mode_e)
 .text._ZN12TriggerShape29setTriggerSynchronizationGap2Eff
                0x080125c0       0x20 build/obj/trigger_structure.o
                0x080125c0                TriggerShape::setTriggerSynchronizationGap2(float, float)
 .text._ZN12TriggerShape28setTriggerSynchronizationGapEf
                0x080125e0       0x30 build/obj/trigger_structure.o
                0x080125e0                TriggerShape::setTriggerSynchronizationGap(float)
 .text._Z25configureHondaAccordCDDipP12TriggerShape
                0x08012610      0x180 build/obj/trigger_structure.o
                0x08012610                configureHondaAccordCDDip(TriggerShape*)
 .text._Z22configureHondaAccordCDP12TriggerShapeb
                0x08012790      0x190 build/obj/trigger_structure.o
                0x08012790                configureHondaAccordCD(TriggerShape*, bool)
 .text._ZL11onFindIndexP12TriggerState
                0x08012920       0x10 build/obj/trigger_decoder.o
 .text._Z21isTriggerDecoderErrorv
                0x08012930       0x60 build/obj/trigger_decoder.o
                0x08012930                isTriggerDecoderError()
 .text._ZN12TriggerState18decodeTriggerEventE15trigger_event_ey
                0x08012990      0x400 build/obj/trigger_decoder.o
                0x08012990                TriggerState::decodeTriggerEvent(trigger_event_e, unsigned long long)
 .text._Z14getEngineCycle16operation_mode_e
                0x08012d90       0x20 build/obj/trigger_decoder.o
                0x08012d90                getEngineCycle(operation_mode_e)
 .text._Z28addSkippedToothTriggerEvents15trigger_wheel_eP12TriggerShapeiifffff
                0x08012db0      0x120 build/obj/trigger_decoder.o
                0x08012db0                addSkippedToothTriggerEvents(trigger_wheel_e, TriggerShape*, int, int, float, float, float, float, float)
 .text._Z37initializeSkippedToothTriggerShapeExtP12TriggerShapeii16operation_mode_e
                0x08012ed0       0xa0 build/obj/trigger_decoder.o
                0x08012ed0                initializeSkippedToothTriggerShapeExt(TriggerShape*, int, int, operation_mode_e)
 .text._ZN12TriggerShape22initializeTriggerShapeEP7Logging
                0x08012f70      0x250 build/obj/trigger_decoder.o
                0x08012f70                TriggerShape::initializeTriggerShape(Logging*)
 .text._ZN23TriggerStimulatorHelper8nextStepEP12TriggerStateP12TriggerShapeiPK16trigger_config_s
                0x080131c0      0x130 build/obj/trigger_decoder.o
                0x080131c0                TriggerStimulatorHelper::nextStep(TriggerState*, TriggerShape*, int, trigger_config_s const*)
 .text._Z25findTriggerZeroEventIndexP12TriggerShapePK16trigger_config_s
                0x080132f0      0x130 build/obj/trigger_decoder.o
                0x080132f0                findTriggerZeroEventIndex(TriggerShape*, trigger_config_s const*)
 .text._Z24initTriggerDecoderLoggerP7Logging
                0x08013420       0x10 build/obj/trigger_decoder.o
                0x08013420                initTriggerDecoderLogger(Logging*)
 .text._Z18initTriggerDecoderv
                0x08013430       0x30 build/obj/trigger_decoder.o
                0x08013430                initTriggerDecoder()
 .text._Z31configureFordAspireTriggerShapeP12TriggerShape
                0x08013460       0xd0 build/obj/trigger_mitsubishi.o
                0x08013460                configureFordAspireTriggerShape(TriggerShape*)
 .text._Z24initializeMitsubishi4g18P12TriggerShape
                0x08013530       0xf0 build/obj/trigger_mitsubishi.o
                0x08013530                initializeMitsubishi4g18(TriggerShape*)
 .text._Z19initTriggerEmulatorP7LoggingP6Engine
                0x08013620       0x90 build/obj/trigger_emulator.o
                0x08013620                initTriggerEmulator(Logging*, Engine*)
 .text._ZL9sendToPotP14Mcp42010Driverii
                0x080136b0       0x50 build/obj/poten.o
 .text._ZL12setPotValue1i
                0x08013700       0x10 build/obj/poten.o
 .text._Z16setPotResistanceP14Mcp42010Driverii
                0x08013710       0x60 build/obj/poten.o
                0x08013710                setPotResistance(Mcp42010Driver*, int, int)
 .text._ZL23setPotResistanceCommandii
                0x08013770       0x30 build/obj/poten.o
 .text._Z18initPotentiometersP7LoggingP21board_configuration_s
                0x080137a0       0xc0 build/obj/poten.o
                0x080137a0                initPotentiometers(Logging*, board_configuration_s*)
 .text._ZL23setSensorChartFrequencyi
                0x08013860       0x10 build/obj/sensor_chart.o
 .text._Z9scAddDataff
                0x08013870      0x100 build/obj/sensor_chart.o
                0x08013870                scAddData(float, float)
 .text._Z15initSensorChartv
                0x08013970       0x30 build/obj/sensor_chart.o
                0x08013970                initSensorChart()
 .text._Z18initEngineEmulatorP7LoggingP6Engine
                0x080139a0       0x30 build/obj/engine_emulator.o
                0x080139a0                initEngineEmulator(Logging*, Engine*)
 .text._ZL11printStatusv
                0x080139d0       0x50 build/obj/wave_chart.o
 .text._Z12setChartSizei
                0x08013a20       0x20 build/obj/wave_chart.o
                0x08013a20                setChartSize(int)
 .text._ZL14setChartActivei
                0x08013a40       0x30 build/obj/wave_chart.o
 .text._ZN9WaveChart14resetWaveChartEv
                0x08013a70       0x30 build/obj/wave_chart.o
                0x08013a70                WaveChart::resetWaveChart()
 .text._ZN9WaveChart19isStartedTooLongAgoEv
                0x08013aa0       0x60 build/obj/wave_chart.o
                0x08013aa0                WaveChart::isStartedTooLongAgo()
 .text._ZN9WaveChartC2Ev
                0x08013b00       0x20 build/obj/wave_chart.o
                0x08013b00                WaveChart::WaveChart()
                0x08013b00                WaveChart::WaveChart()
 .text._ZN9WaveChart4initEv
                0x08013b20       0x30 build/obj/wave_chart.o
                0x08013b20                WaveChart::init()
 .text._ZN9WaveChart12publishChartEv
                0x08013b50       0x50 build/obj/wave_chart.o
                0x08013b50                WaveChart::publishChart()
 .text._ZN9WaveChart18publishChartIfFullEv
                0x08013ba0       0x40 build/obj/wave_chart.o
                0x08013ba0                WaveChart::publishChartIfFull()
 .text._ZN9WaveChart18addWaveChartEvent3EPKcS1_
                0x08013be0      0x140 build/obj/wave_chart.o
                0x08013be0                WaveChart::addWaveChartEvent3(char const*, char const*)
 .text._Z22showWaveChartHistogramv
                0x08013d20       0x10 build/obj/wave_chart.o
                0x08013d20                showWaveChartHistogram()
 .text._Z13initWaveChartP9WaveChart
                0x08013d30       0x60 build/obj/wave_chart.o
                0x08013d30                initWaveChart(WaveChart*)
 .text._ZL18waAnaWidthCallbackP10WaveReader
                0x08013d90       0x50 build/obj/wave_analyzer.o
 .text._ZL8waThreadPv
                0x08013de0       0x30 build/obj/wave_analyzer.o
 .text._ZL17setWaveModeSilentii
                0x08013e10       0x20 build/obj/wave_analyzer.o
 .text._ZL8initWavePKci
                0x08013e30       0xc0 build/obj/wave_analyzer.o
 .text._ZL10reportWaveP7Loggingi.part.0
                0x08013ef0      0x2c0 build/obj/wave_analyzer.o
 .text._ZN10WaveReader11onFallEventEv
                0x080141b0       0x90 build/obj/wave_analyzer.o
                0x080141b0                WaveReader::onFallEvent()
 .text._ZL19waIcuPeriodCallbackP10WaveReader
                0x08014240       0x10 build/obj/wave_analyzer.o
 .text._Z9printWaveP7Logging
                0x08014250       0x30 build/obj/wave_analyzer.o
                0x08014250                printWave(Logging*)
 .text._Z16initWaveAnalyzerP7Logging
                0x08014280       0x70 build/obj/wave_analyzer.o
                0x08014280                initWaveAnalyzer(Logging*)
 .text._Z29setDefaultIatTimingCorrectionv
                0x080142f0       0x70 build/obj/advance_map.o
                0x080142f0                setDefaultIatTimingCorrection()
 .text._Z16prepareTimingMapv
                0x08014360       0x90 build/obj/advance_map.o
                0x08014360                prepareTimingMap()
 .text._ZN5Map3DILi16ELi16EE8getValueEff
                0x080143f0       0x50 build/obj/advance_map.o
                0x080143f0                Map3D<16, 16>::getValue(float, float)
 .text._Z10getAdvanceif
                0x08014440      0x1c0 build/obj/advance_map.o
                0x08014440                getAdvance(int, float)
 .text._ZL11setNewValueP14IdleValveStateimPKcf.isra.0
                0x08014600       0x60 build/obj/idle_controller.o
 .text._ZL11changeValueP14IdleValveStateiiPKcf
                0x08014660       0x70 build/obj/idle_controller.o
 .text._ZN14IdleValveStateC2Ev
                0x080146d0       0x20 build/obj/idle_controller.o
                0x080146d0                IdleValveState::IdleValveState()
                0x080146d0                IdleValveState::IdleValveState()
 .text._ZN14IdleValveState4initEv
                0x080146f0       0x40 build/obj/idle_controller.o
                0x080146f0                IdleValveState::init()
 .text._ZN14IdleValveState12setTargetRpmEi
                0x08014730       0x40 build/obj/idle_controller.o
                0x08014730                IdleValveState::setTargetRpm(int)
 .text._ZN14IdleValveState7getIdleEim
                0x08014770      0x120 build/obj/idle_controller.o
                0x08014770                IdleValveState::getIdle(int, unsigned long)
 .text._Z16getTiming_mode_e13timing_mode_e
                0x08014890       0x40 build/obj/auto_generated_enums.o
                0x08014890                getTiming_mode_e(timing_mode_e)
 .text._Z17getTrigger_type_e14trigger_type_e
                0x080148d0      0x170 build/obj/auto_generated_enums.o
                0x080148d0                getTrigger_type_e(trigger_type_e)
 .text._Z21getEngine_load_mode_e18engine_load_mode_e
                0x08014a40       0x60 build/obj/auto_generated_enums.o
                0x08014a40                getEngine_load_mode_e(engine_load_mode_e)
 .text._Z14getIdle_mode_e11idle_mode_e
                0x08014aa0       0x40 build/obj/auto_generated_enums.o
                0x08014aa0                getIdle_mode_e(idle_mode_e)
 .text._Z20getPin_output_mode_e17pin_output_mode_e
                0x08014ae0       0x60 build/obj/auto_generated_enums.o
                0x08014ae0                getPin_output_mode_e(pin_output_mode_e)
 .text._Z18getIgnition_mode_e15ignition_mode_e
                0x08014b40       0x50 build/obj/auto_generated_enums.o
                0x08014b40                getIgnition_mode_e(ignition_mode_e)
 .text._Z19getInjection_mode_e16injection_mode_e
                0x08014b90       0x50 build/obj/auto_generated_enums.o
                0x08014b90                getInjection_mode_e(injection_mode_e)
 .text._Z29getAir_pressure_sensor_type_e26air_pressure_sensor_type_e
                0x08014be0       0x80 build/obj/auto_generated_enums.o
                0x08014be0                getAir_pressure_sensor_type_e(air_pressure_sensor_type_e)
 .text._ZL21getNumberOfInjections16injection_mode_e
                0x08014c60       0x50 build/obj/fuel_math.o
 .text._Z20getInjectorDutyCyclei
                0x08014cb0       0x10 build/obj/fuel_math.o
                0x08014cb0                getInjectorDutyCycle(int)
 .text._Z14getRunningFuelfi
                0x08014cc0       0x20 build/obj/fuel_math.o
                0x08014cc0                getRunningFuel(float, int)
 .text._Z14getInjectorLagf
                0x08014ce0       0x70 build/obj/fuel_math.o
                0x08014ce0                getInjectorLag(float)
 .text._Z14prepareFuelMapv
                0x08014d50       0x90 build/obj/fuel_math.o
                0x08014d50                prepareFuelMap()
 .text._Z16getCltCorrectionf
                0x08014de0       0x40 build/obj/fuel_math.o
                0x08014de0                getCltCorrection(float)
 .text._Z16getIatCorrectionf
                0x08014e20       0x40 build/obj/fuel_math.o
                0x08014e20                getIatCorrection(float)
 .text._Z17getBaroCorrectionv
                0x08014e60       0x80 build/obj/fuel_math.o
                0x08014e60                getBaroCorrection()
 .text._Z16getCrankingFuel3fm
                0x08014ee0       0x80 build/obj/fuel_math.o
                0x08014ee0                getCrankingFuel3(float, unsigned long)
 .text._Z15getCrankingFuelv
                0x08014f60       0x30 build/obj/fuel_math.o
                0x08014f60                getCrankingFuel()
 .text._Z14getRealMafFuelfi
                0x08014f90       0x90 build/obj/fuel_math.o
                0x08014f90                getRealMafFuel(float, int)
 .text._Z11getBaseFueli
                0x08015020       0xa0 build/obj/fuel_math.o
                0x08015020                getBaseFuel(int)
 .text._Z9getFuelMsi
                0x080150c0       0xa0 build/obj/fuel_math.o
                0x080150c0                getFuelMs(int)
 .text._Z18getinjectionOffseti
                0x08015160       0x30 build/obj/fuel_math.o
                0x08015160                getinjectionOffset(int)
 .text._Z16getBaseTableFuelP22engine_configuration_sif
                0x08015190       0x50 build/obj/fuel_math.o
                0x08015190                getBaseTableFuel(engine_configuration_s*, int, float)
 .text._ZL9accelInfov
                0x080151e0       0xc0 build/obj/accel_enrichment.o
 .text._ZL12setDecelMultf
                0x080152a0       0x20 build/obj/accel_enrichment.o
 .text._ZL11setDecelThrf
                0x080152c0       0x20 build/obj/accel_enrichment.o
 .text._ZL15setMapAccelMultf
                0x080152e0       0x20 build/obj/accel_enrichment.o
 .text._ZL14setMapAccelThrf
                0x08015300       0x20 build/obj/accel_enrichment.o
 .text._ZL15setTpsAccelMultf
                0x08015320       0x20 build/obj/accel_enrichment.o
 .text._ZL14setTpsAccelThrf
                0x08015340       0x20 build/obj/accel_enrichment.o
 .text._ZL14setMapAccelLeni
                0x08015360       0x60 build/obj/accel_enrichment.o
 .text._ZL14setTpsAccelLeni
                0x080153c0       0x60 build/obj/accel_enrichment.o
 .text._ZN16AccelEnrichmemnt8getDeltaEv
                0x08015420       0x60 build/obj/accel_enrichment.o
                0x08015420                AccelEnrichmemnt::getDelta()
 .text._ZN16AccelEnrichmemnt16getTpsEnrichmentEv
                0x08015480       0x90 build/obj/accel_enrichment.o
                0x08015480                AccelEnrichmemnt::getTpsEnrichment()
 .text._ZN16AccelEnrichmemnt16getMapEnrichmentEv
                0x08015510       0x90 build/obj/accel_enrichment.o
                0x08015510                AccelEnrichmemnt::getMapEnrichment()
 .text._ZN16AccelEnrichmemnt5resetEv
                0x080155a0       0x10 build/obj/accel_enrichment.o
                0x080155a0                AccelEnrichmemnt::reset()
 .text._ZN16AccelEnrichmemnt10onNewValueEf
                0x080155b0       0x80 build/obj/accel_enrichment.o
                0x080155b0                AccelEnrichmemnt::onNewValue(float)
 .text._ZN16AccelEnrichmemnt16onEngineCycleTpsEv
                0x08015630       0x20 build/obj/accel_enrichment.o
                0x08015630                AccelEnrichmemnt::onEngineCycleTps()
 .text._ZN16AccelEnrichmemnt13onEngineCycleEv
                0x08015650       0x20 build/obj/accel_enrichment.o
                0x08015650                AccelEnrichmemnt::onEngineCycle()
 .text._ZN16AccelEnrichmemntC2Ev
                0x08015670       0x60 build/obj/accel_enrichment.o
                0x08015670                AccelEnrichmemnt::AccelEnrichmemnt()
                0x08015670                AccelEnrichmemnt::AccelEnrichmemnt()
 .text._Z19initAccelEnrichmentP7Logging
                0x080156d0       0xe0 build/obj/accel_enrichment.o
                0x080156d0                initAccelEnrichment(Logging*)
 .text._Z29getGlobalConfigurationVersionv
                0x080157b0       0x10 build/obj/engine_configuration.o
                0x080157b0                getGlobalConfigurationVersion()
 .text._Z35incrementGlobalConfigurationVersionv
                0x080157c0       0x10 build/obj/engine_configuration.o
                0x080157c0                incrementGlobalConfigurationVersion()
 .text._Z16setConstantDwellf
                0x080157d0       0x30 build/obj/engine_configuration.o
                0x080157d0                setConstantDwell(float)
 .text._Z6setMapPA16_ff
                0x08015800       0x20 build/obj/engine_configuration.o
                0x08015800                setMap(float (*) [16], float)
 .text._Z15setWholeFuelMapf
                0x08015820       0x30 build/obj/engine_configuration.o
                0x08015820                setWholeFuelMap(float)
 .text._Z20setFuelTablesLoadBinff
                0x08015850       0x60 build/obj/engine_configuration.o
                0x08015850                setFuelTablesLoadBin(float, float)
 .text._Z26setWholeIatCorrTimingTablef
                0x080158b0       0x30 build/obj/engine_configuration.o
                0x080158b0                setWholeIatCorrTimingTable(float)
 .text._Z19setWholeTimingTablef
                0x080158e0       0x30 build/obj/engine_configuration.o
                0x080158e0                setWholeTimingTable(float)
 .text._Z24prepareVoidConfigurationP22engine_configuration_s
                0x08015910       0xc0 build/obj/engine_configuration.o
                0x08015910                prepareVoidConfiguration(engine_configuration_s*)
 .text._Z23setDefaultConfigurationv
                0x080159d0      0xb90 build/obj/engine_configuration.o
                0x080159d0                setDefaultConfiguration()
 .text._ZN23engine_configuration2_sC2Ev
                0x08016560       0x60 build/obj/engine_configuration.o
                0x08016560                engine_configuration2_s::engine_configuration2_s()
                0x08016560                engine_configuration2_s::engine_configuration2_s()
 .text._Z31applyNonPersistentConfigurationP7Logging
                0x080165c0       0x80 build/obj/engine_configuration.o
                0x080165c0                applyNonPersistentConfiguration(Logging*)
 .text._Z21resetConfigurationExtP7Logging13engine_type_e
                0x08016640      0x150 build/obj/engine_configuration.o
                0x08016640                resetConfigurationExt(Logging*, engine_type_e)
 .text._Z13prepareShapesv
                0x08016790       0x30 build/obj/engine_configuration.o
                0x08016790                prepareShapes()
 .text._Z16getRpmMultiplier16operation_mode_e
                0x080167c0       0x20 build/obj/engine_configuration.o
                0x080167c0                getRpmMultiplier(operation_mode_e)
 .text._Z16setOperationModeP22engine_configuration_s16operation_mode_e
                0x080167e0       0x10 build/obj/engine_configuration.o
                0x080167e0                setOperationMode(engine_configuration_s*, operation_mode_e)
 .text._Z27commonFrankensoAnalogInputsP22engine_configuration_s
                0x080167f0       0x10 build/obj/engine_configuration.o
                0x080167f0                commonFrankensoAnalogInputs(engine_configuration_s*)
 .text._Z24setFrankenso0_1_joystickP22engine_configuration_s
                0x08016800       0x30 build/obj/engine_configuration.o
                0x08016800                setFrankenso0_1_joystick(engine_configuration_s*)
 .text._Z13copyFuelTablePA16_KfPA16_f
                0x08016830       0x30 build/obj/engine_configuration.o
                0x08016830                copyFuelTable(float const (*) [16], float (*) [16])
 .text._Z15copyTimingTablePA16_KfPA16_f
                0x08016860       0x30 build/obj/engine_configuration.o
                0x08016860                copyTimingTable(float const (*) [16], float (*) [16])
 .text._ZL7stopPinP14NamedOutputPin
                0x08016890       0x40 build/obj/engine.o
 .text._ZN6Engine17updateSlowSensorsEv
                0x080168d0       0x80 build/obj/engine.o
                0x080168d0                Engine::updateSlowSensors()
 .text._ZN6Engine14onTriggerEventEy
                0x08016950       0x20 build/obj/engine.o
                0x08016950                Engine::onTriggerEvent(unsigned long long)
 .text._ZN6Engine24addConfigurationListenerEPFvPS_E
                0x08016970       0x20 build/obj/engine.o
                0x08016970                Engine::addConfigurationListener(void (*)(Engine*))
 .text._ZN6EngineC2EP19persistent_config_s
                0x08016990      0x110 build/obj/engine.o
                0x08016990                Engine::Engine(persistent_config_s*)
                0x08016990                Engine::Engine(persistent_config_s*)
 .text._ZN6Engine12preCalculateEv
                0x08016aa0       0xe0 build/obj/engine.o
                0x08016aa0                Engine::preCalculate()
 .text._ZL24invokeEnginePreCalculateP6Engine
                0x08016b80       0x10 build/obj/engine.o
 .text._ZN6Engine4initEv
                0x08016b90       0x10 build/obj/engine.o
                0x08016b90                Engine::init()
 .text._ZN6Engine8stopPinsEv
                0x08016ba0       0x50 build/obj/engine.o
                0x08016ba0                Engine::stopPins()
 .text._ZN6Engine15printKnockStateEv
                0x08016bf0       0x40 build/obj/engine.o
                0x08016bf0                Engine::printKnockState()
 .text._ZN6Engine10knockLogicEf
                0x08016c30       0x80 build/obj/engine.o
                0x08016c30                Engine::knockLogic(float)
 .text._ZN6Engine8watchdogEv
                0x08016cb0       0x90 build/obj/engine.o
                0x08016cb0                Engine::watchdog()
 .text._ZN6Engine20periodicFastCallbackEv
                0x08016d40      0x160 build/obj/engine.o
                0x08016d40                Engine::periodicFastCallback()
 .text._ZN8MenuTreeC2EP8MenuItem
                0x08016ea0       0x10 build/obj/lcd_menu_tree.o
                0x08016ea0                MenuTree::MenuTree(MenuItem*)
                0x08016ea0                MenuTree::MenuTree(MenuItem*)
 .text._ZN8MenuTree4initEP8MenuItemi
                0x08016eb0       0x10 build/obj/lcd_menu_tree.o
                0x08016eb0                MenuTree::init(MenuItem*, int)
 .text._ZN8MenuTree12enterSubMenuEv
                0x08016ec0       0x20 build/obj/lcd_menu_tree.o
                0x08016ec0                MenuTree::enterSubMenu()
 .text._ZN8MenuTree4backEv
                0x08016ee0       0x20 build/obj/lcd_menu_tree.o
                0x08016ee0                MenuTree::back()
 .text._ZN8MenuTree8nextItemEv
                0x08016f00       0x30 build/obj/lcd_menu_tree.o
                0x08016f00                MenuTree::nextItem()
 .text._ZN8MenuItem15baseConstructorEPS_10lcd_line_ePKcPFvvE
                0x08016f30       0x40 build/obj/lcd_menu_tree.o
                0x08016f30                MenuItem::baseConstructor(MenuItem*, lcd_line_e, char const*, void (*)())
 .text._ZN8MenuItemC2EPS_PKcPFvvE
                0x08016f70       0x20 build/obj/lcd_menu_tree.o
                0x08016f70                MenuItem::MenuItem(MenuItem*, char const*, void (*)())
                0x08016f70                MenuItem::MenuItem(MenuItem*, char const*, void (*)())
 .text._ZN8MenuItemC2EPS_PKc
                0x08016f90       0x20 build/obj/lcd_menu_tree.o
                0x08016f90                MenuItem::MenuItem(MenuItem*, char const*)
                0x08016f90                MenuItem::MenuItem(MenuItem*, char const*)
 .text._ZN8MenuItemC2EPS_10lcd_line_e
                0x08016fb0       0x20 build/obj/lcd_menu_tree.o
                0x08016fb0                MenuItem::MenuItem(MenuItem*, lcd_line_e)
                0x08016fb0                MenuItem::MenuItem(MenuItem*, lcd_line_e)
 .text._ZN14InjectionEventC2Ev
                0x08016fd0       0x40 build/obj/event_registry.o
                0x08016fd0                InjectionEvent::InjectionEvent()
                0x08016fd0                InjectionEvent::InjectionEvent()
 .text._ZN13IgnitionEventC2Ev
                0x08017010       0x40 build/obj/event_registry.o
                0x08017010                IgnitionEvent::IgnitionEvent()
                0x08017010                IgnitionEvent::IgnitionEvent()
 .text._Z18initDataStructuresv
                0x08017050       0x20 build/obj/algo.o
                0x08017050                initDataStructures()
 .text._Z8initAlgoP7LoggingP22engine_configuration_s
                0x08017070       0x10 build/obj/algo.o
                0x08017070                initAlgo(Logging*, engine_configuration_s*)
 .text._Z11turnPinHighP14NamedOutputPin
                0x08017080       0xa0 build/obj/signal_executor.o
                0x08017080                turnPinHigh(NamedOutputPin*)
 .text._Z10turnPinLowP14NamedOutputPin
                0x08017120       0xa0 build/obj/signal_executor.o
                0x08017120                turnPinLow(NamedOutputPin*)
 .text._Z18initSignalExecutorv
                0x080171c0       0x50 build/obj/signal_executor.o
                0x080171c0                initSignalExecutor()
 .text._Z14scheduleOutputP19OutputSignal_structyff
                0x08017210      0x120 build/obj/signal_executor.o
                0x08017210                scheduleOutput(OutputSignal_struct*, unsigned long long, float, float)
 .text._ZN9PwmConfig15baseConstructorEv
                0x08017330       0x60 build/obj/pwm_generator_logic.o
                0x08017330                PwmConfig::baseConstructor()
 .text._ZN9PwmConfigC2Ev
                0x08017390       0x20 build/obj/pwm_generator_logic.o
                0x08017390                PwmConfig::PwmConfig()
                0x08017390                PwmConfig::PwmConfig()
 .text._ZN9SimplePwmC2Ev
                0x080173b0       0x40 build/obj/pwm_generator_logic.o
                0x080173b0                SimplePwm::SimplePwm()
                0x080173b0                SimplePwm::SimplePwm()
 .text._ZN9PwmConfigC2EPfP13single_wave_s
                0x080173f0       0x30 build/obj/pwm_generator_logic.o
                0x080173f0                PwmConfig::PwmConfig(float*, single_wave_s*)
                0x080173f0                PwmConfig::PwmConfig(float*, single_wave_s*)
 .text._ZN9SimplePwm21setSimplePwmDutyCycleEf
                0x08017420       0x10 build/obj/pwm_generator_logic.o
                0x08017420                SimplePwm::setSimplePwmDutyCycle(float)
 .text._ZN9PwmConfig16handleCycleStartEv
                0x08017430       0x60 build/obj/pwm_generator_logic.o
                0x08017430                PwmConfig::handleCycleStart()
 .text._ZL13timerCallbackP9PwmConfig
                0x08017490      0x100 build/obj/pwm_generator_logic.o
 .text._Z17copyPwmParametersP9PwmConfigiPfiPPa
                0x08017590       0x60 build/obj/pwm_generator_logic.o
                0x08017590                copyPwmParameters(PwmConfig*, int, float*, int, signed char**)
 .text._ZN9PwmConfig13weComplexInitEPKciPfiPPaPFvPS_EPFvS5_iE
                0x080175f0       0xd0 build/obj/pwm_generator_logic.o
                0x080175f0                PwmConfig::weComplexInit(char const*, int, float*, int, signed char**, void (*)(PwmConfig*), void (*)(PwmConfig*, int))
 .text._ZN12scheduling_sC2Ev
                0x080176c0       0x20 build/obj/event_queue.o
                0x080176c0                scheduling_s::scheduling_s()
                0x080176c0                scheduling_s::scheduling_s()
 .text._ZN10EventQueueC2Ev
                0x080176e0       0x20 build/obj/event_queue.o
                0x080176e0                EventQueue::EventQueue()
                0x080176e0                EventQueue::EventQueue()
 .text._ZN10EventQueue10insertTaskEP12scheduling_syPFvPvES2_
                0x08017700       0x70 build/obj/event_queue.o
                0x08017700                EventQueue::insertTask(scheduling_s*, unsigned long long, void (*)(void*), void*)
 .text._ZN10EventQueue16getNextEventTimeEy
                0x08017770       0x40 build/obj/event_queue.o
                0x08017770                EventQueue::getNextEventTime(unsigned long long)
 .text._ZN10EventQueue10executeAllEy
                0x080177b0      0x130 build/obj/event_queue.o
                0x080177b0                EventQueue::executeAll(unsigned long long)
 .text._ZN10EventQueue12setLateDelayEi
                0x080178e0       0x10 build/obj/event_queue.o
                0x080178e0                EventQueue::setLateDelay(int)
 .text._ZN14NamedOutputPinC2EPKc
                0x080178f0       0x20 build/obj/efiGpio.o
                0x080178f0                NamedOutputPin::NamedOutputPin(char const*)
                0x080178f0                NamedOutputPin::NamedOutputPin(char const*)
 .text._ZN9OutputPinC2Ev
                0x08017910       0x20 build/obj/efiGpio.o
                0x08017910                OutputPin::OutputPin()
                0x08017910                OutputPin::OutputPin()
 .text._ZN9OutputPin13isInitializedEv
                0x08017930       0x10 build/obj/efiGpio.o
                0x08017930                OutputPin::isInitialized()
 .text._ZN9OutputPin8setValueEi
                0x08017940       0x70 build/obj/efiGpio.o
                0x08017940                OutputPin::setValue(int)
 .text._ZN9OutputPin13getLogicValueEv
                0x080179b0       0x10 build/obj/efiGpio.o
                0x080179b0                OutputPin::getLogicValue()
 .text._ZN9OutputPin10unregisterEv
                0x080179c0       0x10 build/obj/efiGpio.o
                0x080179c0                OutputPin::unregister()
 .text._ZN9OutputPin18setDefaultPinStateEP17pin_output_mode_e
                0x080179d0       0x20 build/obj/efiGpio.o
                0x080179d0                OutputPin::setDefaultPinState(pin_output_mode_e*)
 .text._ZN8ExecutorC2Ev
                0x080179f0       0x20 build/obj/SingleTimerExecutor.o
                0x080179f0                Executor::Executor()
                0x080179f0                Executor::Executor()
 .text._ZN8Executor9doExecuteEv
                0x08017a10       0x50 build/obj/SingleTimerExecutor.o
                0x08017a10                Executor::doExecute()
 .text._ZN8Executor21scheduleTimerCallbackEv
                0x08017a60       0x90 build/obj/SingleTimerExecutor.o
                0x08017a60                Executor::scheduleTimerCallback()
 .text._ZN8Executor14scheduleByTimeEP12scheduling_syPFvPvES2_
                0x08017af0       0x60 build/obj/SingleTimerExecutor.o
                0x08017af0                Executor::scheduleByTime(scheduling_s*, unsigned long long, void (*)(void*), void*)
 .text._ZN8Executor15onTimerCallbackEv
                0x08017b50       0x20 build/obj/SingleTimerExecutor.o
                0x08017b50                Executor::onTimerCallback()
 .text._ZL16executorCallbackPv
                0x08017b70       0x40 build/obj/SingleTimerExecutor.o
 .text._Z12scheduleTaskPKcP12scheduling_siPFvPvES3_
                0x08017bb0       0x30 build/obj/SingleTimerExecutor.o
                0x08017bb0                scheduleTask(char const*, scheduling_s*, int, void (*)(void*), void*)
 .text._Z14scheduleByTimePKcP12scheduling_syPFvPvES3_
                0x08017be0       0x20 build/obj/SingleTimerExecutor.o
                0x08017be0                scheduleByTime(char const*, scheduling_s*, unsigned long long, void (*)(void*), void*)
 .text._Z22initSignalExecutorImplv
                0x08017c00       0x20 build/obj/SingleTimerExecutor.o
                0x08017c00                initSignalExecutorImpl()
 .text._Z32setFordAspireEngineConfigurationv
                0x08017c20      0x1b0 build/obj/ford_aspire.o
                0x08017c20                setFordAspireEngineConfiguration()
 .text._Z28setCustomEngineConfigurationv
                0x08017dd0       0xe0 build/obj/custom_engine.o
                0x08017dd0                setCustomEngineConfiguration()
 .text._Z16setMiniCooperR50P22engine_configuration_s
                0x08017eb0       0x10 build/obj/MiniCooperR50.o
                0x08017eb0                setMiniCooperR50(engine_configuration_s*)
 .text._Z11setAcuraRSXP22engine_configuration_s
                0x08017ec0       0x20 build/obj/acura_rsx.o
                0x08017ec0                setAcuraRSX(engine_configuration_s*)
 .text._Z9setBmwE34v
                0x08017ee0      0x2a0 build/obj/bmw_e34.o
                0x08017ee0                setBmwE34()
 .text._ZL13commonMiataNav
                0x08018180       0xd0 build/obj/mazda_miata.o
 .text._ZL19setMiata1994_commonv
                0x08018250       0xc0 build/obj/mazda_miata.o
 .text._Z12setMiata1990v
                0x08018310       0x70 build/obj/mazda_miata.o
                0x08018310                setMiata1990()
 .text._Z15setFordEscortGtv
                0x08018380      0x210 build/obj/mazda_miata.o
                0x08018380                setFordEscortGt()
 .text._Z14setMiata1994_dv
                0x08018590       0x40 build/obj/mazda_miata.o
                0x08018590                setMiata1994_d()
 .text._Z14setMiata1994_sv
                0x080185d0       0xe0 build/obj/mazda_miata.o
                0x080185d0                setMiata1994_s()
 .text._Z12setMiata1996v
                0x080186b0       0xd0 build/obj/mazda_miata.o
                0x080186b0                setMiata1996()
 .text._Z36setCitroenBerlingoTU3JPConfigurationv
                0x08018780      0x250 build/obj/citroenBerlingoTU3JP.o
                0x08018780                setCitroenBerlingoTU3JPConfiguration()
 .text._Z35setDodgeNeon1995EngineConfigurationv
                0x080189d0      0x140 build/obj/dodge_neon.o
                0x080189d0                setDodgeNeon1995EngineConfiguration()
 .text._Z34setDodgeNeonNGCEngineConfigurationv
                0x08018b10      0x2e0 build/obj/dodge_neon.o
                0x08018b10                setDodgeNeonNGCEngineConfiguration()
 .text._Z39setFordFiestaDefaultEngineConfigurationP22engine_configuration_s
                0x08018df0       0x40 build/obj/ford_fiesta.o
                0x08018df0                setFordFiestaDefaultEngineConfiguration(engine_configuration_s*)
 .text._Z14setFordInline6v
                0x08018e30      0x1b0 build/obj/ford_1995_inline_6.o
                0x08018e30                setFordInline6()
 .text._Z35setNissanPrimeraEngineConfigurationP22engine_configuration_s
                0x08018fe0       0x10 build/obj/nissan_primera.o
                0x08018fe0                setNissanPrimeraEngineConfiguration(engine_configuration_s*)
 .text._Z34setMazdaMiataNbEngineConfigurationv
                0x08018ff0      0x180 build/obj/mazda_miata_nb.o
                0x08018ff0                setMazdaMiataNbEngineConfiguration()
 .text._ZL33setHondaAccordConfigurationCommonv
                0x08019170      0x170 build/obj/honda_accord.o
 .text._Z19setFrankenso_01_LCDP21board_configuration_s
                0x080192e0       0x30 build/obj/honda_accord.o
                0x080192e0                setFrankenso_01_LCD(board_configuration_s*)
 .text._Z35setHondaAccordConfigurationTwoWiresv
                0x08019310       0x20 build/obj/honda_accord.o
                0x08019310                setHondaAccordConfigurationTwoWires()
 .text._Z37setHondaAccordConfigurationThreeWiresv
                0x08019330       0x20 build/obj/honda_accord.o
                0x08019330                setHondaAccordConfigurationThreeWires()
 .text._Z30setHondaAccordConfigurationDipv
                0x08019350       0x20 build/obj/honda_accord.o
                0x08019350                setHondaAccordConfigurationDip()
 .text._Z16setSubaru2003Wrxv
                0x08019370       0x40 build/obj/subaru.o
                0x08019370                setSubaru2003Wrx()
 .text._Z38setGy6139qmbDefaultEngineConfigurationv
                0x080193b0       0xf0 build/obj/GY6_139QMB.o
                0x080193b0                setGy6139qmbDefaultEngineConfiguration()
 .text._Z22setFrankenstein_01_LCDP21board_configuration_s
                0x080194a0       0x30 build/obj/rover_v8.o
                0x080194a0                setFrankenstein_01_LCD(board_configuration_s*)
 .text._Z10setRoverv8v
                0x080194d0       0xd0 build/obj/rover_v8.o
                0x080194d0                setRoverv8()
 .text._Z30setMazda323EngineConfigurationP22engine_configuration_s
                0x080195a0       0x20 build/obj/mazda_323.o
                0x080195a0                setMazda323EngineConfiguration(engine_configuration_s*)
 .text._Z30setMazda626EngineConfigurationv
                0x080195c0      0x150 build/obj/mazda_626.o
                0x080195c0                setMazda626EngineConfiguration()
 .text.setSaturnIonEngineConfiguration
                0x08019710       0x10 build/obj/saturn_ion.o
                0x08019710                setSaturnIonEngineConfiguration
 .text._Z8setSachsv
                0x08019720      0x160 build/obj/sachs.o
                0x08019720                setSachs()
 .text._Z26setTestEngineConfigurationv
                0x08019880       0xa0 build/obj/test_engine.o
                0x08019880                setTestEngineConfiguration()
 .text._Z26setMitsubishiConfigurationv
                0x08019920      0x100 build/obj/mitsubishi.o
                0x08019920                setMitsubishiConfiguration()
 .text._Z8setGm2_2v
                0x08019a20       0x40 build/obj/gm_2_2.o
                0x08019a20                setGm2_2()
 .text._Z15setDodgeRam1996v
                0x08019a60      0x170 build/obj/dodge_ram.o
                0x08019a60                setDodgeRam1996()
 .text._Z8setVwAbav
                0x08019bd0       0x70 build/obj/vw.o
                0x08019bd0                setVwAba()
 .text._ZL7canInfov
                0x08019c40       0xc0 build/obj/can_hw.o
 .text._Z8setTxBitii
                0x08019d00       0x20 build/obj/can_hw.o
                0x08019d00                setTxBit(int, int)
 .text._Z12commonTxIniti
                0x08019d20       0x30 build/obj/can_hw.o
                0x08019d20                commonTxInit(int)
 .text._Z12sendMessage2i
                0x08019d50       0x50 build/obj/can_hw.o
                0x08019d50                sendMessage2(int)
 .text._ZL9canThreadPv
                0x08019da0      0x480 build/obj/can_hw.o
 .text._Z11sendMessagev
                0x0801a220       0x10 build/obj/can_hw.o
                0x0801a220                sendMessage()
 .text._Z7initCanv
                0x0801a230       0xd0 build/obj/can_hw.o
                0x0801a230                initCan()
 .text._ZL13readEgtPacketi
                0x0801a300       0x60 build/obj/max31855.o
 .text._ZL11showEgtInfov
                0x0801a360       0x60 build/obj/max31855.o
 .text._ZL13getResultCodem
                0x0801a3c0       0x30 build/obj/max31855.o
 .text._ZL7egtReadv
                0x0801a3f0       0xe0 build/obj/max31855.o
 .text._Z11getEgtValuei
                0x0801a4d0       0x20 build/obj/max31855.o
                0x0801a4d0                getEgtValue(int)
 .text._Z12initMax31855P7LoggingP9SPIDriverP11brain_pin_e
                0x0801a4f0       0x70 build/obj/max31855.o
                0x0801a4f0                initMax31855(Logging*, SPIDriver*, brain_pin_e*)
 .text._ZL12getPortIndexP12GPIO_TypeDef
                0x0801a560       0x90 build/obj/pin_repository.o
 .text.chprintf.constprop.1
                0x0801a5f0       0x30 build/obj/pin_repository.o
 .text._Z8portnameP12GPIO_TypeDef
                0x0801a620       0xb0 build/obj/pin_repository.o
                0x0801a620                portname(GPIO_TypeDef*)
 .text._ZL10reportPinsv
                0x0801a6d0       0x70 build/obj/pin_repository.o
 .text._Z13parseBrainPinPKc
                0x0801a740       0x50 build/obj/pin_repository.o
                0x0801a740                parseBrainPin(char const*)
 .text._Z10hwPortname11brain_pin_e
                0x0801a790       0x60 build/obj/pin_repository.o
                0x0801a790                hwPortname(brain_pin_e)
 .text._Z17initPinRepositoryv
                0x0801a7f0       0x60 build/obj/pin_repository.o
                0x0801a7f0                initPinRepository()
 .text._Z12getInputMode16pin_input_mode_e
                0x0801a850       0x20 build/obj/pin_repository.o
                0x0801a850                getInputMode(pin_input_mode_e)
 .text._Z14getPinFunction11brain_pin_e
                0x0801a870       0x30 build/obj/pin_repository.o
                0x0801a870                getPinFunction(brain_pin_e)
 .text._Z12mySetPadModePKcP12GPIO_TypeDefmm
                0x0801a8a0       0xf0 build/obj/pin_repository.o
                0x0801a8a0                mySetPadMode(char const*, GPIO_TypeDef*, unsigned long, unsigned long)
 .text._Z13mySetPadMode2PKc11brain_pin_em
                0x0801a990       0x30 build/obj/pin_repository.o
                0x0801a990                mySetPadMode2(char const*, brain_pin_e, unsigned long)
 .text._Z9unmarkPin11brain_pin_e
                0x0801a9c0       0x40 build/obj/pin_repository.o
                0x0801a9c0                unmarkPin(brain_pin_e)
 .text._Z11efiIcuStartP9ICUDriverPK9ICUConfig
                0x0801aa00       0x20 build/obj/pin_repository.o
                0x0801aa00                efiIcuStart(ICUDriver*, ICUConfig const*)
 .text._ZL8callbackP9GPTDriver
                0x0801aa20       0x40 build/obj/microsecond_timer.o
 .text._ZL8mwThreadi
                0x0801aa60       0xe0 build/obj/microsecond_timer.o
 .text.setHardwareUsTimer
                0x0801ab40       0xa0 build/obj/microsecond_timer.o
                0x0801ab40                setHardwareUsTimer
 .text.initMicrosecondTimer
                0x0801abe0       0x50 build/obj/microsecond_timer.o
                0x0801abe0                initMicrosecondTimer
 .text._ZL16icuWidthCallbackP9ICUDriver
                0x0801ac30       0x60 build/obj/digital_input_hw.o
 .text._ZL18icuPeriordCallBackP9ICUDriver
                0x0801ac90       0x60 build/obj/digital_input_hw.o
 .text._Z21getInputCaptureDriver11brain_pin_e
                0x0801acf0       0x50 build/obj/digital_input_hw.o
                0x0801acf0                getInputCaptureDriver(brain_pin_e)
 .text._Z16turnOnCapturePinPKc11brain_pin_e
                0x0801ad40       0x90 build/obj/digital_input_hw.o
                0x0801ad40                turnOnCapturePin(char const*, brain_pin_e)
 .text._Z22initWaveAnalyzerDriverPKc11brain_pin_e
                0x0801add0       0x50 build/obj/digital_input_hw.o
                0x0801add0                initWaveAnalyzerDriver(char const*, brain_pin_e)
 .text._Z16startInputDriverP15digital_input_sb
                0x0801ae20       0x50 build/obj/digital_input_hw.o
                0x0801ae20                startInputDriver(digital_input_s*, bool)
 .text._ZL11sendI2Cbyteii
                0x0801ae70       0x10 build/obj/hardware.o
 .text._ZL18calcFastAdcIndexesv
                0x0801ae80       0x80 build/obj/hardware.o
 .text._ZL17adcConfigListenerP6Engine
                0x0801af00       0x10 build/obj/hardware.o
 .text._Z7lockSpi12spi_device_e
                0x0801af10       0x10 build/obj/hardware.o
                0x0801af10                lockSpi(spi_device_e)
 .text._Z9unlockSpiv
                0x0801af20       0x10 build/obj/hardware.o
                0x0801af20                unlockSpi()
 .text._Z12getSpiDevice12spi_device_e
                0x0801af30       0x40 build/obj/hardware.o
                0x0801af30                getSpiDevice(spi_device_e)
 .text._Z17adc_callback_fastP9ADCDriverPtj
                0x0801af70       0xb0 build/obj/hardware.o
                0x0801af70                adc_callback_fast(ADCDriver*, unsigned short*, unsigned int)
 .text._Z24applyNewHardwareSettingsv
                0x0801b020       0x20 build/obj/hardware.o
                0x0801b020                applyNewHardwareSettings()
 .text._Z12initHardwareP7Logging
                0x0801b040      0x1c0 build/obj/hardware.o
                0x0801b040                initHardware(Logging*)
 .text._ZL12printGpsInfov
                0x0801b200       0xf0 build/obj/neo6m.o
 .text._ZL19GpsThreadEntryPointPv
                0x0801b2f0       0xe0 build/obj/neo6m.o
 .text.initGps  0x0801b3d0       0xa0 build/obj/neo6m.o
                0x0801b3d0                initGps
 .text._ZL14incLogFileNamev
                0x0801b470      0x150 build/obj/mmc_card.o
 .text._ZL13listDirectoryPKc
                0x0801b5c0      0x100 build/obj/mmc_card.o
 .text._ZL12sdStatisticsv
                0x0801b6c0       0x90 build/obj/mmc_card.o
 .text.appendToLog
                0x0801b750       0xb0 build/obj/mmc_card.o
                0x0801b750                appendToLog
 .text._ZL10removeFilePKc
                0x0801b800       0x40 build/obj/mmc_card.o
 .text._ZL9MMCumountv
                0x0801b840       0x90 build/obj/mmc_card.o
 .text._ZL8MMCmountv
                0x0801b8d0      0x190 build/obj/mmc_card.o
 .text._ZL12MMCmonThreadv
                0x0801ba60       0x60 build/obj/mmc_card.o
 .text.isSdCardAlive
                0x0801bac0       0x10 build/obj/mmc_card.o
                0x0801bac0                isSdCardAlive
 .text.initMmcCard
                0x0801bad0      0x130 build/obj/mmc_card.o
                0x0801bad0                initMmcCard
 .text._ZL7lcdInfov
                0x0801bc00       0xc0 build/obj/lcd_HD44780.o
 .text._ZL8lcdSleepi
                0x0801bcc0       0x50 build/obj/lcd_HD44780.o
 .text._ZL17lcd_HD44780_writeh.part.1
                0x0801bd10      0x170 build/obj/lcd_HD44780.o
 .text._Z25lcd_HD44780_write_commandh
                0x0801be80       0x60 build/obj/lcd_HD44780.o
                0x0801be80                lcd_HD44780_write_command(unsigned char)
 .text._Z22lcd_HD44780_write_datah
                0x0801bee0       0x90 build/obj/lcd_HD44780.o
                0x0801bee0                lcd_HD44780_write_data(unsigned char)
 .text.lcd_HD44780_set_position
                0x0801bf70       0x60 build/obj/lcd_HD44780.o
                0x0801bf70                lcd_HD44780_set_position
 .text.getCurrentHD44780column
                0x0801bfd0       0x10 build/obj/lcd_HD44780.o
                0x0801bfd0                getCurrentHD44780column
 .text.lcd_HD44780_print_char
                0x0801bfe0       0x20 build/obj/lcd_HD44780.o
                0x0801bfe0                lcd_HD44780_print_char
 .text.lcd_HD44780_print_string
                0x0801c000       0x20 build/obj/lcd_HD44780.o
                0x0801c000                lcd_HD44780_print_string
 .text.lcd_HD44780_init
                0x0801c020      0x2c0 build/obj/lcd_HD44780.o
                0x0801c020                lcd_HD44780_init
 .text.lcdShowFatalMessage
                0x0801c2e0       0x50 build/obj/lcd_HD44780.o
                0x0801c2e0                lcdShowFatalMessage
 .text._ZL20setAdcDebugReportingi
                0x0801c330       0x30 build/obj/adc_inputs.o
 .text._ZL10addChannelPKc13adc_channel_e18adc_channel_mode_e
                0x0801c360       0x60 build/obj/adc_inputs.o
 .text._ZL11pwmpcb_fastP9PWMDriver
                0x0801c3c0       0xa0 build/obj/adc_inputs.o
 .text._ZL11pwmpcb_slowP9PWMDriver
                0x0801c460       0x90 build/obj/adc_inputs.o
 .text._ZL17adc_callback_slowP9ADCDriverPtj
                0x0801c4f0       0x70 build/obj/adc_inputs.o
 .text._ZN9AdcDeviceC2EP18ADCConversionGroup
                0x0801c560       0x40 build/obj/adc_inputs.o
                0x0801c560                AdcDevice::AdcDevice(ADCConversionGroup*)
                0x0801c560                AdcDevice::AdcDevice(ADCConversionGroup*)
 .text._Z19getInternalAdcValuePKc13adc_channel_e
                0x0801c5a0       0x80 build/obj/adc_inputs.o
                0x0801c5a0                getInternalAdcValue(char const*, adc_channel_e)
 .text._ZL13printAdcValue13adc_channel_e
                0x0801c620       0x60 build/obj/adc_inputs.o
 .text._Z13getAdcChannel11brain_pin_e
                0x0801c680       0x20 build/obj/adc_inputs.o
                0x0801c680                getAdcChannel(brain_pin_e)
 .text._Z17getAdcChannelPort13adc_channel_e
                0x0801c6a0       0x50 build/obj/adc_inputs.o
                0x0801c6a0                getAdcChannelPort(adc_channel_e)
 .text._Z10getAdcMode13adc_channel_e
                0x0801c6f0       0x90 build/obj/adc_inputs.o
                0x0801c6f0                getAdcMode(adc_channel_e)
 .text._Z16getAdcChannelPin13adc_channel_e
                0x0801c780       0x50 build/obj/adc_inputs.o
                0x0801c780                getAdcChannelPin(adc_channel_e)
 .text._ZL18printFullAdcReportv
                0x0801c7d0      0x110 build/obj/adc_inputs.o
 .text._ZN9AdcDevice4sizeEv
                0x0801c8e0       0x10 build/obj/adc_inputs.o
                0x0801c8e0                AdcDevice::size()
 .text._ZN9AdcDevice18getAdcValueByIndexEi
                0x0801c8f0       0x10 build/obj/adc_inputs.o
                0x0801c8f0                AdcDevice::getAdcValueByIndex(int)
 .text._ZN9AdcDevice8isHwUsedE13adc_channel_e
                0x0801c900       0x40 build/obj/adc_inputs.o
                0x0801c900                AdcDevice::isHwUsed(adc_channel_e)
 .text._ZN9AdcDevice10addChannelE13adc_channel_e
                0x0801c940       0xa0 build/obj/adc_inputs.o
                0x0801c940                AdcDevice::addChannel(adc_channel_e)
 .text._ZN9AdcDevice34getAdcHardwareIndexByInternalIndexEi
                0x0801c9e0       0x10 build/obj/adc_inputs.o
                0x0801c9e0                AdcDevice::getAdcHardwareIndexByInternalIndex(int)
 .text._Z13initAdcInputsb
                0x0801c9f0      0x270 build/obj/adc_inputs.o
                0x0801c9f0                initAdcInputs(bool)
 .text._Z13pokeAdcInputsv
                0x0801cc60       0x20 build/obj/adc_inputs.o
                0x0801cc60                pokeAdcInputs()
 .text._ZL8nextStepv
                0x0801cc80       0x10 build/obj/board_test.o
 .text._ZL8setIndexi
                0x0801cc90       0x20 build/obj/board_test.o
 .text._ZL18setCurrentPinValueb
                0x0801ccb0       0x30 build/obj/board_test.o
 .text._ZL8ivThreadi
                0x0801cce0       0x30 build/obj/board_test.o
 .text.isBoardTestMode
                0x0801cd10       0x10 build/obj/board_test.o
                0x0801cd10                isBoardTestMode
 .text.printBoardTestState
                0x0801cd20       0x80 build/obj/board_test.o
                0x0801cd20                printBoardTestState
 .text._Z13initBoardTestv
                0x0801cda0      0x2e0 build/obj/board_test.o
                0x0801cda0                initBoardTest()
 .text._Z13applyPinStateP9PwmConfigi
                0x0801d080       0x60 build/obj/pwm_generator.o
                0x0801d080                applyPinState(PwmConfig*, int)
 .text._Z14startSimplePwmP9PwmConfigPKcP9OutputPinffPFvS0_iE
                0x0801d0e0       0xa0 build/obj/pwm_generator.o
                0x0801d0e0                startSimplePwm(PwmConfig*, char const*, OutputPin*, float, float, void (*)(PwmConfig*, int))
 .text._Z17startSimplePwmExtP9PwmConfigPKc11brain_pin_eP9OutputPinffPFvS0_iE
                0x0801d180       0x50 build/obj/pwm_generator.o
                0x0801d180                startSimplePwmExt(PwmConfig*, char const*, brain_pin_e, OutputPin*, float, float, void (*)(PwmConfig*, int))
 .text._Z16initPwmGeneratorv
                0x0801d1d0       0x10 build/obj/pwm_generator.o
                0x0801d1d0                initPwmGenerator()
 .text._ZL25shaft_icu_period_callbackP9ICUDriver
                0x0801d1e0       0x50 build/obj/trigger_input.o
 .text._ZL24shaft_icu_width_callbackP9ICUDriver
                0x0801d230       0x50 build/obj/trigger_input.o
 .text._ZL21turnOnTriggerInputPin11brain_pin_e
                0x0801d280       0x80 build/obj/trigger_input.o
 .text._Z22turnOnTriggerInputPinsP7Logging
                0x0801d300       0x40 build/obj/trigger_input.o
                0x0801d300                turnOnTriggerInputPins(Logging*)
 .text._Z20stopTriggerInputPinsv
                0x0801d340       0x80 build/obj/trigger_input.o
                0x0801d340                stopTriggerInputPins()
 .text._Z24applyNewTriggerInputPinsv
                0x0801d3c0       0x50 build/obj/trigger_input.o
                0x0801d3c0                applyNewTriggerInputPins()
 .text._ZL18setPrescalerAndSDOi
                0x0801d410       0x10 build/obj/HIP9011.o
 .text._ZL12getBandIndexv
                0x0801d420       0x50 build/obj/HIP9011.o
 .text._ZL9hipThreadPv
                0x0801d470      0x220 build/obj/HIP9011.o
 .text._ZL16endOfSpiExchangeP9SPIDriver
                0x0801d690       0x20 build/obj/HIP9011.o
 .text._ZL15intHoldCallback15trigger_event_em
                0x0801d6b0       0xe0 build/obj/HIP9011.o
 .text._ZL11showHipInfov
                0x0801d790      0x260 build/obj/HIP9011.o
 .text._ZL17setMaxKnockSubDegi
                0x0801d9f0       0x20 build/obj/HIP9011.o
 .text._ZL14setKnockThreshf
                0x0801da10       0x20 build/obj/HIP9011.o
 .text._ZL7setBandf
                0x0801da30       0x20 build/obj/HIP9011.o
 .text._ZL7setGainf
                0x0801da50       0x20 build/obj/HIP9011.o
 .text._ZL14endIntegrationv
                0x0801da70       0x30 build/obj/HIP9011.o
 .text._ZL16startIntegrationv
                0x0801daa0       0x20 build/obj/HIP9011.o
 .text._Z25setHip9011FrankensoPinoutv
                0x0801dac0       0x60 build/obj/HIP9011.o
                0x0801dac0                setHip9011FrankensoPinout()
 .text._Z14hipAdcCallbackt
                0x0801db20      0x1d0 build/obj/HIP9011.o
                0x0801db20                hipAdcCallback(unsigned short)
 .text._Z11initHip9011P7Logging
                0x0801dcf0      0x1a0 build/obj/HIP9011.o
                0x0801dcf0                initHip9011(Logging*)
 .text._ZL18vsAnaWidthCallbackv
                0x0801de90       0x40 build/obj/vehicle_speed.o
 .text._Z15getVehicleSpeedv
                0x0801ded0       0x80 build/obj/vehicle_speed.o
                0x0801ded0                getVehicleSpeed()
 .text._ZL9speedInfov
                0x0801df50       0x90 build/obj/vehicle_speed.o
 .text._Z16initVehicleSpeedP7Logging
                0x0801dfe0       0x60 build/obj/vehicle_speed.o
                0x0801dfe0                initVehicleSpeed(Logging*)
 .text._ZL12joystickInfov
                0x0801e040      0x100 build/obj/joystick.o
 .text._ZL11extCallbackP9EXTDriverm
                0x0801e140      0x100 build/obj/joystick.o
 .text._ZL8applyPin11brain_pin_e.part.0
                0x0801e240       0xa0 build/obj/joystick.o
 .text._Z12initJoystickP7Logging
                0x0801e2e0      0x100 build/obj/joystick.o
                0x0801e2e0                initJoystick(Logging*)
 .text._ZN12StepperMotorC2Ev
                0x0801e3e0       0x20 build/obj/stepper.o
                0x0801e3e0                StepperMotor::StepperMotor()
                0x0801e3e0                StepperMotor::StepperMotor()
 .text._ZN12StepperMotor17setTargetPositionEi
                0x0801e400       0x10 build/obj/stepper.o
                0x0801e400                StepperMotor::setTargetPosition(int)
 .text._ZN12StepperMotor5pulseEv
                0x0801e410       0x40 build/obj/stepper.o
                0x0801e410                StepperMotor::pulse()
 .text._ZL8stThreadP12StepperMotor
                0x0801e450       0x80 build/obj/stepper.o
 .text._ZN12StepperMotor10initializeE11brain_pin_eS0_fiS0_
                0x0801e4d0       0xc0 build/obj/stepper.o
                0x0801e4d0                StepperMotor::initialize(brain_pin_e, brain_pin_e, float, int, brain_pin_e)
 .text._ZL20outputPinRegisterExtPKcP9OutputPinP12GPIO_TypeDefmP17pin_output_mode_e
                0x0801e590       0x50 build/obj/io_pins.o
 .text._Z9getHwPort11brain_pin_e
                0x0801e5e0       0x30 build/obj/io_pins.o
                0x0801e5e0                getHwPort(brain_pin_e)
 .text._Z21outputPinRegisterExt2PKcP9OutputPin11brain_pin_eP17pin_output_mode_e.part.0
                0x0801e610       0x50 build/obj/io_pins.o
 .text._Z8getHwPin11brain_pin_e
                0x0801e660       0x30 build/obj/io_pins.o
                0x0801e660                getHwPin(brain_pin_e)
 .text._Z21outputPinRegisterExt2PKcP9OutputPin11brain_pin_eP17pin_output_mode_e
                0x0801e690       0x10 build/obj/io_pins.o
                0x0801e690                outputPinRegisterExt2(char const*, OutputPin*, brain_pin_e, pin_output_mode_e*)
 .text._Z17outputPinRegisterPKcP9OutputPinP12GPIO_TypeDefm
                0x0801e6a0       0x20 build/obj/io_pins.o
                0x0801e6a0                outputPinRegister(char const*, OutputPin*, GPIO_TypeDef*, unsigned long)
 .text._Z15initPrimaryPinsv
                0x0801e6c0       0x30 build/obj/io_pins.o
                0x0801e6c0                initPrimaryPins()
 .text._Z14initOutputPinsv
                0x0801e6f0      0x110 build/obj/io_pins.o
                0x0801e6f0                initOutputPins()
 .text._Z14turnAllPinsOffv
                0x0801e800       0x40 build/obj/io_pins.o
                0x0801e800                turnAllPinsOff()
 .text._Z16initOutputPinExtPKcP9OutputPinP12GPIO_TypeDefmm
                0x0801e840       0x40 build/obj/gpio_helper.o
                0x0801e840                initOutputPinExt(char const*, OutputPin*, GPIO_TypeDef*, unsigned long, unsigned long)
 .text.getRemainingStack
                0x0801e880       0x30 build/obj/mpu_util.o
                0x0801e880                getRemainingStack
 .text._Z16baseHardwareInitv
                0x0801e8b0       0x10 build/obj/mpu_util.o
                0x0801e8b0                baseHardwareInit()
 .text.DebugMonitorVector
                0x0801e8c0       0x20 build/obj/mpu_util.o
                0x0801e8c0                DebugMonitorVector
 .text.UsageFaultVector
                0x0801e8e0       0x20 build/obj/mpu_util.o
                0x0801e8e0                UsageFaultVector
 .text.BusFaultVector
                0x0801e900       0x20 build/obj/mpu_util.o
                0x0801e900                BusFaultVector
 .text.HardFaultVector
                0x0801e920       0x80 build/obj/mpu_util.o
                0x0801e920                HardFaultVector
 .text.initSpiModule
                0x0801e9a0       0xc0 build/obj/mpu_util.o
                0x0801e9a0                initSpiModule
 .text._Z9turnOnSpi12spi_device_e
                0x0801ea60       0x90 build/obj/mpu_util.o
                0x0801ea60                turnOnSpi(spi_device_e)
 .text.initSpiCs
                0x0801eaf0       0x40 build/obj/mpu_util.o
                0x0801eaf0                initSpiCs
 .text._Z11date_set_tmP2tm
                0x0801eb30       0x10 build/obj/rtc_helper.o
                0x0801eb30                date_set_tm(tm*)
 .text._Z11date_get_tmP2tm
                0x0801eb40       0x10 build/obj/rtc_helper.o
                0x0801eb40                date_get_tm(tm*)
 .text._Z13printDateTimev
                0x0801eb50       0xa0 build/obj/rtc_helper.o
                0x0801eb50                printDateTime()
 .text._Z11setDateTimePKc
                0x0801ebf0       0x50 build/obj/rtc_helper.o
                0x0801ebf0                setDateTime(char const*)
 .text._Z7initRtcv
                0x0801ec40       0x20 build/obj/rtc_helper.o
                0x0801ec40                initRtc()
 .text._Z17initWboControllerv
                0x0801ec60       0x10 build/obj/wbo.o
                0x0801ec60                initWboController()
 .text._Z11startTsPortv
                0x0801ec70       0xa0 build/obj/tunerstudio_io.o
                0x0801ec70                startTsPort()
 .text._Z17getTsSerialDevicev
                0x0801ed10       0x20 build/obj/tunerstudio_io.o
                0x0801ed10                getTsSerialDevice()
 .text._Z20tunerStudioWriteDataP12ts_channel_sPKhi
                0x0801ed30       0x60 build/obj/tunerstudio_io.o
                0x0801ed30                tunerStudioWriteData(ts_channel_s*, unsigned char const*, int)
 .text._Z25tunerStudioWriteCrcPacketP12ts_channel_shPKvt
                0x0801ed90       0x40 build/obj/tunerstudio_io.o
                0x0801ed90                tunerStudioWriteCrcPacket(ts_channel_s*, unsigned char, void const*, unsigned short)
 .text._Z14tsSendResponseP12ts_channel_s20ts_response_format_ePKhi
                0x0801edd0       0x30 build/obj/tunerstudio_io.o
                0x0801edd0                tsSendResponse(ts_channel_s*, ts_response_format_e, unsigned char const*, int)
 .text._ZL18printErrorCountersv
                0x0801ee00       0x70 build/obj/tunerstudio.o
 .text._Z12printTsStatsv
                0x0801ee70       0x60 build/obj/tunerstudio.o
                0x0801ee70                printTsStats()
 .text._ZL10setTsSpeedi
                0x0801eed0       0x20 build/obj/tunerstudio.o
 .text._ZL7resetTsv
                0x0801eef0       0x40 build/obj/tunerstudio.o
 .text._Z11yellowMagiciii.part.1
                0x0801ef30       0x40 build/obj/tunerstudio.o
 .text._Z23handlePageSelectCommandP12ts_channel_s20ts_response_format_et
                0x0801ef70       0x50 build/obj/tunerstudio.o
                0x0801ef70                handlePageSelectCommand(ts_channel_s*, ts_response_format_e, unsigned short)
 .text._Z16handleCrc32CheckP12ts_channel_s20ts_response_format_ettt
                0x0801efc0       0xc0 build/obj/tunerstudio.o
                0x0801efc0                handleCrc32Check(ts_channel_s*, ts_response_format_e, unsigned short, unsigned short, unsigned short)
 .text._Z11requestBurnv
                0x0801f080       0x10 build/obj/tunerstudio.o
                0x0801f080                requestBurn()
 .text._Z17handleBurnCommandP12ts_channel_s20ts_response_format_et
                0x0801f090       0xd0 build/obj/tunerstudio.o
                0x0801f090                handleBurnCommand(ts_channel_s*, ts_response_format_e, unsigned short)
 .text._Z19syncTunerStudioCopyv
                0x0801f160       0x20 build/obj/tunerstudio.o
                0x0801f160                syncTunerStudioCopy()
 .text._Z16tunerStudioErrorPKc
                0x0801f180       0x30 build/obj/tunerstudio.o
                0x0801f180                tunerStudioError(char const*)
 .text._Z23handleWriteChunkCommandP12ts_channel_s20ts_response_format_essPv
                0x0801f1b0      0x110 build/obj/tunerstudio.o
                0x0801f1b0                handleWriteChunkCommand(ts_channel_s*, ts_response_format_e, short, short, void*)
 .text._Z23handleWriteValueCommandP12ts_channel_s20ts_response_format_etth
                0x0801f2c0       0xe0 build/obj/tunerstudio.o
                0x0801f2c0                handleWriteValueCommand(ts_channel_s*, ts_response_format_e, unsigned short, unsigned short, unsigned char)
 .text._Z21handlePageReadCommandP12ts_channel_s20ts_response_format_ettt
                0x0801f3a0       0xd0 build/obj/tunerstudio.o
                0x0801f3a0                handlePageReadCommand(ts_channel_s*, ts_response_format_e, unsigned short, unsigned short, unsigned short)
 .text._Z18handleQueryCommandP12ts_channel_s20ts_response_format_e
                0x0801f470       0x50 build/obj/tunerstudio.o
                0x0801f470                handleQueryCommand(ts_channel_s*, ts_response_format_e)
 .text._Z27handleOutputChannelsCommandP12ts_channel_s20ts_response_format_e
                0x0801f4c0       0x30 build/obj/tunerstudio.o
                0x0801f4c0                handleOutputChannelsCommand(ts_channel_s*, ts_response_format_e)
 .text._Z17handleTestCommandP12ts_channel_s
                0x0801f4f0       0x50 build/obj/tunerstudio.o
                0x0801f4f0                handleTestCommand(ts_channel_s*)
 .text._Z18handlePlainCommandP12ts_channel_sh
                0x0801f540      0x250 build/obj/tunerstudio.o
                0x0801f540                handlePlainCommand(ts_channel_s*, unsigned char)
 .text._Z27tunerStudioHandleCrcCommandP12ts_channel_sPci
                0x0801f790      0x1b0 build/obj/tunerstudio.o
                0x0801f790                tunerStudioHandleCrcCommand(ts_channel_s*, char*, int)
 .text._Z21runBinaryProtocolLoopP12ts_channel_sb
                0x0801f940      0x260 build/obj/tunerstudio.o
                0x0801f940                runBinaryProtocolLoop(ts_channel_s*, bool)
 .text._ZL18tsThreadEntryPointPv
                0x0801fba0       0x30 build/obj/tunerstudio.o
 .text._Z28startTunerStudioConnectivityv
                0x0801fbd0       0xc0 build/obj/tunerstudio.o
                0x0801fbd0                startTunerStudioConnectivity()
 .text._ZL17setWarningEnabledi
                0x0801fc90       0x10 build/obj/status_loop.o
 .text._ZL11printStatusv
                0x0801fca0       0x10 build/obj/status_loop.o
 .text._ZL17setBlinkingPeriodi
                0x0801fcb0       0x10 build/obj/status_loop.o
 .text._ZL9subscribei
                0x0801fcc0       0x10 build/obj/status_loop.o
 .text._ZL11unsubscribei
                0x0801fcd0       0x10 build/obj/status_loop.o
 .text._ZL11printOutPinPKc11brain_pin_e
                0x0801fce0       0x40 build/obj/status_loop.o
 .text._ZL13showFuelInfo2ff
                0x0801fd20      0x260 build/obj/status_loop.o
 .text._ZL12showFuelInfov
                0x0801ff80       0x30 build/obj/status_loop.o
 .text._ZL9lcdThreadPv
                0x0801ffb0       0x60 build/obj/status_loop.o
 .text._Z10setFullLogi
                0x08020010       0x50 build/obj/status_loop.o
                0x08020010                setFullLog(int)
 .text._ZL13reportSensorFP7LoggingbPKcS2_fi
                0x08020060       0x60 build/obj/status_loop.o
 .text._ZL17isTriggerErrorNowv
                0x080200c0       0x50 build/obj/status_loop.o
 .text._ZL14blinkingThreadPv
                0x08020110       0xe0 build/obj/status_loop.o
 .text._ZL12printSensorsP7Loggingb
                0x080201f0      0x360 build/obj/status_loop.o
 .text._Z12writeLogLinev
                0x08020550       0x60 build/obj/status_loop.o
                0x08020550                writeLogLine()
 .text._Z21updateDevConsoleStateP6Engine
                0x080205b0      0x310 build/obj/status_loop.o
                0x080205b0                updateDevConsoleState(Engine*)
 .text._Z22updateTunerStudioStateP25TunerStudioOutputChannels
                0x080208c0      0x350 build/obj/status_loop.o
                0x080208c0                updateTunerStudioState(TunerStudioOutputChannels*)
 .text._Z25prepareTunerStudioOutputsv
                0x08020c10       0x10 build/obj/status_loop.o
                0x08020c10                prepareTunerStudioOutputs()
 .text._Z14initStatusLoopP6Engine
                0x08020c20       0xd0 build/obj/status_loop.o
                0x08020c20                initStatusLoop(Engine*)
 .text._Z18startStatusThreadsP6Engine
                0x08020cf0       0xa0 build/obj/status_loop.o
                0x08020cf0                startStatusThreads(Engine*)
 .text._Z10getFullLogv
                0x08020d90       0x10 build/obj/status_loop.o
                0x08020d90                getFullLog()
 .text._ZL22switchToBinaryProtocolv
                0x08020da0       0x30 build/obj/console_io.o
 .text._ZL29consoleThreadThreadEntryPointPv
                0x08020dd0      0x2a0 build/obj/console_io.o
 .text._Z16isSerialOverUartv
                0x08021070       0x10 build/obj/console_io.o
                0x08021070                isSerialOverUart()
 .text._Z17getConsoleChannelv
                0x08021080       0x30 build/obj/console_io.o
                0x08021080                getConsoleChannel()
 .text._Z14isConsoleReadyv
                0x080210b0       0x20 build/obj/console_io.o
                0x080210b0                isConsoleReady()
 .text._Z19consoleOutputBufferPKhi
                0x080210d0       0x50 build/obj/console_io.o
                0x080210d0                consoleOutputBuffer(unsigned char const*, int)
 .text._Z12startConsoleP7LoggingPFvPcE
                0x08021120       0xe0 build/obj/console_io.o
                0x08021120                startConsole(Logging*, void (*)(char*))
 .text.lockAnyContext
                0x08021200       0x40 build/obj/console_io.o
                0x08021200                lockAnyContext
 .text.lockOutputBuffer
                0x08021240       0x10 build/obj/console_io.o
                0x08021240                lockOutputBuffer
 .text.unlockAnyContext
                0x08021250       0x30 build/obj/console_io.o
                0x08021250                unlockAnyContext
 .text.unlockOutputBuffer
                0x08021280       0x10 build/obj/console_io.o
                0x08021280                unlockOutputBuffer
 .text._ZL10sayNothingv
                0x08021290       0x10 build/obj/eficonsole.o
 .text._ZL7myfatalv
                0x080212a0       0x20 build/obj/eficonsole.o
 .text._ZL11cmd_threadsv
                0x080212c0       0x70 build/obj/eficonsole.o
 .text._ZL7myerrorv
                0x08021330       0x20 build/obj/eficonsole.o
 .text._ZL8sayHellov
                0x08021350      0x1d0 build/obj/eficonsole.o
 .text.print    0x08021520       0x30 build/obj/eficonsole.o
                0x08021520                print
 .text.initializeConsole
                0x08021550       0x90 build/obj/eficonsole.o
                0x08021550                initializeConsole
 .text._Z13getResistanceP14ThermistorConf
                0x080215e0       0x70 build/obj/thermistors.o
                0x080215e0                getResistance(ThermistorConf*)
 .text._Z25isValidCoolantTemperaturef
                0x08021650       0x50 build/obj/thermistors.o
                0x08021650                isValidCoolantTemperature(float)
 .text._Z27isValidIntakeAirTemperaturef
                0x080216a0       0x50 build/obj/thermistors.o
                0x080216a0                isValidIntakeAirTemperature(float)
 .text._Z26setThermistorConfigurationP14ThermistorConfffffff
                0x080216f0       0x20 build/obj/thermistors.o
                0x080216f0                setThermistorConfiguration(ThermistorConf*, float, float, float, float, float, float)
 .text._Z14setDodgeSensorP14ThermistorConf
                0x08021710       0x40 build/obj/thermistors.o
                0x08021710                setDodgeSensor(ThermistorConf*)
 .text._Z18setCommonNTCSensorP14ThermistorConf
                0x08021750       0x40 build/obj/thermistors.o
                0x08021750                setCommonNTCSensor(ThermistorConf*)
 .text._Z15initThermistorsP7Logging
                0x08021790       0x60 build/obj/thermistors.o
                0x08021790                initThermistors(Logging*)
 .text._ZN14ThermistorMathC2Ev
                0x080217f0       0x50 build/obj/thermistors.o
                0x080217f0                ThermistorMath::ThermistorMath()
                0x080217f0                ThermistorMath::ThermistorMath()
 .text._ZN14ThermistorMath4initEP17thermistor_conf_s
                0x08021840      0x2b0 build/obj/thermistors.o
                0x08021840                ThermistorMath::init(thermistor_conf_s*)
 .text._Z20getKelvinTemperatureP14ThermistorConffP14ThermistorMath
                0x08021af0       0x90 build/obj/thermistors.o
                0x08021af0                getKelvinTemperature(ThermistorConf*, float, ThermistorMath*)
 .text._Z15getTemperatureCP14ThermistorConfP14ThermistorMath
                0x08021b80       0x50 build/obj/thermistors.o
                0x08021b80                getTemperatureC(ThermistorConf*, ThermistorMath*)
 .text._Z21getCoolantTemperaturev
                0x08021bd0       0x80 build/obj/thermistors.o
                0x08021bd0                getCoolantTemperature()
 .text._Z23getIntakeAirTemperaturev
                0x08021c50       0x80 build/obj/thermistors.o
                0x08021c50                getIntakeAirTemperature()
 .text._ZL10testCltByRf
                0x08021cd0       0x80 build/obj/thermistors.o
 .text._Z11initSensorsP7Logging
                0x08021d50       0x20 build/obj/allsensors.o
                0x08021d50                initSensors(Logging*)
 .text._Z11getAcTogglev
                0x08021d70       0x60 build/obj/allsensors.o
                0x08021d70                getAcToggle()
 .text._ZL23digitalMapWidthCallbackv
                0x08021dd0       0x50 build/obj/map.o
 .text._Z14decodePressurefP28air_pressure_sensor_config_s
                0x08021e20       0xd0 build/obj/map.o
                0x08021e20                decodePressure(float, air_pressure_sensor_config_s*)
 .text._Z15getMapByVoltagef
                0x08021ef0       0x10 build/obj/map.o
                0x08021ef0                getMapByVoltage(float)
 .text._Z9getRawMapv
                0x08021f00       0x90 build/obj/map.o
                0x08021f00                getRawMap()
 .text._Z13hasBaroSensorv
                0x08021f90       0x30 build/obj/map.o
                0x08021f90                hasBaroSensor()
 .text._Z15getBaroPressurev
                0x08021fc0       0x50 build/obj/map.o
                0x08021fc0                getBaroPressure()
 .text._ZL12printMAPInfov
                0x08022010      0x150 build/obj/map.o
 .text._Z14initMapDecoderP7Logging
                0x08022160      0x120 build/obj/map.o
                0x08022160                initMapDecoder(Logging*)
 .text._Z8getVBattv
                0x08022280       0x40 build/obj/voltage.o
                0x08022280                getVBatt()
 .text._Z6getMafv
                0x080222c0       0x40 build/obj/maf.o
                0x080222c0                getMaf()
 .text._Z12hasMafSensorv
                0x08022300       0x30 build/obj/maf.o
                0x08022300                hasMafSensor()
 .text._Z10getRealMafv
                0x08022330       0x40 build/obj/maf.o
                0x08022330                getRealMaf()
 .text._Z18setBosch0280218037P19persistent_config_s
                0x08022370       0xc0 build/obj/maf.o
                0x08022370                setBosch0280218037(persistent_config_s*)
 .text._Z12setDensoTODOP19persistent_config_s
                0x08022430       0xc0 build/obj/maf.o
                0x08022430                setDensoTODO(persistent_config_s*)
 .text._Z18setMazdaMiataNAMafP19persistent_config_s
                0x080224f0      0x4b0 build/obj/maf.o
                0x080224f0                setMazdaMiataNAMaf(persistent_config_s*)
 .text._Z18getTpsRateOfChangev
                0x080229a0       0x20 build/obj/tps.o
                0x080229a0                getTpsRateOfChange()
 .text._Z11getTpsValuei
                0x080229c0       0x80 build/obj/tps.o
                0x080229c0                getTpsValue(int)
 .text._Z13getTPSVoltagev
                0x08022a40       0x40 build/obj/tps.o
                0x08022a40                getTPSVoltage()
 .text._Z14getTPS10bitAdcv
                0x08022a80       0x40 build/obj/tps.o
                0x08022a80                getTPS10bitAdc()
 .text._Z16getPedalPositionv
                0x08022ac0       0x90 build/obj/tps.o
                0x08022ac0                getPedalPosition()
 .text._Z6getTPSv
                0x08022b50       0x50 build/obj/tps.o
                0x08022b50                getTPS()
 .text._Z24convertVoltageTo10bitADCf
                0x08022ba0       0x30 build/obj/tps.o
                0x08022ba0                convertVoltageTo10bitADC(float)
 .text._Z6getAfrv
                0x08022bd0       0x60 build/obj/ego.o
                0x08022bd0                getAfr()
 .text._Z13initEgoSensorP12afr_sensor_s12ego_sensor_e
                0x08022c30       0xb0 build/obj/ego.o
                0x08022c30                initEgoSensor(afr_sensor_s*, ego_sensor_e)
 .text._Z23prepareHip9011RpmLookupf
                0x08022ce0       0x60 build/obj/hip9011_lookup.o
                0x08022ce0                prepareHip9011RpmLookup(float)
 .text._Z24getIntegrationIndexByRpmf
                0x08022d40       0x20 build/obj/hip9011_lookup.o
                0x08022d40                getIntegrationIndexByRpm(float)
 .text._Z19getHip9011GainIndexf
                0x08022d60       0x20 build/obj/hip9011_lookup.o
                0x08022d60                getHip9011GainIndex(float)
 .text._Z19getHip9011BandIndexf
                0x08022d80       0x10 build/obj/hip9011_lookup.o
                0x08022d80                getHip9011BandIndex(float)
 .text._ZL24setIdleSolenoidFrequencyi
                0x08022d90       0x10 build/obj/settings.o
 .text._ZL10setCltBiasf
                0x08022da0       0x10 build/obj/settings.o
 .text._ZL10setIatBiasf
                0x08022db0       0x10 build/obj/settings.o
 .text._ZL15setVBattDividerf
                0x08022dc0       0x10 build/obj/settings.o
 .text._ZL9setEgtSpii
                0x08022dd0       0x10 build/obj/settings.o
 .text._ZL9setPotSpii
                0x08022de0       0x10 build/obj/settings.o
 .text._ZL14setInjectorLagf
                0x08022df0       0x10 build/obj/settings.o
 .text._ZL15disableIgnitionv
                0x08022e00       0x30 build/obj/settings.o
 .text._ZL14enableIgnitionv
                0x08022e30       0x30 build/obj/settings.o
 .text._ZL16disableInjectionv
                0x08022e60       0x30 build/obj/settings.o
 .text._ZL15enableInjectionv
                0x08022e90       0x30 build/obj/settings.o
 .text._ZL17setWholeTimingMapf
                0x08022ec0       0x50 build/obj/settings.o
 .text._ZL20setWholeTimingMapCmdf
                0x08022f10       0x30 build/obj/settings.o
 .text._Z10stopEnginev
                0x08022f40       0x20 build/obj/settings.o
                0x08022f40                stopEngine()
 .text._ZL17setAnalogInputPinPKcS0_
                0x08022f60      0x150 build/obj/settings.o
 .text._ZL15enableOrDisablePKcb
                0x080230b0      0x500 build/obj/settings.o
 .text._ZL7disablePKc
                0x080235b0       0x10 build/obj/settings.o
 .text._ZL6enablePKc
                0x080235c0       0x10 build/obj/settings.o
 .text._ZL8setValuePKcS0_
                0x080235d0      0x130 build/obj/settings.o
 .text._ZL23setTriggerSimulatorModePKcS0_
                0x08023700       0x50 build/obj/settings.o
 .text._ZL12setTimingMapPKcS0_S0_
                0x08023750       0x90 build/obj/settings.o
 .text._ZL10setFuelMapPKcS0_S0_
                0x080237e0       0x90 build/obj/settings.o
 .text._ZL13setWholeVeCmdf
                0x08023870       0x60 build/obj/settings.o
 .text._ZL19setWholePhaseMapCmdf
                0x080238d0       0x40 build/obj/settings.o
 .text._ZL18setWholeFuelMapCmdf
                0x08023910       0x60 build/obj/settings.o
 .text._ZL12printTPSInfov
                0x08023970       0xd0 build/obj/settings.o
 .text._ZL15printThermistorPKcP14ThermistorConfP14ThermistorMath
                0x08023a40      0x170 build/obj/settings.o
 .text._ZL20printTemperatureInfov
                0x08023bb0      0x100 build/obj/settings.o
 .text._ZL15setCrankingFuelf
                0x08023cb0       0x10 build/obj/settings.o
 .text._ZL12printAllInfov
                0x08023cc0       0xa0 build/obj/settings.o
 .text._ZL13setFanSettingff
                0x08023d60       0x70 build/obj/settings.o
 .text._ZL23setGlobalFuelCorrectionf
                0x08023dd0       0x70 build/obj/settings.o
 .text._ZL16setLogicInputPinPKcS0_
                0x08023e40       0x70 build/obj/settings.o
 .text._ZL16setIndividualPinPKcP11brain_pin_eS0_
                0x08023eb0       0x60 build/obj/settings.o
 .text._ZL15setMainRelayPinPKc
                0x08023f10       0x20 build/obj/settings.o
 .text._ZL10setIdlePinPKc
                0x08023f30       0x20 build/obj/settings.o
 .text._ZL16setAlternatorPinPKc
                0x08023f50       0x20 build/obj/settings.o
 .text._ZL8setACPinPKc
                0x08023f70       0x20 build/obj/settings.o
 .text._ZL14setFuelPumpPinPKc
                0x08023f90       0x20 build/obj/settings.o
 .text._ZL18setTriggerInputPinPKcS0_
                0x08023fb0       0x70 build/obj/settings.o
 .text._ZL14setIgnitionPinPKcS0_
                0x08024020       0x70 build/obj/settings.o
 .text._ZL15setInjectionPinPKcS0_
                0x08024090       0x70 build/obj/settings.o
 .text._ZL8getValuePKc
                0x08024100       0x50 build/obj/settings.o
 .text._ZL11setEgtCSPinPKcS0_P21board_configuration_s
                0x08024150       0x80 build/obj/settings.o
 .text._ZL22setTriggerSimulatorPinPKcS0_
                0x080241d0       0x80 build/obj/settings.o
 .text._ZL15showPinFunctionPKc
                0x08024250       0x50 build/obj/settings.o
 .text._Z13printSpiStateP7LoggingP21board_configuration_s
                0x080242a0       0x50 build/obj/settings.o
                0x080242a0                printSpiState(Logging*, board_configuration_s*)
 .text._ZL10setSpiModeib
                0x080242f0       0x90 build/obj/settings.o
 .text._ZL10disableSpii
                0x08024380       0x10 build/obj/settings.o
 .text._ZL9enableSpii
                0x08024390       0x10 build/obj/settings.o
 .text._Z20getConfigurationName13engine_type_e
                0x080243a0      0x170 build/obj/settings.o
                0x080243a0                getConfigurationName(engine_type_e)
 .text._Z18printConfigurationP22engine_configuration_s
                0x08024510      0x5c0 build/obj/settings.o
                0x08024510                printConfiguration(engine_configuration_s*)
 .text._ZL20doPrintConfigurationP6Engine
                0x08024ad0       0x10 build/obj/settings.o
 .text._Z13setEngineTypei
                0x08024ae0       0x50 build/obj/settings.o
                0x08024ae0                setEngineType(int)
 .text._ZL14setTriggerTypei
                0x08024b30       0x20 build/obj/settings.o
 .text._ZL15setToothedWheelii
                0x08024b50       0x50 build/obj/settings.o
 .text._ZL15setAlgorithmInti
                0x08024ba0       0x20 build/obj/settings.o
 .text._ZL14setFiringOrderi
                0x08024bc0       0x20 build/obj/settings.o
 .text._ZL15setRpmHardLimiti
                0x08024be0       0x20 build/obj/settings.o
 .text._ZL16setInjectionModei
                0x08024c00       0x20 build/obj/settings.o
 .text._ZL24setCrankingInjectionModei
                0x08024c20       0x20 build/obj/settings.o
 .text._ZL15setIgnitionModei
                0x08024c40       0x20 build/obj/settings.o
 .text._ZL22setCrankingChargeAnglef
                0x08024c60       0x20 build/obj/settings.o
 .text._ZL22setCrankingTimingAnglef
                0x08024c80       0x20 build/obj/settings.o
 .text._ZL14setCrankingRpmi
                0x08024ca0       0x20 build/obj/settings.o
 .text._ZL5setOMi
                0x08024cc0       0x20 build/obj/settings.o
 .text._ZL30setMalfunctionIndicatorPinModei
                0x08024ce0       0x20 build/obj/settings.o
 .text._ZL18setFuelPumpPinModei
                0x08024d00       0x20 build/obj/settings.o
 .text._ZL14setIdlePinModei
                0x08024d20       0x20 build/obj/settings.o
 .text._ZL18setIgnitionPinModei
                0x08024d40       0x20 build/obj/settings.o
 .text._ZL19setInjectionPinModei
                0x08024d60       0x20 build/obj/settings.o
 .text._ZL13setTimingModei
                0x08024d80       0x20 build/obj/settings.o
 .text._ZL18setFixedModeTimingi
                0x08024da0       0x30 build/obj/settings.o
 .text._ZL18setSensorChartModei
                0x08024dd0       0x20 build/obj/settings.o
 .text._ZL27setGlobalTriggerAngleOffsetf
                0x08024df0       0x20 build/obj/settings.o
 .text._ZL18setInjectionOffsetf
                0x08024e10       0x20 build/obj/settings.o
 .text._ZL17setIgnitionOffsetf
                0x08024e30       0x20 build/obj/settings.o
 .text._Z12initSettingsP22engine_configuration_s
                0x08024e50      0x590 build/obj/settings.o
                0x08024e50                initSettings(engine_configuration_s*)
 .text._ZL9etbThreadPv
                0x080253e0       0x40 build/obj/electronic_throttle.o
 .text._ZL18setThrottleConsolei
                0x08025420       0x80 build/obj/electronic_throttle.o
 .text._Z22initElectronicThrottlev
                0x080254a0       0xb0 build/obj/electronic_throttle.o
                0x080254a0                initElectronicThrottle()
 .text.chDbgPanic3
                0x08025550       0x80 build/obj/error_handling.o
                0x08025550                chDbgPanic3
 .text.warning  0x080255d0       0xd0 build/obj/error_handling.o
                0x080255d0                warning
 .text.getWarninig
                0x080256a0       0x10 build/obj/error_handling.o
                0x080256a0                getWarninig
 .text.initErrorHandling
                0x080256b0       0x20 build/obj/error_handling.o
                0x080256b0                initErrorHandling
 .text._ZL12showMapStatsv
                0x080256d0       0x20 build/obj/map_averaging.o
 .text._ZL12endAveragingPv
                0x080256f0       0x80 build/obj/map_averaging.o
 .text._ZL20mapAveragingCallback15trigger_event_em
                0x08025770      0x1c0 build/obj/map_averaging.o
 .text._ZL14startAveragingPv
                0x08025930       0x80 build/obj/map_averaging.o
 .text._Z20mapAveragingCallbackt
                0x080259b0      0x140 build/obj/map_averaging.o
                0x080259b0                mapAveragingCallback(unsigned short)
 .text._Z6getMapv
                0x08025af0       0x40 build/obj/map_averaging.o
                0x08025af0                getMap()
 .text._Z16initMapAveragingP7LoggingP6Engine
                0x08025b30       0x40 build/obj/map_averaging.o
                0x08025b30                initMapAveraging(Logging*, Engine*)
 .text._Z15writeToFlashNowv
                0x08025b70       0xd0 build/obj/flash_main.o
                0x08025b70                writeToFlashNow()
 .text._ZL20doResetConfigurationv
                0x08025c40       0x20 build/obj/flash_main.o
 .text._ZL13rewriteConfigv
                0x08025c60       0x30 build/obj/flash_main.o
 .text._Z13readFromFlashv
                0x08025c90      0x120 build/obj/flash_main.o
                0x08025c90                readFromFlash()
 .text._Z27setNeedToWriteConfigurationv
                0x08025db0       0x30 build/obj/flash_main.o
                0x08025db0                setNeedToWriteConfiguration()
 .text._Z27getNeedToWriteConfigurationv
                0x08025de0       0x10 build/obj/flash_main.o
                0x08025de0                getNeedToWriteConfiguration()
 .text._Z21writeToFlashIfPendingv
                0x08025df0       0x40 build/obj/flash_main.o
                0x08025df0                writeToFlashIfPending()
 .text._Z9initFlashP7Logging
                0x08025e30       0x80 build/obj/flash_main.o
                0x08025e30                initFlash(Logging*)
 .text._ZL8pinbenchPKcS0_S0_S0_P9OutputPin11brain_pin_e
                0x08025eb0       0x70 build/obj/injector_central.o
 .text._Z8fanBenchv
                0x08025f20       0x50 build/obj/injector_central.o
                0x08025f20                fanBench()
 .text._Z8milBenchv
                0x08025f70       0x50 build/obj/injector_central.o
                0x08025f70                milBench()
 .text._Z13fuelPumpBenchv
                0x08025fc0       0x50 build/obj/injector_central.o
                0x08025fc0                fuelPumpBench()
 .text._ZL11sparkbench2PKcS0_S0_S0_S0_
                0x08026010       0x80 build/obj/injector_central.o
 .text._ZL10sparkbenchPKcS0_S0_
                0x08026090       0x30 build/obj/injector_central.o
 .text._ZL10fuelbench2PKcS0_S0_S0_S0_
                0x080260c0       0x80 build/obj/injector_central.o
 .text._ZL9fuelbenchPKcS0_S0_
                0x08026140       0x30 build/obj/injector_central.o
 .text._ZL11benchThreadi
                0x08026170      0x210 build/obj/injector_central.o
 .text._ZL10unregister11brain_pin_eP9OutputPin.part.0
                0x08026380       0x30 build/obj/injector_central.o
 .text._Z18isRunningBenchTestv
                0x080263b0       0x10 build/obj/injector_central.o
                0x080263b0                isRunningBenchTest()
 .text._Z16assertCylinderIdiPKc
                0x080263c0       0x40 build/obj/injector_central.o
                0x080263c0                assertCylinderId(int, char const*)
 .text._ZL11printStatusv
                0x08026400       0x50 build/obj/injector_central.o
 .text._ZL18setInjectorEnabledii
                0x08026450       0x40 build/obj/injector_central.o
 .text._Z16stopIgnitionPinsv
                0x08026490       0x40 build/obj/injector_central.o
                0x08026490                stopIgnitionPins()
 .text._Z17stopInjectionPinsv
                0x080264d0       0x50 build/obj/injector_central.o
                0x080264d0                stopInjectionPins()
 .text._Z17startIgnitionPinsv
                0x08026520       0x60 build/obj/injector_central.o
                0x08026520                startIgnitionPins()
 .text._Z18startInjectionPinsv
                0x08026580       0x70 build/obj/injector_central.o
                0x08026580                startInjectionPins()
 .text._Z19initInjectorCentralv
                0x080265f0      0x100 build/obj/injector_central.o
                0x080265f0                initInjectorCentral()
 .text._ZL22doSetIdleValvePositioni
                0x080266f0      0x110 build/obj/idle_thread.o
 .text._ZL16setIdleRpmActioni
                0x08026800       0x30 build/obj/idle_thread.o
 .text._ZL12showIdleInfov
                0x08026830      0x100 build/obj/idle_thread.o
 .text._ZL21setIdleControlEnabledi
                0x08026930       0x20 build/obj/idle_thread.o
 .text._ZL8ivThreadi
                0x08026950      0x130 build/obj/idle_thread.o
 .text._ZL20setIdleValvePositioni
                0x08026a80       0x40 build/obj/idle_thread.o
 .text._ZL25applyIdleSolenoidPinStateP9PwmConfigi
                0x08026ac0       0x40 build/obj/idle_thread.o
 .text._Z9idleDebugPKcf
                0x08026b00       0x30 build/obj/idle_thread.o
                0x08026b00                idleDebug(char const*, float)
 .text._Z15startIdleThreadP7LoggingP6Engine
                0x08026b30      0x180 build/obj/idle_thread.o
                0x08026b30                startIdleThread(Logging*, Engine*)
 .text._Z16obdOnCanPacketRxP10CANRxFrame
                0x08026cb0      0x1f0 build/obj/obd2.o
                0x08026cb0                obdOnCanPacketRx(CANRxFrame*)
 .text._ZL7testMilv
                0x08026ea0       0x20 build/obj/malfunction_indicator.o
 .text._ZL9mfiThreadv
                0x08026ec0      0x100 build/obj/malfunction_indicator.o
 .text._Z24initMalfunctionIndicatorv
                0x08026fc0       0x40 build/obj/malfunction_indicator.o
                0x08026fc0                initMalfunctionIndicator()
 .text._Z11showAltInfov
                0x08027000       0xe0 build/obj/alternatorController.o
                0x08027000                showAltInfo()
 .text._ZL13applySettingsv
                0x080270e0       0x20 build/obj/alternatorController.o
 .text._Z13setAltPFactorf
                0x08027100       0x40 build/obj/alternatorController.o
                0x08027100                setAltPFactor(float)
 .text._ZL13AltCtrlThreadi
                0x08027140      0x170 build/obj/alternatorController.o
 .text._ZL23applyAlternatorPinStateP9PwmConfigi
                0x080272b0       0x50 build/obj/alternatorController.o
 .text._Z30setDefaultAlternatorParametersv
                0x08027300       0x70 build/obj/alternatorController.o
                0x08027300                setDefaultAlternatorParameters()
 .text._Z18initAlternatorCtrlP7Logging
                0x08027370       0xb0 build/obj/alternatorController.o
                0x08027370                initAlternatorCtrl(Logging*)
 .text._ZL9lcdPrintfPKcz
                0x08027420       0x40 build/obj/lcd_controller.o
 .text._ZL14fillWithSpacesv
                0x08027460       0x20 build/obj/lcd_controller.o
 .text._Z10onJoystick17joystick_button_e
                0x08027480       0x30 build/obj/lcd_controller.o
                0x08027480                onJoystick(joystick_button_e)
 .text._Z17initLcdControllerv
                0x080274b0       0x50 build/obj/lcd_controller.o
                0x080274b0                initLcdController()
 .text._Z16updateHD44780lcdP6Engine
                0x08027500      0x330 build/obj/lcd_controller.o
                0x08027500                updateHD44780lcd(Engine*)
 .text._ZL26scheduleNextSlowInvocationv
                0x08027830       0x40 build/obj/engine_controller.o
 .text._ZL20periodicFastCallbackv
                0x08027870       0xa0 build/obj/engine_controller.o
 .text._ZL6setBitPKcS0_S0_
                0x08027910      0x100 build/obj/engine_controller.o
 .text._ZL10resetAccelv
                0x08027a10       0x20 build/obj/engine_controller.o
 .text._ZL8csThreadv
                0x08027a30       0x90 build/obj/engine_controller.o
 .text._ZL20periodicSlowCallbackP6Engine
                0x08027ac0      0x140 build/obj/engine_controller.o
 .text._ZL6getBitii
                0x08027c00       0x40 build/obj/engine_controller.o
 .text._ZL8getShorti.part.2
                0x08027c40       0x30 build/obj/engine_controller.o
 .text._ZL8getShorti
                0x08027c70       0x10 build/obj/engine_controller.o
 .text._ZL6getInti.part.3
                0x08027c80       0x30 build/obj/engine_controller.o
 .text._ZL6getInti
                0x08027cb0       0x10 build/obj/engine_controller.o
 .text._ZL8getFloati.part.4
                0x08027cc0       0x40 build/obj/engine_controller.o
 .text._ZL8getFloati
                0x08027d00       0x10 build/obj/engine_controller.o
 .text._ZL8setFloatPKcS0_
                0x08027d10       0x90 build/obj/engine_controller.o
 .text._ZL8setShortii
                0x08027da0       0x30 build/obj/engine_controller.o
 .text._ZL6setIntii
                0x08027dd0       0x30 build/obj/engine_controller.o
 .text.getTimeNowUs
                0x08027e00       0x20 build/obj/engine_controller.o
                0x08027e00                getTimeNowUs
 .text.getTimeNowNt
                0x08027e20       0x10 build/obj/engine_controller.o
                0x08027e20                getTimeNowNt
 .text.currentTimeMillis
                0x08027e30       0x10 build/obj/engine_controller.o
                0x08027e30                currentTimeMillis
 .text.getTimeNowSeconds
                0x08027e40       0x20 build/obj/engine_controller.o
                0x08027e40                getTimeNowSeconds
 .text._Z22getPinNameByAdcChannel13adc_channel_ePc
                0x08027e60       0x30 build/obj/engine_controller.o
                0x08027e60                getPinNameByAdcChannel(adc_channel_e, char*)
 .text._ZL12getKnockInfov
                0x08027e90       0x50 build/obj/engine_controller.o
 .text._ZL25printAnalogChannelInfoExtPKc13adc_channel_eff
                0x08027ee0       0xe0 build/obj/engine_controller.o
 .text._ZL22printAnalogChannelInfoPKc13adc_channel_e
                0x08027fc0       0x40 build/obj/engine_controller.o
 .text._ZL15printAnalogInfov
                0x08028000      0x1a0 build/obj/engine_controller.o
 .text._Z17initConfigActionsv
                0x080281a0       0xb0 build/obj/engine_controller.o
                0x080281a0                initConfigActions()
 .text._Z19initEngineContollerP7Logging
                0x08028250      0x180 build/obj/engine_controller.o
                0x08028250                initEngineContoller(Logging*)
 .text.resetLogging.part.0
                0x080283d0       0x10 build/obj/datalogging.o
 .text.append   0x080283e0       0x70 build/obj/datalogging.o
                0x080283e0                append
 .text.appendFast
                0x08028450       0x40 build/obj/datalogging.o
                0x08028450                appendFast
 .text.vappendPrintf
                0x08028490       0xb0 build/obj/datalogging.o
                0x08028490                vappendPrintf
 .text.appendPrintf
                0x08028540       0x50 build/obj/datalogging.o
                0x08028540                appendPrintf
 .text.initLoggingExt
                0x08028590       0x30 build/obj/datalogging.o
                0x08028590                initLoggingExt
 .text.debugInt
                0x080285c0       0x30 build/obj/datalogging.o
                0x080285c0                debugInt
 .text.appendFloat
                0x080285f0       0xd0 build/obj/datalogging.o
                0x080285f0                appendFloat
 .text.debugFloat
                0x080286c0       0x40 build/obj/datalogging.o
                0x080286c0                debugFloat
 .text.printWithLength
                0x08028700       0x70 build/obj/datalogging.o
                0x08028700                printWithLength
 .text.printLine
                0x08028770       0x20 build/obj/datalogging.o
                0x08028770                printLine
 .text.appendMsgPrefix
                0x08028790       0x10 build/obj/datalogging.o
                0x08028790                appendMsgPrefix
 .text.appendMsgPostfix
                0x080287a0       0x10 build/obj/datalogging.o
                0x080287a0                appendMsgPostfix
 .text.resetLogging
                0x080287b0       0x10 build/obj/datalogging.o
                0x080287b0                resetLogging
 .text.printMsg
                0x080287c0       0x70 build/obj/datalogging.o
                0x080287c0                printMsg
 .text.scheduleMsg
                0x08028830       0x90 build/obj/datalogging.o
                0x08028830                scheduleMsg
 .text.remainingSize
                0x080288c0       0x10 build/obj/datalogging.o
                0x080288c0                remainingSize
 .text.initIntermediateLoggingBuffer
                0x080288d0       0x30 build/obj/datalogging.o
                0x080288d0                initIntermediateLoggingBuffer
 .text._ZN7LoggingC2Ev
                0x08028900       0x10 build/obj/datalogging.o
                0x08028900                Logging::Logging()
                0x08028900                Logging::Logging()
 .text._ZN7LoggingC2EPKcPci
                0x08028910       0x30 build/obj/datalogging.o
                0x08028910                Logging::Logging(char const*, char*, int)
                0x08028910                Logging::Logging(char const*, char*, int)
 .text._ZN18LoggingWithStorageC2EPKc
                0x08028940       0x40 build/obj/datalogging.o
                0x08028940                LoggingWithStorage::LoggingWithStorage(char const*)
                0x08028940                LoggingWithStorage::LoggingWithStorage(char const*)
 .text.scheduleLogging
                0x08028980       0x60 build/obj/loggingcentral.o
                0x08028980                scheduleLogging
 .text._Z17swapOutputBuffersPi
                0x080289e0       0x60 build/obj/loggingcentral.o
                0x080289e0                swapOutputBuffers(int*)
 .text.printPending
                0x08028a40       0x30 build/obj/loggingcentral.o
                0x08028a40                printPending
 .text._Z18initLoggingCentralv
                0x08028a70       0x40 build/obj/loggingcentral.o
                0x08028a70                initLoggingCentral()
 .text._ZN16IntListenerArrayC2Ev
                0x08028ab0       0x30 build/obj/listener_array.o
                0x08028ab0                IntListenerArray::IntListenerArray()
                0x08028ab0                IntListenerArray::IntListenerArray()
 .text._ZN16IntListenerArray16registerCallbackEPFviEPv
                0x08028ae0       0x30 build/obj/listener_array.o
                0x08028ae0                IntListenerArray::registerCallback(void (*)(int), void*)
 .text._ZN16IntListenerArray22invokeJustArgCallbacksEv
                0x08028b10       0x20 build/obj/listener_array.o
                0x08028b10                IntListenerArray::invokeJustArgCallbacks()
 .text._Z14clearCallbacksP16IntListenerArray
                0x08028b30       0x10 build/obj/listener_array.o
                0x08028b30                clearCallbacks(IntListenerArray*)
 .text._ZL11doAddActionPKc13action_type_ePFvvEPv
                0x08028b40       0x40 build/obj/cli_registry.o
 .text._ZL4echoi
                0x08028b80       0x10 build/obj/cli_registry.o
 .text.helpCommand
                0x08028b90       0xa0 build/obj/cli_registry.o
                0x08028b90                helpCommand
 .text.addConsoleActionP
                0x08028c30       0x10 build/obj/cli_registry.o
                0x08028c30                addConsoleActionP
 .text.addConsoleActionSSP
                0x08028c40       0x10 build/obj/cli_registry.o
                0x08028c40                addConsoleActionSSP
 .text.addConsoleAction
                0x08028c50       0x10 build/obj/cli_registry.o
                0x08028c50                addConsoleAction
 .text.addConsoleActionI
                0x08028c60       0x10 build/obj/cli_registry.o
                0x08028c60                addConsoleActionI
 .text.addConsoleActionIP
                0x08028c70       0x10 build/obj/cli_registry.o
                0x08028c70                addConsoleActionIP
 .text.addConsoleActionII
                0x08028c80       0x10 build/obj/cli_registry.o
                0x08028c80                addConsoleActionII
 .text.addConsoleActionS
                0x08028c90       0x10 build/obj/cli_registry.o
                0x08028c90                addConsoleActionS
 .text.addConsoleActionSP
                0x08028ca0       0x10 build/obj/cli_registry.o
                0x08028ca0                addConsoleActionSP
 .text.addConsoleActionSS
                0x08028cb0       0x10 build/obj/cli_registry.o
                0x08028cb0                addConsoleActionSS
 .text.addConsoleActionSSS
                0x08028cc0       0x10 build/obj/cli_registry.o
                0x08028cc0                addConsoleActionSSS
 .text.addConsoleActionSSSSS
                0x08028cd0       0x10 build/obj/cli_registry.o
                0x08028cd0                addConsoleActionSSSSS
 .text.addConsoleActionF
                0x08028ce0       0x10 build/obj/cli_registry.o
                0x08028ce0                addConsoleActionF
 .text.addConsoleActionFF
                0x08028cf0       0x10 build/obj/cli_registry.o
                0x08028cf0                addConsoleActionFF
 .text.unquote  0x08028d00       0x30 build/obj/cli_registry.o
                0x08028d00                unquote
 .text.findEndOfToken
                0x08028d30       0x30 build/obj/cli_registry.o
                0x08028d30                findEndOfToken
 .text._Z25handleActionWithParameterP13TokenCallbackPc
                0x08028d60      0x210 build/obj/cli_registry.o
                0x08028d60                handleActionWithParameter(TokenCallback*, char*)
 .text.initConsoleLogic
                0x08028f70       0x40 build/obj/cli_registry.o
                0x08028f70                initConsoleLogic
 .text.validateSecureLine
                0x08028fb0       0x80 build/obj/cli_registry.o
                0x08028fb0                validateSecureLine
 .text.handleConsoleLine
                0x08029030      0x170 build/obj/cli_registry.o
                0x08029030                handleConsoleLine
 .text._ZL13ltoa_internalPclj.constprop.1
                0x080291a0       0x50 build/obj/efilib.o
 .text._Z12boolToStringb
                0x080291f0       0x20 build/obj/efilib.o
                0x080291f0                boolToString(bool)
 .text.minI     0x08029210       0x10 build/obj/efilib.o
                0x08029210                minI
 .text.efiRound
                0x08029220       0x20 build/obj/efilib.o
                0x08029220                efiRound
 .text.absF     0x08029240       0x20 build/obj/efilib.o
                0x08029240                absF
 .text.absI     0x08029260       0x10 build/obj/efilib.o
                0x08029260                absI
 .text.maxI     0x08029270       0x10 build/obj/efilib.o
                0x08029270                maxI
 .text.maxF     0x08029280       0x20 build/obj/efilib.o
                0x08029280                maxF
 .text.minF     0x080292a0       0x20 build/obj/efilib.o
                0x080292a0                minF
 .text.efiStrlen
                0x080292c0       0x20 build/obj/efilib.o
                0x080292c0                efiStrlen
 .text.efiTrim  0x080292e0       0x50 build/obj/efilib.o
                0x080292e0                efiTrim
 .text.indexOf  0x08029330       0x40 build/obj/efilib.o
                0x08029330                indexOf
 .text.atoi     0x08029370       0x70 build/obj/efilib.o
                0x08029370                atoi
 .text.itoa10   0x080293e0       0x20 build/obj/efilib.o
                0x080293e0                itoa10
 .text.isSameF  0x08029400       0x40 build/obj/efilib.o
                0x08029400                isSameF
 .text.efiPow10
                0x08029440       0x60 build/obj/efilib.o
                0x08029440                efiPow10
 .text.atoff    0x080294a0      0x130 build/obj/efilib.o
                0x080294a0                atoff
 .text.strEqualCaseInsensitive
                0x080295d0       0x60 build/obj/efilib.o
                0x080295d0                strEqualCaseInsensitive
 .text.strEqual
                0x08029630       0x50 build/obj/efilib.o
                0x08029630                strEqual
 .text._Z14printHistogramP7LoggingP11histogram_s
                0x08029680       0x10 build/obj/efilib.o
                0x08029680                printHistogram(Logging*, histogram_s*)
 .text._ZN17Overflow64CounterC2Ev
                0x08029690       0x20 build/obj/efilib2.o
                0x08029690                Overflow64Counter::Overflow64Counter()
                0x08029690                Overflow64Counter::Overflow64Counter()
 .text._Z12updateAndSetP7State64m
                0x080296b0       0x20 build/obj/efilib2.o
                0x080296b0                updateAndSet(State64*, unsigned long)
 .text._ZN17Overflow64Counter3getEv
                0x080296d0       0x40 build/obj/efilib2.o
                0x080296d0                Overflow64Counter::get()
 .text._ZN18LocalVersionHolderC2Ev
                0x08029710       0x10 build/obj/LocalVersionHolder.o
                0x08029710                LocalVersionHolder::LocalVersionHolder()
                0x08029710                LocalVersionHolder::LocalVersionHolder()
 .text._ZN18LocalVersionHolder10getVersionEv
                0x08029720       0x10 build/obj/LocalVersionHolder.o
                0x08029720                LocalVersionHolder::getVersion()
 .text._ZN18LocalVersionHolder5isOldEv
                0x08029730       0x20 build/obj/LocalVersionHolder.o
                0x08029730                LocalVersionHolder::isOld()
 .text._ZN13single_wave_sC2Ev
                0x08029750       0x10 build/obj/EfiWave.o
                0x08029750                single_wave_s::single_wave_s()
                0x08029750                single_wave_s::single_wave_s()
 .text._ZN13single_wave_sC2EPa
                0x08029760       0x10 build/obj/EfiWave.o
                0x08029760                single_wave_s::single_wave_s(signed char*)
                0x08029760                single_wave_s::single_wave_s(signed char*)
 .text._ZN13single_wave_s4initEPa
                0x08029770       0x10 build/obj/EfiWave.o
                0x08029770                single_wave_s::init(signed char*)
 .text._ZN12multi_wave_sC2Ev
                0x08029780       0x10 build/obj/EfiWave.o
                0x08029780                multi_wave_s::multi_wave_s()
                0x08029780                multi_wave_s::multi_wave_s()
 .text._ZN12multi_wave_sC2EPfP13single_wave_s
                0x08029790       0x10 build/obj/EfiWave.o
                0x08029790                multi_wave_s::multi_wave_s(float*, single_wave_s*)
                0x08029790                multi_wave_s::multi_wave_s(float*, single_wave_s*)
 .text._ZN12multi_wave_s4initEPfP13single_wave_s
                0x080297a0       0x10 build/obj/EfiWave.o
                0x080297a0                multi_wave_s::init(float*, single_wave_s*)
 .text._ZN12multi_wave_s5resetEv
                0x080297b0       0x10 build/obj/EfiWave.o
                0x080297b0                multi_wave_s::reset()
 .text._ZNK12multi_wave_s13getSwitchTimeEi
                0x080297c0       0x10 build/obj/EfiWave.o
                0x080297c0                multi_wave_s::getSwitchTime(int) const
 .text._Z17checkSwitchTimes2iPf
                0x080297d0       0x70 build/obj/EfiWave.o
                0x080297d0                checkSwitchTimes2(int, float*)
 .text._Z12setTableBin2Pfifff
                0x08029840       0x60 build/obj/table_helper.o
                0x08029840                setTableBin2(float*, int, float, float, float)
 .text._Z11setTableBinPfiff
                0x080298a0       0x20 build/obj/table_helper.o
                0x080298a0                setTableBin(float*, int, float, float)
 .text._Z14setRpmTableBinPfi
                0x080298c0       0x30 build/obj/table_helper.o
                0x080298c0                setRpmTableBin(float*, int)
 .text._ZN17LENameOrdinalPairC2E11le_action_ePKc
                0x080298f0       0x20 build/obj/fsio_core.o
                0x080298f0                LENameOrdinalPair::LENameOrdinalPair(le_action_e, char const*)
                0x080298f0                LENameOrdinalPair::LENameOrdinalPair(le_action_e, char const*)
 .text._ZN9LEElementC2Ev
                0x08029910       0x20 build/obj/fsio_core.o
                0x08029910                LEElement::LEElement()
                0x08029910                LEElement::LEElement()
 .text._ZN12LECalculatorC2Ev
                0x08029930       0x20 build/obj/fsio_core.o
                0x08029930                LECalculator::LECalculator()
                0x08029930                LECalculator::LECalculator()
 .text._ZN12LECalculator3popE11le_action_e
                0x08029950       0x30 build/obj/fsio_core.o
                0x08029950                LECalculator::pop(le_action_e)
 .text._ZN12LECalculator5doJobEP6EngineP9LEElement
                0x08029980      0x4b0 build/obj/fsio_core.o
                0x08029980                LECalculator::doJob(Engine*, LEElement*)
 .text._ZN12LECalculator8getValueEP6Engine
                0x08029e30       0x80 build/obj/fsio_core.o
                0x08029e30                LECalculator::getValue(Engine*)
 .text._ZN12LECalculator9getValue2EP9LEElementP6Engine
                0x08029eb0       0x20 build/obj/fsio_core.o
                0x08029eb0                LECalculator::getValue2(LEElement*, Engine*)
 .text._ZN13LEElementPoolC2EP9LEElementi
                0x08029ed0       0x10 build/obj/fsio_core.o
                0x08029ed0                LEElementPool::LEElementPool(LEElement*, int)
                0x08029ed0                LEElementPool::LEElementPool(LEElement*, int)
 .text._ZN13LEElementPool5resetEv
                0x08029ee0       0x10 build/obj/fsio_core.o
                0x08029ee0                LEElementPool::reset()
 .text._ZN13LEElementPool7getSizeEv
                0x08029ef0       0x10 build/obj/fsio_core.o
                0x08029ef0                LEElementPool::getSize()
 .text._ZN13LEElementPool4nextEv
                0x08029f00       0x30 build/obj/fsio_core.o
                0x08029f00                LEElementPool::next()
 .text._Z12getNextTokenPKcPci
                0x08029f30       0x60 build/obj/fsio_core.o
                0x08029f30                getNextToken(char const*, char*, int)
 .text._Z11parseActionPKc
                0x08029f90       0x30 build/obj/fsio_core.o
                0x08029f90                parseAction(char const*)
 .text._ZN13LEElementPool15parseExpressionEPKc
                0x08029fc0       0xa0 build/obj/fsio_core.o
                0x08029fc0                LEElementPool::parseExpression(char const*)
 .text._ZN17FastInterpolationC2Ev
                0x0802a060       0x10 build/obj/interpolation.o
                0x0802a060                FastInterpolation::FastInterpolation()
                0x0802a060                FastInterpolation::FastInterpolation()
 .text._ZN17FastInterpolationC2Effff
                0x0802a070       0x80 build/obj/interpolation.o
                0x0802a070                FastInterpolation::FastInterpolation(float, float, float, float)
                0x0802a070                FastInterpolation::FastInterpolation(float, float, float, float)
 .text._ZN17FastInterpolation4initEffff
                0x0802a0f0       0x70 build/obj/interpolation.o
                0x0802a0f0                FastInterpolation::init(float, float, float, float)
 .text._ZN17FastInterpolation8getValueEf
                0x0802a160       0x20 build/obj/interpolation.o
                0x0802a160                FastInterpolation::getValue(float)
 .text._Z11interpolatefffff
                0x0802a180       0x90 build/obj/interpolation.o
                0x0802a180                interpolate(float, float, float, float, float)
 .text._Z10findIndex2PKfjf
                0x0802a210       0x90 build/obj/interpolation.o
                0x0802a210                findIndex2(float const*, unsigned int, float)
 .text._Z9findIndexPKfif
                0x0802a2a0       0x80 build/obj/interpolation.o
                0x0802a2a0                findIndex(float const*, int, float)
 .text._ZL10testBinaryv
                0x0802a320       0xd0 build/obj/interpolation.o
 .text._Z13interpolate2dfPfS_i
                0x0802a3f0       0x60 build/obj/interpolation.o
                0x0802a3f0                interpolate2d(float, float*, float*, int)
 .text._Z13interpolate3dfPfifS_iPS_
                0x0802a450      0x190 build/obj/interpolation.o
                0x0802a450                interpolate3d(float, float*, int, float, float*, int, float**)
 .text._Z13setTableValuePfS_iff
                0x0802a5e0       0x20 build/obj/interpolation.o
                0x0802a5e0                setTableValue(float*, float*, int, float, float)
 .text._Z17initInterpolationP7Logging
                0x0802a600       0x20 build/obj/interpolation.o
                0x0802a600                initInterpolation(Logging*)
 .text._ZL8showFsioPKcP9LEElement
                0x0802a620       0x60 build/obj/fsio_impl.o
 .text._ZL16setFsioFrequencyii
                0x0802a680       0x50 build/obj/fsio_impl.o
 .text._ZL12showFsioInfov
                0x0802a6d0      0x1b0 build/obj/fsio_impl.o
 .text._ZL14setFsioSettingff
                0x0802a880       0x40 build/obj/fsio_impl.o
 .text._ZL11setPinStatePKcP9OutputPinP9LEElementP6Engine
                0x0802a8c0       0xb0 build/obj/fsio_impl.o
 .text._ZL4evalPcP6Engine
                0x0802a970       0x80 build/obj/fsio_impl.o
 .text._ZL15setFsioInputPinPKcS0_
                0x0802a9f0       0x90 build/obj/fsio_impl.o
 .text._ZL16setFsioOutputPinPKcS0_
                0x0802aa80       0x90 build/obj/fsio_impl.o
 .text._Z10getLEValueP6EngineP7FLStackIfLi32EE11le_action_e
                0x0802ab10       0xa0 build/obj/fsio_impl.o
                0x0802ab10                getLEValue(Engine*, FLStack<float, 32>*, le_action_e)
 .text._Z10setFsioExti11brain_pin_ePKci
                0x0802abb0       0x60 build/obj/fsio_impl.o
                0x0802abb0                setFsioExt(int, brain_pin_e, char const*, int)
 .text._Z7setFsioi11brain_pin_ePKc
                0x0802ac10       0x10 build/obj/fsio_impl.o
                0x0802ac10                setFsio(int, brain_pin_e, char const*)
 .text._Z22applyFsioConfigurationv
                0x0802ac20       0x80 build/obj/fsio_impl.o
                0x0802ac20                applyFsioConfiguration()
 .text._ZL17setFsioExpressionPKcS0_P6Engine
                0x0802aca0       0xa0 build/obj/fsio_impl.o
 .text._Z7runFsiov
                0x0802ad40      0x1a0 build/obj/fsio_impl.o
                0x0802ad40                runFsio()
 .text._Z12initFsioImplP7LoggingP6Engine
                0x0802aee0      0x230 build/obj/fsio_impl.o
                0x0802aee0                initFsioImpl(Logging*, Engine*)
 .text._Z14getEngineLoadTv
                0x0802b110       0xe0 build/obj/engine_math.o
                0x0802b110                getEngineLoadT()
 .text._Z18setSingleCoilDwellP22engine_configuration_s
                0x0802b1f0       0x60 build/obj/engine_math.o
                0x0802b1f0                setSingleCoilDwell(engine_configuration_s*)
 .text._ZN12FuelScheduleC2Ev
                0x0802b250       0x50 build/obj/engine_math.o
                0x0802b250                FuelSchedule::FuelSchedule()
                0x0802b250                FuelSchedule::FuelSchedule()
 .text._Z16getSparkDwellMsTi
                0x0802b2a0       0xb0 build/obj/engine_math.o
                0x0802b2a0                getSparkDwellMsT(int)
 .text._Z19findTriggerPositionP24event_trigger_position_sf
                0x0802b350      0x100 build/obj/engine_math.o
                0x0802b350                findTriggerPosition(event_trigger_position_s*, float)
 .text._Z25initializeIgnitionActionsffP9ArrayListI13IgnitionEventLi80EE
                0x0802b450       0xd0 build/obj/engine_math.o
                0x0802b450                initializeIgnitionActions(float, float, ArrayList<IgnitionEvent, 80>*)
 .text._ZN12FuelSchedule22registerInjectionEventEP14NamedOutputPinfb
                0x0802b520       0xa0 build/obj/engine_math.o
                0x0802b520                FuelSchedule::registerInjectionEvent(NamedOutputPin*, float, bool)
 .text._Z13getCylinderId14firing_order_ei
                0x0802b5c0       0xa0 build/obj/engine_math.o
                0x0802b5c0                getCylinderId(firing_order_e, int)
 .text._ZN12FuelSchedule13addFuelEventsE16injection_mode_e
                0x0802b660      0x240 build/obj/engine_math.o
                0x0802b660                FuelSchedule::addFuelEvents(injection_mode_e)
 .text._Z20prepareOutputSignalsv
                0x0802b8a0      0x1a0 build/obj/engine_math.o
                0x0802b8a0                prepareOutputSignals()
 .text._Z13setFuelRpmBinff
                0x0802ba40       0x20 build/obj/engine_math.o
                0x0802ba40                setFuelRpmBin(float, float)
 .text._Z14setFuelLoadBinff
                0x0802ba60       0x20 build/obj/engine_math.o
                0x0802ba60                setFuelLoadBin(float, float)
 .text._Z15setTimingRpmBinff
                0x0802ba80       0x20 build/obj/engine_math.o
                0x0802ba80                setTimingRpmBin(float, float)
 .text._Z16setTimingLoadBinff
                0x0802baa0       0x20 build/obj/engine_math.o
                0x0802baa0                setTimingLoadBin(float, float)
 .text._Z18isInjectionEnabledP22engine_configuration_s
                0x0802bac0       0x10 build/obj/engine_math.o
                0x0802bac0                isInjectionEnabled(engine_configuration_s*)
 .text._Z12setAlgorithm18engine_load_mode_e
                0x0802bad0       0x60 build/obj/engine_math.o
                0x0802bad0                setAlgorithm(engine_load_mode_e)
 .text._ZN3PidC2Efffff
                0x0802bb30       0x20 build/obj/pid.o
                0x0802bb30                Pid::Pid(float, float, float, float, float)
                0x0802bb30                Pid::Pid(float, float, float, float, float)
 .text._ZN3Pid8getValueEfff
                0x0802bb50       0x80 build/obj/pid.o
                0x0802bb50                Pid::getValue(float, float, float)
 .text._ZN3Pid13updateFactorsEfff
                0x0802bbd0       0x20 build/obj/pid.o
                0x0802bbd0                Pid::updateFactors(float, float, float)
 .text._ZN3Pid4getPEv
                0x0802bbf0       0x10 build/obj/pid.o
                0x0802bbf0                Pid::getP()
 .text._ZN3Pid4getIEv
                0x0802bc00       0x10 build/obj/pid.o
                0x0802bc00                Pid::getI()
 .text._ZN3Pid14getIntegrationEv
                0x0802bc10       0x10 build/obj/pid.o
                0x0802bc10                Pid::getIntegration()
 .text._ZN3Pid4getDEv
                0x0802bc20       0x10 build/obj/pid.o
                0x0802bc20                Pid::getD()
 .text._Z10getTChargeifff
                0x0802bc30       0x90 build/obj/speed_density.o
                0x0802bc30                getTCharge(int, float, float, float)
 .text._Z6sdMathP22engine_configuration_sffff
                0x0802bcc0       0xa0 build/obj/speed_density.o
                0x0802bcc0                sdMath(engine_configuration_s*, float, float, float, float)
 .text._Z19getSpeedDensityFueli
                0x0802bd60       0x70 build/obj/speed_density.o
                0x0802bd60                getSpeedDensityFuel(int)
 .text._Z16initSpeedDensityv
                0x0802bdd0       0xd0 build/obj/speed_density.o
                0x0802bdd0                initSpeedDensity()
 .text._ZN5Map3DILi16ELi16EE6setAllEf
                0x0802bea0       0x40 build/obj/speed_density.o
                0x0802bea0                Map3D<16, 16>::setAll(float)
 .text._Z17setDefaultVETablev
                0x0802bee0       0xb0 build/obj/speed_density.o
                0x0802bee0                setDefaultVETable()
 .text._ZL9rebootNowv
                0x0802bf90       0x30 build/obj/rusefi.o
 .text._ZL14scheduleRebootv
                0x0802bfc0       0x40 build/obj/rusefi.o
 .text.applyNewConfiguration
                0x0802c000       0x30 build/obj/rusefi.o
                0x0802c000                applyNewConfiguration
 .text.chDbgStackOverflowPanic
                0x0802c030       0x40 build/obj/rusefi.o
                0x0802c030                chDbgStackOverflowPanic
 .text.firmwareError
                0x0802c070       0x80 build/obj/rusefi.o
                0x0802c070                firmwareError
 .text.runRusEfi
                0x0802c0f0      0x130 build/obj/rusefi.o
                0x0802c0f0                runRusEfi
 .text.getRusEfiVersion
                0x0802c220       0x10 build/obj/rusefi.o
                0x0802c220                getRusEfiVersion
 *(.rodata)
 .rodata        0x0802c230       0x60 c:/progra~2/codesourcery/sourcery_codebench_lite_for_arm_eabi/bin/../lib/gcc/arm-none-eabi/4.8.1/../../../../arm-none-eabi/lib/thumb2\libc.a(lib_a-mktime.o)
 .rodata        0x0802c290       0x68 c:/progra~2/codesourcery/sourcery_codebench_lite_for_arm_eabi/bin/../lib/gcc/arm-none-eabi/4.8.1/../../../../arm-none-eabi/lib/thumb2\libc.a(lib_a-mktm_r.o)
 *(.rodata.*)
 *fill*         0x0802c2f8        0x8 
 .rodata.str1.4
                0x0802c300        0x5 build/obj/chsys.o
                                  0x8 (size before relaxing)
 *fill*         0x0802c305        0xb 
 .rodata.str1.4
                0x0802c310       0xbe build/obj/chdebug.o
                                 0xc0 (size before relaxing)
 *fill*         0x0802c3ce        0x2 
 .rodata.str1.4
                0x0802c3d0       0x51 build/obj/chvt.o
                                 0x54 (size before relaxing)
 *fill*         0x0802c421        0xf 
 .rodata.str1.4
                0x0802c430       0x12 build/obj/chschd.o
                                 0x14 (size before relaxing)
 *fill*         0x0802c442        0xe 
 .rodata.str1.4
                0x0802c450       0x85 build/obj/chthreads.o
                                 0x88 (size before relaxing)
 *fill*         0x0802c4d5        0xb 
 .rodata.ch_debug
                0x0802c4e0       0x18 build/obj/chregistry.o
                0x0802c4e0                ch_debug
 *fill*         0x0802c4f8        0x8 
 .rodata.str1.4
                0x0802c500      0x123 build/obj/chsem.o
                                0x124 (size before relaxing)
 *fill*         0x0802c623        0xd 
 .rodata.str1.4
                0x0802c630       0xcb build/obj/chmtx.o
                                 0xcc (size before relaxing)
 *fill*         0x0802c6fb        0x5 
 .rodata.str1.4
                0x0802c700       0xb4 build/obj/chevents.o
 *fill*         0x0802c7b4        0xc 
 .rodata.str1.4
                0x0802c7c0       0x4d build/obj/chqueues.o
                                 0x50 (size before relaxing)
 *fill*         0x0802c80d        0x3 
 .rodata.str1.4
                0x0802c810       0x51 build/obj/chheap.o
                                 0x54 (size before relaxing)
 *fill*         0x0802c861        0xf 
 .rodata.str1.4
                0x0802c870       0x13 build/obj/chprintf.o
                                 0x14 (size before relaxing)
 *fill*         0x0802c883        0xd 
 .rodata.vmt    0x0802c890       0x10 build/obj/memstreams.o
 .rodata.crc32_tab
                0x0802c8a0      0x400 build/obj/crc.o
 .rodata.str1.4
                0x0802cca0      0x12a build/obj/adc.o
                                0x12c (size before relaxing)
 *fill*         0x0802cdca        0x6 
 .rodata.str1.4
                0x0802cdd0       0xe0 build/obj/can.o
 .rodata.str1.4
                0x0802ceb0       0xe9 build/obj/ext.o
                                 0xec (size before relaxing)
 *fill*         0x0802cf99        0x7 
 .rodata.str1.4
                0x0802cfa0      0x129 build/obj/gpt.o
                                0x12c (size before relaxing)
 *fill*         0x0802d0c9        0x7 
 .rodata.str1.4
                0x0802d0d0       0x99 build/obj/icu.o
                                 0x9c (size before relaxing)
 *fill*         0x0802d169        0x7 
 .rodata.crc7_lookup_table
                0x0802d170      0x100 build/obj/mmc_spi.o
 .rodata.start.8618
                0x0802d270        0x4 build/obj/mmc_spi.o
 *fill*         0x0802d274        0xc 
 .rodata.mmc_vmt
                0x0802d280       0x20 build/obj/mmc_spi.o
 .rodata.str1.4
                0x0802d2a0      0x1b1 build/obj/mmc_spi.o
                                0x1b4 (size before relaxing)
 *fill*         0x0802d451        0xf 
 .rodata.stopcmd.8609
                0x0802d460        0x8 build/obj/mmc_spi.o
 *fill*         0x0802d468        0x8 
 .rodata.stop.8623
                0x0802d470        0x4 build/obj/mmc_spi.o
 *fill*         0x0802d474        0xc 
 .rodata.str1.4
                0x0802d480       0x2f build/obj/mmcsd.o
                                 0x30 (size before relaxing)
 *fill*         0x0802d4af        0x1 
 .rodata.str1.4
                0x0802d4b0       0xcc build/obj/pwm.o
 *fill*         0x0802d57c        0x4 
 .rodata.str1.4
                0x0802d580       0x5c build/obj/rtc.o
 *fill*         0x0802d5dc        0x4 
 .rodata.str1.4
                0x0802d5e0       0x7b build/obj/serial.o
                                 0x7c (size before relaxing)
 *fill*         0x0802d65b        0x5 
 .rodata.vmt    0x0802d660       0x20 build/obj/serial.o
 .rodata.str1.4
                0x0802d680       0x4e build/obj/serial_usb.o
                                 0x50 (size before relaxing)
 *fill*         0x0802d6ce        0x2 
 .rodata.vmt    0x0802d6d0       0x20 build/obj/serial_usb.o
 .rodata.str1.4
                0x0802d6f0      0x252 build/obj/spi.o
                                0x254 (size before relaxing)
 *fill*         0x0802d942        0xe 
 .rodata.zero_status
                0x0802d950        0x4 build/obj/usb.o
 *fill*         0x0802d954        0xc 
 .rodata.active_status
                0x0802d960        0x4 build/obj/usb.o
 *fill*         0x0802d964        0xc 
 .rodata.str1.4
                0x0802d970      0x13e build/obj/usb.o
                                0x140 (size before relaxing)
 *fill*         0x0802daae        0x2 
 .rodata.halted_status
                0x0802dab0        0x4 build/obj/usb.o
 *fill*         0x0802dab4        0xc 
 .rodata.ep1config
                0x0802dac0       0x24 build/obj/usbcfg.o
 *fill*         0x0802dae4        0xc 
 .rodata.vcom_configuration_descriptor
                0x0802daf0        0x8 build/obj/usbcfg.o
 *fill*         0x0802daf8        0x8 
 .rodata.ep2config
                0x0802db00       0x24 build/obj/usbcfg.o
 *fill*         0x0802db24        0xc 
 .rodata.usbcfg
                0x0802db30       0x10 build/obj/usbcfg.o
                0x0802db30                usbcfg
 .rodata.vcom_configuration_descriptor_data
                0x0802db40       0x44 build/obj/usbcfg.o
 *fill*         0x0802db84        0xc 
 .rodata.vcom_device_descriptor_data
                0x0802db90       0x14 build/obj/usbcfg.o
 *fill*         0x0802dba4        0xc 
 .rodata.vcom_string0
                0x0802dbb0        0x4 build/obj/usbcfg.o
 *fill*         0x0802dbb4        0xc 
 .rodata.vcom_string1
                0x0802dbc0       0x28 build/obj/usbcfg.o
 *fill*         0x0802dbe8        0x8 
 .rodata.vcom_string2
                0x0802dbf0       0x38 build/obj/usbcfg.o
 *fill*         0x0802dc28        0x8 
 .rodata.vcom_string3
                0x0802dc30        0x8 build/obj/usbcfg.o
 *fill*         0x0802dc38        0x8 
 .rodata.vcom_strings
                0x0802dc40       0x20 build/obj/usbcfg.o
 .rodata.serusbcfg
                0x0802dc60        0x8 build/obj/usbcfg.o
                0x0802dc60                serusbcfg
 *fill*         0x0802dc68        0x8 
 .rodata.vcom_device_descriptor
                0x0802dc70        0x8 build/obj/usbcfg.o
 *fill*         0x0802dc78        0x8 
 .rodata.str1.4
                0x0802dc80        0xf build/obj/nmea.o
                                 0x10 (size before relaxing)
 *fill*         0x0802dc8f        0x1 
 .rodata.str1.4
                0x0802dc90       0x77 build/obj/stm32_dma.o
                                 0x78 (size before relaxing)
 *fill*         0x0802dd07        0x9 
 .rodata._stm32_dma_streams
                0x0802dd10       0xc0 build/obj/stm32_dma.o
                0x0802dd10                _stm32_dma_streams
 .rodata.str1.4
                0x0802ddd0       0x30 build/obj/adc_lld.o
 .rodata.str1.4
                0x0802de00       0xa1 build/obj/can_lld.o
                                 0xa4 (size before relaxing)
 *fill*         0x0802dea1        0xf 
 .rodata.fsparams
                0x0802deb0        0xc build/obj/usb_lld.o
 *fill*         0x0802debc        0x4 
 .rodata.str1.4
                0x0802dec0       0x25 build/obj/usb_lld.o
                                 0x28 (size before relaxing)
 *fill*         0x0802dee5        0xb 
 .rodata.ep0config
                0x0802def0       0x24 build/obj/usb_lld.o
 *fill*         0x0802df14        0xc 
 .rodata.str1.4
                0x0802df20       0x78 build/obj/spi_lld.o
 *fill*         0x0802df98        0x8 
 .rodata.str1.4
                0x0802dfa0       0x14 build/obj/gpt_lld.o
 *fill*         0x0802dfb4        0xc 
 .rodata.str1.4
                0x0802dfc0       0x14 build/obj/icu_lld.o
 *fill*         0x0802dfd4        0xc 
 .rodata.str1.4
                0x0802dfe0       0x14 build/obj/pwm_lld.o
 *fill*         0x0802dff4        0xc 
 .rodata.default_config
                0x0802e000        0xc build/obj/serial_lld.o
 *fill*         0x0802e00c        0x4 
 .rodata.pal_default_config
                0x0802e010       0xfc build/obj/board.o
                0x0802e010                pal_default_config
 *fill*         0x0802e10c        0x4 
 .rodata.excvt.5263
                0x0802e110       0x80 build/obj/ff.o
 .rodata.str1.4
                0x0802e190       0x13 build/obj/ff.o
                                 0x14 (size before relaxing)
 *fill*         0x0802e1a3        0xd 
 .rodata.LfnOfs
                0x0802e1b0       0x10 build/obj/ff.o
 .rodata.tbl_upper.5014
                0x0802e1c0      0x1e0 build/obj/ccsbcs.o
 .rodata.Tbl    0x0802e3a0      0x100 build/obj/ccsbcs.o
 .rodata.tbl_lower.5013
                0x0802e4a0      0x1e0 build/obj/ccsbcs.o
 .rodata.str1.4
                0x0802e680       0x96 build/obj/trigger_emulator_algo.o
                                 0x9c (size before relaxing)
 *fill*         0x0802e716        0xa 
 .rodata._ZL9isUpEvent
                0x0802e720        0x8 build/obj/trigger_emulator_algo.o
 *fill*         0x0802e728        0x8 
 .rodata.str1.4
                0x0802e730       0x55 build/obj/rpm_calculator.o
                                 0x5c (size before relaxing)
 *fill*         0x0802e785        0xb 
 .rodata.str1.4
                0x0802e790      0x47b build/obj/trigger_central.o
                                0x494 (size before relaxing)
 *fill*         0x0802ec0b        0x5 
 .rodata._ZL7eventId
                0x0802ec10       0x18 build/obj/trigger_central.o
 *fill*         0x0802ec28        0x8 
 .rodata._ZL9isUpEvent
                0x0802ec30        0x8 build/obj/trigger_central.o
 *fill*         0x0802ec38        0x8 
 .rodata.str1.4
                0x0802ec40      0x276 build/obj/main_trigger_callback.o
                                0x278 (size before relaxing)
 *fill*         0x0802eeb6        0xa 
 .rodata.str1.4
                0x0802eec0       0x11 build/obj/trigger_bmw.o
                                 0x14 (size before relaxing)
 *fill*         0x0802eed1        0xf 
 .rodata.str1.4
                0x0802eee0       0xca build/obj/trigger_structure.o
                                 0xcc (size before relaxing)
 *fill*         0x0802efaa        0x6 
 .rodata._ZL10eventIndex
                0x0802efb0        0x8 build/obj/trigger_decoder.o
 *fill*         0x0802efb8        0x8 
 .rodata.str1.4
                0x0802efc0      0x188 build/obj/trigger_decoder.o
 *fill*         0x0802f148        0x8 
 .rodata.str1.4
                0x0802f150       0x40 build/obj/trigger_emulator.o
 .rodata.str1.4
                0x0802f190       0x4a build/obj/poten.o
                                 0x4c (size before relaxing)
 *fill*         0x0802f1da        0x6 
 .rodata.str1.4
                0x0802f1e0       0x41 build/obj/sensor_chart.o
                                 0x44 (size before relaxing)
 *fill*         0x0802f221        0xf 
 .rodata.str1.4
                0x0802f230       0xf2 build/obj/wave_chart.o
                                 0xf8 (size before relaxing)
 *fill*         0x0802f322        0xe 
 .rodata.str1.4
                0x0802f330       0xc9 build/obj/wave_analyzer.o
                                 0xf0 (size before relaxing)
 *fill*         0x0802f3f9        0x7 
 .rodata._ZL16defaultIatTiming
                0x0802f400      0x400 build/obj/advance_map.o
 .rodata.str1.4
                0x0802f800       0x3c build/obj/advance_map.o
                                 0x50 (size before relaxing)
 *fill*         0x0802f83c        0x4 
 .rodata._ZL16iatTimingRpmBins
                0x0802f840       0x40 build/obj/advance_map.o
 .rodata.str1.4
                0x0802f880       0xcd build/obj/idle_controller.o
                                 0xd0 (size before relaxing)
 *fill*         0x0802f94d        0x3 
 .rodata.str1.4
                0x0802f950      0xe14 build/obj/auto_generated_enums.o
 *fill*         0x08030764        0xc 
 .rodata.str1.4
                0x08030770       0x29 build/obj/fuel_math.o
                                 0x50 (size before relaxing)
 *fill*         0x08030799        0x7 
 .rodata.str1.4
                0x080307a0      0x12a build/obj/accel_enrichment.o
                                0x12c (size before relaxing)
 *fill*         0x080308ca        0x6 
 .rodata.str1.4
                0x080308d0       0x93 build/obj/engine_configuration.o
                                 0x9c (size before relaxing)
 *fill*         0x08030963        0xd 
 .rodata.str1.4
                0x08030970       0xd3 build/obj/engine.o
                                 0xf0 (size before relaxing)
 *fill*         0x08030a43        0xd 
 .rodata.str1.4
                0x08030a50       0xc7 build/obj/signal_executor.o
                                0x120 (size before relaxing)
 *fill*         0x08030b17        0x9 
 .rodata._ZL10sparkNames
                0x08030b20       0x30 build/obj/signal_executor.o
 .rodata._ZL13injectorNames
                0x08030b50       0x30 build/obj/signal_executor.o
 .rodata.str1.4
                0x08030b80       0xd5 build/obj/pwm_generator_logic.o
                                 0xd8 (size before relaxing)
 *fill*         0x08030c55        0xb 
 .rodata.str1.4
                0x08030c60       0x3b build/obj/event_queue.o
                                 0x70 (size before relaxing)
 .rodata.str1.4
                0x00000000       0x38 build/obj/efiGpio.o
 *fill*         0x08030c9b        0x5 
 .rodata.str1.4
                0x08030ca0       0x3b build/obj/SingleTimerExecutor.o
                                 0x3c (size before relaxing)
 *fill*         0x08030cdb        0x5 
 .rodata._ZL25default_aspire_fuel_table
                0x08030ce0      0x400 build/obj/ford_aspire.o
 .rodata._ZL27default_aspire_timing_table
                0x080310e0      0x400 build/obj/ford_aspire.o
 .rodata._ZL23miata_maf_advance_table
                0x080314e0      0x400 build/obj/mazda_miata.o
 .rodata._ZL20miata_maf_fuel_table
                0x080318e0      0x400 build/obj/mazda_miata.o
 .rodata._ZL14tps_fuel_table
                0x08031ce0      0x400 build/obj/citroenBerlingoTU3JP.o
 .rodata._ZL17tps_advance_table
                0x080320e0      0x400 build/obj/citroenBerlingoTU3JP.o
 .rodata._ZL14veDefaultTable
                0x080324e0      0x400 build/obj/dodge_neon.o
 .rodata.str1.4
                0x080328e0        0xf build/obj/dodge_neon.o
                                 0x10 (size before relaxing)
 *fill*         0x080328ef        0x1 
 .rodata._ZL10alphaNfuel
                0x080328f0      0x400 build/obj/dodge_neon.o
 .rodata._ZL8fromDyno
                0x08032cf0      0x400 build/obj/dodge_neon.o
 .rodata._ZL25default_139qmb_fuel_table
                0x080330f0      0x400 build/obj/GY6_139QMB.o
 .rodata.str1.4
                0x00000000        0x4 build/obj/mazda_626.o
 .rodata.str1.4
                0x080334f0        0xb build/obj/mitsubishi.o
                                  0xc (size before relaxing)
 *fill*         0x080334fb        0x5 
 .rodata._ZL9canConfig
                0x08033500        0x8 build/obj/can_hw.o
 *fill*         0x08033508        0x8 
 .rodata.str1.4
                0x08033510      0x113 build/obj/can_hw.o
                                0x118 (size before relaxing)
 *fill*         0x08033623        0xd 
 .rodata.CSWTCH.9
                0x08033630       0x14 build/obj/max31855.o
 *fill*         0x08033644        0xc 
 .rodata.str1.4
                0x08033650       0xba build/obj/max31855.o
                                 0xbc (size before relaxing)
 *fill*         0x0803370a        0x6 
 .rodata.str1.4
                0x08033710      0x166 build/obj/pin_repository.o
                                0x17c (size before relaxing)
 *fill*         0x08033876        0xa 
 .rodata._ZL5ports
                0x08033880       0x1c build/obj/pin_repository.o
 *fill*         0x0803389c        0x4 
 .rodata._ZL7gpt5cfg
                0x080338a0        0xc build/obj/microsecond_timer.o
 *fill*         0x080338ac        0x4 
 .rodata.str1.4
                0x080338b0       0x8f build/obj/microsecond_timer.o
                                 0x90 (size before relaxing)
 *fill*         0x0803393f        0x1 
 .rodata.str1.4
                0x08033940       0x6c build/obj/digital_input_hw.o
 *fill*         0x080339ac        0x4 
 .rodata.str1.4
                0x080339b0       0x9f build/obj/hardware.o
                                 0xb4 (size before relaxing)
 *fill*         0x08033a4f        0x1 
 .rodata.str1.4
                0x08033a50       0xa9 build/obj/neo6m.o
                                 0xac (size before relaxing)
 *fill*         0x08033af9        0x7 
 .rodata.str1.4
                0x08033b00      0x244 build/obj/mmc_card.o
                                0x268 (size before relaxing)
 *fill*         0x08033d44        0xc 
 .rodata._ZL9lineStart
                0x08033d50       0x10 build/obj/lcd_HD44780.o
 .rodata.str1.4
                0x08033d60       0xfb build/obj/lcd_HD44780.o
                                 0xfc (size before relaxing)
 *fill*         0x08033e5b        0x5 
 .rodata.str1.4
                0x08033e60      0x1a0 build/obj/adc_inputs.o
                                0x1b0 (size before relaxing)
 .rodata.CSWTCH.40
                0x08034000       0x4c build/obj/adc_inputs.o
 *fill*         0x0803404c        0x4 
 .rodata.str1.4
                0x08034050      0x16f build/obj/board_test.o
                                0x178 (size before relaxing)
 *fill*         0x080341bf        0x1 
 .rodata._ZL10BLINK_PINS
                0x080341c0       0x58 build/obj/board_test.o
 *fill*         0x08034218        0x8 
 .rodata.str1.4
                0x08034220       0x32 build/obj/pwm_generator.o
                                 0x34 (size before relaxing)
 *fill*         0x08034252        0xe 
 .rodata.str1.4
                0x08034260       0x5a build/obj/trigger_input.o
                                 0x5c (size before relaxing)
 *fill*         0x080342ba        0x6 
 .rodata.str1.4
                0x080342c0      0x1ec build/obj/HIP9011.o
 *fill*         0x080344ac        0x4 
 .rodata.str1.4
                0x080344b0       0x42 build/obj/vehicle_speed.o
                                 0x44 (size before relaxing)
 *fill*         0x080344f2        0xe 
 .rodata.str1.4
                0x08034500       0x81 build/obj/joystick.o
                                 0x84 (size before relaxing)
 *fill*         0x08034581        0xf 
 .rodata.str1.4
                0x08034590       0x33 build/obj/stepper.o
                                 0x34 (size before relaxing)
 *fill*         0x080345c3        0xd 
 .rodata._ZL5PORTS
                0x080345d0       0x20 build/obj/io_pins.o
 .rodata.str1.4
                0x080345f0       0x8c build/obj/io_pins.o
                                 0xa8 (size before relaxing)
 *fill*         0x0803467c        0x4 
 .rodata.str1.4
                0x08034680       0x28 build/obj/gpio_helper.o
 *fill*         0x080346a8        0x8 
 .rodata.str1.4
                0x080346b0       0xc4 build/obj/mpu_util.o
 *fill*         0x08034774        0xc 
 .rodata.str1.4
                0x08034780       0xa0 build/obj/rtc_helper.o
 .rodata.str1.4
                0x08034820       0x8e build/obj/tunerstudio_io.o
                                 0x90 (size before relaxing)
 *fill*         0x080348ae        0x2 
 .rodata.str1.4
                0x080348b0      0x5ff build/obj/tunerstudio.o
                                0x618 (size before relaxing)
 *fill*         0x08034eaf        0x1 
 .rodata._ZL4leds
                0x08034eb0       0x14 build/obj/status_loop.o
 *fill*         0x08034ec4        0xc 
 .rodata.str1.4
                0x08034ed0      0x30f build/obj/status_loop.o
                                0x3a0 (size before relaxing)
 *fill*         0x080351df        0x1 
 .rodata.str1.4
                0x080351e0       0x3e build/obj/console_io.o
                                 0x40 (size before relaxing)
 *fill*         0x0803521e        0x2 
 .rodata._ZZL11cmd_threadsvE6states
                0x08035220       0x3c build/obj/eficonsole.o
 *fill*         0x0803525c        0x4 
 .rodata.str1.4
                0x08035260      0x3b6 build/obj/eficonsole.o
                                0x3d0 (size before relaxing)
 *fill*         0x08035616        0xa 
 .rodata.str1.4
                0x08035620      0x1e8 build/obj/thermistors.o
 *fill*         0x08035808        0x8 
 .rodata.str1.4
                0x08035810        0x4 build/obj/allsensors.o
 *fill*         0x08035814        0xc 
 .rodata.str1.4
                0x08035820       0xac build/obj/map.o
                                 0xb8 (size before relaxing)
 *fill*         0x080358cc        0x4 
 .rodata.str1.4
                0x080358d0        0x5 build/obj/voltage.o
                                 0x10 (size before relaxing)
 .rodata.str1.4
                0x00000000        0x4 build/obj/maf.o
 *fill*         0x080358d5        0xb 
 .rodata.str1.4
                0x080358e0       0x30 build/obj/tps.o
                                 0x34 (size before relaxing)
 .rodata.str1.4
                0x08035910       0x16 build/obj/ego.o
                                 0x18 (size before relaxing)
 *fill*         0x08035926        0xa 
 .rodata.integratorValues
                0x08035930       0x80 build/obj/hip9011_lookup.o
                0x08035930                integratorValues
 .rodata.bandFreqLookup
                0x080359b0      0x100 build/obj/hip9011_lookup.o
                0x080359b0                bandFreqLookup
 .rodata.gainLookupInReverseOrder
                0x08035ab0      0x100 build/obj/hip9011_lookup.o
                0x08035ab0                gainLookupInReverseOrder
 .rodata.str1.4
                0x08035bb0     0x115d build/obj/settings.o
                               0x1218 (size before relaxing)
 *fill*         0x08036d0d        0x3 
 .rodata.str1.4
                0x08036d10       0x34 build/obj/electronic_throttle.o
                                 0x38 (size before relaxing)
 *fill*         0x08036d44        0xc 
 .rodata.str1.4
                0x08036d50       0x2f build/obj/error_handling.o
                                 0x34 (size before relaxing)
 *fill*         0x08036d7f        0x1 
 .rodata.str1.4
                0x08036d80       0x6d build/obj/map_averaging.o
                                 0x88 (size before relaxing)
 *fill*         0x08036ded        0x3 
 .rodata.str1.4
                0x08036df0      0x22e build/obj/flash_main.o
                                0x230 (size before relaxing)
 *fill*         0x0803701e        0x2 
 .rodata.str1.4
                0x08037020      0x190 build/obj/injector_central.o
                                0x198 (size before relaxing)
 .rodata.str1.4
                0x080371b0      0x169 build/obj/idle_thread.o
                                0x180 (size before relaxing)
 *fill*         0x08037319        0x7 
 .rodata.str1.4
                0x08037320       0xd9 build/obj/obd2.o
                                 0xdc (size before relaxing)
 *fill*         0x080373f9        0x7 
 .rodata.str1.4
                0x08037400       0x14 build/obj/malfunction_indicator.o
 *fill*         0x08037414        0xc 
 .rodata.str1.4
                0x08037420       0xc6 build/obj/alternatorController.o
                                 0xf4 (size before relaxing)
 *fill*         0x080374e6        0xa 
 .rodata.str1.4
                0x080374f0      0x18b build/obj/lcd_controller.o
                                0x1a0 (size before relaxing)
 *fill*         0x0803767b        0x5 
 .rodata.str1.4
                0x08037680      0x20e build/obj/engine_controller.o
                                0x24c (size before relaxing)
 *fill*         0x0803788e        0x2 
 .rodata.str1.4
                0x08037890       0xf9 build/obj/datalogging.o
                                0x118 (size before relaxing)
 *fill*         0x08037989        0x7 
 .rodata.str1.4
                0x08037990        0xb build/obj/loggingcentral.o
                                  0xc (size before relaxing)
 *fill*         0x0803799b        0x5 
 .rodata.str1.4
                0x080379a0       0x13 build/obj/listener_array.o
                                 0x14 (size before relaxing)
 *fill*         0x080379b3        0xd 
 .rodata.str1.4
                0x080379c0      0x175 build/obj/cli_registry.o
                                0x184 (size before relaxing)
 *fill*         0x08037b35        0xb 
 .rodata.CSWTCH.25
                0x08037b40       0x40 build/obj/cli_registry.o
 .rodata.str1.4
                0x08037b80        0x7 build/obj/efilib.o
                                  0x8 (size before relaxing)
 *fill*         0x08037b87        0x9 
 .rodata.str1.4
                0x08037b90       0x1f build/obj/EfiWave.o
                                 0x20 (size before relaxing)
 *fill*         0x08037baf        0x1 
 .rodata.str1.4
                0x08037bb0       0xff build/obj/fsio_core.o
                                0x10c (size before relaxing)
 *fill*         0x08037caf        0x1 
 .rodata.str1.4
                0x08037cb0      0x12b build/obj/interpolation.o
                                0x12c (size before relaxing)
 *fill*         0x08037ddb        0x5 
 .rodata.str1.4
                0x08037de0      0x38c build/obj/fsio_impl.o
                                0x3ec (size before relaxing)
 *fill*         0x0803816c        0x4 
 .rodata.CSWTCH.56
                0x08038170       0x40 build/obj/fsio_impl.o
 .rodata._ZL27order_1_THEN_3_THEN_2_THEN4
                0x080381b0       0x10 build/obj/engine_math.o
 .rodata._ZL15order_1_2_4_5_3
                0x080381c0       0x14 build/obj/engine_math.o
 *fill*         0x080381d4        0xc 
 .rodata._ZL27order_1_THEN_2_THEN_4_THEN3
                0x080381e0       0x10 build/obj/engine_math.o
 .rodata._ZL42order_1_THEN_5_THEN_3_THEN_6_THEN_2_THEN_4
                0x080381f0       0x18 build/obj/engine_math.o
 *fill*         0x08038208        0x8 
 .rodata.str1.4
                0x08038210      0x1be build/obj/engine_math.o
                                0x1fc (size before relaxing)
 *fill*         0x080383ce        0x2 
 .rodata._ZL42order_1_THEN_4_THEN_2_THEN_5_THEN_3_THEN_6
                0x080383d0       0x18 build/obj/engine_math.o
 *fill*         0x080383e8        0x8 
 .rodata._ZL27order_1_THEN_3_THEN_4_THEN2
                0x080383f0       0x10 build/obj/engine_math.o
 .rodata._ZL9order_1_2
                0x08038400        0x8 build/obj/engine_math.o
 *fill*         0x08038408        0x8 
 .rodata._ZL21order_1_8_4_3_6_5_7_2
                0x08038410       0x20 build/obj/engine_math.o
 .rodata._ZL17default_baro_corr
                0x08038430       0x40 build/obj/speed_density.o
 .rodata.str1.4
                0x08038470       0x12 build/obj/speed_density.o
                                 0x28 (size before relaxing)
 *fill*         0x08038482        0xe 
 .rodata.str1.4
                0x08038490       0x65 build/obj/rusefi.o
                                 0x68 (size before relaxing)
 *fill*         0x080384f5        0xb 
 .rodata.str1.4
                0x08038500        0x8 c:/progra~2/codesourcery/sourcery_codebench_lite_for_arm_eabi/bin/../lib/gcc/arm-none-eabi/4.8.1/../../../../arm-none-eabi/lib/thumb2\libm.a(lib_a-wf_log.o)
                                  0xc (size before relaxing)
 .rodata.str1.4
                0x00000000        0x4 c:/progra~2/codesourcery/sourcery_codebench_lite_for_arm_eabi/bin/../lib/gcc/arm-none-eabi/4.8.1/../../../../arm-none-eabi/lib/thumb2\libc.a(lib_a-impure.o)
 *(.glue_7t)
 .glue_7t       0x00000000        0x0 linker stubs
 *(.glue_7)
 .glue_7        0x00000000        0x0 linker stubs
 *(.gcc*)

.vfp11_veneer   0x08038508        0x0
 .vfp11_veneer  0x00000000        0x0 linker stubs

.v4_bx          0x08038508        0x0
 .v4_bx         0x00000000        0x0 linker stubs

.iplt           0x08038508        0x0
 .iplt          0x00000000        0x0 build/obj/crt0.o

.ARM.extab
 *(.ARM.extab* .gnu.linkonce.armextab.*)

.ARM.exidx      0x08038508        0x8
                0x08038508                PROVIDE (__exidx_start, .)
 *(.ARM.exidx* .gnu.linkonce.armexidx.*)
 .ARM.exidx     0x08038508        0x8 c:/progra~2/codesourcery/sourcery_codebench_lite_for_arm_eabi/bin/../lib/gcc/arm-none-eabi/4.8.1/thumb2\libgcc.a(_divdi3.o)
 .ARM.exidx     0x08038510        0x0 c:/progra~2/codesourcery/sourcery_codebench_lite_for_arm_eabi/bin/../lib/gcc/arm-none-eabi/4.8.1/thumb2\libgcc.a(_udivdi3.o)
                                  0x8 (size before relaxing)
                0x08038510                PROVIDE (__exidx_end, .)

.rel.dyn        0x08038510        0x0
 .rel.iplt      0x00000000        0x0 build/obj/crt0.o

.eh_frame_hdr
 *(.eh_frame_hdr)

.eh_frame
 *(.eh_frame)

.textalign      0x08038510        0x0
                0x08038510                . = ALIGN (0x8)
                0x08038510                _etext = .
                0x08038510                _textdata = _etext

.stacks         0x20000000     0x1600
                0x20000000                . = ALIGN (0x8)
                0x20000000                __main_stack_base__ = .
                0x20001000                . = (. + __main_stack_size__)
 *fill*         0x20000000     0x1000 
                0x20001000                . = ALIGN (0x8)
                0x20001000                __main_stack_end__ = .
                0x20001000                __process_stack_base__ = .
                0x20001000                __main_thread_stack_base__ = .
                0x20001600                . = (. + __process_stack_size__)
 *fill*         0x20001000      0x600 
                0x20001600                . = ALIGN (0x8)
                0x20001600                __process_stack_end__ = .
                0x20001600                __main_thread_stack_end__ = .

.ccm            0x10000000     0xe928
                0x10000000                PROVIDE (_cmm_start, .)
                0x10000000                . = ALIGN (0x4)
 *(.bss.mainthread.*)
 .bss.mainthread.4820
                0x10000000       0x4c build/obj/chsys.o
                0x1000004c                . = ALIGN (0x4)
 *(.bss._idle_thread_wa)
 *fill*         0x1000004c        0x4 
 .bss._idle_thread_wa
                0x10000050      0x558 build/obj/chsys.o
                0x10000050                _idle_thread_wa
                0x100005a8                . = ALIGN (0x4)
 *(.bss.rlist)
 .bss.rlist     0x100005a8       0x1c build/obj/chschd.o
                0x100005a8                rlist
                0x100005c4                . = ALIGN (0x4)
 *(.bss.vtlist)
 .bss.vtlist    0x100005c4       0x10 build/obj/chvt.o
                0x100005c4                vtlist
                0x100005d4                . = ALIGN (0x4)
 *(.bss.endmem)
 .bss.endmem    0x100005d4        0x4 build/obj/chmemcore.o
                0x100005d8                . = ALIGN (0x4)
 *(.bss.nextmem)
 .bss.nextmem   0x100005d8        0x4 build/obj/chmemcore.o
                0x100005dc                . = ALIGN (0x4)
 *(.bss.default_heap)
 *fill*         0x100005dc        0x4 
 .bss.default_heap
                0x100005e0       0x20 build/obj/chheap.o
                0x10000600                . = ALIGN (0x4)
 *(.ccm)
 .ccm           0x10000600     0x1388 build/obj/wave_chart.o
 .ccm           0x10001988     0xa728 build/obj/engine_controller.o
                0x10001988                persistentState
 .ccm           0x1000c0b0      0x7d0 build/obj/datalogging.o
 .ccm           0x1000c880     0x1964 build/obj/loggingcentral.o
 *fill*         0x1000e1e4        0x4 
 .ccm           0x1000e1e8      0x740 build/obj/fsio_impl.o
                0x1000e928                . = ALIGN (0x4)
 *(.ccm.*)
                0x1000e928                . = ALIGN (0x4)
                0x1000e928                PROVIDE (_cmm_end, .)

.data           0x20001600      0x388 load address 0x08038510
                0x20001600                . = ALIGN (0x4)
                0x20001600                PROVIDE (_data, .)
 *(.data)
 .data          0x20001600        0x1 c:/progra~2/codesourcery/sourcery_codebench_lite_for_arm_eabi/bin/../lib/gcc/arm-none-eabi/4.8.1/../../../../arm-none-eabi/lib/thumb2\libm.a(lib_a-s_lib_ver.o)
                0x20001600                __fdlib_version
 *fill*         0x20001601        0x3 
 .data          0x20001604       0xf4 c:/progra~2/codesourcery/sourcery_codebench_lite_for_arm_eabi/bin/../lib/gcc/arm-none-eabi/4.8.1/../../../../arm-none-eabi/lib/thumb2\libc.a(lib_a-impure.o)
                0x20001604                _impure_ptr
 .data          0x200016f8       0x40 c:/progra~2/codesourcery/sourcery_codebench_lite_for_arm_eabi/bin/../lib/gcc/arm-none-eabi/4.8.1/../../../../arm-none-eabi/lib/thumb2\libc.a(lib_a-gettzinfo.o)
                0x20001738                . = ALIGN (0x4)
 *(.data.*)
 .data.linecoding
                0x20001738        0x8 build/obj/serial_usb.o
 .data._ZL20stopEmulationAtIndex
                0x20001740        0x4 build/obj/trigger_emulator_algo.o
 .data._ZL11isEmulating
                0x20001744        0x1 build/obj/trigger_emulator_algo.o
 *fill*         0x20001745        0x3 
 .data._ZL24previousShaftEventTimeNt
                0x20001748        0x8 build/obj/trigger_central.o
 .data.cyccnt   0x20001750        0x4 build/obj/main_trigger_callback.o
                0x20001750                cyccnt
 *fill*         0x20001754        0x4 
 .data.lastDecodingErrorTime
                0x20001758        0x8 build/obj/trigger_decoder.o
                0x20001758                lastDecodingErrorTime
 .data._ZL4rand
                0x20001760        0x4 build/obj/can_hw.o
 .data._ZL11wave_icucfg
                0x20001764       0x1c build/obj/digital_input_hw.o
 .data._ZL15GPSserialConfig
                0x20001780        0xc build/obj/neo6m.o
 .data._ZL6mmccfg
                0x2000178c        0xc build/obj/mmc_card.o
 .data._ZL12logFileIndex
                0x20001798        0x4 build/obj/mmc_card.o
 .data._ZL9hs_spicfg
                0x2000179c        0xc build/obj/mmc_card.o
 .data._ZL9ls_spicfg
                0x200017a8        0xc build/obj/mmc_card.o
 .data._ZL11pwmcfg_slow
                0x200017b4       0x34 build/obj/adc_inputs.o
 .data._ZL13adcgrpcfgSlow
                0x200017e8       0x28 build/obj/adc_inputs.o
 .data._ZL11pwmcfg_fast
                0x20001810       0x34 build/obj/adc_inputs.o
 .data._ZL14adcgrpcfg_fast
                0x20001844       0x28 build/obj/adc_inputs.o
 .data._ZL10currentPin
                0x2000186c        0x4 build/obj/board_test.o
 .data.pinsCount
                0x20001870        0x4 build/obj/board_test.o
                0x20001870                pinsCount
 .data._ZL12shaft_icucfg
                0x20001874       0x1c build/obj/trigger_input.o
 .data._ZL10needToInit
                0x20001890        0x1 build/obj/HIP9011.o
 *fill*         0x20001891        0x3 
 .data._ZL16currentGainIndex
                0x20001894        0x4 build/obj/HIP9011.o
 .data._ZL6spicfg
                0x20001898        0xc build/obj/HIP9011.o
 .data._ZL23currentIntergratorIndex
                0x200018a4        0x4 build/obj/HIP9011.o
 .data._ZL14tsSerialConfig
                0x200018a8        0xc build/obj/tunerstudio_io.o
 .data._ZL15BINARY_RESPONSE
                0x200018b4        0x2 build/obj/tunerstudio.o
 *fill*         0x200018b6        0x2 
 .data.warningEnabled
                0x200018b8        0x4 build/obj/status_loop.o
                0x200018b8                warningEnabled
 .data._ZL26timeOfPreviousPrintVersion
                0x200018bc        0x4 build/obj/status_loop.o
 .data.blinkingPeriod
                0x200018c0        0x4 build/obj/status_loop.o
                0x200018c0                blinkingPeriod
 .data._ZL19prevCkpEventCounter
                0x200018c4        0x4 build/obj/status_loop.o
 .data._ZL7fullLog
                0x200018c8        0x1 build/obj/status_loop.o
 *fill*         0x200018c9        0x3 
 .data._ZL20timeOfPreviousReport
                0x200018cc        0x4 build/obj/status_loop.o
 .data._ZL12consoleInput
                0x200018d0       0x50 build/obj/console_io.o
 .data._ZL12serialConfig
                0x20001920        0xc build/obj/console_io.o
 .data._ZL21timeOfPreviousWarning
                0x2000192c        0x4 build/obj/error_handling.o
 .data._ZL18actualIdlePosition
                0x20001930        0x4 build/obj/idle_thread.o
 .data.engine   0x20001934        0x4 build/obj/engine_controller.o
                0x20001934                engine
 .data.boardConfiguration
                0x20001938        0x4 build/obj/engine_controller.o
                0x20001938                boardConfiguration
 .data.engineConfiguration2
                0x2000193c        0x4 build/obj/engine_controller.o
                0x2000193c                engineConfiguration2
 .data.engineConfiguration
                0x20001940        0x4 build/obj/engine_controller.o
                0x20001940                engineConfiguration
 .data.config   0x20001944        0x4 build/obj/engine_controller.o
                0x20001944                config
 .data.array16  0x20001948       0x40 build/obj/interpolation.o
                0x20001948                array16
                0x20001988                . = ALIGN (0x4)
 *(.ramtext)
                0x20001988                . = ALIGN (0x4)
                0x20001988                PROVIDE (_edata, .)

.igot.plt       0x20001988        0x0 load address 0x08038898
 .igot.plt      0x00000000        0x0 build/obj/crt0.o

.bss            0x20001988    0x19abc load address 0x08038898
                0x20001988                . = ALIGN (0x4)
                0x20001988                PROVIDE (_bss_start, .)
 *(.bss)
 .bss           0x20001988        0x8 c:/progra~2/codesourcery/sourcery_codebench_lite_for_arm_eabi/bin/../lib/gcc/arm-none-eabi/4.8.1/../../../../arm-none-eabi/lib/thumb2\libc.a(lib_a-tzvars.o)
                0x20001988                _timezone
                0x2000198c                _daylight
                0x20001990                . = ALIGN (0x4)
 *(.bss.*)
 .bss.dbg_isr_cnt
                0x20001990        0x4 build/obj/chdebug.o
                0x20001990                dbg_isr_cnt
 .bss.dbg_trace_buffer
                0x20001994      0x408 build/obj/chdebug.o
                0x20001994                dbg_trace_buffer
 .bss.dbg_lock_cnt
                0x20001d9c        0x4 build/obj/chdebug.o
                0x20001d9c                dbg_lock_cnt
 .bss.dbg_panic_msg
                0x20001da0        0x4 build/obj/chdebug.o
                0x20001da0                dbg_panic_msg
 *fill*         0x20001da4        0x4 
 .bss.buffer.4817
                0x20001da8      0x800 build/obj/chmemcore.o
 .bss.ep2instate
                0x200025a8       0x14 build/obj/usbcfg.o
 .bss.SDU1      0x200025bc      0x258 build/obj/usbcfg.o
                0x200025bc                SDU1
 .bss.ep1instate
                0x20002814       0x14 build/obj/usbcfg.o
 .bss.ep1outstate
                0x20002828       0x14 build/obj/usbcfg.o
 .bss.error_codes_set
                0x2000283c       0x2c build/obj/malfunction_central.o
 .bss.dma_isr_redir
                0x20002868       0x80 build/obj/stm32_dma.o
 .bss.dma_streams_mask
                0x200028e8        0x4 build/obj/stm32_dma.o
 .bss.ADCD1     0x200028ec       0x34 build/obj/adc_lld.o
                0x200028ec                ADCD1
 .bss.ADCD2     0x20002920       0x34 build/obj/adc_lld.o
                0x20002920                ADCD2
 .bss.CAND1     0x20002954       0x38 build/obj/can_lld.o
                0x20002954                CAND1
 .bss.CAND2     0x2000298c       0x38 build/obj/can_lld.o
                0x2000298c                CAND2
 .bss.EXTD1     0x200029c4        0x8 build/obj/ext_lld.o
                0x200029c4                EXTD1
 .bss.I2CD1     0x200029cc       0x38 build/obj/i2c_lld.o
                0x200029cc                I2CD1
 *fill*         0x20002a04        0x4 
 .bss.USBD1     0x20002a08      0x5c0 build/obj/usb_lld.o
                0x20002a08                USBD1
 .bss.ep0_state
                0x20002fc8       0x14 build/obj/usb_lld.o
 .bss.ep0setup_buffer
                0x20002fdc        0x8 build/obj/usb_lld.o
 .bss.RTCD1     0x20002fe4        0x4 build/obj/rtc_lld.o
                0x20002fe4                RTCD1
 .bss.dummytx   0x20002fe8        0x2 build/obj/spi_lld.o
 *fill*         0x20002fea        0x2 
 .bss.SPID1     0x20002fec       0x30 build/obj/spi_lld.o
                0x20002fec                SPID1
 .bss.SPID2     0x2000301c       0x30 build/obj/spi_lld.o
                0x2000301c                SPID2
 .bss.SPID3     0x2000304c       0x30 build/obj/spi_lld.o
                0x2000304c                SPID3
 .bss.dummyrx   0x2000307c        0x2 build/obj/spi_lld.o
 *fill*         0x2000307e        0x2 
 .bss.GPTD5     0x20003080       0x10 build/obj/gpt_lld.o
                0x20003080                GPTD5
 .bss.ICUD2     0x20003090       0x18 build/obj/icu_lld.o
                0x20003090                ICUD2
 .bss.ICUD3     0x200030a8       0x18 build/obj/icu_lld.o
                0x200030a8                ICUD3
 .bss.ICUD9     0x200030c0       0x18 build/obj/icu_lld.o
                0x200030c0                ICUD9
 .bss.ICUD1     0x200030d8       0x18 build/obj/icu_lld.o
                0x200030d8                ICUD1
 .bss.PWMD4     0x200030f0       0x14 build/obj/pwm_lld.o
                0x200030f0                PWMD4
 .bss.PWMD8     0x20003104       0x14 build/obj/pwm_lld.o
                0x20003104                PWMD8
 .bss.SD1       0x20003118       0x78 build/obj/serial_lld.o
                0x20003118                SD1
 .bss.SD2       0x20003190       0x78 build/obj/serial_lld.o
                0x20003190                SD2
 .bss.SD3       0x20003208       0x78 build/obj/serial_lld.o
                0x20003208                SD3
 .bss.Fsid      0x20003280        0x2 build/obj/ff.o
 *fill*         0x20003282        0x2 
 .bss.FatFs     0x20003284        0x4 build/obj/ff.o
 .bss._ZL8swtchTms
                0x20003288      0x3f0 build/obj/trigger_emulator_algo.o
 .bss._ZL10pinStates1
                0x20003678       0xfc build/obj/trigger_emulator_algo.o
 *fill*         0x20003774        0x4 
 .bss.triggerSignal
                0x20003778       0x60 build/obj/trigger_emulator_algo.o
                0x20003778                triggerSignal
 .bss._ZL10pinStates3
                0x200037d8       0xfc build/obj/trigger_emulator_algo.o
 .bss._ZL21emulatorConfigVersion
                0x200038d4        0x4 build/obj/trigger_emulator_algo.o
 .bss._ZL6helper
                0x200038d8        0x4 build/obj/trigger_emulator_algo.o
 .bss._ZL2sr    0x200038dc        0xc build/obj/trigger_emulator_algo.o
 .bss._ZL6logger
                0x200038e8        0x4 build/obj/trigger_emulator_algo.o
 .bss._ZL10pinStates2
                0x200038ec       0xfc build/obj/trigger_emulator_algo.o
 .bss._ZL5waves
                0x200039e8        0xc build/obj/trigger_emulator_algo.o
 .bss._ZL9rpmBuffer
                0x200039f4        0xc build/obj/rpm_calculator.o
 .bss._ZL12tdcScheduler
                0x20003a00       0x30 build/obj/rpm_calculator.o
 .bss.maxTriggerReentraint
                0x20003a30        0x4 build/obj/trigger_central.o
                0x20003a30                maxTriggerReentraint
 .bss.triggerHanlderEntryTime
                0x20003a34        0x4 build/obj/trigger_central.o
                0x20003a34                triggerHanlderEntryTime
 .bss.triggerCentral
                0x20003a38      0x158 build/obj/trigger_central.o
                0x20003a38                triggerCentral
 .bss._ZL15triggerCallback
                0x20003b90      0xe20 build/obj/trigger_central.o
 .bss.waveChart
                0x200049b0       0x50 build/obj/trigger_central.o
                0x200049b0                waveChart
 .bss._ZL22shaft_signal_msg_index
                0x20004a00       0x10 build/obj/trigger_central.o
 .bss.triggerReentraint
                0x20004a10        0x4 build/obj/trigger_central.o
                0x20004a10                triggerReentraint
 .bss.triggerDuration
                0x20004a14        0x4 build/obj/trigger_central.o
                0x20004a14                triggerDuration
 .bss._ZL6logger
                0x20004a18        0x4 build/obj/trigger_central.o
 .bss.triggerMaxDuration
                0x20004a1c        0x4 build/obj/trigger_central.o
                0x20004a1c                triggerMaxDuration
 .bss._ZL5iHead
                0x20004a20        0x4 build/obj/main_trigger_callback.o
 .bss._ZL27mainTriggerCallbackInstance
                0x20004a24        0x4 build/obj/main_trigger_callback.o
 .bss._ZL14triggerVersion
                0x20004a28        0x4 build/obj/main_trigger_callback.o
 .bss._ZL6logger
                0x20004a2c        0x4 build/obj/main_trigger_callback.o
 .bss._ZL13mainLoopHisto
                0x20004a30      0xe20 build/obj/main_trigger_callback.o
 .bss._ZL22ignitionErrorDetection
                0x20005850      0x10c build/obj/main_trigger_callback.o
 .bss._ZL22triggerDecoderErrorPin
                0x2000595c       0x10 build/obj/trigger_decoder.o
 .bss._ZL6logger
                0x2000596c        0x4 build/obj/trigger_decoder.o
 .bss._ZL14errorDetection
                0x20005970      0x10c build/obj/trigger_decoder.o
 .bss._ZL15emulatorOutputs
                0x20005a7c       0x30 build/obj/trigger_emulator.o
 .bss._ZL9potConfig
                0x20005aac       0x40 build/obj/poten.o
 .bss._ZL6logger
                0x20005aec        0x4 build/obj/poten.o
 .bss._ZL7logging
                0x20005af0       0x3c build/obj/sensor_chart.o
 .bss._ZL14LOGGING_BUFFER
                0x20005b2c     0x1388 build/obj/sensor_chart.o
 .bss._ZL11pendingData
                0x20006eb4        0x4 build/obj/sensor_chart.o
 .bss._ZL11initialized
                0x20006eb8        0x4 build/obj/sensor_chart.o
 .bss.waveChartUsedSize
                0x20006ebc        0x4 build/obj/wave_chart.o
                0x20006ebc                waveChartUsedSize
 .bss._ZL10timeBuffer
                0x20006ec0        0xc build/obj/wave_chart.o
 .bss._ZL6logger
                0x20006ecc      0x104 build/obj/wave_chart.o
 .bss.skipUntilEngineCycle
                0x20006fd0        0x4 build/obj/wave_chart.o
                0x20006fd0                skipUntilEngineCycle
 .bss._ZL15waveReaderCount
                0x20006fd4        0x4 build/obj/wave_analyzer.o
 .bss._ZL7readers
                0x20006fd8      0x1b8 build/obj/wave_analyzer.o
 .bss._ZL13waThreadStack
                0x20007190      0x2e8 build/obj/wave_analyzer.o
 .bss._ZL25previousEngineCycleTimeUs
                0x20007478        0x8 build/obj/wave_analyzer.o
 .bss._ZL6logger
                0x20007480        0x4 build/obj/wave_analyzer.o
 .bss._ZL23iatAdvanceCorrectionMap
                0x20007484       0x4c build/obj/advance_map.o
 .bss._ZL10advanceMap
                0x200074d0       0x4c build/obj/advance_map.o
 .bss._ZL12fuelPhaseMap
                0x2000751c       0x4c build/obj/fuel_math.o
 .bss._ZL7fuelMap
                0x20007568       0x4c build/obj/fuel_math.o
 .bss._ZL6logger
                0x200075b4        0x4 build/obj/accel_enrichment.o
 .bss._ZL26globalConfigurationVersion
                0x200075b8        0x4 build/obj/engine_configuration.o
 .bss._ZL6logger
                0x200075bc      0x104 build/obj/engine.o
 .bss.maxHowFarOff
                0x200076c0        0x4 build/obj/event_queue.o
                0x200076c0                maxHowFarOff
 .bss.lastEventQueueTime
                0x200076c4        0x4 build/obj/event_queue.o
                0x200076c4                lastEventQueueTime
 .bss._ZL14longScheduling
                0x200076c8        0x4 build/obj/event_queue.o
 .bss.maxEventQueueTime
                0x200076cc        0x4 build/obj/event_queue.o
                0x200076cc                maxEventQueueTime
 .bss.enginePins
                0x200076d0      0x240 build/obj/efiGpio.o
                0x200076d0                enginePins
 .bss.OUTPUT_MODE_DEFAULT
                0x20007910        0x4 build/obj/efiGpio.o
                0x20007910                OUTPUT_MODE_DEFAULT
 *fill*         0x20007914        0x4 
 .bss._ZL8instance
                0x20007918       0x18 build/obj/SingleTimerExecutor.o
 .bss.hwSetTimerTime
                0x20007930        0x4 build/obj/SingleTimerExecutor.o
                0x20007930                hwSetTimerTime
 .bss.lastExecutionCount
                0x20007934        0x4 build/obj/SingleTimerExecutor.o
                0x20007934                lastExecutionCount
 .bss._ZL15nextEventTimeNt
                0x20007938        0x8 build/obj/SingleTimerExecutor.o
 .bss.beforeHwSetTimer
                0x20007940        0x4 build/obj/SingleTimerExecutor.o
                0x20007940                beforeHwSetTimer
 .bss._ZL8rxBuffer
                0x20007944       0x14 build/obj/can_hw.o
 .bss.txmsg     0x20007958       0x10 build/obj/can_hw.o
                0x20007958                txmsg
 .bss._ZL10engine_clt
                0x20007968        0x4 build/obj/can_hw.o
 .bss._ZL13canWriteNotOk
                0x2000796c        0x4 build/obj/can_hw.o
 .bss._ZL13canTreadStack
                0x20007970      0x2e8 build/obj/can_hw.o
 .bss._ZL10engine_rpm
                0x20007c58        0x4 build/obj/can_hw.o
 .bss._ZL10canWriteOk
                0x20007c5c        0x4 build/obj/can_hw.o
 .bss._ZL6logger
                0x20007c60      0x104 build/obj/can_hw.o
 .bss._ZL14canReadCounter
                0x20007d64        0x4 build/obj/can_hw.o
 .bss._ZL6driver
                0x20007d68        0x4 build/obj/max31855.o
 .bss._ZL9spiConfig
                0x20007d6c       0x60 build/obj/max31855.o
 .bss._ZL6logger
                0x20007dcc        0x4 build/obj/max31855.o
 .bss._ZL11initialized
                0x20007dd0        0x4 build/obj/pin_repository.o
 .bss._ZL14portNameStream
                0x20007dd4       0x14 build/obj/pin_repository.o
 .bss._ZL13totalPinsUsed
                0x20007de8        0x4 build/obj/pin_repository.o
 .bss._ZL14portNameBuffer
                0x20007dec       0x14 build/obj/pin_repository.o
 .bss._ZL6logger
                0x20007e00      0x104 build/obj/pin_repository.o
 .bss.PIN_USED  0x20007f04      0x1c0 build/obj/pin_repository.o
                0x20007f04                PIN_USED
 .bss._ZL19timerRestartCounter
                0x200080c4        0x4 build/obj/microsecond_timer.o
 .bss._ZL4buff  0x200080c8       0x20 build/obj/microsecond_timer.o
 .bss._ZL13mwThreadStack
                0x200080e8      0x2e8 build/obj/microsecond_timer.o
 .bss._ZL3msg   0x200083d0        0x4 build/obj/microsecond_timer.o
 .bss._ZL20timerCallbackCounter
                0x200083d4        0x4 build/obj/microsecond_timer.o
 .bss._ZL17lastSetTimerValue
                0x200083d8        0x4 build/obj/microsecond_timer.o
 .bss._ZL14isTimerPending
                0x200083dc        0x1 build/obj/microsecond_timer.o
 *fill*         0x200083dd        0x3 
 .bss.globalTimerCallback
                0x200083e0        0x4 build/obj/microsecond_timer.o
                0x200083e0                globalTimerCallback
 *fill*         0x200083e4        0x4 
 .bss._ZL18lastSetTimerTimeNt
                0x200083e8        0x8 build/obj/microsecond_timer.o
 .bss._ZL14registeredIcus
                0x200083f0      0x804 build/obj/digital_input_hw.o
 .bss._ZL18fastMapSampleIndex
                0x20008bf4        0x4 build/obj/hardware.o
 .bss._ZL6spiMtx
                0x20008bf8       0x10 build/obj/hardware.o
 .bss._ZL14tpsSampleIndex
                0x20008c08        0x4 build/obj/hardware.o
 .bss.maxNesting
                0x20008c0c        0x4 build/obj/hardware.o
                0x20008c0c                maxNesting
 .bss._ZL12sharedLogger
                0x20008c10        0x4 build/obj/hardware.o
 .bss._ZL14hipSampleIndex
                0x20008c14        0x4 build/obj/hardware.o
 .bss._ZL7GPSdata
                0x20008c18       0x50 build/obj/neo6m.o
 .bss._ZL14gpsThreadStack
                0x20008c68      0x2e8 build/obj/neo6m.o
 .bss._ZL5curTm
                0x20008f50       0x2c build/obj/neo6m.o
 .bss._ZL15gpsMesagesCount
                0x20008f7c        0x4 build/obj/neo6m.o
 .bss._ZL7logging
                0x20008f80      0x104 build/obj/neo6m.o
 .bss._ZL7gps_str
                0x20009084      0x100 build/obj/neo6m.o
 .bss._ZL13errorReported
                0x20009184        0x4 build/obj/mmc_card.o
 .bss._ZL6MMC_FS
                0x20009188      0x230 build/obj/mmc_card.o
 .bss._ZL14mmcThreadStack
                0x200093b8      0x2e8 build/obj/mmc_card.o
 .bss._ZL8fs_ready
                0x200096a0        0x1 build/obj/mmc_card.o
 *fill*         0x200096a1        0x3 
 .bss.MMCD1     0x200096a4       0x34 build/obj/mmc_card.o
                0x200096a4                MMCD1
 .bss._ZL9FDLogFile
                0x200096d8      0x224 build/obj/mmc_card.o
 .bss._ZL10FDCurrFile
                0x200098fc      0x224 build/obj/mmc_card.o
 .bss._ZL16totalLoggedBytes
                0x20009b20        0x4 build/obj/mmc_card.o
 .bss._ZL6logger
                0x20009b24      0x104 build/obj/mmc_card.o
 .bss._ZL7logName
                0x20009c28       0x10 build/obj/mmc_card.o
 .bss._ZL15BUSY_WAIT_DELAY
                0x20009c38        0x4 build/obj/lcd_HD44780.o
 .bss._ZL10currentRow
                0x20009c3c        0x4 build/obj/lcd_HD44780.o
 .bss._ZL6logger
                0x20009c40        0x4 build/obj/lcd_HD44780.o
 .bss._ZL13currentColumn
                0x20009c44        0x4 build/obj/lcd_HD44780.o
 .bss._ZL17adcHwChannelUsage
                0x20009c48       0x40 build/obj/adc_inputs.o
 .bss._ZL19adcHwChannelEnabled
                0x20009c88       0x40 build/obj/adc_inputs.o
 .bss.fastAdc   0x20009cc8       0xf0 build/obj/adc_inputs.o
                0x20009cc8                fastAdc
 .bss._ZL14LOGGING_BUFFER
                0x20009db8      0x1f4 build/obj/adc_inputs.o
 .bss._ZL17adcDebugReporting
                0x20009fac        0x4 build/obj/adc_inputs.o
 .bss.slowAdc   0x20009fb0       0xf0 build/obj/adc_inputs.o
                0x20009fb0                slowAdc
 .bss._ZL12errorMsgBuff
                0x2000a0a0        0xc build/obj/adc_inputs.o
 .bss._ZL6logger
                0x2000a0ac       0x3c build/obj/adc_inputs.o
 .bss._ZL23adcCallbackCounter_slow
                0x2000a0e8        0x4 build/obj/adc_inputs.o
 .bss._ZL12currentIndex
                0x2000a0ec        0x4 build/obj/board_test.o
 .bss._ZL13btThreadStack
                0x2000a0f0      0x2e8 build/obj/board_test.o
 .bss._ZL18is_board_test_mode
                0x2000a3d8        0x1 build/obj/board_test.o
 *fill*         0x2000a3d9        0x3 
 .bss._ZL11stepCoutner
                0x2000a3dc        0x4 build/obj/board_test.o
 .bss._ZL18primaryCrankDriver
                0x2000a3e0        0x4 build/obj/trigger_input.o
 .bss._ZL6logger
                0x2000a3e4        0x4 build/obj/trigger_input.o
 .bss._ZL16currentPrescaler
                0x2000a3e8        0x4 build/obj/HIP9011.o
 .bss._ZL13pinNameBuffer
                0x2000a3ec       0x10 build/obj/HIP9011.o
 .bss._ZL7rx_buff
                0x2000a3fc        0x4 build/obj/HIP9011.o
 .bss._ZL7intHold
                0x2000a400       0x14 build/obj/HIP9011.o
 *fill*         0x2000a414        0x4 
 .bss._ZL10startTimer
                0x2000a418       0x30 build/obj/HIP9011.o
 .bss._ZL23currentAngleWindowWidth
                0x2000a448        0x4 build/obj/HIP9011.o
 *fill*         0x2000a44c        0x4 
 .bss._ZL8endTimer
                0x2000a450       0x30 build/obj/HIP9011.o
 .bss.hipLastExecutionCount
                0x2000a480        0x4 build/obj/HIP9011.o
                0x2000a480                hipLastExecutionCount
 .bss._ZL6logger
                0x2000a484        0x4 build/obj/HIP9011.o
 .bss._ZL5hipCs
                0x2000a488       0x10 build/obj/HIP9011.o
 .bss._ZL11hipValueMax
                0x2000a498        0x4 build/obj/HIP9011.o
 *fill*         0x2000a49c        0x4 
 .bss._ZL13hipTreadStack
                0x2000a4a0      0x2e8 build/obj/HIP9011.o
 .bss._ZL16currentBandIndex
                0x2000a788        0x4 build/obj/HIP9011.o
 .bss._ZL10knockVolts
                0x2000a78c        0x4 build/obj/HIP9011.o
 .bss._ZL7tx_buff
                0x2000a790        0x4 build/obj/HIP9011.o
 .bss._ZL15nonZeroResponse
                0x2000a794        0x4 build/obj/HIP9011.o
 .bss._ZL5state
                0x2000a798        0x1 build/obj/HIP9011.o
 *fill*         0x2000a799        0x7 
 .bss._ZL7vssDiff
                0x2000a7a0        0x8 build/obj/vehicle_speed.o
 .bss._ZL16lastSignalTimeNt
                0x2000a7a8        0x8 build/obj/vehicle_speed.o
 .bss._ZL10vssCounter
                0x2000a7b0        0x4 build/obj/vehicle_speed.o
 .bss._ZL6logger
                0x2000a7b4        0x4 build/obj/vehicle_speed.o
 .bss._ZL13lastEventTime
                0x2000a7b8        0x8 build/obj/joystick.o
 .bss._ZL12sharedLogger
                0x2000a7c0        0x4 build/obj/joystick.o
 .bss._ZL8joyTotal
                0x2000a7c4        0x4 build/obj/joystick.o
 .bss._ZL6extcfg
                0x2000a7c8       0xb8 build/obj/joystick.o
 .bss._ZL4joyB  0x2000a880        0x4 build/obj/joystick.o
 .bss._ZL4joyC  0x2000a884        0x4 build/obj/joystick.o
 .bss._ZL4joyA  0x2000a888        0x4 build/obj/joystick.o
 .bss._ZL4joyD  0x2000a88c        0x4 build/obj/joystick.o
 .bss._ZL9joyCenter
                0x2000a890        0x4 build/obj/joystick.o
 .bss._ZL7sdCsPin
                0x2000a894       0x10 build/obj/io_pins.o
 .bss.DEFAULT_OUTPUT
                0x2000a8a4        0x4 build/obj/io_pins.o
                0x2000a8a4                DEFAULT_OUTPUT
 .bss._ZL6logger
                0x2000a8a8      0x104 build/obj/io_pins.o
 .bss._ZL16isSpiInitialized
                0x2000a9ac        0x8 build/obj/mpu_util.o
 .bss._ZL6logger
                0x2000a9b4      0x104 build/obj/rtc_helper.o
 .bss._ZL10secondByte
                0x2000aab8        0x1 build/obj/tunerstudio.o
 *fill*         0x2000aab9        0x3 
 .bss._ZL17writeChunkRequest
                0x2000aabc        0x8 build/obj/tunerstudio.o
 .bss._ZL9firstByte
                0x2000aac4        0x1 build/obj/tunerstudio.o
 *fill*         0x2000aac5        0x3 
 .bss.tsOutputChannels
                0x2000aac8       0xc4 build/obj/tunerstudio.o
                0x2000aac8                tsOutputChannels
 .bss._ZL16tsCrcWriteBuffer
                0x2000ab8c      0x12c build/obj/tunerstudio.o
 .bss._ZL6pageIn
                0x2000acb8        0x2 build/obj/tunerstudio.o
 *fill*         0x2000acba        0x2 
 .bss.tsLogger  0x2000acbc      0x104 build/obj/tunerstudio.o
                0x2000acbc                tsLogger
 .bss._ZL11readRequest
                0x2000adc0        0x8 build/obj/tunerstudio.o
 .bss._ZL21previousWriteReportMs
                0x2000adc8        0x4 build/obj/tunerstudio.o
 *fill*         0x2000adcc        0x4 
 .bss._ZL13tsThreadStack
                0x2000add0      0x608 build/obj/tunerstudio.o
 .bss.configWorkingCopy
                0x2000b3d8     0x3bb8 build/obj/tunerstudio.o
                0x2000b3d8                configWorkingCopy
 .bss.tsState   0x2000ef90       0x28 build/obj/tunerstudio.o
                0x2000ef90                tsState
 .bss.currentPageId
                0x2000efb8        0x2 build/obj/tunerstudio.o
                0x2000efb8                currentPageId
 *fill*         0x2000efba        0x2 
 .bss.tsChannel
                0x2000efbc      0x134 build/obj/tunerstudio.o
                0x2000efbc                tsChannel
 .bss._ZL16communicationPin
                0x2000f0f0       0x10 build/obj/status_loop.o
 .bss._ZL7logger2
                0x2000f100      0x104 build/obj/status_loop.o
 *fill*         0x2000f204        0x4 
 .bss._ZL14lcdThreadStack
                0x2000f208      0x2e8 build/obj/status_loop.o
 .bss._ZL12subscription
                0x2000f4f0       0x10 build/obj/status_loop.o
 .bss._ZL14LOGGING_BUFFER
                0x2000f500      0x578 build/obj/status_loop.o
 .bss.checkEnginePin
                0x2000fa78       0x10 build/obj/status_loop.o
                0x2000fa78                checkEnginePin
 .bss.warningPin
                0x2000fa88       0x10 build/obj/status_loop.o
                0x2000fa88                warningPin
 .bss.runningPin
                0x2000fa98       0x10 build/obj/status_loop.o
                0x2000fa98                runningPin
 .bss.needToReportStatus
                0x2000faa8        0x4 build/obj/status_loop.o
                0x2000faa8                needToReportStatus
 .bss._ZL6logger
                0x2000faac       0x3c build/obj/status_loop.o
 .bss._ZL16logFileLineIndex
                0x2000fae8        0x4 build/obj/status_loop.o
 .bss._ZL10fileLogger
                0x2000faec      0x104 build/obj/status_loop.o
 .bss._ZL13blinkingStack
                0x2000fbf0      0x1d8 build/obj/status_loop.o
 .bss._ZL22isSerialConsoleStarted
                0x2000fdc8        0x1 build/obj/console_io.o
 *fill*         0x2000fdc9        0x3 
 .bss.binaryConsole
                0x2000fdcc      0x134 build/obj/console_io.o
                0x2000fdcc                binaryConsole
 .bss.lastWriteActual
                0x2000ff00        0x4 build/obj/console_io.o
                0x2000ff00                lastWriteActual
 .bss.lastWriteSize
                0x2000ff04        0x4 build/obj/console_io.o
                0x2000ff04                lastWriteSize
 .bss.buffer    0x2000ff08     0x1964 build/obj/console_io.o
                0x2000ff08                buffer
 *fill*         0x2001186c        0x4 
 .bss._ZL18consoleThreadStack
                0x20011870      0x478 build/obj/console_io.o
 .bss._ZL20consoleEventListener
                0x20011ce8       0x10 build/obj/console_io.o
 .bss.console_line_callback
                0x20011cf8        0x4 build/obj/console_io.o
                0x20011cf8                console_line_callback
 .bss._ZL19is_serial_over_uart
                0x20011cfc        0x1 build/obj/console_io.o
 *fill*         0x20011cfd        0x3 
 .bss._ZL6logger
                0x20011d00        0x4 build/obj/console_io.o
 .bss.consoleInBinaryMode
                0x20011d04        0x1 build/obj/console_io.o
                0x20011d04                consoleInBinaryMode
 *fill*         0x20011d05        0x3 
 .bss._ZL6logger
                0x20011d08      0x104 build/obj/eficonsole.o
 .bss._ZL11initialized
                0x20011e0c        0x1 build/obj/thermistors.o
 *fill*         0x20011e0d        0x3 
 .bss._ZL6logger
                0x20011e10        0x4 build/obj/thermistors.o
 .bss._ZL9honda3bar
                0x20011e14        0x8 build/obj/map.o
 .bss._ZL7mpx4250
                0x20011e1c        0x8 build/obj/map.o
 .bss._ZL9customMap
                0x20011e24        0x8 build/obj/map.o
 .bss._ZL9subyDenso
                0x20011e2c        0x8 build/obj/map.o
 .bss._ZL6gm3bar
                0x20011e34        0x8 build/obj/map.o
 .bss._ZL7mapFreq
                0x20011e3c        0x4 build/obj/map.o
 .bss._ZL15prevWidthTimeNt
                0x20011e40        0x8 build/obj/map.o
 .bss._ZL8denso183
                0x20011e48        0x8 build/obj/map.o
 .bss._ZL13dodgeNeon2003
                0x20011e50        0x8 build/obj/map.o
 .bss._ZL6logger
                0x20011e58        0x4 build/obj/map.o
 .bss._ZL10mapDecoder
                0x20011e5c        0x4 build/obj/map.o
 .bss.tpsFastAdc
                0x20011e60        0x4 build/obj/tps.o
                0x20011e60                tpsFastAdc
 .bss._ZL11tpsRocIndex
                0x20011e64        0x4 build/obj/tps.o
 .bss._ZL6states
                0x20011e68       0x28 build/obj/tps.o
 .bss.rpmLookup
                0x20011e90       0x80 build/obj/hip9011_lookup.o
                0x20011e90                rpmLookup
 .bss._ZL13pinNameBuffer
                0x20011f10       0x10 build/obj/settings.o
 .bss._ZL14LOGGING_BUFFER
                0x20011f20      0x3e8 build/obj/settings.o
 .bss._ZL6logger
                0x20012308       0x3c build/obj/settings.o
 .bss._ZL3pid   0x20012344       0x1c build/obj/electronic_throttle.o
 .bss._ZL7output1
                0x20012360       0x10 build/obj/electronic_throttle.o
 .bss._ZL7output2
                0x20012370       0x10 build/obj/electronic_throttle.o
 .bss._ZL10etbPwmDown
                0x20012380       0x70 build/obj/electronic_throttle.o
 .bss._ZL6logger
                0x200123f0      0x104 build/obj/electronic_throttle.o
 *fill*         0x200124f4        0x4 
 .bss._ZL13etbTreadStack
                0x200124f8      0x2e8 build/obj/electronic_throttle.o
 .bss._ZL8etbPwmUp
                0x200127e0       0x70 build/obj/electronic_throttle.o
 .bss._ZL7prevTps
                0x20012850        0x4 build/obj/electronic_throttle.o
 .bss.dbg_panic_file
                0x20012854        0x4 build/obj/error_handling.o
                0x20012854                dbg_panic_file
 .bss.dbg_panic_line
                0x20012858        0x4 build/obj/error_handling.o
                0x20012858                dbg_panic_line
 .bss._ZL13warningStream
                0x2001285c       0x14 build/obj/error_handling.o
 .bss.isInsideTriggerHandler
                0x20012870        0x1 build/obj/error_handling.o
                0x20012870                isInsideTriggerHandler
 *fill*         0x20012871        0x3 
 .bss.maxLockTime
                0x20012874        0x4 build/obj/error_handling.o
                0x20012874                maxLockTime
 .bss._ZL6logger
                0x20012878      0x104 build/obj/error_handling.o
 .bss._ZL13warningBuffer
                0x2001297c       0x50 build/obj/error_handling.o
 .bss._ZL22mapMeasurementsCounter
                0x200129cc        0x4 build/obj/map_averaging.o
 .bss._ZL11isAveraging
                0x200129d0        0x1 build/obj/map_averaging.o
 *fill*         0x200129d1        0x3 
 .bss._ZL13perRevolution
                0x200129d4        0x4 build/obj/map_averaging.o
 .bss._ZL10startTimer
                0x200129d8       0x30 build/obj/map_averaging.o
 .bss._ZL20perRevolutionCounter
                0x20012a08        0x4 build/obj/map_averaging.o
 *fill*         0x20012a0c        0x4 
 .bss._ZL8endTimer
                0x20012a10       0x30 build/obj/map_averaging.o
 .bss._ZL12accumulators
                0x20012a40        0x8 build/obj/map_averaging.o
 .bss._ZL9readIndex
                0x20012a48        0x4 build/obj/map_averaging.o
 .bss._ZL18v_averagedMapValue
                0x20012a4c        0x4 build/obj/map_averaging.o
 .bss._ZL15mapAveragingPin
                0x20012a50       0x14 build/obj/map_averaging.o
 .bss._ZL6logger
                0x20012a64        0x4 build/obj/map_averaging.o
 .bss._ZL14mapAccumulator
                0x20012a68        0x4 build/obj/map_averaging.o
 .bss._ZL8counters
                0x20012a6c        0x8 build/obj/map_averaging.o
 .bss._ZL24needToWriteConfiguration
                0x20012a74        0x1 build/obj/flash_main.o
 *fill*         0x20012a75        0x3 
 .bss._ZL6logger
                0x20012a78        0x4 build/obj/flash_main.o
 .bss._ZL14isRunningBench
                0x20012a7c        0x1 build/obj/injector_central.o
 *fill*         0x20012a7d        0x3 
 .bss._ZL16benchThreadStack
                0x20012a80      0x2e8 build/obj/injector_central.o
 .bss._ZL14needToRunBench
                0x20012d68        0x1 build/obj/injector_central.o
 *fill*         0x20012d69        0x3 
 .bss._ZL19is_injector_enabled
                0x20012d6c       0x30 build/obj/injector_central.o
 .bss._ZL7offTime
                0x20012d9c        0x4 build/obj/injector_central.o
 .bss._ZL6logger
                0x20012da0      0x104 build/obj/injector_central.o
 .bss._ZL8brainPin
                0x20012ea4        0x4 build/obj/injector_central.o
 .bss._ZL7delayMs
                0x20012ea8        0x4 build/obj/injector_central.o
 .bss._ZL5count
                0x20012eac        0x4 build/obj/injector_central.o
 .bss._ZL4pinX  0x20012eb0        0x4 build/obj/injector_central.o
 .bss._ZL6onTime
                0x20012eb4        0x4 build/obj/injector_central.o
 .bss._ZL8iacMotor
                0x20012eb8      0x310 build/obj/idle_thread.o
 .bss._ZL12idleSolenoid
                0x200131c8       0x70 build/obj/idle_thread.o
 .bss._ZL13ivThreadStack
                0x20013238      0x2e8 build/obj/idle_thread.o
 .bss._ZL15idleSolenoidPin
                0x20013520       0x10 build/obj/idle_thread.o
 .bss._ZL6logger
                0x20013530        0x4 build/obj/idle_thread.o
 .bss._ZL8idleMath
                0x20013534       0x14 build/obj/idle_thread.o
 .bss._ZL6logger
                0x20013548      0x104 build/obj/obd2.o
 *fill*         0x2001364c        0x4 
 .bss._ZL14mfiThreadStack
                0x20013650      0x2e8 build/obj/malfunction_indicator.o
 .bss._ZL6altPid
                0x20013938       0x1c build/obj/alternatorController.o
 .bss._ZL13alternatorPin
                0x20013954       0x10 build/obj/alternatorController.o
 *fill*         0x20013964        0x4 
 .bss._ZL17alternatorControl
                0x20013968       0x70 build/obj/alternatorController.o
 .bss._ZL28alternatorControlThreadStack
                0x200139d8      0x2e8 build/obj/alternatorController.o
 .bss._ZL6logger
                0x20013cc0        0x4 build/obj/alternatorController.o
 .bss._ZL14currentAltDuty
                0x20013cc4        0x4 build/obj/alternatorController.o
 .bss._ZL7miVBatt
                0x20013cc8       0x24 build/obj/lcd_controller.o
 .bss._ZL8miConfig
                0x20013cec       0x24 build/obj/lcd_controller.o
 .bss._ZL10miTestInj2
                0x20013d10       0x24 build/obj/lcd_controller.o
 .bss._ZL4tree  0x20013d34       0x10 build/obj/lcd_controller.o
 .bss._ZL5miIat
                0x20013d44       0x24 build/obj/lcd_controller.o
 .bss._ZL6buffer
                0x20013d68       0x18 build/obj/lcd_controller.o
 .bss._ZL12miTestSpark3
                0x20013d80       0x24 build/obj/lcd_controller.o
 .bss._ZL12miTestSpark1
                0x20013da4       0x24 build/obj/lcd_controller.o
 .bss._ZL12miTestSpark2
                0x20013dc8       0x24 build/obj/lcd_controller.o
 .bss._ZL9miSensors
                0x20013dec       0x24 build/obj/lcd_controller.o
 .bss._ZL12miTestSpark4
                0x20013e10       0x24 build/obj/lcd_controller.o
 .bss._ZL10miIgnition
                0x20013e34       0x24 build/obj/lcd_controller.o
 .bss._ZL9miTestFan
                0x20013e58       0x24 build/obj/lcd_controller.o
 .bss._ZL7miAbout
                0x20013e7c       0x24 build/obj/lcd_controller.o
 .bss._ZL10miTestInj1
                0x20013ea0       0x24 build/obj/lcd_controller.o
 .bss._ZL5miTps
                0x20013ec4       0x24 build/obj/lcd_controller.o
 .bss._ZL10miTestInj3
                0x20013ee8       0x24 build/obj/lcd_controller.o
 .bss._ZL10miTestInj4
                0x20013f0c       0x24 build/obj/lcd_controller.o
 .bss._ZL13lcdLineStream
                0x20013f30       0x14 build/obj/lcd_controller.o
 .bss._ZL5miMap
                0x20013f44       0x24 build/obj/lcd_controller.o
 .bss._ZL6miBaro
                0x20013f68       0x24 build/obj/lcd_controller.o
 .bss._ZL9miVersion
                0x20013f8c       0x24 build/obj/lcd_controller.o
 .bss._ZL15miTriggerErrors
                0x20013fb0       0x24 build/obj/lcd_controller.o
 .bss._ZL9miInjFlow
                0x20013fd4       0x24 build/obj/lcd_controller.o
 .bss._ZL11miInjection
                0x20013ff8       0x24 build/obj/lcd_controller.o
 .bss._ZL12miStopEngine
                0x2001401c       0x24 build/obj/lcd_controller.o
 .bss._ZL14miTestFuelPump
                0x20014040       0x24 build/obj/lcd_controller.o
 .bss._ZL7miBench
                0x20014064       0x24 build/obj/lcd_controller.o
 .bss._ZL5miClt
                0x20014088       0x24 build/obj/lcd_controller.o
 .bss._ZL13miTriggerDuty
                0x200140ac       0x24 build/obj/lcd_controller.o
 .bss._ZL4ROOT  0x200140d0       0x24 build/obj/lcd_controller.o
 .bss._ZL6miAlgo
                0x200140f4       0x24 build/obj/lcd_controller.o
 .bss._ZL5miRpm
                0x20014118       0x24 build/obj/lcd_controller.o
 .bss._ZL13lcdLineBuffer
                0x2001413c       0x20 build/obj/lcd_controller.o
 .bss._ZL9miMapKgHr
                0x2001415c       0x24 build/obj/lcd_controller.o
 .bss._ZL6miMapV
                0x20014180       0x24 build/obj/lcd_controller.o
 .bss._ZL5miAfr
                0x200141a4       0x24 build/obj/lcd_controller.o
 .bss._ZL32versionForConfigurationListeners
                0x200141c8        0x4 build/obj/engine_controller.o
 .bss._ZL13pinNameBuffer
                0x200141cc       0x10 build/obj/engine_controller.o
 .bss._ZL17periodicSlowTimer
                0x200141dc       0x14 build/obj/engine_controller.o
 .bss.halTime   0x200141f0       0x10 build/obj/engine_controller.o
                0x200141f0                halTime
 .bss._ZL17periodicFastTimer
                0x20014200       0x14 build/obj/engine_controller.o
 *fill*         0x20014214        0x4 
 .bss._ZL13csThreadStack
                0x20014218      0x2e8 build/obj/engine_controller.o
 .bss._ZL6logger
                0x20014500      0x104 build/obj/engine_controller.o
 *fill*         0x20014604        0x4 
 .bss._engine   0x20014608     0x2418 build/obj/engine_controller.o
                0x20014608                _engine
 .bss._ZL25intermediateLoggingBuffer
                0x20016a20       0x14 build/obj/datalogging.o
 .bss._ZL6header
                0x20016a34       0x10 build/obj/datalogging.o
 .bss._ZL31intermediateLoggingBufferInited
                0x20016a44        0x1 build/obj/datalogging.o
 *fill*         0x20016a45        0x3 
 .bss._ZL15accumulatedSize
                0x20016a48        0x4 build/obj/loggingcentral.o
 .bss._ZL18accumulationBuffer
                0x20016a4c        0x4 build/obj/loggingcentral.o
 .bss._ZL12outputBuffer
                0x20016a50        0x4 build/obj/loggingcentral.o
 .bss._ZL15pendingBuffers1
                0x20016a54     0x1964 build/obj/loggingcentral.o
 .bss._ZL14consoleActions
                0x200183b8      0xc40 build/obj/cli_registry.o
 .bss._ZL12confirmation
                0x20018ff8       0xc8 build/obj/cli_registry.o
 .bss._ZL7logging
                0x200190c0        0x4 build/obj/cli_registry.o
 .bss._ZL18consoleActionCount
                0x200190c4        0x4 build/obj/cli_registry.o
 .bss._ZL12handleBuffer
                0x200190c8       0xc8 build/obj/cli_registry.o
 .bss._ZL23todofixthismesswithcopy
                0x20019190       0x64 build/obj/efilib.o
 .bss._ZL6leLess
                0x200191f4        0xc build/obj/fsio_core.o
 .bss._ZL5leSub
                0x20019200        0xc build/obj/fsio_core.o
 .bss._ZL6leAnd2
                0x2001920c        0xc build/obj/fsio_core.o
 .bss._ZL13leMoreOrEqual
                0x20019218        0xc build/obj/fsio_core.o
 .bss._ZL4leOr  0x20019224        0xc build/obj/fsio_core.o
 .bss._ZL5leMin
                0x20019230        0xc build/obj/fsio_core.o
 .bss._ZL5leAnd
                0x2001923c        0xc build/obj/fsio_core.o
 .bss._ZL5leMul
                0x20019248        0xc build/obj/fsio_core.o
 .bss._ZL13parsingBuffer
                0x20019254       0x40 build/obj/fsio_core.o
 .bss._ZL5leNot
                0x20019294        0xc build/obj/fsio_core.o
 .bss._ZL5leDiv
                0x200192a0        0xc build/obj/fsio_core.o
 .bss._ZL5leMax
                0x200192ac        0xc build/obj/fsio_core.o
 .bss._ZL4leIf  0x200192b8        0xc build/obj/fsio_core.o
 .bss._ZL6leMore
                0x200192c4        0xc build/obj/fsio_core.o
 .bss._ZL5leOr2
                0x200192d0        0xc build/obj/fsio_core.o
 .bss._ZL5leAdd
                0x200192dc        0xc build/obj/fsio_core.o
 .bss.LE_FIRST  0x200192e8        0x4 build/obj/fsio_core.o
                0x200192e8                LE_FIRST
 .bss._ZL14leLessOrEquals
                0x200192ec        0xc build/obj/fsio_core.o
 .bss.logger    0x200192f8        0x4 build/obj/interpolation.o
                0x200192f8                logger
 .bss._ZL8evalCalc
                0x200192fc       0x88 build/obj/fsio_impl.o
 .bss._ZL13leFsioSetting
                0x20019384        0xc build/obj/fsio_impl.o
 .bss._ZL15alternatorLogic
                0x20019390        0x4 build/obj/fsio_impl.o
 .bss._ZL11fsioOutputs
                0x20019394      0x100 build/obj/fsio_impl.o
 .bss._ZL15leFanOffSetting
                0x20019494        0xc build/obj/fsio_impl.o
 .bss._ZL12acRelayLogic
                0x200194a0        0x4 build/obj/fsio_impl.o
 .bss._ZL7leKnock
                0x200194a4        0xc build/obj/fsio_impl.o
 .bss._ZL16evalPoolElements
                0x200194b0      0x200 build/obj/fsio_impl.o
 .bss._ZL15leTimeSinceBoot
                0x200196b0        0xc build/obj/fsio_impl.o
 .bss._ZL12userElements
                0x200196bc      0x800 build/obj/fsio_impl.o
 .bss._ZL9leCoolant
                0x20019ebc        0xc build/obj/fsio_impl.o
 .bss._ZL16radiatorFanLogic
                0x20019ec8        0x4 build/obj/fsio_impl.o
 .bss._ZL5leRpm
                0x20019ecc        0xc build/obj/fsio_impl.o
 .bss.sysPool   0x20019ed8        0xc build/obj/fsio_impl.o
                0x20019ed8                sysPool
 .bss._ZL5leFan
                0x20019ee4        0xc build/obj/fsio_impl.o
 .bss._ZL14leFanOnSetting
                0x20019ef0        0xc build/obj/fsio_impl.o
 .bss._ZL4calc  0x20019efc       0x88 build/obj/fsio_impl.o
 .bss._ZL11sysElements
                0x20019f84      0x800 build/obj/fsio_impl.o
 .bss._ZL7leVBatt
                0x2001a784        0xc build/obj/fsio_impl.o
 .bss.userPool  0x2001a790        0xc build/obj/fsio_impl.o
                0x2001a790                userPool
 .bss._ZL5leTps
                0x2001a79c        0xc build/obj/fsio_impl.o
 .bss._ZL8evalPool
                0x2001a7a8        0xc build/obj/fsio_impl.o
 .bss._ZL10leAcToggle
                0x2001a7b4        0xc build/obj/fsio_impl.o
 .bss._ZL13fuelPumpLogic
                0x2001a7c0        0x4 build/obj/fsio_impl.o
 .bss._ZL4defa  0x2001a7c4        0x4 build/obj/fsio_impl.o
 .bss._ZL6logger
                0x2001a7c8        0x4 build/obj/fsio_impl.o
 .bss._ZL5leMaf
                0x2001a7cc        0xc build/obj/fsio_impl.o
 .bss.ve2Map    0x2001a7d8       0x4c build/obj/speed_density.o
                0x2001a7d8                ve2Map
 .bss.veMap     0x2001a824       0x4c build/obj/speed_density.o
                0x2001a824                veMap
 .bss.afrMap    0x2001a870       0x4c build/obj/speed_density.o
                0x2001a870                afrMap
 .bss.baroCorrMap
                0x2001a8bc       0x1c build/obj/speed_density.o
                0x2001a8bc                baroCorrMap
 .bss._ZL12sharedLogger
                0x2001a8d8      0x104 build/obj/rusefi.o
 .bss._ZL12panicMessage
                0x2001a9dc       0xc8 build/obj/rusefi.o
 .bss.activeConfiguration
                0x2001aaa4      0x8a8 build/obj/rusefi.o
                0x2001aaa4                activeConfiguration
 .bss._ZL10resetTimer
                0x2001b34c       0x14 build/obj/rusefi.o
 .bss.main_loop_started
                0x2001b360        0x1 build/obj/rusefi.o
                0x2001b360                main_loop_started
 *fill*         0x2001b361        0x3 
 .bss.errorMessageBuffer
                0x2001b364       0xc8 build/obj/rusefi.o
                0x2001b364                errorMessageBuffer
 .bss.hasFirmwareErrorFlag
                0x2001b42c        0x1 build/obj/rusefi.o
                0x2001b42c                hasFirmwareErrorFlag
 *fill*         0x2001b42d        0x3 
 .bss._ZL26firmwareErrorMessageStream
                0x2001b430       0x14 build/obj/rusefi.o
                0x2001b444                . = ALIGN (0x4)
 *(COMMON)
                0x2001b444                . = ALIGN (0x4)
                0x2001b444                PROVIDE (_bss_end, .)
                0x2001b444                PROVIDE (end, .)
                0x2001b444                _end = .
                0x2001b444                __heap_base__ = _end
                0x2001c000                __heap_end__ = __ram_end__
LOAD c:/progra~2/codesourcery/sourcery_codebench_lite_for_arm_eabi/bin/../lib/gcc/arm-none-eabi/4.8.1/../../../../arm-none-eabi/lib/thumb2\libm.a
START GROUP
LOAD c:/progra~2/codesourcery/sourcery_codebench_lite_for_arm_eabi/bin/../lib/gcc/arm-none-eabi/4.8.1/thumb2\libgcc.a
LOAD c:/progra~2/codesourcery/sourcery_codebench_lite_for_arm_eabi/bin/../lib/gcc/arm-none-eabi/4.8.1/../../../../arm-none-eabi/lib/thumb2\libc.a
END GROUP
OUTPUT(build/rusefi.elf elf32-littlearm)

.comment        0x00000000       0x30
 .comment       0x00000000       0x30 build/obj/crt0.o
                                 0x31 (size before relaxing)
 .comment       0x00000000       0x31 build/obj/vectors.o
 .comment       0x00000000       0x31 build/obj/chcore.o
 .comment       0x00000000       0x31 build/obj/chcore_v7m.o
 .comment       0x00000000       0x31 build/obj/nvic.o
 .comment       0x00000000       0x31 build/obj/chsys.o
 .comment       0x00000000       0x31 build/obj/chdebug.o
 .comment       0x00000000       0x31 build/obj/chvt.o
 .comment       0x00000000       0x31 build/obj/chschd.o
 .comment       0x00000000       0x31 build/obj/chthreads.o
 .comment       0x00000000       0x31 build/obj/chregistry.o
 .comment       0x00000000       0x31 build/obj/chsem.o
 .comment       0x00000000       0x31 build/obj/chmtx.o
 .comment       0x00000000       0x31 build/obj/chevents.o
 .comment       0x00000000       0x31 build/obj/chqueues.o
 .comment       0x00000000       0x31 build/obj/chmemcore.o
 .comment       0x00000000       0x31 build/obj/chheap.o
 .comment       0x00000000       0x31 build/obj/chprintf.o
 .comment       0x00000000       0x31 build/obj/memstreams.o
 .comment       0x00000000       0x31 build/obj/chrtclib.o
 .comment       0x00000000       0x31 build/obj/crc.o
 .comment       0x00000000       0x31 build/obj/rfiutil.o
 .comment       0x00000000       0x31 build/obj/hal.o
 .comment       0x00000000       0x31 build/obj/adc.o
 .comment       0x00000000       0x31 build/obj/can.o
 .comment       0x00000000       0x31 build/obj/ext.o
 .comment       0x00000000       0x31 build/obj/gpt.o
 .comment       0x00000000       0x31 build/obj/i2c.o
 .comment       0x00000000       0x31 build/obj/icu.o
 .comment       0x00000000       0x31 build/obj/mmc_spi.o
 .comment       0x00000000       0x31 build/obj/mmcsd.o
 .comment       0x00000000       0x31 build/obj/pwm.o
 .comment       0x00000000       0x31 build/obj/rtc.o
 .comment       0x00000000       0x31 build/obj/serial.o
 .comment       0x00000000       0x31 build/obj/serial_usb.o
 .comment       0x00000000       0x31 build/obj/spi.o
 .comment       0x00000000       0x31 build/obj/usb.o
 .comment       0x00000000       0x31 build/obj/usbcfg.o
 .comment       0x00000000       0x31 build/obj/usbconsole.o
 .comment       0x00000000       0x31 build/obj/flash.o
 .comment       0x00000000       0x31 build/obj/malfunction_central.o
 .comment       0x00000000       0x31 build/obj/nmea.o
 .comment       0x00000000       0x31 build/obj/stm32_dma.o
 .comment       0x00000000       0x31 build/obj/hal_lld.o
 .comment       0x00000000       0x31 build/obj/adc_lld.o
 .comment       0x00000000       0x31 build/obj/ext_lld_isr.o
 .comment       0x00000000       0x31 build/obj/can_lld.o
 .comment       0x00000000       0x31 build/obj/ext_lld.o
 .comment       0x00000000       0x31 build/obj/pal_lld.o
 .comment       0x00000000       0x31 build/obj/i2c_lld.o
 .comment       0x00000000       0x31 build/obj/usb_lld.o
 .comment       0x00000000       0x31 build/obj/rtc_lld.o
 .comment       0x00000000       0x31 build/obj/spi_lld.o
 .comment       0x00000000       0x31 build/obj/gpt_lld.o
 .comment       0x00000000       0x31 build/obj/icu_lld.o
 .comment       0x00000000       0x31 build/obj/pwm_lld.o
 .comment       0x00000000       0x31 build/obj/serial_lld.o
 .comment       0x00000000       0x31 build/obj/board.o
 .comment       0x00000000       0x31 build/obj/fatfs_diskio.o
 .comment       0x00000000       0x31 build/obj/fatfs_syscall.o
 .comment       0x00000000       0x31 build/obj/ff.o
 .comment       0x00000000       0x31 build/obj/ccsbcs.o
 .comment       0x00000000       0x31 build/obj/trigger_emulator_algo.o
 .comment       0x00000000       0x31 build/obj/rpm_calculator.o
 .comment       0x00000000       0x31 build/obj/trigger_central.o
 .comment       0x00000000       0x31 build/obj/main_trigger_callback.o
 .comment       0x00000000       0x31 build/obj/trigger_bmw.o
 .comment       0x00000000       0x31 build/obj/trigger_mazda.o
 .comment       0x00000000       0x31 build/obj/trigger_chrysler.o
 .comment       0x00000000       0x31 build/obj/trigger_structure.o
 .comment       0x00000000       0x31 build/obj/trigger_decoder.o
 .comment       0x00000000       0x31 build/obj/trigger_mitsubishi.o
 .comment       0x00000000       0x31 build/obj/trigger_emulator.o
 .comment       0x00000000       0x31 build/obj/poten.o
 .comment       0x00000000       0x31 build/obj/sensor_chart.o
 .comment       0x00000000       0x31 build/obj/engine_emulator.o
 .comment       0x00000000       0x31 build/obj/wave_chart.o
 .comment       0x00000000       0x31 build/obj/wave_analyzer.o
 .comment       0x00000000       0x31 build/obj/advance_map.o
 .comment       0x00000000       0x31 build/obj/idle_controller.o
 .comment       0x00000000       0x31 build/obj/auto_generated_enums.o
 .comment       0x00000000       0x31 build/obj/fuel_math.o
 .comment       0x00000000       0x31 build/obj/accel_enrichment.o
 .comment       0x00000000       0x31 build/obj/engine_configuration.o
 .comment       0x00000000       0x31 build/obj/engine.o
 .comment       0x00000000       0x31 build/obj/lcd_menu_tree.o
 .comment       0x00000000       0x31 build/obj/event_registry.o
 .comment       0x00000000       0x31 build/obj/algo.o
 .comment       0x00000000       0x31 build/obj/signal_executor.o
 .comment       0x00000000       0x31 build/obj/pwm_generator_logic.o
 .comment       0x00000000       0x31 build/obj/event_queue.o
 .comment       0x00000000       0x31 build/obj/efiGpio.o
 .comment       0x00000000       0x31 build/obj/SingleTimerExecutor.o
 .comment       0x00000000       0x31 build/obj/ford_aspire.o
 .comment       0x00000000       0x31 build/obj/custom_engine.o
 .comment       0x00000000       0x31 build/obj/MiniCooperR50.o
 .comment       0x00000000       0x31 build/obj/acura_rsx.o
 .comment       0x00000000       0x31 build/obj/bmw_e34.o
 .comment       0x00000000       0x31 build/obj/mazda_miata.o
 .comment       0x00000000       0x31 build/obj/citroenBerlingoTU3JP.o
 .comment       0x00000000       0x31 build/obj/dodge_neon.o
 .comment       0x00000000       0x31 build/obj/ford_fiesta.o
 .comment       0x00000000       0x31 build/obj/ford_1995_inline_6.o
 .comment       0x00000000       0x31 build/obj/nissan_primera.o
 .comment       0x00000000       0x31 build/obj/mazda_miata_nb.o
 .comment       0x00000000       0x31 build/obj/honda_accord.o
 .comment       0x00000000       0x31 build/obj/subaru.o
 .comment       0x00000000       0x31 build/obj/GY6_139QMB.o
 .comment       0x00000000       0x31 build/obj/rover_v8.o
 .comment       0x00000000       0x31 build/obj/mazda_323.o
 .comment       0x00000000       0x31 build/obj/mazda_626.o
 .comment       0x00000000       0x31 build/obj/saturn_ion.o
 .comment       0x00000000       0x31 build/obj/sachs.o
 .comment       0x00000000       0x31 build/obj/test_engine.o
 .comment       0x00000000       0x31 build/obj/mitsubishi.o
 .comment       0x00000000       0x31 build/obj/gm_2_2.o
 .comment       0x00000000       0x31 build/obj/dodge_ram.o
 .comment       0x00000000       0x31 build/obj/vw.o
 .comment       0x00000000       0x31 build/obj/can_hw.o
 .comment       0x00000000       0x31 build/obj/max31855.o
 .comment       0x00000000       0x31 build/obj/pin_repository.o
 .comment       0x00000000       0x31 build/obj/microsecond_timer.o
 .comment       0x00000000       0x31 build/obj/digital_input_hw.o
 .comment       0x00000000       0x31 build/obj/hardware.o
 .comment       0x00000000       0x31 build/obj/neo6m.o
 .comment       0x00000000       0x31 build/obj/mmc_card.o
 .comment       0x00000000       0x31 build/obj/lcd_HD44780.o
 .comment       0x00000000       0x31 build/obj/adc_inputs.o
 .comment       0x00000000       0x31 build/obj/board_test.o
 .comment       0x00000000       0x31 build/obj/pwm_generator.o
 .comment       0x00000000       0x31 build/obj/trigger_input.o
 .comment       0x00000000       0x31 build/obj/HIP9011.o
 .comment       0x00000000       0x31 build/obj/vehicle_speed.o
 .comment       0x00000000       0x31 build/obj/joystick.o
 .comment       0x00000000       0x31 build/obj/stepper.o
 .comment       0x00000000       0x31 build/obj/io_pins.o
 .comment       0x00000000       0x31 build/obj/gpio_helper.o
 .comment       0x00000000       0x31 build/obj/mpu_util.o
 .comment       0x00000000       0x31 build/obj/rtc_helper.o
 .comment       0x00000000       0x31 build/obj/wbo.o
 .comment       0x00000000       0x31 build/obj/tunerstudio_io.o
 .comment       0x00000000       0x31 build/obj/tunerstudio.o
 .comment       0x00000000       0x31 build/obj/status_loop.o
 .comment       0x00000000       0x31 build/obj/console_io.o
 .comment       0x00000000       0x31 build/obj/eficonsole.o
 .comment       0x00000000       0x31 build/obj/thermistors.o
 .comment       0x00000000       0x31 build/obj/allsensors.o
 .comment       0x00000000       0x31 build/obj/map.o
 .comment       0x00000000       0x31 build/obj/voltage.o
 .comment       0x00000000       0x31 build/obj/maf.o
 .comment       0x00000000       0x31 build/obj/tps.o
 .comment       0x00000000       0x31 build/obj/ego.o
 .comment       0x00000000       0x31 build/obj/hip9011_lookup.o
 .comment       0x00000000       0x31 build/obj/settings.o
 .comment       0x00000000       0x31 build/obj/electronic_throttle.o
 .comment       0x00000000       0x31 build/obj/error_handling.o
 .comment       0x00000000       0x31 build/obj/map_averaging.o
 .comment       0x00000000       0x31 build/obj/flash_main.o
 .comment       0x00000000       0x31 build/obj/injector_central.o
 .comment       0x00000000       0x31 build/obj/idle_thread.o
 .comment       0x00000000       0x31 build/obj/obd2.o
 .comment       0x00000000       0x31 build/obj/malfunction_indicator.o
 .comment       0x00000000       0x31 build/obj/alternatorController.o
 .comment       0x00000000       0x31 build/obj/lcd_controller.o
 .comment       0x00000000       0x31 build/obj/engine_controller.o
 .comment       0x00000000       0x31 build/obj/datalogging.o
 .comment       0x00000000       0x31 build/obj/loggingcentral.o
 .comment       0x00000000       0x31 build/obj/listener_array.o
 .comment       0x00000000       0x31 build/obj/cli_registry.o
 .comment       0x00000000       0x31 build/obj/efilib.o
 .comment       0x00000000       0x31 build/obj/efilib2.o
 .comment       0x00000000       0x31 build/obj/LocalVersionHolder.o
 .comment       0x00000000       0x31 build/obj/EfiWave.o
 .comment       0x00000000       0x31 build/obj/table_helper.o
 .comment       0x00000000       0x31 build/obj/fsio_core.o
 .comment       0x00000000       0x31 build/obj/interpolation.o
 .comment       0x00000000       0x31 build/obj/fsio_impl.o
 .comment       0x00000000       0x31 build/obj/engine_math.o
 .comment       0x00000000       0x31 build/obj/pid.o
 .comment       0x00000000       0x31 build/obj/speed_density.o
 .comment       0x00000000       0x31 build/obj/rusefi.o
 .comment       0x00000000       0x31 build/obj/main.o

.ARM.attributes
                0x00000000       0x37
 .ARM.attributes
                0x00000000       0x37 build/obj/crt0.o
 .ARM.attributes
                0x00000037       0x37 build/obj/vectors.o
 .ARM.attributes
                0x0000006e       0x37 build/obj/chcore.o
 .ARM.attributes
                0x000000a5       0x37 build/obj/chcore_v7m.o
 .ARM.attributes
                0x000000dc       0x37 build/obj/nvic.o
 .ARM.attributes
                0x00000113       0x37 build/obj/chsys.o
 .ARM.attributes
                0x0000014a       0x37 build/obj/chdebug.o
 .ARM.attributes
                0x00000181       0x37 build/obj/chvt.o
 .ARM.attributes
                0x000001b8       0x37 build/obj/chschd.o
 .ARM.attributes
                0x000001ef       0x37 build/obj/chthreads.o
 .ARM.attributes
                0x00000226       0x37 build/obj/chregistry.o
 .ARM.attributes
                0x0000025d       0x37 build/obj/chsem.o
 .ARM.attributes
                0x00000294       0x37 build/obj/chmtx.o
 .ARM.attributes
                0x000002cb       0x37 build/obj/chevents.o
 .ARM.attributes
                0x00000302       0x37 build/obj/chqueues.o
 .ARM.attributes
                0x00000339       0x37 build/obj/chmemcore.o
 .ARM.attributes
                0x00000370       0x37 build/obj/chheap.o
 .ARM.attributes
                0x000003a7       0x37 build/obj/chprintf.o
 .ARM.attributes
                0x000003de       0x37 build/obj/memstreams.o
 .ARM.attributes
                0x00000415       0x37 build/obj/chrtclib.o
 .ARM.attributes
                0x0000044c       0x37 build/obj/crc.o
 .ARM.attributes
                0x00000483       0x37 build/obj/rfiutil.o
 .ARM.attributes
                0x000004ba       0x37 build/obj/hal.o
 .ARM.attributes
                0x000004f1       0x37 build/obj/adc.o
 .ARM.attributes
                0x00000528       0x37 build/obj/can.o
 .ARM.attributes
                0x0000055f       0x37 build/obj/ext.o
 .ARM.attributes
                0x00000596       0x37 build/obj/gpt.o
 .ARM.attributes
                0x000005cd       0x37 build/obj/i2c.o
 .ARM.attributes
                0x00000604       0x37 build/obj/icu.o
 .ARM.attributes
                0x0000063b       0x37 build/obj/mmc_spi.o
 .ARM.attributes
                0x00000672       0x37 build/obj/mmcsd.o
 .ARM.attributes
                0x000006a9       0x37 build/obj/pwm.o
 .ARM.attributes
                0x000006e0       0x37 build/obj/rtc.o
 .ARM.attributes
                0x00000717       0x37 build/obj/serial.o
 .ARM.attributes
                0x0000074e       0x37 build/obj/serial_usb.o
 .ARM.attributes
                0x00000785       0x37 build/obj/spi.o
 .ARM.attributes
                0x000007bc       0x37 build/obj/usb.o
 .ARM.attributes
                0x000007f3       0x37 build/obj/usbcfg.o
 .ARM.attributes
                0x0000082a       0x37 build/obj/usbconsole.o
 .ARM.attributes
                0x00000861       0x37 build/obj/flash.o
 .ARM.attributes
                0x00000898       0x37 build/obj/malfunction_central.o
 .ARM.attributes
                0x000008cf       0x37 build/obj/nmea.o
 .ARM.attributes
                0x00000906       0x37 build/obj/stm32_dma.o
 .ARM.attributes
                0x0000093d       0x37 build/obj/hal_lld.o
 .ARM.attributes
                0x00000974       0x37 build/obj/adc_lld.o
 .ARM.attributes
                0x000009ab       0x37 build/obj/ext_lld_isr.o
 .ARM.attributes
                0x000009e2       0x37 build/obj/can_lld.o
 .ARM.attributes
                0x00000a19       0x37 build/obj/ext_lld.o
 .ARM.attributes
                0x00000a50       0x37 build/obj/pal_lld.o
 .ARM.attributes
                0x00000a87       0x37 build/obj/i2c_lld.o
 .ARM.attributes
                0x00000abe       0x37 build/obj/usb_lld.o
 .ARM.attributes
                0x00000af5       0x37 build/obj/rtc_lld.o
 .ARM.attributes
                0x00000b2c       0x37 build/obj/spi_lld.o
 .ARM.attributes
                0x00000b63       0x37 build/obj/gpt_lld.o
 .ARM.attributes
                0x00000b9a       0x37 build/obj/icu_lld.o
 .ARM.attributes
                0x00000bd1       0x37 build/obj/pwm_lld.o
 .ARM.attributes
                0x00000c08       0x37 build/obj/serial_lld.o
 .ARM.attributes
                0x00000c3f       0x37 build/obj/board.o
 .ARM.attributes
                0x00000c76       0x37 build/obj/fatfs_diskio.o
 .ARM.attributes
                0x00000cad       0x37 build/obj/fatfs_syscall.o
 .ARM.attributes
                0x00000ce4       0x37 build/obj/ff.o
 .ARM.attributes
                0x00000d1b       0x37 build/obj/ccsbcs.o
 .ARM.attributes
                0x00000d52       0x37 build/obj/trigger_emulator_algo.o
 .ARM.attributes
                0x00000d89       0x37 build/obj/rpm_calculator.o
 .ARM.attributes
                0x00000dc0       0x37 build/obj/trigger_central.o
 .ARM.attributes
                0x00000df7       0x37 build/obj/main_trigger_callback.o
 .ARM.attributes
                0x00000e2e       0x37 build/obj/trigger_bmw.o
 .ARM.attributes
                0x00000e65       0x37 build/obj/trigger_mazda.o
 .ARM.attributes
                0x00000e9c       0x37 build/obj/trigger_chrysler.o
 .ARM.attributes
                0x00000ed3       0x37 build/obj/trigger_structure.o
 .ARM.attributes
                0x00000f0a       0x37 build/obj/trigger_decoder.o
 .ARM.attributes
                0x00000f41       0x37 build/obj/trigger_mitsubishi.o
 .ARM.attributes
                0x00000f78       0x37 build/obj/trigger_emulator.o
 .ARM.attributes
                0x00000faf       0x37 build/obj/poten.o
 .ARM.attributes
                0x00000fe6       0x37 build/obj/sensor_chart.o
 .ARM.attributes
                0x0000101d       0x37 build/obj/engine_emulator.o
 .ARM.attributes
                0x00001054       0x37 build/obj/wave_chart.o
 .ARM.attributes
                0x0000108b       0x37 build/obj/wave_analyzer.o
 .ARM.attributes
                0x000010c2       0x37 build/obj/advance_map.o
 .ARM.attributes
                0x000010f9       0x37 build/obj/idle_controller.o
 .ARM.attributes
                0x00001130       0x37 build/obj/auto_generated_enums.o
 .ARM.attributes
                0x00001167       0x37 build/obj/fuel_math.o
 .ARM.attributes
                0x0000119e       0x37 build/obj/accel_enrichment.o
 .ARM.attributes
                0x000011d5       0x37 build/obj/engine_configuration.o
 .ARM.attributes
                0x0000120c       0x37 build/obj/engine.o
 .ARM.attributes
                0x00001243       0x37 build/obj/lcd_menu_tree.o
 .ARM.attributes
                0x0000127a       0x37 build/obj/event_registry.o
 .ARM.attributes
                0x000012b1       0x37 build/obj/algo.o
 .ARM.attributes
                0x000012e8       0x37 build/obj/signal_executor.o
 .ARM.attributes
                0x0000131f       0x37 build/obj/pwm_generator_logic.o
 .ARM.attributes
                0x00001356       0x37 build/obj/event_queue.o
 .ARM.attributes
                0x0000138d       0x37 build/obj/efiGpio.o
 .ARM.attributes
                0x000013c4       0x37 build/obj/SingleTimerExecutor.o
 .ARM.attributes
                0x000013fb       0x37 build/obj/ford_aspire.o
 .ARM.attributes
                0x00001432       0x37 build/obj/custom_engine.o
 .ARM.attributes
                0x00001469       0x37 build/obj/MiniCooperR50.o
 .ARM.attributes
                0x000014a0       0x37 build/obj/acura_rsx.o
 .ARM.attributes
                0x000014d7       0x37 build/obj/bmw_e34.o
 .ARM.attributes
                0x0000150e       0x37 build/obj/mazda_miata.o
 .ARM.attributes
                0x00001545       0x37 build/obj/citroenBerlingoTU3JP.o
 .ARM.attributes
                0x0000157c       0x37 build/obj/dodge_neon.o
 .ARM.attributes
                0x000015b3       0x37 build/obj/ford_fiesta.o
 .ARM.attributes
                0x000015ea       0x37 build/obj/ford_1995_inline_6.o
 .ARM.attributes
                0x00001621       0x37 build/obj/nissan_primera.o
 .ARM.attributes
                0x00001658       0x37 build/obj/mazda_miata_nb.o
 .ARM.attributes
                0x0000168f       0x37 build/obj/honda_accord.o
 .ARM.attributes
                0x000016c6       0x37 build/obj/subaru.o
 .ARM.attributes
                0x000016fd       0x37 build/obj/GY6_139QMB.o
 .ARM.attributes
                0x00001734       0x37 build/obj/rover_v8.o
 .ARM.attributes
                0x0000176b       0x37 build/obj/mazda_323.o
 .ARM.attributes
                0x000017a2       0x37 build/obj/mazda_626.o
 .ARM.attributes
                0x000017d9       0x37 build/obj/saturn_ion.o
 .ARM.attributes
                0x00001810       0x37 build/obj/sachs.o
 .ARM.attributes
                0x00001847       0x37 build/obj/test_engine.o
 .ARM.attributes
                0x0000187e       0x37 build/obj/mitsubishi.o
 .ARM.attributes
                0x000018b5       0x37 build/obj/gm_2_2.o
 .ARM.attributes
                0x000018ec       0x37 build/obj/dodge_ram.o
 .ARM.attributes
                0x00001923       0x37 build/obj/vw.o
 .ARM.attributes
                0x0000195a       0x37 build/obj/can_hw.o
 .ARM.attributes
                0x00001991       0x37 build/obj/max31855.o
 .ARM.attributes
                0x000019c8       0x37 build/obj/pin_repository.o
 .ARM.attributes
                0x000019ff       0x37 build/obj/microsecond_timer.o
 .ARM.attributes
                0x00001a36       0x37 build/obj/digital_input_hw.o
 .ARM.attributes
                0x00001a6d       0x37 build/obj/hardware.o
 .ARM.attributes
                0x00001aa4       0x37 build/obj/neo6m.o
 .ARM.attributes
                0x00001adb       0x37 build/obj/mmc_card.o
 .ARM.attributes
                0x00001b12       0x37 build/obj/lcd_HD44780.o
 .ARM.attributes
                0x00001b49       0x37 build/obj/adc_inputs.o
 .ARM.attributes
                0x00001b80       0x37 build/obj/board_test.o
 .ARM.attributes
                0x00001bb7       0x37 build/obj/pwm_generator.o
 .ARM.attributes
                0x00001bee       0x37 build/obj/trigger_input.o
 .ARM.attributes
                0x00001c25       0x37 build/obj/HIP9011.o
 .ARM.attributes
                0x00001c5c       0x37 build/obj/vehicle_speed.o
 .ARM.attributes
                0x00001c93       0x37 build/obj/joystick.o
 .ARM.attributes
                0x00001cca       0x37 build/obj/stepper.o
 .ARM.attributes
                0x00001d01       0x37 build/obj/io_pins.o
 .ARM.attributes
                0x00001d38       0x37 build/obj/gpio_helper.o
 .ARM.attributes
                0x00001d6f       0x37 build/obj/mpu_util.o
 .ARM.attributes
                0x00001da6       0x37 build/obj/rtc_helper.o
 .ARM.attributes
                0x00001ddd       0x37 build/obj/wbo.o
 .ARM.attributes
                0x00001e14       0x37 build/obj/tunerstudio_io.o
 .ARM.attributes
                0x00001e4b       0x37 build/obj/tunerstudio.o
 .ARM.attributes
                0x00001e82       0x37 build/obj/status_loop.o
 .ARM.attributes
                0x00001eb9       0x37 build/obj/console_io.o
 .ARM.attributes
                0x00001ef0       0x37 build/obj/eficonsole.o
 .ARM.attributes
                0x00001f27       0x37 build/obj/thermistors.o
 .ARM.attributes
                0x00001f5e       0x37 build/obj/allsensors.o
 .ARM.attributes
                0x00001f95       0x37 build/obj/map.o
 .ARM.attributes
                0x00001fcc       0x37 build/obj/voltage.o
 .ARM.attributes
                0x00002003       0x37 build/obj/maf.o
 .ARM.attributes
                0x0000203a       0x37 build/obj/tps.o
 .ARM.attributes
                0x00002071       0x37 build/obj/ego.o
 .ARM.attributes
                0x000020a8       0x37 build/obj/hip9011_lookup.o
 .ARM.attributes
                0x000020df       0x37 build/obj/settings.o
 .ARM.attributes
                0x00002116       0x37 build/obj/electronic_throttle.o
 .ARM.attributes
                0x0000214d       0x37 build/obj/error_handling.o
 .ARM.attributes
                0x00002184       0x37 build/obj/map_averaging.o
 .ARM.attributes
                0x000021bb       0x37 build/obj/flash_main.o
 .ARM.attributes
                0x000021f2       0x37 build/obj/injector_central.o
 .ARM.attributes
                0x00002229       0x37 build/obj/idle_thread.o
 .ARM.attributes
                0x00002260       0x37 build/obj/obd2.o
 .ARM.attributes
                0x00002297       0x37 build/obj/malfunction_indicator.o
 .ARM.attributes
                0x000022ce       0x37 build/obj/alternatorController.o
 .ARM.attributes
                0x00002305       0x37 build/obj/lcd_controller.o
 .ARM.attributes
                0x0000233c       0x37 build/obj/engine_controller.o
 .ARM.attributes
                0x00002373       0x37 build/obj/datalogging.o
 .ARM.attributes
                0x000023aa       0x37 build/obj/loggingcentral.o
 .ARM.attributes
                0x000023e1       0x37 build/obj/listener_array.o
 .ARM.attributes
                0x00002418       0x37 build/obj/cli_registry.o
 .ARM.attributes
                0x0000244f       0x37 build/obj/efilib.o
 .ARM.attributes
                0x00002486       0x37 build/obj/efilib2.o
 .ARM.attributes
                0x000024bd       0x37 build/obj/LocalVersionHolder.o
 .ARM.attributes
                0x000024f4       0x37 build/obj/EfiWave.o
 .ARM.attributes
                0x0000252b       0x37 build/obj/table_helper.o
 .ARM.attributes
                0x00002562       0x37 build/obj/fsio_core.o
 .ARM.attributes
                0x00002599       0x37 build/obj/interpolation.o
 .ARM.attributes
                0x000025d0       0x37 build/obj/fsio_impl.o
 .ARM.attributes
                0x00002607       0x37 build/obj/engine_math.o
 .ARM.attributes
                0x0000263e       0x37 build/obj/pid.o
 .ARM.attributes
                0x00002675       0x37 build/obj/speed_density.o
 .ARM.attributes
                0x000026ac       0x37 build/obj/rusefi.o
 .ARM.attributes
                0x000026e3       0x37 build/obj/main.o
 .ARM.attributes
                0x0000271a       0x29 c:/progra~2/codesourcery/sourcery_codebench_lite_for_arm_eabi/bin/../lib/gcc/arm-none-eabi/4.8.1/../../../../arm-none-eabi/lib/thumb2\libm.a(lib_a-s_fpclassify.o)
 .ARM.attributes
                0x00002743       0x29 c:/progra~2/codesourcery/sourcery_codebench_lite_for_arm_eabi/bin/../lib/gcc/arm-none-eabi/4.8.1/../../../../arm-none-eabi/lib/thumb2\libm.a(lib_a-s_modf.o)
 .ARM.attributes
                0x0000276c       0x29 c:/progra~2/codesourcery/sourcery_codebench_lite_for_arm_eabi/bin/../lib/gcc/arm-none-eabi/4.8.1/../../../../arm-none-eabi/lib/thumb2\libm.a(lib_a-s_round.o)
 .ARM.attributes
                0x00002795       0x29 c:/progra~2/codesourcery/sourcery_codebench_lite_for_arm_eabi/bin/../lib/gcc/arm-none-eabi/4.8.1/../../../../arm-none-eabi/lib/thumb2\libm.a(lib_a-sf_fpclassify.o)
 .ARM.attributes
                0x000027be       0x29 c:/progra~2/codesourcery/sourcery_codebench_lite_for_arm_eabi/bin/../lib/gcc/arm-none-eabi/4.8.1/../../../../arm-none-eabi/lib/thumb2\libm.a(lib_a-wf_log.o)
 .ARM.attributes
                0x000027e7       0x29 c:/progra~2/codesourcery/sourcery_codebench_lite_for_arm_eabi/bin/../lib/gcc/arm-none-eabi/4.8.1/../../../../arm-none-eabi/lib/thumb2\libm.a(lib_a-ef_log.o)
 .ARM.attributes
                0x00002810       0x29 c:/progra~2/codesourcery/sourcery_codebench_lite_for_arm_eabi/bin/../lib/gcc/arm-none-eabi/4.8.1/../../../../arm-none-eabi/lib/thumb2\libm.a(lib_a-s_lib_ver.o)
 .ARM.attributes
                0x00002839       0x29 c:/progra~2/codesourcery/sourcery_codebench_lite_for_arm_eabi/bin/../lib/gcc/arm-none-eabi/4.8.1/../../../../arm-none-eabi/lib/thumb2\libm.a(lib_a-s_matherr.o)
 .ARM.attributes
                0x00002862       0x29 c:/progra~2/codesourcery/sourcery_codebench_lite_for_arm_eabi/bin/../lib/gcc/arm-none-eabi/4.8.1/../../../../arm-none-eabi/lib/thumb2\libm.a(lib_a-s_nan.o)
 .ARM.attributes
                0x0000288b       0x19 c:/progra~2/codesourcery/sourcery_codebench_lite_for_arm_eabi/bin/../lib/gcc/arm-none-eabi/4.8.1/thumb2\libgcc.a(_arm_addsubdf3.o)
 .ARM.attributes
                0x000028a4       0x19 c:/progra~2/codesourcery/sourcery_codebench_lite_for_arm_eabi/bin/../lib/gcc/arm-none-eabi/4.8.1/thumb2\libgcc.a(_arm_muldivdf3.o)
 .ARM.attributes
                0x000028bd       0x19 c:/progra~2/codesourcery/sourcery_codebench_lite_for_arm_eabi/bin/../lib/gcc/arm-none-eabi/4.8.1/thumb2\libgcc.a(_arm_cmpdf2.o)
 .ARM.attributes
                0x000028d6       0x19 c:/progra~2/codesourcery/sourcery_codebench_lite_for_arm_eabi/bin/../lib/gcc/arm-none-eabi/4.8.1/thumb2\libgcc.a(_arm_fixdfsi.o)
 .ARM.attributes
                0x000028ef       0x19 c:/progra~2/codesourcery/sourcery_codebench_lite_for_arm_eabi/bin/../lib/gcc/arm-none-eabi/4.8.1/thumb2\libgcc.a(_arm_truncdfsf2.o)
 .ARM.attributes
                0x00002908       0x19 c:/progra~2/codesourcery/sourcery_codebench_lite_for_arm_eabi/bin/../lib/gcc/arm-none-eabi/4.8.1/thumb2\libgcc.a(_arm_addsubsf3.o)
 .ARM.attributes
                0x00002921       0x19 c:/progra~2/codesourcery/sourcery_codebench_lite_for_arm_eabi/bin/../lib/gcc/arm-none-eabi/4.8.1/thumb2\libgcc.a(_arm_muldivsf3.o)
 .ARM.attributes
                0x0000293a       0x19 c:/progra~2/codesourcery/sourcery_codebench_lite_for_arm_eabi/bin/../lib/gcc/arm-none-eabi/4.8.1/thumb2\libgcc.a(_arm_cmpsf2.o)
 .ARM.attributes
                0x00002953       0x19 c:/progra~2/codesourcery/sourcery_codebench_lite_for_arm_eabi/bin/../lib/gcc/arm-none-eabi/4.8.1/thumb2\libgcc.a(_aeabi_uldivmod.o)
 .ARM.attributes
                0x0000296c       0x29 c:/progra~2/codesourcery/sourcery_codebench_lite_for_arm_eabi/bin/../lib/gcc/arm-none-eabi/4.8.1/thumb2\libgcc.a(_fixunssfdi.o)
 .ARM.attributes
                0x00002995       0x29 c:/progra~2/codesourcery/sourcery_codebench_lite_for_arm_eabi/bin/../lib/gcc/arm-none-eabi/4.8.1/thumb2\libgcc.a(bpabi.o)
 .ARM.attributes
                0x000029be       0x19 c:/progra~2/codesourcery/sourcery_codebench_lite_for_arm_eabi/bin/../lib/gcc/arm-none-eabi/4.8.1/thumb2\libgcc.a(_dvmd_tls.o)
 .ARM.attributes
                0x000029d7       0x19 c:/progra~2/codesourcery/sourcery_codebench_lite_for_arm_eabi/bin/../lib/gcc/arm-none-eabi/4.8.1/thumb2\libgcc.a(_arm_fixunsdfsi.o)
 .ARM.attributes
                0x000029f0       0x29 c:/progra~2/codesourcery/sourcery_codebench_lite_for_arm_eabi/bin/../lib/gcc/arm-none-eabi/4.8.1/thumb2\libgcc.a(_divdi3.o)
 .ARM.attributes
                0x00002a19       0x29 c:/progra~2/codesourcery/sourcery_codebench_lite_for_arm_eabi/bin/../lib/gcc/arm-none-eabi/4.8.1/thumb2\libgcc.a(_udivdi3.o)
 .ARM.attributes
                0x00002a42       0x19 c:/progra~2/codesourcery/sourcery_codebench_lite_for_arm_eabi/bin/../lib/gcc/arm-none-eabi/4.8.1/thumb2\libgcc.a(_udivsi3.o)
 .ARM.attributes
                0x00002a5b       0x29 c:/progra~2/codesourcery/sourcery_codebench_lite_for_arm_eabi/bin/../lib/gcc/arm-none-eabi/4.8.1/../../../../arm-none-eabi/lib/thumb2\libc.a(lib_a-errno.o)
 .ARM.attributes
                0x00002a84       0x29 c:/progra~2/codesourcery/sourcery_codebench_lite_for_arm_eabi/bin/../lib/gcc/arm-none-eabi/4.8.1/../../../../arm-none-eabi/lib/thumb2\libc.a(lib_a-impure.o)
 .ARM.attributes
                0x00002aad       0x29 c:/progra~2/codesourcery/sourcery_codebench_lite_for_arm_eabi/bin/../lib/gcc/arm-none-eabi/4.8.1/../../../../arm-none-eabi/lib/thumb2\libc.a(lib_a-lcltime_r.o)
 .ARM.attributes
                0x00002ad6       0x29 c:/progra~2/codesourcery/sourcery_codebench_lite_for_arm_eabi/bin/../lib/gcc/arm-none-eabi/4.8.1/../../../../arm-none-eabi/lib/thumb2\libc.a(lib_a-memcmp.o)
 .ARM.attributes
                0x00002aff       0x29 c:/progra~2/codesourcery/sourcery_codebench_lite_for_arm_eabi/bin/../lib/gcc/arm-none-eabi/4.8.1/../../../../arm-none-eabi/lib/thumb2\libc.a(lib_a-memcpy-stub.o)
 .ARM.attributes
                0x00002b28       0x29 c:/progra~2/codesourcery/sourcery_codebench_lite_for_arm_eabi/bin/../lib/gcc/arm-none-eabi/4.8.1/../../../../arm-none-eabi/lib/thumb2\libc.a(lib_a-memset.o)
 .ARM.attributes
                0x00002b51       0x29 c:/progra~2/codesourcery/sourcery_codebench_lite_for_arm_eabi/bin/../lib/gcc/arm-none-eabi/4.8.1/../../../../arm-none-eabi/lib/thumb2\libc.a(lib_a-mktime.o)
 .ARM.attributes
                0x00002b7a       0x29 c:/progra~2/codesourcery/sourcery_codebench_lite_for_arm_eabi/bin/../lib/gcc/arm-none-eabi/4.8.1/../../../../arm-none-eabi/lib/thumb2\libc.a(lib_a-mktm_r.o)
 .ARM.attributes
                0x00002ba3       0x29 c:/progra~2/codesourcery/sourcery_codebench_lite_for_arm_eabi/bin/../lib/gcc/arm-none-eabi/4.8.1/../../../../arm-none-eabi/lib/thumb2\libc.a(lib_a-strchr.o)
 .ARM.attributes
                0x00002bcc       0x29 c:/progra~2/codesourcery/sourcery_codebench_lite_for_arm_eabi/bin/../lib/gcc/arm-none-eabi/4.8.1/../../../../arm-none-eabi/lib/thumb2\libc.a(lib_a-strcpy.o)
 .ARM.attributes
                0x00002bf5       0x29 c:/progra~2/codesourcery/sourcery_codebench_lite_for_arm_eabi/bin/../lib/gcc/arm-none-eabi/4.8.1/../../../../arm-none-eabi/lib/thumb2\libc.a(lib_a-strlen.o)
 .ARM.attributes
                0x00002c1e       0x29 c:/progra~2/codesourcery/sourcery_codebench_lite_for_arm_eabi/bin/../lib/gcc/arm-none-eabi/4.8.1/../../../../arm-none-eabi/lib/thumb2\libc.a(lib_a-strncmp.o)
 .ARM.attributes
                0x00002c47       0x29 c:/progra~2/codesourcery/sourcery_codebench_lite_for_arm_eabi/bin/../lib/gcc/arm-none-eabi/4.8.1/../../../../arm-none-eabi/lib/thumb2\libc.a(lib_a-strncpy.o)
 .ARM.attributes
                0x00002c70       0x29 c:/progra~2/codesourcery/sourcery_codebench_lite_for_arm_eabi/bin/../lib/gcc/arm-none-eabi/4.8.1/../../../../arm-none-eabi/lib/thumb2\libc.a(lib_a-strrchr.o)
 .ARM.attributes
                0x00002c99       0x29 c:/progra~2/codesourcery/sourcery_codebench_lite_for_arm_eabi/bin/../lib/gcc/arm-none-eabi/4.8.1/../../../../arm-none-eabi/lib/thumb2\libc.a(lib_a-strstr.o)
 .ARM.attributes
                0x00002cc2       0x29 c:/progra~2/codesourcery/sourcery_codebench_lite_for_arm_eabi/bin/../lib/gcc/arm-none-eabi/4.8.1/../../../../arm-none-eabi/lib/thumb2\libc.a(lib_a-tzlock.o)
 .ARM.attributes
                0x00002ceb       0x29 c:/progra~2/codesourcery/sourcery_codebench_lite_for_arm_eabi/bin/../lib/gcc/arm-none-eabi/4.8.1/../../../../arm-none-eabi/lib/thumb2\libc.a(lib_a-tzvars.o)
 .ARM.attributes
                0x00002d14       0x29 c:/progra~2/codesourcery/sourcery_codebench_lite_for_arm_eabi/bin/../lib/gcc/arm-none-eabi/4.8.1/../../../../arm-none-eabi/lib/thumb2\libc.a(lib_a-div.o)
 .ARM.attributes
                0x00002d3d       0x29 c:/progra~2/codesourcery/sourcery_codebench_lite_for_arm_eabi/bin/../lib/gcc/arm-none-eabi/4.8.1/../../../../arm-none-eabi/lib/thumb2\libc.a(lib_a-gettzinfo.o)
 .ARM.attributes
                0x00002d66       0x29 c:/progra~2/codesourcery/sourcery_codebench_lite_for_arm_eabi/bin/../lib/gcc/arm-none-eabi/4.8.1/../../../../arm-none-eabi/lib/thumb2\libc.a(lib_a-memchr-stub.o)
 .ARM.attributes
                0x00002d8f       0x19 c:/progra~2/codesourcery/sourcery_codebench_lite_for_arm_eabi/bin/../lib/gcc/arm-none-eabi/4.8.1/thumb2\libgcc.a(_divsi3.o)

.debug_frame    0x00000000      0x64c
 .debug_frame   0x00000000       0x20 c:/progra~2/codesourcery/sourcery_codebench_lite_for_arm_eabi/bin/../lib/gcc/arm-none-eabi/4.8.1/../../../../arm-none-eabi/lib/thumb2\libm.a(lib_a-s_fpclassify.o)
 .debug_frame   0x00000020       0x34 c:/progra~2/codesourcery/sourcery_codebench_lite_for_arm_eabi/bin/../lib/gcc/arm-none-eabi/4.8.1/../../../../arm-none-eabi/lib/thumb2\libm.a(lib_a-s_modf.o)
 .debug_frame   0x00000054       0x30 c:/progra~2/codesourcery/sourcery_codebench_lite_for_arm_eabi/bin/../lib/gcc/arm-none-eabi/4.8.1/../../../../arm-none-eabi/lib/thumb2\libm.a(lib_a-s_round.o)
 .debug_frame   0x00000084       0x20 c:/progra~2/codesourcery/sourcery_codebench_lite_for_arm_eabi/bin/../lib/gcc/arm-none-eabi/4.8.1/../../../../arm-none-eabi/lib/thumb2\libm.a(lib_a-sf_fpclassify.o)
 .debug_frame   0x000000a4       0x30 c:/progra~2/codesourcery/sourcery_codebench_lite_for_arm_eabi/bin/../lib/gcc/arm-none-eabi/4.8.1/../../../../arm-none-eabi/lib/thumb2\libm.a(lib_a-wf_log.o)
 .debug_frame   0x000000d4       0x38 c:/progra~2/codesourcery/sourcery_codebench_lite_for_arm_eabi/bin/../lib/gcc/arm-none-eabi/4.8.1/../../../../arm-none-eabi/lib/thumb2\libm.a(lib_a-ef_log.o)
 .debug_frame   0x0000010c       0x20 c:/progra~2/codesourcery/sourcery_codebench_lite_for_arm_eabi/bin/../lib/gcc/arm-none-eabi/4.8.1/../../../../arm-none-eabi/lib/thumb2\libm.a(lib_a-s_matherr.o)
 .debug_frame   0x0000012c       0x20 c:/progra~2/codesourcery/sourcery_codebench_lite_for_arm_eabi/bin/../lib/gcc/arm-none-eabi/4.8.1/../../../../arm-none-eabi/lib/thumb2\libm.a(lib_a-s_nan.o)
 .debug_frame   0x0000014c       0x28 c:/progra~2/codesourcery/sourcery_codebench_lite_for_arm_eabi/bin/../lib/gcc/arm-none-eabi/4.8.1/thumb2\libgcc.a(_aeabi_uldivmod.o)
 .debug_frame   0x00000174       0x2c c:/progra~2/codesourcery/sourcery_codebench_lite_for_arm_eabi/bin/../lib/gcc/arm-none-eabi/4.8.1/thumb2\libgcc.a(_fixunssfdi.o)
 .debug_frame   0x000001a0       0x58 c:/progra~2/codesourcery/sourcery_codebench_lite_for_arm_eabi/bin/../lib/gcc/arm-none-eabi/4.8.1/thumb2\libgcc.a(bpabi.o)
 .debug_frame   0x000001f8       0x38 c:/progra~2/codesourcery/sourcery_codebench_lite_for_arm_eabi/bin/../lib/gcc/arm-none-eabi/4.8.1/thumb2\libgcc.a(_divdi3.o)
 .debug_frame   0x00000230       0x38 c:/progra~2/codesourcery/sourcery_codebench_lite_for_arm_eabi/bin/../lib/gcc/arm-none-eabi/4.8.1/thumb2\libgcc.a(_udivdi3.o)
 .debug_frame   0x00000268       0x20 c:/progra~2/codesourcery/sourcery_codebench_lite_for_arm_eabi/bin/../lib/gcc/arm-none-eabi/4.8.1/thumb2\libgcc.a(_udivsi3.o)
 .debug_frame   0x00000288       0x20 c:/progra~2/codesourcery/sourcery_codebench_lite_for_arm_eabi/bin/../lib/gcc/arm-none-eabi/4.8.1/../../../../arm-none-eabi/lib/thumb2\libc.a(lib_a-errno.o)
 .debug_frame   0x000002a8       0x20 c:/progra~2/codesourcery/sourcery_codebench_lite_for_arm_eabi/bin/../lib/gcc/arm-none-eabi/4.8.1/../../../../arm-none-eabi/lib/thumb2\libc.a(lib_a-lcltime_r.o)
 .debug_frame   0x000002c8       0x2c c:/progra~2/codesourcery/sourcery_codebench_lite_for_arm_eabi/bin/../lib/gcc/arm-none-eabi/4.8.1/../../../../arm-none-eabi/lib/thumb2\libc.a(lib_a-memcmp.o)
 .debug_frame   0x000002f4       0x2c c:/progra~2/codesourcery/sourcery_codebench_lite_for_arm_eabi/bin/../lib/gcc/arm-none-eabi/4.8.1/../../../../arm-none-eabi/lib/thumb2\libc.a(lib_a-memcpy-stub.o)
 .debug_frame   0x00000320       0x2c c:/progra~2/codesourcery/sourcery_codebench_lite_for_arm_eabi/bin/../lib/gcc/arm-none-eabi/4.8.1/../../../../arm-none-eabi/lib/thumb2\libc.a(lib_a-memset.o)
 .debug_frame   0x0000034c       0x60 c:/progra~2/codesourcery/sourcery_codebench_lite_for_arm_eabi/bin/../lib/gcc/arm-none-eabi/4.8.1/../../../../arm-none-eabi/lib/thumb2\libc.a(lib_a-mktime.o)
 .debug_frame   0x000003ac       0x60 c:/progra~2/codesourcery/sourcery_codebench_lite_for_arm_eabi/bin/../lib/gcc/arm-none-eabi/4.8.1/../../../../arm-none-eabi/lib/thumb2\libc.a(lib_a-mktm_r.o)
 .debug_frame   0x0000040c       0x2c c:/progra~2/codesourcery/sourcery_codebench_lite_for_arm_eabi/bin/../lib/gcc/arm-none-eabi/4.8.1/../../../../arm-none-eabi/lib/thumb2\libc.a(lib_a-strchr.o)
 .debug_frame   0x00000438       0x20 c:/progra~2/codesourcery/sourcery_codebench_lite_for_arm_eabi/bin/../lib/gcc/arm-none-eabi/4.8.1/../../../../arm-none-eabi/lib/thumb2\libc.a(lib_a-strcpy.o)
 .debug_frame   0x00000458       0x20 c:/progra~2/codesourcery/sourcery_codebench_lite_for_arm_eabi/bin/../lib/gcc/arm-none-eabi/4.8.1/../../../../arm-none-eabi/lib/thumb2\libc.a(lib_a-strlen.o)
 .debug_frame   0x00000478       0x2c c:/progra~2/codesourcery/sourcery_codebench_lite_for_arm_eabi/bin/../lib/gcc/arm-none-eabi/4.8.1/../../../../arm-none-eabi/lib/thumb2\libc.a(lib_a-strncmp.o)
 .debug_frame   0x000004a4       0x2c c:/progra~2/codesourcery/sourcery_codebench_lite_for_arm_eabi/bin/../lib/gcc/arm-none-eabi/4.8.1/../../../../arm-none-eabi/lib/thumb2\libc.a(lib_a-strncpy.o)
 .debug_frame   0x000004d0       0x2c c:/progra~2/codesourcery/sourcery_codebench_lite_for_arm_eabi/bin/../lib/gcc/arm-none-eabi/4.8.1/../../../../arm-none-eabi/lib/thumb2\libc.a(lib_a-strrchr.o)
 .debug_frame   0x000004fc       0x84 c:/progra~2/codesourcery/sourcery_codebench_lite_for_arm_eabi/bin/../lib/gcc/arm-none-eabi/4.8.1/../../../../arm-none-eabi/lib/thumb2\libc.a(lib_a-strstr.o)
 .debug_frame   0x00000580       0x30 c:/progra~2/codesourcery/sourcery_codebench_lite_for_arm_eabi/bin/../lib/gcc/arm-none-eabi/4.8.1/../../../../arm-none-eabi/lib/thumb2\libc.a(lib_a-tzlock.o)
 .debug_frame   0x000005b0       0x30 c:/progra~2/codesourcery/sourcery_codebench_lite_for_arm_eabi/bin/../lib/gcc/arm-none-eabi/4.8.1/../../../../arm-none-eabi/lib/thumb2\libc.a(lib_a-div.o)
 .debug_frame   0x000005e0       0x20 c:/progra~2/codesourcery/sourcery_codebench_lite_for_arm_eabi/bin/../lib/gcc/arm-none-eabi/4.8.1/../../../../arm-none-eabi/lib/thumb2\libc.a(lib_a-gettzinfo.o)
 .debug_frame   0x00000600       0x2c c:/progra~2/codesourcery/sourcery_codebench_lite_for_arm_eabi/bin/../lib/gcc/arm-none-eabi/4.8.1/../../../../arm-none-eabi/lib/thumb2\libc.a(lib_a-memchr-stub.o)
 .debug_frame   0x0000062c       0x20 c:/progra~2/codesourcery/sourcery_codebench_lite_for_arm_eabi/bin/../lib/gcc/arm-none-eabi/4.8.1/thumb2\libgcc.a(_divsi3.o)

Cross Reference Table

Symbol                                            File
ADCD1                                             build/obj/adc_lld.o
                                                  build/obj/adc_inputs.o
ADCD2                                             build/obj/adc_lld.o
                                                  build/obj/adc_inputs.o
AccelEnrichmemnt::AccelEnrichmemnt()              build/obj/accel_enrichment.o
                                                  build/obj/engine.o
AccelEnrichmemnt::AccelEnrichmemnt()              build/obj/accel_enrichment.o
AccelEnrichmemnt::getDelta()                      build/obj/accel_enrichment.o
                                                  build/obj/status_loop.o
AccelEnrichmemnt::getMapEnrichment()              build/obj/accel_enrichment.o
                                                  build/obj/speed_density.o
                                                  build/obj/status_loop.o
                                                  build/obj/fuel_math.o
AccelEnrichmemnt::getTpsEnrichment()              build/obj/accel_enrichment.o
                                                  build/obj/status_loop.o
                                                  build/obj/fuel_math.o
AccelEnrichmemnt::onEngineCycle()                 build/obj/accel_enrichment.o
                                                  build/obj/main_trigger_callback.o
AccelEnrichmemnt::onEngineCycleTps()              build/obj/accel_enrichment.o
                                                  build/obj/main_trigger_callback.o
AccelEnrichmemnt::onNewValue(float)               build/obj/accel_enrichment.o
AccelEnrichmemnt::reset()                         build/obj/accel_enrichment.o
                                                  build/obj/engine_controller.o
AdcDevice::AdcDevice(ADCConversionGroup*)         build/obj/adc_inputs.o
AdcDevice::AdcDevice(ADCConversionGroup*)         build/obj/adc_inputs.o
AdcDevice::addChannel(adc_channel_e)              build/obj/adc_inputs.o
AdcDevice::getAdcHardwareIndexByInternalIndex(int) build/obj/adc_inputs.o
                                                  build/obj/board_test.o
AdcDevice::getAdcValueByHwChannel(int)            build/obj/adc_inputs.o
AdcDevice::getAdcValueByIndex(int)                build/obj/adc_inputs.o
                                                  build/obj/board_test.o
AdcDevice::init()                                 build/obj/adc_inputs.o
AdcDevice::isHwUsed(adc_channel_e)                build/obj/adc_inputs.o
                                                  build/obj/engine_controller.o
AdcDevice::size()                                 build/obj/adc_inputs.o
                                                  build/obj/board_test.o
BusFaultVector                                    build/obj/mpu_util.o
                                                  build/obj/vectors.o
CAND1                                             build/obj/can_lld.o
                                                  build/obj/can_hw.o
CAND2                                             build/obj/can_lld.o
                                                  build/obj/can_hw.o
DEFAULT_OUTPUT                                    build/obj/io_pins.o
                                                  build/obj/HIP9011.o
DebugMonitorVector                                build/obj/mpu_util.o
                                                  build/obj/vectors.o
EXTD1                                             build/obj/ext_lld.o
                                                  build/obj/joystick.o
                                                  build/obj/ext_lld_isr.o
Engine::Engine(persistent_config_s*)              build/obj/engine.o
Engine::Engine(persistent_config_s*)              build/obj/engine.o
                                                  build/obj/engine_controller.o
Engine::addConfigurationListener(void (*)(Engine*)) build/obj/engine.o
                                                  build/obj/hardware.o
Engine::init()                                    build/obj/engine.o
                                                  build/obj/rusefi.o
Engine::knockLogic(float)                         build/obj/engine.o
                                                  build/obj/HIP9011.o
                                                  build/obj/main_trigger_callback.o
Engine::onTriggerEvent(unsigned long long)        build/obj/engine.o
                                                  build/obj/trigger_central.o
Engine::periodicFastCallback()                    build/obj/engine.o
                                                  build/obj/engine_controller.o
Engine::preCalculate()                            build/obj/engine.o
Engine::printKnockState()                         build/obj/engine.o
                                                  build/obj/engine_controller.o
                                                  build/obj/HIP9011.o
Engine::stopPins()                                build/obj/engine.o
Engine::updateSlowSensors()                       build/obj/engine.o
                                                  build/obj/engine_controller.o
Engine::watchdog()                                build/obj/engine.o
                                                  build/obj/engine_controller.o
EngineState::EngineState()                        build/obj/engine.o
EngineState::EngineState()                        build/obj/engine.o
EventQueue::EventQueue()                          build/obj/event_queue.o
                                                  build/obj/SingleTimerExecutor.o
EventQueue::EventQueue()                          build/obj/event_queue.o
EventQueue::checkIfPending(scheduling_s*)         build/obj/event_queue.o
EventQueue::clear()                               build/obj/event_queue.o
EventQueue::executeAll(unsigned long long)        build/obj/event_queue.o
                                                  build/obj/SingleTimerExecutor.o
EventQueue::getForUnitText(int)                   build/obj/event_queue.o
EventQueue::getHead()                             build/obj/event_queue.o
EventQueue::getNextEventTime(unsigned long long)  build/obj/event_queue.o
                                                  build/obj/SingleTimerExecutor.o
EventQueue::insertTask(scheduling_s*, unsigned long long, void (*)(void*), void*) build/obj/event_queue.o
                                                  build/obj/SingleTimerExecutor.o
EventQueue::setLateDelay(int)                     build/obj/event_queue.o
                                                  build/obj/SingleTimerExecutor.o
EventQueue::size()                                build/obj/event_queue.o
Executor::Executor()                              build/obj/SingleTimerExecutor.o
Executor::Executor()                              build/obj/SingleTimerExecutor.o
Executor::doExecute()                             build/obj/SingleTimerExecutor.o
Executor::onTimerCallback()                       build/obj/SingleTimerExecutor.o
Executor::schedule(scheduling_s*, unsigned long long, int, void (*)(void*), void*) build/obj/SingleTimerExecutor.o
Executor::scheduleByTime(scheduling_s*, unsigned long long, void (*)(void*), void*) build/obj/SingleTimerExecutor.o
Executor::scheduleTimerCallback()                 build/obj/SingleTimerExecutor.o
FastInterpolation::FastInterpolation()            build/obj/interpolation.o
FastInterpolation::FastInterpolation()            build/obj/interpolation.o
                                                  build/obj/map.o
FastInterpolation::FastInterpolation(float, float, float, float) build/obj/interpolation.o
                                                  build/obj/map.o
FastInterpolation::FastInterpolation(float, float, float, float) build/obj/interpolation.o
FastInterpolation::getValue(float)                build/obj/interpolation.o
                                                  build/obj/map.o
FastInterpolation::init(float, float, float, float) build/obj/interpolation.o
                                                  build/obj/map.o
FuelSchedule::FuelSchedule()                      build/obj/engine_math.o
                                                  build/obj/engine_configuration.o
FuelSchedule::FuelSchedule()                      build/obj/engine_math.o
FuelSchedule::addFuelEvents(injection_mode_e)     build/obj/engine_math.o
                                                  build/obj/main_trigger_callback.o
FuelSchedule::clear()                             build/obj/engine_math.o
FuelSchedule::registerInjectionEvent(NamedOutputPin*, float, bool) build/obj/engine_math.o
GPTD5                                             build/obj/gpt_lld.o
                                                  build/obj/microsecond_timer.o
HardFaultVector                                   build/obj/mpu_util.o
                                                  build/obj/vectors.o
I2CD1                                             build/obj/i2c_lld.o
                                                  build/obj/hardware.o
ICUD1                                             build/obj/icu_lld.o
                                                  build/obj/digital_input_hw.o
ICUD2                                             build/obj/icu_lld.o
                                                  build/obj/digital_input_hw.o
ICUD3                                             build/obj/icu_lld.o
                                                  build/obj/digital_input_hw.o
ICUD9                                             build/obj/icu_lld.o
                                                  build/obj/digital_input_hw.o
IdleValveState::IdleValveState()                  build/obj/idle_controller.o
                                                  build/obj/idle_thread.o
IdleValveState::IdleValveState()                  build/obj/idle_controller.o
IdleValveState::getIdle(int, unsigned long)       build/obj/idle_controller.o
                                                  build/obj/idle_thread.o
IdleValveState::init()                            build/obj/idle_controller.o
                                                  build/obj/idle_thread.o
IdleValveState::setTargetRpm(int)                 build/obj/idle_controller.o
                                                  build/obj/idle_thread.o
IgnitionEvent::IgnitionEvent()                    build/obj/event_registry.o
IgnitionEvent::IgnitionEvent()                    build/obj/event_registry.o
                                                  build/obj/engine_configuration.o
InjectionEvent::InjectionEvent()                  build/obj/event_registry.o
InjectionEvent::InjectionEvent()                  build/obj/event_registry.o
                                                  build/obj/engine_math.o
IntListenerArray::IntListenerArray()              build/obj/listener_array.o
                                                  build/obj/digital_input_hw.o
                                                  build/obj/engine.o
                                                  build/obj/trigger_central.o
IntListenerArray::IntListenerArray()              build/obj/listener_array.o
IntListenerArray::invokeJustArgCallbacks()        build/obj/listener_array.o
                                                  build/obj/engine_controller.o
                                                  build/obj/digital_input_hw.o
IntListenerArray::registerCallback(void (*)())    build/obj/listener_array.o
IntListenerArray::registerCallback(void (*)(int), void*) build/obj/listener_array.o
                                                  build/obj/map.o
                                                  build/obj/vehicle_speed.o
                                                  build/obj/engine.o
                                                  build/obj/wave_analyzer.o
                                                  build/obj/trigger_central.o
LECalculator::LECalculator()                      build/obj/fsio_core.o
                                                  build/obj/fsio_impl.o
LECalculator::LECalculator()                      build/obj/fsio_core.o
LECalculator::add(LEElement*)                     build/obj/fsio_core.o
LECalculator::doJob(Engine*, LEElement*)          build/obj/fsio_core.o
LECalculator::getValue(Engine*)                   build/obj/fsio_core.o
LECalculator::getValue2(LEElement*, Engine*)      build/obj/fsio_core.o
                                                  build/obj/fsio_impl.o
LECalculator::pop(le_action_e)                    build/obj/fsio_core.o
LECalculator::reset()                             build/obj/fsio_core.o
LECalculator::reset(LEElement*)                   build/obj/fsio_core.o
LEElement::LEElement()                            build/obj/fsio_core.o
LEElement::LEElement()                            build/obj/fsio_core.o
                                                  build/obj/fsio_impl.o
LEElement::init(le_action_e)                      build/obj/fsio_core.o
LEElement::init(le_action_e, float)               build/obj/fsio_core.o
LEElementPool::LEElementPool(LEElement*, int)     build/obj/fsio_core.o
                                                  build/obj/fsio_impl.o
LEElementPool::LEElementPool(LEElement*, int)     build/obj/fsio_core.o
LEElementPool::getSize()                          build/obj/fsio_core.o
                                                  build/obj/fsio_impl.o
LEElementPool::next()                             build/obj/fsio_core.o
LEElementPool::parseExpression(char const*)       build/obj/fsio_core.o
                                                  build/obj/fsio_impl.o
LEElementPool::reset()                            build/obj/fsio_core.o
                                                  build/obj/fsio_impl.o
LENameOrdinalPair::LENameOrdinalPair(le_action_e, char const*) build/obj/fsio_core.o
                                                  build/obj/fsio_impl.o
LENameOrdinalPair::LENameOrdinalPair(le_action_e, char const*) build/obj/fsio_core.o
LE_FIRST                                          build/obj/fsio_core.o
LocalVersionHolder::LocalVersionHolder()          build/obj/LocalVersionHolder.o
                                                  build/obj/engine_controller.o
                                                  build/obj/main_trigger_callback.o
                                                  build/obj/trigger_emulator_algo.o
LocalVersionHolder::LocalVersionHolder()          build/obj/LocalVersionHolder.o
LocalVersionHolder::getVersion()                  build/obj/LocalVersionHolder.o
                                                  build/obj/trigger_emulator_algo.o
LocalVersionHolder::isOld()                       build/obj/LocalVersionHolder.o
                                                  build/obj/engine_controller.o
                                                  build/obj/main_trigger_callback.o
                                                  build/obj/trigger_emulator_algo.o
Logging::Logging()                                build/obj/datalogging.o
                                                  build/obj/wave_chart.o
Logging::Logging()                                build/obj/datalogging.o
Logging::Logging(char const*, char*, int)         build/obj/datalogging.o
                                                  build/obj/settings.o
                                                  build/obj/status_loop.o
                                                  build/obj/adc_inputs.o
                                                  build/obj/sensor_chart.o
Logging::Logging(char const*, char*, int)         build/obj/datalogging.o
Logging::baseConstructor()                        build/obj/datalogging.o
LoggingWithStorage::LoggingWithStorage(char const*) build/obj/datalogging.o
                                                  build/obj/rusefi.o
                                                  build/obj/engine_controller.o
                                                  build/obj/obd2.o
                                                  build/obj/injector_central.o
                                                  build/obj/error_handling.o
                                                  build/obj/electronic_throttle.o
                                                  build/obj/eficonsole.o
                                                  build/obj/status_loop.o
                                                  build/obj/tunerstudio.o
                                                  build/obj/rtc_helper.o
                                                  build/obj/io_pins.o
                                                  build/obj/mmc_card.o
                                                  build/obj/neo6m.o
                                                  build/obj/pin_repository.o
                                                  build/obj/can_hw.o
                                                  build/obj/engine.o
                                                  build/obj/wave_chart.o
LoggingWithStorage::LoggingWithStorage(char const*) build/obj/datalogging.o
MMCD1                                             build/obj/mmc_card.o
                                                  build/obj/fatfs_diskio.o
MainTriggerCallback::init(Engine*)                build/obj/main_trigger_callback.o
Map3D<16, 16>::getValue(float, float)             build/obj/advance_map.o
                                                  build/obj/engine.o
                                                  build/obj/fuel_math.o
Map3D<16, 16>::setAll(float)                      build/obj/speed_density.o
MemManageVector                                   build/obj/vectors.o
MenuItem::MenuItem(MenuItem*, char const*)        build/obj/lcd_menu_tree.o
                                                  build/obj/lcd_controller.o
MenuItem::MenuItem(MenuItem*, char const*)        build/obj/lcd_menu_tree.o
MenuItem::MenuItem(MenuItem*, char const*, void (*)()) build/obj/lcd_menu_tree.o
MenuItem::MenuItem(MenuItem*, char const*, void (*)()) build/obj/lcd_menu_tree.o
                                                  build/obj/lcd_controller.o
MenuItem::MenuItem(MenuItem*, lcd_line_e)         build/obj/lcd_menu_tree.o
MenuItem::MenuItem(MenuItem*, lcd_line_e)         build/obj/lcd_menu_tree.o
                                                  build/obj/lcd_controller.o
MenuItem::baseConstructor(MenuItem*, lcd_line_e, char const*, void (*)()) build/obj/lcd_menu_tree.o
MenuTree::MenuTree(MenuItem*)                     build/obj/lcd_menu_tree.o
MenuTree::MenuTree(MenuItem*)                     build/obj/lcd_menu_tree.o
                                                  build/obj/lcd_controller.o
MenuTree::back()                                  build/obj/lcd_menu_tree.o
                                                  build/obj/lcd_controller.o
MenuTree::enterSubMenu()                          build/obj/lcd_menu_tree.o
                                                  build/obj/lcd_controller.o
MenuTree::init(MenuItem*, int)                    build/obj/lcd_menu_tree.o
                                                  build/obj/lcd_controller.o
MenuTree::nextItem()                              build/obj/lcd_menu_tree.o
                                                  build/obj/lcd_controller.o
NMIVector                                         build/obj/vectors.o
NamedOutputPin::NamedOutputPin()                  build/obj/efiGpio.o
NamedOutputPin::NamedOutputPin()                  build/obj/efiGpio.o
NamedOutputPin::NamedOutputPin(char const*)       build/obj/efiGpio.o
                                                  build/obj/map_averaging.o
                                                  build/obj/HIP9011.o
NamedOutputPin::NamedOutputPin(char const*)       build/obj/efiGpio.o
OUTPUT_MODE_DEFAULT                               build/obj/efiGpio.o
OutputPin::OutputPin()                            build/obj/efiGpio.o
                                                  build/obj/fsio_impl.o
                                                  build/obj/alternatorController.o
                                                  build/obj/idle_thread.o
                                                  build/obj/electronic_throttle.o
                                                  build/obj/status_loop.o
                                                  build/obj/io_pins.o
                                                  build/obj/HIP9011.o
                                                  build/obj/trigger_emulator.o
                                                  build/obj/trigger_decoder.o
OutputPin::OutputPin()                            build/obj/efiGpio.o
OutputPin::getLogicValue()                        build/obj/efiGpio.o
                                                  build/obj/fsio_impl.o
                                                  build/obj/settings.o
                                                  build/obj/status_loop.o
                                                  build/obj/engine.o
OutputPin::isInitialized()                        build/obj/efiGpio.o
                                                  build/obj/fsio_impl.o
                                                  build/obj/engine.o
OutputPin::setDefaultPinState(pin_output_mode_e*) build/obj/efiGpio.o
                                                  build/obj/io_pins.o
OutputPin::setValue(int)                          build/obj/efiGpio.o
                                                  build/obj/fsio_impl.o
                                                  build/obj/engine_controller.o
                                                  build/obj/alternatorController.o
                                                  build/obj/malfunction_indicator.o
                                                  build/obj/idle_thread.o
                                                  build/obj/injector_central.o
                                                  build/obj/status_loop.o
                                                  build/obj/io_pins.o
                                                  build/obj/pwm_generator.o
                                                  build/obj/engine.o
                                                  build/obj/trigger_decoder.o
OutputPin::unregister()                           build/obj/efiGpio.o
                                                  build/obj/injector_central.o
Overflow64Counter::Overflow64Counter()            build/obj/efilib2.o
Overflow64Counter::Overflow64Counter()            build/obj/efilib2.o
                                                  build/obj/engine_controller.o
Overflow64Counter::get()                          build/obj/efilib2.o
                                                  build/obj/engine_controller.o
PIN_USED                                          build/obj/pin_repository.o
PWMD4                                             build/obj/pwm_lld.o
                                                  build/obj/adc_inputs.o
PWMD8                                             build/obj/pwm_lld.o
                                                  build/obj/adc_inputs.o
PendSVVector                                      build/obj/vectors.o
Pid::Pid(float, float, float, float, float)       build/obj/pid.o
                                                  build/obj/alternatorController.o
                                                  build/obj/electronic_throttle.o
Pid::Pid(float, float, float, float, float)       build/obj/pid.o
Pid::getD()                                       build/obj/pid.o
                                                  build/obj/alternatorController.o
Pid::getI()                                       build/obj/pid.o
                                                  build/obj/alternatorController.o
Pid::getIntegration()                             build/obj/pid.o
                                                  build/obj/alternatorController.o
Pid::getP()                                       build/obj/pid.o
                                                  build/obj/alternatorController.o
Pid::getValue(float, float, float)                build/obj/pid.o
                                                  build/obj/alternatorController.o
Pid::reset()                                      build/obj/pid.o
Pid::updateFactors(float, float, float)           build/obj/pid.o
                                                  build/obj/alternatorController.o
PwmConfig::PwmConfig()                            build/obj/pwm_generator_logic.o
PwmConfig::PwmConfig()                            build/obj/pwm_generator_logic.o
PwmConfig::PwmConfig(float*, single_wave_s*)      build/obj/pwm_generator_logic.o
                                                  build/obj/trigger_emulator_algo.o
PwmConfig::PwmConfig(float*, single_wave_s*)      build/obj/pwm_generator_logic.o
PwmConfig::baseConstructor()                      build/obj/pwm_generator_logic.o
PwmConfig::handleCycleStart()                     build/obj/pwm_generator_logic.o
PwmConfig::init(float*, single_wave_s*)           build/obj/pwm_generator_logic.o
PwmConfig::weComplexInit(char const*, int, float*, int, signed char**, void (*)(PwmConfig*), void (*)(PwmConfig*, int)) build/obj/pwm_generator_logic.o
                                                  build/obj/pwm_generator.o
                                                  build/obj/trigger_emulator_algo.o
RTCD1                                             build/obj/rtc_lld.o
                                                  build/obj/rtc_helper.o
                                                  build/obj/fatfs_diskio.o
ResetHandler                                      build/obj/crt0.o
                                                  build/obj/vectors.o
RpmCalculator::RpmCalculator()                    build/obj/rpm_calculator.o
RpmCalculator::RpmCalculator()                    build/obj/rpm_calculator.o
                                                  build/obj/engine.o
RpmCalculator::getRevolutionCounter()             build/obj/rpm_calculator.o
                                                  build/obj/wave_chart.o
                                                  build/obj/main_trigger_callback.o
RpmCalculator::getRevolutionCounterSinceStart()   build/obj/rpm_calculator.o
                                                  build/obj/fuel_math.o
RpmCalculator::getRpmAcceleration()               build/obj/rpm_calculator.o
                                                  build/obj/status_loop.o
RpmCalculator::isRunning()                        build/obj/rpm_calculator.o
                                                  build/obj/fsio_impl.o
                                                  build/obj/engine_controller.o
                                                  build/obj/status_loop.o
RpmCalculator::onNewEngineCycle()                 build/obj/rpm_calculator.o
RpmCalculator::rpm()                              build/obj/rpm_calculator.o
                                                  build/obj/fsio_impl.o
                                                  build/obj/engine_controller.o
                                                  build/obj/lcd_controller.o
                                                  build/obj/idle_thread.o
                                                  build/obj/status_loop.o
                                                  build/obj/can_hw.o
                                                  build/obj/engine.o
                                                  build/obj/fuel_math.o
                                                  build/obj/wave_analyzer.o
                                                  build/obj/main_trigger_callback.o
RpmCalculator::setRpmValue(int)                   build/obj/rpm_calculator.o
SD1                                               build/obj/serial_lld.o
                                                  build/obj/neo6m.o
SD2                                               build/obj/serial_lld.o
                                                  build/obj/usbconsole.o
SD3                                               build/obj/serial_lld.o
                                                  build/obj/console_io.o
                                                  build/obj/tunerstudio_io.o
SDU1                                              build/obj/usbcfg.o
                                                  build/obj/console_io.o
                                                  build/obj/tunerstudio_io.o
                                                  build/obj/usbconsole.o
SPID1                                             build/obj/spi_lld.o
                                                  build/obj/mpu_util.o
                                                  build/obj/hardware.o
SPID2                                             build/obj/spi_lld.o
                                                  build/obj/mpu_util.o
                                                  build/obj/HIP9011.o
                                                  build/obj/hardware.o
SPID3                                             build/obj/spi_lld.o
                                                  build/obj/mpu_util.o
                                                  build/obj/mmc_card.o
                                                  build/obj/hardware.o
SVCallVector                                      build/obj/chcore_v7m.o
                                                  build/obj/vectors.o
SimplePwm::SimplePwm()                            build/obj/pwm_generator_logic.o
SimplePwm::SimplePwm()                            build/obj/pwm_generator_logic.o
                                                  build/obj/fsio_impl.o
                                                  build/obj/alternatorController.o
                                                  build/obj/idle_thread.o
                                                  build/obj/electronic_throttle.o
SimplePwm::setSimplePwmDutyCycle(float)           build/obj/pwm_generator_logic.o
                                                  build/obj/fsio_impl.o
                                                  build/obj/alternatorController.o
                                                  build/obj/idle_thread.o
                                                  build/obj/electronic_throttle.o
StartupFuelPumping::StartupFuelPumping()          build/obj/engine.o
StartupFuelPumping::StartupFuelPumping()          build/obj/engine.o
StartupFuelPumping::setPumpsCounter(engine_configuration_s*, int) build/obj/engine.o
StartupFuelPumping::update()                      build/obj/engine.o
StepperMotor::StepperMotor()                      build/obj/stepper.o
                                                  build/obj/idle_thread.o
StepperMotor::StepperMotor()                      build/obj/stepper.o
StepperMotor::getTargetPosition()                 build/obj/stepper.o
StepperMotor::initialize(brain_pin_e, brain_pin_e, float, int, brain_pin_e) build/obj/stepper.o
                                                  build/obj/idle_thread.o
StepperMotor::pulse()                             build/obj/stepper.o
StepperMotor::setTargetPosition(int)              build/obj/stepper.o
                                                  build/obj/idle_thread.o
SysTickVector                                     build/obj/chcore_v7m.o
                                                  build/obj/vectors.o
TAMPER_STAMP_IRQHandler                           build/obj/ext_lld_isr.o
ThermistorMath::ThermistorMath()                  build/obj/thermistors.o
ThermistorMath::ThermistorMath()                  build/obj/thermistors.o
                                                  build/obj/engine.o
ThermistorMath::init(thermistor_conf_s*)          build/obj/thermistors.o
TriggerCentral::TriggerCentral()                  build/obj/trigger_central.o
TriggerCentral::TriggerCentral()                  build/obj/trigger_central.o
TriggerCentral::addEventListener(void (*)(trigger_event_e, unsigned long), char const*, Engine*) build/obj/trigger_central.o
TriggerCentral::getHwEventCounter(int)            build/obj/trigger_central.o
TriggerCentral::handleShaftSignal(trigger_event_e) build/obj/trigger_central.o
TriggerCentral::resetCounters()                   build/obj/trigger_central.o
TriggerEmulatorHelper::TriggerEmulatorHelper()    build/obj/trigger_emulator_algo.o
TriggerEmulatorHelper::TriggerEmulatorHelper()    build/obj/trigger_emulator_algo.o
TriggerEmulatorHelper::handleEmulatorCallback(PwmConfig*, int) build/obj/trigger_emulator_algo.o
TriggerShape::TriggerShape()                      build/obj/trigger_structure.o
                                                  build/obj/engine.o
TriggerShape::TriggerShape()                      build/obj/trigger_structure.o
TriggerShape::addEvent(float, trigger_wheel_e, trigger_value_e) build/obj/trigger_structure.o
                                                  build/obj/trigger_gm.o
                                                  build/obj/trigger_mitsubishi.o
                                                  build/obj/trigger_decoder.o
                                                  build/obj/trigger_chrysler.o
                                                  build/obj/trigger_mazda.o
                                                  build/obj/trigger_bmw.o
TriggerShape::addEvent(float, trigger_wheel_e, trigger_value_e, float, float) build/obj/trigger_structure.o
                                                  build/obj/trigger_decoder.o
TriggerShape::calculateTriggerSynchPoint()        build/obj/trigger_structure.o
                                                  build/obj/trigger_decoder.o
TriggerShape::clear()                             build/obj/trigger_structure.o
                                                  build/obj/trigger_decoder.o
TriggerShape::getAngle(int) const                 build/obj/trigger_structure.o
TriggerShape::getCycleDuration() const            build/obj/trigger_structure.o
TriggerShape::getLength() const                   build/obj/trigger_structure.o
                                                  build/obj/engine_configuration.o
                                                  build/obj/main_trigger_callback.o
TriggerShape::getOperationMode()                  build/obj/trigger_structure.o
                                                  build/obj/engine_configuration.o
TriggerShape::getSize() const                     build/obj/trigger_structure.o
                                                  build/obj/engine_math.o
                                                  build/obj/engine_configuration.o
                                                  build/obj/trigger_decoder.o
                                                  build/obj/main_trigger_callback.o
                                                  build/obj/trigger_central.o
                                                  build/obj/trigger_emulator_algo.o
TriggerShape::getSwitchAngle(int) const           build/obj/trigger_structure.o
TriggerShape::getTriggerShapeSynchPointIndex()    build/obj/trigger_structure.o
TriggerShape::initializeTriggerShape(Logging*)    build/obj/trigger_decoder.o
                                                  build/obj/engine_configuration.o
TriggerShape::reset(operation_mode_e, bool)       build/obj/trigger_structure.o
                                                  build/obj/trigger_gm.o
                                                  build/obj/trigger_mitsubishi.o
                                                  build/obj/trigger_decoder.o
                                                  build/obj/trigger_chrysler.o
                                                  build/obj/trigger_mazda.o
                                                  build/obj/trigger_bmw.o
TriggerShape::setTriggerSynchronizationGap(float) build/obj/trigger_structure.o
                                                  build/obj/trigger_mitsubishi.o
                                                  build/obj/trigger_decoder.o
                                                  build/obj/trigger_chrysler.o
                                                  build/obj/trigger_mazda.o
TriggerShape::setTriggerSynchronizationGap2(float, float) build/obj/trigger_structure.o
                                                  build/obj/trigger_decoder.o
                                                  build/obj/trigger_chrysler.o
TriggerState::TriggerState()                      build/obj/trigger_structure.o
TriggerState::TriggerState()                      build/obj/trigger_structure.o
                                                  build/obj/trigger_decoder.o
                                                  build/obj/trigger_central.o
TriggerState::clear()                             build/obj/trigger_structure.o
                                                  build/obj/trigger_decoder.o
TriggerState::decodeTriggerEvent(trigger_event_e, unsigned long long) build/obj/trigger_decoder.o
                                                  build/obj/trigger_central.o
TriggerState::getCurrentIndex()                   build/obj/trigger_structure.o
                                                  build/obj/trigger_central.o
TriggerState::getStartOfRevolutionIndex()         build/obj/trigger_structure.o
                                                  build/obj/trigger_central.o
TriggerState::getTotalEventCounter()              build/obj/trigger_structure.o
                                                  build/obj/trigger_central.o
TriggerState::getTotalRevolutionCounter()         build/obj/trigger_structure.o
                                                  build/obj/trigger_decoder.o
                                                  build/obj/trigger_central.o
TriggerState::getTriggerDutyCycle(int)            build/obj/trigger_decoder.o
                                                  build/obj/trigger_central.o
TriggerState::resetRunningCounters()              build/obj/trigger_structure.o
                                                  build/obj/trigger_central.o
TriggerStimulatorHelper::TriggerStimulatorHelper() build/obj/trigger_decoder.o
TriggerStimulatorHelper::TriggerStimulatorHelper() build/obj/trigger_decoder.o
TriggerStimulatorHelper::nextStep(TriggerState*, TriggerShape*, int, trigger_config_s const*) build/obj/trigger_decoder.o
USBD1                                             build/obj/usb_lld.o
                                                  build/obj/usbcfg.o
UsageFaultVector                                  build/obj/mpu_util.o
                                                  build/obj/vectors.o
Vector100                                         build/obj/vectors.o
Vector104                                         build/obj/vectors.o
Vector108                                         build/obj/gpt_lld.o
                                                  build/obj/vectors.o
Vector10C                                         build/obj/vectors.o
Vector110                                         build/obj/vectors.o
Vector114                                         build/obj/vectors.o
Vector118                                         build/obj/vectors.o
Vector11C                                         build/obj/vectors.o
Vector120                                         build/obj/stm32_dma.o
                                                  build/obj/vectors.o
Vector124                                         build/obj/stm32_dma.o
                                                  build/obj/vectors.o
Vector128                                         build/obj/stm32_dma.o
                                                  build/obj/vectors.o
Vector12C                                         build/obj/stm32_dma.o
                                                  build/obj/vectors.o
Vector130                                         build/obj/stm32_dma.o
                                                  build/obj/vectors.o
Vector134                                         build/obj/vectors.o
Vector138                                         build/obj/ext_lld_isr.o
                                                  build/obj/vectors.o
Vector13C                                         build/obj/can_lld.o
                                                  build/obj/vectors.o
Vector140                                         build/obj/can_lld.o
                                                  build/obj/vectors.o
Vector144                                         build/obj/can_lld.o
                                                  build/obj/vectors.o
Vector148                                         build/obj/can_lld.o
                                                  build/obj/vectors.o
Vector14C                                         build/obj/usb_lld.o
                                                  build/obj/vectors.o
Vector150                                         build/obj/stm32_dma.o
                                                  build/obj/vectors.o
Vector154                                         build/obj/stm32_dma.o
                                                  build/obj/vectors.o
Vector158                                         build/obj/stm32_dma.o
                                                  build/obj/vectors.o
Vector15C                                         build/obj/vectors.o
Vector160                                         build/obj/vectors.o
Vector164                                         build/obj/vectors.o
Vector168                                         build/obj/vectors.o
Vector16C                                         build/obj/vectors.o
Vector170                                         build/obj/ext_lld_isr.o
                                                  build/obj/vectors.o
Vector174                                         build/obj/vectors.o
Vector178                                         build/obj/vectors.o
Vector17C                                         build/obj/vectors.o
Vector180                                         build/obj/vectors.o
Vector184                                         build/obj/vectors.o
Vector188                                         build/obj/vectors.o
Vector18C                                         build/obj/vectors.o
Vector190                                         build/obj/vectors.o
Vector194                                         build/obj/vectors.o
Vector198                                         build/obj/vectors.o
Vector19C                                         build/obj/vectors.o
Vector1A0                                         build/obj/vectors.o
Vector1A4                                         build/obj/vectors.o
Vector1A8                                         build/obj/vectors.o
Vector1C                                          build/obj/vectors.o
Vector20                                          build/obj/vectors.o
Vector24                                          build/obj/vectors.o
Vector28                                          build/obj/vectors.o
Vector34                                          build/obj/vectors.o
Vector40                                          build/obj/vectors.o
Vector44                                          build/obj/ext_lld_isr.o
                                                  build/obj/vectors.o
Vector48                                          build/obj/vectors.o
Vector4C                                          build/obj/ext_lld_isr.o
                                                  build/obj/vectors.o
Vector50                                          build/obj/vectors.o
Vector54                                          build/obj/vectors.o
Vector58                                          build/obj/ext_lld_isr.o
                                                  build/obj/vectors.o
Vector5C                                          build/obj/ext_lld_isr.o
                                                  build/obj/vectors.o
Vector60                                          build/obj/ext_lld_isr.o
                                                  build/obj/vectors.o
Vector64                                          build/obj/ext_lld_isr.o
                                                  build/obj/vectors.o
Vector68                                          build/obj/ext_lld_isr.o
                                                  build/obj/vectors.o
Vector6C                                          build/obj/stm32_dma.o
                                                  build/obj/vectors.o
Vector70                                          build/obj/stm32_dma.o
                                                  build/obj/vectors.o
Vector74                                          build/obj/stm32_dma.o
                                                  build/obj/vectors.o
Vector78                                          build/obj/stm32_dma.o
                                                  build/obj/vectors.o
Vector7C                                          build/obj/stm32_dma.o
                                                  build/obj/vectors.o
Vector80                                          build/obj/stm32_dma.o
                                                  build/obj/vectors.o
Vector84                                          build/obj/stm32_dma.o
                                                  build/obj/vectors.o
Vector88                                          build/obj/adc_lld.o
                                                  build/obj/vectors.o
Vector8C                                          build/obj/can_lld.o
                                                  build/obj/vectors.o
Vector90                                          build/obj/can_lld.o
                                                  build/obj/vectors.o
Vector94                                          build/obj/can_lld.o
                                                  build/obj/vectors.o
Vector98                                          build/obj/can_lld.o
                                                  build/obj/vectors.o
Vector9C                                          build/obj/ext_lld_isr.o
                                                  build/obj/vectors.o
VectorA0                                          build/obj/icu_lld.o
                                                  build/obj/vectors.o
VectorA4                                          build/obj/icu_lld.o
                                                  build/obj/vectors.o
VectorA8                                          build/obj/vectors.o
VectorAC                                          build/obj/icu_lld.o
                                                  build/obj/vectors.o
VectorB0                                          build/obj/icu_lld.o
                                                  build/obj/vectors.o
VectorB4                                          build/obj/icu_lld.o
                                                  build/obj/vectors.o
VectorB8                                          build/obj/pwm_lld.o
                                                  build/obj/vectors.o
VectorBC                                          build/obj/i2c_lld.o
                                                  build/obj/vectors.o
VectorC0                                          build/obj/i2c_lld.o
                                                  build/obj/vectors.o
VectorC4                                          build/obj/vectors.o
VectorC8                                          build/obj/vectors.o
VectorCC                                          build/obj/vectors.o
VectorD0                                          build/obj/vectors.o
VectorD4                                          build/obj/serial_lld.o
                                                  build/obj/vectors.o
VectorD8                                          build/obj/serial_lld.o
                                                  build/obj/vectors.o
VectorDC                                          build/obj/serial_lld.o
                                                  build/obj/vectors.o
VectorE0                                          build/obj/ext_lld_isr.o
                                                  build/obj/vectors.o
VectorE4                                          build/obj/ext_lld_isr.o
                                                  build/obj/vectors.o
VectorE8                                          build/obj/ext_lld_isr.o
                                                  build/obj/vectors.o
VectorEC                                          build/obj/vectors.o
VectorF0                                          build/obj/pwm_lld.o
                                                  build/obj/vectors.o
VectorF4                                          build/obj/vectors.o
VectorF8                                          build/obj/pwm_lld.o
                                                  build/obj/vectors.o
VectorFC                                          build/obj/stm32_dma.o
                                                  build/obj/vectors.o
WaveChart::WaveChart()                            build/obj/wave_chart.o
WaveChart::WaveChart()                            build/obj/wave_chart.o
                                                  build/obj/trigger_central.o
WaveChart::addWaveChartEvent3(char const*, char const*) build/obj/wave_chart.o
                                                  build/obj/signal_executor.o
                                                  build/obj/wave_analyzer.o
                                                  build/obj/trigger_central.o
                                                  build/obj/rpm_calculator.o
WaveChart::init()                                 build/obj/wave_chart.o
WaveChart::isStartedTooLongAgo()                  build/obj/wave_chart.o
WaveChart::isWaveChartFull()                      build/obj/wave_chart.o
WaveChart::publishChart()                         build/obj/wave_chart.o
WaveChart::publishChartIfFull()                   build/obj/wave_chart.o
                                                  build/obj/wave_analyzer.o
WaveChart::resetWaveChart()                       build/obj/wave_chart.o
                                                  build/obj/settings.o
                                                  build/obj/trigger_emulator_algo.o
WaveReader::WaveReader()                          build/obj/wave_analyzer.o
WaveReader::WaveReader()                          build/obj/wave_analyzer.o
WaveReader::onFallEvent()                         build/obj/wave_analyzer.o
__adddf3                                          c:/progra~2/codesourcery/sourcery_codebench_lite_for_arm_eabi/bin/../lib/gcc/arm-none-eabi/4.8.1/thumb2\libgcc.a(_arm_addsubdf3.o)
__addsf3                                          c:/progra~2/codesourcery/sourcery_codebench_lite_for_arm_eabi/bin/../lib/gcc/arm-none-eabi/4.8.1/thumb2\libgcc.a(_arm_addsubsf3.o)
__aeabi_cdcmpeq                                   c:/progra~2/codesourcery/sourcery_codebench_lite_for_arm_eabi/bin/../lib/gcc/arm-none-eabi/4.8.1/thumb2\libgcc.a(_arm_cmpdf2.o)
__aeabi_cdcmple                                   c:/progra~2/codesourcery/sourcery_codebench_lite_for_arm_eabi/bin/../lib/gcc/arm-none-eabi/4.8.1/thumb2\libgcc.a(_arm_cmpdf2.o)
__aeabi_cdrcmple                                  c:/progra~2/codesourcery/sourcery_codebench_lite_for_arm_eabi/bin/../lib/gcc/arm-none-eabi/4.8.1/thumb2\libgcc.a(_arm_cmpdf2.o)
__aeabi_cfcmpeq                                   c:/progra~2/codesourcery/sourcery_codebench_lite_for_arm_eabi/bin/../lib/gcc/arm-none-eabi/4.8.1/thumb2\libgcc.a(_arm_cmpsf2.o)
__aeabi_cfcmple                                   c:/progra~2/codesourcery/sourcery_codebench_lite_for_arm_eabi/bin/../lib/gcc/arm-none-eabi/4.8.1/thumb2\libgcc.a(_arm_cmpsf2.o)
__aeabi_cfrcmple                                  c:/progra~2/codesourcery/sourcery_codebench_lite_for_arm_eabi/bin/../lib/gcc/arm-none-eabi/4.8.1/thumb2\libgcc.a(_arm_cmpsf2.o)
__aeabi_d2f                                       c:/progra~2/codesourcery/sourcery_codebench_lite_for_arm_eabi/bin/../lib/gcc/arm-none-eabi/4.8.1/thumb2\libgcc.a(_arm_truncdfsf2.o)
                                                  c:/progra~2/codesourcery/sourcery_codebench_lite_for_arm_eabi/bin/../lib/gcc/arm-none-eabi/4.8.1/../../../../arm-none-eabi/lib/thumb2\libm.a(lib_a-wf_log.o)
                                                  build/obj/thermistors.o
                                                  build/obj/nmea.o
                                                  build/obj/chprintf.o
__aeabi_d2iz                                      c:/progra~2/codesourcery/sourcery_codebench_lite_for_arm_eabi/bin/../lib/gcc/arm-none-eabi/4.8.1/thumb2\libgcc.a(_arm_fixdfsi.o)
                                                  build/obj/nmea.o
                                                  build/obj/chprintf.o
__aeabi_d2uiz                                     c:/progra~2/codesourcery/sourcery_codebench_lite_for_arm_eabi/bin/../lib/gcc/arm-none-eabi/4.8.1/thumb2\libgcc.a(_arm_fixunsdfsi.o)
                                                  c:/progra~2/codesourcery/sourcery_codebench_lite_for_arm_eabi/bin/../lib/gcc/arm-none-eabi/4.8.1/thumb2\libgcc.a(_fixunssfdi.o)
__aeabi_dadd                                      c:/progra~2/codesourcery/sourcery_codebench_lite_for_arm_eabi/bin/../lib/gcc/arm-none-eabi/4.8.1/thumb2\libgcc.a(_arm_addsubdf3.o)
                                                  c:/progra~2/codesourcery/sourcery_codebench_lite_for_arm_eabi/bin/../lib/gcc/arm-none-eabi/4.8.1/../../../../arm-none-eabi/lib/thumb2\libm.a(lib_a-s_round.o)
__aeabi_dcmpeq                                    c:/progra~2/codesourcery/sourcery_codebench_lite_for_arm_eabi/bin/../lib/gcc/arm-none-eabi/4.8.1/thumb2\libgcc.a(_arm_cmpdf2.o)
__aeabi_dcmpge                                    c:/progra~2/codesourcery/sourcery_codebench_lite_for_arm_eabi/bin/../lib/gcc/arm-none-eabi/4.8.1/thumb2\libgcc.a(_arm_cmpdf2.o)
__aeabi_dcmpgt                                    c:/progra~2/codesourcery/sourcery_codebench_lite_for_arm_eabi/bin/../lib/gcc/arm-none-eabi/4.8.1/thumb2\libgcc.a(_arm_cmpdf2.o)
__aeabi_dcmple                                    c:/progra~2/codesourcery/sourcery_codebench_lite_for_arm_eabi/bin/../lib/gcc/arm-none-eabi/4.8.1/thumb2\libgcc.a(_arm_cmpdf2.o)
__aeabi_dcmplt                                    c:/progra~2/codesourcery/sourcery_codebench_lite_for_arm_eabi/bin/../lib/gcc/arm-none-eabi/4.8.1/thumb2\libgcc.a(_arm_cmpdf2.o)
                                                  build/obj/chprintf.o
__aeabi_ddiv                                      c:/progra~2/codesourcery/sourcery_codebench_lite_for_arm_eabi/bin/../lib/gcc/arm-none-eabi/4.8.1/thumb2\libgcc.a(_arm_muldivdf3.o)
                                                  build/obj/thermistors.o
                                                  build/obj/nmea.o
__aeabi_dmul                                      c:/progra~2/codesourcery/sourcery_codebench_lite_for_arm_eabi/bin/../lib/gcc/arm-none-eabi/4.8.1/thumb2\libgcc.a(_arm_muldivdf3.o)
                                                  c:/progra~2/codesourcery/sourcery_codebench_lite_for_arm_eabi/bin/../lib/gcc/arm-none-eabi/4.8.1/thumb2\libgcc.a(_fixunssfdi.o)
                                                  build/obj/thermistors.o
                                                  build/obj/nmea.o
                                                  build/obj/chprintf.o
__aeabi_drsub                                     c:/progra~2/codesourcery/sourcery_codebench_lite_for_arm_eabi/bin/../lib/gcc/arm-none-eabi/4.8.1/thumb2\libgcc.a(_arm_addsubdf3.o)
__aeabi_dsub                                      c:/progra~2/codesourcery/sourcery_codebench_lite_for_arm_eabi/bin/../lib/gcc/arm-none-eabi/4.8.1/thumb2\libgcc.a(_arm_addsubdf3.o)
                                                  c:/progra~2/codesourcery/sourcery_codebench_lite_for_arm_eabi/bin/../lib/gcc/arm-none-eabi/4.8.1/thumb2\libgcc.a(_fixunssfdi.o)
                                                  c:/progra~2/codesourcery/sourcery_codebench_lite_for_arm_eabi/bin/../lib/gcc/arm-none-eabi/4.8.1/../../../../arm-none-eabi/lib/thumb2\libm.a(lib_a-s_modf.o)
                                                  build/obj/chprintf.o
__aeabi_f2d                                       c:/progra~2/codesourcery/sourcery_codebench_lite_for_arm_eabi/bin/../lib/gcc/arm-none-eabi/4.8.1/thumb2\libgcc.a(_arm_addsubdf3.o)
                                                  c:/progra~2/codesourcery/sourcery_codebench_lite_for_arm_eabi/bin/../lib/gcc/arm-none-eabi/4.8.1/thumb2\libgcc.a(_fixunssfdi.o)
                                                  c:/progra~2/codesourcery/sourcery_codebench_lite_for_arm_eabi/bin/../lib/gcc/arm-none-eabi/4.8.1/../../../../arm-none-eabi/lib/thumb2\libm.a(lib_a-wf_log.o)
                                                  build/obj/engine_math.o
                                                  build/obj/fsio_impl.o
                                                  build/obj/interpolation.o
                                                  build/obj/EfiWave.o
                                                  build/obj/datalogging.o
                                                  build/obj/engine_controller.o
                                                  build/obj/lcd_controller.o
                                                  build/obj/alternatorController.o
                                                  build/obj/idle_thread.o
                                                  build/obj/injector_central.o
                                                  build/obj/electronic_throttle.o
                                                  build/obj/settings.o
                                                  build/obj/map.o
                                                  build/obj/thermistors.o
                                                  build/obj/status_loop.o
                                                  build/obj/vehicle_speed.o
                                                  build/obj/HIP9011.o
                                                  build/obj/board_test.o
                                                  build/obj/adc_inputs.o
                                                  build/obj/neo6m.o
                                                  build/obj/max31855.o
                                                  build/obj/signal_executor.o
                                                  build/obj/engine.o
                                                  build/obj/accel_enrichment.o
                                                  build/obj/fuel_math.o
                                                  build/obj/sensor_chart.o
                                                  build/obj/trigger_decoder.o
                                                  build/obj/trigger_structure.o
                                                  build/obj/main_trigger_callback.o
                                                  build/obj/trigger_central.o
                                                  build/obj/nmea.o
                                                  build/obj/chprintf.o
__aeabi_f2ulz                                     c:/progra~2/codesourcery/sourcery_codebench_lite_for_arm_eabi/bin/../lib/gcc/arm-none-eabi/4.8.1/thumb2\libgcc.a(_fixunssfdi.o)
                                                  build/obj/pwm_generator.o
                                                  build/obj/pwm_generator_logic.o
                                                  build/obj/trigger_emulator_algo.o
__aeabi_fadd                                      c:/progra~2/codesourcery/sourcery_codebench_lite_for_arm_eabi/bin/../lib/gcc/arm-none-eabi/4.8.1/thumb2\libgcc.a(_arm_addsubsf3.o)
                                                  c:/progra~2/codesourcery/sourcery_codebench_lite_for_arm_eabi/bin/../lib/gcc/arm-none-eabi/4.8.1/../../../../arm-none-eabi/lib/thumb2\libm.a(lib_a-ef_log.o)
__aeabi_fcmpeq                                    c:/progra~2/codesourcery/sourcery_codebench_lite_for_arm_eabi/bin/../lib/gcc/arm-none-eabi/4.8.1/thumb2\libgcc.a(_arm_cmpsf2.o)
                                                  c:/progra~2/codesourcery/sourcery_codebench_lite_for_arm_eabi/bin/../lib/gcc/arm-none-eabi/4.8.1/../../../../arm-none-eabi/lib/thumb2\libm.a(lib_a-ef_log.o)
                                                  c:/progra~2/codesourcery/sourcery_codebench_lite_for_arm_eabi/bin/../lib/gcc/arm-none-eabi/4.8.1/../../../../arm-none-eabi/lib/thumb2\libm.a(lib_a-wf_log.o)
__aeabi_fcmpge                                    c:/progra~2/codesourcery/sourcery_codebench_lite_for_arm_eabi/bin/../lib/gcc/arm-none-eabi/4.8.1/thumb2\libgcc.a(_arm_cmpsf2.o)
__aeabi_fcmpgt                                    c:/progra~2/codesourcery/sourcery_codebench_lite_for_arm_eabi/bin/../lib/gcc/arm-none-eabi/4.8.1/thumb2\libgcc.a(_arm_cmpsf2.o)
                                                  c:/progra~2/codesourcery/sourcery_codebench_lite_for_arm_eabi/bin/../lib/gcc/arm-none-eabi/4.8.1/../../../../arm-none-eabi/lib/thumb2\libm.a(lib_a-wf_log.o)
__aeabi_fcmple                                    c:/progra~2/codesourcery/sourcery_codebench_lite_for_arm_eabi/bin/../lib/gcc/arm-none-eabi/4.8.1/thumb2\libgcc.a(_arm_cmpsf2.o)
__aeabi_fcmplt                                    c:/progra~2/codesourcery/sourcery_codebench_lite_for_arm_eabi/bin/../lib/gcc/arm-none-eabi/4.8.1/thumb2\libgcc.a(_arm_cmpsf2.o)
__aeabi_fdiv                                      c:/progra~2/codesourcery/sourcery_codebench_lite_for_arm_eabi/bin/../lib/gcc/arm-none-eabi/4.8.1/thumb2\libgcc.a(_arm_muldivsf3.o)
                                                  c:/progra~2/codesourcery/sourcery_codebench_lite_for_arm_eabi/bin/../lib/gcc/arm-none-eabi/4.8.1/../../../../arm-none-eabi/lib/thumb2\libm.a(lib_a-ef_log.o)
__aeabi_fmul                                      c:/progra~2/codesourcery/sourcery_codebench_lite_for_arm_eabi/bin/../lib/gcc/arm-none-eabi/4.8.1/thumb2\libgcc.a(_arm_muldivsf3.o)
                                                  c:/progra~2/codesourcery/sourcery_codebench_lite_for_arm_eabi/bin/../lib/gcc/arm-none-eabi/4.8.1/../../../../arm-none-eabi/lib/thumb2\libm.a(lib_a-ef_log.o)
__aeabi_frsub                                     c:/progra~2/codesourcery/sourcery_codebench_lite_for_arm_eabi/bin/../lib/gcc/arm-none-eabi/4.8.1/thumb2\libgcc.a(_arm_addsubsf3.o)
__aeabi_fsub                                      c:/progra~2/codesourcery/sourcery_codebench_lite_for_arm_eabi/bin/../lib/gcc/arm-none-eabi/4.8.1/thumb2\libgcc.a(_arm_addsubsf3.o)
                                                  c:/progra~2/codesourcery/sourcery_codebench_lite_for_arm_eabi/bin/../lib/gcc/arm-none-eabi/4.8.1/../../../../arm-none-eabi/lib/thumb2\libm.a(lib_a-ef_log.o)
__aeabi_i2d                                       c:/progra~2/codesourcery/sourcery_codebench_lite_for_arm_eabi/bin/../lib/gcc/arm-none-eabi/4.8.1/thumb2\libgcc.a(_arm_addsubdf3.o)
                                                  build/obj/chprintf.o
__aeabi_i2f                                       c:/progra~2/codesourcery/sourcery_codebench_lite_for_arm_eabi/bin/../lib/gcc/arm-none-eabi/4.8.1/thumb2\libgcc.a(_arm_addsubsf3.o)
                                                  c:/progra~2/codesourcery/sourcery_codebench_lite_for_arm_eabi/bin/../lib/gcc/arm-none-eabi/4.8.1/../../../../arm-none-eabi/lib/thumb2\libm.a(lib_a-ef_log.o)
__aeabi_idiv                                      c:/progra~2/codesourcery/sourcery_codebench_lite_for_arm_eabi/bin/../lib/gcc/arm-none-eabi/4.8.1/thumb2\libgcc.a(_divsi3.o)
                                                  c:/progra~2/codesourcery/sourcery_codebench_lite_for_arm_eabi/bin/../lib/gcc/arm-none-eabi/4.8.1/../../../../arm-none-eabi/lib/thumb2\libc.a(lib_a-div.o)
__aeabi_idiv0                                     c:/progra~2/codesourcery/sourcery_codebench_lite_for_arm_eabi/bin/../lib/gcc/arm-none-eabi/4.8.1/thumb2\libgcc.a(_dvmd_tls.o)
                                                  c:/progra~2/codesourcery/sourcery_codebench_lite_for_arm_eabi/bin/../lib/gcc/arm-none-eabi/4.8.1/thumb2\libgcc.a(_divsi3.o)
                                                  c:/progra~2/codesourcery/sourcery_codebench_lite_for_arm_eabi/bin/../lib/gcc/arm-none-eabi/4.8.1/thumb2\libgcc.a(_udivsi3.o)
__aeabi_idivmod                                   c:/progra~2/codesourcery/sourcery_codebench_lite_for_arm_eabi/bin/../lib/gcc/arm-none-eabi/4.8.1/thumb2\libgcc.a(_divsi3.o)
                                                  c:/progra~2/codesourcery/sourcery_codebench_lite_for_arm_eabi/bin/../lib/gcc/arm-none-eabi/4.8.1/../../../../arm-none-eabi/lib/thumb2\libc.a(lib_a-div.o)
__aeabi_l2d                                       c:/progra~2/codesourcery/sourcery_codebench_lite_for_arm_eabi/bin/../lib/gcc/arm-none-eabi/4.8.1/thumb2\libgcc.a(_arm_addsubdf3.o)
__aeabi_l2f                                       c:/progra~2/codesourcery/sourcery_codebench_lite_for_arm_eabi/bin/../lib/gcc/arm-none-eabi/4.8.1/thumb2\libgcc.a(_arm_addsubsf3.o)
__aeabi_ldiv0                                     c:/progra~2/codesourcery/sourcery_codebench_lite_for_arm_eabi/bin/../lib/gcc/arm-none-eabi/4.8.1/thumb2\libgcc.a(_dvmd_tls.o)
                                                  c:/progra~2/codesourcery/sourcery_codebench_lite_for_arm_eabi/bin/../lib/gcc/arm-none-eabi/4.8.1/thumb2\libgcc.a(_aeabi_uldivmod.o)
__aeabi_ui2d                                      c:/progra~2/codesourcery/sourcery_codebench_lite_for_arm_eabi/bin/../lib/gcc/arm-none-eabi/4.8.1/thumb2\libgcc.a(_arm_addsubdf3.o)
                                                  c:/progra~2/codesourcery/sourcery_codebench_lite_for_arm_eabi/bin/../lib/gcc/arm-none-eabi/4.8.1/thumb2\libgcc.a(_fixunssfdi.o)
                                                  build/obj/chprintf.o
__aeabi_ui2f                                      c:/progra~2/codesourcery/sourcery_codebench_lite_for_arm_eabi/bin/../lib/gcc/arm-none-eabi/4.8.1/thumb2\libgcc.a(_arm_addsubsf3.o)
__aeabi_uidiv                                     c:/progra~2/codesourcery/sourcery_codebench_lite_for_arm_eabi/bin/../lib/gcc/arm-none-eabi/4.8.1/thumb2\libgcc.a(_udivsi3.o)
                                                  c:/progra~2/codesourcery/sourcery_codebench_lite_for_arm_eabi/bin/../lib/gcc/arm-none-eabi/4.8.1/thumb2\libgcc.a(_udivdi3.o)
                                                  c:/progra~2/codesourcery/sourcery_codebench_lite_for_arm_eabi/bin/../lib/gcc/arm-none-eabi/4.8.1/thumb2\libgcc.a(_divdi3.o)
__aeabi_uidivmod                                  c:/progra~2/codesourcery/sourcery_codebench_lite_for_arm_eabi/bin/../lib/gcc/arm-none-eabi/4.8.1/thumb2\libgcc.a(_udivsi3.o)
                                                  c:/progra~2/codesourcery/sourcery_codebench_lite_for_arm_eabi/bin/../lib/gcc/arm-none-eabi/4.8.1/thumb2\libgcc.a(_udivdi3.o)
                                                  c:/progra~2/codesourcery/sourcery_codebench_lite_for_arm_eabi/bin/../lib/gcc/arm-none-eabi/4.8.1/thumb2\libgcc.a(_divdi3.o)
__aeabi_ul2d                                      c:/progra~2/codesourcery/sourcery_codebench_lite_for_arm_eabi/bin/../lib/gcc/arm-none-eabi/4.8.1/thumb2\libgcc.a(_arm_addsubdf3.o)
__aeabi_ul2f                                      c:/progra~2/codesourcery/sourcery_codebench_lite_for_arm_eabi/bin/../lib/gcc/arm-none-eabi/4.8.1/thumb2\libgcc.a(_arm_addsubsf3.o)
                                                  build/obj/map.o
                                                  build/obj/vehicle_speed.o
                                                  build/obj/pwm_generator.o
                                                  build/obj/wave_analyzer.o
                                                  build/obj/trigger_decoder.o
                                                  build/obj/rpm_calculator.o
                                                  build/obj/trigger_emulator_algo.o
__aeabi_uldivmod                                  c:/progra~2/codesourcery/sourcery_codebench_lite_for_arm_eabi/bin/../lib/gcc/arm-none-eabi/4.8.1/thumb2\libgcc.a(_aeabi_uldivmod.o)
                                                  build/obj/engine_controller.o
                                                  build/obj/map.o
                                                  build/obj/pwm_generator_logic.o
                                                  build/obj/wave_chart.o
                                                  build/obj/rpm_calculator.o
__cmpdf2                                          c:/progra~2/codesourcery/sourcery_codebench_lite_for_arm_eabi/bin/../lib/gcc/arm-none-eabi/4.8.1/thumb2\libgcc.a(_arm_cmpdf2.o)
__cmpsf2                                          c:/progra~2/codesourcery/sourcery_codebench_lite_for_arm_eabi/bin/../lib/gcc/arm-none-eabi/4.8.1/thumb2\libgcc.a(_arm_cmpsf2.o)
__divdf3                                          c:/progra~2/codesourcery/sourcery_codebench_lite_for_arm_eabi/bin/../lib/gcc/arm-none-eabi/4.8.1/thumb2\libgcc.a(_arm_muldivdf3.o)
__divdi3                                          c:/progra~2/codesourcery/sourcery_codebench_lite_for_arm_eabi/bin/../lib/gcc/arm-none-eabi/4.8.1/thumb2\libgcc.a(_divdi3.o)
                                                  c:/progra~2/codesourcery/sourcery_codebench_lite_for_arm_eabi/bin/../lib/gcc/arm-none-eabi/4.8.1/thumb2\libgcc.a(bpabi.o)
__divsf3                                          c:/progra~2/codesourcery/sourcery_codebench_lite_for_arm_eabi/bin/../lib/gcc/arm-none-eabi/4.8.1/thumb2\libgcc.a(_arm_muldivsf3.o)
__divsi3                                          c:/progra~2/codesourcery/sourcery_codebench_lite_for_arm_eabi/bin/../lib/gcc/arm-none-eabi/4.8.1/thumb2\libgcc.a(_divsi3.o)
__early_init                                      build/obj/board.o
                                                  build/obj/crt0.o
__eqdf2                                           c:/progra~2/codesourcery/sourcery_codebench_lite_for_arm_eabi/bin/../lib/gcc/arm-none-eabi/4.8.1/thumb2\libgcc.a(_arm_cmpdf2.o)
__eqsf2                                           c:/progra~2/codesourcery/sourcery_codebench_lite_for_arm_eabi/bin/../lib/gcc/arm-none-eabi/4.8.1/thumb2\libgcc.a(_arm_cmpsf2.o)
__errno                                           c:/progra~2/codesourcery/sourcery_codebench_lite_for_arm_eabi/bin/../lib/gcc/arm-none-eabi/4.8.1/../../../../arm-none-eabi/lib/thumb2\libc.a(lib_a-errno.o)
                                                  c:/progra~2/codesourcery/sourcery_codebench_lite_for_arm_eabi/bin/../lib/gcc/arm-none-eabi/4.8.1/../../../../arm-none-eabi/lib/thumb2\libm.a(lib_a-wf_log.o)
__extendsfdf2                                     c:/progra~2/codesourcery/sourcery_codebench_lite_for_arm_eabi/bin/../lib/gcc/arm-none-eabi/4.8.1/thumb2\libgcc.a(_arm_addsubdf3.o)
__fdlib_version                                   c:/progra~2/codesourcery/sourcery_codebench_lite_for_arm_eabi/bin/../lib/gcc/arm-none-eabi/4.8.1/../../../../arm-none-eabi/lib/thumb2\libm.a(lib_a-s_lib_ver.o)
                                                  c:/progra~2/codesourcery/sourcery_codebench_lite_for_arm_eabi/bin/../lib/gcc/arm-none-eabi/4.8.1/../../../../arm-none-eabi/lib/thumb2\libm.a(lib_a-wf_log.o)
__fini_array_end                                  build/obj/crt0.o
__fini_array_start                                build/obj/crt0.o
__fixdfsi                                         c:/progra~2/codesourcery/sourcery_codebench_lite_for_arm_eabi/bin/../lib/gcc/arm-none-eabi/4.8.1/thumb2\libgcc.a(_arm_fixdfsi.o)
__fixunsdfsi                                      c:/progra~2/codesourcery/sourcery_codebench_lite_for_arm_eabi/bin/../lib/gcc/arm-none-eabi/4.8.1/thumb2\libgcc.a(_arm_fixunsdfsi.o)
__fixunssfdi                                      c:/progra~2/codesourcery/sourcery_codebench_lite_for_arm_eabi/bin/../lib/gcc/arm-none-eabi/4.8.1/thumb2\libgcc.a(_fixunssfdi.o)
__floatdidf                                       c:/progra~2/codesourcery/sourcery_codebench_lite_for_arm_eabi/bin/../lib/gcc/arm-none-eabi/4.8.1/thumb2\libgcc.a(_arm_addsubdf3.o)
__floatdisf                                       c:/progra~2/codesourcery/sourcery_codebench_lite_for_arm_eabi/bin/../lib/gcc/arm-none-eabi/4.8.1/thumb2\libgcc.a(_arm_addsubsf3.o)
__floatsidf                                       c:/progra~2/codesourcery/sourcery_codebench_lite_for_arm_eabi/bin/../lib/gcc/arm-none-eabi/4.8.1/thumb2\libgcc.a(_arm_addsubdf3.o)
__floatsisf                                       c:/progra~2/codesourcery/sourcery_codebench_lite_for_arm_eabi/bin/../lib/gcc/arm-none-eabi/4.8.1/thumb2\libgcc.a(_arm_addsubsf3.o)
__floatundidf                                     c:/progra~2/codesourcery/sourcery_codebench_lite_for_arm_eabi/bin/../lib/gcc/arm-none-eabi/4.8.1/thumb2\libgcc.a(_arm_addsubdf3.o)
__floatundisf                                     c:/progra~2/codesourcery/sourcery_codebench_lite_for_arm_eabi/bin/../lib/gcc/arm-none-eabi/4.8.1/thumb2\libgcc.a(_arm_addsubsf3.o)
__floatunsidf                                     c:/progra~2/codesourcery/sourcery_codebench_lite_for_arm_eabi/bin/../lib/gcc/arm-none-eabi/4.8.1/thumb2\libgcc.a(_arm_addsubdf3.o)
__floatunsisf                                     c:/progra~2/codesourcery/sourcery_codebench_lite_for_arm_eabi/bin/../lib/gcc/arm-none-eabi/4.8.1/thumb2\libgcc.a(_arm_addsubsf3.o)
__fpclassifyd                                     c:/progra~2/codesourcery/sourcery_codebench_lite_for_arm_eabi/bin/../lib/gcc/arm-none-eabi/4.8.1/../../../../arm-none-eabi/lib/thumb2\libm.a(lib_a-s_fpclassify.o)
                                                  build/obj/chprintf.o
__fpclassifyf                                     c:/progra~2/codesourcery/sourcery_codebench_lite_for_arm_eabi/bin/../lib/gcc/arm-none-eabi/4.8.1/../../../../arm-none-eabi/lib/thumb2\libm.a(lib_a-sf_fpclassify.o)
                                                  c:/progra~2/codesourcery/sourcery_codebench_lite_for_arm_eabi/bin/../lib/gcc/arm-none-eabi/4.8.1/../../../../arm-none-eabi/lib/thumb2\libm.a(lib_a-wf_log.o)
                                                  build/obj/speed_density.o
                                                  build/obj/engine_math.o
                                                  build/obj/fsio_impl.o
                                                  build/obj/interpolation.o
                                                  build/obj/engine_controller.o
                                                  build/obj/map_averaging.o
                                                  build/obj/thermistors.o
                                                  build/obj/pwm_generator_logic.o
                                                  build/obj/signal_executor.o
                                                  build/obj/accel_enrichment.o
                                                  build/obj/fuel_math.o
                                                  build/obj/advance_map.o
                                                  build/obj/main_trigger_callback.o
                                                  build/obj/rpm_calculator.o
__gedf2                                           c:/progra~2/codesourcery/sourcery_codebench_lite_for_arm_eabi/bin/../lib/gcc/arm-none-eabi/4.8.1/thumb2\libgcc.a(_arm_cmpdf2.o)
__gesf2                                           c:/progra~2/codesourcery/sourcery_codebench_lite_for_arm_eabi/bin/../lib/gcc/arm-none-eabi/4.8.1/thumb2\libgcc.a(_arm_cmpsf2.o)
__gettzinfo                                       c:/progra~2/codesourcery/sourcery_codebench_lite_for_arm_eabi/bin/../lib/gcc/arm-none-eabi/4.8.1/../../../../arm-none-eabi/lib/thumb2\libc.a(lib_a-gettzinfo.o)
                                                  c:/progra~2/codesourcery/sourcery_codebench_lite_for_arm_eabi/bin/../lib/gcc/arm-none-eabi/4.8.1/../../../../arm-none-eabi/lib/thumb2\libc.a(lib_a-mktm_r.o)
                                                  c:/progra~2/codesourcery/sourcery_codebench_lite_for_arm_eabi/bin/../lib/gcc/arm-none-eabi/4.8.1/../../../../arm-none-eabi/lib/thumb2\libc.a(lib_a-mktime.o)
__gnu_ldivmod_helper                              c:/progra~2/codesourcery/sourcery_codebench_lite_for_arm_eabi/bin/../lib/gcc/arm-none-eabi/4.8.1/thumb2\libgcc.a(bpabi.o)
__gnu_uldivmod_helper                             c:/progra~2/codesourcery/sourcery_codebench_lite_for_arm_eabi/bin/../lib/gcc/arm-none-eabi/4.8.1/thumb2\libgcc.a(bpabi.o)
                                                  c:/progra~2/codesourcery/sourcery_codebench_lite_for_arm_eabi/bin/../lib/gcc/arm-none-eabi/4.8.1/thumb2\libgcc.a(_aeabi_uldivmod.o)
__gtdf2                                           c:/progra~2/codesourcery/sourcery_codebench_lite_for_arm_eabi/bin/../lib/gcc/arm-none-eabi/4.8.1/thumb2\libgcc.a(_arm_cmpdf2.o)
__gtsf2                                           c:/progra~2/codesourcery/sourcery_codebench_lite_for_arm_eabi/bin/../lib/gcc/arm-none-eabi/4.8.1/thumb2\libgcc.a(_arm_cmpsf2.o)
__ieee754_logf                                    c:/progra~2/codesourcery/sourcery_codebench_lite_for_arm_eabi/bin/../lib/gcc/arm-none-eabi/4.8.1/../../../../arm-none-eabi/lib/thumb2\libm.a(lib_a-ef_log.o)
                                                  c:/progra~2/codesourcery/sourcery_codebench_lite_for_arm_eabi/bin/../lib/gcc/arm-none-eabi/4.8.1/../../../../arm-none-eabi/lib/thumb2\libm.a(lib_a-wf_log.o)
__init_array_end                                  build/obj/crt0.o
__init_array_start                                build/obj/crt0.o
__late_init                                       build/obj/crt0.o
__ledf2                                           c:/progra~2/codesourcery/sourcery_codebench_lite_for_arm_eabi/bin/../lib/gcc/arm-none-eabi/4.8.1/thumb2\libgcc.a(_arm_cmpdf2.o)
__lesf2                                           c:/progra~2/codesourcery/sourcery_codebench_lite_for_arm_eabi/bin/../lib/gcc/arm-none-eabi/4.8.1/thumb2\libgcc.a(_arm_cmpsf2.o)
__ltdf2                                           c:/progra~2/codesourcery/sourcery_codebench_lite_for_arm_eabi/bin/../lib/gcc/arm-none-eabi/4.8.1/thumb2\libgcc.a(_arm_cmpdf2.o)
__ltsf2                                           c:/progra~2/codesourcery/sourcery_codebench_lite_for_arm_eabi/bin/../lib/gcc/arm-none-eabi/4.8.1/thumb2\libgcc.a(_arm_cmpsf2.o)
__main_stack_base__                               build/obj/mpu_util.o
                                                  build/obj/crt0.o
__main_stack_end__                                build/obj/vectors.o
                                                  build/obj/crt0.o
__main_thread_stack_base__                        build/obj/chsys.o
__muldf3                                          c:/progra~2/codesourcery/sourcery_codebench_lite_for_arm_eabi/bin/../lib/gcc/arm-none-eabi/4.8.1/thumb2\libgcc.a(_arm_muldivdf3.o)
__mulsf3                                          c:/progra~2/codesourcery/sourcery_codebench_lite_for_arm_eabi/bin/../lib/gcc/arm-none-eabi/4.8.1/thumb2\libgcc.a(_arm_muldivsf3.o)
__nedf2                                           c:/progra~2/codesourcery/sourcery_codebench_lite_for_arm_eabi/bin/../lib/gcc/arm-none-eabi/4.8.1/thumb2\libgcc.a(_arm_cmpdf2.o)
__nesf2                                           c:/progra~2/codesourcery/sourcery_codebench_lite_for_arm_eabi/bin/../lib/gcc/arm-none-eabi/4.8.1/thumb2\libgcc.a(_arm_cmpsf2.o)
__process_stack_base__                            build/obj/crt0.o
__process_stack_end__                             build/obj/crt0.o
__sf_fake_stderr                                  c:/progra~2/codesourcery/sourcery_codebench_lite_for_arm_eabi/bin/../lib/gcc/arm-none-eabi/4.8.1/../../../../arm-none-eabi/lib/thumb2\libc.a(lib_a-impure.o)
__sf_fake_stdin                                   c:/progra~2/codesourcery/sourcery_codebench_lite_for_arm_eabi/bin/../lib/gcc/arm-none-eabi/4.8.1/../../../../arm-none-eabi/lib/thumb2\libc.a(lib_a-impure.o)
__sf_fake_stdout                                  c:/progra~2/codesourcery/sourcery_codebench_lite_for_arm_eabi/bin/../lib/gcc/arm-none-eabi/4.8.1/../../../../arm-none-eabi/lib/thumb2\libc.a(lib_a-impure.o)
__subdf3                                          c:/progra~2/codesourcery/sourcery_codebench_lite_for_arm_eabi/bin/../lib/gcc/arm-none-eabi/4.8.1/thumb2\libgcc.a(_arm_addsubdf3.o)
__subsf3                                          c:/progra~2/codesourcery/sourcery_codebench_lite_for_arm_eabi/bin/../lib/gcc/arm-none-eabi/4.8.1/thumb2\libgcc.a(_arm_addsubsf3.o)
__truncdfsf2                                      c:/progra~2/codesourcery/sourcery_codebench_lite_for_arm_eabi/bin/../lib/gcc/arm-none-eabi/4.8.1/thumb2\libgcc.a(_arm_truncdfsf2.o)
__tz_lock                                         c:/progra~2/codesourcery/sourcery_codebench_lite_for_arm_eabi/bin/../lib/gcc/arm-none-eabi/4.8.1/../../../../arm-none-eabi/lib/thumb2\libc.a(lib_a-tzlock.o)
                                                  c:/progra~2/codesourcery/sourcery_codebench_lite_for_arm_eabi/bin/../lib/gcc/arm-none-eabi/4.8.1/../../../../arm-none-eabi/lib/thumb2\libc.a(lib_a-mktm_r.o)
                                                  c:/progra~2/codesourcery/sourcery_codebench_lite_for_arm_eabi/bin/../lib/gcc/arm-none-eabi/4.8.1/../../../../arm-none-eabi/lib/thumb2\libc.a(lib_a-mktime.o)
__tz_unlock                                       c:/progra~2/codesourcery/sourcery_codebench_lite_for_arm_eabi/bin/../lib/gcc/arm-none-eabi/4.8.1/../../../../arm-none-eabi/lib/thumb2\libc.a(lib_a-tzlock.o)
                                                  c:/progra~2/codesourcery/sourcery_codebench_lite_for_arm_eabi/bin/../lib/gcc/arm-none-eabi/4.8.1/../../../../arm-none-eabi/lib/thumb2\libc.a(lib_a-mktm_r.o)
                                                  c:/progra~2/codesourcery/sourcery_codebench_lite_for_arm_eabi/bin/../lib/gcc/arm-none-eabi/4.8.1/../../../../arm-none-eabi/lib/thumb2\libc.a(lib_a-mktime.o)
__tzcalc_limits                                   c:/progra~2/codesourcery/sourcery_codebench_lite_for_arm_eabi/bin/../lib/gcc/arm-none-eabi/4.8.1/../../../../arm-none-eabi/lib/thumb2\libc.a(lib_a-mktm_r.o)
                                                  c:/progra~2/codesourcery/sourcery_codebench_lite_for_arm_eabi/bin/../lib/gcc/arm-none-eabi/4.8.1/../../../../arm-none-eabi/lib/thumb2\libc.a(lib_a-mktime.o)
__udivdi3                                         c:/progra~2/codesourcery/sourcery_codebench_lite_for_arm_eabi/bin/../lib/gcc/arm-none-eabi/4.8.1/thumb2\libgcc.a(_udivdi3.o)
                                                  c:/progra~2/codesourcery/sourcery_codebench_lite_for_arm_eabi/bin/../lib/gcc/arm-none-eabi/4.8.1/thumb2\libgcc.a(bpabi.o)
__udivsi3                                         c:/progra~2/codesourcery/sourcery_codebench_lite_for_arm_eabi/bin/../lib/gcc/arm-none-eabi/4.8.1/thumb2\libgcc.a(_udivsi3.o)
_bss_end                                          build/obj/crt0.o
_bss_start                                        build/obj/crt0.o
_core_init                                        build/obj/chmemcore.o
                                                  build/obj/chsys.o
_data                                             build/obj/crt0.o
_daylight                                         c:/progra~2/codesourcery/sourcery_codebench_lite_for_arm_eabi/bin/../lib/gcc/arm-none-eabi/4.8.1/../../../../arm-none-eabi/lib/thumb2\libc.a(lib_a-tzvars.o)
                                                  c:/progra~2/codesourcery/sourcery_codebench_lite_for_arm_eabi/bin/../lib/gcc/arm-none-eabi/4.8.1/../../../../arm-none-eabi/lib/thumb2\libc.a(lib_a-mktm_r.o)
                                                  c:/progra~2/codesourcery/sourcery_codebench_lite_for_arm_eabi/bin/../lib/gcc/arm-none-eabi/4.8.1/../../../../arm-none-eabi/lib/thumb2\libc.a(lib_a-mktime.o)
_default_exit                                     build/obj/crt0.o
_edata                                            build/obj/crt0.o
_engine                                           build/obj/engine_controller.o
                                                  build/obj/speed_density.o
                                                  build/obj/engine_math.o
                                                  build/obj/map_averaging.o
                                                  build/obj/status_loop.o
                                                  build/obj/trigger_input.o
                                                  build/obj/engine.o
                                                  build/obj/fuel_math.o
                                                  build/obj/wave_analyzer.o
                                                  build/obj/trigger_decoder.o
                                                  build/obj/main_trigger_callback.o
                                                  build/obj/trigger_central.o
                                                  build/obj/rpm_calculator.o
_global_impure_ptr                                c:/progra~2/codesourcery/sourcery_codebench_lite_for_arm_eabi/bin/../lib/gcc/arm-none-eabi/4.8.1/../../../../arm-none-eabi/lib/thumb2\libc.a(lib_a-impure.o)
_heap_init                                        build/obj/chheap.o
                                                  build/obj/chsys.o
_idle_thread                                      build/obj/chsys.o
_idle_thread_wa                                   build/obj/chsys.o
_impure_ptr                                       c:/progra~2/codesourcery/sourcery_codebench_lite_for_arm_eabi/bin/../lib/gcc/arm-none-eabi/4.8.1/../../../../arm-none-eabi/lib/thumb2\libc.a(lib_a-impure.o)
                                                  c:/progra~2/codesourcery/sourcery_codebench_lite_for_arm_eabi/bin/../lib/gcc/arm-none-eabi/4.8.1/../../../../arm-none-eabi/lib/thumb2\libc.a(lib_a-errno.o)
_mktm_r                                           c:/progra~2/codesourcery/sourcery_codebench_lite_for_arm_eabi/bin/../lib/gcc/arm-none-eabi/4.8.1/../../../../arm-none-eabi/lib/thumb2\libc.a(lib_a-mktm_r.o)
                                                  c:/progra~2/codesourcery/sourcery_codebench_lite_for_arm_eabi/bin/../lib/gcc/arm-none-eabi/4.8.1/../../../../arm-none-eabi/lib/thumb2\libc.a(lib_a-lcltime_r.o)
_pal_lld_init                                     build/obj/pal_lld.o
                                                  build/obj/hal.o
_pal_lld_setgroupmode                             build/obj/pal_lld.o
                                                  build/obj/console_io.o
                                                  build/obj/hardware.o
                                                  build/obj/pin_repository.o
                                                  build/obj/pal.o
_port_init                                        build/obj/chcore_v7m.o
                                                  build/obj/chsys.o
_port_irq_epilogue                                build/obj/chcore_v7m.o
                                                  build/obj/serial_lld.o
                                                  build/obj/pwm_lld.o
                                                  build/obj/icu_lld.o
                                                  build/obj/gpt_lld.o
                                                  build/obj/usb_lld.o
                                                  build/obj/i2c_lld.o
                                                  build/obj/can_lld.o
                                                  build/obj/ext_lld_isr.o
                                                  build/obj/adc_lld.o
                                                  build/obj/stm32_dma.o
_port_switch                                      build/obj/chcore_v7m.o
                                                  build/obj/chschd.o
_port_switch_from_isr                             build/obj/chcore_v7m.o
_port_thread_start                                build/obj/chcore_v7m.o
                                                  build/obj/chthreads.o
_scheduler_init                                   build/obj/chschd.o
                                                  build/obj/chsys.o
_stm32_dma_streams                                build/obj/stm32_dma.o
                                                  build/obj/spi_lld.o
                                                  build/obj/i2c_lld.o
                                                  build/obj/adc_lld.o
_textdata                                         build/obj/crt0.o
_thread_init                                      build/obj/chthreads.o
                                                  build/obj/chsys.o
_thread_memfill                                   build/obj/chthreads.o
                                                  build/obj/usb_lld.o
_timezone                                         c:/progra~2/codesourcery/sourcery_codebench_lite_for_arm_eabi/bin/../lib/gcc/arm-none-eabi/4.8.1/../../../../arm-none-eabi/lib/thumb2\libc.a(lib_a-tzvars.o)
_trace_init                                       build/obj/chdebug.o
                                                  build/obj/chsys.o
_tzname                                           c:/progra~2/codesourcery/sourcery_codebench_lite_for_arm_eabi/bin/../lib/gcc/arm-none-eabi/4.8.1/../../../../arm-none-eabi/lib/thumb2\libc.a(lib_a-tzvars.o)
_unhandled_exception                              build/obj/vectors.o
_usb_ep0in                                        build/obj/usb.o
                                                  build/obj/usb_lld.o
_usb_ep0out                                       build/obj/usb.o
                                                  build/obj/usb_lld.o
_usb_ep0setup                                     build/obj/usb.o
                                                  build/obj/usb_lld.o
_usb_reset                                        build/obj/usb.o
                                                  build/obj/usb_lld.o
_vectors                                          build/obj/vectors.o
_vt_init                                          build/obj/chvt.o
                                                  build/obj/chsys.o
absF                                              build/obj/efilib.o
                                                  build/obj/idle_thread.o
                                                  build/obj/trigger_bmw.o
absI                                              build/obj/efilib.o
                                                  build/obj/cli_registry.o
                                                  build/obj/engine_controller.o
                                                  build/obj/error_handling.o
                                                  build/obj/settings.o
                                                  build/obj/mmc_card.o
activeConfiguration                               build/obj/rusefi.o
                                                  build/obj/injector_central.o
                                                  build/obj/trigger_input.o
adcAcquireBus                                     build/obj/adc.o
adcConvert                                        build/obj/adc.o
adcInit                                           build/obj/adc.o
                                                  build/obj/hal.o
adcObjectInit                                     build/obj/adc.o
                                                  build/obj/adc_lld.o
adcReleaseBus                                     build/obj/adc.o
adcSTM32DisableTSVREFE                            build/obj/adc_lld.o
adcSTM32DisableVBATE                              build/obj/adc_lld.o
adcSTM32EnableTSVREFE                             build/obj/adc_lld.o
adcSTM32EnableVBATE                               build/obj/adc_lld.o
adcStart                                          build/obj/adc.o
                                                  build/obj/adc_inputs.o
adcStartConversion                                build/obj/adc.o
adcStartConversionI                               build/obj/adc.o
                                                  build/obj/adc_inputs.o
adcStop                                           build/obj/adc.o
adcStopConversion                                 build/obj/adc.o
adcStopConversionI                                build/obj/adc.o
adc_callback_fast(ADCDriver*, unsigned short*, unsigned int) build/obj/hardware.o
                                                  build/obj/adc_inputs.o
adc_lld_init                                      build/obj/adc_lld.o
                                                  build/obj/adc.o
adc_lld_start                                     build/obj/adc_lld.o
                                                  build/obj/adc.o
adc_lld_start_conversion                          build/obj/adc_lld.o
                                                  build/obj/adc.o
adc_lld_stop                                      build/obj/adc_lld.o
                                                  build/obj/adc.o
adc_lld_stop_conversion                           build/obj/adc_lld.o
                                                  build/obj/adc.o
addConsoleAction                                  build/obj/cli_registry.o
                                                  build/obj/rusefi.o
                                                  build/obj/fsio_impl.o
                                                  build/obj/interpolation.o
                                                  build/obj/engine_controller.o
                                                  build/obj/alternatorController.o
                                                  build/obj/malfunction_indicator.o
                                                  build/obj/idle_thread.o
                                                  build/obj/injector_central.o
                                                  build/obj/flash_main.o
                                                  build/obj/map_averaging.o
                                                  build/obj/settings.o
                                                  build/obj/map.o
                                                  build/obj/eficonsole.o
                                                  build/obj/console_io.o
                                                  build/obj/status_loop.o
                                                  build/obj/tunerstudio.o
                                                  build/obj/joystick.o
                                                  build/obj/vehicle_speed.o
                                                  build/obj/HIP9011.o
                                                  build/obj/board_test.o
                                                  build/obj/adc_inputs.o
                                                  build/obj/lcd_HD44780.o
                                                  build/obj/mmc_card.o
                                                  build/obj/neo6m.o
                                                  build/obj/pin_repository.o
                                                  build/obj/max31855.o
                                                  build/obj/can_hw.o
                                                  build/obj/accel_enrichment.o
                                                  build/obj/main_trigger_callback.o
                                                  build/obj/trigger_central.o
addConsoleActionF                                 build/obj/cli_registry.o
                                                  build/obj/alternatorController.o
                                                  build/obj/settings.o
                                                  build/obj/thermistors.o
                                                  build/obj/HIP9011.o
                                                  build/obj/accel_enrichment.o
addConsoleActionFF                                build/obj/cli_registry.o
                                                  build/obj/fsio_impl.o
                                                  build/obj/settings.o
                                                  build/obj/status_loop.o
addConsoleActionFFP                               build/obj/cli_registry.o
addConsoleActionI                                 build/obj/cli_registry.o
                                                  build/obj/engine_controller.o
                                                  build/obj/idle_thread.o
                                                  build/obj/electronic_throttle.o
                                                  build/obj/settings.o
                                                  build/obj/status_loop.o
                                                  build/obj/tunerstudio.o
                                                  build/obj/HIP9011.o
                                                  build/obj/board_test.o
                                                  build/obj/adc_inputs.o
                                                  build/obj/accel_enrichment.o
                                                  build/obj/wave_chart.o
                                                  build/obj/sensor_chart.o
                                                  build/obj/poten.o
addConsoleActionII                                build/obj/cli_registry.o
                                                  build/obj/fsio_impl.o
                                                  build/obj/engine_controller.o
                                                  build/obj/injector_central.o
                                                  build/obj/settings.o
                                                  build/obj/hardware.o
                                                  build/obj/wave_analyzer.o
                                                  build/obj/poten.o
addConsoleActionIIP                               build/obj/cli_registry.o
addConsoleActionIP                                build/obj/cli_registry.o
                                                  build/obj/trigger_emulator_algo.o
addConsoleActionP                                 build/obj/cli_registry.o
                                                  build/obj/settings.o
                                                  build/obj/main_trigger_callback.o
                                                  build/obj/trigger_emulator_algo.o
addConsoleActionS                                 build/obj/cli_registry.o
                                                  build/obj/settings.o
                                                  build/obj/mmc_card.o
addConsoleActionSP                                build/obj/cli_registry.o
                                                  build/obj/fsio_impl.o
addConsoleActionSS                                build/obj/cli_registry.o
                                                  build/obj/fsio_impl.o
                                                  build/obj/engine_controller.o
                                                  build/obj/settings.o
addConsoleActionSSP                               build/obj/cli_registry.o
                                                  build/obj/fsio_impl.o
                                                  build/obj/settings.o
addConsoleActionSSS                               build/obj/cli_registry.o
                                                  build/obj/engine_controller.o
                                                  build/obj/injector_central.o
                                                  build/obj/settings.o
addConsoleActionSSSSS                             build/obj/cli_registry.o
                                                  build/obj/injector_central.o
addError                                          build/obj/malfunction_central.o
                                                  build/obj/malfunction_indicator.o
addSkippedToothTriggerEvents(trigger_wheel_e, TriggerShape*, int, int, float, float, float, float, float) build/obj/trigger_decoder.o
                                                  build/obj/trigger_chrysler.o
addTriggerEventListener(void (*)(trigger_event_e, unsigned long), char const*, Engine*) build/obj/trigger_central.o
                                                  build/obj/map_averaging.o
                                                  build/obj/HIP9011.o
                                                  build/obj/main_trigger_callback.o
                                                  build/obj/rpm_calculator.o
afrMap                                            build/obj/speed_density.o
                                                  build/obj/engine.o
                                                  build/obj/fuel_math.o
allReady                                          build/obj/error_handling.o
append                                            build/obj/datalogging.o
                                                  build/obj/error_handling.o
                                                  build/obj/status_loop.o
appendFast                                        build/obj/datalogging.o
                                                  build/obj/wave_chart.o
appendFloat                                       build/obj/datalogging.o
                                                  build/obj/status_loop.o
                                                  build/obj/wave_analyzer.o
appendMsgPostfix                                  build/obj/datalogging.o
                                                  build/obj/settings.o
                                                  build/obj/rtc_helper.o
                                                  build/obj/adc_inputs.o
appendMsgPrefix                                   build/obj/datalogging.o
                                                  build/obj/error_handling.o
                                                  build/obj/settings.o
                                                  build/obj/rtc_helper.o
                                                  build/obj/adc_inputs.o
appendPrintf                                      build/obj/datalogging.o
                                                  build/obj/settings.o
                                                  build/obj/status_loop.o
                                                  build/obj/rtc_helper.o
                                                  build/obj/adc_inputs.o
                                                  build/obj/pin_repository.o
                                                  build/obj/wave_analyzer.o
                                                  build/obj/wave_chart.o
                                                  build/obj/sensor_chart.o
appendStr(char*, char const*)                     build/obj/lcd_controller.o
appendToLog                                       build/obj/mmc_card.o
                                                  build/obj/status_loop.o
applyFsioConfiguration()                          build/obj/fsio_impl.o
                                                  build/obj/engine_configuration.o
applyNewConfiguration                             build/obj/rusefi.o
                                                  build/obj/engine_controller.o
                                                  build/obj/settings.o
applyNewHardwareSettings()                        build/obj/hardware.o
                                                  build/obj/rusefi.o
applyNewTriggerInputPins()                        build/obj/trigger_input.o
                                                  build/obj/hardware.o
applyNonPersistentConfiguration(Logging*)         build/obj/engine_configuration.o
                                                  build/obj/flash_main.o
                                                  build/obj/trigger_emulator_algo.o
applyPinState(PwmConfig*, int)                    build/obj/pwm_generator.o
                                                  build/obj/fsio_impl.o
                                                  build/obj/electronic_throttle.o
                                                  build/obj/trigger_emulator_algo.o
array16                                           build/obj/interpolation.o
assertCylinderId(int, char const*)                build/obj/injector_central.o
assertVtList                                      build/obj/error_handling.o
atoff                                             build/obj/efilib.o
                                                  build/obj/fsio_core.o
                                                  build/obj/cli_registry.o
                                                  build/obj/engine_controller.o
                                                  build/obj/injector_central.o
                                                  build/obj/settings.o
                                                  build/obj/rtc_helper.o
                                                  build/obj/nmea.o
atoi                                              build/obj/efilib.o
                                                  build/obj/fsio_impl.o
                                                  build/obj/cli_registry.o
                                                  build/obj/engine_controller.o
                                                  build/obj/injector_central.o
                                                  build/obj/settings.o
                                                  build/obj/mmc_card.o
                                                  build/obj/pin_repository.o
                                                  build/obj/nmea.o
avgAddValue(AvgTable*, int, float, float)         build/obj/avg_values.o
avgFill(AvgTable*, int, float)                    build/obj/avg_values.o
avgGetValue(AvgTable*, int, float)                build/obj/avg_values.o
avgGetValueByIndexes(AvgTable*, int, int)         build/obj/avg_values.o
avgGetValuesCount(AvgTable*, int, float)          build/obj/avg_values.o
avgReset(AvgTable*)                               build/obj/avg_values.o
bandFreqLookup                                    build/obj/hip9011_lookup.o
baroCorrMap                                       build/obj/speed_density.o
                                                  build/obj/fuel_math.o
baseHardwareInit()                                build/obj/mpu_util.o
                                                  build/obj/main.o
beforeHwSetTimer                                  build/obj/SingleTimerExecutor.o
binaryConsole                                     build/obj/console_io.o
blinkingPeriod                                    build/obj/status_loop.o
boardConfiguration                                build/obj/engine_controller.o
                                                  build/obj/rusefi.o
                                                  build/obj/fsio_impl.o
                                                  build/obj/alternatorController.o
                                                  build/obj/idle_thread.o
                                                  build/obj/injector_central.o
                                                  build/obj/map_averaging.o
                                                  build/obj/electronic_throttle.o
                                                  build/obj/settings.o
                                                  build/obj/map.o
                                                  build/obj/status_loop.o
                                                  build/obj/tunerstudio.o
                                                  build/obj/tunerstudio_io.o
                                                  build/obj/mpu_util.o
                                                  build/obj/io_pins.o
                                                  build/obj/joystick.o
                                                  build/obj/vehicle_speed.o
                                                  build/obj/HIP9011.o
                                                  build/obj/trigger_input.o
                                                  build/obj/adc_inputs.o
                                                  build/obj/lcd_HD44780.o
                                                  build/obj/mmc_card.o
                                                  build/obj/neo6m.o
                                                  build/obj/hardware.o
                                                  build/obj/max31855.o
                                                  build/obj/can_hw.o
                                                  build/obj/vw.o
                                                  build/obj/dodge_ram.o
                                                  build/obj/gm_2_2.o
                                                  build/obj/mitsubishi.o
                                                  build/obj/sachs.o
                                                  build/obj/mazda_626.o
                                                  build/obj/rover_v8.o
                                                  build/obj/GY6_139QMB.o
                                                  build/obj/subaru.o
                                                  build/obj/honda_accord.o
                                                  build/obj/mazda_miata_nb.o
                                                  build/obj/ford_1995_inline_6.o
                                                  build/obj/dodge_neon.o
                                                  build/obj/citroenBerlingoTU3JP.o
                                                  build/obj/mazda_miata.o
                                                  build/obj/bmw_e34.o
                                                  build/obj/custom_engine.o
                                                  build/obj/ford_aspire.o
                                                  build/obj/engine_configuration.o
                                                  build/obj/advance_map.o
                                                  build/obj/wave_analyzer.o
                                                  build/obj/trigger_decoder.o
                                                  build/obj/trigger_central.o
                                                  build/obj/rpm_calculator.o
boardInit                                         build/obj/board.o
                                                  build/obj/hal.o
boolToString(bool)                                build/obj/efilib.o
                                                  build/obj/engine_controller.o
                                                  build/obj/alternatorController.o
                                                  build/obj/idle_thread.o
                                                  build/obj/settings.o
                                                  build/obj/status_loop.o
                                                  build/obj/HIP9011.o
                                                  build/obj/mmc_card.o
                                                  build/obj/can_hw.o
                                                  build/obj/engine.o
                                                  build/obj/wave_chart.o
                                                  build/obj/trigger_central.o
buffer                                            build/obj/console_io.o
calc_crc                                          build/obj/crc.o
                                                  build/obj/flash_main.o
canInit                                           build/obj/can.o
                                                  build/obj/hal.o
canObjectInit                                     build/obj/can.o
                                                  build/obj/can_lld.o
canReceive                                        build/obj/can.o
                                                  build/obj/can_hw.o
canSTM32SetFilters                                build/obj/can_lld.o
canSleep                                          build/obj/can.o
canStart                                          build/obj/can.o
                                                  build/obj/can_hw.o
canStop                                           build/obj/can.o
canTransmit                                       build/obj/can.o
                                                  build/obj/can_hw.o
canWakeup                                         build/obj/can.o
can_lld_init                                      build/obj/can_lld.o
                                                  build/obj/can.o
can_lld_is_rx_nonempty                            build/obj/can_lld.o
                                                  build/obj/can.o
can_lld_is_tx_empty                               build/obj/can_lld.o
                                                  build/obj/can.o
can_lld_receive                                   build/obj/can_lld.o
                                                  build/obj/can.o
can_lld_sleep                                     build/obj/can_lld.o
                                                  build/obj/can.o
can_lld_start                                     build/obj/can_lld.o
                                                  build/obj/can.o
can_lld_stop                                      build/obj/can_lld.o
                                                  build/obj/can.o
can_lld_transmit                                  build/obj/can_lld.o
                                                  build/obj/can.o
can_lld_wakeup                                    build/obj/can_lld.o
                                                  build/obj/can.o
chCoreAlloc                                       build/obj/chmemcore.o
                                                  build/obj/chheap.o
chCoreAllocI                                      build/obj/chmemcore.o
chCoreStatus                                      build/obj/chmemcore.o
chDbgCheckClassI                                  build/obj/chdebug.o
                                                  build/obj/usb.o
                                                  build/obj/serial.o
                                                  build/obj/gpt.o
                                                  build/obj/adc.o
                                                  build/obj/chmempools.o
                                                  build/obj/chmemcore.o
                                                  build/obj/chqueues.o
                                                  build/obj/chmboxes.o
                                                  build/obj/chevents.o
                                                  build/obj/chsem.o
                                                  build/obj/chthreads.o
                                                  build/obj/chschd.o
                                                  build/obj/chvt.o
                                                  build/obj/chsys.o
chDbgCheckClassS                                  build/obj/chdebug.o
                                                  build/obj/chmboxes.o
                                                  build/obj/chmtx.o
                                                  build/obj/chsem.o
                                                  build/obj/chschd.o
chDbgPanic                                        build/obj/chdebug.o
                                                  build/obj/pwm_lld.o
                                                  build/obj/icu_lld.o
                                                  build/obj/gpt_lld.o
                                                  build/obj/spi_lld.o
                                                  build/obj/usb_lld.o
                                                  build/obj/i2c_lld.o
                                                  build/obj/can_lld.o
                                                  build/obj/adc_lld.o
                                                  build/obj/stm32_dma.o
                                                  build/obj/usb.o
                                                  build/obj/spi.o
                                                  build/obj/serial_usb.o
                                                  build/obj/serial.o
                                                  build/obj/pwm.o
                                                  build/obj/mmc_spi.o
                                                  build/obj/icu.o
                                                  build/obj/i2c.o
                                                  build/obj/gpt.o
                                                  build/obj/ext.o
                                                  build/obj/can.o
                                                  build/obj/adc.o
                                                  build/obj/chheap.o
                                                  build/obj/chmsg.o
                                                  build/obj/chevents.o
                                                  build/obj/chmtx.o
                                                  build/obj/chsem.o
                                                  build/obj/chthreads.o
                                                  build/obj/chschd.o
                                                  build/obj/chvt.o
chDbgPanic3                                       build/obj/error_handling.o
                                                  build/obj/rusefi.o
                                                  build/obj/eficonsole.o
                                                  build/obj/mpu_util.o
                                                  build/obj/rtc_lld.o
                                                  build/obj/i2c_lld.o
                                                  build/obj/can_lld.o
                                                  build/obj/stm32_dma.o
                                                  build/obj/usb.o
                                                  build/obj/spi.o
                                                  build/obj/serial_usb.o
                                                  build/obj/serial.o
                                                  build/obj/rtc.o
                                                  build/obj/pwm.o
                                                  build/obj/pal.o
                                                  build/obj/mmcsd.o
                                                  build/obj/mmc_spi.o
                                                  build/obj/icu.o
                                                  build/obj/i2c.o
                                                  build/obj/gpt.o
                                                  build/obj/ext.o
                                                  build/obj/can.o
                                                  build/obj/adc.o
                                                  build/obj/chmempools.o
                                                  build/obj/chheap.o
                                                  build/obj/chqueues.o
                                                  build/obj/chmboxes.o
                                                  build/obj/chmsg.o
                                                  build/obj/chevents.o
                                                  build/obj/chmtx.o
                                                  build/obj/chsem.o
                                                  build/obj/chthreads.o
                                                  build/obj/chvt.o
                                                  build/obj/chdebug.o
chDbgStackOverflowPanic                           build/obj/rusefi.o
                                                  build/obj/chschd.o
chEvtAddEvents                                    build/obj/chevents.o
chEvtBroadcastFlags                               build/obj/chevents.o
chEvtBroadcastFlagsI                              build/obj/chevents.o
                                                  build/obj/serial_lld.o
                                                  build/obj/can_lld.o
                                                  build/obj/serial_usb.o
                                                  build/obj/serial.o
                                                  build/obj/can.o
chEvtDispatch                                     build/obj/chevents.o
chEvtGetAndClearEvents                            build/obj/chevents.o
chEvtGetAndClearFlags                             build/obj/chevents.o
chEvtGetAndClearFlagsI                            build/obj/chevents.o
                                                  build/obj/console_io.o
chEvtRegisterMask                                 build/obj/chevents.o
                                                  build/obj/console_io.o
chEvtSignal                                       build/obj/chevents.o
chEvtSignalI                                      build/obj/chevents.o
chEvtUnregister                                   build/obj/chevents.o
chEvtWaitAll                                      build/obj/chevents.o
chEvtWaitAllTimeout                               build/obj/chevents.o
chEvtWaitAny                                      build/obj/chevents.o
chEvtWaitAnyTimeout                               build/obj/chevents.o
chEvtWaitOne                                      build/obj/chevents.o
chEvtWaitOneTimeout                               build/obj/chevents.o
chHeapAlloc                                       build/obj/chheap.o
                                                  build/obj/fatfs_syscall.o
chHeapFree                                        build/obj/chheap.o
                                                  build/obj/fatfs_syscall.o
chHeapInit                                        build/obj/chheap.o
chHeapStatus                                      build/obj/chheap.o
chIQGetTimeout                                    build/obj/chqueues.o
                                                  build/obj/serial_usb.o
                                                  build/obj/serial.o
chIQInit                                          build/obj/chqueues.o
                                                  build/obj/serial_usb.o
                                                  build/obj/serial.o
chIQPutI                                          build/obj/chqueues.o
                                                  build/obj/serial.o
chIQReadTimeout                                   build/obj/chqueues.o
                                                  build/obj/serial_usb.o
                                                  build/obj/serial.o
chIQResetI                                        build/obj/chqueues.o
                                                  build/obj/serial_usb.o
                                                  build/obj/serial.o
chMBFetch                                         build/obj/chmboxes.o
chMBFetchI                                        build/obj/chmboxes.o
chMBFetchS                                        build/obj/chmboxes.o
chMBInit                                          build/obj/chmboxes.o
chMBPost                                          build/obj/chmboxes.o
chMBPostAhead                                     build/obj/chmboxes.o
chMBPostAheadI                                    build/obj/chmboxes.o
chMBPostAheadS                                    build/obj/chmboxes.o
chMBPostI                                         build/obj/chmboxes.o
chMBPostS                                         build/obj/chmboxes.o
chMBReset                                         build/obj/chmboxes.o
chMsgRelease                                      build/obj/chmsg.o
chMsgSend                                         build/obj/chmsg.o
chMsgWait                                         build/obj/chmsg.o
chMtxInit                                         build/obj/chmtx.o
                                                  build/obj/hardware.o
                                                  build/obj/spi.o
                                                  build/obj/i2c.o
                                                  build/obj/adc.o
                                                  build/obj/chheap.o
chMtxLock                                         build/obj/chmtx.o
                                                  build/obj/hardware.o
                                                  build/obj/spi.o
                                                  build/obj/i2c.o
                                                  build/obj/adc.o
                                                  build/obj/chheap.o
chMtxLockS                                        build/obj/chmtx.o
chMtxTryLock                                      build/obj/chmtx.o
chMtxTryLockS                                     build/obj/chmtx.o
chMtxUnlock                                       build/obj/chmtx.o
                                                  build/obj/hardware.o
                                                  build/obj/spi.o
                                                  build/obj/i2c.o
                                                  build/obj/adc.o
                                                  build/obj/chheap.o
chMtxUnlockAll                                    build/obj/chmtx.o
chMtxUnlockS                                      build/obj/chmtx.o
chOQGetI                                          build/obj/chqueues.o
                                                  build/obj/serial_lld.o
                                                  build/obj/serial.o
chOQInit                                          build/obj/chqueues.o
                                                  build/obj/serial_usb.o
                                                  build/obj/serial.o
chOQPutTimeout                                    build/obj/chqueues.o
                                                  build/obj/serial_usb.o
                                                  build/obj/serial.o
chOQResetI                                        build/obj/chqueues.o
                                                  build/obj/serial_usb.o
                                                  build/obj/serial.o
chOQWriteTimeout                                  build/obj/chqueues.o
                                                  build/obj/serial_usb.o
                                                  build/obj/serial.o
chPoolAlloc                                       build/obj/chmempools.o
chPoolAllocI                                      build/obj/chmempools.o
chPoolFree                                        build/obj/chmempools.o
chPoolFreeI                                       build/obj/chmempools.o
chPoolInit                                        build/obj/chmempools.o
chPoolLoadArray                                   build/obj/chmempools.o
chRegFirstThread                                  build/obj/chregistry.o
                                                  build/obj/eficonsole.o
chRegNextThread                                   build/obj/chregistry.o
                                                  build/obj/eficonsole.o
chSchDoReschedule                                 build/obj/chschd.o
                                                  build/obj/chcore_v7m.o
chSchDoRescheduleAhead                            build/obj/chschd.o
chSchDoRescheduleBehind                           build/obj/chschd.o
                                                  build/obj/chthreads.o
chSchGoSleepS                                     build/obj/chschd.o
                                                  build/obj/usb_lld.o
                                                  build/obj/i2c_lld.o
                                                  build/obj/spi.o
                                                  build/obj/adc.o
                                                  build/obj/chmsg.o
                                                  build/obj/chevents.o
                                                  build/obj/chmtx.o
                                                  build/obj/chsem.o
                                                  build/obj/chthreads.o
chSchGoSleepTimeoutS                              build/obj/chschd.o
                                                  build/obj/can_lld.o
                                                  build/obj/can.o
                                                  build/obj/chqueues.o
                                                  build/obj/chevents.o
                                                  build/obj/chsem.o
                                                  build/obj/chthreads.o
chSchReadyI                                       build/obj/chschd.o
                                                  build/obj/spi_lld.o
                                                  build/obj/usb_lld.o
                                                  build/obj/i2c_lld.o
                                                  build/obj/adc_lld.o
                                                  build/obj/adc.o
                                                  build/obj/chqueues.o
                                                  build/obj/chmsg.o
                                                  build/obj/chevents.o
                                                  build/obj/chmtx.o
                                                  build/obj/chsem.o
chSchRescheduleS                                  build/obj/chschd.o
                                                  build/obj/usb_lld.o
                                                  build/obj/serial_usb.o
                                                  build/obj/serial.o
                                                  build/obj/can.o
                                                  build/obj/chmboxes.o
                                                  build/obj/chevents.o
                                                  build/obj/chmtx.o
                                                  build/obj/chsem.o
                                                  build/obj/chthreads.o
chSchWakeupS                                      build/obj/chschd.o
                                                  build/obj/adc.o
                                                  build/obj/chmsg.o
                                                  build/obj/chmtx.o
                                                  build/obj/chsem.o
                                                  build/obj/chthreads.o
chSemAddCounterI                                  build/obj/chsem.o
chSemInit                                         build/obj/chsem.o
                                                  build/obj/can.o
                                                  build/obj/chmboxes.o
chSemReset                                        build/obj/chsem.o
chSemResetI                                       build/obj/chsem.o
                                                  build/obj/can.o
                                                  build/obj/chmboxes.o
chSemSignal                                       build/obj/chsem.o
chSemSignalI                                      build/obj/chsem.o
                                                  build/obj/can_lld.o
                                                  build/obj/chmboxes.o
chSemWait                                         build/obj/chsem.o
chSemWaitS                                        build/obj/chsem.o
chSemWaitTimeout                                  build/obj/chsem.o
chSemWaitTimeoutS                                 build/obj/chsem.o
                                                  build/obj/can.o
                                                  build/obj/chmboxes.o
chSysInit                                         build/obj/chsys.o
                                                  build/obj/main.o
chSysTimerHandlerI                                build/obj/chsys.o
                                                  build/obj/chcore_v7m.o
chThdCreateI                                      build/obj/chthreads.o
                                                  build/obj/usb_lld.o
chThdCreateStatic                                 build/obj/chthreads.o
                                                  build/obj/engine_controller.o
                                                  build/obj/alternatorController.o
                                                  build/obj/malfunction_indicator.o
                                                  build/obj/idle_thread.o
                                                  build/obj/injector_central.o
                                                  build/obj/electronic_throttle.o
                                                  build/obj/console_io.o
                                                  build/obj/status_loop.o
                                                  build/obj/tunerstudio.o
                                                  build/obj/stepper.o
                                                  build/obj/HIP9011.o
                                                  build/obj/board_test.o
                                                  build/obj/mmc_card.o
                                                  build/obj/neo6m.o
                                                  build/obj/microsecond_timer.o
                                                  build/obj/can_hw.o
                                                  build/obj/wave_analyzer.o
                                                  build/obj/chsys.o
chThdExit                                         build/obj/chthreads.o
                                                  build/obj/chcore_v7m.o
chThdExitS                                        build/obj/chthreads.o
chThdResume                                       build/obj/chthreads.o
chThdSetPriority                                  build/obj/chthreads.o
chThdSleep                                        build/obj/chthreads.o
                                                  build/obj/rusefi.o
                                                  build/obj/engine_controller.o
                                                  build/obj/alternatorController.o
                                                  build/obj/malfunction_indicator.o
                                                  build/obj/idle_thread.o
                                                  build/obj/injector_central.o
                                                  build/obj/error_handling.o
                                                  build/obj/electronic_throttle.o
                                                  build/obj/eficonsole.o
                                                  build/obj/console_io.o
                                                  build/obj/status_loop.o
                                                  build/obj/tunerstudio.o
                                                  build/obj/stepper.o
                                                  build/obj/HIP9011.o
                                                  build/obj/board_test.o
                                                  build/obj/lcd_HD44780.o
                                                  build/obj/mmc_card.o
                                                  build/obj/microsecond_timer.o
                                                  build/obj/can_hw.o
                                                  build/obj/wave_analyzer.o
                                                  build/obj/engine_emulator.o
                                                  build/obj/usbconsole.o
                                                  build/obj/mmc_spi.o
chThdSleepUntil                                   build/obj/chthreads.o
chThdTerminate                                    build/obj/chthreads.o
chThdYield                                        build/obj/chthreads.o
chVTResetI                                        build/obj/chvt.o
                                                  build/obj/i2c_lld.o
                                                  build/obj/rfiutil.o
                                                  build/obj/chschd.o
chVTSetAny                                        build/obj/rfiutil.o
                                                  build/obj/engine_controller.o
chVTSetI                                          build/obj/chvt.o
                                                  build/obj/rusefi.o
                                                  build/obj/i2c_lld.o
                                                  build/obj/rfiutil.o
                                                  build/obj/chschd.o
ch_debug                                          build/obj/chregistry.o
                                                  build/obj/chsys.o
checkEnginePin                                    build/obj/status_loop.o
                                                  build/obj/malfunction_indicator.o
                                                  build/obj/injector_central.o
                                                  build/obj/io_pins.o
checkSwitchTimes2(int, float*)                    build/obj/EfiWave.o
                                                  build/obj/pwm_generator_logic.o
                                                  build/obj/trigger_structure.o
chvprintf                                         build/obj/chprintf.o
                                                  build/obj/rusefi.o
                                                  build/obj/datalogging.o
                                                  build/obj/lcd_controller.o
                                                  build/obj/error_handling.o
                                                  build/obj/eficonsole.o
                                                  build/obj/pin_repository.o
clearCallbacks(IntListenerArray*)                 build/obj/listener_array.o
                                                  build/obj/trigger_central.o
clust2sect                                        build/obj/ff.o
commonFrankensoAnalogInputs(engine_configuration_s*) build/obj/engine_configuration.o
                                                  build/obj/mazda_626.o
                                                  build/obj/dodge_neon.o
                                                  build/obj/mazda_miata.o
commonTxInit(int)                                 build/obj/can_hw.o
                                                  build/obj/obd2.o
config                                            build/obj/engine_controller.o
                                                  build/obj/speed_density.o
                                                  build/obj/engine_math.o
                                                  build/obj/fsio_impl.o
                                                  build/obj/idle_thread.o
                                                  build/obj/settings.o
                                                  build/obj/sachs.o
                                                  build/obj/GY6_139QMB.o
                                                  build/obj/dodge_neon.o
                                                  build/obj/citroenBerlingoTU3JP.o
                                                  build/obj/mazda_miata.o
                                                  build/obj/ford_aspire.o
                                                  build/obj/engine_configuration.o
                                                  build/obj/fuel_math.o
                                                  build/obj/advance_map.o
configWorkingCopy                                 build/obj/tunerstudio.o
configureFordAspireTriggerShape(TriggerShape*)    build/obj/trigger_mitsubishi.o
                                                  build/obj/trigger_decoder.o
configureGmTriggerShape(TriggerShape*)            build/obj/trigger_gm.o
configureHondaAccordCD(TriggerShape*, bool)       build/obj/trigger_structure.o
                                                  build/obj/trigger_decoder.o
configureHondaAccordCDDip(TriggerShape*)          build/obj/trigger_structure.o
                                                  build/obj/trigger_decoder.o
configureMazdaProtegeLx(TriggerShape*)            build/obj/trigger_mazda.o
                                                  build/obj/trigger_decoder.o
configureMazdaProtegeSOHC(TriggerShape*)          build/obj/trigger_mazda.o
                                                  build/obj/trigger_decoder.o
configureMiniCooperTriggerShape(TriggerShape*)    build/obj/trigger_bmw.o
                                                  build/obj/trigger_decoder.o
configureNeon1995TriggerShape(TriggerShape*)      build/obj/trigger_chrysler.o
                                                  build/obj/trigger_decoder.o
configureNeon2003TriggerShape(TriggerShape*)      build/obj/trigger_chrysler.o
                                                  build/obj/trigger_decoder.o
consoleInBinaryMode                               build/obj/console_io.o
                                                  build/obj/loggingcentral.o
consoleOutputBuffer(unsigned char const*, int)    build/obj/console_io.o
                                                  build/obj/datalogging.o
consolePutChar(int)                               build/obj/console_io.o
console_line_callback                             build/obj/console_io.o
                                                  build/obj/tunerstudio.o
convertCelsiustoF(float)                          build/obj/thermistors.o
convertFtoCelsius(float)                          build/obj/thermistors.o
convertKelvinToFahrenheit(float)                  build/obj/thermistors.o
convertVoltageTo10bitADC(float)                   build/obj/tps.o
                                                  build/obj/sachs.o
                                                  build/obj/ford_1995_inline_6.o
                                                  build/obj/engine_configuration.o
copyFuelTable(float const (*) [16], float (*) [16]) build/obj/engine_configuration.o
                                                  build/obj/GY6_139QMB.o
                                                  build/obj/dodge_neon.o
                                                  build/obj/citroenBerlingoTU3JP.o
                                                  build/obj/mazda_miata.o
                                                  build/obj/ford_aspire.o
copyPwmParameters(PwmConfig*, int, float*, int, signed char**) build/obj/pwm_generator_logic.o
                                                  build/obj/trigger_emulator_algo.o
copyTimingTable(float const (*) [16], float (*) [16]) build/obj/engine_configuration.o
                                                  build/obj/dodge_neon.o
                                                  build/obj/citroenBerlingoTU3JP.o
                                                  build/obj/mazda_miata.o
                                                  build/obj/ford_aspire.o
                                                  build/obj/advance_map.o
crc32                                             build/obj/crc.o
                                                  build/obj/tunerstudio.o
                                                  build/obj/tunerstudio_io.o
currentPageId                                     build/obj/tunerstudio.o
currentTimeMillis                                 build/obj/engine_controller.o
                                                  build/obj/idle_thread.o
                                                  build/obj/flash_main.o
                                                  build/obj/status_loop.o
                                                  build/obj/tunerstudio.o
                                                  build/obj/neo6m.o
                                                  build/obj/main_trigger_callback.o
                                                  build/obj/trigger_emulator_algo.o
cyccnt                                            build/obj/main_trigger_callback.o
                                                  build/obj/trigger_central.o
dateToString(char*)                               build/obj/rtc_helper.o
date_get_tm(tm*)                                  build/obj/rtc_helper.o
                                                  build/obj/neo6m.o
date_set_tm(tm*)                                  build/obj/rtc_helper.o
                                                  build/obj/neo6m.o
dbAdd                                             build/obj/data_buffer.o
dbClear                                           build/obj/data_buffer.o
dbCopy                                            build/obj/data_buffer.o
dbIsFull                                          build/obj/data_buffer.o
dbg_check_disable                                 build/obj/chdebug.o
dbg_check_enable                                  build/obj/chdebug.o
                                                  build/obj/chsys.o
dbg_check_enter_isr                               build/obj/chdebug.o
                                                  build/obj/serial_lld.o
                                                  build/obj/pwm_lld.o
                                                  build/obj/icu_lld.o
                                                  build/obj/gpt_lld.o
                                                  build/obj/usb_lld.o
                                                  build/obj/i2c_lld.o
                                                  build/obj/can_lld.o
                                                  build/obj/ext_lld_isr.o
                                                  build/obj/adc_lld.o
                                                  build/obj/stm32_dma.o
                                                  build/obj/chcore_v7m.o
dbg_check_leave_isr                               build/obj/chdebug.o
                                                  build/obj/serial_lld.o
                                                  build/obj/pwm_lld.o
                                                  build/obj/icu_lld.o
                                                  build/obj/gpt_lld.o
                                                  build/obj/usb_lld.o
                                                  build/obj/i2c_lld.o
                                                  build/obj/can_lld.o
                                                  build/obj/ext_lld_isr.o
                                                  build/obj/adc_lld.o
                                                  build/obj/stm32_dma.o
                                                  build/obj/chcore_v7m.o
dbg_check_lock                                    build/obj/chdebug.o
                                                  build/obj/console_io.o
                                                  build/obj/rtc_lld.o
                                                  build/obj/usb_lld.o
                                                  build/obj/i2c_lld.o
                                                  build/obj/usb.o
                                                  build/obj/spi.o
                                                  build/obj/serial_usb.o
                                                  build/obj/serial.o
                                                  build/obj/rtc.o
                                                  build/obj/pwm.o
                                                  build/obj/mmc_spi.o
                                                  build/obj/icu.o
                                                  build/obj/i2c.o
                                                  build/obj/gpt.o
                                                  build/obj/ext.o
                                                  build/obj/can.o
                                                  build/obj/adc.o
                                                  build/obj/chmempools.o
                                                  build/obj/chmemcore.o
                                                  build/obj/chqueues.o
                                                  build/obj/chmboxes.o
                                                  build/obj/chmsg.o
                                                  build/obj/chevents.o
                                                  build/obj/chmtx.o
                                                  build/obj/chsem.o
                                                  build/obj/chregistry.o
                                                  build/obj/chthreads.o
                                                  build/obj/chcore_v7m.o
dbg_check_lock_from_isr                           build/obj/chdebug.o
                                                  build/obj/map_averaging.o
                                                  build/obj/console_io.o
                                                  build/obj/adc_inputs.o
                                                  build/obj/serial_lld.o
                                                  build/obj/spi_lld.o
                                                  build/obj/usb_lld.o
                                                  build/obj/i2c_lld.o
                                                  build/obj/can_lld.o
                                                  build/obj/adc_lld.o
                                                  build/obj/usbcfg.o
                                                  build/obj/usb.o
                                                  build/obj/serial_usb.o
                                                  build/obj/chschd.o
                                                  build/obj/chsys.o
                                                  build/obj/chcore_v7m.o
dbg_check_suspend                                 build/obj/chdebug.o
dbg_check_unlock                                  build/obj/chdebug.o
                                                  build/obj/console_io.o
                                                  build/obj/rtc_lld.o
                                                  build/obj/usb_lld.o
                                                  build/obj/i2c_lld.o
                                                  build/obj/usb.o
                                                  build/obj/spi.o
                                                  build/obj/serial_usb.o
                                                  build/obj/serial.o
                                                  build/obj/rtc.o
                                                  build/obj/pwm.o
                                                  build/obj/mmc_spi.o
                                                  build/obj/icu.o
                                                  build/obj/i2c.o
                                                  build/obj/gpt.o
                                                  build/obj/ext.o
                                                  build/obj/can.o
                                                  build/obj/adc.o
                                                  build/obj/chmempools.o
                                                  build/obj/chmemcore.o
                                                  build/obj/chqueues.o
                                                  build/obj/chmboxes.o
                                                  build/obj/chmsg.o
                                                  build/obj/chevents.o
                                                  build/obj/chmtx.o
                                                  build/obj/chsem.o
                                                  build/obj/chregistry.o
                                                  build/obj/chthreads.o
                                                  build/obj/chcore_v7m.o
dbg_check_unlock_from_isr                         build/obj/chdebug.o
                                                  build/obj/map_averaging.o
                                                  build/obj/console_io.o
                                                  build/obj/adc_inputs.o
                                                  build/obj/serial_lld.o
                                                  build/obj/spi_lld.o
                                                  build/obj/usb_lld.o
                                                  build/obj/i2c_lld.o
                                                  build/obj/can_lld.o
                                                  build/obj/adc_lld.o
                                                  build/obj/usbcfg.o
                                                  build/obj/usb.o
                                                  build/obj/serial_usb.o
                                                  build/obj/chschd.o
                                                  build/obj/chsys.o
                                                  build/obj/chcore_v7m.o
dbg_isr_cnt                                       build/obj/chdebug.o
                                                  build/obj/console_io.o
                                                  build/obj/mpu_util.o
dbg_lock_cnt                                      build/obj/chdebug.o
                                                  build/obj/console_io.o
                                                  build/obj/SingleTimerExecutor.o
dbg_panic_file                                    build/obj/error_handling.o
dbg_panic_line                                    build/obj/error_handling.o
dbg_panic_msg                                     build/obj/chdebug.o
                                                  build/obj/error_handling.o
dbg_trace                                         build/obj/chdebug.o
                                                  build/obj/chschd.o
dbg_trace_buffer                                  build/obj/chdebug.o
debugFloat                                        build/obj/datalogging.o
                                                  build/obj/status_loop.o
debugInt                                          build/obj/datalogging.o
                                                  build/obj/status_loop.o
decodePressure(float, air_pressure_sensor_config_s*) build/obj/map.o
disk_initialize                                   build/obj/fatfs_diskio.o
                                                  build/obj/ff.o
disk_ioctl                                        build/obj/fatfs_diskio.o
                                                  build/obj/ff.o
disk_read                                         build/obj/fatfs_diskio.o
                                                  build/obj/ff.o
disk_status                                       build/obj/fatfs_diskio.o
                                                  build/obj/ff.o
disk_write                                        build/obj/fatfs_diskio.o
                                                  build/obj/ff.o
div                                               c:/progra~2/codesourcery/sourcery_codebench_lite_for_arm_eabi/bin/../lib/gcc/arm-none-eabi/4.8.1/../../../../arm-none-eabi/lib/thumb2\libc.a(lib_a-div.o)
                                                  c:/progra~2/codesourcery/sourcery_codebench_lite_for_arm_eabi/bin/../lib/gcc/arm-none-eabi/4.8.1/../../../../arm-none-eabi/lib/thumb2\libc.a(lib_a-mktime.o)
dmaInit                                           build/obj/stm32_dma.o
                                                  build/obj/hal_lld.o
dmaStreamAllocate                                 build/obj/stm32_dma.o
                                                  build/obj/spi_lld.o
                                                  build/obj/i2c_lld.o
                                                  build/obj/adc_lld.o
dmaStreamRelease                                  build/obj/stm32_dma.o
                                                  build/obj/spi_lld.o
                                                  build/obj/i2c_lld.o
                                                  build/obj/adc_lld.o
efiIcuStart(ICUDriver*, ICUConfig const*)         build/obj/pin_repository.o
                                                  build/obj/trigger_input.o
                                                  build/obj/digital_input_hw.o
efiPow10                                          build/obj/efilib.o
                                                  build/obj/malfunction_indicator.o
efiRound                                          build/obj/efilib.o
                                                  build/obj/table_helper.o
efiStrlen                                         build/obj/efilib.o
                                                  build/obj/loggingcentral.o
                                                  build/obj/datalogging.o
                                                  build/obj/lcd_controller.o
efiTrim                                           build/obj/efilib.o
                                                  build/obj/console_io.o
                                                  build/obj/tunerstudio.o
emulate(Engine*)                                  build/obj/engine_emulator.o
engine                                            build/obj/engine_controller.o
                                                  build/obj/rusefi.o
                                                  build/obj/speed_density.o
                                                  build/obj/engine_math.o
                                                  build/obj/fsio_impl.o
                                                  build/obj/lcd_controller.o
                                                  build/obj/idle_thread.o
                                                  build/obj/map_averaging.o
                                                  build/obj/settings.o
                                                  build/obj/maf.o
                                                  build/obj/allsensors.o
                                                  build/obj/thermistors.o
                                                  build/obj/status_loop.o
                                                  build/obj/HIP9011.o
                                                  build/obj/trigger_input.o
                                                  build/obj/hardware.o
                                                  build/obj/can_hw.o
                                                  build/obj/engine.o
                                                  build/obj/engine_configuration.o
                                                  build/obj/accel_enrichment.o
                                                  build/obj/fuel_math.o
                                                  build/obj/advance_map.o
                                                  build/obj/wave_analyzer.o
                                                  build/obj/wave_chart.o
                                                  build/obj/trigger_structure.o
                                                  build/obj/main_trigger_callback.o
                                                  build/obj/trigger_central.o
                                                  build/obj/rpm_calculator.o
                                                  build/obj/trigger_emulator_algo.o
engineConfiguration                               build/obj/engine_controller.o
                                                  build/obj/rusefi.o
                                                  build/obj/speed_density.o
                                                  build/obj/engine_math.o
                                                  build/obj/fsio_impl.o
                                                  build/obj/lcd_controller.o
                                                  build/obj/alternatorController.o
                                                  build/obj/idle_thread.o
                                                  build/obj/injector_central.o
                                                  build/obj/flash_main.o
                                                  build/obj/map_averaging.o
                                                  build/obj/settings.o
                                                  build/obj/ego.o
                                                  build/obj/tps.o
                                                  build/obj/maf.o
                                                  build/obj/voltage.o
                                                  build/obj/map.o
                                                  build/obj/allsensors.o
                                                  build/obj/thermistors.o
                                                  build/obj/status_loop.o
                                                  build/obj/tunerstudio.o
                                                  build/obj/joystick.o
                                                  build/obj/vehicle_speed.o
                                                  build/obj/HIP9011.o
                                                  build/obj/adc_inputs.o
                                                  build/obj/lcd_HD44780.o
                                                  build/obj/neo6m.o
                                                  build/obj/hardware.o
                                                  build/obj/can_hw.o
                                                  build/obj/vw.o
                                                  build/obj/dodge_ram.o
                                                  build/obj/gm_2_2.o
                                                  build/obj/mitsubishi.o
                                                  build/obj/test_engine.o
                                                  build/obj/sachs.o
                                                  build/obj/mazda_626.o
                                                  build/obj/rover_v8.o
                                                  build/obj/GY6_139QMB.o
                                                  build/obj/subaru.o
                                                  build/obj/honda_accord.o
                                                  build/obj/mazda_miata_nb.o
                                                  build/obj/ford_1995_inline_6.o
                                                  build/obj/dodge_neon.o
                                                  build/obj/citroenBerlingoTU3JP.o
                                                  build/obj/mazda_miata.o
                                                  build/obj/bmw_e34.o
                                                  build/obj/custom_engine.o
                                                  build/obj/ford_aspire.o
                                                  build/obj/engine.o
                                                  build/obj/engine_configuration.o
                                                  build/obj/accel_enrichment.o
                                                  build/obj/fuel_math.o
                                                  build/obj/idle_controller.o
                                                  build/obj/advance_map.o
                                                  build/obj/wave_chart.o
                                                  build/obj/sensor_chart.o
                                                  build/obj/trigger_decoder.o
                                                  build/obj/trigger_structure.o
                                                  build/obj/main_trigger_callback.o
                                                  build/obj/trigger_central.o
                                                  build/obj/rpm_calculator.o
                                                  build/obj/trigger_emulator_algo.o
engineConfiguration2                              build/obj/engine_controller.o
                                                  build/obj/rusefi.o
                                                  build/obj/fsio_impl.o
enginePins                                        build/obj/efiGpio.o
                                                  build/obj/engine_math.o
                                                  build/obj/fsio_impl.o
                                                  build/obj/injector_central.o
                                                  build/obj/settings.o
                                                  build/obj/status_loop.o
                                                  build/obj/io_pins.o
                                                  build/obj/signal_executor.o
                                                  build/obj/engine.o
                                                  build/obj/main_trigger_callback.o
engine_configuration2_s::engine_configuration2_s() build/obj/engine_configuration.o
engine_configuration2_s::engine_configuration2_s() build/obj/engine_configuration.o
                                                  build/obj/engine_controller.o
errorMessageBuffer                                build/obj/rusefi.o
                                                  build/obj/status_loop.o
event_trigger_position_s::event_trigger_position_s() build/obj/event_registry.o
event_trigger_position_s::event_trigger_position_s() build/obj/event_registry.o
extChannelDisable                                 build/obj/ext.o
extChannelEnable                                  build/obj/ext.o
extInit                                           build/obj/ext.o
                                                  build/obj/hal.o
extObjectInit                                     build/obj/ext.o
                                                  build/obj/ext_lld.o
extSetChannelModeI                                build/obj/ext.o
extStart                                          build/obj/ext.o
                                                  build/obj/joystick.o
extStop                                           build/obj/ext.o
ext_lld_channel_disable                           build/obj/ext_lld.o
                                                  build/obj/ext.o
ext_lld_channel_enable                            build/obj/ext_lld.o
                                                  build/obj/ext.o
ext_lld_exti_irq_disable                          build/obj/ext_lld_isr.o
                                                  build/obj/ext_lld.o
ext_lld_exti_irq_enable                           build/obj/ext_lld_isr.o
                                                  build/obj/ext_lld.o
ext_lld_init                                      build/obj/ext_lld.o
                                                  build/obj/ext.o
ext_lld_start                                     build/obj/ext_lld.o
                                                  build/obj/ext.o
ext_lld_stop                                      build/obj/ext_lld.o
                                                  build/obj/ext.o
f_chmod                                           build/obj/ff.o
f_close                                           build/obj/ff.o
                                                  build/obj/mmc_card.o
f_getfree                                         build/obj/ff.o
f_lseek                                           build/obj/ff.o
                                                  build/obj/mmc_card.o
f_mkdir                                           build/obj/ff.o
f_mount                                           build/obj/ff.o
                                                  build/obj/mmc_card.o
f_open                                            build/obj/ff.o
                                                  build/obj/mmc_card.o
f_opendir                                         build/obj/ff.o
                                                  build/obj/mmc_card.o
f_read                                            build/obj/ff.o
                                                  build/obj/mmc_card.o
f_readdir                                         build/obj/ff.o
                                                  build/obj/mmc_card.o
f_rename                                          build/obj/ff.o
f_stat                                            build/obj/ff.o
f_sync                                            build/obj/ff.o
                                                  build/obj/mmc_card.o
f_truncate                                        build/obj/ff.o
f_unlink                                          build/obj/ff.o
                                                  build/obj/mmc_card.o
f_utime                                           build/obj/ff.o
f_write                                           build/obj/ff.o
                                                  build/obj/mmc_card.o
fanBench()                                        build/obj/injector_central.o
                                                  build/obj/lcd_controller.o
fastAdc                                           build/obj/adc_inputs.o
                                                  build/obj/engine_controller.o
                                                  build/obj/board_test.o
                                                  build/obj/hardware.o
fatal3(char*, char*, int)                         build/obj/eficonsole.o
ff_convert                                        build/obj/ccsbcs.o
                                                  build/obj/ff.o
ff_memalloc                                       build/obj/fatfs_syscall.o
                                                  build/obj/ff.o
ff_memfree                                        build/obj/fatfs_syscall.o
                                                  build/obj/ff.o
ff_wtoupper                                       build/obj/ccsbcs.o
                                                  build/obj/ff.o
findEndOfToken                                    build/obj/cli_registry.o
findIndex(float const*, int, float)               build/obj/interpolation.o
                                                  build/obj/settings.o
                                                  build/obj/hip9011_lookup.o
findIndex2(float const*, unsigned int, float)     build/obj/interpolation.o
findTriggerPosition(event_trigger_position_s*, float) build/obj/engine_math.o
                                                  build/obj/main_trigger_callback.o
findTriggerZeroEventIndex(TriggerShape*, trigger_config_s const*) build/obj/trigger_decoder.o
                                                  build/obj/trigger_structure.o
firmwareError                                     build/obj/rusefi.o
                                                  build/obj/speed_density.o
                                                  build/obj/engine_math.o
                                                  build/obj/interpolation.o
                                                  build/obj/fsio_core.o
                                                  build/obj/EfiWave.o
                                                  build/obj/cli_registry.o
                                                  build/obj/listener_array.o
                                                  build/obj/loggingcentral.o
                                                  build/obj/datalogging.o
                                                  build/obj/engine_controller.o
                                                  build/obj/alternatorController.o
                                                  build/obj/idle_thread.o
                                                  build/obj/injector_central.o
                                                  build/obj/map_averaging.o
                                                  build/obj/settings.o
                                                  build/obj/ego.o
                                                  build/obj/map.o
                                                  build/obj/thermistors.o
                                                  build/obj/eficonsole.o
                                                  build/obj/console_io.o
                                                  build/obj/status_loop.o
                                                  build/obj/tunerstudio_io.o
                                                  build/obj/gpio_helper.o
                                                  build/obj/io_pins.o
                                                  build/obj/joystick.o
                                                  build/obj/trigger_input.o
                                                  build/obj/pwm_generator.o
                                                  build/obj/adc_inputs.o
                                                  build/obj/lcd_HD44780.o
                                                  build/obj/hardware.o
                                                  build/obj/digital_input_hw.o
                                                  build/obj/microsecond_timer.o
                                                  build/obj/pin_repository.o
                                                  build/obj/SingleTimerExecutor.o
                                                  build/obj/efiGpio.o
                                                  build/obj/event_queue.o
                                                  build/obj/pwm_generator_logic.o
                                                  build/obj/signal_executor.o
                                                  build/obj/engine.o
                                                  build/obj/engine_configuration.o
                                                  build/obj/fuel_math.o
                                                  build/obj/advance_map.o
                                                  build/obj/wave_analyzer.o
                                                  build/obj/wave_chart.o
                                                  build/obj/trigger_decoder.o
                                                  build/obj/trigger_structure.o
                                                  build/obj/trigger_bmw.o
                                                  build/obj/main_trigger_callback.o
                                                  build/obj/trigger_central.o
                                                  build/obj/rpm_calculator.o
                                                  build/obj/adc_lld.o
                                                  build/obj/chprintf.o
flashCompare                                      build/obj/flash.o
flashErase                                        build/obj/flash.o
                                                  build/obj/flash_main.o
flashIsErased                                     build/obj/flash.o
flashRead                                         build/obj/flash.o
                                                  build/obj/flash_main.o
flashSectorAt                                     build/obj/flash.o
flashSectorBegin                                  build/obj/flash.o
flashSectorEnd                                    build/obj/flash.o
flashSectorErase                                  build/obj/flash.o
flashSectorSize                                   build/obj/flash.o
flashStateCrc(persistent_config_container_s*)     build/obj/flash_main.o
flashWrite                                        build/obj/flash.o
                                                  build/obj/flash_main.o
ftoa                                              build/obj/chprintf.o
fuelPumpBench()                                   build/obj/injector_central.o
                                                  build/obj/lcd_controller.o
gainLookupInReverseOrder                          build/obj/hip9011_lookup.o
gen_numname                                       build/obj/ff.o
getAcToggle()                                     build/obj/allsensors.o
                                                  build/obj/fsio_impl.o
getAdcChannel(brain_pin_e)                        build/obj/adc_inputs.o
                                                  build/obj/settings.o
getAdcChannelPin(adc_channel_e)                   build/obj/adc_inputs.o
                                                  build/obj/engine_controller.o
                                                  build/obj/settings.o
                                                  build/obj/board_test.o
getAdcChannelPort(adc_channel_e)                  build/obj/adc_inputs.o
                                                  build/obj/engine_controller.o
                                                  build/obj/settings.o
                                                  build/obj/board_test.o
getAdcMode(adc_channel_e)                         build/obj/adc_inputs.o
                                                  build/obj/engine_controller.o
getAdc_channel_e(adc_channel_e)                   build/obj/auto_generated_enums.o
getAdc_channel_mode_e(adc_channel_mode_e)         build/obj/auto_generated_enums.o
getAdvance(int, float)                            build/obj/advance_map.o
                                                  build/obj/engine.o
getAfr()                                          build/obj/ego.o
                                                  build/obj/lcd_controller.o
                                                  build/obj/status_loop.o
getAir_pressure_sensor_type_e(air_pressure_sensor_type_e) build/obj/auto_generated_enums.o
                                                  build/obj/map.o
getBaroCorrection()                               build/obj/fuel_math.o
                                                  build/obj/engine.o
getBaroPressure()                                 build/obj/map.o
                                                  build/obj/lcd_controller.o
                                                  build/obj/status_loop.o
                                                  build/obj/fuel_math.o
getBaseFuel(int)                                  build/obj/fuel_math.o
                                                  build/obj/status_loop.o
getBaseTableFuel(engine_configuration_s*, int, float) build/obj/fuel_math.o
                                                  build/obj/status_loop.o
                                                  build/obj/engine.o
getBrain_pin_e(brain_pin_e)                       build/obj/auto_generated_enums.o
getCltCorrection(float)                           build/obj/fuel_math.o
                                                  build/obj/engine.o
getConfigurationName(engine_type_e)               build/obj/settings.o
                                                  build/obj/lcd_controller.o
                                                  build/obj/status_loop.o
                                                  build/obj/trigger_emulator.o
                                                  build/obj/trigger_central.o
getConsoleChannel()                               build/obj/console_io.o
                                                  build/obj/eficonsole.o
getCoolantTemperature()                           build/obj/thermistors.o
                                                  build/obj/fsio_impl.o
                                                  build/obj/engine_controller.o
                                                  build/obj/lcd_controller.o
                                                  build/obj/settings.o
                                                  build/obj/status_loop.o
                                                  build/obj/engine.o
                                                  build/obj/fuel_math.o
getCrankEventCounter()                            build/obj/trigger_central.o
                                                  build/obj/status_loop.o
getCrankingFuel()                                 build/obj/fuel_math.o
                                                  build/obj/status_loop.o
getCrankingFuel3(float, unsigned long)            build/obj/fuel_math.o
getCranking_ignition_mode_e(cranking_ignition_mode_e) build/obj/auto_generated_enums.o
getCrankshaftAngleNt(unsigned long long)          build/obj/rpm_calculator.o
                                                  build/obj/map_averaging.o
getCrankshaftRevolutionTimeMs(int)                build/obj/engine_math.o
getCurrentHD44780column                           build/obj/lcd_HD44780.o
                                                  build/obj/lcd_controller.o
getCurrentHD44780row                              build/obj/lcd_HD44780.o
getCurrentSpeed                                   build/obj/neo6m.o
getCylinderId(firing_order_e, int)                build/obj/engine_math.o
getDisplay_mode_e(display_mode_e)                 build/obj/auto_generated_enums.o
getEgo_sensor_e(ego_sensor_e)                     build/obj/auto_generated_enums.o
getEgtValue(int)                                  build/obj/max31855.o
                                                  build/obj/status_loop.o
getEngineCycle(operation_mode_e)                  build/obj/trigger_decoder.o
                                                  build/obj/trigger_structure.o
getEngineLoadT()                                  build/obj/engine_math.o
                                                  build/obj/status_loop.o
                                                  build/obj/engine.o
                                                  build/obj/accel_enrichment.o
                                                  build/obj/fuel_math.o
                                                  build/obj/main_trigger_callback.o
getEngine_load_mode_e(engine_load_mode_e)         build/obj/auto_generated_enums.o
                                                  build/obj/lcd_controller.o
                                                  build/obj/settings.o
                                                  build/obj/status_loop.o
getEngine_type_e(engine_type_e)                   build/obj/auto_generated_enums.o
getErrorCodes                                     build/obj/malfunction_central.o
                                                  build/obj/malfunction_indicator.o
getFiring_order_e(firing_order_e)                 build/obj/auto_generated_enums.o
getFirmwareError                                  build/obj/rusefi.o
getFuelMs(int)                                    build/obj/fuel_math.o
                                                  build/obj/status_loop.o
                                                  build/obj/main_trigger_callback.o
getFullLog()                                      build/obj/status_loop.o
                                                  build/obj/wave_chart.o
                                                  build/obj/sensor_chart.o
getGlobalConfigurationVersion()                   build/obj/engine_configuration.o
                                                  build/obj/LocalVersionHolder.o
                                                  build/obj/settings.o
                                                  build/obj/trigger_emulator_algo.o
getGpio_mode_e(gpio_mode_e)                       build/obj/auto_generated_enums.o
getHip9011BandIndex(float)                        build/obj/hip9011_lookup.o
                                                  build/obj/HIP9011.o
getHip9011GainIndex(float)                        build/obj/hip9011_lookup.o
                                                  build/obj/HIP9011.o
getHwPin(brain_pin_e)                             build/obj/io_pins.o
                                                  build/obj/idle_thread.o
                                                  build/obj/settings.o
                                                  build/obj/mpu_util.o
                                                  build/obj/stepper.o
                                                  build/obj/joystick.o
                                                  build/obj/HIP9011.o
                                                  build/obj/pwm_generator.o
                                                  build/obj/board_test.o
                                                  build/obj/lcd_HD44780.o
                                                  build/obj/mmc_card.o
                                                  build/obj/hardware.o
                                                  build/obj/digital_input_hw.o
                                                  build/obj/pin_repository.o
getHwPort(brain_pin_e)                            build/obj/io_pins.o
                                                  build/obj/idle_thread.o
                                                  build/obj/settings.o
                                                  build/obj/mpu_util.o
                                                  build/obj/stepper.o
                                                  build/obj/joystick.o
                                                  build/obj/HIP9011.o
                                                  build/obj/pwm_generator.o
                                                  build/obj/board_test.o
                                                  build/obj/lcd_HD44780.o
                                                  build/obj/mmc_card.o
                                                  build/obj/hardware.o
                                                  build/obj/digital_input_hw.o
                                                  build/obj/pin_repository.o
getIatCorrection(float)                           build/obj/fuel_math.o
                                                  build/obj/engine.o
getIdle_mode_e(idle_mode_e)                       build/obj/auto_generated_enums.o
                                                  build/obj/idle_thread.o
getIgnition_mode_e(ignition_mode_e)               build/obj/auto_generated_enums.o
                                                  build/obj/lcd_controller.o
                                                  build/obj/settings.o
getInjection_mode_e(injection_mode_e)             build/obj/auto_generated_enums.o
                                                  build/obj/lcd_controller.o
                                                  build/obj/settings.o
getInjectorDutyCycle(int)                         build/obj/fuel_math.o
                                                  build/obj/status_loop.o
getInjectorLag(float)                             build/obj/fuel_math.o
                                                  build/obj/engine.o
getInputCaptureChannel(brain_pin_e)               build/obj/digital_input_hw.o
getInputCaptureDriver(brain_pin_e)                build/obj/digital_input_hw.o
                                                  build/obj/trigger_input.o
getInputMode(pin_input_mode_e)                    build/obj/pin_repository.o
                                                  build/obj/fsio_impl.o
                                                  build/obj/idle_thread.o
getIntakeAirTemperature()                         build/obj/thermistors.o
                                                  build/obj/fsio_impl.o
                                                  build/obj/engine_controller.o
                                                  build/obj/lcd_controller.o
                                                  build/obj/settings.o
                                                  build/obj/status_loop.o
                                                  build/obj/engine.o
getIntegrationIndexByRpm(float)                   build/obj/hip9011_lookup.o
                                                  build/obj/HIP9011.o
getInternalAdcValue(char const*, adc_channel_e)   build/obj/adc_inputs.o
                                                  build/obj/engine_math.o
                                                  build/obj/engine_controller.o
                                                  build/obj/settings.o
                                                  build/obj/ego.o
                                                  build/obj/tps.o
                                                  build/obj/maf.o
                                                  build/obj/voltage.o
                                                  build/obj/map.o
                                                  build/obj/allsensors.o
                                                  build/obj/thermistors.o
                                                  build/obj/engine.o
                                                  build/obj/main_trigger_callback.o
getKelvinTemperature(ThermistorConf*, float, ThermistorMath*) build/obj/thermistors.o
getLEValue(Engine*, FLStack<float, 32>*, le_action_e) build/obj/fsio_impl.o
                                                  build/obj/fsio_core.o
getLog_format_e(log_format_e)                     build/obj/auto_generated_enums.o
getMaf()                                          build/obj/maf.o
                                                  build/obj/lcd_controller.o
                                                  build/obj/status_loop.o
getMap()                                          build/obj/map_averaging.o
                                                  build/obj/speed_density.o
                                                  build/obj/engine_math.o
                                                  build/obj/lcd_controller.o
                                                  build/obj/map.o
                                                  build/obj/status_loop.o
                                                  build/obj/engine.o
getMapByVoltage(float)                            build/obj/map.o
                                                  build/obj/map_averaging.o
getMapVoltage()                                   build/obj/map_averaging.o
getNeedToWriteConfiguration()                     build/obj/flash_main.o
                                                  build/obj/status_loop.o
getNextToken(char const*, char*, int)             build/obj/fsio_core.o
getOperationMode(engine_configuration_s const*)   build/obj/engine_configuration.o
getOperation_mode_e(operation_mode_e)             build/obj/auto_generated_enums.o
getPedalPosition()                                build/obj/tps.o
                                                  build/obj/status_loop.o
getPinFunction(brain_pin_e)                       build/obj/pin_repository.o
                                                  build/obj/settings.o
getPinNameByAdcChannel(adc_channel_e, char*)      build/obj/engine_controller.o
                                                  build/obj/settings.o
                                                  build/obj/HIP9011.o
                                                  build/obj/adc_inputs.o
getPin_input_mode_e(pin_input_mode_e)             build/obj/auto_generated_enums.o
getPin_output_mode_e(pin_output_mode_e)           build/obj/auto_generated_enums.o
                                                  build/obj/settings.o
                                                  build/obj/trigger_central.o
getR1InVoltageDividor(float, float, float)        build/obj/thermistors.o
getR2InVoltageDividor(float, float, float)        build/obj/thermistors.o
getRawMap()                                       build/obj/map.o
                                                  build/obj/map_averaging.o
getRealMaf()                                      build/obj/maf.o
                                                  build/obj/engine_math.o
                                                  build/obj/lcd_controller.o
                                                  build/obj/status_loop.o
                                                  build/obj/fuel_math.o
getRealMafFuel(float, int)                        build/obj/fuel_math.o
getRemainingStack                                 build/obj/mpu_util.o
                                                  build/obj/rusefi.o
                                                  build/obj/fsio_core.o
                                                  build/obj/datalogging.o
                                                  build/obj/engine_controller.o
                                                  build/obj/map_averaging.o
                                                  build/obj/console_io.o
                                                  build/obj/tunerstudio_io.o
                                                  build/obj/adc_inputs.o
                                                  build/obj/hardware.o
                                                  build/obj/SingleTimerExecutor.o
                                                  build/obj/wave_chart.o
                                                  build/obj/main_trigger_callback.o
                                                  build/obj/trigger_central.o
                                                  build/obj/rpm_calculator.o
                                                  build/obj/adc_lld.o
                                                  build/obj/chprintf.o
                                                  build/obj/chschd.o
getResistance(ThermistorConf*)                    build/obj/thermistors.o
                                                  build/obj/settings.o
getRevolutionCounter()                            build/obj/rpm_calculator.o
                                                  build/obj/map_averaging.o
                                                  build/obj/HIP9011.o
                                                  build/obj/signal_executor.o
                                                  build/obj/wave_analyzer.o
                                                  build/obj/sensor_chart.o
                                                  build/obj/main_trigger_callback.o
getRpmByAngleWindowAndTimeUs(int, float)          build/obj/hip9011_lookup.o
getRpmMultiplier(operation_mode_e)                build/obj/engine_configuration.o
                                                  build/obj/trigger_emulator_algo.o
getRunningFuel(float, int)                        build/obj/fuel_math.o
                                                  build/obj/status_loop.o
getRusEfiVersion                                  build/obj/rusefi.o
                                                  build/obj/flash_main.o
                                                  build/obj/eficonsole.o
                                                  build/obj/status_loop.o
getSparkDwellMsT(int)                             build/obj/engine_math.o
                                                  build/obj/engine.o
getSpeedDensityFuel(int)                          build/obj/speed_density.o
                                                  build/obj/fuel_math.o
getSpiDevice(spi_device_e)                        build/obj/hardware.o
                                                  build/obj/poten.o
getSpi_device_e(spi_device_e)                     build/obj/auto_generated_enums.o
getStartOfRevolutionIndex()                       build/obj/trigger_central.o
getTCharge(int, float, float, float)              build/obj/speed_density.o
                                                  build/obj/status_loop.o
                                                  build/obj/engine.o
getTPS()                                          build/obj/tps.o
                                                  build/obj/engine_math.o
                                                  build/obj/engine_controller.o
                                                  build/obj/lcd_controller.o
                                                  build/obj/electronic_throttle.o
                                                  build/obj/settings.o
                                                  build/obj/status_loop.o
                                                  build/obj/engine.o
                                                  build/obj/accel_enrichment.o
                                                  build/obj/idle_controller.o
getTPS10bitAdc()                                  build/obj/tps.o
                                                  build/obj/settings.o
                                                  build/obj/status_loop.o
getTPSVoltage()                                   build/obj/tps.o
                                                  build/obj/settings.o
getTemperatureC(ThermistorConf*, ThermistorMath*) build/obj/thermistors.o
                                                  build/obj/settings.o
getTimeNowNt                                      build/obj/engine_controller.o
                                                  build/obj/map_averaging.o
                                                  build/obj/settings.o
                                                  build/obj/map.o
                                                  build/obj/status_loop.o
                                                  build/obj/joystick.o
                                                  build/obj/vehicle_speed.o
                                                  build/obj/microsecond_timer.o
                                                  build/obj/SingleTimerExecutor.o
                                                  build/obj/pwm_generator_logic.o
                                                  build/obj/engine.o
                                                  build/obj/wave_chart.o
                                                  build/obj/trigger_decoder.o
                                                  build/obj/trigger_central.o
                                                  build/obj/rpm_calculator.o
getTimeNowSeconds                                 build/obj/engine_controller.o
                                                  build/obj/fsio_impl.o
                                                  build/obj/lcd_controller.o
                                                  build/obj/error_handling.o
                                                  build/obj/status_loop.o
getTimeNowUs                                      build/obj/engine_controller.o
                                                  build/obj/SingleTimerExecutor.o
                                                  build/obj/pwm_generator_logic.o
                                                  build/obj/engine.o
                                                  build/obj/wave_analyzer.o
                                                  build/obj/main_trigger_callback.o
getTiming_mode_e(timing_mode_e)                   build/obj/auto_generated_enums.o
                                                  build/obj/settings.o
getTpsRateOfChange()                              build/obj/tps.o
                                                  build/obj/settings.o
getTpsValue(int)                                  build/obj/tps.o
getTriggerDutyCycle(int)                          build/obj/trigger_central.o
getTrigger_event_e(trigger_event_e)               build/obj/auto_generated_enums.o
getTrigger_type_e(trigger_type_e)                 build/obj/auto_generated_enums.o
                                                  build/obj/settings.o
                                                  build/obj/trigger_central.o
getTrigger_value_e(trigger_value_e)               build/obj/auto_generated_enums.o
getTrigger_wheel_e(trigger_wheel_e)               build/obj/auto_generated_enums.o
getTsSerialDevice()                               build/obj/tunerstudio_io.o
                                                  build/obj/tunerstudio.o
getTunerStudioPageSize(int)                       build/obj/tunerstudio.o
getVBatt()                                        build/obj/voltage.o
                                                  build/obj/fsio_impl.o
                                                  build/obj/lcd_controller.o
                                                  build/obj/alternatorController.o
                                                  build/obj/status_loop.o
                                                  build/obj/engine.o
getVRef()                                         build/obj/voltage.o
getVehicleSpeed()                                 build/obj/vehicle_speed.o
                                                  build/obj/status_loop.o
                                                  build/obj/can_hw.o
getVoutInVoltageDividor(float, float, float)      build/obj/thermistors.o
getVtSizeEstimate                                 build/obj/error_handling.o
getWarninig                                       build/obj/error_handling.o
                                                  build/obj/lcd_controller.o
getWorkingPageAddr(int)                           build/obj/tunerstudio.o
get_fat                                           build/obj/ff.o
get_fattime                                       build/obj/fatfs_diskio.o
                                                  build/obj/ff.o
getinjectionOffset(int)                           build/obj/fuel_math.o
                                                  build/obj/status_loop.o
                                                  build/obj/engine.o
globalTimerCallback                               build/obj/microsecond_timer.o
                                                  build/obj/SingleTimerExecutor.o
globalVt                                          build/obj/error_handling.o
gps_convert_deg_to_dec                            build/obj/nmea.o
gps_deg_dec                                       build/obj/nmea.o
gps_location                                      build/obj/nmea.o
                                                  build/obj/neo6m.o
gptChangeInterval                                 build/obj/gpt.o
gptInit                                           build/obj/gpt.o
                                                  build/obj/hal.o
gptObjectInit                                     build/obj/gpt.o
                                                  build/obj/gpt_lld.o
gptPolledDelay                                    build/obj/gpt.o
gptStart                                          build/obj/gpt.o
                                                  build/obj/microsecond_timer.o
gptStartContinuous                                build/obj/gpt.o
gptStartContinuousI                               build/obj/gpt.o
gptStartOneShot                                   build/obj/gpt.o
gptStartOneShotI                                  build/obj/gpt.o
                                                  build/obj/microsecond_timer.o
gptStop                                           build/obj/gpt.o
gptStopTimer                                      build/obj/gpt.o
gptStopTimerI                                     build/obj/gpt.o
                                                  build/obj/microsecond_timer.o
gpt_lld_init                                      build/obj/gpt_lld.o
                                                  build/obj/gpt.o
gpt_lld_polled_delay                              build/obj/gpt_lld.o
                                                  build/obj/gpt.o
gpt_lld_start                                     build/obj/gpt_lld.o
                                                  build/obj/gpt.o
gpt_lld_start_timer                               build/obj/gpt_lld.o
                                                  build/obj/gpt.o
gpt_lld_stop                                      build/obj/gpt_lld.o
                                                  build/obj/gpt.o
gpt_lld_stop_timer                                build/obj/gpt_lld.o
                                                  build/obj/gpt.o
halInit                                           build/obj/hal.o
                                                  build/obj/main.o
halIsCounterWithin                                build/obj/hal.o
halPolledDelay                                    build/obj/hal.o
                                                  build/obj/usb_lld.o
halTime                                           build/obj/engine_controller.o
hal_lld_init                                      build/obj/hal_lld.o
                                                  build/obj/hal.o
handleActionWithParameter(TokenCallback*, char*)  build/obj/cli_registry.o
handleBurnCommand(ts_channel_s*, ts_response_format_e, unsigned short) build/obj/tunerstudio.o
handleConsoleLine                                 build/obj/cli_registry.o
                                                  build/obj/eficonsole.o
handleCrc32Check(ts_channel_s*, ts_response_format_e, unsigned short, unsigned short, unsigned short) build/obj/tunerstudio.o
handleOutputChannelsCommand(ts_channel_s*, ts_response_format_e) build/obj/tunerstudio.o
handlePageReadCommand(ts_channel_s*, ts_response_format_e, unsigned short, unsigned short, unsigned short) build/obj/tunerstudio.o
handlePageSelectCommand(ts_channel_s*, ts_response_format_e, unsigned short) build/obj/tunerstudio.o
handlePlainCommand(ts_channel_s*, unsigned char)  build/obj/tunerstudio.o
handleQueryCommand(ts_channel_s*, ts_response_format_e) build/obj/tunerstudio.o
handleTestCommand(ts_channel_s*)                  build/obj/tunerstudio.o
handleWriteChunkCommand(ts_channel_s*, ts_response_format_e, short, short, void*) build/obj/tunerstudio.o
handleWriteValueCommand(ts_channel_s*, ts_response_format_e, unsigned short, unsigned short, unsigned char) build/obj/tunerstudio.o
hasBaroSensor()                                   build/obj/map.o
                                                  build/obj/engine_controller.o
                                                  build/obj/lcd_controller.o
                                                  build/obj/status_loop.o
                                                  build/obj/fuel_math.o
hasErrorCodes                                     build/obj/malfunction_central.o
                                                  build/obj/status_loop.o
hasFirmwareErrorFlag                              build/obj/rusefi.o
                                                  build/obj/engine_controller.o
                                                  build/obj/status_loop.o
                                                  build/obj/hardware.o
                                                  build/obj/engine_emulator.o
                                                  build/obj/main_trigger_callback.o
hasMafSensor()                                    build/obj/maf.o
                                                  build/obj/engine_math.o
                                                  build/obj/engine_controller.o
                                                  build/obj/lcd_controller.o
                                                  build/obj/status_loop.o
helpCommand                                       build/obj/cli_registry.o
hex2int                                           build/obj/nmea.o
hipAdcCallback(unsigned short)                    build/obj/HIP9011.o
                                                  build/obj/hardware.o
hipLastExecutionCount                             build/obj/HIP9011.o
                                                  build/obj/trigger_central.o
hwHandleShaftSignal(trigger_event_e)              build/obj/trigger_central.o
                                                  build/obj/trigger_input.o
                                                  build/obj/trigger_emulator_algo.o
hwPortname(brain_pin_e)                           build/obj/pin_repository.o
                                                  build/obj/fsio_impl.o
                                                  build/obj/alternatorController.o
                                                  build/obj/idle_thread.o
                                                  build/obj/injector_central.o
                                                  build/obj/settings.o
                                                  build/obj/map.o
                                                  build/obj/status_loop.o
                                                  build/obj/joystick.o
                                                  build/obj/vehicle_speed.o
                                                  build/obj/HIP9011.o
                                                  build/obj/trigger_input.o
                                                  build/obj/board_test.o
                                                  build/obj/lcd_HD44780.o
                                                  build/obj/mmc_card.o
                                                  build/obj/neo6m.o
                                                  build/obj/max31855.o
                                                  build/obj/can_hw.o
                                                  build/obj/wave_analyzer.o
                                                  build/obj/trigger_central.o
hwSetTimerTime                                    build/obj/SingleTimerExecutor.o
                                                  build/obj/trigger_central.o
i2cAcquireBus                                     build/obj/i2c.o
i2cGetErrors                                      build/obj/i2c.o
i2cInit                                           build/obj/i2c.o
                                                  build/obj/hardware.o
                                                  build/obj/hal.o
i2cMasterReceiveTimeout                           build/obj/i2c.o
i2cMasterTransmitTimeout                          build/obj/i2c.o
i2cObjectInit                                     build/obj/i2c.o
                                                  build/obj/i2c_lld.o
i2cReleaseBus                                     build/obj/i2c.o
i2cStart                                          build/obj/i2c.o
                                                  build/obj/hardware.o
i2cStop                                           build/obj/i2c.o
i2c_lld_init                                      build/obj/i2c_lld.o
                                                  build/obj/i2c.o
i2c_lld_master_receive_timeout                    build/obj/i2c_lld.o
                                                  build/obj/i2c.o
i2c_lld_master_transmit_timeout                   build/obj/i2c_lld.o
                                                  build/obj/i2c.o
i2c_lld_start                                     build/obj/i2c_lld.o
                                                  build/obj/i2c.o
i2c_lld_stop                                      build/obj/i2c_lld.o
                                                  build/obj/i2c.o
icuDisable                                        build/obj/icu.o
                                                  build/obj/trigger_input.o
                                                  build/obj/digital_input_hw.o
icuEnable                                         build/obj/icu.o
                                                  build/obj/trigger_input.o
                                                  build/obj/digital_input_hw.o
icuInit                                           build/obj/icu.o
                                                  build/obj/hal.o
icuObjectInit                                     build/obj/icu.o
                                                  build/obj/icu_lld.o
icuStart                                          build/obj/icu.o
                                                  build/obj/pin_repository.o
icuStop                                           build/obj/icu.o
                                                  build/obj/trigger_input.o
                                                  build/obj/digital_input_hw.o
icu_lld_disable                                   build/obj/icu_lld.o
                                                  build/obj/icu.o
icu_lld_enable                                    build/obj/icu_lld.o
                                                  build/obj/icu.o
icu_lld_init                                      build/obj/icu_lld.o
                                                  build/obj/icu.o
icu_lld_start                                     build/obj/icu_lld.o
                                                  build/obj/icu.o
icu_lld_stop                                      build/obj/icu_lld.o
                                                  build/obj/icu.o
idleDebug(char const*, float)                     build/obj/idle_thread.o
                                                  build/obj/idle_controller.o
incrementGlobalConfigurationVersion()             build/obj/engine_configuration.o
                                                  build/obj/settings.o
                                                  build/obj/tunerstudio.o
indexOf                                           build/obj/efilib.o
                                                  build/obj/rusefi.o
                                                  build/obj/fsio_core.o
                                                  build/obj/cli_registry.o
initAccelEnrichment(Logging*)                     build/obj/accel_enrichment.o
                                                  build/obj/engine_controller.o
initAdcInputs(bool)                               build/obj/adc_inputs.o
                                                  build/obj/hardware.o
initAlgo(Logging*, engine_configuration_s*)       build/obj/algo.o
                                                  build/obj/engine_controller.o
initAlternatorCtrl(Logging*)                      build/obj/alternatorController.o
                                                  build/obj/engine_controller.o
initBoardTest()                                   build/obj/board_test.o
                                                  build/obj/hardware.o
initCan()                                         build/obj/can_hw.o
                                                  build/obj/hardware.o
initConfigActions()                               build/obj/engine_controller.o
initConsoleLogic                                  build/obj/cli_registry.o
                                                  build/obj/eficonsole.o
initDataStructures()                              build/obj/algo.o
                                                  build/obj/hardware.o
initDodgeRam(TriggerShape*)                       build/obj/trigger_chrysler.o
                                                  build/obj/trigger_decoder.o
initEgoSensor(afr_sensor_s*, ego_sensor_e)        build/obj/ego.o
                                                  build/obj/mitsubishi.o
                                                  build/obj/mazda_626.o
                                                  build/obj/GY6_139QMB.o
                                                  build/obj/mazda_miata.o
                                                  build/obj/engine_configuration.o
initElectronicThrottle()                          build/obj/electronic_throttle.o
                                                  build/obj/engine_controller.o
initEngineContoller(Logging*)                     build/obj/engine_controller.o
                                                  build/obj/rusefi.o
initEngineEmulator(Logging*, Engine*)             build/obj/engine_emulator.o
                                                  build/obj/rusefi.o
initErrorHandling                                 build/obj/error_handling.o
                                                  build/obj/rusefi.o
initFlash(Logging*)                               build/obj/flash_main.o
                                                  build/obj/hardware.o
initFsioImpl(Logging*, Engine*)                   build/obj/fsio_impl.o
                                                  build/obj/engine_controller.o
initGps                                           build/obj/neo6m.o
                                                  build/obj/hardware.o
initHardware(Logging*)                            build/obj/hardware.o
                                                  build/obj/rusefi.o
initHip9011(Logging*)                             build/obj/HIP9011.o
                                                  build/obj/hardware.o
initI2Cmodule()                                   build/obj/hardware.o
initInjectorCentral()                             build/obj/injector_central.o
                                                  build/obj/engine_controller.o
initIntermediateLoggingBuffer                     build/obj/datalogging.o
                                                  build/obj/eficonsole.o
initInterpolation(Logging*)                       build/obj/interpolation.o
                                                  build/obj/algo.o
initJoystick(Logging*)                            build/obj/joystick.o
                                                  build/obj/hardware.o
initLcdController()                               build/obj/lcd_controller.o
                                                  build/obj/engine_controller.o
initLoggingCentral()                              build/obj/loggingcentral.o
                                                  build/obj/datalogging.o
initLoggingExt                                    build/obj/datalogging.o
                                                  build/obj/wave_chart.o
initMainEventListener(Logging*, Engine*)          build/obj/main_trigger_callback.o
                                                  build/obj/engine_controller.o
initMalfunctionCentral                            build/obj/malfunction_central.o
                                                  build/obj/engine_controller.o
initMalfunctionIndicator()                        build/obj/malfunction_indicator.o
                                                  build/obj/engine_controller.o
initMapAveraging(Logging*, Engine*)               build/obj/map_averaging.o
                                                  build/obj/engine_controller.o
initMapDecoder(Logging*)                          build/obj/map.o
                                                  build/obj/allsensors.o
initMax31855(Logging*, SPIDriver*, brain_pin_e*)  build/obj/max31855.o
                                                  build/obj/hardware.o
initMicrosecondTimer                              build/obj/microsecond_timer.o
                                                  build/obj/SingleTimerExecutor.o
initMmcCard                                       build/obj/mmc_card.o
                                                  build/obj/hardware.o
initOutputPin(char const*, OutputPin*, GPIO_TypeDef*, unsigned long) build/obj/gpio_helper.o
initOutputPinExt(char const*, OutputPin*, GPIO_TypeDef*, unsigned long, unsigned long) build/obj/gpio_helper.o
                                                  build/obj/io_pins.o
initOutputPins()                                  build/obj/io_pins.o
                                                  build/obj/hardware.o
initPeriodicEvents()                              build/obj/engine_controller.o
initPinRepository()                               build/obj/pin_repository.o
                                                  build/obj/rusefi.o
initPotentiometer(Mcp42010Driver*, SPIDriver*, brain_pin_e) build/obj/poten.o
initPotentiometers(Logging*, board_configuration_s*) build/obj/poten.o
                                                  build/obj/engine_emulator.o
initPrimaryPins()                                 build/obj/io_pins.o
                                                  build/obj/hardware.o
initPwmGenerator()                                build/obj/pwm_generator.o
                                                  build/obj/engine_controller.o
initRpmCalculator(Engine*)                        build/obj/rpm_calculator.o
                                                  build/obj/engine_controller.o
initRtc()                                         build/obj/rtc_helper.o
                                                  build/obj/hardware.o
initSensorChart()                                 build/obj/sensor_chart.o
                                                  build/obj/engine_controller.o
initSensors(Logging*)                             build/obj/allsensors.o
                                                  build/obj/engine_controller.o
initSettings(engine_configuration_s*)             build/obj/settings.o
                                                  build/obj/engine_controller.o
initSignalExecutor()                              build/obj/signal_executor.o
                                                  build/obj/algo.o
initSignalExecutorImpl()                          build/obj/SingleTimerExecutor.o
                                                  build/obj/signal_executor.o
initSpeedDensity()                                build/obj/speed_density.o
                                                  build/obj/algo.o
initSpiCs                                         build/obj/mpu_util.o
                                                  build/obj/max31855.o
                                                  build/obj/poten.o
initSpiModule                                     build/obj/mpu_util.o
initStatusLoop(Engine*)                           build/obj/status_loop.o
                                                  build/obj/rusefi.o
initThermistors(Logging*)                         build/obj/thermistors.o
                                                  build/obj/allsensors.o
initTriggerCentral(Logging*, Engine*)             build/obj/trigger_central.o
                                                  build/obj/hardware.o
initTriggerDecoder()                              build/obj/trigger_decoder.o
                                                  build/obj/hardware.o
initTriggerDecoderLogger(Logging*)                build/obj/trigger_decoder.o
                                                  build/obj/hardware.o
initTriggerEmulator(Logging*, Engine*)            build/obj/trigger_emulator.o
                                                  build/obj/engine_emulator.o
initTriggerEmulatorLogic(Logging*, Engine*)       build/obj/trigger_emulator_algo.o
                                                  build/obj/trigger_emulator.o
initVehicleSpeed(Logging*)                        build/obj/vehicle_speed.o
                                                  build/obj/hardware.o
initWaveAnalyzer(Logging*)                        build/obj/wave_analyzer.o
                                                  build/obj/engine_controller.o
initWaveAnalyzerDriver(char const*, brain_pin_e)  build/obj/digital_input_hw.o
                                                  build/obj/map.o
                                                  build/obj/vehicle_speed.o
                                                  build/obj/wave_analyzer.o
initWaveChart(WaveChart*)                         build/obj/wave_chart.o
                                                  build/obj/trigger_central.o
initWboController()                               build/obj/wbo.o
                                                  build/obj/hardware.o
initializeConsole                                 build/obj/eficonsole.o
                                                  build/obj/rusefi.o
initializeIgnitionActions(float, float, ArrayList<IgnitionEvent, 80>*) build/obj/engine_math.o
                                                  build/obj/engine_configuration.o
                                                  build/obj/main_trigger_callback.o
initializeMazdaMiataNaShape(TriggerShape*)        build/obj/trigger_mazda.o
                                                  build/obj/trigger_decoder.o
initializeMazdaMiataNbShape(TriggerShape*)        build/obj/trigger_mazda.o
                                                  build/obj/trigger_decoder.o
initializeMitsubishi4g18(TriggerShape*)           build/obj/trigger_mitsubishi.o
                                                  build/obj/trigger_decoder.o
initializeSkippedToothTriggerShapeExt(TriggerShape*, int, int, operation_mode_e) build/obj/trigger_decoder.o
                                                  build/obj/trigger_structure.o
integratorValues                                  build/obj/hip9011_lookup.o
interpolate(float, float, float, float, float)    build/obj/interpolation.o
                                                  build/obj/speed_density.o
                                                  build/obj/table_helper.o
                                                  build/obj/ego.o
                                                  build/obj/tps.o
                                                  build/obj/map.o
                                                  build/obj/engine.o
interpolate2d(float, float*, float*, int)         build/obj/interpolation.o
                                                  build/obj/engine_math.o
                                                  build/obj/engine_controller.o
                                                  build/obj/idle_thread.o
                                                  build/obj/engine.o
                                                  build/obj/fuel_math.o
interpolate3d(float, float*, int, float, float*, int, float**) build/obj/interpolation.o
                                                  build/obj/status_loop.o
                                                  build/obj/engine.o
                                                  build/obj/fuel_math.o
                                                  build/obj/advance_map.o
invokeArgIntCallbacks(IntListenerArray*, int)     build/obj/listener_array.o
invokeCallbacks(IntListenerArray*, int)           build/obj/listener_array.o
invokeIntIntCallbacks(IntListenerArray*, int, int) build/obj/listener_array.o
invokeIntIntVoidCallbacks(IntListenerArray*, int, int) build/obj/listener_array.o
isBoardTestMode                                   build/obj/board_test.o
                                                  build/obj/cli_registry.o
isConsoleReady()                                  build/obj/console_io.o
                                                  build/obj/datalogging.o
                                                  build/obj/eficonsole.o
                                                  build/obj/status_loop.o
isCranking()                                      build/obj/rpm_calculator.o
                                                  build/obj/idle_controller.o
isCrankingE(Engine*)                              build/obj/rpm_calculator.o
                                                  build/obj/engine_controller.o
isIgnitionTimingError()                           build/obj/main_trigger_callback.o
                                                  build/obj/status_loop.o
isInitialized                                     build/obj/datalogging.o
isInjectionEnabled(engine_configuration_s*)       build/obj/engine_math.o
                                                  build/obj/main_trigger_callback.o
isInjectorEnabled(int)                            build/obj/injector_central.o
isInsideTriggerHandler                            build/obj/error_handling.o
                                                  build/obj/trigger_central.o
isNumeric(char const*)                            build/obj/fsio_core.o
isRunningBenchTest()                              build/obj/injector_central.o
                                                  build/obj/fsio_impl.o
                                                  build/obj/engine.o
isSameF                                           build/obj/efilib.o
                                                  build/obj/trigger_structure.o
isSdCardAlive                                     build/obj/mmc_card.o
                                                  build/obj/status_loop.o
isSerialOverUart()                                build/obj/console_io.o
                                                  build/obj/tunerstudio.o
                                                  build/obj/tunerstudio_io.o
isStep1Condition(int)                             build/obj/advance_map.o
isTriggerDecoderError()                           build/obj/trigger_decoder.o
                                                  build/obj/status_loop.o
                                                  build/obj/trigger_central.o
isValidCoolantTemperature(float)                  build/obj/thermistors.o
                                                  build/obj/engine_controller.o
                                                  build/obj/settings.o
                                                  build/obj/status_loop.o
isValidIntakeAirTemperature(float)                build/obj/thermistors.o
                                                  build/obj/engine_controller.o
                                                  build/obj/settings.o
                                                  build/obj/status_loop.o
is_usb_serial_ready                               build/obj/usbconsole.o
                                                  build/obj/console_io.o
                                                  build/obj/tunerstudio.o
itoa10                                            build/obj/efilib.o
                                                  build/obj/datalogging.o
                                                  build/obj/engine_controller.o
                                                  build/obj/rtc_helper.o
                                                  build/obj/mmc_card.o
                                                  build/obj/microsecond_timer.o
                                                  build/obj/wave_chart.o
                                                  build/obj/trigger_central.o
                                                  build/obj/rpm_calculator.o
lastDecodingErrorTime                             build/obj/trigger_decoder.o
                                                  build/obj/status_loop.o
lastEventQueueTime                                build/obj/event_queue.o
lastExecutionCount                                build/obj/SingleTimerExecutor.o
                                                  build/obj/HIP9011.o
lastLockTime                                      build/obj/error_handling.o
lastWriteActual                                   build/obj/console_io.o
lastWriteSize                                     build/obj/console_io.o
lcdShowFatalMessage                               build/obj/lcd_HD44780.o
                                                  build/obj/error_handling.o
lcd_HD44780_init                                  build/obj/lcd_HD44780.o
                                                  build/obj/hardware.o
lcd_HD44780_print_char                            build/obj/lcd_HD44780.o
                                                  build/obj/lcd_controller.o
lcd_HD44780_print_string                          build/obj/lcd_HD44780.o
                                                  build/obj/lcd_controller.o
                                                  build/obj/hardware.o
lcd_HD44780_set_position                          build/obj/lcd_HD44780.o
                                                  build/obj/lcd_controller.o
lcd_HD44780_write_command(unsigned char)          build/obj/lcd_HD44780.o
lcd_HD44780_write_data(unsigned char)             build/obj/lcd_HD44780.o
localtime_r                                       c:/progra~2/codesourcery/sourcery_codebench_lite_for_arm_eabi/bin/../lib/gcc/arm-none-eabi/4.8.1/../../../../arm-none-eabi/lib/thumb2\libc.a(lib_a-lcltime_r.o)
                                                  build/obj/chrtclib.o
lockAnyContext                                    build/obj/console_io.o
                                                  build/obj/rusefi.o
                                                  build/obj/efilib2.o
                                                  build/obj/datalogging.o
                                                  build/obj/engine_controller.o
                                                  build/obj/map_averaging.o
                                                  build/obj/SingleTimerExecutor.o
                                                  build/obj/rfiutil.o
lockOutputBuffer                                  build/obj/console_io.o
                                                  build/obj/loggingcentral.o
                                                  build/obj/wave_chart.o
lockSpi(spi_device_e)                             build/obj/hardware.o
                                                  build/obj/mmc_card.o
                                                  build/obj/poten.o
logf                                              c:/progra~2/codesourcery/sourcery_codebench_lite_for_arm_eabi/bin/../lib/gcc/arm-none-eabi/4.8.1/../../../../arm-none-eabi/lib/thumb2\libm.a(lib_a-wf_log.o)
                                                  build/obj/thermistors.o
logger                                            build/obj/interpolation.o
main                                              build/obj/main.o
                                                  build/obj/crt0.o
mainTriggerCallback(trigger_event_e, unsigned long) build/obj/main_trigger_callback.o
main_loop_started                                 build/obj/rusefi.o
                                                  build/obj/error_handling.o
                                                  build/obj/status_loop.o
mapAveragingCallback(unsigned short)              build/obj/map_averaging.o
                                                  build/obj/hardware.o
matherr                                           c:/progra~2/codesourcery/sourcery_codebench_lite_for_arm_eabi/bin/../lib/gcc/arm-none-eabi/4.8.1/../../../../arm-none-eabi/lib/thumb2\libm.a(lib_a-s_matherr.o)
                                                  c:/progra~2/codesourcery/sourcery_codebench_lite_for_arm_eabi/bin/../lib/gcc/arm-none-eabi/4.8.1/../../../../arm-none-eabi/lib/thumb2\libm.a(lib_a-wf_log.o)
maxEventQueueTime                                 build/obj/event_queue.o
                                                  build/obj/trigger_central.o
maxF                                              build/obj/efilib.o
                                                  build/obj/fsio_core.o
                                                  build/obj/idle_thread.o
                                                  build/obj/tps.o
                                                  build/obj/stepper.o
                                                  build/obj/HIP9011.o
                                                  build/obj/idle_controller.o
maxHowFarOff                                      build/obj/event_queue.o
                                                  build/obj/trigger_central.o
maxI                                              build/obj/efilib.o
                                                  build/obj/stepper.o
                                                  build/obj/event_queue.o
maxLockTime                                       build/obj/error_handling.o
                                                  build/obj/flash_main.o
                                                  build/obj/wave_chart.o
                                                  build/obj/trigger_central.o
maxNesting                                        build/obj/hardware.o
                                                  build/obj/settings.o
                                                  build/obj/chdebug.o
maxTriggerReentraint                              build/obj/trigger_central.o
memchr                                            c:/progra~2/codesourcery/sourcery_codebench_lite_for_arm_eabi/bin/../lib/gcc/arm-none-eabi/4.8.1/../../../../arm-none-eabi/lib/thumb2\libc.a(lib_a-memchr-stub.o)
                                                  c:/progra~2/codesourcery/sourcery_codebench_lite_for_arm_eabi/bin/../lib/gcc/arm-none-eabi/4.8.1/../../../../arm-none-eabi/lib/thumb2\libc.a(lib_a-strstr.o)
memcmp                                            c:/progra~2/codesourcery/sourcery_codebench_lite_for_arm_eabi/bin/../lib/gcc/arm-none-eabi/4.8.1/../../../../arm-none-eabi/lib/thumb2\libc.a(lib_a-memcmp.o)
                                                  c:/progra~2/codesourcery/sourcery_codebench_lite_for_arm_eabi/bin/../lib/gcc/arm-none-eabi/4.8.1/../../../../arm-none-eabi/lib/thumb2\libc.a(lib_a-strstr.o)
                                                  build/obj/thermistors.o
memcpy                                            c:/progra~2/codesourcery/sourcery_codebench_lite_for_arm_eabi/bin/../lib/gcc/arm-none-eabi/4.8.1/../../../../arm-none-eabi/lib/thumb2\libc.a(lib_a-memcpy-stub.o)
                                                  build/obj/rusefi.o
                                                  build/obj/fsio_impl.o
                                                  build/obj/efilib.o
                                                  build/obj/loggingcentral.o
                                                  build/obj/lcd_controller.o
                                                  build/obj/tunerstudio.o
                                                  build/obj/tunerstudio_io.o
                                                  build/obj/flash.o
                                                  build/obj/memstreams.o
memset                                            c:/progra~2/codesourcery/sourcery_codebench_lite_for_arm_eabi/bin/../lib/gcc/arm-none-eabi/4.8.1/../../../../arm-none-eabi/lib/thumb2\libc.a(lib_a-memset.o)
                                                  build/obj/speed_density.o
                                                  build/obj/engine_math.o
                                                  build/obj/fsio_core.o
                                                  build/obj/listener_array.o
                                                  build/obj/thermistors.o
                                                  build/obj/adc_inputs.o
                                                  build/obj/mmc_card.o
                                                  build/obj/neo6m.o
                                                  build/obj/digital_input_hw.o
                                                  build/obj/pwm_generator_logic.o
                                                  build/obj/engine.o
                                                  build/obj/engine_configuration.o
                                                  build/obj/accel_enrichment.o
                                                  build/obj/fuel_math.o
                                                  build/obj/advance_map.o
                                                  build/obj/trigger_decoder.o
                                                  build/obj/trigger_structure.o
                                                  build/obj/main_trigger_callback.o
                                                  build/obj/trigger_central.o
                                                  build/obj/usb.o
milBench()                                        build/obj/injector_central.o
minF                                              build/obj/efilib.o
                                                  build/obj/fsio_core.o
                                                  build/obj/idle_thread.o
                                                  build/obj/tps.o
                                                  build/obj/idle_controller.o
minI                                              build/obj/efilib.o
                                                  build/obj/electronic_throttle.o
mktime                                            c:/progra~2/codesourcery/sourcery_codebench_lite_for_arm_eabi/bin/../lib/gcc/arm-none-eabi/4.8.1/../../../../arm-none-eabi/lib/thumb2\libc.a(lib_a-mktime.o)
                                                  build/obj/chrtclib.o
mmcConnect                                        build/obj/mmc_spi.o
                                                  build/obj/mmc_card.o
mmcDisconnect                                     build/obj/mmc_spi.o
                                                  build/obj/mmc_card.o
mmcErase                                          build/obj/mmc_spi.o
mmcGetInfo                                        build/obj/mmc_spi.o
mmcInit                                           build/obj/mmc_spi.o
                                                  build/obj/hal.o
mmcObjectInit                                     build/obj/mmc_spi.o
                                                  build/obj/mmc_card.o
mmcSequentialRead                                 build/obj/mmc_spi.o
                                                  build/obj/fatfs_diskio.o
mmcSequentialWrite                                build/obj/mmc_spi.o
                                                  build/obj/fatfs_diskio.o
mmcStart                                          build/obj/mmc_spi.o
                                                  build/obj/mmc_card.o
mmcStartSequentialRead                            build/obj/mmc_spi.o
                                                  build/obj/fatfs_diskio.o
mmcStartSequentialWrite                           build/obj/mmc_spi.o
                                                  build/obj/fatfs_diskio.o
mmcStop                                           build/obj/mmc_spi.o
                                                  build/obj/mmc_card.o
mmcStopSequentialRead                             build/obj/mmc_spi.o
                                                  build/obj/fatfs_diskio.o
mmcStopSequentialWrite                            build/obj/mmc_spi.o
                                                  build/obj/fatfs_diskio.o
mmcSync                                           build/obj/mmc_spi.o
mmc_lld_is_card_inserted                          build/obj/board.o
                                                  build/obj/mmc_spi.o
mmc_lld_is_write_protected                        build/obj/board.o
                                                  build/obj/fatfs_diskio.o
                                                  build/obj/mmc_spi.o
mmcsdGetCapacity                                  build/obj/mmcsd.o
                                                  build/obj/mmc_spi.o
modf                                              c:/progra~2/codesourcery/sourcery_codebench_lite_for_arm_eabi/bin/../lib/gcc/arm-none-eabi/4.8.1/../../../../arm-none-eabi/lib/thumb2\libm.a(lib_a-s_modf.o)
                                                  build/obj/nmea.o
modp                                              build/obj/data_buffer.o
msObjectInit                                      build/obj/memstreams.o
                                                  build/obj/rusefi.o
                                                  build/obj/datalogging.o
                                                  build/obj/lcd_controller.o
                                                  build/obj/error_handling.o
                                                  build/obj/pin_repository.o
multi_wave_s::baseConstructor()                   build/obj/EfiWave.o
multi_wave_s::checkSwitchTimes(int)               build/obj/trigger_structure.o
                                                  build/obj/trigger_decoder.o
multi_wave_s::findAngleMatch(float, int) const    build/obj/trigger_structure.o
multi_wave_s::getChannelState(int, int) const     build/obj/trigger_structure.o
                                                  build/obj/trigger_decoder.o
multi_wave_s::getSwitchTime(int) const            build/obj/EfiWave.o
                                                  build/obj/pwm_generator_logic.o
                                                  build/obj/trigger_decoder.o
                                                  build/obj/trigger_structure.o
multi_wave_s::init(float*, single_wave_s*)        build/obj/EfiWave.o
                                                  build/obj/pwm_generator_logic.o
multi_wave_s::multi_wave_s()                      build/obj/EfiWave.o
multi_wave_s::multi_wave_s()                      build/obj/EfiWave.o
                                                  build/obj/pwm_generator_logic.o
multi_wave_s::multi_wave_s(float*, single_wave_s*) build/obj/EfiWave.o
multi_wave_s::multi_wave_s(float*, single_wave_s*) build/obj/EfiWave.o
                                                  build/obj/trigger_structure.o
multi_wave_s::reset()                             build/obj/EfiWave.o
                                                  build/obj/trigger_structure.o
multi_wave_s::setSwitchTime(int, float)           build/obj/trigger_structure.o
                                                  build/obj/pwm_generator_logic.o
multi_wave_s::waveIndertionAngle(float, int) const build/obj/trigger_structure.o
mySetPadMode(char const*, GPIO_TypeDef*, unsigned long, unsigned long) build/obj/pin_repository.o
                                                  build/obj/tunerstudio_io.o
                                                  build/obj/mpu_util.o
                                                  build/obj/gpio_helper.o
                                                  build/obj/adc_inputs.o
                                                  build/obj/hardware.o
                                                  build/obj/digital_input_hw.o
mySetPadMode2(char const*, brain_pin_e, unsigned long) build/obj/pin_repository.o
                                                  build/obj/fsio_impl.o
                                                  build/obj/idle_thread.o
                                                  build/obj/mpu_util.o
                                                  build/obj/stepper.o
                                                  build/obj/joystick.o
                                                  build/obj/board_test.o
                                                  build/obj/lcd_HD44780.o
                                                  build/obj/neo6m.o
                                                  build/obj/hardware.o
                                                  build/obj/can_hw.o
nan                                               c:/progra~2/codesourcery/sourcery_codebench_lite_for_arm_eabi/bin/../lib/gcc/arm-none-eabi/4.8.1/../../../../arm-none-eabi/lib/thumb2\libm.a(lib_a-s_nan.o)
                                                  c:/progra~2/codesourcery/sourcery_codebench_lite_for_arm_eabi/bin/../lib/gcc/arm-none-eabi/4.8.1/../../../../arm-none-eabi/lib/thumb2\libm.a(lib_a-wf_log.o)
needInterpolationLogging                          build/obj/interpolation.o
needToReportStatus                                build/obj/status_loop.o
nmea_get_message_type                             build/obj/nmea.o
nmea_parse_gpgga                                  build/obj/nmea.o
nmea_parse_gprmc                                  build/obj/nmea.o
nmea_valid_checksum                               build/obj/nmea.o
nvicDisableVector                                 build/obj/nvic.o
                                                  build/obj/serial_lld.o
                                                  build/obj/pwm_lld.o
                                                  build/obj/icu_lld.o
                                                  build/obj/gpt_lld.o
                                                  build/obj/i2c_lld.o
                                                  build/obj/can_lld.o
                                                  build/obj/ext_lld_isr.o
                                                  build/obj/stm32_dma.o
nvicEnableVector                                  build/obj/nvic.o
                                                  build/obj/serial_lld.o
                                                  build/obj/pwm_lld.o
                                                  build/obj/icu_lld.o
                                                  build/obj/gpt_lld.o
                                                  build/obj/usb_lld.o
                                                  build/obj/i2c_lld.o
                                                  build/obj/can_lld.o
                                                  build/obj/ext_lld_isr.o
                                                  build/obj/adc_lld.o
                                                  build/obj/stm32_dma.o
nvicSetSystemHandlerPriority                      build/obj/nvic.o
                                                  build/obj/chcore_v7m.o
obdOnCanPacketRx(CANRxFrame*)                     build/obj/obd2.o
                                                  build/obj/can_hw.o
onJoystick(joystick_button_e)                     build/obj/lcd_controller.o
                                                  build/obj/joystick.o
onLockHook()                                      build/obj/error_handling.o
onUnlockHook()                                    build/obj/error_handling.o
outputPinRegister(char const*, OutputPin*, GPIO_TypeDef*, unsigned long) build/obj/io_pins.o
                                                  build/obj/status_loop.o
                                                  build/obj/pwm_generator.o
outputPinRegisterExt2(char const*, OutputPin*, brain_pin_e, pin_output_mode_e*) build/obj/io_pins.o
                                                  build/obj/fsio_impl.o
                                                  build/obj/injector_central.o
                                                  build/obj/HIP9011.o
                                                  build/obj/trigger_emulator.o
                                                  build/obj/trigger_decoder.o
palReadBus                                        build/obj/pal.o
palSetBusMode                                     build/obj/pal.o
palWriteBus                                       build/obj/pal.o
pal_default_config                                build/obj/board.o
                                                  build/obj/hal.o
parseAction(char const*)                          build/obj/fsio_core.o
parseBrainPin(char const*)                        build/obj/pin_repository.o
                                                  build/obj/fsio_impl.o
                                                  build/obj/settings.o
persistentState                                   build/obj/engine_controller.o
                                                  build/obj/engine_math.o
                                                  build/obj/flash_main.o
                                                  build/obj/map_averaging.o
                                                  build/obj/tunerstudio.o
                                                  build/obj/trigger_input.o
                                                  build/obj/signal_executor.o
                                                  build/obj/engine_configuration.o
                                                  build/obj/fuel_math.o
                                                  build/obj/advance_map.o
                                                  build/obj/wave_analyzer.o
                                                  build/obj/trigger_structure.o
                                                  build/obj/main_trigger_callback.o
                                                  build/obj/rpm_calculator.o
pinsCount                                         build/obj/board_test.o
pokeAdcInputs()                                   build/obj/adc_inputs.o
                                                  build/obj/status_loop.o
port_halt                                         build/obj/chcore.o
                                                  build/obj/error_handling.o
                                                  build/obj/i2c_lld.o
portname(GPIO_TypeDef*)                           build/obj/pin_repository.o
                                                  build/obj/engine_controller.o
                                                  build/obj/settings.o
                                                  build/obj/tunerstudio.o
                                                  build/obj/board_test.o
                                                  build/obj/adc_inputs.o
postmortem_AFSR                                   build/obj/mpu_util.o
postmortem_BFAR                                   build/obj/mpu_util.o
postmortem_CFSR                                   build/obj/mpu_util.o
postmortem_DFSR                                   build/obj/mpu_util.o
postmortem_HFSR                                   build/obj/mpu_util.o
postmortem_MMAR                                   build/obj/mpu_util.o
postmortem_SCB_SHCSR                              build/obj/mpu_util.o
postmortem_lr                                     build/obj/mpu_util.o
postmortem_pc                                     build/obj/mpu_util.o
postmortem_psr                                    build/obj/mpu_util.o
postmortem_r0                                     build/obj/mpu_util.o
postmortem_r1                                     build/obj/mpu_util.o
postmortem_r12                                    build/obj/mpu_util.o
postmortem_r2                                     build/obj/mpu_util.o
postmortem_r3                                     build/obj/mpu_util.o
prepareFuelMap()                                  build/obj/fuel_math.o
                                                  build/obj/algo.o
prepareHip9011RpmLookup(float)                    build/obj/hip9011_lookup.o
                                                  build/obj/HIP9011.o
prepareOutputSignals()                            build/obj/engine_math.o
                                                  build/obj/engine_configuration.o
                                                  build/obj/main_trigger_callback.o
prepareShapes()                                   build/obj/engine_configuration.o
                                                  build/obj/engine_controller.o
prepareTimingMap()                                build/obj/advance_map.o
                                                  build/obj/algo.o
prepareTunerStudioOutputs()                       build/obj/status_loop.o
                                                  build/obj/tunerstudio.o
prepareVoidConfiguration(engine_configuration_s*) build/obj/engine_configuration.o
                                                  build/obj/rusefi.o
print                                             build/obj/eficonsole.o
                                                  build/obj/rusefi.o
                                                  build/obj/cli_registry.o
                                                  build/obj/injector_central.o
                                                  build/obj/error_handling.o
                                                  build/obj/electronic_throttle.o
                                                  build/obj/status_loop.o
                                                  build/obj/tunerstudio.o
                                                  build/obj/tunerstudio_io.o
                                                  build/obj/board_test.o
                                                  build/obj/adc_inputs.o
                                                  build/obj/neo6m.o
                                                  build/obj/hardware.o
                                                  build/obj/pin_repository.o
                                                  build/obj/wave_analyzer.o
                                                  build/obj/engine_emulator.o
                                                  build/obj/trigger_emulator.o
                                                  build/obj/trigger_central.o
printAllCallbacksHistogram()                      build/obj/trigger_central.o
                                                  build/obj/main_trigger_callback.o
printBoardTestState                               build/obj/board_test.o
                                                  build/obj/cli_registry.o
printConfiguration(engine_configuration_s*)       build/obj/settings.o
printDateTime()                                   build/obj/rtc_helper.o
                                                  build/obj/settings.o
printFloatArray(char const*, float*, int)         build/obj/settings.o
printHistogram(Logging*, histogram_s*)            build/obj/efilib.o
                                                  build/obj/main_trigger_callback.o
                                                  build/obj/trigger_central.o
printLine                                         build/obj/datalogging.o
                                                  build/obj/pin_repository.o
printMsg                                          build/obj/datalogging.o
                                                  build/obj/flash_main.o
                                                  build/obj/status_loop.o
                                                  build/obj/rtc_helper.o
                                                  build/obj/adc_inputs.o
                                                  build/obj/lcd_HD44780.o
                                                  build/obj/hardware.o
                                                  build/obj/wave_chart.o
                                                  build/obj/main_trigger_callback.o
printPending                                      build/obj/loggingcentral.o
                                                  build/obj/status_loop.o
printSpiState(Logging*, board_configuration_s*)   build/obj/settings.o
                                                  build/obj/HIP9011.o
                                                  build/obj/max31855.o
printTsStats()                                    build/obj/tunerstudio.o
printWave(Logging*)                               build/obj/wave_analyzer.o
                                                  build/obj/status_loop.o
printWithLength                                   build/obj/datalogging.o
                                                  build/obj/loggingcentral.o
prvGetRegistersFromStack                          build/obj/mpu_util.o
put_fat                                           build/obj/ff.o
pwmChangePeriod                                   build/obj/pwm.o
pwmDisableChannel                                 build/obj/pwm.o
pwmEnableChannel                                  build/obj/pwm.o
pwmInit                                           build/obj/pwm.o
                                                  build/obj/hal.o
pwmObjectInit                                     build/obj/pwm.o
                                                  build/obj/pwm_lld.o
pwmStart                                          build/obj/pwm.o
                                                  build/obj/adc_inputs.o
pwmStop                                           build/obj/pwm.o
pwm_lld_disable_channel                           build/obj/pwm_lld.o
                                                  build/obj/pwm.o
pwm_lld_enable_channel                            build/obj/pwm_lld.o
                                                  build/obj/pwm.o
pwm_lld_init                                      build/obj/pwm_lld.o
                                                  build/obj/pwm.o
pwm_lld_start                                     build/obj/pwm_lld.o
                                                  build/obj/pwm.o
pwm_lld_stop                                      build/obj/pwm_lld.o
                                                  build/obj/pwm.o
readFromFlash()                                   build/obj/flash_main.o
                                                  build/obj/hardware.o
registedFundamentralIoPin(char*, GPIO_TypeDef*, unsigned long, unsigned long) build/obj/pin_repository.o
remainingSize                                     build/obj/datalogging.o
                                                  build/obj/wave_chart.o
                                                  build/obj/sensor_chart.o
removeError                                       build/obj/malfunction_central.o
requestBurn()                                     build/obj/tunerstudio.o
                                                  build/obj/flash_main.o
resetConfigurationExt(Logging*, engine_type_e)    build/obj/engine_configuration.o
                                                  build/obj/flash_main.o
                                                  build/obj/settings.o
                                                  build/obj/hardware.o
resetConsoleActions                               build/obj/cli_registry.o
resetLogging                                      build/obj/datalogging.o
                                                  build/obj/loggingcentral.o
                                                  build/obj/error_handling.o
                                                  build/obj/status_loop.o
                                                  build/obj/wave_chart.o
                                                  build/obj/sensor_chart.o
rlist                                             build/obj/chschd.o
                                                  build/obj/rusefi.o
                                                  build/obj/fsio_core.o
                                                  build/obj/datalogging.o
                                                  build/obj/engine_controller.o
                                                  build/obj/alternatorController.o
                                                  build/obj/malfunction_indicator.o
                                                  build/obj/idle_thread.o
                                                  build/obj/injector_central.o
                                                  build/obj/map_averaging.o
                                                  build/obj/console_io.o
                                                  build/obj/status_loop.o
                                                  build/obj/tunerstudio.o
                                                  build/obj/tunerstudio_io.o
                                                  build/obj/stepper.o
                                                  build/obj/HIP9011.o
                                                  build/obj/board_test.o
                                                  build/obj/adc_inputs.o
                                                  build/obj/mmc_card.o
                                                  build/obj/neo6m.o
                                                  build/obj/hardware.o
                                                  build/obj/microsecond_timer.o
                                                  build/obj/can_hw.o
                                                  build/obj/SingleTimerExecutor.o
                                                  build/obj/wave_analyzer.o
                                                  build/obj/wave_chart.o
                                                  build/obj/main_trigger_callback.o
                                                  build/obj/trigger_central.o
                                                  build/obj/rpm_calculator.o
                                                  build/obj/usb_lld.o
                                                  build/obj/i2c_lld.o
                                                  build/obj/adc_lld.o
                                                  build/obj/spi.o
                                                  build/obj/adc.o
                                                  build/obj/chprintf.o
                                                  build/obj/chqueues.o
                                                  build/obj/chmsg.o
                                                  build/obj/chevents.o
                                                  build/obj/chmtx.o
                                                  build/obj/chsem.o
                                                  build/obj/chregistry.o
                                                  build/obj/chthreads.o
                                                  build/obj/chdebug.o
                                                  build/obj/chsys.o
                                                  build/obj/chcore_v7m.o
round                                             c:/progra~2/codesourcery/sourcery_codebench_lite_for_arm_eabi/bin/../lib/gcc/arm-none-eabi/4.8.1/../../../../arm-none-eabi/lib/thumb2\libm.a(lib_a-s_round.o)
                                                  build/obj/nmea.o
rpmLookup                                         build/obj/hip9011_lookup.o
rpmShaftPositionCallback(trigger_event_e, unsigned long) build/obj/rpm_calculator.o
rtcGetAlarm                                       build/obj/rtc.o
rtcGetPeriodicWakeup_v2                           build/obj/rtc_lld.o
rtcGetTime                                        build/obj/rtc.o
                                                  build/obj/chrtclib.o
rtcGetTimeFat                                     build/obj/rtc.o
                                                  build/obj/fatfs_diskio.o
rtcGetTimeTm                                      build/obj/chrtclib.o
                                                  build/obj/rtc_helper.o
rtcGetTimeUnixSec                                 build/obj/chrtclib.o
                                                  build/obj/rtc_helper.o
rtcGetTimeUnixUsec                                build/obj/chrtclib.o
rtcInit                                           build/obj/rtc.o
                                                  build/obj/hal.o
rtcSetAlarm                                       build/obj/rtc.o
rtcSetPeriodicWakeup_v2                           build/obj/rtc_lld.o
rtcSetTime                                        build/obj/rtc.o
                                                  build/obj/chrtclib.o
rtcSetTimeTm                                      build/obj/chrtclib.o
                                                  build/obj/rtc_helper.o
rtcSetTimeUnixSec                                 build/obj/chrtclib.o
                                                  build/obj/rtc_helper.o
rtc_lld_get_alarm                                 build/obj/rtc_lld.o
                                                  build/obj/rtc.o
rtc_lld_get_time                                  build/obj/rtc_lld.o
                                                  build/obj/rtc.o
rtc_lld_get_time_fat                              build/obj/rtc_lld.o
                                                  build/obj/rtc.o
rtc_lld_init                                      build/obj/rtc_lld.o
                                                  build/obj/rtc.o
rtc_lld_set_alarm                                 build/obj/rtc_lld.o
                                                  build/obj/rtc.o
rtc_lld_set_time                                  build/obj/rtc_lld.o
                                                  build/obj/rtc.o
runBinaryProtocolLoop(ts_channel_s*, bool)        build/obj/tunerstudio.o
                                                  build/obj/console_io.o
runFsio()                                         build/obj/fsio_impl.o
                                                  build/obj/engine_controller.o
runRusEfi                                         build/obj/rusefi.o
                                                  build/obj/main.o
runningPin                                        build/obj/status_loop.o
                                                  build/obj/engine_controller.o
saveTpsState(long, float)                         build/obj/tps.o
scAddData(float, float)                           build/obj/sensor_chart.o
                                                  build/obj/map_averaging.o
                                                  build/obj/rpm_calculator.o
scheduleByAngle(int, scheduling_s*, float, void (*)(void*), void*, RpmCalculator*) build/obj/rpm_calculator.o
                                                  build/obj/map_averaging.o
                                                  build/obj/HIP9011.o
scheduleByTime(char const*, scheduling_s*, unsigned long long, void (*)(void*), void*) build/obj/SingleTimerExecutor.o
                                                  build/obj/pwm_generator_logic.o
                                                  build/obj/signal_executor.o
scheduleLogging                                   build/obj/loggingcentral.o
                                                  build/obj/datalogging.o
                                                  build/obj/error_handling.o
                                                  build/obj/settings.o
                                                  build/obj/status_loop.o
                                                  build/obj/rtc_helper.o
                                                  build/obj/adc_inputs.o
                                                  build/obj/wave_chart.o
                                                  build/obj/sensor_chart.o
scheduleMsg                                       build/obj/datalogging.o
                                                  build/obj/rusefi.o
                                                  build/obj/fsio_impl.o
                                                  build/obj/interpolation.o
                                                  build/obj/cli_registry.o
                                                  build/obj/engine_controller.o
                                                  build/obj/alternatorController.o
                                                  build/obj/obd2.o
                                                  build/obj/idle_thread.o
                                                  build/obj/injector_central.o
                                                  build/obj/flash_main.o
                                                  build/obj/map_averaging.o
                                                  build/obj/electronic_throttle.o
                                                  build/obj/settings.o
                                                  build/obj/map.o
                                                  build/obj/thermistors.o
                                                  build/obj/eficonsole.o
                                                  build/obj/console_io.o
                                                  build/obj/status_loop.o
                                                  build/obj/tunerstudio.o
                                                  build/obj/tunerstudio_io.o
                                                  build/obj/rtc_helper.o
                                                  build/obj/joystick.o
                                                  build/obj/vehicle_speed.o
                                                  build/obj/HIP9011.o
                                                  build/obj/trigger_input.o
                                                  build/obj/adc_inputs.o
                                                  build/obj/lcd_HD44780.o
                                                  build/obj/mmc_card.o
                                                  build/obj/neo6m.o
                                                  build/obj/pin_repository.o
                                                  build/obj/max31855.o
                                                  build/obj/can_hw.o
                                                  build/obj/engine.o
                                                  build/obj/engine_configuration.o
                                                  build/obj/accel_enrichment.o
                                                  build/obj/wave_chart.o
                                                  build/obj/poten.o
                                                  build/obj/trigger_decoder.o
                                                  build/obj/main_trigger_callback.o
                                                  build/obj/trigger_central.o
                                                  build/obj/trigger_emulator_algo.o
scheduleOutput(OutputSignal_struct*, unsigned long long, float, float) build/obj/signal_executor.o
                                                  build/obj/main_trigger_callback.o
scheduleTask(char const*, scheduling_s*, int, void (*)(void*), void*) build/obj/SingleTimerExecutor.o
                                                  build/obj/main_trigger_callback.o
                                                  build/obj/rpm_calculator.o
scheduling_s::scheduling_s()                      build/obj/event_queue.o
scheduling_s::scheduling_s()                      build/obj/event_queue.o
                                                  build/obj/map_averaging.o
                                                  build/obj/HIP9011.o
                                                  build/obj/pwm_generator_logic.o
                                                  build/obj/event_registry.o
                                                  build/obj/rpm_calculator.o
sdIncomingDataI                                   build/obj/serial.o
                                                  build/obj/serial_lld.o
sdInit                                            build/obj/serial.o
                                                  build/obj/hal.o
sdMath(engine_configuration_s*, float, float, float, float) build/obj/speed_density.o
                                                  build/obj/status_loop.o
sdObjectInit                                      build/obj/serial.o
                                                  build/obj/serial_lld.o
sdRequestDataI                                    build/obj/serial.o
sdStart                                           build/obj/serial.o
                                                  build/obj/console_io.o
                                                  build/obj/tunerstudio_io.o
                                                  build/obj/neo6m.o
                                                  build/obj/usbconsole.o
sdStop                                            build/obj/serial.o
sd_lld_init                                       build/obj/serial_lld.o
                                                  build/obj/serial.o
sd_lld_start                                      build/obj/serial_lld.o
                                                  build/obj/serial.o
sd_lld_stop                                       build/obj/serial_lld.o
                                                  build/obj/serial.o
sduConfigureHookI                                 build/obj/serial_usb.o
                                                  build/obj/usbcfg.o
sduDataReceived                                   build/obj/serial_usb.o
                                                  build/obj/usbcfg.o
sduDataTransmitted                                build/obj/serial_usb.o
                                                  build/obj/usbcfg.o
sduInit                                           build/obj/serial_usb.o
                                                  build/obj/hal.o
sduInterruptTransmitted                           build/obj/serial_usb.o
                                                  build/obj/usbcfg.o
sduObjectInit                                     build/obj/serial_usb.o
                                                  build/obj/usbconsole.o
sduRequestsHook                                   build/obj/serial_usb.o
                                                  build/obj/usbcfg.o
sduStart                                          build/obj/serial_usb.o
                                                  build/obj/usbconsole.o
sduStop                                           build/obj/serial_usb.o
sendMessage()                                     build/obj/can_hw.o
                                                  build/obj/obd2.o
sendMessage2(int)                                 build/obj/can_hw.o
serusbcfg                                         build/obj/usbcfg.o
                                                  build/obj/usbconsole.o
setAcuraRSX(engine_configuration_s*)              build/obj/acura_rsx.o
                                                  build/obj/engine_configuration.o
setAlgorithm(engine_load_mode_e)                  build/obj/engine_math.o
                                                  build/obj/settings.o
                                                  build/obj/mazda_626.o
                                                  build/obj/honda_accord.o
                                                  build/obj/citroenBerlingoTU3JP.o
                                                  build/obj/bmw_e34.o
setAltPFactor(float)                              build/obj/alternatorController.o
                                                  build/obj/settings.o
setBmwE34()                                       build/obj/bmw_e34.o
                                                  build/obj/engine_configuration.o
setBosch0280218004(persistent_config_s*)          build/obj/maf.o
setBosch0280218037(persistent_config_s*)          build/obj/maf.o
                                                  build/obj/engine_configuration.o
setChartSize(int)                                 build/obj/wave_chart.o
setCitroenBerlingoTU3JPConfiguration()            build/obj/citroenBerlingoTU3JP.o
                                                  build/obj/engine_configuration.o
setCommonNTCSensor(ThermistorConf*)               build/obj/thermistors.o
                                                  build/obj/mitsubishi.o
                                                  build/obj/mazda_626.o
                                                  build/obj/honda_accord.o
                                                  build/obj/mazda_miata.o
                                                  build/obj/custom_engine.o
setConstantDwell(float)                           build/obj/engine_configuration.o
                                                  build/obj/test_engine.o
                                                  build/obj/ford_1995_inline_6.o
                                                  build/obj/bmw_e34.o
setCustomEngineConfiguration()                    build/obj/custom_engine.o
                                                  build/obj/vw.o
                                                  build/obj/dodge_ram.o
                                                  build/obj/mazda_626.o
                                                  build/obj/engine_configuration.o
setDateTime(char const*)                          build/obj/rtc_helper.o
                                                  build/obj/settings.o
setDefaultAlternatorParameters()                  build/obj/alternatorController.o
                                                  build/obj/engine_configuration.o
setDefaultConfiguration()                         build/obj/engine_configuration.o
setDefaultIatTimingCorrection()                   build/obj/advance_map.o
                                                  build/obj/engine_configuration.o
setDefaultVETable()                               build/obj/speed_density.o
                                                  build/obj/engine_configuration.o
setDensoTODO(persistent_config_s*)                build/obj/maf.o
                                                  build/obj/mazda_miata.o
setDiag(int)                                      build/obj/engine_emulator.o
setDodgeNeon1995EngineConfiguration()             build/obj/dodge_neon.o
                                                  build/obj/engine_configuration.o
setDodgeNeonNGCEngineConfiguration()              build/obj/dodge_neon.o
                                                  build/obj/engine_configuration.o
setDodgeRam1996()                                 build/obj/dodge_ram.o
                                                  build/obj/engine_configuration.o
setDodgeSensor(ThermistorConf*)                   build/obj/thermistors.o
                                                  build/obj/dodge_ram.o
                                                  build/obj/dodge_neon.o
setEngineType(int)                                build/obj/settings.o
setError                                          build/obj/malfunction_central.o
                                                  build/obj/engine_controller.o
setFordAspireEngineConfiguration()                build/obj/ford_aspire.o
                                                  build/obj/engine_configuration.o
setFordEscortGt()                                 build/obj/mazda_miata.o
                                                  build/obj/engine_configuration.o
setFordFiestaDefaultEngineConfiguration(engine_configuration_s*) build/obj/ford_fiesta.o
                                                  build/obj/engine_configuration.o
setFordInline6()                                  build/obj/ford_1995_inline_6.o
                                                  build/obj/engine_configuration.o
setFrankenso0_1_joystick(engine_configuration_s*) build/obj/engine_configuration.o
                                                  build/obj/subaru.o
                                                  build/obj/dodge_neon.o
                                                  build/obj/mazda_miata.o
                                                  build/obj/custom_engine.o
setFrankenso_01_LCD(board_configuration_s*)       build/obj/honda_accord.o
                                                  build/obj/subaru.o
                                                  build/obj/dodge_neon.o
                                                  build/obj/mazda_miata.o
                                                  build/obj/custom_engine.o
setFrankenstein_01_LCD(board_configuration_s*)    build/obj/rover_v8.o
                                                  build/obj/engine_configuration.o
setFsio(int, brain_pin_e, char const*)            build/obj/fsio_impl.o
                                                  build/obj/mitsubishi.o
                                                  build/obj/mazda_626.o
setFsioExt(int, brain_pin_e, char const*, int)    build/obj/fsio_impl.o
                                                  build/obj/dodge_neon.o
setFuelLoadBin(float, float)                      build/obj/engine_math.o
                                                  build/obj/mazda_626.o
                                                  build/obj/GY6_139QMB.o
                                                  build/obj/honda_accord.o
                                                  build/obj/dodge_neon.o
                                                  build/obj/citroenBerlingoTU3JP.o
                                                  build/obj/mazda_miata.o
                                                  build/obj/ford_aspire.o
                                                  build/obj/engine_configuration.o
setFuelRpmBin(float, float)                       build/obj/engine_math.o
                                                  build/obj/sachs.o
                                                  build/obj/GY6_139QMB.o
                                                  build/obj/citroenBerlingoTU3JP.o
                                                  build/obj/mazda_miata.o
                                                  build/obj/ford_aspire.o
                                                  build/obj/engine_configuration.o
setFuelTablesLoadBin(float, float)                build/obj/engine_configuration.o
setFullLog(int)                                   build/obj/status_loop.o
                                                  build/obj/engine_emulator.o
setGm2_2()                                        build/obj/gm_2_2.o
                                                  build/obj/engine_configuration.o
setGy6139qmbDefaultEngineConfiguration()          build/obj/GY6_139QMB.o
                                                  build/obj/engine_configuration.o
setHardwareUsTimer                                build/obj/microsecond_timer.o
                                                  build/obj/SingleTimerExecutor.o
setHip9011FrankensoPinout()                       build/obj/HIP9011.o
                                                  build/obj/dodge_neon.o
setHondaAccordConfigurationDip()                  build/obj/honda_accord.o
                                                  build/obj/engine_configuration.o
setHondaAccordConfigurationThreeWires()           build/obj/honda_accord.o
                                                  build/obj/engine_configuration.o
setHondaAccordConfigurationTwoWires()             build/obj/honda_accord.o
                                                  build/obj/engine_configuration.o
setLCD(board_configuration_s*)                    build/obj/citroenBerlingoTU3JP.o
setMap(float (*) [16], float)                     build/obj/engine_configuration.o
                                                  build/obj/settings.o
setMazda323EngineConfiguration(engine_configuration_s*) build/obj/mazda_323.o
                                                  build/obj/engine_configuration.o
setMazda626EngineConfiguration()                  build/obj/mazda_626.o
                                                  build/obj/engine_configuration.o
setMazdaMiataNAMaf(persistent_config_s*)          build/obj/maf.o
                                                  build/obj/mazda_miata.o
setMazdaMiataNbEngineConfiguration()              build/obj/mazda_miata_nb.o
                                                  build/obj/engine_configuration.o
setMiata1990()                                    build/obj/mazda_miata.o
                                                  build/obj/engine_configuration.o
setMiata1994_d()                                  build/obj/mazda_miata.o
                                                  build/obj/engine_configuration.o
setMiata1994_s()                                  build/obj/mazda_miata.o
                                                  build/obj/engine_configuration.o
setMiata1996()                                    build/obj/mazda_miata.o
                                                  build/obj/engine_configuration.o
setMiniCooperR50(engine_configuration_s*)         build/obj/MiniCooperR50.o
                                                  build/obj/engine_configuration.o
setMitsubishiConfiguration()                      build/obj/mitsubishi.o
                                                  build/obj/engine_configuration.o
setNeedToWriteConfiguration()                     build/obj/flash_main.o
                                                  build/obj/tunerstudio.o
setNissanPrimeraEngineConfiguration(engine_configuration_s*) build/obj/nissan_primera.o
                                                  build/obj/engine_configuration.o
setOperationMode(engine_configuration_s*, operation_mode_e) build/obj/engine_configuration.o
                                                  build/obj/vw.o
                                                  build/obj/dodge_ram.o
                                                  build/obj/gm_2_2.o
                                                  build/obj/test_engine.o
                                                  build/obj/sachs.o
                                                  build/obj/rover_v8.o
                                                  build/obj/GY6_139QMB.o
                                                  build/obj/ford_1995_inline_6.o
                                                  build/obj/ford_fiesta.o
                                                  build/obj/citroenBerlingoTU3JP.o
                                                  build/obj/bmw_e34.o
                                                  build/obj/ford_aspire.o
setPotResistance(Mcp42010Driver*, int, int)       build/obj/poten.o
setRoverv8()                                      build/obj/rover_v8.o
                                                  build/obj/engine_configuration.o
setRpmTableBin(float*, int)                       build/obj/table_helper.o
                                                  build/obj/speed_density.o
                                                  build/obj/engine_configuration.o
setSachs()                                        build/obj/sachs.o
                                                  build/obj/engine_configuration.o
setSaturnIonEngineConfiguration                   build/obj/saturn_ion.o
                                                  build/obj/engine_configuration.o
setSingleCoilDwell(engine_configuration_s*)       build/obj/engine_math.o
                                                  build/obj/mazda_miata.o
                                                  build/obj/ford_aspire.o
setSubaru2003Wrx()                                build/obj/subaru.o
                                                  build/obj/engine_configuration.o
setTableBin(float*, int, float, float)            build/obj/table_helper.o
                                                  build/obj/engine_math.o
setTableBin2(float*, int, float, float, float)    build/obj/table_helper.o
                                                  build/obj/speed_density.o
                                                  build/obj/sachs.o
                                                  build/obj/engine_configuration.o
                                                  build/obj/advance_map.o
setTableValue(float*, float*, int, float, float)  build/obj/interpolation.o
                                                  build/obj/engine_configuration.o
setTestEngineConfiguration()                      build/obj/test_engine.o
                                                  build/obj/engine_configuration.o
setThermistorConfiguration(ThermistorConf*, float, float, float, float, float, float) build/obj/thermistors.o
                                                  build/obj/mazda_626.o
                                                  build/obj/mazda_miata_nb.o
                                                  build/obj/ford_1995_inline_6.o
                                                  build/obj/dodge_neon.o
                                                  build/obj/citroenBerlingoTU3JP.o
                                                  build/obj/bmw_e34.o
                                                  build/obj/ford_aspire.o
                                                  build/obj/engine_configuration.o
setTimingLoadBin(float, float)                    build/obj/engine_math.o
                                                  build/obj/GY6_139QMB.o
                                                  build/obj/dodge_neon.o
                                                  build/obj/ford_aspire.o
                                                  build/obj/engine_configuration.o
setTimingMap(float (*) [16], float)               build/obj/engine_configuration.o
setTimingRpmBin(float, float)                     build/obj/engine_math.o
                                                  build/obj/sachs.o
                                                  build/obj/GY6_139QMB.o
                                                  build/obj/citroenBerlingoTU3JP.o
                                                  build/obj/ford_aspire.o
                                                  build/obj/engine_configuration.o
setToothedWheelConfiguration(TriggerShape*, int, int, operation_mode_e) build/obj/trigger_structure.o
                                                  build/obj/settings.o
                                                  build/obj/trigger_decoder.o
setTriggerEmulatorRPM(int, Engine*)               build/obj/trigger_emulator_algo.o
                                                  build/obj/engine_emulator.o
setTxBit(int, int)                                build/obj/can_hw.o
                                                  build/obj/obd2.o
setVwAba()                                        build/obj/vw.o
                                                  build/obj/engine_configuration.o
setWholeFuelMap(float)                            build/obj/engine_configuration.o
                                                  build/obj/settings.o
                                                  build/obj/dodge_ram.o
                                                  build/obj/mitsubishi.o
                                                  build/obj/mazda_626.o
                                                  build/obj/rover_v8.o
                                                  build/obj/mazda_miata_nb.o
                                                  build/obj/dodge_neon.o
                                                  build/obj/mazda_miata.o
setWholeIatCorrTimingTable(float)                 build/obj/engine_configuration.o
                                                  build/obj/test_engine.o
setWholeTimingTable(float)                        build/obj/engine_configuration.o
                                                  build/obj/dodge_ram.o
                                                  build/obj/mazda_626.o
                                                  build/obj/dodge_neon.o
                                                  build/obj/mazda_miata.o
                                                  build/obj/bmw_e34.o
showAltInfo()                                     build/obj/alternatorController.o
                                                  build/obj/settings.o
showMainHistogram                                 build/obj/main_trigger_callback.o
showWaveChartHistogram()                          build/obj/wave_chart.o
                                                  build/obj/main_trigger_callback.o
single_wave_s::init(signed char*)                 build/obj/EfiWave.o
                                                  build/obj/pwm_generator_logic.o
                                                  build/obj/trigger_structure.o
single_wave_s::single_wave_s()                    build/obj/EfiWave.o
single_wave_s::single_wave_s()                    build/obj/EfiWave.o
                                                  build/obj/pwm_generator_logic.o
                                                  build/obj/trigger_structure.o
single_wave_s::single_wave_s(signed char*)        build/obj/EfiWave.o
                                                  build/obj/trigger_emulator_algo.o
single_wave_s::single_wave_s(signed char*)        build/obj/EfiWave.o
skipUntilEngineCycle                              build/obj/wave_chart.o
slowAdc                                           build/obj/adc_inputs.o
                                                  build/obj/board_test.o
spiAcquireBus                                     build/obj/spi.o
spiExchange                                       build/obj/spi.o
                                                  build/obj/HIP9011.o
spiIgnore                                         build/obj/spi.o
                                                  build/obj/mmc_spi.o
spiInit                                           build/obj/spi.o
                                                  build/obj/hal.o
spiObjectInit                                     build/obj/spi.o
                                                  build/obj/spi_lld.o
spiReceive                                        build/obj/spi.o
                                                  build/obj/max31855.o
                                                  build/obj/mmc_spi.o
spiReleaseBus                                     build/obj/spi.o
spiSelect                                         build/obj/spi.o
                                                  build/obj/HIP9011.o
                                                  build/obj/max31855.o
                                                  build/obj/poten.o
                                                  build/obj/mmc_spi.o
spiSend                                           build/obj/spi.o
                                                  build/obj/poten.o
                                                  build/obj/mmc_spi.o
spiStart                                          build/obj/spi.o
                                                  build/obj/HIP9011.o
                                                  build/obj/max31855.o
                                                  build/obj/poten.o
                                                  build/obj/mmc_spi.o
spiStartExchange                                  build/obj/spi.o
spiStartIgnore                                    build/obj/spi.o
spiStartReceive                                   build/obj/spi.o
spiStartSend                                      build/obj/spi.o
spiStop                                           build/obj/spi.o
                                                  build/obj/HIP9011.o
                                                  build/obj/max31855.o
                                                  build/obj/poten.o
                                                  build/obj/mmc_spi.o
spiUnselect                                       build/obj/spi.o
                                                  build/obj/HIP9011.o
                                                  build/obj/max31855.o
                                                  build/obj/poten.o
                                                  build/obj/mmc_spi.o
spi_lld_exchange                                  build/obj/spi_lld.o
                                                  build/obj/HIP9011.o
                                                  build/obj/spi.o
spi_lld_ignore                                    build/obj/spi_lld.o
                                                  build/obj/spi.o
spi_lld_init                                      build/obj/spi_lld.o
                                                  build/obj/spi.o
spi_lld_polled_exchange                           build/obj/spi_lld.o
spi_lld_receive                                   build/obj/spi_lld.o
                                                  build/obj/spi.o
spi_lld_select                                    build/obj/spi_lld.o
                                                  build/obj/HIP9011.o
                                                  build/obj/spi.o
spi_lld_send                                      build/obj/spi_lld.o
                                                  build/obj/spi.o
spi_lld_start                                     build/obj/spi_lld.o
                                                  build/obj/spi.o
spi_lld_stop                                      build/obj/spi_lld.o
                                                  build/obj/spi.o
spi_lld_unselect                                  build/obj/spi_lld.o
                                                  build/obj/HIP9011.o
                                                  build/obj/spi.o
startConsole(Logging*, void (*)(char*))           build/obj/console_io.o
                                                  build/obj/eficonsole.o
startEmulator()                                   build/obj/engine_emulator.o
startIdleThread(Logging*, Engine*)                build/obj/idle_thread.o
                                                  build/obj/engine_controller.o
startIgnitionPins()                               build/obj/injector_central.o
                                                  build/obj/hardware.o
startInjectionPins()                              build/obj/injector_central.o
                                                  build/obj/hardware.o
startInputDriver(digital_input_s*, bool)          build/obj/digital_input_hw.o
                                                  build/obj/map.o
                                                  build/obj/vehicle_speed.o
                                                  build/obj/wave_analyzer.o
startSimplePwm(PwmConfig*, char const*, OutputPin*, float, float, void (*)(PwmConfig*, int)) build/obj/pwm_generator.o
startSimplePwmExt(PwmConfig*, char const*, brain_pin_e, OutputPin*, float, float, void (*)(PwmConfig*, int)) build/obj/pwm_generator.o
                                                  build/obj/fsio_impl.o
                                                  build/obj/alternatorController.o
                                                  build/obj/idle_thread.o
                                                  build/obj/electronic_throttle.o
startStatusThreads(Engine*)                       build/obj/status_loop.o
                                                  build/obj/rusefi.o
startTsPort()                                     build/obj/tunerstudio_io.o
                                                  build/obj/tunerstudio.o
startTunerStudioConnectivity()                    build/obj/tunerstudio.o
                                                  build/obj/engine_controller.o
startsWith                                        build/obj/efilib.o
stm32_clock_init                                  build/obj/hal_lld.o
                                                  build/obj/board.o
stopEngine()                                      build/obj/settings.o
                                                  build/obj/lcd_controller.o
stopIgnitionPins()                                build/obj/injector_central.o
                                                  build/obj/hardware.o
stopInjectionPins()                               build/obj/injector_central.o
                                                  build/obj/hardware.o
stopTriggerInputPins()                            build/obj/trigger_input.o
str2int                                           build/obj/nmea.o
strEqual                                          build/obj/efilib.o
                                                  build/obj/cli_registry.o
                                                  build/obj/settings.o
                                                  build/obj/pin_repository.o
strEqualCaseInsensitive                           build/obj/efilib.o
                                                  build/obj/fsio_core.o
                                                  build/obj/settings.o
str_till_comma                                    build/obj/nmea.o
strchr                                            c:/progra~2/codesourcery/sourcery_codebench_lite_for_arm_eabi/bin/../lib/gcc/arm-none-eabi/4.8.1/../../../../arm-none-eabi/lib/thumb2\libc.a(lib_a-strchr.o)
                                                  c:/progra~2/codesourcery/sourcery_codebench_lite_for_arm_eabi/bin/../lib/gcc/arm-none-eabi/4.8.1/../../../../arm-none-eabi/lib/thumb2\libc.a(lib_a-strstr.o)
                                                  c:/progra~2/codesourcery/sourcery_codebench_lite_for_arm_eabi/bin/../lib/gcc/arm-none-eabi/4.8.1/../../../../arm-none-eabi/lib/thumb2\libc.a(lib_a-strrchr.o)
                                                  build/obj/nmea.o
strcpy                                            c:/progra~2/codesourcery/sourcery_codebench_lite_for_arm_eabi/bin/../lib/gcc/arm-none-eabi/4.8.1/../../../../arm-none-eabi/lib/thumb2\libc.a(lib_a-strcpy.o)
                                                  build/obj/rusefi.o
                                                  build/obj/fsio_impl.o
                                                  build/obj/cli_registry.o
                                                  build/obj/datalogging.o
                                                  build/obj/engine_controller.o
                                                  build/obj/mmc_card.o
strlen                                            c:/progra~2/codesourcery/sourcery_codebench_lite_for_arm_eabi/bin/../lib/gcc/arm-none-eabi/4.8.1/../../../../arm-none-eabi/lib/thumb2\libc.a(lib_a-strlen.o)
                                                  build/obj/fsio_impl.o
                                                  build/obj/fsio_core.o
                                                  build/obj/efilib.o
                                                  build/obj/cli_registry.o
                                                  build/obj/datalogging.o
                                                  build/obj/mmc_card.o
                                                  build/obj/nmea.o
strncmp                                           c:/progra~2/codesourcery/sourcery_codebench_lite_for_arm_eabi/bin/../lib/gcc/arm-none-eabi/4.8.1/../../../../arm-none-eabi/lib/thumb2\libc.a(lib_a-strncmp.o)
                                                  build/obj/cli_registry.o
                                                  build/obj/mmc_card.o
strncpy                                           c:/progra~2/codesourcery/sourcery_codebench_lite_for_arm_eabi/bin/../lib/gcc/arm-none-eabi/4.8.1/../../../../arm-none-eabi/lib/thumb2\libc.a(lib_a-strncpy.o)
                                                  build/obj/rusefi.o
                                                  build/obj/fsio_core.o
                                                  build/obj/cli_registry.o
                                                  build/obj/eficonsole.o
strrchr                                           c:/progra~2/codesourcery/sourcery_codebench_lite_for_arm_eabi/bin/../lib/gcc/arm-none-eabi/4.8.1/../../../../arm-none-eabi/lib/thumb2\libc.a(lib_a-strrchr.o)
                                                  build/obj/nmea.o
strstr                                            c:/progra~2/codesourcery/sourcery_codebench_lite_for_arm_eabi/bin/../lib/gcc/arm-none-eabi/4.8.1/../../../../arm-none-eabi/lib/thumb2\libc.a(lib_a-strstr.o)
                                                  build/obj/nmea.o
swapOutputBuffers(int*)                           build/obj/loggingcentral.o
                                                  build/obj/tunerstudio.o
swo_init()                                        build/obj/rusefi.o
syncTunerStudioCopy()                             build/obj/tunerstudio.o
                                                  build/obj/engine_configuration.o
sysPool                                           build/obj/fsio_impl.o
tokenLength                                       build/obj/cli_registry.o
tpsFastAdc                                        build/obj/tps.o
                                                  build/obj/hardware.o
triggerCentral                                    build/obj/trigger_central.o
                                                  build/obj/status_loop.o
triggerDuration                                   build/obj/trigger_central.o
triggerHanlderEntryTime                           build/obj/trigger_central.o
triggerInfo()                                     build/obj/trigger_central.o
                                                  build/obj/engine.o
triggerMaxDuration                                build/obj/trigger_central.o
triggerReentraint                                 build/obj/trigger_central.o
triggerSignal                                     build/obj/trigger_emulator_algo.o
                                                  build/obj/trigger_emulator.o
                                                  build/obj/trigger_central.o
trigger_shape_helper::trigger_shape_helper()      build/obj/trigger_structure.o
trigger_shape_helper::trigger_shape_helper()      build/obj/trigger_structure.o
tsChannel                                         build/obj/tunerstudio.o
tsLogger                                          build/obj/tunerstudio.o
                                                  build/obj/tunerstudio_io.o
tsOutputChannels                                  build/obj/tunerstudio.o
                                                  build/obj/status_loop.o
tsSendResponse(ts_channel_s*, ts_response_format_e, unsigned char const*, int) build/obj/tunerstudio_io.o
                                                  build/obj/tunerstudio.o
tsState                                           build/obj/tunerstudio.o
tunerStudioDebug(char const*)                     build/obj/tunerstudio.o
tunerStudioError(char const*)                     build/obj/tunerstudio.o
tunerStudioHandleCrcCommand(ts_channel_s*, char*, int) build/obj/tunerstudio.o
tunerStudioWriteCrcPacket(ts_channel_s*, unsigned char, void const*, unsigned short) build/obj/tunerstudio_io.o
                                                  build/obj/tunerstudio.o
tunerStudioWriteData(ts_channel_s*, unsigned char const*, int) build/obj/tunerstudio_io.o
                                                  build/obj/tunerstudio.o
turnAllPinsOff()                                  build/obj/io_pins.o
                                                  build/obj/rusefi.o
                                                  build/obj/error_handling.o
turnOnCapturePin(char const*, brain_pin_e)        build/obj/digital_input_hw.o
                                                  build/obj/trigger_input.o
turnOnHardware(Logging*)                          build/obj/hardware.o
turnOnSpi(spi_device_e)                           build/obj/mpu_util.o
                                                  build/obj/hardware.o
                                                  build/obj/poten.o
turnOnTriggerInputPins(Logging*)                  build/obj/trigger_input.o
                                                  build/obj/hardware.o
turnPinHigh(NamedOutputPin*)                      build/obj/signal_executor.o
                                                  build/obj/map_averaging.o
                                                  build/obj/HIP9011.o
                                                  build/obj/main_trigger_callback.o
turnPinLow(NamedOutputPin*)                       build/obj/signal_executor.o
                                                  build/obj/map_averaging.o
                                                  build/obj/HIP9011.o
                                                  build/obj/main_trigger_callback.o
txmsg                                             build/obj/can_hw.o
                                                  build/obj/obd2.o
unlockAnyContext                                  build/obj/console_io.o
                                                  build/obj/rusefi.o
                                                  build/obj/efilib2.o
                                                  build/obj/datalogging.o
                                                  build/obj/engine_controller.o
                                                  build/obj/SingleTimerExecutor.o
                                                  build/obj/rfiutil.o
unlockOutputBuffer                                build/obj/console_io.o
                                                  build/obj/loggingcentral.o
                                                  build/obj/wave_chart.o
unlockSpi()                                       build/obj/hardware.o
                                                  build/obj/mmc_card.o
                                                  build/obj/poten.o
unmarkPin(brain_pin_e)                            build/obj/pin_repository.o
                                                  build/obj/injector_central.o
                                                  build/obj/trigger_input.o
unquote                                           build/obj/cli_registry.o
                                                  build/obj/fsio_impl.o
updateAndSet(State64*, unsigned long)             build/obj/efilib2.o
                                                  build/obj/engine_controller.o
updateDevConsoleState(Engine*)                    build/obj/status_loop.o
                                                  build/obj/rusefi.o
updateHD44780lcd(Engine*)                         build/obj/lcd_controller.o
                                                  build/obj/status_loop.o
updateTunerStudioState(TunerStudioOutputChannels*) build/obj/status_loop.o
usbDisableEndpointsI                              build/obj/usb.o
usbInit                                           build/obj/usb.o
                                                  build/obj/hal.o
usbInitEndpointI                                  build/obj/usb.o
                                                  build/obj/usbcfg.o
usbObjectInit                                     build/obj/usb.o
                                                  build/obj/usb_lld.o
usbPrepareQueuedReceive                           build/obj/usb.o
                                                  build/obj/serial_usb.o
usbPrepareQueuedTransmit                          build/obj/usb.o
                                                  build/obj/serial_usb.o
usbPrepareReceive                                 build/obj/usb.o
usbPrepareTransmit                                build/obj/usb.o
usbStallReceiveI                                  build/obj/usb.o
usbStallTransmitI                                 build/obj/usb.o
usbStart                                          build/obj/usb.o
                                                  build/obj/usbconsole.o
usbStartReceiveI                                  build/obj/usb.o
                                                  build/obj/serial_usb.o
usbStartTransmitI                                 build/obj/usb.o
                                                  build/obj/serial_usb.o
usbStop                                           build/obj/usb.o
usb_lld_clear_in                                  build/obj/usb_lld.o
                                                  build/obj/usb.o
usb_lld_clear_out                                 build/obj/usb_lld.o
                                                  build/obj/usb.o
usb_lld_disable_endpoints                         build/obj/usb_lld.o
                                                  build/obj/usb.o
usb_lld_get_status_in                             build/obj/usb_lld.o
                                                  build/obj/usb.o
usb_lld_get_status_out                            build/obj/usb_lld.o
                                                  build/obj/usb.o
usb_lld_init                                      build/obj/usb_lld.o
                                                  build/obj/usb.o
usb_lld_init_endpoint                             build/obj/usb_lld.o
                                                  build/obj/usb.o
usb_lld_prepare_receive                           build/obj/usb_lld.o
                                                  build/obj/usb.o
usb_lld_prepare_transmit                          build/obj/usb_lld.o
                                                  build/obj/usb.o
usb_lld_read_setup                                build/obj/usb_lld.o
                                                  build/obj/usb.o
usb_lld_reset                                     build/obj/usb_lld.o
                                                  build/obj/usb.o
usb_lld_set_address                               build/obj/usb_lld.o
                                                  build/obj/usb.o
usb_lld_stall_in                                  build/obj/usb_lld.o
                                                  build/obj/usb.o
usb_lld_stall_out                                 build/obj/usb_lld.o
                                                  build/obj/usb.o
usb_lld_start                                     build/obj/usb_lld.o
                                                  build/obj/usb.o
usb_lld_start_in                                  build/obj/usb_lld.o
                                                  build/obj/usb.o
usb_lld_start_out                                 build/obj/usb_lld.o
                                                  build/obj/usb.o
usb_lld_stop                                      build/obj/usb_lld.o
                                                  build/obj/usb.o
usb_serial_start                                  build/obj/usbconsole.o
                                                  build/obj/console_io.o
                                                  build/obj/tunerstudio_io.o
usbcfg                                            build/obj/usbcfg.o
                                                  build/obj/usbconsole.o
userPool                                          build/obj/fsio_impl.o
validateSecureLine                                build/obj/cli_registry.o
vappendPrintf                                     build/obj/datalogging.o
ve2Map                                            build/obj/speed_density.o
veMap                                             build/obj/speed_density.o
                                                  build/obj/status_loop.o
                                                  build/obj/engine.o
vtlist                                            build/obj/chvt.o
                                                  build/obj/engine_controller.o
                                                  build/obj/error_handling.o
                                                  build/obj/chthreads.o
                                                  build/obj/chdebug.o
                                                  build/obj/chsys.o
warning                                           build/obj/error_handling.o
                                                  build/obj/speed_density.o
                                                  build/obj/engine_math.o
                                                  build/obj/fsio_impl.o
                                                  build/obj/interpolation.o
                                                  build/obj/fsio_core.o
                                                  build/obj/datalogging.o
                                                  build/obj/tps.o
                                                  build/obj/thermistors.o
                                                  build/obj/adc_inputs.o
                                                  build/obj/mmc_card.o
                                                  build/obj/can_hw.o
                                                  build/obj/event_queue.o
                                                  build/obj/signal_executor.o
                                                  build/obj/engine.o
                                                  build/obj/fuel_math.o
                                                  build/obj/advance_map.o
                                                  build/obj/trigger_decoder.o
                                                  build/obj/main_trigger_callback.o
                                                  build/obj/trigger_central.o
warningEnabled                                    build/obj/status_loop.o
                                                  build/obj/error_handling.o
warningPin                                        build/obj/status_loop.o
waveChart                                         build/obj/trigger_central.o
                                                  build/obj/settings.o
                                                  build/obj/signal_executor.o
                                                  build/obj/wave_analyzer.o
                                                  build/obj/rpm_calculator.o
                                                  build/obj/trigger_emulator_algo.o
waveChartUsedSize                                 build/obj/wave_chart.o
                                                  build/obj/settings.o
writeLogLine()                                    build/obj/status_loop.o
                                                  build/obj/mmc_card.o
writeToFlashIfPending()                           build/obj/flash_main.o
                                                  build/obj/engine_controller.o
writeToFlashNow()                                 build/obj/flash_main.o
                                                  build/obj/settings.o
                                                  build/obj/hardware.o
yellowMagic(int, int, int)                        build/obj/tunerstudio.o
