///////////////////////////////////////////////////////////////////////////////
//                                                                            /
// IAR ANSI C/C++ Compiler V6.50.3.4676/W32 for ARM     30/Jun/2015  23:09:09 /
// Copyright 1999-2013 IAR Systems AB.                                        /
//                                                                            /
//    Cpu mode        =  thumb                                                /
//    Endian          =  little                                               /
//    Source file     =  F:\stuff\rusefi_sourceforge\firmware\config\engines\ /
//                       dodge_neon.cpp                                       /
//    Command line    =  F:\stuff\rusefi_sourceforge\firmware\config\engines\ /
//                       dodge_neon.cpp -lCN F:\stuff\rusefi_sourceforge\firm /
//                       ware\iar\Debug\List\ -lA F:\stuff\rusefi_sourceforge /
//                       \firmware\iar\Debug\List\ -o                         /
//                       F:\stuff\rusefi_sourceforge\firmware\iar\Debug\Obj\  /
//                       --no_cse --no_unroll --no_inline --no_code_motion    /
//                       --no_tbaa --no_clustering --no_scheduling --debug    /
//                       --endian=little --cpu=Cortex-M4 -e --fpu=VFPv4_sp    /
//                       --dlib_config "C:\Program Files (x86)\IAR            /
//                       Systems\Embedded Workbench                           /
//                       6.5\arm\INC\c\DLib_Config_Normal.h"                  /
//                       --misrac2004=1.2-1.4,2.3,3.4,4.2,6.5-7,8.2-8.3,9.3,  /
//                       12.3,13.6-13,15.5,17.3,19.17,20.7-20.9,20.11 -I      /
//                       F:\stuff\rusefi_sourceforge\firmware\iar\..\ -I      /
//                       F:\stuff\rusefi_sourceforge\firmware\iar\..\chibios\ /
//                       os\kernel\include\ -I F:\stuff\rusefi_sourceforge\fi /
//                       rmware\iar\..\chibios\os\ports\common\ARMCMx\ -I     /
//                       F:\stuff\rusefi_sourceforge\firmware\iar\..\chibios\ /
//                       os\ports\common\ARMCMx\CMSIS\include\ -I             /
//                       F:\stuff\rusefi_sourceforge\firmware\iar\..\chibios\ /
//                       os\ports\IAR\ARMCMx\ -I F:\stuff\rusefi_sourceforge\ /
//                       firmware\iar\..\chibios\os\ports\IAR\ARMCMx\STM32F4x /
//                       x\ -I F:\stuff\rusefi_sourceforge\firmware\iar\..\ch /
//                       ibios\os\hal\include\ -I F:\stuff\rusefi_sourceforge /
//                       \firmware\iar\..\chibios\os\hal\platforms\STM32\ -I  /
//                       F:\stuff\rusefi_sourceforge\firmware\iar\..\chibios\ /
//                       os\hal\platforms\STM32\DMAv1\ -I                     /
//                       F:\stuff\rusefi_sourceforge\firmware\iar\..\chibios\ /
//                       os\hal\platforms\STM32\GPIOv2\ -I                    /
//                       F:\stuff\rusefi_sourceforge\firmware\iar\..\chibios\ /
//                       os\hal\platforms\STM32\I2Cv1\ -I                     /
//                       F:\stuff\rusefi_sourceforge\firmware\iar\..\chibios\ /
//                       os\hal\platforms\STM32\SPIv1\ -I                     /
//                       F:\stuff\rusefi_sourceforge\firmware\iar\..\chibios\ /
//                       os\hal\platforms\STM32\TIMv1\ -I                     /
//                       F:\stuff\rusefi_sourceforge\firmware\iar\..\chibios\ /
//                       os\hal\platforms\STM32\RTCv2\ -I                     /
//                       F:\stuff\rusefi_sourceforge\firmware\iar\..\chibios\ /
//                       os\hal\platforms\STM32\USARTv1\ -I                   /
//                       F:\stuff\rusefi_sourceforge\firmware\iar\..\chibios\ /
//                       os\hal\platforms\STM32\OTGv1\ -I                     /
//                       F:\stuff\rusefi_sourceforge\firmware\iar\..\chibios\ /
//                       os\hal\platforms\STM32F4xx\ -I                       /
//                       F:\stuff\rusefi_sourceforge\firmware\iar\..\chibios\ /
//                       os\various\ -I F:\stuff\rusefi_sourceforge\firmware\ /
//                       iar\..\chibios\os\various\devices_lib\accel\ -I      /
//                       F:\stuff\rusefi_sourceforge\firmware\iar\..\chibios\ /
//                       boards\ST_STM32F4_DISCOVERY\ -I                      /
//                       F:\stuff\rusefi_sourceforge\firmware\iar\..\controll /
//                       ers\ -I F:\stuff\rusefi_sourceforge\firmware\iar\..\ /
//                       controllers\algo\ -I F:\stuff\rusefi_sourceforge\fir /
//                       mware\iar\..\controllers\core\ -I                    /
//                       F:\stuff\rusefi_sourceforge\firmware\iar\..\controll /
//                       ers\system\ -I F:\stuff\rusefi_sourceforge\firmware\ /
//                       iar\..\controllers\sensors\ -I                       /
//                       F:\stuff\rusefi_sourceforge\firmware\iar\..\controll /
//                       ers\math\ -I F:\stuff\rusefi_sourceforge\firmware\ia /
//                       r\..\controllers\trigger\ -I                         /
//                       F:\stuff\rusefi_sourceforge\firmware\iar\..\console\ /
//                        -I F:\stuff\rusefi_sourceforge\firmware\iar\..\conf /
//                       ig\ -I F:\stuff\rusefi_sourceforge\firmware\iar\..\c /
//                       onfig\engines\ -I F:\stuff\rusefi_sourceforge\firmwa /
//                       re\iar\..\config\stm32f4ems\ -I                      /
//                       F:\stuff\rusefi_sourceforge\firmware\iar\..\console\ /
//                       binary\ -I F:\stuff\rusefi_sourceforge\firmware\iar\ /
//                       ..\console_util\ -I F:\stuff\rusefi_sourceforge\firm /
//                       ware\iar\..\development\ -I                          /
//                       F:\stuff\rusefi_sourceforge\firmware\iar\..\developm /
//                       ent\test\ -I F:\stuff\rusefi_sourceforge\firmware\ia /
//                       r\..\development\hw_layer\ -I                        /
//                       F:\stuff\rusefi_sourceforge\firmware\iar\..\hw_layer /
//                       \algo\ -I F:\stuff\rusefi_sourceforge\firmware\iar\. /
//                       .\hw_layer\lcd\ -I F:\stuff\rusefi_sourceforge\firmw /
//                       are\iar\..\hw_layer\stm32f4\ -I                      /
//                       F:\stuff\rusefi_sourceforge\firmware\iar\..\hw_layer /
//                       \serial_over_usb\ -I F:\stuff\rusefi_sourceforge\fir /
//                       mware\iar\..\hw_layer\ -I                            /
//                       F:\stuff\rusefi_sourceforge\firmware\iar\..\ext\ -I  /
//                       F:\stuff\rusefi_sourceforge\firmware\iar\..\ext_algo /
//                       \ -I F:\stuff\rusefi_sourceforge\firmware\iar\..\dev /
//                       elopment\ -I F:\stuff\rusefi_sourceforge\firmware\ia /
//                       r\..\development\hw_layer\ -I                        /
//                       F:\stuff\rusefi_sourceforge\firmware\iar\..\util\    /
//                       -On --eec++                                          /
//    MISRA C version =  2004                                                 /
//      Enabled       =  1.2-1.4 2.3 3.4 4.2 6.5 7 8.2 8.3 9.3 12.3 13.6      /
//                       13.7 15.5 17.3 19.17 20.7-20.9 20.11                 /
//      Checked       =  1.4 2.3 4.2 6.5 7 8.2 8.3 9.3 12.3 13.7 15.5         /
//                       20.7-20.9 20.11                                      /
//      Not checked   =  1.1-1.3 1.5-2.2 2.4-4.1 5-6.4 8.1 8.4-9.2 10-12.2    /
//                       12.4-13.6 14-15.4 16-20.6 20.10 20.12 21             /
//    List file       =  F:\stuff\rusefi_sourceforge\firmware\iar\Debug\List\ /
//                       dodge_neon.s                                         /
//                                                                            /
//                                                                            /
///////////////////////////////////////////////////////////////////////////////

        NAME dodge_neon

        RTMODEL "__CPP_Language", "EC++"
        RTMODEL "__SystemLibrary", "DLib"
        AAPCS BASE,INTERWORK,VFP
        PRESERVE8
        REQUIRE8

        #define SHT_PROGBITS 0x1

        EXTERN _Z10setFsioExti11brain_pin_ePKci
        EXTERN _Z13copyFuelTablePA16_KfPA16_f
        EXTERN _Z14setDodgeSensorP14ThermistorConf
        EXTERN _Z14setFuelLoadBinff
        EXTERN _Z15copyTimingTablePA16_KfPA16_f
        EXTERN _Z15setWholeFuelMapf
        EXTERN _Z16setTimingLoadBinff
        EXTERN _Z19setFrankenso_01_LCDP21board_configuration_s
        EXTERN _Z19setWholeTimingTablef
        EXTERN _Z24setFrankenso0_1_joystickP22engine_configuration_s
        EXTERN _Z25setHip9011FrankensoPinoutv
        EXTERN _Z26setThermistorConfigurationP14ThermistorConfffffff
        EXTERN _Z27commonFrankensoAnalogInputsP22engine_configuration_s
        EXTERN boardConfiguration
        EXTERN config
        EXTERN engineConfiguration

        PUBLIC _Z34setDodgeNeonNGCEngineConfigurationv
        PUBLIC _Z35setDodgeNeon1995EngineConfigurationv
        
          CFI Names cfiNames0
          CFI StackFrame CFA R13 DATA
          CFI Resource R0:32, R1:32, R2:32, R3:32, R4:32, R5:32, R6:32, R7:32
          CFI Resource R8:32, R9:32, R10:32, R11:32, R12:32, R13:32, R14:32
          CFI Resource D0:64, D1:64, D2:64, D3:64, D4:64, D5:64, D6:64, D7:64
          CFI Resource D8:64, D9:64, D10:64, D11:64, D12:64, D13:64, D14:64
          CFI Resource D15:64
          CFI EndNames cfiNames0
        
          CFI Common cfiCommon0 Using cfiNames0
          CFI CodeAlign 2
          CFI DataAlign 4
          CFI ReturnAddress R14 CODE
          CFI CFA R13+0
          CFI R0 Undefined
          CFI R1 Undefined
          CFI R2 Undefined
          CFI R3 Undefined
          CFI R4 SameValue
          CFI R5 SameValue
          CFI R6 SameValue
          CFI R7 SameValue
          CFI R8 SameValue
          CFI R9 SameValue
          CFI R10 SameValue
          CFI R11 SameValue
          CFI R12 Undefined
          CFI R14 SameValue
          CFI D0 Undefined
          CFI D1 Undefined
          CFI D2 Undefined
          CFI D3 Undefined
          CFI D4 Undefined
          CFI D5 Undefined
          CFI D6 Undefined
          CFI D7 Undefined
          CFI D8 SameValue
          CFI D9 SameValue
          CFI D10 SameValue
          CFI D11 SameValue
          CFI D12 SameValue
          CFI D13 SameValue
          CFI D14 SameValue
          CFI D15 SameValue
          CFI EndCommon cfiCommon0
        

        SECTION `.rodata`:CONST:REORDER:NOROOT(2)
`?<Constant "0 fsio_setting">`:
        DATA
        DC8 "0 fsio_setting"
        DC8 0
// F:\stuff\rusefi_sourceforge\firmware\config\engines\dodge_neon.cpp
//    1 /**
//    2  * @file	dodge_neon.cpp
//    3  *
//    4  * DODGE_NEON_1995 = 2
//    5  *
//    6  * DODGE_NEON_2003 = 23
//    7  * set_engine_type 23
//    8  *
//    9  * This config overrides some values of the default configuration which is set by setDefaultConfiguration() method
//   10  *
//   11  * @date Dec 16, 2013
//   12  * @author Andrey Belomutskiy, (c) 2012-2015
//   13  */
//   14 
//   15 #include "main.h"
//   16 
//   17 #if EFI_SUPPORT_DODGE_NEON || defined(__DOXYGEN__)
//   18 
//   19 #include "dodge_neon.h"
//   20 #include "engine_configuration.h"
//   21 #include "thermistors.h"
//   22 #include "engine_math.h"
//   23 #include "fsio_impl.h"
//   24 #include "allsensors.h"
//   25 #if EFI_PROD_CODE
//   26 #include "HIP9011.h"
//   27 #endif
//   28 
//   29 // setFrankenso_01_LCD
//   30 #include "honda_accord.h"
//   31 
//   32 #define xxxxx 12
//   33 

        SECTION `.rodata`:CONST:REORDER:NOROOT(2)
//   34 static const fuel_table_t alphaNfuel = {
alphaNfuel:
        DATA
        DC32 406CCCCDH, 40666666H, 40666666H, 40800000H, 40800000H, 40800000H
        DC32 40C00000H, 41400000H, 41400000H, 41400000H, 41400000H, 41400000H
        DC32 41400000H, 41400000H, 41400000H, 41400000H, 40800000H, 40800000H
        DC32 40800000H, 40A00000H, 40900000H, 40900000H, 40A00000H, 41400000H
        DC32 41400000H, 41400000H, 41400000H, 41400000H, 41400000H, 41400000H
        DC32 41400000H, 41400000H, 40A00000H, 40A00000H, 40C00000H, 40E00000H
        DC32 40900000H, 41400000H, 41400000H, 41400000H, 41400000H, 41400000H
        DC32 41400000H, 41400000H, 41400000H, 41400000H, 41400000H, 41400000H
        DC32 40C00000H, 40E00000H, 40E00000H, 40E00000H, 40A00000H, 41400000H
        DC32 41400000H, 41400000H, 41400000H, 41400000H, 41400000H, 41400000H
        DC32 41400000H, 41400000H, 41400000H, 41400000H, 40E00000H, 41000000H
        DC32 41000000H, 41000000H, 41400000H, 41400000H, 41400000H, 41400000H
        DC32 41400000H, 41400000H, 41400000H, 41400000H, 41400000H, 41400000H
        DC32 41400000H, 41400000H, 41400000H, 41400000H, 41400000H, 41400000H
        DC32 41400000H, 41400000H, 41400000H, 41400000H, 41400000H, 41400000H
        DC32 41400000H, 41400000H, 41400000H, 41400000H, 41400000H, 41400000H
        DC32 41400000H, 41400000H, 41400000H, 41400000H, 41400000H, 41400000H
        DC32 41400000H, 41400000H, 41400000H, 41400000H, 41400000H, 41400000H
        DC32 41400000H, 41400000H, 41400000H, 41400000H, 41400000H, 41400000H
        DC32 41400000H, 41400000H, 41400000H, 41400000H, 41400000H, 41400000H
        DC32 41400000H, 41400000H, 41400000H, 41400000H, 41400000H, 41400000H
        DC32 41400000H, 41400000H, 41400000H, 41400000H, 41400000H, 41400000H
        DC32 41400000H, 41400000H, 41400000H, 41400000H, 41400000H, 41400000H
        DC32 41400000H, 41400000H, 41400000H, 41400000H, 41400000H, 41400000H
        DC32 41400000H, 41400000H, 41400000H, 41400000H, 41400000H, 41400000H
        DC32 41400000H, 41400000H, 41400000H, 41400000H, 41400000H, 41400000H
        DC32 41400000H, 41400000H, 41400000H, 41400000H, 41400000H, 41400000H
        DC32 41400000H, 41400000H, 41400000H, 41400000H, 41400000H, 41400000H
        DC32 41400000H, 41400000H, 41400000H, 41400000H, 41400000H, 41400000H
        DC32 41400000H, 41400000H, 41400000H, 41400000H, 41400000H, 41400000H
        DC32 41400000H, 41400000H, 41400000H, 41400000H, 41400000H, 41400000H
        DC32 41400000H, 41400000H, 41400000H, 41400000H, 41400000H, 41400000H
        DC32 41400000H, 41400000H, 41400000H, 41400000H, 41400000H, 41400000H
        DC32 41400000H, 41400000H, 41400000H, 41400000H, 41400000H, 41400000H
        DC32 41400000H, 41400000H, 41400000H, 41400000H, 41400000H, 41400000H
        DC32 41400000H, 41400000H, 41400000H, 41400000H, 41400000H, 41400000H
        DC32 41400000H, 41400000H, 41400000H, 41400000H, 41400000H, 41400000H
        DC32 41400000H, 41400000H, 41400000H, 41400000H, 41400000H, 41400000H
        DC32 41400000H, 41400000H, 41400000H, 41400000H, 41400000H, 41400000H
        DC32 41400000H, 41400000H, 41400000H, 41400000H, 41400000H, 41400000H
        DC32 41400000H, 41400000H, 41400000H, 41400000H, 41400000H, 41400000H
        DC32 41400000H, 41400000H, 41400000H, 41400000H, 41400000H, 41400000H
        DC32 41400000H, 41400000H, 41400000H, 41400000H
//   35 		{/*0  engineLoad=0.00*/   /*0 800.0*/003.7, /*1 1213.0*/003.6, /*2 1626.0*/003.6, /*3 2040.0*/004.0, /*4 2453.0*/004.0, /*5 2866.0*/004.0, /*6 3280.0*/006.0, /*7 3693.0*/xxxxx, /*8 4106.0*/xxxxx, /*9 4520.0*/xxxxx, /*10 4933.0*/xxxxx, /*11 5346.0*/xxxxx, /*12 5760.0*/xxxxx, /*13 6173.0*/xxxxx, /*14 6586.0*/xxxxx, /*15 7000.0*/xxxxx},
//   36 		{/*1  engineLoad=6.66*/   /*0 800.0*/004.0, /*1 1213.0*/004.0, /*2 1626.0*/004.0, /*3 2040.0*/005.0, /*4 2453.0*/004.5, /*5 2866.0*/004.5, /*6 3280.0*/005.0, /*7 3693.0*/xxxxx, /*8 4106.0*/xxxxx, /*9 4520.0*/xxxxx, /*10 4933.0*/xxxxx, /*11 5346.0*/xxxxx, /*12 5760.0*/xxxxx, /*13 6173.0*/xxxxx, /*14 6586.0*/xxxxx, /*15 7000.0*/xxxxx},
//   37 		{/*2  engineLoad=13.33*/  /*0 800.0*/005.0, /*1 1213.0*/005.0, /*2 1626.0*/006.0, /*3 2040.0*/007.0, /*4 2453.0*/004.5, /*5 2866.0*/xxxxx, /*6 3280.0*/xxxxx, /*7 3693.0*/xxxxx, /*8 4106.0*/xxxxx, /*9 4520.0*/xxxxx, /*10 4933.0*/xxxxx, /*11 5346.0*/xxxxx, /*12 5760.0*/xxxxx, /*13 6173.0*/xxxxx, /*14 6586.0*/xxxxx, /*15 7000.0*/xxxxx},
//   38 		{/*3  engineLoad=20.00*/  /*0 800.0*/006.0, /*1 1213.0*/007.0, /*2 1626.0*/007.0, /*3 2040.0*/007.0, /*4 2453.0*/005.0, /*5 2866.0*/xxxxx, /*6 3280.0*/xxxxx, /*7 3693.0*/xxxxx, /*8 4106.0*/xxxxx, /*9 4520.0*/xxxxx, /*10 4933.0*/xxxxx, /*11 5346.0*/xxxxx, /*12 5760.0*/xxxxx, /*13 6173.0*/xxxxx, /*14 6586.0*/xxxxx, /*15 7000.0*/xxxxx},
//   39 		{/*4  engineLoad=26.66*/  /*0 800.0*/007.0, /*1 1213.0*/008.0, /*2 1626.0*/008.0, /*3 2040.0*/008.0, /*4 2453.0*/xxxxx, /*5 2866.0*/xxxxx, /*6 3280.0*/xxxxx, /*7 3693.0*/xxxxx, /*8 4106.0*/xxxxx, /*9 4520.0*/xxxxx, /*10 4933.0*/xxxxx, /*11 5346.0*/xxxxx, /*12 5760.0*/xxxxx, /*13 6173.0*/xxxxx, /*14 6586.0*/xxxxx, /*15 7000.0*/xxxxx},
//   40 		{/*5  engineLoad=33.33*/  /*0 800.0*/xxxxx, /*1 1213.0*/xxxxx, /*2 1626.0*/xxxxx, /*3 2040.0*/xxxxx, /*4 2453.0*/xxxxx, /*5 2866.0*/xxxxx, /*6 3280.0*/xxxxx, /*7 3693.0*/xxxxx, /*8 4106.0*/xxxxx, /*9 4520.0*/xxxxx, /*10 4933.0*/xxxxx, /*11 5346.0*/xxxxx, /*12 5760.0*/xxxxx, /*13 6173.0*/xxxxx, /*14 6586.0*/xxxxx, /*15 7000.0*/xxxxx},
//   41 		{/*6  engineLoad=40.00*/  /*0 800.0*/xxxxx, /*1 1213.0*/xxxxx, /*2 1626.0*/xxxxx, /*3 2040.0*/xxxxx, /*4 2453.0*/xxxxx, /*5 2866.0*/xxxxx, /*6 3280.0*/xxxxx, /*7 3693.0*/xxxxx, /*8 4106.0*/xxxxx, /*9 4520.0*/xxxxx, /*10 4933.0*/xxxxx, /*11 5346.0*/xxxxx, /*12 5760.0*/xxxxx, /*13 6173.0*/xxxxx, /*14 6586.0*/xxxxx, /*15 7000.0*/xxxxx},
//   42 		{/*7  engineLoad=46.66*/  /*0 800.0*/xxxxx, /*1 1213.0*/xxxxx, /*2 1626.0*/xxxxx, /*3 2040.0*/xxxxx, /*4 2453.0*/xxxxx, /*5 2866.0*/xxxxx, /*6 3280.0*/xxxxx, /*7 3693.0*/xxxxx, /*8 4106.0*/xxxxx, /*9 4520.0*/xxxxx, /*10 4933.0*/xxxxx, /*11 5346.0*/xxxxx, /*12 5760.0*/xxxxx, /*13 6173.0*/xxxxx, /*14 6586.0*/xxxxx, /*15 7000.0*/xxxxx},
//   43 		{/*8  engineLoad=53.33*/  /*0 800.0*/xxxxx, /*1 1213.0*/xxxxx, /*2 1626.0*/xxxxx, /*3 2040.0*/xxxxx, /*4 2453.0*/xxxxx, /*5 2866.0*/xxxxx, /*6 3280.0*/xxxxx, /*7 3693.0*/xxxxx, /*8 4106.0*/xxxxx, /*9 4520.0*/xxxxx, /*10 4933.0*/xxxxx, /*11 5346.0*/xxxxx, /*12 5760.0*/xxxxx, /*13 6173.0*/xxxxx, /*14 6586.0*/xxxxx, /*15 7000.0*/xxxxx},
//   44 		{/*9  engineLoad=60.00*/  /*0 800.0*/xxxxx, /*1 1213.0*/xxxxx, /*2 1626.0*/xxxxx, /*3 2040.0*/xxxxx, /*4 2453.0*/xxxxx, /*5 2866.0*/xxxxx, /*6 3280.0*/xxxxx, /*7 3693.0*/xxxxx, /*8 4106.0*/xxxxx, /*9 4520.0*/xxxxx, /*10 4933.0*/xxxxx, /*11 5346.0*/xxxxx, /*12 5760.0*/xxxxx, /*13 6173.0*/xxxxx, /*14 6586.0*/xxxxx, /*15 7000.0*/xxxxx},
//   45 		{/*10 engineLoad=66.66*/  /*0 800.0*/xxxxx, /*1 1213.0*/xxxxx, /*2 1626.0*/xxxxx, /*3 2040.0*/xxxxx, /*4 2453.0*/xxxxx, /*5 2866.0*/xxxxx, /*6 3280.0*/xxxxx, /*7 3693.0*/xxxxx, /*8 4106.0*/xxxxx, /*9 4520.0*/xxxxx, /*10 4933.0*/xxxxx, /*11 5346.0*/xxxxx, /*12 5760.0*/xxxxx, /*13 6173.0*/xxxxx, /*14 6586.0*/xxxxx, /*15 7000.0*/xxxxx},
//   46 		{/*11 engineLoad=73.33*/  /*0 800.0*/xxxxx, /*1 1213.0*/xxxxx, /*2 1626.0*/xxxxx, /*3 2040.0*/xxxxx, /*4 2453.0*/xxxxx, /*5 2866.0*/xxxxx, /*6 3280.0*/xxxxx, /*7 3693.0*/xxxxx, /*8 4106.0*/xxxxx, /*9 4520.0*/xxxxx, /*10 4933.0*/xxxxx, /*11 5346.0*/xxxxx, /*12 5760.0*/xxxxx, /*13 6173.0*/xxxxx, /*14 6586.0*/xxxxx, /*15 7000.0*/xxxxx},
//   47 		{/*12 engineLoad=80.00*/  /*0 800.0*/xxxxx, /*1 1213.0*/xxxxx, /*2 1626.0*/xxxxx, /*3 2040.0*/xxxxx, /*4 2453.0*/xxxxx, /*5 2866.0*/xxxxx, /*6 3280.0*/xxxxx, /*7 3693.0*/xxxxx, /*8 4106.0*/xxxxx, /*9 4520.0*/xxxxx, /*10 4933.0*/xxxxx, /*11 5346.0*/xxxxx, /*12 5760.0*/xxxxx, /*13 6173.0*/xxxxx, /*14 6586.0*/xxxxx, /*15 7000.0*/xxxxx},
//   48 		{/*13 engineLoad=86.66*/  /*0 800.0*/xxxxx, /*1 1213.0*/xxxxx, /*2 1626.0*/xxxxx, /*3 2040.0*/xxxxx, /*4 2453.0*/xxxxx, /*5 2866.0*/xxxxx, /*6 3280.0*/xxxxx, /*7 3693.0*/xxxxx, /*8 4106.0*/xxxxx, /*9 4520.0*/xxxxx, /*10 4933.0*/xxxxx, /*11 5346.0*/xxxxx, /*12 5760.0*/xxxxx, /*13 6173.0*/xxxxx, /*14 6586.0*/xxxxx, /*15 7000.0*/xxxxx},
//   49 		{/*14 engineLoad=93.33*/  /*0 800.0*/xxxxx, /*1 1213.0*/xxxxx, /*2 1626.0*/xxxxx, /*3 2040.0*/xxxxx, /*4 2453.0*/xxxxx, /*5 2866.0*/xxxxx, /*6 3280.0*/xxxxx, /*7 3693.0*/xxxxx, /*8 4106.0*/xxxxx, /*9 4520.0*/xxxxx, /*10 4933.0*/xxxxx, /*11 5346.0*/xxxxx, /*12 5760.0*/xxxxx, /*13 6173.0*/xxxxx, /*14 6586.0*/xxxxx, /*15 7000.0*/xxxxx},
//   50 		{/*15 engineLoad=100.00*/ /*0 800.0*/xxxxx, /*1 1213.0*/xxxxx, /*2 1626.0*/xxxxx, /*3 2040.0*/xxxxx, /*4 2453.0*/xxxxx, /*5 2866.0*/xxxxx, /*6 3280.0*/xxxxx, /*7 3693.0*/xxxxx, /*8 4106.0*/xxxxx, /*9 4520.0*/xxxxx, /*10 4933.0*/xxxxx, /*11 5346.0*/xxxxx, /*12 5760.0*/xxxxx, /*13 6173.0*/xxxxx, /*14 6586.0*/xxxxx, /*15 7000.0*/xxxxx}
//   51 		};
//   52 
//   53 //static const ignition_table_t fromDyno = {
//   54 //		{/* 0 0.000	*//* 0 800.0*/12.000,	/* 1 1213.3281*/12.000,	/* 2 1626.6562*/12.000,	/* 3 2040.0*/26.000,	/* 4 2453.3438*/29.000,	/* 5 2866.6562*/31.000,	/* 6 3280.0*/31.000,	/* 7 3693.3438*/38.000,	/* 8 4106.6875*/40.000,	/* 9 4520.0*/40.000,	/* 10 4933.3125*/40.000,	/* 11 5346.6875*/42.000,	/* 12 5760.0*/42.000,	/* 13 6173.3125*/42.000,	/* 14 6586.6875*/42.000,	/* 15 7000.0*/42.000,	},
//   55 //		{/* 1 6.660	*//* 0 800.0*/12.000,	/* 1 1213.3281*/12.000,	/* 2 1626.6562*/12.000,	/* 3 2040.0*/26.000,	/* 4 2453.3438*/29.000,	/* 5 2866.6562*/31.000,	/* 6 3280.0*/31.000,	/* 7 3693.3438*/38.000,	/* 8 4106.6875*/40.000,	/* 9 4520.0*/40.000,	/* 10 4933.3125*/40.000,	/* 11 5346.6875*/42.000,	/* 12 5760.0*/42.000,	/* 13 6173.3125*/42.000,	/* 14 6586.6875*/42.000,	/* 15 7000.0*/42.000,	},
//   56 //		{/* 2 13.330	*//* 0 800.0*/12.000,	/* 1 1213.3281*/12.000,	/* 2 1626.6562*/12.000,	/* 3 2040.0*/26.000,	/* 4 2453.3438*/29.000,	/* 5 2866.6562*/31.000,	/* 6 3280.0*/31.000,	/* 7 3693.3438*/38.000,	/* 8 4106.6875*/40.000,	/* 9 4520.0*/40.000,	/* 10 4933.3125*/40.000,	/* 11 5346.6875*/42.000,	/* 12 5760.0*/42.000,	/* 13 6173.3125*/42.000,	/* 14 6586.6875*/42.000,	/* 15 7000.0*/42.000,	},
//   57 //		{/* 3 20.000	*//* 0 800.0*/12.000,	/* 1 1213.3281*/12.000,	/* 2 1626.6562*/12.000,	/* 3 2040.0*/26.000,	/* 4 2453.3438*/29.000,	/* 5 2866.6562*/31.000,	/* 6 3280.0*/31.000,	/* 7 3693.3438*/38.000,	/* 8 4106.6875*/40.000,	/* 9 4520.0*/40.000,	/* 10 4933.3125*/40.000,	/* 11 5346.6875*/42.000,	/* 12 5760.0*/42.000,	/* 13 6173.3125*/42.000,	/* 14 6586.6875*/42.000,	/* 15 7000.0*/42.000,	},
//   58 //		{/* 4 26.660	*//* 0 800.0*/12.000,	/* 1 1213.3281*/12.000,	/* 2 1626.6562*/12.000,	/* 3 2040.0*/26.000,	/* 4 2453.3438*/29.000,	/* 5 2866.6562*/31.000,	/* 6 3280.0*/31.000,	/* 7 3693.3438*/38.000,	/* 8 4106.6875*/40.000,	/* 9 4520.0*/40.000,	/* 10 4933.3125*/40.000,	/* 11 5346.6875*/42.000,	/* 12 5760.0*/42.000,	/* 13 6173.3125*/42.000,	/* 14 6586.6875*/42.000,	/* 15 7000.0*/42.000,	},
//   59 //		{/* 5 33.330	*//* 0 800.0*/12.000,	/* 1 1213.3281*/12.000,	/* 2 1626.6562*/12.000,	/* 3 2040.0*/26.000,	/* 4 2453.3438*/29.000,	/* 5 2866.6562*/31.000,	/* 6 3280.0*/31.000,	/* 7 3693.3438*/38.000,	/* 8 4106.6875*/40.000,	/* 9 4520.0*/40.000,	/* 10 4933.3125*/40.000,	/* 11 5346.6875*/42.000,	/* 12 5760.0*/42.000,	/* 13 6173.3125*/42.000,	/* 14 6586.6875*/42.000,	/* 15 7000.0*/42.000,	},
//   60 //		{/* 6 40.000	*//* 0 800.0*/12.000,	/* 1 1213.3281*/12.000,	/* 2 1626.6562*/12.000,	/* 3 2040.0*/26.000,	/* 4 2453.3438*/29.000,	/* 5 2866.6562*/31.000,	/* 6 3280.0*/31.000,	/* 7 3693.3438*/38.000,	/* 8 4106.6875*/40.000,	/* 9 4520.0*/40.000,	/* 10 4933.3125*/40.000,	/* 11 5346.6875*/42.000,	/* 12 5760.0*/42.000,	/* 13 6173.3125*/42.000,	/* 14 6586.6875*/42.000,	/* 15 7000.0*/42.000,	},
//   61 //		{/* 7 46.660	*//* 0 800.0*/12.000,	/* 1 1213.3281*/12.000,	/* 2 1626.6562*/12.000,	/* 3 2040.0*/26.000,	/* 4 2453.3438*/29.000,	/* 5 2866.6562*/31.000,	/* 6 3280.0*/31.000,	/* 7 3693.3438*/38.000,	/* 8 4106.6875*/40.000,	/* 9 4520.0*/40.000,	/* 10 4933.3125*/40.000,	/* 11 5346.6875*/42.000,	/* 12 5760.0*/42.000,	/* 13 6173.3125*/42.000,	/* 14 6586.6875*/42.000,	/* 15 7000.0*/42.000,	},
//   62 //		{/* 8 53.330	*//* 0 800.0*/12.000,	/* 1 1213.3281*/12.000,	/* 2 1626.6562*/12.000,	/* 3 2040.0*/26.000,	/* 4 2453.3438*/29.000,	/* 5 2866.6562*/31.000,	/* 6 3280.0*/31.000,	/* 7 3693.3438*/38.000,	/* 8 4106.6875*/40.000,	/* 9 4520.0*/40.000,	/* 10 4933.3125*/40.000,	/* 11 5346.6875*/42.000,	/* 12 5760.0*/42.000,	/* 13 6173.3125*/42.000,	/* 14 6586.6875*/42.000,	/* 15 7000.0*/42.000,	},
//   63 //		{/* 9 60.000	*//* 0 800.0*/12.000,	/* 1 1213.3281*/12.000,	/* 2 1626.6562*/12.000,	/* 3 2040.0*/26.000,	/* 4 2453.3438*/29.000,	/* 5 2866.6562*/31.000,	/* 6 3280.0*/31.000,	/* 7 3693.3438*/38.000,	/* 8 4106.6875*/40.000,	/* 9 4520.0*/40.000,	/* 10 4933.3125*/40.000,	/* 11 5346.6875*/42.000,	/* 12 5760.0*/42.000,	/* 13 6173.3125*/42.000,	/* 14 6586.6875*/42.000,	/* 15 7000.0*/42.000,	},
//   64 //		{/* 10 66.660	*//* 0 800.0*/12.000,	/* 1 1213.3281*/12.000,	/* 2 1626.6562*/12.000,	/* 3 2040.0*/26.000,	/* 4 2453.3438*/29.000,	/* 5 2866.6562*/31.000,	/* 6 3280.0*/31.000,	/* 7 3693.3438*/38.000,	/* 8 4106.6875*/40.000,	/* 9 4520.0*/40.000,	/* 10 4933.3125*/40.000,	/* 11 5346.6875*/42.000,	/* 12 5760.0*/42.000,	/* 13 6173.3125*/42.000,	/* 14 6586.6875*/42.000,	/* 15 7000.0*/42.000,	},
//   65 //		{/* 11 73.330	*//* 0 800.0*/12.000,	/* 1 1213.3281*/12.000,	/* 2 1626.6562*/12.000,	/* 3 2040.0*/26.000,	/* 4 2453.3438*/29.000,	/* 5 2866.6562*/31.000,	/* 6 3280.0*/31.000,	/* 7 3693.3438*/38.000,	/* 8 4106.6875*/40.000,	/* 9 4520.0*/40.000,	/* 10 4933.3125*/40.000,	/* 11 5346.6875*/42.000,	/* 12 5760.0*/42.000,	/* 13 6173.3125*/42.000,	/* 14 6586.6875*/42.000,	/* 15 7000.0*/42.000,	},
//   66 //		{/* 12 80.000	*//* 0 800.0*/12.000,	/* 1 1213.3281*/12.000,	/* 2 1626.6562*/12.000,	/* 3 2040.0*/26.000,	/* 4 2453.3438*/29.000,	/* 5 2866.6562*/31.000,	/* 6 3280.0*/31.000,	/* 7 3693.3438*/38.000,	/* 8 4106.6875*/40.000,	/* 9 4520.0*/40.000,	/* 10 4933.3125*/40.000,	/* 11 5346.6875*/42.000,	/* 12 5760.0*/42.000,	/* 13 6173.3125*/42.000,	/* 14 6586.6875*/42.000,	/* 15 7000.0*/42.000,	},
//   67 //		{/* 13 86.660	*//* 0 800.0*/12.000,	/* 1 1213.3281*/12.000,	/* 2 1626.6562*/12.000,	/* 3 2040.0*/26.000,	/* 4 2453.3438*/29.000,	/* 5 2866.6562*/31.000,	/* 6 3280.0*/31.000,	/* 7 3693.3438*/38.000,	/* 8 4106.6875*/40.000,	/* 9 4520.0*/40.000,	/* 10 4933.3125*/40.000,	/* 11 5346.6875*/42.000,	/* 12 5760.0*/42.000,	/* 13 6173.3125*/42.000,	/* 14 6586.6875*/42.000,	/* 15 7000.0*/42.000,	},
//   68 //		{/* 14 93.330	*//* 0 800.0*/12.000,	/* 1 1213.3281*/12.000,	/* 2 1626.6562*/12.000,	/* 3 2040.0*/26.000,	/* 4 2453.3438*/29.000,	/* 5 2866.6562*/31.000,	/* 6 3280.0*/31.000,	/* 7 3693.3438*/38.000,	/* 8 4106.6875*/40.000,	/* 9 4520.0*/40.000,	/* 10 4933.3125*/40.000,	/* 11 5346.6875*/42.000,	/* 12 5760.0*/42.000,	/* 13 6173.3125*/42.000,	/* 14 6586.6875*/42.000,	/* 15 7000.0*/42.000,	},
//   69 //		{/* 15 100.000	*//* 0 800.0*/12.000,	/* 1 1213.3281*/12.000,	/* 2 1626.6562*/12.000,	/* 3 2040.0*/26.000,	/* 4 2453.3438*/29.000,	/* 5 2866.6562*/31.000,	/* 6 3280.0*/31.000,	/* 7 3693.3438*/38.000,	/* 8 4106.6875*/40.000,	/* 9 4520.0*/40.000,	/* 10 4933.3125*/40.000,	/* 11 5346.6875*/42.000,	/* 12 5760.0*/42.000,	/* 13 6173.3125*/42.000,	/* 14 6586.6875*/42.000,	/* 15 7000.0*/42.000,	},
//   70 //};
//   71 

        SECTION `.rodata`:CONST:REORDER:NOROOT(2)
//   72 static const ignition_table_t fromODB = {
fromODB:
        DATA
        DC32 41200000H, 41B00000H, 41B00000H, 41B00000H, 41C00000H, 41B00000H
        DC32 41B80000H, 41B80000H, 41B00000H, 41B00000H, 41B00000H, 42000000H
        DC32 41B00000H, 41B00000H, 41A00000H, 41A00000H, 41200000H, 41B00000H
        DC32 41B00000H, 41B00000H, 41C00000H, 41B00000H, 41B40000H, 41B40000H
        DC32 41B40000H, 41B40000H, 41B40000H, 42000000H, 41B40000H, 41B00000H
        DC32 41A00000H, 41A00000H, 41200000H, 435C0000H, 41B40000H, 41B6E354H
        DC32 41C1F1AAH, 41B672B0H, 41C228F6H, 41BA3D71H, 41A924DDH, 419EDB23H
        DC32 41900000H, 4202AB02H, 41B40000H, 41B40000H, 41B40000H, 41A00000H
        DC32 41200000H, 41B72D0EH, 41AE7AE1H, 41AD24DDH, 41B40000H, 419B3333H
        DC32 415C0000H, 41D00000H, 420C0000H, 4224DB23H, 42348000H, 42530000H
        DC32 424C0000H, 422C0000H, 42200000H, 42200000H, 413E978DH, 418B1EB8H
        DC32 41D1999AH, 4203CCCDH, 420C71AAH, 42200000H, 4246D810H, 4235178DH
        DC32 422E0000H, 42440000H, 4238B439H, 42520000H, 42360000H, 424954FEH
        DC32 42200000H, 42200000H, 40EBEF9EH, 418E49BAH, 41D7624EH, 421F999AH
        DC32 41EC0000H, 42453958H, 424771AAH, 422C3958H, 4232D4FEH, 42373333H
        DC32 422D8000H, 42500000H, 4242AB02H, 42480000H, 42200000H, 42200000H
        DC32 41039581H, 419D5604H, 420D45A2H, 420F624EH, 421F6D91H, 42210000H
        DC32 422C0000H, 42170000H, 42290000H, 4210AB02H, 422C0000H, 42310000H
        DC32 423E0000H, 42440000H, 42200000H, 42200000H, 410EE148H, 41D36E98H
        DC32 41F60000H, 420ECCCDH, 42240000H, 4202AB02H, 41F40000H, 421E0000H
        DC32 42180000H, 41F15604H, 422654FEH, 42300000H, 42360000H, 42440000H
        DC32 42440000H, 42200000H, 40F22D0EH, 41E4E354H, 41EECCCDH, 4202AB02H
        DC32 41DAA9FCH, 41D40000H, 422C0000H, 41EA0000H, 421D999AH, 421E0000H
        DC32 42240000H, 4216AB02H, 422B0000H, 42360000H, 423A0000H, 42200000H
        DC32 40F00000H, 41900000H, 41BF8106H, 41F76E98H, 41C40000H, 41B80000H
        DC32 421CAB02H, 42000000H, 41EAA9FCH, 41F00000H, 42200000H, 42140000H
        DC32 42200000H, 422D0000H, 42200000H, 42200000H, 41000000H, 4189999AH
        DC32 41BF5604H, 41C9999AH, 41B80000H, 41900000H, 42080000H, 41F20000H
        DC32 41E00000H, 41F80000H, 42180000H, 42140000H, 42200000H, 42280000H
        DC32 422C0000H, 424E0000H, 41740000H, 4159999AH, 417953F8H, 41B8CCCDH
        DC32 41AC0000H, 41CE0000H, 41EE0000H, 41FE0000H, 41E00000H, 41F80000H
        DC32 42180000H, 420C0000H, 42200000H, 42240000H, 41F60000H, 42200000H
        DC32 41440000H, 40F80000H, 41860000H, 41900000H, 41CA0000H, 41CD5604H
        DC32 41DC0000H, 41E40000H, 41C40000H, 41CC0000H, 42100000H, 42000000H
        DC32 42140000H, 42180000H, 42170000H, 42200000H, 40800000H, 0C0300000H
        DC32 415D53F8H, 40F00000H, 41A80000H, 41C80000H, 41DC0000H, 41D00000H
        DC32 41B80000H, 41B80000H, 41F00000H, 41F00000H, 42100000H, 42040000H
        DC32 42040000H, 42040000H, 0C0F00000H, 0BF956042H, 40E00000H, 413C0000H
        DC32 41F80000H, 41915604H, 41B95604H, 41BC0000H, 41A00000H, 41C80000H
        DC32 41CD5604H, 41E00000H, 41F00000H, 41F40000H, 42040000H, 42040000H
        DC32 0C0B6D917H, 0C02C6A7FH, 3FE8B439H, 409C8312H, 4118B021H, 414D3333H
        DC32 418EE354H, 419C0000H, 418EA9FCH, 418EDB23H, 41A10000H, 41A80000H
        DC32 41C10000H, 41F80000H, 41E40000H, 42040000H
//   73 /* Generated by OBD2C on Tue Jun 30 18:47:52 EDT 2015*/
//   74 {/* 0 0.000	*//* 0 800.0*/10.000,	/* 1 1213.0*/22.000,	/* 2 1626.0*/22.000,	/* 3 2040.0*/22.000,	/* 4 2453.0*/24.000,	/* 5 2866.0*/22.000,	/* 6 3280.0*/23.000,	/* 7 3693.0*/23.000,	/* 8 4106.0*/22.000,	/* 9 4520.0*/22.000,	/* 10 4933.0*/22.000,	/* 11 5346.0*/32.000,	/* 12 5760.0*/22.000,	/* 13 6173.0*/22.000,	/* 14 6586.0*/20.000,	/* 15 7000.0*/20.000,	},
//   75 {/* 1 6.667	*//* 0 800.0*/10.000,	/* 1 1213.0*/22.000,	/* 2 1626.0*/22.000,	/* 3 2040.0*/22.000,	/* 4 2453.0*/24.000,	/* 5 2866.0*/22.000,	/* 6 3280.0*/22.500,	/* 7 3693.0*/22.500,	/* 8 4106.0*/22.500,	/* 9 4520.0*/22.500,	/* 10 4933.0*/22.500,	/* 11 5346.0*/32.000,	/* 12 5760.0*/22.500,	/* 13 6173.0*/22.000,	/* 14 6586.0*/20.000,	/* 15 7000.0*/20.000,	},
//   76 {/* 2 13.333	*//* 0 800.0*/10.000,	/* 1 1213.0*/220.000,	/* 2 1626.0*/22.500,	/* 3 2040.0*/22.861,	/* 4 2453.0*/24.243,	/* 5 2866.0*/22.806,	/* 6 3280.0*/24.270,	/* 7 3693.0*/23.280,	/* 8 4106.0*/21.143,	/* 9 4520.0*/19.857,	/* 10 4933.0*/18.000,	/* 11 5346.0*/32.667,	/* 12 5760.0*/22.500,	/* 13 6173.0*/22.500,	/* 14 6586.0*/22.500,	/* 15 7000.0*/20.000,	},
//   77 {/* 3 20.000	*//* 0 800.0*/10.000,	/* 1 1213.0*/22.897,	/* 2 1626.0*/21.810,	/* 3 2040.0*/21.643,	/* 4 2453.0*/22.500,	/* 5 2866.0*/19.400,	/* 6 3280.0*/13.750,	/* 7 3693.0*/26.000,	/* 8 4106.0*/35.000,	/* 9 4520.0*/41.214,	/* 10 4933.0*/45.125,	/* 11 5346.0*/52.750,	/* 12 5760.0*/51.000,	/* 13 6173.0*/43.000,	/* 14 6586.0*/40.000,	/* 15 7000.0*/40.000,	},
//   78 {/* 4 26.667	*//* 0 800.0*/11.912,	/* 1 1213.0*/17.390,	/* 2 1626.0*/26.200,	/* 3 2040.0*/32.950,	/* 4 2453.0*/35.111,	/* 5 2866.0*/40.000,	/* 6 3280.0*/49.711,	/* 7 3693.0*/45.273,	/* 8 4106.0*/43.500,	/* 9 4520.0*/49.000,	/* 10 4933.0*/46.176,	/* 11 5346.0*/52.500,	/* 12 5760.0*/45.500,	/* 13 6173.0*/50.333,	/* 14 6586.0*/40.000,	/* 15 7000.0*/40.000,	},
//   79 {/* 5 33.333	*//* 0 800.0*/7.373,	/* 1 1213.0*/17.786,	/* 2 1626.0*/26.923,	/* 3 2040.0*/39.900,	/* 4 2453.0*/29.500,	/* 5 2866.0*/49.306,	/* 6 3280.0*/49.861,	/* 7 3693.0*/43.056,	/* 8 4106.0*/44.708,	/* 9 4520.0*/45.800,	/* 10 4933.0*/43.375,	/* 11 5346.0*/52.000,	/* 12 5760.0*/48.667,	/* 13 6173.0*/50.000,	/* 14 6586.0*/40.000,	/* 15 7000.0*/40.000,	},
//   80 {/* 6 40.000	*//* 0 800.0*/8.224,	/* 1 1213.0*/19.667,	/* 2 1626.0*/35.318,	/* 3 2040.0*/35.846,	/* 4 2453.0*/39.857,	/* 5 2866.0*/40.250,	/* 6 3280.0*/43.000,	/* 7 3693.0*/37.750,	/* 8 4106.0*/42.250,	/* 9 4520.0*/36.167,	/* 10 4933.0*/43.000,	/* 11 5346.0*/44.250,	/* 12 5760.0*/47.500,	/* 13 6173.0*/49.000,	/* 14 6586.0*/40.000,	/* 15 7000.0*/40.000,	},
//   81 {/* 7 46.667	*//* 0 800.0*/8.930,	/* 1 1213.0*/26.429,	/* 2 1626.0*/30.750,	/* 3 2040.0*/35.700,	/* 4 2453.0*/41.000,	/* 5 2866.0*/32.667,	/* 6 3280.0*/30.500,	/* 7 3693.0*/39.500,	/* 8 4106.0*/38.000,	/* 9 4520.0*/30.167,	/* 10 4933.0*/41.583,	/* 11 5346.0*/44.000,	/* 12 5760.0*/45.500,	/* 13 6173.0*/49.000,	/* 14 6586.0*/49.000,	/* 15 7000.0*/40.000,	},
//   82 {/* 8 53.333	*//* 0 800.0*/7.568,	/* 1 1213.0*/28.611,	/* 2 1626.0*/29.850,	/* 3 2040.0*/32.667,	/* 4 2453.0*/27.333,	/* 5 2866.0*/26.500,	/* 6 3280.0*/43.000,	/* 7 3693.0*/29.250,	/* 8 4106.0*/39.400,	/* 9 4520.0*/39.500,	/* 10 4933.0*/41.000,	/* 11 5346.0*/37.667,	/* 12 5760.0*/42.750,	/* 13 6173.0*/45.500,	/* 14 6586.0*/46.500,	/* 15 7000.0*/40.000,	},
//   83 {/* 9 60.000	*//* 0 800.0*/7.500,	/* 1 1213.0*/18.000,	/* 2 1626.0*/23.938,	/* 3 2040.0*/30.929,	/* 4 2453.0*/24.500,	/* 5 2866.0*/23.000,	/* 6 3280.0*/39.167,	/* 7 3693.0*/32.000,	/* 8 4106.0*/29.333,	/* 9 4520.0*/30.000,	/* 10 4933.0*/40.000,	/* 11 5346.0*/37.000,	/* 12 5760.0*/40.000,	/* 13 6173.0*/43.250,	/* 14 6586.0*/40.000,	/* 15 7000.0*/40.000,	},
//   84 {/* 10 66.667	*//* 0 800.0*/8.000,	/* 1 1213.0*/17.200,	/* 2 1626.0*/23.917,	/* 3 2040.0*/25.200,	/* 4 2453.0*/23.000,	/* 5 2866.0*/18.000,	/* 6 3280.0*/34.000,	/* 7 3693.0*/30.250,	/* 8 4106.0*/28.000,	/* 9 4520.0*/31.000,	/* 10 4933.0*/38.000,	/* 11 5346.0*/37.000,	/* 12 5760.0*/40.000,	/* 13 6173.0*/42.000,	/* 14 6586.0*/43.000,	/* 15 7000.0*/51.500,	},
//   85 {/* 11 73.333	*//* 0 800.0*/15.250,	/* 1 1213.0*/13.600,	/* 2 1626.0*/15.583,	/* 3 2040.0*/23.100,	/* 4 2453.0*/21.500,	/* 5 2866.0*/25.750,	/* 6 3280.0*/29.750,	/* 7 3693.0*/31.750,	/* 8 4106.0*/28.000,	/* 9 4520.0*/31.000,	/* 10 4933.0*/38.000,	/* 11 5346.0*/35.000,	/* 12 5760.0*/40.000,	/* 13 6173.0*/41.000,	/* 14 6586.0*/30.750,	/* 15 7000.0*/40.000,	},
//   86 {/* 12 80.000	*//* 0 800.0*/12.250,	/* 1 1213.0*/7.750,	/* 2 1626.0*/16.750,	/* 3 2040.0*/18.000,	/* 4 2453.0*/25.250,	/* 5 2866.0*/25.667,	/* 6 3280.0*/27.500,	/* 7 3693.0*/28.500,	/* 8 4106.0*/24.500,	/* 9 4520.0*/25.500,	/* 10 4933.0*/36.000,	/* 11 5346.0*/32.000,	/* 12 5760.0*/37.000,	/* 13 6173.0*/38.000,	/* 14 6586.0*/37.750,	/* 15 7000.0*/40.000,	},
//   87 {/* 13 86.667	*//* 0 800.0*/4.000,	/* 1 1213.0*/-2.750,	/* 2 1626.0*/13.833,	/* 3 2040.0*/7.500,	/* 4 2453.0*/21.000,	/* 5 2866.0*/25.000,	/* 6 3280.0*/27.500,	/* 7 3693.0*/26.000,	/* 8 4106.0*/23.000,	/* 9 4520.0*/23.000,	/* 10 4933.0*/30.000,	/* 11 5346.0*/30.000,	/* 12 5760.0*/36.000,	/* 13 6173.0*/33.000,	/* 14 6586.0*/33.000,	/* 15 7000.0*/33.000,	},
//   88 {/* 14 93.333	*//* 0 800.0*/-7.500,	/* 1 1213.0*/-1.167,	/* 2 1626.0*/7.000,	/* 3 2040.0*/11.750,	/* 4 2453.0*/31.000,	/* 5 2866.0*/18.167,	/* 6 3280.0*/23.167,	/* 7 3693.0*/23.500,	/* 8 4106.0*/20.000,	/* 9 4520.0*/25.000,	/* 10 4933.0*/25.667,	/* 11 5346.0*/28.000,	/* 12 5760.0*/30.000,	/* 13 6173.0*/30.500,	/* 14 6586.0*/33.000,	/* 15 7000.0*/33.000,	},
//   89 {/* 15 100.000	*//* 0 800.0*/-5.714,	/* 1 1213.0*/-2.694,	/* 2 1626.0*/1.818,	/* 3 2040.0*/4.891,	/* 4 2453.0*/9.543,	/* 5 2866.0*/12.825,	/* 6 3280.0*/17.861,	/* 7 3693.0*/19.500,	/* 8 4106.0*/17.833,	/* 9 4520.0*/17.857,	/* 10 4933.0*/20.125,	/* 11 5346.0*/21.000,	/* 12 5760.0*/24.125,	/* 13 6173.0*/31.000,	/* 14 6586.0*/28.500,	/* 15 7000.0*/33.000	}
//   90 };
//   91 
//   92 
//   93 
//   94 // http://rusefi.com/forum/viewtopic.php?f=3&t=360&start=40
//   95 static float dodge_map_advance_table[16][16] = {
//   96 {/*0 engineLoad=1.2*//*0 800.0*/-4.498, /*1 1213.0*/-11.905, /*2 1626.0*/-23.418, /*3 2040.0*/-25.357, /*4 2453.0*/-25.441, /*5 2866.0*/-25.468, /*6 3280.0*/-29.425, /*7 3693.0*/-32.713, /*8 4106.0*/-35.556, /*9 4520.0*/-37.594, /*10 4933.0*/-36.165, /*11 5346.0*/-30.578, /*12 5760.0*/-29.145, /*13 6173.0*/-29.065, /*14 6586.0*/-27.071, /*15 7000.0*/-28.282},
//   97 {/*1 engineLoad=1.413333*//*0 800.0*/-4.87, /*1 1213.0*/-12.138, /*2 1626.0*/-23.389, /*3 2040.0*/-25.501, /*4 2453.0*/-25.441, /*5 2866.0*/-25.468, /*6 3280.0*/-29.125, /*7 3693.0*/-33.074, /*8 4106.0*/-34.203, /*9 4520.0*/-37.769, /*10 4933.0*/-35.899, /*11 5346.0*/-30.519, /*12 5760.0*/-28.88, /*13 6173.0*/-28.74, /*14 6586.0*/-27.189, /*15 7000.0*/-27.826},
//   98 {/*2 engineLoad=1.626666*//*0 800.0*/-4.817, /*1 1213.0*/-12.262, /*2 1626.0*/-23.925, /*3 2040.0*/-25.501, /*4 2453.0*/-25.5, /*5 2866.0*/-25.468, /*6 3280.0*/-29.364, /*7 3693.0*/-33.489, /*8 4106.0*/-34.839, /*9 4520.0*/-37.545, /*10 4933.0*/-35.875, /*11 5346.0*/-30.353, /*12 5760.0*/-29.052, /*13 6173.0*/-28.37, /*14 6586.0*/-27.072, /*15 7000.0*/-26.828},
//   99 {/*3 engineLoad=1.839999*//*0 800.0*/-4.537, /*1 1213.0*/-12.421, /*2 1626.0*/-23.214, /*3 2040.0*/-25.394, /*4 2453.0*/-25.412, /*5 2866.0*/-25.485, /*6 3280.0*/-29.425, /*7 3693.0*/-33.427, /*8 4106.0*/-34.091, /*9 4520.0*/-36.887, /*10 4933.0*/-36.047, /*11 5346.0*/-30.079, /*12 5760.0*/-28.453, /*13 6173.0*/-28.074, /*14 6586.0*/-27.189, /*15 7000.0*/-26.641},
//  100 {/*4 engineLoad=2.053332*//*0 800.0*/-4.522, /*1 1213.0*/-11.76, /*2 1626.0*/-23.915, /*3 2040.0*/-25.415, /*4 2453.0*/-25.551, /*5 2866.0*/-25.14, /*6 3280.0*/-29.346, /*7 3693.0*/-32.917, /*8 4106.0*/-34.815, /*9 4520.0*/-37.211, /*10 4933.0*/-35.817, /*11 5346.0*/-29.694, /*12 5760.0*/-28.799, /*13 6173.0*/-27.818, /*14 6586.0*/-28.098, /*15 7000.0*/-27.662},
//  101 {/*5 engineLoad=2.266665*//*0 800.0*/-4.678, /*1 1213.0*/-11.912, /*2 1626.0*/-23.486, /*3 2040.0*/-25.379, /*4 2453.0*/-25.551, /*5 2866.0*/-25.527, /*6 3280.0*/-29.856, /*7 3693.0*/-33.511, /*8 4106.0*/-34.786, /*9 4520.0*/-37.963, /*10 4933.0*/-35.917, /*11 5346.0*/-31.073, /*12 5760.0*/-28.361, /*13 6173.0*/-28.468, /*14 6586.0*/-27.188, /*15 7000.0*/-26.729},
//  102 {/*6 engineLoad=2.479998*//*0 800.0*/-4.517, /*1 1213.0*/-12.029, /*2 1626.0*/-23.477, /*3 2040.0*/-25.455, /*4 2453.0*/-25.382, /*5 2866.0*/-25.898, /*6 3280.0*/-29.147, /*7 3693.0*/-33.578, /*8 4106.0*/-34.12, /*9 4520.0*/-36.279, /*10 4933.0*/-36.432, /*11 5346.0*/-31.362, /*12 5760.0*/-28.084, /*13 6173.0*/-28.463, /*14 6586.0*/-27.691, /*15 7000.0*/-27.83},
//  103 {/*7 engineLoad=2.693331*//*0 800.0*/-4.532, /*1 1213.0*/-12.262, /*2 1626.0*/-23.935, /*3 2040.0*/-25.489, /*4 2453.0*/-25.595, /*5 2866.0*/-26.816, /*6 3280.0*/-30.251, /*7 3693.0*/-33.533, /*8 4106.0*/-34.794, /*9 4520.0*/-37.882, /*10 4933.0*/-36.104, /*11 5346.0*/-30.079, /*12 5760.0*/-28.545, /*13 6173.0*/-29.304, /*14 6586.0*/-27.07, /*15 7000.0*/-28.324},
//  104 {/*8 engineLoad=2.906664*//*0 800.0*/-4.532, /*1 1213.0*/-12.036, /*2 1626.0*/-23.418, /*3 2040.0*/-25.513, /*4 2453.0*/-25.382, /*5 2866.0*/-25.357, /*6 3280.0*/-29.934, /*7 3693.0*/-33.467, /*8 4106.0*/-34.748, /*9 4520.0*/-37.288, /*10 4933.0*/-36.38, /*11 5346.0*/-29.516, /*12 5760.0*/-28.799, /*13 6173.0*/-28.407, /*14 6586.0*/-26.951, /*15 7000.0*/-28.203},
//  105 {/*9 engineLoad=3.119997*//*0 800.0*/-4.532, /*1 1213.0*/-11.978, /*2 1626.0*/-23.73, /*3 2040.0*/-25.501, /*4 2453.0*/-25.624, /*5 2866.0*/-26.328, /*6 3280.0*/-30.015, /*7 3693.0*/-33.187, /*8 4106.0*/-34.881, /*9 4520.0*/-38.044, /*10 4933.0*/-35.81, /*11 5346.0*/-29.843, /*12 5760.0*/-29.306, /*13 6173.0*/-28.997, /*14 6586.0*/-27.109, /*15 7000.0*/-29.339},
//  106 {/*10 engineLoad=3.33333*//*0 800.0*/-4.527, /*1 1213.0*/-12.131, /*2 1626.0*/-23.486, /*3 2040.0*/-25.43, /*4 2453.0*/-25.551, /*5 2866.0*/-26.276, /*6 3280.0*/-29.639, /*7 3693.0*/-33.005, /*8 4106.0*/-34.253, /*9 4520.0*/-37.788, /*10 4933.0*/-36.077, /*11 5346.0*/-30.188, /*12 5760.0*/-29.087, /*13 6173.0*/-28.481, /*14 6586.0*/-27.348, /*15 7000.0*/-27.777},
//  107 {/*11 engineLoad=3.546663*//*0 800.0*/-4.889, /*1 1213.0*/-12.175, /*2 1626.0*/-23.271, /*3 2040.0*/-25.357, /*4 2453.0*/-25.551, /*5 2866.0*/-25.485, /*6 3280.0*/-29.899, /*7 3693.0*/-32.802, /*8 4106.0*/-34.786, /*9 4520.0*/-38.686, /*10 4933.0*/-35.722, /*11 5346.0*/-31.347, /*12 5760.0*/-28.891, /*13 6173.0*/-28.333, /*14 6586.0*/-27.149, /*15 7000.0*/-27.236},
//  108 {/*12 engineLoad=3.759996*//*0 800.0*/-4.537, /*1 1213.0*/-12.073, /*2 1626.0*/-23.896, /*3 2040.0*/-25.525, /*4 2453.0*/-25.595, /*5 2866.0*/-25.451, /*6 3280.0*/-30.428, /*7 3693.0*/-33.714, /*8 4106.0*/-34.08, /*9 4520.0*/-37.526, /*10 4933.0*/-35.817, /*11 5346.0*/-30.733, /*12 5760.0*/-28.718, /*13 6173.0*/-28.518, /*14 6586.0*/-27.518, /*15 7000.0*/-26.561},
//  109 {/*13 engineLoad=3.973329*//*0 800.0*/-4.86, /*1 1213.0*/-11.883, /*2 1626.0*/-23.428, /*3 2040.0*/-25.489, /*4 2453.0*/-25.536, /*5 2866.0*/-25.613, /*6 3280.0*/-29.895, /*7 3693.0*/-33.648, /*8 4106.0*/-34.758, /*9 4520.0*/-37.988, /*10 4933.0*/-36.047, /*11 5346.0*/-30.225, /*12 5760.0*/-28.698, /*13 6173.0*/-28.487, /*14 6586.0*/-27.111, /*15 7000.0*/-27.708},
//  110 {/*14 engineLoad=4.186662*//*0 800.0*/-4.683, /*1 1213.0*/-11.898, /*2 1626.0*/-23.506, /*3 2040.0*/-25.562, /*4 2453.0*/-25.61, /*5 2866.0*/-25.519, /*6 3280.0*/-29.95, /*7 3693.0*/-33.582, /*8 4106.0*/-34.548, /*9 4520.0*/-36.201, /*10 4933.0*/-35.788, /*11 5346.0*/-30.053, /*12 5760.0*/-28.292, /*13 6173.0*/-28.259, /*14 6586.0*/-27.269, /*15 7000.0*/-26.863},
//  111 {/*15 engineLoad=4.3999950000000005*//*0 800.0*/-4.85, /*1 1213.0*/-12.24, /*2 1626.0*/-24.091, /*3 2040.0*/-25.394, /*4 2453.0*/-25.323, /*5 2866.0*/-25.544, /*6 3280.0*/-29.915, /*7 3693.0*/-33.104, /*8 4106.0*/-36.016, /*9 4520.0*/-37.933, /*10 4933.0*/-36.254, /*11 5346.0*/-29.712, /*12 5760.0*/-28.651, /*13 6173.0*/-28.045, /*14 6586.0*/-27.228, /*15 7000.0*/-27.784}
//  112 };
//  113 

        SECTION `.rodata`:CONST:REORDER:NOROOT(2)
//  114 static const fuel_table_t veDefaultTable = {
veDefaultTable:
        DATA
        DC32 42820000H, 42820000H, 428F2A7FH, 42A3EA7FH, 42915CACH, 427C77CFH
        DC32 42A1EA7FH, 42B87646H, 42A9FCEEH, 429EC9BAH, 42A8F22DH, 429F0083H
        DC32 42848312H, 42820000H, 42820000H, 42820000H, 42820000H, 4288A354H
        DC32 428C21CBH, 4299028FH, 428D5D2FH, 42771581H, 428AB53FH, 42994189H
        DC32 4295C312H, 428BF852H, 4286420CH, 42820000H, 427E3127H, 42804D50H
        DC32 42820000H, 42820000H, 427D5917H, 427C9062H, 4279A6E9H, 4286ED0EH
        DC32 4287FDF4H, 4281C8B4H, 42937852H, 428E34BCH, 428DDB23H, 428B4A3DH
        DC32 4285645AH, 42820000H, 42820000H, 42820000H, 42820000H, 42820000H
        DC32 4281F646H, 427A22D1H, 42806666H, 428086A8H, 42866042H, 428267F0H
        DC32 429449BAH, 428964DDH, 42871581H, 42803E77H, 42820000H, 42820000H
        DC32 42820000H, 42820000H, 42820000H, 42820000H, 429EE979H, 4288526FH
        DC32 42837F7DH, 4283CB44H, 4283753FH, 427C147BH, 428CDBA6H, 4288AC8BH
        DC32 42834396H, 4284526FH, 4283C49CH, 42820000H, 42820000H, 42820000H
        DC32 42820000H, 42820000H, 42939CACH, 428BAF9EH, 428953F8H, 4287472BH
        DC32 4283E0C5H, 4280A042H, 42871168H, 428645A2H, 4284224EH, 42820000H
        DC32 42865893H, 4287D687H, 42820000H, 42820000H, 42820000H, 42820000H
        DC32 42978A3DH, 4296C419H, 4286FDF4H, 428165E3H, 42848419H, 4282170AH
        DC32 4286C000H, 4285C625H, 428746A8H, 4283E666H, 42879581H, 428754FEH
        DC32 42820000H, 42820000H, 42820000H, 42820000H, 4296DF3BH, 42952042H
        DC32 428A7AE1H, 4283178DH, 428606A8H, 42835DB2H, 4284624EH, 428753F8H
        DC32 428AC831H, 42860106H, 42892F1BH, 4285147BH, 4283753FH, 42820000H
        DC32 42820000H, 42820000H, 42952A7FH, 429312F2H, 428977CFH, 4287FD71H
        DC32 428A1B23H, 42847BE7H, 4286A042H, 428D3EFAH, 428E9917H, 428C7DF4H
        DC32 428B60C5H, 42856A7FH, 42830ED9H, 42820000H, 42820000H, 42820000H
        DC32 42890BC7H, 428EC7AEH, 42859917H, 42885D2FH, 428E3646H, 4288F7CFH
        DC32 4284A4DDH, 428A5EB8H, 428CBDF4H, 428A851FH, 428833B6H, 4287A3D7H
        DC32 4280DA1DH, 427A49BAH, 42820000H, 42820000H, 42820000H, 42820000H
        DC32 42820000H, 42820000H, 42820000H, 42820000H, 42820000H, 42832D0EH
        DC32 428310E5H, 42820000H, 42801BA6H, 42820000H, 42820000H, 4280D893H
        DC32 42820000H, 42820000H, 42820000H, 42820000H, 42820000H, 42820000H
        DC32 42820000H, 42820000H, 42820000H, 42820000H, 42820000H, 42820000H
        DC32 42820000H, 42820000H, 42820000H, 42820000H, 42820000H, 42820000H
        DC32 42820000H, 42820000H, 42820000H, 42820000H, 42820000H, 42820000H
        DC32 42820000H, 42820000H, 42820000H, 42820000H, 42820000H, 42820000H
        DC32 42820000H, 42820000H, 42820000H, 42820000H, 42820000H, 42820000H
        DC32 42820000H, 42820000H, 42820000H, 42820000H, 42820000H, 42820000H
        DC32 42820000H, 42820000H, 42820000H, 42820000H, 42820000H, 42820000H
        DC32 42820000H, 42820000H, 42820000H, 42820000H, 42820000H, 42820000H
        DC32 42820000H, 42820000H, 42820000H, 42820000H, 42820000H, 42820000H
        DC32 42820000H, 42820000H, 42820000H, 42820000H, 42820000H, 42820000H
        DC32 42820000H, 42820000H, 42820000H, 42820000H, 42820000H, 42820000H
        DC32 42820000H, 42820000H, 42820000H, 42820000H, 42820000H, 42820000H
        DC32 42820000H, 42820000H, 42820000H, 42820000H
//  115 		/* Generated by TS2C on Fri Jun 12 20:12:10 EDT 2015*/
//  116 		{/* 0 0.000	*//* 0 800.0*/65.000,	/* 1 1213.3281*/65.000,	/* 2 1626.6562*/71.583,	/* 3 2040.0*/81.958,	/* 4 2453.3438*/72.681,	/* 5 2866.6562*/63.117,	/* 6 3280.0*/80.958,	/* 7 3693.3438*/92.231,	/* 8 4106.6875*/84.994,	/* 9 4520.0*/79.394,	/* 10 4933.3125*/84.473,	/* 11 5346.6875*/79.501,	/* 12 5760.0*/66.256,	/* 13 6173.3125*/65.000,	/* 14 6586.6875*/65.000,	/* 15 7000.0*/65.000	},
//  117 		{/* 1 6.660	*//* 0 800.0*/65.000,	/* 1 1213.3281*/68.319,	/* 2 1626.6562*/70.066,	/* 3 2040.0*/76.505,	/* 4 2453.3438*/70.682,	/* 5 2866.6562*/61.771,	/* 6 3280.0*/69.354,	/* 7 3693.3438*/76.628,	/* 8 4106.6875*/74.881,	/* 9 4520.0*/69.985,	/* 10 4933.3125*/67.129,	/* 11 5346.6875*/65.000,	/* 12 5760.0*/63.548,	/* 13 6173.3125*/64.151,	/* 14 6586.6875*/65.000,	/* 15 7000.0*/65.000	},
//  118 		{/* 2 13.330	*//* 0 800.0*/63.337,	/* 1 1213.3281*/63.141,	/* 2 1626.6562*/62.413,	/* 3 2040.0*/67.463,	/* 4 2453.3438*/67.996,	/* 5 2866.6562*/64.892,	/* 6 3280.0*/73.735,	/* 7 3693.3438*/71.103,	/* 8 4106.6875*/70.928,	/* 9 4520.0*/69.645,	/* 10 4933.3125*/66.696,	/* 11 5346.6875*/65.000,	/* 12 5760.0*/65.000,	/* 13 6173.3125*/65.000,	/* 14 6586.6875*/65.000,	/* 15 7000.0*/65.000,	},
//  119 		{/* 3 20.000	*//* 0 800.0*/64.981,	/* 1 1213.3281*/62.534,	/* 2 1626.6562*/64.200,	/* 3 2040.0*/64.263,	/* 4 2453.3438*/67.188,	/* 5 2866.6562*/65.203,	/* 6 3280.0*/74.144,	/* 7 3693.3438*/68.697,	/* 8 4106.6875*/67.542,	/* 9 4520.0*/64.122,	/* 10 4933.3125*/65.000,	/* 11 5346.6875*/65.000,	/* 12 5760.0*/65.000,	/* 13 6173.3125*/65.000,	/* 14 6586.6875*/65.000,	/* 15 7000.0*/65.000,	},
//  120 		{/* 4 26.660	*//* 0 800.0*/79.456,	/* 1 1213.3281*/68.161,	/* 2 1626.6562*/65.749,	/* 3 2040.0*/65.897,	/* 4 2453.3438*/65.729,	/* 5 2866.6562*/63.020,	/* 6 3280.0*/70.429,	/* 7 3693.3438*/68.337,	/* 8 4106.6875*/65.632,	/* 9 4520.0*/66.161,	/* 10 4933.3125*/65.884,	/* 11 5346.6875*/65.000,	/* 12 5760.0*/65.000,	/* 13 6173.3125*/65.000,	/* 14 6586.6875*/65.000,	/* 15 7000.0*/65.000,	},
//  121 		{/* 5 33.330	*//* 0 800.0*/73.806,	/* 1 1213.3281*/69.843,	/* 2 1626.6562*/68.664,	/* 3 2040.0*/67.639,	/* 4 2453.3438*/65.939,	/* 5 2866.6562*/64.313,	/* 6 3280.0*/67.534,	/* 7 3693.3438*/67.136,	/* 8 4106.6875*/66.067,	/* 9 4520.0*/65.000,	/* 10 4933.3125*/67.173,	/* 11 5346.6875*/67.919,	/* 12 5760.0*/65.000,	/* 13 6173.3125*/65.000,	/* 14 6586.6875*/65.000,	/* 15 7000.0*/65.000,	},
//  122 		{/* 6 40.000	*//* 0 800.0*/75.770,	/* 1 1213.3281*/75.383,	/* 2 1626.6562*/67.496,	/* 3 2040.0*/64.699,	/* 4 2453.3438*/66.258,	/* 5 2866.6562*/65.045,	/* 6 3280.0*/67.375,	/* 7 3693.3438*/66.887,	/* 8 4106.6875*/67.638,	/* 9 4520.0*/65.950,	/* 10 4933.3125*/67.792,	/* 11 5346.6875*/67.666,	/* 12 5760.0*/65.000,	/* 13 6173.3125*/65.000,	/* 14 6586.6875*/65.000,	/* 15 7000.0*/65.000,	},
//  123 		{/* 7 46.660	*//* 0 800.0*/75.436,	/* 1 1213.3281*/74.563,	/* 2 1626.6562*/69.240,	/* 3 2040.0*/65.546,	/* 4 2453.3438*/67.013,	/* 5 2866.6562*/65.683,	/* 6 3280.0*/66.192,	/* 7 3693.3438*/67.664,	/* 8 4106.6875*/69.391,	/* 9 4520.0*/67.002,	/* 10 4933.3125*/68.592,	/* 11 5346.6875*/66.540,	/* 12 5760.0*/65.729,	/* 13 6173.3125*/65.000,	/* 14 6586.6875*/65.000,	/* 15 7000.0*/65.000,	},
//  124 		{/* 8 53.330	*//* 0 800.0*/74.583,	/* 1 1213.3281*/73.537,	/* 2 1626.6562*/68.734,	/* 3 2040.0*/67.995,	/* 4 2453.3438*/69.053,	/* 5 2866.6562*/66.242,	/* 6 3280.0*/67.313,	/* 7 3693.3438*/70.623,	/* 8 4106.6875*/71.299,	/* 9 4520.0*/70.246,	/* 10 4933.3125*/69.689,	/* 11 5346.6875*/66.708,	/* 12 5760.0*/65.529,	/* 13 6173.3125*/65.000,	/* 14 6586.6875*/65.000,	/* 15 7000.0*/65.000,	},
//  125 		{/* 9 60.000	*//* 0 800.0*/68.523,	/* 1 1213.3281*/71.390,	/* 2 1626.6562*/66.799,	/* 3 2040.0*/68.182,	/* 4 2453.3438*/71.106,	/* 5 2866.6562*/68.484,	/* 6 3280.0*/66.322,	/* 7 3693.3438*/69.185,	/* 8 4106.6875*/70.371,	/* 9 4520.0*/69.260,	/* 10 4933.3125*/68.101,	/* 11 5346.6875*/67.820,	/* 12 5760.0*/64.426,	/* 13 6173.3125*/62.572,	/* 14 6586.6875*/65.000,	/* 15 7000.0*/65.000,	},
//  126 		{/* 10 66.660	*//* 0 800.0*/65.000,	/* 1 1213.3281*/65.000,	/* 2 1626.6562*/65.000,	/* 3 2040.0*/65.000,	/* 4 2453.3438*/65.000,	/* 5 2866.6562*/65.000,	/* 6 3280.0*/65.000,	/* 7 3693.3438*/65.588,	/* 8 4106.6875*/65.533,	/* 9 4520.0*/65.000,	/* 10 4933.3125*/64.054,	/* 11 5346.6875*/65.000,	/* 12 5760.0*/65.000,	/* 13 6173.3125*/64.423,	/* 14 6586.6875*/65.000,	/* 15 7000.0*/65.000,	},
//  127 		{/* 11 73.330	*//* 0 800.0*/65.000,	/* 1 1213.3281*/65.000,	/* 2 1626.6562*/65.000,	/* 3 2040.0*/65.000,	/* 4 2453.3438*/65.000,	/* 5 2866.6562*/65.000,	/* 6 3280.0*/65.000,	/* 7 3693.3438*/65.000,	/* 8 4106.6875*/65.000,	/* 9 4520.0*/65.000,	/* 10 4933.3125*/65.000,	/* 11 5346.6875*/65.000,	/* 12 5760.0*/65.000,	/* 13 6173.3125*/65.000,	/* 14 6586.6875*/65.000,	/* 15 7000.0*/65.000,	},
//  128 		{/* 12 80.000	*//* 0 800.0*/65.000,	/* 1 1213.3281*/65.000,	/* 2 1626.6562*/65.000,	/* 3 2040.0*/65.000,	/* 4 2453.3438*/65.000,	/* 5 2866.6562*/65.000,	/* 6 3280.0*/65.000,	/* 7 3693.3438*/65.000,	/* 8 4106.6875*/65.000,	/* 9 4520.0*/65.000,	/* 10 4933.3125*/65.000,	/* 11 5346.6875*/65.000,	/* 12 5760.0*/65.000,	/* 13 6173.3125*/65.000,	/* 14 6586.6875*/65.000,	/* 15 7000.0*/65.000,	},
//  129 		{/* 13 86.660	*//* 0 800.0*/65.000,	/* 1 1213.3281*/65.000,	/* 2 1626.6562*/65.000,	/* 3 2040.0*/65.000,	/* 4 2453.3438*/65.000,	/* 5 2866.6562*/65.000,	/* 6 3280.0*/65.000,	/* 7 3693.3438*/65.000,	/* 8 4106.6875*/65.000,	/* 9 4520.0*/65.000,	/* 10 4933.3125*/65.000,	/* 11 5346.6875*/65.000,	/* 12 5760.0*/65.000,	/* 13 6173.3125*/65.000,	/* 14 6586.6875*/65.000,	/* 15 7000.0*/65.000,	},
//  130 		{/* 14 93.330	*//* 0 800.0*/65.000,	/* 1 1213.3281*/65.000,	/* 2 1626.6562*/65.000,	/* 3 2040.0*/65.000,	/* 4 2453.3438*/65.000,	/* 5 2866.6562*/65.000,	/* 6 3280.0*/65.000,	/* 7 3693.3438*/65.000,	/* 8 4106.6875*/65.000,	/* 9 4520.0*/65.000,	/* 10 4933.3125*/65.000,	/* 11 5346.6875*/65.000,	/* 12 5760.0*/65.000,	/* 13 6173.3125*/65.000,	/* 14 6586.6875*/65.000,	/* 15 7000.0*/65.000,	},
//  131 		{/* 15 100.000	*//* 0 800.0*/65.000,	/* 1 1213.3281*/65.000,	/* 2 1626.6562*/65.000,	/* 3 2040.0*/65.000,	/* 4 2453.3438*/65.000,	/* 5 2866.6562*/65.000,	/* 6 3280.0*/65.000,	/* 7 3693.3438*/65.000,	/* 8 4106.6875*/65.000,	/* 9 4520.0*/65.000,	/* 10 4933.3125*/65.000,	/* 11 5346.6875*/65.000,	/* 12 5760.0*/65.000,	/* 13 6173.3125*/65.000,	/* 14 6586.6875*/65.000,	/* 15 7000.0*/65.000,	}
//  132 };
//  133 
//  134 
//  135 EXTERN_ENGINE;
//  136 

        SECTION `.text`:CODE:NOROOT(2)
          CFI Block cfiBlock0 Using cfiCommon0
          CFI Function _Z35setDodgeNeon1995EngineConfigurationv
        THUMB
//  137 void setDodgeNeon1995EngineConfiguration(DECLARE_ENGINE_PARAMETER_F) {
_Z35setDodgeNeon1995EngineConfigurationv:
        PUSH     {R7,LR}
          CFI R14 Frame(CFA, -4)
          CFI CFA R13+8
//  138 	engineConfiguration->trigger.type = TT_DODGE_NEON_1995;
        LDR.W    R0,??DataTable1_2
        LDR      R0,[R0, #+0]
        MOVS     R1,#+2
        STR      R1,[R0, #+536]
//  139 
//  140 	engineConfiguration->algorithm = LM_ALPHA_N;
        LDR.W    R0,??DataTable1_2
        LDR      R0,[R0, #+0]
        MOVS     R1,#+1
        STR      R1,[R0, #+424]
//  141 
//  142 	engineConfiguration->hasIatSensor = false;
        LDR.W    R0,??DataTable1_2
        LDR      R0,[R0, #+0]
        LDRB     R0,[R0, #+1496]
        ANDS     R0,R0,#0xFD
        LDR.W    R1,??DataTable1_2
        LDR      R1,[R1, #+0]
        STRB     R0,[R1, #+1496]
//  143 
//  144 	// set_rpm_hard_limit 4000
//  145 	engineConfiguration->rpmHardLimit = 4000; // yes, 4k. let's play it safe for now
        LDR.W    R0,??DataTable1_2
        LDR      R0,[R0, #+0]
        MOV      R1,#+4000
        STR      R1,[R0, #+420]
//  146 	// set_cranking_rpm 550
//  147 	engineConfiguration->cranking.rpm = 550;
        LDR.W    R0,??DataTable1_2
        LDR      R0,[R0, #+0]
        MOVW     R1,#+550
        STRH     R1,[R0, #+96]
//  148 
//  149 	// set_cranking_fuel 5
//  150 	engineConfiguration->cranking.baseFuel = 5;
        LDR.W    R0,??DataTable1_2
        LDR      R0,[R0, #+0]
        LDR.W    R1,??DataTable1_3  ;; 0x40a00000
        STR      R1,[R0, #+92]
//  151 
//  152 //	todo: finish implementation for 'useRiseEdge'
//  153 //	engineConfiguration->useOnlyFrontForTrigger = true;
//  154 
//  155 	/**
//  156 	 * that's 1995 config
//  157 	 */
//  158 
//  159 	// set_whole_fuel_map 9
//  160 	setWholeFuelMap(9 PASS_ENGINE_PARAMETER);
        VMOV.F32 S0,#9.0
          CFI FunCall _Z15setWholeFuelMapf
        BL       _Z15setWholeFuelMapf
//  161 	setWholeTimingTable(12 PASS_ENGINE_PARAMETER);
        VMOV.F32 S0,#12.0
          CFI FunCall _Z19setWholeTimingTablef
        BL       _Z19setWholeTimingTablef
//  162 
//  163 	// set_cranking_injection_mode 0
//  164 	engineConfiguration->crankingInjectionMode = IM_SIMULTANEOUS;
        LDR.W    R0,??DataTable1_2
        LDR      R0,[R0, #+0]
        MOVS     R1,#+0
        STR      R1,[R0, #+428]
//  165 	// set_injection_mode 1
//  166 	engineConfiguration->injectionMode = IM_SEQUENTIAL;
        LDR.W    R0,??DataTable1_2
        LDR      R0,[R0, #+0]
        MOVS     R1,#+1
        STR      R1,[R0, #+432]
//  167 
//  168 	// set_ignition_mode 2
//  169 	engineConfiguration->ignitionMode = IM_WASTED_SPARK;
        LDR.W    R0,??DataTable1_2
        LDR      R0,[R0, #+0]
        MOVS     R1,#+2
        STR      R1,[R0, #+444]
//  170 	// set_firing_order 2
//  171 	engineConfiguration->specs.firingOrder = FO_1_THEN_3_THEN_4_THEN2;
        LDR.W    R0,??DataTable1_2
        LDR      R0,[R0, #+0]
        MOVS     R1,#+1
        STR      R1,[R0, #+408]
//  172 
//  173 	// set_global_trigger_offset_angle 497
//  174 	engineConfiguration->globalTriggerAngleOffset = 497;
        LDR.W    R0,??DataTable1_2
        LDR      R0,[R0, #+0]
        LDR.W    R1,??DataTable1_4  ;; 0x43f88000
        STR      R1,[R0, #+460]
//  175 	// set_ignition_offset 350
//  176 	engineConfiguration->ignitionOffset = 350;
        LDR.W    R0,??DataTable1_2
        LDR      R0,[R0, #+0]
        LDR.W    R1,??DataTable1_5  ;; 0x43af0000
        STR      R1,[R0, #+448]
//  177 	 // set_injection_offset 510
//  178 	engineConfiguration->injectionOffset = 510 + 497;
        LDR.W    R0,??DataTable1_2
        LDR      R0,[R0, #+0]
        LDR.W    R1,??DataTable1_6  ;; 0x447bc000
        STR      R1,[R0, #+436]
//  179 
//  180 	/**
//  181 	 * that's 1995 config
//  182 	 */
//  183 
//  184 	// set_cranking_charge_angle 70
//  185 	engineConfiguration->crankingChargeAngle = 70;
        LDR.W    R0,??DataTable1_2
        LDR      R0,[R0, #+0]
        LDR.W    R1,??DataTable1_7  ;; 0x428c0000
        STR      R1,[R0, #+108]
//  186 	// set_cranking_timing_angle 0
//  187 	engineConfiguration->crankingTimingAngle = 0;
        LDR.W    R0,??DataTable1_2
        LDR      R0,[R0, #+0]
        MOVS     R1,#+0
        STR      R1,[R0, #+440]
//  188 
//  189 	// Frankenstein: low side - out #1: PC14
//  190 	// Frankenstein: low side - out #2: PC15
//  191 	// Frankenstein: low side - out #3: PE6
//  192 	// Frankenstein: low side - out #4: PC13
//  193 	// Frankenstein: low side - out #5: PE4
//  194 	// Frankenstein: low side - out #6: PE5
//  195 	// Frankenstein: low side - out #7: PE2
//  196 	// Frankenstein: low side - out #8: PE3
//  197 	// Frankenstein: low side - out #9: PE0
//  198 	// Frankenstein: low side - out #10: PE1
//  199 	// Frankenstein: low side - out #11: PB8
//  200 	// Frankenstein: low side - out #12: PB9
//  201 
//  202 	boardConfiguration->injectionPins[0] = GPIOB_9; // Frankenstein: low side - out #12
        LDR.W    R0,??DataTable1_8
        LDR      R0,[R0, #+0]
        MOVS     R1,#+25
        STR      R1,[R0, #+32]
//  203 	boardConfiguration->injectionPins[1] = GPIOB_8; // Frankenstein: low side - out #11
        LDR.W    R0,??DataTable1_8
        LDR      R0,[R0, #+0]
        MOVS     R1,#+24
        STR      R1,[R0, #+36]
//  204 	boardConfiguration->injectionPins[2] = GPIOE_3; // Frankenstein: low side - out #8
        LDR.W    R0,??DataTable1_8
        LDR      R0,[R0, #+0]
        MOVS     R1,#+67
        STR      R1,[R0, #+40]
//  205 	boardConfiguration->injectionPins[3] = GPIOE_5; // Frankenstein: low side - out #6
        LDR.W    R0,??DataTable1_8
        LDR      R0,[R0, #+0]
        MOVS     R1,#+69
        STR      R1,[R0, #+44]
//  206 
//  207 	boardConfiguration->fuelPumpPin = GPIOC_13; // Frankenstein: low side - out #4
        LDR.W    R0,??DataTable1_8
        LDR      R0,[R0, #+0]
        MOVS     R1,#+45
        STR      R1,[R0, #+24]
//  208 	boardConfiguration->fuelPumpPinMode = OM_DEFAULT;
        LDR.W    R0,??DataTable1_8
        LDR      R0,[R0, #+0]
        MOVS     R1,#+0
        STR      R1,[R0, #+28]
//  209 
//  210 	// set_injection_pin_mode 0
//  211 	boardConfiguration->injectionPinMode = OM_DEFAULT;
        LDR.W    R0,??DataTable1_8
        LDR      R0,[R0, #+0]
        MOVS     R1,#+0
        STR      R1,[R0, #+80]
//  212 
//  213 	// Frankenstein: high side #1: PE8
//  214 	// Frankenstein: high side #2: PE10
//  215 
//  216 	boardConfiguration->ignitionPins[0] = GPIOE_8; // Frankenstein: high side #1
        LDR.W    R0,??DataTable1_8
        LDR      R0,[R0, #+0]
        MOVS     R1,#+72
        STR      R1,[R0, #+84]
//  217 	boardConfiguration->ignitionPins[1] = GPIO_UNASSIGNED;
        LDR.W    R0,??DataTable1_8
        LDR      R0,[R0, #+0]
        MOVS     R1,#+80
        STR      R1,[R0, #+88]
//  218 	boardConfiguration->ignitionPins[2] = GPIOE_10; // // Frankenstein: high side #2
        LDR.W    R0,??DataTable1_8
        LDR      R0,[R0, #+0]
        MOVS     R1,#+74
        STR      R1,[R0, #+92]
//  219 
//  220 	// set_ignition_pin_mode 0
//  221 	boardConfiguration->ignitionPinMode = OM_DEFAULT;
        LDR.W    R0,??DataTable1_8
        LDR      R0,[R0, #+0]
        MOVS     R1,#+0
        STR      R1,[R0, #+132]
//  222 
//  223 	setThermistorConfiguration(&engineConfiguration->clt, 0, 32500, 30, 7550, 100, 700);
        VLDR.W   S5,??DataTable0  ;; 0x442f0000
        VLDR.W   S4,??DataTable0_1  ;; 0x42c80000
        VLDR.W   S3,??DataTable0_2  ;; 0x45ebf000
        VMOV.F32 S2,#30.0
        VLDR.W   S1,??DataTable0_3  ;; 0x46fde800
        VLDR.W   S0,??DataTable0_4  ;; 0x0
        LDR.W    R0,??DataTable1_2
        LDR      R0,[R0, #+0]
        ADDS     R0,R0,#+256
          CFI FunCall _Z26setThermistorConfigurationP14ThermistorConfffffff
        BL       _Z26setThermistorConfigurationP14ThermistorConfffffff
//  224 	engineConfiguration->clt.config.bias_resistor = 2700;
        LDR.W    R0,??DataTable1_2
        LDR      R0,[R0, #+0]
        LDR.W    R1,??DataTable1_9  ;; 0x4528c000
        STR      R1,[R0, #+280]
//  225 
//  226 	engineConfiguration->sensorChartFrequency = 7;
        LDR.W    R0,??DataTable1_2
        LDR      R0,[R0, #+0]
        MOVS     R1,#+7
        STR      R1,[R0, #+532]
//  227 }
        POP      {R0,PC}          ;; return
          CFI EndBlock cfiBlock0

        SECTION `.text`:CODE:NOROOT(2)
        SECTION_TYPE SHT_PROGBITS, 0
        DATA
??DataTable0:
        DC32     0x442f0000

        SECTION `.text`:CODE:NOROOT(2)
        SECTION_TYPE SHT_PROGBITS, 0
        DATA
??DataTable0_1:
        DC32     0x42c80000

        SECTION `.text`:CODE:NOROOT(2)
        SECTION_TYPE SHT_PROGBITS, 0
        DATA
??DataTable0_2:
        DC32     0x45ebf000

        SECTION `.text`:CODE:NOROOT(2)
        SECTION_TYPE SHT_PROGBITS, 0
        DATA
??DataTable0_3:
        DC32     0x46fde800

        SECTION `.text`:CODE:NOROOT(2)
        SECTION_TYPE SHT_PROGBITS, 0
        DATA
??DataTable0_4:
        DC32     0x0
//  228 

        SECTION `.text`:CODE:NOROOT(2)
          CFI Block cfiBlock1 Using cfiCommon0
          CFI Function _Z34setDodgeNeonNGCEngineConfigurationv
        THUMB
//  229 void setDodgeNeonNGCEngineConfiguration(DECLARE_ENGINE_PARAMETER_F) {
_Z34setDodgeNeonNGCEngineConfigurationv:
        PUSH     {R7,LR}
          CFI R14 Frame(CFA, -4)
          CFI CFA R13+8
//  230 	engineConfiguration->trigger.type = TT_DODGE_NEON_2003;
        LDR.W    R0,??DataTable1_2
        LDR      R0,[R0, #+0]
        MOVS     R1,#+14
        STR      R1,[R0, #+536]
//  231 	setFrankenso_01_LCD(boardConfiguration);
        LDR.W    R0,??DataTable1_8
        LDR      R0,[R0, #+0]
          CFI FunCall _Z19setFrankenso_01_LCDP21board_configuration_s
        BL       _Z19setFrankenso_01_LCDP21board_configuration_s
//  232 	setFrankenso0_1_joystick(engineConfiguration);
        LDR.W    R0,??DataTable1_2
        LDR      R0,[R0, #+0]
          CFI FunCall _Z24setFrankenso0_1_joystickP22engine_configuration_s
        BL       _Z24setFrankenso0_1_joystickP22engine_configuration_s
//  233 
//  234 	// set_whole_timing_map 10
//  235 
//  236 	// set_global_trigger_offset_angle 38
//  237 	engineConfiguration->globalTriggerAngleOffset = 38;
        LDR.W    R0,??DataTable1_2
        LDR      R0,[R0, #+0]
        LDR.W    R1,??DataTable1_10  ;; 0x42180000
        STR      R1,[R0, #+460]
//  238 	// set_injection_offset 0
//  239 	engineConfiguration->injectionOffset = 0;
        LDR.N    R0,??DataTable1_2
        LDR      R0,[R0, #+0]
        MOVS     R1,#+0
        STR      R1,[R0, #+436]
//  240 
//  241 	engineConfiguration->crankingInjectionMode = IM_SIMULTANEOUS;
        LDR.N    R0,??DataTable1_2
        LDR      R0,[R0, #+0]
        MOVS     R1,#+0
        STR      R1,[R0, #+428]
//  242 	engineConfiguration->injectionMode = IM_SEQUENTIAL;
        LDR.N    R0,??DataTable1_2
        LDR      R0,[R0, #+0]
        MOVS     R1,#+1
        STR      R1,[R0, #+432]
//  243 	engineConfiguration->ignitionMode = IM_WASTED_SPARK;
        LDR.N    R0,??DataTable1_2
        LDR      R0,[R0, #+0]
        MOVS     R1,#+2
        STR      R1,[R0, #+444]
//  244 	engineConfiguration->specs.displacement = 1.996;
        LDR.N    R0,??DataTable1_2
        LDR      R0,[R0, #+0]
        LDR.N    R1,??DataTable1_11  ;; 0x3fff7cee
        STR      R1,[R0, #+400]
//  245 	engineConfiguration->specs.cylindersCount = 4;
        LDR.N    R0,??DataTable1_2
        LDR      R0,[R0, #+0]
        MOVS     R1,#+4
        STR      R1,[R0, #+404]
//  246 
//  247 	/**
//  248 	 * that's NGC config
//  249 	 *
//  250 	 * set_cranking_fuel 5
//  251 	 */
//  252 	engineConfiguration->cranking.baseFuel = 5;
        LDR.N    R0,??DataTable1_2
        LDR      R0,[R0, #+0]
        LDR.N    R1,??DataTable1_3  ;; 0x40a00000
        STR      R1,[R0, #+92]
//  253 
//  254 	/**
//  255 	 * 77C
//  256 	 * 1200 rpm
//  257 	 * fuel 3
//  258 	 *
//  259 	 * 88C
//  260 	 * fuel 2.8
//  261 	 *
//  262 	 * set_whole_fuel_map 12
//  263 	 */
//  264 	//setWholeFuelMap(12 PASS_ENGINE_PARAMETER);
//  265 	copyFuelTable(alphaNfuel, config->fuelTable);
        LDR.N    R0,??DataTable1_12
        LDR      R0,[R0, #+0]
        ADD      R1,R0,#+10496
        ADDS     R1,R1,#+184
        LDR.N    R0,??DataTable1_13
          CFI FunCall _Z13copyFuelTablePA16_KfPA16_f
        BL       _Z13copyFuelTablePA16_KfPA16_f
//  266 	//setWholeTimingTable(12 PASS_ENGINE_PARAMETER);
//  267 	copyTimingTable(fromODB, config->ignitionTable);
        LDR.N    R0,??DataTable1_12
        LDR      R0,[R0, #+0]
        ADD      R1,R0,#+11776
        ADDS     R1,R1,#+56
        LDR.N    R0,??DataTable1_14
          CFI FunCall _Z15copyTimingTablePA16_KfPA16_f
        BL       _Z15copyTimingTablePA16_KfPA16_f
//  268 
//  269 	copyFuelTable(veDefaultTable, config->veTable);
        LDR.N    R0,??DataTable1_12
        LDR      R0,[R0, #+0]
        ADD      R1,R0,#+12800
        ADDS     R1,R1,#+184
        LDR.N    R0,??DataTable1_15
          CFI FunCall _Z13copyFuelTablePA16_KfPA16_f
        BL       _Z13copyFuelTablePA16_KfPA16_f
//  270 
//  271 	// set_cranking_charge_angle 70
//  272 	engineConfiguration->crankingChargeAngle = 70;
        LDR.N    R0,??DataTable1_2
        LDR      R0,[R0, #+0]
        LDR.N    R1,??DataTable1_7  ;; 0x428c0000
        STR      R1,[R0, #+108]
//  273 	// set_cranking_timing_angle 710
//  274 	engineConfiguration->crankingTimingAngle = -710;
        LDR.N    R0,??DataTable1_2
        LDR      R0,[R0, #+0]
        LDR.N    R1,??DataTable1_16  ;; 0xc4318000
        STR      R1,[R0, #+440]
//  275 
//  276 	/**
//  277 	 * bosch 4G1139
//  278 	 * http://forum.2gn.org/viewtopic.php?t=21657
//  279 	 */
//  280 	engineConfiguration->injector.flow = 199;
        LDR.N    R0,??DataTable1_2
        LDR      R0,[R0, #+0]
        LDR.N    R1,??DataTable1_17  ;; 0x43470000
        STR      R1,[R0, #+8]
//  281 
//  282 	// I want to start with a simple Alpha-N
//  283 	engineConfiguration->algorithm = LM_ALPHA_N;
        LDR.N    R0,??DataTable1_2
        LDR      R0,[R0, #+0]
        MOVS     R1,#+1
        STR      R1,[R0, #+424]
//  284 //	engineConfiguration->algorithm = LM_SPEED_DENSITY;
//  285 	setFuelLoadBin(0, 100 PASS_ENGINE_PARAMETER);
        VLDR.W   S1,??DataTable1  ;; 0x42c80000
        VLDR.W   S0,??DataTable1_1  ;; 0x0
          CFI FunCall _Z14setFuelLoadBinff
        BL       _Z14setFuelLoadBinff
//  286 	setTimingLoadBin(0, 100 PASS_ENGINE_PARAMETER);
        VLDR.W   S1,??DataTable1  ;; 0x42c80000
        VLDR.W   S0,??DataTable1_1  ;; 0x0
          CFI FunCall _Z16setTimingLoadBinff
        BL       _Z16setTimingLoadBinff
//  287 
//  288 	boardConfiguration->malfunctionIndicatorPin = GPIO_UNASSIGNED;
        LDR.N    R0,??DataTable1_8
        LDR      R0,[R0, #+0]
        MOVS     R1,#+80
        STR      R1,[R0, #+136]
//  289 
//  290 	/**
//  291 	 * PA4 Wideband O2 Sensor
//  292 	 */
//  293 	engineConfiguration->afr.hwChannel = EFI_ADC_4;
        LDR.N    R0,??DataTable1_2
        LDR      R0,[R0, #+0]
        MOVS     R1,#+4
        STR      R1,[R0, #+584]
//  294 
//  295 	commonFrankensoAnalogInputs(engineConfiguration);
        LDR.N    R0,??DataTable1_2
        LDR      R0,[R0, #+0]
          CFI FunCall _Z27commonFrankensoAnalogInputsP22engine_configuration_s
        BL       _Z27commonFrankensoAnalogInputsP22engine_configuration_s
//  296 	engineConfiguration->vbattDividerCoeff = ((float) (8.2 + 33)) / 8.2 * 2;
        LDR.N    R0,??DataTable1_2
        LDR      R0,[R0, #+0]
        LDR.N    R1,??DataTable1_18  ;; 0x4120c7ce
        STR      R1,[R0, #+468]
//  297 
//  298 	/**
//  299 	 * http://rusefi.com/wiki/index.php?title=Manual:Hardware_Frankenso_board
//  300 	 */
//  301 	// Frankenso low out #1: PE6 main relay
//  302 	// Frankenso low out #2: PE5 alternator field control
//  303 	// Frankenso low out #3: PD7 coolant fan relay
//  304 	// Frankenso low out #4: PC13 idle valve solenoid
//  305 	// Frankenso low out #5: PE3 fuel pump relay
//  306 	// Frankenso low out #6: PE4
//  307 	// Frankenso low out #7: PE1 (do not use with discovery!)
//  308 	// Frankenso low out #8: PE2 injector #3
//  309 	// Frankenso low out #9: PB9 injector #2
//  310 	// Frankenso low out #10: PE0 (do not use with discovery!)
//  311 	// Frankenso low out #11: PB8 injector #1
//  312 	// Frankenso low out #12: PB7 injector #4
//  313 
//  314 	boardConfiguration->fanPin = GPIOD_7;
        LDR.N    R0,??DataTable1_8
        LDR      R0,[R0, #+0]
        MOVS     R1,#+55
        STR      R1,[R0, #+144]
//  315 
//  316 	boardConfiguration->injectionPins[0] = GPIOB_8;
        LDR.N    R0,??DataTable1_8
        LDR      R0,[R0, #+0]
        MOVS     R1,#+24
        STR      R1,[R0, #+32]
//  317 	boardConfiguration->injectionPins[1] = GPIOB_9;
        LDR.N    R0,??DataTable1_8
        LDR      R0,[R0, #+0]
        MOVS     R1,#+25
        STR      R1,[R0, #+36]
//  318 	boardConfiguration->injectionPins[2] = GPIOE_2;
        LDR.N    R0,??DataTable1_8
        LDR      R0,[R0, #+0]
        MOVS     R1,#+66
        STR      R1,[R0, #+40]
//  319 	boardConfiguration->injectionPins[3] = GPIOB_7;
        LDR.N    R0,??DataTable1_8
        LDR      R0,[R0, #+0]
        MOVS     R1,#+23
        STR      R1,[R0, #+44]
//  320 
//  321 	boardConfiguration->ignitionPins[0] = GPIOC_9;
        LDR.N    R0,??DataTable1_8
        LDR      R0,[R0, #+0]
        MOVS     R1,#+41
        STR      R1,[R0, #+84]
//  322 	boardConfiguration->ignitionPins[1] = GPIO_UNASSIGNED;
        LDR.N    R0,??DataTable1_8
        LDR      R0,[R0, #+0]
        MOVS     R1,#+80
        STR      R1,[R0, #+88]
//  323 	boardConfiguration->ignitionPins[2] = GPIOE_8;
        LDR.N    R0,??DataTable1_8
        LDR      R0,[R0, #+0]
        MOVS     R1,#+72
        STR      R1,[R0, #+92]
//  324 	boardConfiguration->ignitionPins[3] = GPIO_UNASSIGNED;
        LDR.N    R0,??DataTable1_8
        LDR      R0,[R0, #+0]
        MOVS     R1,#+80
        STR      R1,[R0, #+96]
//  325 
//  326 	boardConfiguration->mainRelayPin = GPIOE_6;
        LDR.N    R0,??DataTable1_8
        LDR      R0,[R0, #+0]
        MOVS     R1,#+70
        STR      R1,[R0, #+308]
//  327 
//  328 	boardConfiguration->idle.solenoidPin = GPIOC_13;
        LDR.N    R0,??DataTable1_8
        LDR      R0,[R0, #+0]
        MOVS     R1,#+45
        STR      R1,[R0, #+0]
//  329 	boardConfiguration->idle.solenoidFrequency = 300;
        LDR.N    R0,??DataTable1_8
        LDR      R0,[R0, #+0]
        MOV      R1,#+300
        STR      R1,[R0, #+8]
//  330 
//  331 	boardConfiguration->fuelPumpPin = GPIOE_3;
        LDR.N    R0,??DataTable1_8
        LDR      R0,[R0, #+0]
        MOVS     R1,#+67
        STR      R1,[R0, #+24]
//  332 	boardConfiguration->fuelPumpPinMode = OM_DEFAULT;
        LDR.N    R0,??DataTable1_8
        LDR      R0,[R0, #+0]
        MOVS     R1,#+0
        STR      R1,[R0, #+28]
//  333 
//  334 	boardConfiguration->triggerInputPins[0] = GPIOA_5;
        LDR.N    R0,??DataTable1_8
        LDR      R0,[R0, #+0]
        MOVS     R1,#+5
        STR      R1,[R0, #+296]
//  335 	boardConfiguration->triggerInputPins[1] = GPIOC_6;
        LDR.N    R0,??DataTable1_8
        LDR      R0,[R0, #+0]
        MOVS     R1,#+38
        STR      R1,[R0, #+300]
//  336 
//  337 	/**
//  338 	 * Frankenso analog #1 PC2 ADC12 CLT
//  339 	 * Frankenso analog #2 PC1 ADC11 IAT
//  340 	 * Frankenso analog #3 PA0 ADC0
//  341 	 * Frankenso analog #4 PC3 ADC13
//  342 	 * Frankenso analog #5 PA2 ADC2
//  343 	 * Frankenso analog #6 PA1 ADC1
//  344 	 * Frankenso analog #7 PA4 ADC4 WBO AFR
//  345 	 * Frankenso analog #8 PA3 ADC3
//  346 	 * Frankenso analog #9 PA7 ADC7
//  347 	 * Frankenso analog #10 PA6 ADC6 MAP
//  348 	 * Frankenso analog #11 PC5 ADC15 TPS
//  349 	 * Frankenso analog #12 PC4 ADC14 VBatt
//  350 	 */
//  351 
//  352 
//  353 	setDodgeSensor(&engineConfiguration->clt);
        LDR.N    R0,??DataTable1_2
        LDR      R0,[R0, #+0]
        ADDS     R0,R0,#+256
          CFI FunCall _Z14setDodgeSensorP14ThermistorConf
        BL       _Z14setDodgeSensorP14ThermistorConf
//  354 	engineConfiguration->clt.config.bias_resistor = 10000;
        LDR.N    R0,??DataTable1_2
        LDR      R0,[R0, #+0]
        LDR.N    R1,??DataTable1_19  ;; 0x461c4000
        STR      R1,[R0, #+280]
//  355 
//  356 	setDodgeSensor(&engineConfiguration->iat);
        LDR.N    R0,??DataTable1_2
        LDR      R0,[R0, #+0]
        ADDS     R0,R0,#+288
          CFI FunCall _Z14setDodgeSensorP14ThermistorConf
        BL       _Z14setDodgeSensorP14ThermistorConf
//  357 	engineConfiguration->iat.config.bias_resistor = 10000;
        LDR.N    R0,??DataTable1_2
        LDR      R0,[R0, #+0]
        LDR.N    R1,??DataTable1_19  ;; 0x461c4000
        STR      R1,[R0, #+312]
//  358 
//  359 	/**
//  360 	 * MAP PA6
//  361 	 */
//  362 	engineConfiguration->map.sensor.hwChannel = EFI_ADC_6; // PA6
        LDR.N    R0,??DataTable1_2
        LDR      R0,[R0, #+0]
        MOVS     R1,#+6
        STR      R1,[R0, #+252]
//  363 
//  364 	/**
//  365 	 * TPS
//  366 	 */
//  367 	engineConfiguration->tpsAdcChannel = EFI_ADC_15;
        LDR.N    R0,??DataTable1_2
        LDR      R0,[R0, #+0]
        MOVS     R1,#+15
        STR      R1,[R0, #+524]
//  368 	engineConfiguration->tpsMin = 125; // convert 12to10 bit (ADC/4)
        LDR.N    R0,??DataTable1_2
        LDR      R0,[R0, #+0]
        MOVS     R1,#+125
        STRH     R1,[R0, #+82]
//  369 	engineConfiguration->tpsMax = 625; // convert 12to10 bit (ADC/4)
        LDR.N    R0,??DataTable1_2
        LDR      R0,[R0, #+0]
        MOVW     R1,#+625
        STRH     R1,[R0, #+84]
//  370 
//  371 	/**
//  372 	 * IAT D15/W7
//  373 	 */
//  374 	engineConfiguration->iat.adcChannel = EFI_ADC_11;
        LDR.N    R0,??DataTable1_2
        LDR      R0,[R0, #+0]
        MOVS     R1,#+11
        STR      R1,[R0, #+316]
//  375 
//  376 	/**
//  377 	 * CLT D13/W9
//  378 	 */
//  379 	engineConfiguration->clt.adcChannel = EFI_ADC_12;
        LDR.N    R0,??DataTable1_2
        LDR      R0,[R0, #+0]
        MOVS     R1,#+12
        STR      R1,[R0, #+284]
//  380 
//  381 
//  382 	boardConfiguration->sensorChartMode = SC_MAP;
        LDR.N    R0,??DataTable1_8
        LDR      R0,[R0, #+0]
        MOVS     R1,#+2
        STR      R1,[R0, #+784]
//  383 	boardConfiguration->isFastAdcEnabled = true;
        LDR.N    R0,??DataTable1_8
        LDR      R0,[R0, #+0]
        LDRB     R0,[R0, #+384]
        ORRS     R0,R0,#0x10
        LDR.N    R1,??DataTable1_8
        LDR      R1,[R1, #+0]
        STRB     R0,[R1, #+384]
//  384 	engineConfiguration->map.sensor.type = MT_DODGE_NEON_2003;
        LDR.N    R0,??DataTable1_2
        LDR      R0,[R0, #+0]
        MOVS     R1,#+4
        STR      R1,[R0, #+248]
//  385 
//  386 #if EFI_HIP_9011 || defined(__DOXYGEN__)
//  387 	setHip9011FrankensoPinout();
          CFI FunCall _Z25setHip9011FrankensoPinoutv
        BL       _Z25setHip9011FrankensoPinoutv
//  388 #endif
//  389 	engineConfiguration->cylinderBore = 87.5;
        LDR.N    R0,??DataTable1_2
        LDR      R0,[R0, #+0]
        LDR.N    R1,??DataTable1_20  ;; 0x42af0000
        STR      R1,[R0, #+412]
//  390 
//  391 //	boardConfiguration->clutchDownPin = GPIOC_12;
//  392 	boardConfiguration->clutchDownPinMode = PI_PULLUP;
        LDR.N    R0,??DataTable1_8
        LDR      R0,[R0, #+0]
        MOVS     R1,#+1
        STR      R1,[R0, #+164]
//  393 	boardConfiguration->clutchUpPin = GPIOD_3;
        LDR.N    R0,??DataTable1_8
        LDR      R0,[R0, #+0]
        MOVS     R1,#+51
        STR      R1,[R0, #+796]
//  394 	boardConfiguration->clutchUpPinMode = PI_PULLUP;
        LDR.N    R0,??DataTable1_8
        LDR      R0,[R0, #+0]
        MOVS     R1,#+1
        STR      R1,[R0, #+800]
//  395 
//  396 	// alt GPIOC_12
//  397 	
//  398 	/**
//  399 	 * set_fsio_setting 0 0.11
//  400 	 */
//  401 	engineConfiguration->bc.fsio_setting[0] = 0.2;
        LDR.N    R0,??DataTable1_2
        LDR      R0,[R0, #+0]
        LDR.N    R1,??DataTable1_21  ;; 0x3e4ccccd
        STR      R1,[R0, #+1284]
//  402 #if EFI_FSIO || defined(__DOXYGEN__)
//  403 	boardConfiguration->fsio_setting[0] = 0.55;
        LDR.N    R0,??DataTable1_8
        LDR      R0,[R0, #+0]
        LDR.N    R1,??DataTable1_22  ;; 0x3f0ccccd
        STR      R1,[R0, #+660]
//  404 	setFsioExt(0, GPIOE_5, "0 fsio_setting", 400 PASS_ENGINE_PARAMETER);
        MOV      R3,#+400
        LDR.N    R2,??DataTable1_23
        MOVS     R1,#+69
        MOVS     R0,#+0
          CFI FunCall _Z10setFsioExti11brain_pin_ePKci
        BL       _Z10setFsioExti11brain_pin_ePKci
//  405 #endif
//  406 
//  407 	boardConfiguration->vehicleSpeedSensorInputPin = GPIOA_8;
        LDR.N    R0,??DataTable1_8
        LDR      R0,[R0, #+0]
        MOVS     R1,#+8
        STR      R1,[R0, #+792]
//  408 	engineConfiguration->hasVehicleSpeedSensor = true;
        LDR.N    R0,??DataTable1_2
        LDR      R0,[R0, #+0]
        LDRB     R0,[R0, #+1497]
        ORRS     R0,R0,#0x4
        LDR.N    R1,??DataTable1_2
        LDR      R1,[R1, #+0]
        STRB     R0,[R1, #+1497]
//  409 
//  410 	engineConfiguration->fanOnTemperature = 85;
        LDR.N    R0,??DataTable1_2
        LDR      R0,[R0, #+0]
        LDR.N    R1,??DataTable1_24  ;; 0x42aa0000
        STR      R1,[R0, #+476]
//  411 	engineConfiguration->fanOffTemperature = 80;
        LDR.N    R0,??DataTable1_2
        LDR      R0,[R0, #+0]
        LDR.N    R1,??DataTable1_25  ;; 0x42a00000
        STR      R1,[R0, #+480]
//  412 
//  413 //	boardConfiguration->tunerStudioSerialSpeed = 9600;
//  414 	boardConfiguration->tunerStudioSerialSpeed = 19200;
        LDR.N    R0,??DataTable1_8
        LDR      R0,[R0, #+0]
        MOV      R1,#+19200
        STR      R1,[R0, #+332]
//  415 	engineConfiguration->algorithm = LM_SPEED_DENSITY;
        LDR.N    R0,??DataTable1_2
        LDR      R0,[R0, #+0]
        MOVS     R1,#+3
        STR      R1,[R0, #+424]
//  416 
//  417 	boardConfiguration->alternatorControlPin = GPIOD_5;
        LDR.N    R0,??DataTable1_8
        LDR      R0,[R0, #+0]
        MOVS     R1,#+53
        STR      R1,[R0, #+168]
//  418 	engineConfiguration->alternatorControlPFactor = 22;
        LDR.N    R0,??DataTable1_2
        LDR      R0,[R0, #+0]
        LDR.N    R1,??DataTable1_26  ;; 0x41b00000
        STR      R1,[R0, #+2172]
//  419 
//  420 //	engineConfiguration->isCanEnabled = true;
//  421 	boardConfiguration->canTxPin = GPIOB_6;
        LDR.N    R0,??DataTable1_8
        LDR      R0,[R0, #+0]
        MOVS     R1,#+22
        STR      R1,[R0, #+344]
//  422 	boardConfiguration->canRxPin = GPIOB_12;
        LDR.N    R0,??DataTable1_8
        LDR      R0,[R0, #+0]
        MOVS     R1,#+28
        STR      R1,[R0, #+348]
//  423 	engineConfiguration->canWriteEnabled = true;
        LDR.N    R0,??DataTable1_2
        LDR      R0,[R0, #+0]
        LDRB     R0,[R0, #+1497]
        ORRS     R0,R0,#0x2
        LDR.N    R1,??DataTable1_2
        LDR      R1,[R1, #+0]
        STRB     R0,[R1, #+1497]
//  424 	engineConfiguration->canReadEnabled = false;
        LDR.N    R0,??DataTable1_2
        LDR      R0,[R0, #+0]
        LDRB     R0,[R0, #+1497]
        ANDS     R0,R0,#0xFE
        LDR.N    R1,??DataTable1_2
        LDR      R1,[R1, #+0]
        STRB     R0,[R1, #+1497]
//  425 	engineConfiguration->canNbcType = CAN_BUS_NBC_BMW;
        LDR.N    R0,??DataTable1_2
        LDR      R0,[R0, #+0]
        MOVS     R1,#+0
        STR      R1,[R0, #+492]
//  426 //	engineConfiguration->canNbcType = CAN_BUS_MAZDA_RX8;
//  427 
//  428 	engineConfiguration->mapAccelLength = 12;
        LDR.N    R0,??DataTable1_2
        LDR      R0,[R0, #+0]
        MOVS     R1,#+12
        STR      R1,[R0, #+2196]
//  429 	engineConfiguration->mapAccelEnrichmentThreshold = 5; // kPa
        LDR.N    R0,??DataTable1_2
        LDR      R0,[R0, #+0]
        LDR.N    R1,??DataTable1_3  ;; 0x40a00000
        STR      R1,[R0, #+2208]
//  430 	engineConfiguration->mapAccelEnrichmentMultiplier = 0;
        LDR.N    R0,??DataTable1_2
        LDR      R0,[R0, #+0]
        MOVS     R1,#+0
        STR      R1,[R0, #+2212]
//  431 
//  432 	engineConfiguration->tpsAccelLength = 12;
        LDR.N    R0,??DataTable1_2
        LDR      R0,[R0, #+0]
        MOVS     R1,#+12
        STR      R1,[R0, #+2184]
//  433 	engineConfiguration->tpsAccelEnrichmentThreshold = 10;
        LDR.N    R0,??DataTable1_2
        LDR      R0,[R0, #+0]
        LDR.N    R1,??DataTable1_27  ;; 0x41200000
        STR      R1,[R0, #+2188]
//  434 	engineConfiguration->tpsAccelEnrichmentMultiplier = 0.15;
        LDR.N    R0,??DataTable1_2
        LDR      R0,[R0, #+0]
        LDR.N    R1,??DataTable1_28  ;; 0x3e19999a
        STR      R1,[R0, #+2192]
//  435 
//  436 }
        POP      {R0,PC}          ;; return
          CFI EndBlock cfiBlock1

        SECTION `.text`:CODE:NOROOT(2)
        SECTION_TYPE SHT_PROGBITS, 0
        DATA
??DataTable1:
        DC32     0x42c80000

        SECTION `.text`:CODE:NOROOT(2)
        SECTION_TYPE SHT_PROGBITS, 0
        DATA
??DataTable1_1:
        DC32     0x0

        SECTION `.text`:CODE:NOROOT(2)
        SECTION_TYPE SHT_PROGBITS, 0
        DATA
??DataTable1_2:
        DC32     engineConfiguration

        SECTION `.text`:CODE:NOROOT(2)
        SECTION_TYPE SHT_PROGBITS, 0
        DATA
??DataTable1_3:
        DC32     0x40a00000

        SECTION `.text`:CODE:NOROOT(2)
        SECTION_TYPE SHT_PROGBITS, 0
        DATA
??DataTable1_4:
        DC32     0x43f88000

        SECTION `.text`:CODE:NOROOT(2)
        SECTION_TYPE SHT_PROGBITS, 0
        DATA
??DataTable1_5:
        DC32     0x43af0000

        SECTION `.text`:CODE:NOROOT(2)
        SECTION_TYPE SHT_PROGBITS, 0
        DATA
??DataTable1_6:
        DC32     0x447bc000

        SECTION `.text`:CODE:NOROOT(2)
        SECTION_TYPE SHT_PROGBITS, 0
        DATA
??DataTable1_7:
        DC32     0x428c0000

        SECTION `.text`:CODE:NOROOT(2)
        SECTION_TYPE SHT_PROGBITS, 0
        DATA
??DataTable1_8:
        DC32     boardConfiguration

        SECTION `.text`:CODE:NOROOT(2)
        SECTION_TYPE SHT_PROGBITS, 0
        DATA
??DataTable1_9:
        DC32     0x4528c000

        SECTION `.text`:CODE:NOROOT(2)
        SECTION_TYPE SHT_PROGBITS, 0
        DATA
??DataTable1_10:
        DC32     0x42180000

        SECTION `.text`:CODE:NOROOT(2)
        SECTION_TYPE SHT_PROGBITS, 0
        DATA
??DataTable1_11:
        DC32     0x3fff7cee

        SECTION `.text`:CODE:NOROOT(2)
        SECTION_TYPE SHT_PROGBITS, 0
        DATA
??DataTable1_12:
        DC32     config

        SECTION `.text`:CODE:NOROOT(2)
        SECTION_TYPE SHT_PROGBITS, 0
        DATA
??DataTable1_13:
        DC32     alphaNfuel

        SECTION `.text`:CODE:NOROOT(2)
        SECTION_TYPE SHT_PROGBITS, 0
        DATA
??DataTable1_14:
        DC32     fromODB

        SECTION `.text`:CODE:NOROOT(2)
        SECTION_TYPE SHT_PROGBITS, 0
        DATA
??DataTable1_15:
        DC32     veDefaultTable

        SECTION `.text`:CODE:NOROOT(2)
        SECTION_TYPE SHT_PROGBITS, 0
        DATA
??DataTable1_16:
        DC32     0xc4318000

        SECTION `.text`:CODE:NOROOT(2)
        SECTION_TYPE SHT_PROGBITS, 0
        DATA
??DataTable1_17:
        DC32     0x43470000

        SECTION `.text`:CODE:NOROOT(2)
        SECTION_TYPE SHT_PROGBITS, 0
        DATA
??DataTable1_18:
        DC32     0x4120c7ce

        SECTION `.text`:CODE:NOROOT(2)
        SECTION_TYPE SHT_PROGBITS, 0
        DATA
??DataTable1_19:
        DC32     0x461c4000

        SECTION `.text`:CODE:NOROOT(2)
        SECTION_TYPE SHT_PROGBITS, 0
        DATA
??DataTable1_20:
        DC32     0x42af0000

        SECTION `.text`:CODE:NOROOT(2)
        SECTION_TYPE SHT_PROGBITS, 0
        DATA
??DataTable1_21:
        DC32     0x3e4ccccd

        SECTION `.text`:CODE:NOROOT(2)
        SECTION_TYPE SHT_PROGBITS, 0
        DATA
??DataTable1_22:
        DC32     0x3f0ccccd

        SECTION `.text`:CODE:NOROOT(2)
        SECTION_TYPE SHT_PROGBITS, 0
        DATA
??DataTable1_23:
        DC32     `?<Constant "0 fsio_setting">`

        SECTION `.text`:CODE:NOROOT(2)
        SECTION_TYPE SHT_PROGBITS, 0
        DATA
??DataTable1_24:
        DC32     0x42aa0000

        SECTION `.text`:CODE:NOROOT(2)
        SECTION_TYPE SHT_PROGBITS, 0
        DATA
??DataTable1_25:
        DC32     0x42a00000

        SECTION `.text`:CODE:NOROOT(2)
        SECTION_TYPE SHT_PROGBITS, 0
        DATA
??DataTable1_26:
        DC32     0x41b00000

        SECTION `.text`:CODE:NOROOT(2)
        SECTION_TYPE SHT_PROGBITS, 0
        DATA
??DataTable1_27:
        DC32     0x41200000

        SECTION `.text`:CODE:NOROOT(2)
        SECTION_TYPE SHT_PROGBITS, 0
        DATA
??DataTable1_28:
        DC32     0x3e19999a

        SECTION `.iar_vfe_header`:DATA:REORDER:NOALLOC:NOROOT(2)
        SECTION_TYPE SHT_PROGBITS, 0
        DATA
        DC32 0

        SECTION __DLIB_PERTHREAD:DATA:REORDER:NOROOT(0)
        SECTION_TYPE SHT_PROGBITS, 0

        SECTION __DLIB_PERTHREAD_init:DATA:REORDER:NOROOT(0)
        SECTION_TYPE SHT_PROGBITS, 0

        END
//  437 
//  438 #endif /* EFI_SUPPORT_DODGE_NEON */
//  439 
// 
// 3 088 bytes in section .rodata
// 1 382 bytes in section .text
// 
// 1 382 bytes of CODE  memory
// 3 088 bytes of CONST memory
//
//Errors: none
//Warnings: 2
