///////////////////////////////////////////////////////////////////////////////
//                                                                            /
// IAR ANSI C/C++ Compiler V6.50.3.4676/W32 for ARM     30/Jun/2015  23:09:36 /
// Copyright 1999-2013 IAR Systems AB.                                        /
//                                                                            /
//    Cpu mode        =  thumb                                                /
//    Endian          =  little                                               /
//    Source file     =  F:\stuff\rusefi_sourceforge\firmware\chibios\ext\fat /
//                       fs\src\ff.c                                          /
//    Command line    =  F:\stuff\rusefi_sourceforge\firmware\chibios\ext\fat /
//                       fs\src\ff.c -lCN F:\stuff\rusefi_sourceforge\firmwar /
//                       e\iar\Debug\List\ -lA F:\stuff\rusefi_sourceforge\fi /
//                       rmware\iar\Debug\List\ -o                            /
//                       F:\stuff\rusefi_sourceforge\firmware\iar\Debug\Obj\  /
//                       --no_cse --no_unroll --no_inline --no_code_motion    /
//                       --no_tbaa --no_clustering --no_scheduling --debug    /
//                       --endian=little --cpu=Cortex-M4 -e --fpu=VFPv4_sp    /
//                       --dlib_config "C:\Program Files (x86)\IAR            /
//                       Systems\Embedded Workbench                           /
//                       6.5\arm\INC\c\DLib_Config_Normal.h"                  /
//                       --misrac2004=1.2-1.4,2.3,3.4,4.2,6.5-7,8.2-8.3,9.3,  /
//                       12.3,13.6-13,15.5,17.3,19.17,20.7-20.9,20.11 -I      /
//                       F:\stuff\rusefi_sourceforge\firmware\iar\..\ -I      /
//                       F:\stuff\rusefi_sourceforge\firmware\iar\..\chibios\ /
//                       os\kernel\include\ -I F:\stuff\rusefi_sourceforge\fi /
//                       rmware\iar\..\chibios\os\ports\common\ARMCMx\ -I     /
//                       F:\stuff\rusefi_sourceforge\firmware\iar\..\chibios\ /
//                       os\ports\common\ARMCMx\CMSIS\include\ -I             /
//                       F:\stuff\rusefi_sourceforge\firmware\iar\..\chibios\ /
//                       os\ports\IAR\ARMCMx\ -I F:\stuff\rusefi_sourceforge\ /
//                       firmware\iar\..\chibios\os\ports\IAR\ARMCMx\STM32F4x /
//                       x\ -I F:\stuff\rusefi_sourceforge\firmware\iar\..\ch /
//                       ibios\os\hal\include\ -I F:\stuff\rusefi_sourceforge /
//                       \firmware\iar\..\chibios\os\hal\platforms\STM32\ -I  /
//                       F:\stuff\rusefi_sourceforge\firmware\iar\..\chibios\ /
//                       os\hal\platforms\STM32\DMAv1\ -I                     /
//                       F:\stuff\rusefi_sourceforge\firmware\iar\..\chibios\ /
//                       os\hal\platforms\STM32\GPIOv2\ -I                    /
//                       F:\stuff\rusefi_sourceforge\firmware\iar\..\chibios\ /
//                       os\hal\platforms\STM32\I2Cv1\ -I                     /
//                       F:\stuff\rusefi_sourceforge\firmware\iar\..\chibios\ /
//                       os\hal\platforms\STM32\SPIv1\ -I                     /
//                       F:\stuff\rusefi_sourceforge\firmware\iar\..\chibios\ /
//                       os\hal\platforms\STM32\TIMv1\ -I                     /
//                       F:\stuff\rusefi_sourceforge\firmware\iar\..\chibios\ /
//                       os\hal\platforms\STM32\RTCv2\ -I                     /
//                       F:\stuff\rusefi_sourceforge\firmware\iar\..\chibios\ /
//                       os\hal\platforms\STM32\USARTv1\ -I                   /
//                       F:\stuff\rusefi_sourceforge\firmware\iar\..\chibios\ /
//                       os\hal\platforms\STM32\OTGv1\ -I                     /
//                       F:\stuff\rusefi_sourceforge\firmware\iar\..\chibios\ /
//                       os\hal\platforms\STM32F4xx\ -I                       /
//                       F:\stuff\rusefi_sourceforge\firmware\iar\..\chibios\ /
//                       os\various\ -I F:\stuff\rusefi_sourceforge\firmware\ /
//                       iar\..\chibios\os\various\devices_lib\accel\ -I      /
//                       F:\stuff\rusefi_sourceforge\firmware\iar\..\chibios\ /
//                       boards\ST_STM32F4_DISCOVERY\ -I                      /
//                       F:\stuff\rusefi_sourceforge\firmware\iar\..\controll /
//                       ers\ -I F:\stuff\rusefi_sourceforge\firmware\iar\..\ /
//                       controllers\algo\ -I F:\stuff\rusefi_sourceforge\fir /
//                       mware\iar\..\controllers\core\ -I                    /
//                       F:\stuff\rusefi_sourceforge\firmware\iar\..\controll /
//                       ers\system\ -I F:\stuff\rusefi_sourceforge\firmware\ /
//                       iar\..\controllers\sensors\ -I                       /
//                       F:\stuff\rusefi_sourceforge\firmware\iar\..\controll /
//                       ers\math\ -I F:\stuff\rusefi_sourceforge\firmware\ia /
//                       r\..\controllers\trigger\ -I                         /
//                       F:\stuff\rusefi_sourceforge\firmware\iar\..\console\ /
//                        -I F:\stuff\rusefi_sourceforge\firmware\iar\..\conf /
//                       ig\ -I F:\stuff\rusefi_sourceforge\firmware\iar\..\c /
//                       onfig\engines\ -I F:\stuff\rusefi_sourceforge\firmwa /
//                       re\iar\..\config\stm32f4ems\ -I                      /
//                       F:\stuff\rusefi_sourceforge\firmware\iar\..\console\ /
//                       binary\ -I F:\stuff\rusefi_sourceforge\firmware\iar\ /
//                       ..\console_util\ -I F:\stuff\rusefi_sourceforge\firm /
//                       ware\iar\..\development\ -I                          /
//                       F:\stuff\rusefi_sourceforge\firmware\iar\..\developm /
//                       ent\test\ -I F:\stuff\rusefi_sourceforge\firmware\ia /
//                       r\..\development\hw_layer\ -I                        /
//                       F:\stuff\rusefi_sourceforge\firmware\iar\..\hw_layer /
//                       \algo\ -I F:\stuff\rusefi_sourceforge\firmware\iar\. /
//                       .\hw_layer\lcd\ -I F:\stuff\rusefi_sourceforge\firmw /
//                       are\iar\..\hw_layer\stm32f4\ -I                      /
//                       F:\stuff\rusefi_sourceforge\firmware\iar\..\hw_layer /
//                       \serial_over_usb\ -I F:\stuff\rusefi_sourceforge\fir /
//                       mware\iar\..\hw_layer\ -I                            /
//                       F:\stuff\rusefi_sourceforge\firmware\iar\..\ext\ -I  /
//                       F:\stuff\rusefi_sourceforge\firmware\iar\..\ext_algo /
//                       \ -I F:\stuff\rusefi_sourceforge\firmware\iar\..\dev /
//                       elopment\ -I F:\stuff\rusefi_sourceforge\firmware\ia /
//                       r\..\development\hw_layer\ -I                        /
//                       F:\stuff\rusefi_sourceforge\firmware\iar\..\util\    /
//                       -On                                                  /
//    MISRA C version =  2004                                                 /
//      Enabled       =  1.2-1.4 2.3 3.4 4.2 6.5 7 8.2 8.3 9.3 12.3 13.6      /
//                       13.7 15.5 17.3 19.17 20.7-20.9 20.11                 /
//      Checked       =  1.4 2.3 4.2 6.5 7 8.2 8.3 9.3 12.3 13.7 15.5         /
//                       20.7-20.9 20.11                                      /
//      Not checked   =  1.1-1.3 1.5-2.2 2.4-4.1 5-6.4 8.1 8.4-9.2 10-12.2    /
//                       12.4-13.6 14-15.4 16-20.6 20.10 20.12 21             /
//    List file       =  F:\stuff\rusefi_sourceforge\firmware\iar\Debug\List\ /
//                       ff.s                                                 /
//                                                                            /
//                                                                            /
///////////////////////////////////////////////////////////////////////////////

        NAME ff

        RTMODEL "__SystemLibrary", "DLib"
        AAPCS BASE,INTERWORK,VFP
        PRESERVE8
        REQUIRE8

        #define SHT_PROGBITS 0x1

        EXTERN disk_initialize
        EXTERN disk_ioctl
        EXTERN disk_read
        EXTERN disk_status
        EXTERN disk_write
        EXTERN ff_convert
        EXTERN ff_memalloc
        EXTERN ff_memfree
        EXTERN ff_wtoupper
        EXTERN get_fattime

        PUBLIC clust2sect
        PUBLIC f_chmod
        PUBLIC f_close
        PUBLIC f_getfree
        PUBLIC f_lseek
        PUBLIC f_mkdir
        PUBLIC f_mount
        PUBLIC f_open
        PUBLIC f_opendir
        PUBLIC f_read
        PUBLIC f_readdir
        PUBLIC f_rename
        PUBLIC f_stat
        PUBLIC f_sync
        PUBLIC f_truncate
        PUBLIC f_unlink
        PUBLIC f_utime
        PUBLIC f_write
        PUBLIC gen_numname
        PUBLIC get_fat
        PUBLIC put_fat
        
          CFI Names cfiNames0
          CFI StackFrame CFA R13 DATA
          CFI Resource R0:32, R1:32, R2:32, R3:32, R4:32, R5:32, R6:32, R7:32
          CFI Resource R8:32, R9:32, R10:32, R11:32, R12:32, R13:32, R14:32
          CFI Resource D0:64, D1:64, D2:64, D3:64, D4:64, D5:64, D6:64, D7:64
          CFI Resource D8:64, D9:64, D10:64, D11:64, D12:64, D13:64, D14:64
          CFI Resource D15:64
          CFI EndNames cfiNames0
        
          CFI Common cfiCommon0 Using cfiNames0
          CFI CodeAlign 2
          CFI DataAlign 4
          CFI ReturnAddress R14 CODE
          CFI CFA R13+0
          CFI R0 Undefined
          CFI R1 Undefined
          CFI R2 Undefined
          CFI R3 Undefined
          CFI R4 SameValue
          CFI R5 SameValue
          CFI R6 SameValue
          CFI R7 SameValue
          CFI R8 SameValue
          CFI R9 SameValue
          CFI R10 SameValue
          CFI R11 SameValue
          CFI R12 Undefined
          CFI R14 SameValue
          CFI D0 Undefined
          CFI D1 Undefined
          CFI D2 Undefined
          CFI D3 Undefined
          CFI D4 Undefined
          CFI D5 Undefined
          CFI D6 Undefined
          CFI D7 Undefined
          CFI D8 SameValue
          CFI D9 SameValue
          CFI D10 SameValue
          CFI D11 SameValue
          CFI D12 SameValue
          CFI D13 SameValue
          CFI D14 SameValue
          CFI D15 SameValue
          CFI EndCommon cfiCommon0
        
// F:\stuff\rusefi_sourceforge\firmware\chibios\ext\fatfs\src\ff.c
//    1 /*----------------------------------------------------------------------------/
//    2 /  FatFs - FAT file system module  R0.09                  (C)ChaN, 2011
//    3 /-----------------------------------------------------------------------------/
//    4 / FatFs module is a generic FAT file system module for small embedded systems.
//    5 / This is a free software that opened for education, research and commercial
//    6 / developments under license policy of following terms.
//    7 /
//    8 /  Copyright (C) 2011, ChaN, all right reserved.
//    9 /
//   10 / * The FatFs module is a free software and there is NO WARRANTY.
//   11 / * No restriction on use. You can use, modify and redistribute it for
//   12 /   personal, non-profit or commercial products UNDER YOUR RESPONSIBILITY.
//   13 / * Redistributions of source code must retain the above copyright notice.
//   14 /
//   15 /-----------------------------------------------------------------------------/
//   16 / Feb 26,'06 R0.00  Prototype.
//   17 /
//   18 / Apr 29,'06 R0.01  First stable version.
//   19 /
//   20 / Jun 01,'06 R0.02  Added FAT12 support.
//   21 /                   Removed unbuffered mode.
//   22 /                   Fixed a problem on small (<32M) partition.
//   23 / Jun 10,'06 R0.02a Added a configuration option (_FS_MINIMUM).
//   24 /
//   25 / Sep 22,'06 R0.03  Added f_rename().
//   26 /                   Changed option _FS_MINIMUM to _FS_MINIMIZE.
//   27 / Dec 11,'06 R0.03a Improved cluster scan algorithm to write files fast.
//   28 /                   Fixed f_mkdir() creates incorrect directory on FAT32.
//   29 /
//   30 / Feb 04,'07 R0.04  Supported multiple drive system.
//   31 /                   Changed some interfaces for multiple drive system.
//   32 /                   Changed f_mountdrv() to f_mount().
//   33 /                   Added f_mkfs().
//   34 / Apr 01,'07 R0.04a Supported multiple partitions on a physical drive.
//   35 /                   Added a capability of extending file size to f_lseek().
//   36 /                   Added minimization level 3.
//   37 /                   Fixed an endian sensitive code in f_mkfs().
//   38 / May 05,'07 R0.04b Added a configuration option _USE_NTFLAG.
//   39 /                   Added FSInfo support.
//   40 /                   Fixed DBCS name can result FR_INVALID_NAME.
//   41 /                   Fixed short seek (<= csize) collapses the file object.
//   42 /
//   43 / Aug 25,'07 R0.05  Changed arguments of f_read(), f_write() and f_mkfs().
//   44 /                   Fixed f_mkfs() on FAT32 creates incorrect FSInfo.
//   45 /                   Fixed f_mkdir() on FAT32 creates incorrect directory.
//   46 / Feb 03,'08 R0.05a Added f_truncate() and f_utime().
//   47 /                   Fixed off by one error at FAT sub-type determination.
//   48 /                   Fixed btr in f_read() can be mistruncated.
//   49 /                   Fixed cached sector is not flushed when create and close without write.
//   50 /
//   51 / Apr 01,'08 R0.06  Added fputc(), fputs(), fprintf() and fgets().
//   52 /                   Improved performance of f_lseek() on moving to the same or following cluster.
//   53 /
//   54 / Apr 01,'09 R0.07  Merged Tiny-FatFs as a configuration option. (_FS_TINY)
//   55 /                   Added long file name feature.
//   56 /                   Added multiple code page feature.
//   57 /                   Added re-entrancy for multitask operation.
//   58 /                   Added auto cluster size selection to f_mkfs().
//   59 /                   Added rewind option to f_readdir().
//   60 /                   Changed result code of critical errors.
//   61 /                   Renamed string functions to avoid name collision.
//   62 / Apr 14,'09 R0.07a Separated out OS dependent code on reentrant cfg.
//   63 /                   Added multiple sector size feature.
//   64 / Jun 21,'09 R0.07c Fixed f_unlink() can return FR_OK on error.
//   65 /                   Fixed wrong cache control in f_lseek().
//   66 /                   Added relative path feature.
//   67 /                   Added f_chdir() and f_chdrive().
//   68 /                   Added proper case conversion to extended char.
//   69 / Nov 03,'09 R0.07e Separated out configuration options from ff.h to ffconf.h.
//   70 /                   Fixed f_unlink() fails to remove a sub-dir on _FS_RPATH.
//   71 /                   Fixed name matching error on the 13 char boundary.
//   72 /                   Added a configuration option, _LFN_UNICODE.
//   73 /                   Changed f_readdir() to return the SFN with always upper case on non-LFN cfg.
//   74 /
//   75 / May 15,'10 R0.08  Added a memory configuration option. (_USE_LFN = 3)
//   76 /                   Added file lock feature. (_FS_SHARE)
//   77 /                   Added fast seek feature. (_USE_FASTSEEK)
//   78 /                   Changed some types on the API, XCHAR->TCHAR.
//   79 /                   Changed fname member in the FILINFO structure on Unicode cfg.
//   80 /                   String functions support UTF-8 encoding files on Unicode cfg.
//   81 / Aug 16,'10 R0.08a Added f_getcwd(). (_FS_RPATH = 2)
//   82 /                   Added sector erase feature. (_USE_ERASE)
//   83 /                   Moved file lock semaphore table from fs object to the bss.
//   84 /                   Fixed a wrong directory entry is created on non-LFN cfg when the given name contains ';'.
//   85 /                   Fixed f_mkfs() creates wrong FAT32 volume.
//   86 / Jan 15,'11 R0.08b Fast seek feature is also applied to f_read() and f_write().
//   87 /                   f_lseek() reports required table size on creating CLMP.
//   88 /                   Extended format syntax of f_printf function.
//   89 /                   Ignores duplicated directory separators in given path names.
//   90 /
//   91 / Sep 06,'11 R0.09  f_mkfs() supports multiple partition to finish the multiple partition feature.
//   92 /                   Added f_fdisk(). (_MULTI_PARTITION = 2)
//   93 /---------------------------------------------------------------------------*/
//   94 
//   95 #include "ff.h"			/* FatFs configurations and declarations */
//   96 #include "diskio.h"		/* Declarations of low level disk I/O functions */
//   97 
//   98 
//   99 /*--------------------------------------------------------------------------
//  100 
//  101    Module Private Definitions
//  102 
//  103 ---------------------------------------------------------------------------*/
//  104 
//  105 #if _FATFS != 6502	/* Revision ID */
//  106 #error Wrong include file (ff.h).
//  107 #endif
//  108 
//  109 
//  110 /* Definitions on sector size */
//  111 #if _MAX_SS != 512 && _MAX_SS != 1024 && _MAX_SS != 2048 && _MAX_SS != 4096
//  112 #error Wrong sector size.
//  113 #endif
//  114 #if _MAX_SS != 512
//  115 #define	SS(fs)	((fs)->ssize)	/* Variable sector size */
//  116 #else
//  117 #define	SS(fs)	512U			/* Fixed sector size */
//  118 #endif
//  119 
//  120 
//  121 /* Reentrancy related */
//  122 #if _FS_REENTRANT
//  123 #if _USE_LFN == 1
//  124 #error Static LFN work area must not be used in re-entrant configuration.
//  125 #endif
//  126 #define	ENTER_FF(fs)		{ if (!lock_fs(fs)) return FR_TIMEOUT; }
//  127 #define	LEAVE_FF(fs, res)	{ unlock_fs(fs, res); return res; }
//  128 #else
//  129 #define	ENTER_FF(fs)
//  130 #define LEAVE_FF(fs, res)	return res
//  131 #endif
//  132 
//  133 #define	ABORT(fs, res)		{ fp->flag |= FA__ERROR; LEAVE_FF(fs, res); }
//  134 
//  135 
//  136 /* File shareing feature */
//  137 #if _FS_SHARE
//  138 #if _FS_READONLY
//  139 #error _FS_SHARE must be 0 on read-only cfg.
//  140 #endif
//  141 typedef struct {
//  142 	FATFS *fs;				/* File ID 1, volume (NULL:blank entry) */
//  143 	DWORD clu;				/* File ID 2, directory */
//  144 	WORD idx;				/* File ID 3, directory index */
//  145 	WORD ctr;				/* File open counter, 0:none, 0x01..0xFF:read open count, 0x100:write mode */
//  146 } FILESEM;
//  147 #endif
//  148 
//  149 
//  150 /* Misc definitions */
//  151 #define LD_CLUST(dir)	(((DWORD)LD_WORD(dir+DIR_FstClusHI)<<16) | LD_WORD(dir+DIR_FstClusLO))
//  152 #define ST_CLUST(dir,cl) {ST_WORD(dir+DIR_FstClusLO, cl); ST_WORD(dir+DIR_FstClusHI, (DWORD)cl>>16);}
//  153 
//  154 
//  155 /* DBCS code ranges and SBCS extend char conversion table */
//  156 
//  157 #if _CODE_PAGE == 932	/* Japanese Shift-JIS */
//  158 #define _DF1S	0x81	/* DBC 1st byte range 1 start */
//  159 #define _DF1E	0x9F	/* DBC 1st byte range 1 end */
//  160 #define _DF2S	0xE0	/* DBC 1st byte range 2 start */
//  161 #define _DF2E	0xFC	/* DBC 1st byte range 2 end */
//  162 #define _DS1S	0x40	/* DBC 2nd byte range 1 start */
//  163 #define _DS1E	0x7E	/* DBC 2nd byte range 1 end */
//  164 #define _DS2S	0x80	/* DBC 2nd byte range 2 start */
//  165 #define _DS2E	0xFC	/* DBC 2nd byte range 2 end */
//  166 
//  167 #elif _CODE_PAGE == 936	/* Simplified Chinese GBK */
//  168 #define _DF1S	0x81
//  169 #define _DF1E	0xFE
//  170 #define _DS1S	0x40
//  171 #define _DS1E	0x7E
//  172 #define _DS2S	0x80
//  173 #define _DS2E	0xFE
//  174 
//  175 #elif _CODE_PAGE == 949	/* Korean */
//  176 #define _DF1S	0x81
//  177 #define _DF1E	0xFE
//  178 #define _DS1S	0x41
//  179 #define _DS1E	0x5A
//  180 #define _DS2S	0x61
//  181 #define _DS2E	0x7A
//  182 #define _DS3S	0x81
//  183 #define _DS3E	0xFE
//  184 
//  185 #elif _CODE_PAGE == 950	/* Traditional Chinese Big5 */
//  186 #define _DF1S	0x81
//  187 #define _DF1E	0xFE
//  188 #define _DS1S	0x40
//  189 #define _DS1E	0x7E
//  190 #define _DS2S	0xA1
//  191 #define _DS2E	0xFE
//  192 
//  193 #elif _CODE_PAGE == 437	/* U.S. (OEM) */
//  194 #define _DF1S	0
//  195 #define _EXCVT {0x80,0x9A,0x90,0x41,0x8E,0x41,0x8F,0x80,0x45,0x45,0x45,0x49,0x49,0x49,0x8E,0x8F,0x90,0x92,0x92,0x4F,0x99,0x4F,0x55,0x55,0x59,0x99,0x9A,0x9B,0x9C,0x9D,0x9E,0x9F, \ 
//  196 				0x41,0x49,0x4F,0x55,0xA5,0xA5,0xA6,0xA7,0xA8,0xA9,0xAA,0xAB,0xAC,0x21,0xAE,0xAF,0xB0,0xB1,0xB2,0xB3,0xB4,0xB5,0xB6,0xB7,0xB8,0xB9,0xBA,0xBB,0xBC,0xBD,0xBE,0xBF, \ 
//  197 				0xC0,0xC1,0xC2,0xC3,0xC4,0xC5,0xC6,0xC7,0xC8,0xC9,0xCA,0xCB,0xCC,0xCD,0xCE,0xCF,0xD0,0xD1,0xD2,0xD3,0xD4,0xD5,0xD6,0xD7,0xD8,0xD9,0xDA,0xDB,0xDC,0xDD,0xDE,0xDF, \ 
//  198 				0xE0,0xE1,0xE2,0xE3,0xE4,0xE5,0xE6,0xE7,0xE8,0xE9,0xEA,0xEB,0xEC,0xED,0xEE,0xEF,0xF0,0xF1,0xF2,0xF3,0xF4,0xF5,0xF6,0xF7,0xF8,0xF9,0xFA,0xFB,0xFC,0xFD,0xFE,0xFF}
//  199 
//  200 #elif _CODE_PAGE == 720	/* Arabic (OEM) */
//  201 #define _DF1S	0
//  202 #define _EXCVT {0x80,0x81,0x45,0x41,0x84,0x41,0x86,0x43,0x45,0x45,0x45,0x49,0x49,0x8D,0x8E,0x8F,0x90,0x92,0x92,0x93,0x94,0x95,0x49,0x49,0x98,0x99,0x9A,0x9B,0x9C,0x9D,0x9E,0x9F, \ 
//  203 				0xA0,0xA1,0xA2,0xA3,0xA4,0xA5,0xA6,0xA7,0xA8,0xA9,0xAA,0xAB,0xAC,0xAD,0xAE,0xAF,0xB0,0xB1,0xB2,0xB3,0xB4,0xB5,0xB6,0xB7,0xB8,0xB9,0xBA,0xBB,0xBC,0xBD,0xBE,0xBF, \ 
//  204 				0xC0,0xC1,0xC2,0xC3,0xC4,0xC5,0xC6,0xC7,0xC8,0xC9,0xCA,0xCB,0xCC,0xCD,0xCE,0xCF,0xD0,0xD1,0xD2,0xD3,0xD4,0xD5,0xD6,0xD7,0xD8,0xD9,0xDA,0xDB,0xDC,0xDD,0xDE,0xDF, \ 
//  205 				0xE0,0xE1,0xE2,0xE3,0xE4,0xE5,0xE6,0xE7,0xE8,0xE9,0xEA,0xEB,0xEC,0xED,0xEE,0xEF,0xF0,0xF1,0xF2,0xF3,0xF4,0xF5,0xF6,0xF7,0xF8,0xF9,0xFA,0xFB,0xFC,0xFD,0xFE,0xFF}
//  206 
//  207 #elif _CODE_PAGE == 737	/* Greek (OEM) */
//  208 #define _DF1S	0
//  209 #define _EXCVT {0x80,0x81,0x82,0x83,0x84,0x85,0x86,0x87,0x88,0x89,0x8A,0x8B,0x8C,0x8D,0x8E,0x8F,0x90,0x92,0x92,0x93,0x94,0x95,0x96,0x97,0x80,0x81,0x82,0x83,0x84,0x85,0x86,0x87, \ 
//  210 				0x88,0x89,0x8A,0x8B,0x8C,0x8D,0x8E,0x8F,0x90,0x91,0xAA,0x92,0x93,0x94,0x95,0x96,0xB0,0xB1,0xB2,0xB3,0xB4,0xB5,0xB6,0xB7,0xB8,0xB9,0xBA,0xBB,0xBC,0xBD,0xBE,0xBF, \ 
//  211 				0xC0,0xC1,0xC2,0xC3,0xC4,0xC5,0xC6,0xC7,0xC8,0xC9,0xCA,0xCB,0xCC,0xCD,0xCE,0xCF,0xD0,0xD1,0xD2,0xD3,0xD4,0xD5,0xD6,0xD7,0xD8,0xD9,0xDA,0xDB,0xDC,0xDD,0xDE,0xDF, \ 
//  212 				0x97,0xEA,0xEB,0xEC,0xE4,0xED,0xEE,0xE7,0xE8,0xF1,0xEA,0xEB,0xEC,0xED,0xEE,0xEF,0xF0,0xF1,0xF2,0xF3,0xF4,0xF5,0xF6,0xF7,0xF8,0xF9,0xFA,0xFB,0xFC,0xFD,0xFE,0xFF}
//  213 
//  214 #elif _CODE_PAGE == 775	/* Baltic (OEM) */
//  215 #define _DF1S	0
//  216 #define _EXCVT {0x80,0x9A,0x91,0xA0,0x8E,0x95,0x8F,0x80,0xAD,0xED,0x8A,0x8A,0xA1,0x8D,0x8E,0x8F,0x90,0x92,0x92,0xE2,0x99,0x95,0x96,0x97,0x97,0x99,0x9A,0x9D,0x9C,0x9D,0x9E,0x9F, \ 
//  217 				0xA0,0xA1,0xE0,0xA3,0xA3,0xA5,0xA6,0xA7,0xA8,0xA9,0xAA,0xAB,0xAC,0xAD,0xAE,0xAF,0xB0,0xB1,0xB2,0xB3,0xB4,0xB5,0xB6,0xB7,0xB8,0xB9,0xBA,0xBB,0xBC,0xBD,0xBE,0xBF, \ 
//  218 				0xC0,0xC1,0xC2,0xC3,0xC4,0xC5,0xC6,0xC7,0xC8,0xC9,0xCA,0xCB,0xCC,0xCD,0xCE,0xCF,0xB5,0xB6,0xB7,0xB8,0xBD,0xBE,0xC6,0xC7,0xA5,0xD9,0xDA,0xDB,0xDC,0xDD,0xDE,0xDF, \ 
//  219 				0xE0,0xE1,0xE2,0xE3,0xE5,0xE5,0xE6,0xE3,0xE8,0xE8,0xEA,0xEA,0xEE,0xED,0xEE,0xEF,0xF0,0xF1,0xF2,0xF3,0xF4,0xF5,0xF6,0xF7,0xF8,0xF9,0xFA,0xFB,0xFC,0xFD,0xFE,0xFF}
//  220 
//  221 #elif _CODE_PAGE == 850	/* Multilingual Latin 1 (OEM) */
//  222 #define _DF1S	0
//  223 #define _EXCVT {0x80,0x9A,0x90,0xB6,0x8E,0xB7,0x8F,0x80,0xD2,0xD3,0xD4,0xD8,0xD7,0xDE,0x8E,0x8F,0x90,0x92,0x92,0xE2,0x99,0xE3,0xEA,0xEB,0x59,0x99,0x9A,0x9D,0x9C,0x9D,0x9E,0x9F, \ 
//  224 				0xB5,0xD6,0xE0,0xE9,0xA5,0xA5,0xA6,0xA7,0xA8,0xA9,0xAA,0xAB,0xAC,0x21,0xAE,0xAF,0xB0,0xB1,0xB2,0xB3,0xB4,0xB5,0xB6,0xB7,0xB8,0xB9,0xBA,0xBB,0xBC,0xBD,0xBE,0xBF, \ 
//  225 				0xC0,0xC1,0xC2,0xC3,0xC4,0xC5,0xC7,0xC7,0xC8,0xC9,0xCA,0xCB,0xCC,0xCD,0xCE,0xCF,0xD0,0xD1,0xD2,0xD3,0xD4,0xD5,0xD6,0xD7,0xD8,0xD9,0xDA,0xDB,0xDC,0xDD,0xDE,0xDF, \ 
//  226 				0xE0,0xE1,0xE2,0xE3,0xE5,0xE5,0xE6,0xE7,0xE7,0xE9,0xEA,0xEB,0xED,0xED,0xEE,0xEF,0xF0,0xF1,0xF2,0xF3,0xF4,0xF5,0xF6,0xF7,0xF8,0xF9,0xFA,0xFB,0xFC,0xFD,0xFE,0xFF}
//  227 
//  228 #elif _CODE_PAGE == 852	/* Latin 2 (OEM) */
//  229 #define _DF1S	0
//  230 #define _EXCVT {0x80,0x9A,0x90,0xB6,0x8E,0xDE,0x8F,0x80,0x9D,0xD3,0x8A,0x8A,0xD7,0x8D,0x8E,0x8F,0x90,0x91,0x91,0xE2,0x99,0x95,0x95,0x97,0x97,0x99,0x9A,0x9B,0x9B,0x9D,0x9E,0x9F, \ 
//  231 				0xB5,0xD6,0xE0,0xE9,0xA4,0xA4,0xA6,0xA6,0xA8,0xA8,0xAA,0x8D,0xAC,0xB8,0xAE,0xAF,0xB0,0xB1,0xB2,0xB3,0xB4,0xB5,0xB6,0xB7,0xB8,0xB9,0xBA,0xBB,0xBC,0xBD,0xBD,0xBF, \ 
//  232 				0xC0,0xC1,0xC2,0xC3,0xC4,0xC5,0xC6,0xC6,0xC8,0xC9,0xCA,0xCB,0xCC,0xCD,0xCE,0xCF,0xD1,0xD1,0xD2,0xD3,0xD2,0xD5,0xD6,0xD7,0xB7,0xD9,0xDA,0xDB,0xDC,0xDD,0xDE,0xDF, \ 
//  233 				0xE0,0xE1,0xE2,0xE3,0xE3,0xD5,0xE6,0xE6,0xE8,0xE9,0xE8,0xEB,0xED,0xED,0xDD,0xEF,0xF0,0xF1,0xF2,0xF3,0xF4,0xF5,0xF6,0xF7,0xF8,0xF9,0xFA,0xEB,0xFC,0xFC,0xFE,0xFF}
//  234 
//  235 #elif _CODE_PAGE == 855	/* Cyrillic (OEM) */
//  236 #define _DF1S	0
//  237 #define _EXCVT {0x81,0x81,0x83,0x83,0x85,0x85,0x87,0x87,0x89,0x89,0x8B,0x8B,0x8D,0x8D,0x8F,0x8F,0x91,0x91,0x93,0x93,0x95,0x95,0x97,0x97,0x99,0x99,0x9B,0x9B,0x9D,0x9D,0x9F,0x9F, \ 
//  238 				0xA1,0xA1,0xA3,0xA3,0xA5,0xA5,0xA7,0xA7,0xA9,0xA9,0xAB,0xAB,0xAD,0xAD,0xAE,0xAF,0xB0,0xB1,0xB2,0xB3,0xB4,0xB6,0xB6,0xB8,0xB8,0xB9,0xBA,0xBB,0xBC,0xBE,0xBE,0xBF, \ 
//  239 				0xC0,0xC1,0xC2,0xC3,0xC4,0xC5,0xC7,0xC7,0xC8,0xC9,0xCA,0xCB,0xCC,0xCD,0xCE,0xCF,0xD1,0xD1,0xD3,0xD3,0xD5,0xD5,0xD7,0xD7,0xDD,0xD9,0xDA,0xDB,0xDC,0xDD,0xE0,0xDF, \ 
//  240 				0xE0,0xE2,0xE2,0xE4,0xE4,0xE6,0xE6,0xE8,0xE8,0xEA,0xEA,0xEC,0xEC,0xEE,0xEE,0xEF,0xF0,0xF2,0xF2,0xF4,0xF4,0xF6,0xF6,0xF8,0xF8,0xFA,0xFA,0xFC,0xFC,0xFD,0xFE,0xFF}
//  241 
//  242 #elif _CODE_PAGE == 857	/* Turkish (OEM) */
//  243 #define _DF1S	0
//  244 #define _EXCVT {0x80,0x9A,0x90,0xB6,0x8E,0xB7,0x8F,0x80,0xD2,0xD3,0xD4,0xD8,0xD7,0x98,0x8E,0x8F,0x90,0x92,0x92,0xE2,0x99,0xE3,0xEA,0xEB,0x98,0x99,0x9A,0x9D,0x9C,0x9D,0x9E,0x9E, \ 
//  245 				0xB5,0xD6,0xE0,0xE9,0xA5,0xA5,0xA6,0xA6,0xA8,0xA9,0xAA,0xAB,0xAC,0x21,0xAE,0xAF,0xB0,0xB1,0xB2,0xB3,0xB4,0xB5,0xB6,0xB7,0xB8,0xB9,0xBA,0xBB,0xBC,0xBD,0xBE,0xBF, \ 
//  246 				0xC0,0xC1,0xC2,0xC3,0xC4,0xC5,0xC7,0xC7,0xC8,0xC9,0xCA,0xCB,0xCC,0xCD,0xCE,0xCF,0xD0,0xD1,0xD2,0xD3,0xD4,0xD5,0xD6,0xD7,0xD8,0xD9,0xDA,0xDB,0xDC,0xDD,0xDE,0xDF, \ 
//  247 				0xE0,0xE1,0xE2,0xE3,0xE5,0xE5,0xE6,0xE7,0xE8,0xE9,0xEA,0xEB,0xDE,0x59,0xEE,0xEF,0xF0,0xF1,0xF2,0xF3,0xF4,0xF5,0xF6,0xF7,0xF8,0xF9,0xFA,0xFB,0xFC,0xFD,0xFE,0xFF}
//  248 
//  249 #elif _CODE_PAGE == 858	/* Multilingual Latin 1 + Euro (OEM) */
//  250 #define _DF1S	0
//  251 #define _EXCVT {0x80,0x9A,0x90,0xB6,0x8E,0xB7,0x8F,0x80,0xD2,0xD3,0xD4,0xD8,0xD7,0xDE,0x8E,0x8F,0x90,0x92,0x92,0xE2,0x99,0xE3,0xEA,0xEB,0x59,0x99,0x9A,0x9D,0x9C,0x9D,0x9E,0x9F, \ 
//  252 				0xB5,0xD6,0xE0,0xE9,0xA5,0xA5,0xA6,0xA7,0xA8,0xA9,0xAA,0xAB,0xAC,0x21,0xAE,0xAF,0xB0,0xB1,0xB2,0xB3,0xB4,0xB5,0xB6,0xB7,0xB8,0xB9,0xBA,0xBB,0xBC,0xBD,0xBE,0xBF, \ 
//  253 				0xC0,0xC1,0xC2,0xC3,0xC4,0xC5,0xC7,0xC7,0xC8,0xC9,0xCA,0xCB,0xCC,0xCD,0xCE,0xCF,0xD1,0xD1,0xD2,0xD3,0xD4,0xD5,0xD6,0xD7,0xD8,0xD9,0xDA,0xDB,0xDC,0xDD,0xDE,0xDF, \ 
//  254 				0xE0,0xE1,0xE2,0xE3,0xE5,0xE5,0xE6,0xE7,0xE7,0xE9,0xEA,0xEB,0xED,0xED,0xEE,0xEF,0xF0,0xF1,0xF2,0xF3,0xF4,0xF5,0xF6,0xF7,0xF8,0xF9,0xFA,0xFB,0xFC,0xFD,0xFE,0xFF}
//  255 
//  256 #elif _CODE_PAGE == 862	/* Hebrew (OEM) */
//  257 #define _DF1S	0
//  258 #define _EXCVT {0x80,0x81,0x82,0x83,0x84,0x85,0x86,0x87,0x88,0x89,0x8A,0x8B,0x8C,0x8D,0x8E,0x8F,0x90,0x91,0x92,0x93,0x94,0x95,0x96,0x97,0x98,0x99,0x9A,0x9B,0x9C,0x9D,0x9E,0x9F, \ 
//  259 				0x41,0x49,0x4F,0x55,0xA5,0xA5,0xA6,0xA7,0xA8,0xA9,0xAA,0xAB,0xAC,0x21,0xAE,0xAF,0xB0,0xB1,0xB2,0xB3,0xB4,0xB5,0xB6,0xB7,0xB8,0xB9,0xBA,0xBB,0xBC,0xBD,0xBE,0xBF, \ 
//  260 				0xC0,0xC1,0xC2,0xC3,0xC4,0xC5,0xC6,0xC7,0xC8,0xC9,0xCA,0xCB,0xCC,0xCD,0xCE,0xCF,0xD0,0xD1,0xD2,0xD3,0xD4,0xD5,0xD6,0xD7,0xD8,0xD9,0xDA,0xDB,0xDC,0xDD,0xDE,0xDF, \ 
//  261 				0xE0,0xE1,0xE2,0xE3,0xE4,0xE5,0xE6,0xE7,0xE8,0xE9,0xEA,0xEB,0xEC,0xED,0xEE,0xEF,0xF0,0xF1,0xF2,0xF3,0xF4,0xF5,0xF6,0xF7,0xF8,0xF9,0xFA,0xFB,0xFC,0xFD,0xFE,0xFF}
//  262 
//  263 #elif _CODE_PAGE == 866	/* Russian (OEM) */
//  264 #define _DF1S	0
//  265 #define _EXCVT {0x80,0x81,0x82,0x83,0x84,0x85,0x86,0x87,0x88,0x89,0x8A,0x8B,0x8C,0x8D,0x8E,0x8F,0x90,0x91,0x92,0x93,0x94,0x95,0x96,0x97,0x98,0x99,0x9A,0x9B,0x9C,0x9D,0x9E,0x9F, \ 
//  266 				0x80,0x81,0x82,0x83,0x84,0x85,0x86,0x87,0x88,0x89,0x8A,0x8B,0x8C,0x8D,0x8E,0x8F,0xB0,0xB1,0xB2,0xB3,0xB4,0xB5,0xB6,0xB7,0xB8,0xB9,0xBA,0xBB,0xBC,0xBD,0xBE,0xBF, \ 
//  267 				0xC0,0xC1,0xC2,0xC3,0xC4,0xC5,0xC6,0xC7,0xC8,0xC9,0xCA,0xCB,0xCC,0xCD,0xCE,0xCF,0xD0,0xD1,0xD2,0xD3,0xD4,0xD5,0xD6,0xD7,0xD8,0xD9,0xDA,0xDB,0xDC,0xDD,0xDE,0xDF, \ 
//  268 				0x90,0x91,0x92,0x93,0x9d,0x95,0x96,0x97,0x98,0x99,0x9A,0x9B,0x9C,0x9D,0x9E,0x9F,0xF0,0xF0,0xF2,0xF2,0xF4,0xF4,0xF6,0xF6,0xF8,0xF9,0xFA,0xFB,0xFC,0xFD,0xFE,0xFF}
//  269 
//  270 #elif _CODE_PAGE == 874	/* Thai (OEM, Windows) */
//  271 #define _DF1S	0
//  272 #define _EXCVT {0x80,0x81,0x82,0x83,0x84,0x85,0x86,0x87,0x88,0x89,0x8A,0x8B,0x8C,0x8D,0x8E,0x8F,0x90,0x91,0x92,0x93,0x94,0x95,0x96,0x97,0x98,0x99,0x9A,0x9B,0x9C,0x9D,0x9E,0x9F, \ 
//  273 				0xA0,0xA1,0xA2,0xA3,0xA4,0xA5,0xA6,0xA7,0xA8,0xA9,0xAA,0xAB,0xAC,0xAD,0xAE,0xAF,0xB0,0xB1,0xB2,0xB3,0xB4,0xB5,0xB6,0xB7,0xB8,0xB9,0xBA,0xBB,0xBC,0xBD,0xBE,0xBF, \ 
//  274 				0xC0,0xC1,0xC2,0xC3,0xC4,0xC5,0xC6,0xC7,0xC8,0xC9,0xCA,0xCB,0xCC,0xCD,0xCE,0xCF,0xD0,0xD1,0xD2,0xD3,0xD4,0xD5,0xD6,0xD7,0xD8,0xD9,0xDA,0xDB,0xDC,0xDD,0xDE,0xDF, \ 
//  275 				0xE0,0xE1,0xE2,0xE3,0xE4,0xE5,0xE6,0xE7,0xE8,0xE9,0xEA,0xEB,0xEC,0xED,0xEE,0xEF,0xF0,0xF1,0xF2,0xF3,0xF4,0xF5,0xF6,0xF7,0xF8,0xF9,0xFA,0xFB,0xFC,0xFD,0xFE,0xFF}
//  276 
//  277 #elif _CODE_PAGE == 1250 /* Central Europe (Windows) */
//  278 #define _DF1S	0
//  279 #define _EXCVT {0x80,0x81,0x82,0x83,0x84,0x85,0x86,0x87,0x88,0x89,0x8A,0x8B,0x8C,0x8D,0x8E,0x8F,0x90,0x91,0x92,0x93,0x94,0x95,0x96,0x97,0x98,0x99,0x8A,0x9B,0x8C,0x8D,0x8E,0x8F, \ 
//  280 				0xA0,0xA1,0xA2,0xA3,0xA4,0xA5,0xA6,0xA7,0xA8,0xA9,0xAA,0xAB,0xAC,0xAD,0xAE,0xAF,0xB0,0xB1,0xB2,0xA3,0xB4,0xB5,0xB6,0xB7,0xB8,0xA5,0xAA,0xBB,0xBC,0xBD,0xBC,0xAF, \ 
//  281 				0xC0,0xC1,0xC2,0xC3,0xC4,0xC5,0xC6,0xC7,0xC8,0xC9,0xCA,0xCB,0xCC,0xCD,0xCE,0xCF,0xD0,0xD1,0xD2,0xD3,0xD4,0xD5,0xD6,0xD7,0xD8,0xD9,0xDA,0xDB,0xDC,0xDD,0xDE,0xDF, \ 
//  282 				0xC0,0xC1,0xC2,0xC3,0xC4,0xC5,0xC6,0xC7,0xC8,0xC9,0xCA,0xCB,0xCC,0xCD,0xCE,0xCF,0xD0,0xD1,0xD2,0xD3,0xD4,0xD5,0xD6,0xF7,0xD8,0xD9,0xDA,0xDB,0xDC,0xDD,0xDE,0xFF}
//  283 
//  284 #elif _CODE_PAGE == 1251 /* Cyrillic (Windows) */
//  285 #define _DF1S	0
//  286 #define _EXCVT {0x80,0x81,0x82,0x82,0x84,0x85,0x86,0x87,0x88,0x89,0x8A,0x8B,0x8C,0x8D,0x8E,0x8F,0x80,0x91,0x92,0x93,0x94,0x95,0x96,0x97,0x98,0x99,0x8A,0x9B,0x8C,0x8D,0x8E,0x8F, \ 
//  287 				0xA0,0xA2,0xA2,0xA3,0xA4,0xA5,0xA6,0xA7,0xA8,0xA9,0xAA,0xAB,0xAC,0xAD,0xAE,0xAF,0xB0,0xB1,0xB2,0xB2,0xA5,0xB5,0xB6,0xB7,0xA8,0xB9,0xAA,0xBB,0xA3,0xBD,0xBD,0xAF, \ 
//  288 				0xC0,0xC1,0xC2,0xC3,0xC4,0xC5,0xC6,0xC7,0xC8,0xC9,0xCA,0xCB,0xCC,0xCD,0xCE,0xCF,0xD0,0xD1,0xD2,0xD3,0xD4,0xD5,0xD6,0xD7,0xD8,0xD9,0xDA,0xDB,0xDC,0xDD,0xDE,0xDF, \ 
//  289 				0xC0,0xC1,0xC2,0xC3,0xC4,0xC5,0xC6,0xC7,0xC8,0xC9,0xCA,0xCB,0xCC,0xCD,0xCE,0xCF,0xD0,0xD1,0xD2,0xD3,0xD4,0xD5,0xD6,0xD7,0xD8,0xD9,0xDA,0xDB,0xDC,0xDD,0xDE,0xDF}
//  290 
//  291 #elif _CODE_PAGE == 1252 /* Latin 1 (Windows) */
//  292 #define _DF1S	0
//  293 #define _EXCVT {0x80,0x81,0x82,0x83,0x84,0x85,0x86,0x87,0x88,0x89,0x8A,0x8B,0x8C,0x8D,0x8E,0x8F,0x90,0x91,0x92,0x93,0x94,0x95,0x96,0x97,0x98,0x99,0xAd,0x9B,0x8C,0x9D,0xAE,0x9F, \ 
//  294 				0xA0,0x21,0xA2,0xA3,0xA4,0xA5,0xA6,0xA7,0xA8,0xA9,0xAA,0xAB,0xAC,0xAD,0xAE,0xAF,0xB0,0xB1,0xB2,0xB3,0xB4,0xB5,0xB6,0xB7,0xB8,0xB9,0xBA,0xBB,0xBC,0xBD,0xBE,0xBF, \ 
//  295 				0xC0,0xC1,0xC2,0xC3,0xC4,0xC5,0xC6,0xC7,0xC8,0xC9,0xCA,0xCB,0xCC,0xCD,0xCE,0xCF,0xD0,0xD1,0xD2,0xD3,0xD4,0xD5,0xD6,0xD7,0xD8,0xD9,0xDA,0xDB,0xDC,0xDD,0xDE,0xDF, \ 
//  296 				0xC0,0xC1,0xC2,0xC3,0xC4,0xC5,0xC6,0xC7,0xC8,0xC9,0xCA,0xCB,0xCC,0xCD,0xCE,0xCF,0xD0,0xD1,0xD2,0xD3,0xD4,0xD5,0xD6,0xF7,0xD8,0xD9,0xDA,0xDB,0xDC,0xDD,0xDE,0x9F}
//  297 
//  298 #elif _CODE_PAGE == 1253 /* Greek (Windows) */
//  299 #define _DF1S	0
//  300 #define _EXCVT {0x80,0x81,0x82,0x83,0x84,0x85,0x86,0x87,0x88,0x89,0x8A,0x8B,0x8C,0x8D,0x8E,0x8F,0x90,0x91,0x92,0x93,0x94,0x95,0x96,0x97,0x98,0x99,0x9A,0x9B,0x9C,0x9D,0x9E,0x9F, \ 
//  301 				0xA0,0xA1,0xA2,0xA3,0xA4,0xA5,0xA6,0xA7,0xA8,0xA9,0xAA,0xAB,0xAC,0xAD,0xAE,0xAF,0xB0,0xB1,0xB2,0xB3,0xB4,0xB5,0xB6,0xB7,0xB8,0xB9,0xBA,0xBB,0xBC,0xBD,0xBE,0xBF, \ 
//  302 				0xC0,0xC1,0xC2,0xC3,0xC4,0xC5,0xC6,0xC7,0xC8,0xC9,0xCA,0xCB,0xCC,0xCD,0xCE,0xCF,0xD0,0xD1,0xD2,0xD3,0xD4,0xD5,0xD6,0xD7,0xD8,0xD9,0xDA,0xDB,0xA2,0xB8,0xB9,0xBA, \ 
//  303 				0xE0,0xC1,0xC2,0xC3,0xC4,0xC5,0xC6,0xC7,0xC8,0xC9,0xCA,0xCB,0xCC,0xCD,0xCE,0xCF,0xD0,0xD1,0xF2,0xD3,0xD4,0xD5,0xD6,0xD7,0xD8,0xD9,0xDA,0xFB,0xBC,0xFD,0xBF,0xFF}
//  304 
//  305 #elif _CODE_PAGE == 1254 /* Turkish (Windows) */
//  306 #define _DF1S	0
//  307 #define _EXCVT {0x80,0x81,0x82,0x83,0x84,0x85,0x86,0x87,0x88,0x89,0x8A,0x8B,0x8C,0x8D,0x8E,0x8F,0x90,0x91,0x92,0x93,0x94,0x95,0x96,0x97,0x98,0x99,0x8A,0x9B,0x8C,0x9D,0x9E,0x9F, \ 
//  308 				0xA0,0x21,0xA2,0xA3,0xA4,0xA5,0xA6,0xA7,0xA8,0xA9,0xAA,0xAB,0xAC,0xAD,0xAE,0xAF,0xB0,0xB1,0xB2,0xB3,0xB4,0xB5,0xB6,0xB7,0xB8,0xB9,0xBA,0xBB,0xBC,0xBD,0xBE,0xBF, \ 
//  309 				0xC0,0xC1,0xC2,0xC3,0xC4,0xC5,0xC6,0xC7,0xC8,0xC9,0xCA,0xCB,0xCC,0xCD,0xCE,0xCF,0xD0,0xD1,0xD2,0xD3,0xD4,0xD5,0xD6,0xD7,0xD8,0xD9,0xDA,0xDB,0xDC,0xDD,0xDE,0xDF, \ 
//  310 				0xC0,0xC1,0xC2,0xC3,0xC4,0xC5,0xC6,0xC7,0xC8,0xC9,0xCA,0xCB,0xCC,0xCD,0xCE,0xCF,0xD0,0xD1,0xD2,0xD3,0xD4,0xD5,0xD6,0xF7,0xD8,0xD9,0xDA,0xDB,0xDC,0xDD,0xDE,0x9F}
//  311 
//  312 #elif _CODE_PAGE == 1255 /* Hebrew (Windows) */
//  313 #define _DF1S	0
//  314 #define _EXCVT {0x80,0x81,0x82,0x83,0x84,0x85,0x86,0x87,0x88,0x89,0x8A,0x8B,0x8C,0x8D,0x8E,0x8F,0x90,0x91,0x92,0x93,0x94,0x95,0x96,0x97,0x98,0x99,0x9A,0x9B,0x9C,0x9D,0x9E,0x9F, \ 
//  315 				0xA0,0x21,0xA2,0xA3,0xA4,0xA5,0xA6,0xA7,0xA8,0xA9,0xAA,0xAB,0xAC,0xAD,0xAE,0xAF,0xB0,0xB1,0xB2,0xB3,0xB4,0xB5,0xB6,0xB7,0xB8,0xB9,0xBA,0xBB,0xBC,0xBD,0xBE,0xBF, \ 
//  316 				0xC0,0xC1,0xC2,0xC3,0xC4,0xC5,0xC6,0xC7,0xC8,0xC9,0xCA,0xCB,0xCC,0xCD,0xCE,0xCF,0xD0,0xD1,0xD2,0xD3,0xD4,0xD5,0xD6,0xD7,0xD8,0xD9,0xDA,0xDB,0xDC,0xDD,0xDE,0xDF, \ 
//  317 				0xE0,0xE1,0xE2,0xE3,0xE4,0xE5,0xE6,0xE7,0xE8,0xE9,0xEA,0xEB,0xEC,0xED,0xEE,0xEF,0xF0,0xF1,0xF2,0xF3,0xF4,0xF5,0xF6,0xF7,0xF8,0xF9,0xFA,0xFB,0xFC,0xFD,0xFE,0xFF}
//  318 
//  319 #elif _CODE_PAGE == 1256 /* Arabic (Windows) */
//  320 #define _DF1S	0
//  321 #define _EXCVT {0x80,0x81,0x82,0x83,0x84,0x85,0x86,0x87,0x88,0x89,0x8A,0x8B,0x8C,0x8D,0x8E,0x8F,0x90,0x91,0x92,0x93,0x94,0x95,0x96,0x97,0x98,0x99,0x9A,0x9B,0x8C,0x9D,0x9E,0x9F, \ 
//  322 				0xA0,0xA1,0xA2,0xA3,0xA4,0xA5,0xA6,0xA7,0xA8,0xA9,0xAA,0xAB,0xAC,0xAD,0xAE,0xAF,0xB0,0xB1,0xB2,0xB3,0xB4,0xB5,0xB6,0xB7,0xB8,0xB9,0xBA,0xBB,0xBC,0xBD,0xBE,0xBF, \ 
//  323 				0xC0,0xC1,0xC2,0xC3,0xC4,0xC5,0xC6,0xC7,0xC8,0xC9,0xCA,0xCB,0xCC,0xCD,0xCE,0xCF,0xD0,0xD1,0xD2,0xD3,0xD4,0xD5,0xD6,0xD7,0xD8,0xD9,0xDA,0xDB,0xDC,0xDD,0xDE,0xDF, \ 
//  324 				0x41,0xE1,0x41,0xE3,0xE4,0xE5,0xE6,0x43,0x45,0x45,0x45,0x45,0xEC,0xED,0x49,0x49,0xF0,0xF1,0xF2,0xF3,0x4F,0xF5,0xF6,0xF7,0xF8,0x55,0xFA,0x55,0x55,0xFD,0xFE,0xFF}
//  325 
//  326 #elif _CODE_PAGE == 1257 /* Baltic (Windows) */
//  327 #define _DF1S	0
//  328 #define _EXCVT {0x80,0x81,0x82,0x83,0x84,0x85,0x86,0x87,0x88,0x89,0x8A,0x8B,0x8C,0x8D,0x8E,0x8F,0x90,0x91,0x92,0x93,0x94,0x95,0x96,0x97,0x98,0x99,0x9A,0x9B,0x9C,0x9D,0x9E,0x9F, \ 
//  329 				0xA0,0xA1,0xA2,0xA3,0xA4,0xA5,0xA6,0xA7,0xA8,0xA9,0xAA,0xAB,0xAC,0xAD,0xAE,0xAF,0xB0,0xB1,0xB2,0xB3,0xB4,0xB5,0xB6,0xB7,0xA8,0xB9,0xAA,0xBB,0xBC,0xBD,0xBE,0xAF, \ 
//  330 				0xC0,0xC1,0xC2,0xC3,0xC4,0xC5,0xC6,0xC7,0xC8,0xC9,0xCA,0xCB,0xCC,0xCD,0xCE,0xCF,0xD0,0xD1,0xD2,0xD3,0xD4,0xD5,0xD6,0xD7,0xD8,0xD9,0xDA,0xDB,0xDC,0xDD,0xDE,0xDF, \ 
//  331 				0xC0,0xC1,0xC2,0xC3,0xC4,0xC5,0xC6,0xC7,0xC8,0xC9,0xCA,0xCB,0xCC,0xCD,0xCE,0xCF,0xD0,0xD1,0xD2,0xD3,0xD4,0xD5,0xD6,0xF7,0xD8,0xD9,0xDA,0xDB,0xDC,0xDD,0xDE,0xFF}
//  332 
//  333 #elif _CODE_PAGE == 1258 /* Vietnam (OEM, Windows) */
//  334 #define _DF1S	0
//  335 #define _EXCVT {0x80,0x81,0x82,0x83,0x84,0x85,0x86,0x87,0x88,0x89,0x8A,0x8B,0x8C,0x8D,0x8E,0x8F,0x90,0x91,0x92,0x93,0x94,0x95,0x96,0x97,0x98,0x99,0x9A,0x9B,0xAC,0x9D,0x9E,0x9F, \ 
//  336 				0xA0,0x21,0xA2,0xA3,0xA4,0xA5,0xA6,0xA7,0xA8,0xA9,0xAA,0xAB,0xAC,0xAD,0xAE,0xAF,0xB0,0xB1,0xB2,0xB3,0xB4,0xB5,0xB6,0xB7,0xB8,0xB9,0xBA,0xBB,0xBC,0xBD,0xBE,0xBF, \ 
//  337 				0xC0,0xC1,0xC2,0xC3,0xC4,0xC5,0xC6,0xC7,0xC8,0xC9,0xCA,0xCB,0xCC,0xCD,0xCE,0xCF,0xD0,0xD1,0xD2,0xD3,0xD4,0xD5,0xD6,0xD7,0xD8,0xD9,0xDA,0xDB,0xDC,0xDD,0xDE,0xDF, \ 
//  338 				0xC0,0xC1,0xC2,0xC3,0xC4,0xC5,0xC6,0xC7,0xC8,0xC9,0xCA,0xCB,0xEC,0xCD,0xCE,0xCF,0xD0,0xD1,0xF2,0xD3,0xD4,0xD5,0xD6,0xF7,0xD8,0xD9,0xDA,0xDB,0xDC,0xDD,0xFE,0x9F}
//  339 
//  340 #elif _CODE_PAGE == 1	/* ASCII (for only non-LFN cfg) */
//  341 #if _USE_LFN
//  342 #error Cannot use LFN feature without valid code page.
//  343 #endif
//  344 #define _DF1S	0
//  345 
//  346 #else
//  347 #error Unknown code page
//  348 
//  349 #endif
//  350 
//  351 
//  352 /* Character code support macros */
//  353 #define IsUpper(c)	(((c)>='A')&&((c)<='Z'))
//  354 #define IsLower(c)	(((c)>='a')&&((c)<='z'))
//  355 #define IsDigit(c)	(((c)>='0')&&((c)<='9'))
//  356 
//  357 #if _DF1S		/* Code page is DBCS */
//  358 
//  359 #ifdef _DF2S	/* Two 1st byte areas */
//  360 #define IsDBCS1(c)	(((BYTE)(c) >= _DF1S && (BYTE)(c) <= _DF1E) || ((BYTE)(c) >= _DF2S && (BYTE)(c) <= _DF2E))
//  361 #else			/* One 1st byte area */
//  362 #define IsDBCS1(c)	((BYTE)(c) >= _DF1S && (BYTE)(c) <= _DF1E)
//  363 #endif
//  364 
//  365 #ifdef _DS3S	/* Three 2nd byte areas */
//  366 #define IsDBCS2(c)	(((BYTE)(c) >= _DS1S && (BYTE)(c) <= _DS1E) || ((BYTE)(c) >= _DS2S && (BYTE)(c) <= _DS2E) || ((BYTE)(c) >= _DS3S && (BYTE)(c) <= _DS3E))
//  367 #else			/* Two 2nd byte areas */
//  368 #define IsDBCS2(c)	(((BYTE)(c) >= _DS1S && (BYTE)(c) <= _DS1E) || ((BYTE)(c) >= _DS2S && (BYTE)(c) <= _DS2E))
//  369 #endif
//  370 
//  371 #else			/* Code page is SBCS */
//  372 
//  373 #define IsDBCS1(c)	0
//  374 #define IsDBCS2(c)	0
//  375 
//  376 #endif /* _DF1S */
//  377 
//  378 
//  379 /* Name status flags */
//  380 #define NS			11		/* Index of name status byte in fn[] */
//  381 #define NS_LOSS		0x01	/* Out of 8.3 format */
//  382 #define NS_LFN		0x02	/* Force to create LFN entry */
//  383 #define NS_LAST		0x04	/* Last segment */
//  384 #define NS_BODY		0x08	/* Lower case flag (body) */
//  385 #define NS_EXT		0x10	/* Lower case flag (ext) */
//  386 #define NS_DOT		0x20	/* Dot entry */
//  387 
//  388 
//  389 /* FAT sub-type boundaries */
//  390 /* Note that the FAT spec by Microsoft says 4085 but Windows works with 4087! */
//  391 #define MIN_FAT16	4086	/* Minimum number of clusters for FAT16 */
//  392 #define	MIN_FAT32	65526	/* Minimum number of clusters for FAT32 */
//  393 
//  394 
//  395 /* FatFs refers the members in the FAT structures as byte array instead of
//  396 / structure member because the structure is not binary compatible between
//  397 / different platforms */
//  398 
//  399 #define BS_jmpBoot			0	/* Jump instruction (3) */
//  400 #define BS_OEMName			3	/* OEM name (8) */
//  401 #define BPB_BytsPerSec		11	/* Sector size [byte] (2) */
//  402 #define BPB_SecPerClus		13	/* Cluster size [sector] (1) */
//  403 #define BPB_RsvdSecCnt		14	/* Size of reserved area [sector] (2) */
//  404 #define BPB_NumFATs			16	/* Number of FAT copies (1) */
//  405 #define BPB_RootEntCnt		17	/* Number of root dir entries for FAT12/16 (2) */
//  406 #define BPB_TotSec16		19	/* Volume size [sector] (2) */
//  407 #define BPB_Media			21	/* Media descriptor (1) */
//  408 #define BPB_FATSz16			22	/* FAT size [sector] (2) */
//  409 #define BPB_SecPerTrk		24	/* Track size [sector] (2) */
//  410 #define BPB_NumHeads		26	/* Number of heads (2) */
//  411 #define BPB_HiddSec			28	/* Number of special hidden sectors (4) */
//  412 #define BPB_TotSec32		32	/* Volume size [sector] (4) */
//  413 #define BS_DrvNum			36	/* Physical drive number (2) */
//  414 #define BS_BootSig			38	/* Extended boot signature (1) */
//  415 #define BS_VolID			39	/* Volume serial number (4) */
//  416 #define BS_VolLab			43	/* Volume label (8) */
//  417 #define BS_FilSysType		54	/* File system type (1) */
//  418 #define BPB_FATSz32			36	/* FAT size [sector] (4) */
//  419 #define BPB_ExtFlags		40	/* Extended flags (2) */
//  420 #define BPB_FSVer			42	/* File system version (2) */
//  421 #define BPB_RootClus		44	/* Root dir first cluster (4) */
//  422 #define BPB_FSInfo			48	/* Offset of FSInfo sector (2) */
//  423 #define BPB_BkBootSec		50	/* Offset of backup boot sectot (2) */
//  424 #define BS_DrvNum32			64	/* Physical drive number (2) */
//  425 #define BS_BootSig32		66	/* Extended boot signature (1) */
//  426 #define BS_VolID32			67	/* Volume serial number (4) */
//  427 #define BS_VolLab32			71	/* Volume label (8) */
//  428 #define BS_FilSysType32		82	/* File system type (1) */
//  429 #define	FSI_LeadSig			0	/* FSI: Leading signature (4) */
//  430 #define	FSI_StrucSig		484	/* FSI: Structure signature (4) */
//  431 #define	FSI_Free_Count		488	/* FSI: Number of free clusters (4) */
//  432 #define	FSI_Nxt_Free		492	/* FSI: Last allocated cluster (4) */
//  433 #define MBR_Table			446	/* MBR: Partition table offset (2) */
//  434 #define	SZ_PTE				16	/* MBR: Size of a partition table entry */
//  435 #define BS_55AA				510	/* Boot sector signature (2) */
//  436 
//  437 #define	DIR_Name			0	/* Short file name (11) */
//  438 #define	DIR_Attr			11	/* Attribute (1) */
//  439 #define	DIR_NTres			12	/* NT flag (1) */
//  440 #define	DIR_CrtTime			14	/* Created time (2) */
//  441 #define	DIR_CrtDate			16	/* Created date (2) */
//  442 #define	DIR_FstClusHI		20	/* Higher 16-bit of first cluster (2) */
//  443 #define	DIR_WrtTime			22	/* Modified time (2) */
//  444 #define	DIR_WrtDate			24	/* Modified date (2) */
//  445 #define	DIR_FstClusLO		26	/* Lower 16-bit of first cluster (2) */
//  446 #define	DIR_FileSize		28	/* File size (4) */
//  447 #define	LDIR_Ord			0	/* LFN entry order and LLE flag (1) */
//  448 #define	LDIR_Attr			11	/* LFN attribute (1) */
//  449 #define	LDIR_Type			12	/* LFN type (1) */
//  450 #define	LDIR_Chksum			13	/* Sum of corresponding SFN entry */
//  451 #define	LDIR_FstClusLO		26	/* Filled by zero (0) */
//  452 #define	SZ_DIR				32		/* Size of a directory entry */
//  453 #define	LLE					0x40	/* Last long entry flag in LDIR_Ord */
//  454 #define	DDE					0xE5	/* Deleted directory enrty mark in DIR_Name[0] */
//  455 #define	NDDE				0x05	/* Replacement of a character collides with DDE */
//  456 
//  457 
//  458 /*------------------------------------------------------------*/
//  459 /* Module private work area                                   */
//  460 /*------------------------------------------------------------*/
//  461 /* Note that uninitialized variables with static duration are
//  462 /  zeroed/nulled at start-up. If not, the compiler or start-up
//  463 /  routine is out of ANSI-C standard.
//  464 */
//  465 
//  466 #if _VOLUMES
//  467 static

        SECTION `.bss`:DATA:REORDER:NOROOT(2)
//  468 FATFS *FatFs[_VOLUMES];	/* Pointer to the file system objects (logical drives) */
FatFs:
        DS8 4
//  469 #else
//  470 #error Number of volumes must not be 0.
//  471 #endif
//  472 
//  473 static

        SECTION `.bss`:DATA:REORDER:NOROOT(1)
//  474 WORD Fsid;				/* File system mount ID */
Fsid:
        DS8 2
//  475 
//  476 #if _FS_RPATH
//  477 static
//  478 BYTE CurrVol;			/* Current drive */
//  479 #endif
//  480 
//  481 #if _FS_SHARE
//  482 static
//  483 FILESEM	Files[_FS_SHARE];	/* File lock semaphores */
//  484 #endif
//  485 
//  486 #if _USE_LFN == 0			/* No LFN feature */
//  487 #define	DEF_NAMEBUF			BYTE sfn[12]
//  488 #define INIT_BUF(dobj)		(dobj).fn = sfn
//  489 #define	FREE_BUF()
//  490 
//  491 #elif _USE_LFN == 1			/* LFN feature with static working buffer */
//  492 static WCHAR LfnBuf[_MAX_LFN+1];
//  493 #define	DEF_NAMEBUF			BYTE sfn[12]
//  494 #define INIT_BUF(dobj)		{ (dobj).fn = sfn; (dobj).lfn = LfnBuf; }
//  495 #define	FREE_BUF()
//  496 
//  497 #elif _USE_LFN == 2 		/* LFN feature with dynamic working buffer on the stack */
//  498 #define	DEF_NAMEBUF			BYTE sfn[12]; WCHAR lbuf[_MAX_LFN+1]
//  499 #define INIT_BUF(dobj)		{ (dobj).fn = sfn; (dobj).lfn = lbuf; }
//  500 #define	FREE_BUF()
//  501 
//  502 #elif _USE_LFN == 3 		/* LFN feature with dynamic working buffer on the heap */
//  503 #define	DEF_NAMEBUF			BYTE sfn[12]; WCHAR *lfn
//  504 #define INIT_BUF(dobj)		{ lfn = ff_memalloc((_MAX_LFN + 1) * 2); \ 
//  505 							  if (!lfn) LEAVE_FF((dobj).fs, FR_NOT_ENOUGH_CORE); \ 
//  506 							  (dobj).lfn = lfn;	(dobj).fn = sfn; }
//  507 #define	FREE_BUF()			ff_memfree(lfn)
//  508 
//  509 #else
//  510 #error Wrong LFN configuration.
//  511 #endif
//  512 
//  513 
//  514 
//  515 
//  516 /*--------------------------------------------------------------------------
//  517 
//  518    Module Private Functions
//  519 
//  520 ---------------------------------------------------------------------------*/
//  521 
//  522 
//  523 /*-----------------------------------------------------------------------*/
//  524 /* String functions                                                      */
//  525 /*-----------------------------------------------------------------------*/
//  526 
//  527 /* Copy memory to memory */

        SECTION `.text`:CODE:NOROOT(1)
          CFI Block cfiBlock0 Using cfiCommon0
          CFI Function mem_cpy
          CFI NoCalls
        THUMB
//  528 static
//  529 void mem_cpy (void* dst, const void* src, UINT cnt) {
mem_cpy:
        PUSH     {R4,R5}
          CFI R5 Frame(CFA, -4)
          CFI R4 Frame(CFA, -8)
          CFI CFA R13+8
//  530 	BYTE *d = (BYTE*)dst;
        MOVS     R3,R0
//  531 	const BYTE *s = (const BYTE*)src;
        MOVS     R4,R1
//  532 
//  533 #if _WORD_ACCESS == 1
//  534 	while (cnt >= sizeof(int)) {
//  535 		*(int*)d = *(int*)s;
//  536 		d += sizeof(int); s += sizeof(int);
//  537 		cnt -= sizeof(int);
//  538 	}
//  539 #endif
//  540 	while (cnt--)
??mem_cpy_0:
        MOVS     R5,R2
        SUBS     R2,R5,#+1
        CMP      R5,#+0
        BEQ.N    ??mem_cpy_1
//  541 		*d++ = *s++;
        LDRB     R5,[R4, #+0]
        STRB     R5,[R3, #+0]
        ADDS     R4,R4,#+1
        ADDS     R3,R3,#+1
        B.N      ??mem_cpy_0
//  542 }
??mem_cpy_1:
        POP      {R4,R5}
          CFI R4 SameValue
          CFI R5 SameValue
          CFI CFA R13+0
        BX       LR               ;; return
          CFI EndBlock cfiBlock0
//  543 
//  544 /* Fill memory */

        SECTION `.text`:CODE:NOROOT(1)
          CFI Block cfiBlock1 Using cfiCommon0
          CFI Function mem_set
          CFI NoCalls
        THUMB
//  545 static
//  546 void mem_set (void* dst, int val, UINT cnt) {
mem_set:
        PUSH     {R4}
          CFI R4 Frame(CFA, -4)
          CFI CFA R13+4
//  547 	BYTE *d = (BYTE*)dst;
        MOVS     R3,R0
//  548 
//  549 	while (cnt--)
??mem_set_0:
        MOVS     R4,R2
        SUBS     R2,R4,#+1
        CMP      R4,#+0
        BEQ.N    ??mem_set_1
//  550 		*d++ = (BYTE)val;
        STRB     R1,[R3, #+0]
        ADDS     R3,R3,#+1
        B.N      ??mem_set_0
//  551 }
??mem_set_1:
        POP      {R4}
          CFI R4 SameValue
          CFI CFA R13+0
        BX       LR               ;; return
          CFI EndBlock cfiBlock1
//  552 
//  553 /* Compare memory to memory */

        SECTION `.text`:CODE:NOROOT(1)
          CFI Block cfiBlock2 Using cfiCommon0
          CFI Function mem_cmp
          CFI NoCalls
        THUMB
//  554 static
//  555 int mem_cmp (const void* dst, const void* src, UINT cnt) {
mem_cmp:
        PUSH     {R4-R6}
          CFI R6 Frame(CFA, -4)
          CFI R5 Frame(CFA, -8)
          CFI R4 Frame(CFA, -12)
          CFI CFA R13+12
        MOVS     R3,R0
//  556 	const BYTE *d = (const BYTE *)dst, *s = (const BYTE *)src;
        MOVS     R4,R3
        MOVS     R5,R1
//  557 	int r = 0;
        MOVS     R0,#+0
//  558 
//  559 	while (cnt-- && (r = *d++ - *s++) == 0) ;
??mem_cmp_0:
        MOVS     R6,R2
        SUBS     R2,R6,#+1
        CMP      R6,#+0
        BEQ.N    ??mem_cmp_1
        LDRB     R0,[R4, #+0]
        LDRB     R6,[R5, #+0]
        SUBS     R0,R0,R6
        ADDS     R5,R5,#+1
        ADDS     R4,R4,#+1
        CMP      R0,#+0
        BEQ.N    ??mem_cmp_0
//  560 	return r;
??mem_cmp_1:
        POP      {R4-R6}
          CFI R4 SameValue
          CFI R5 SameValue
          CFI R6 SameValue
          CFI CFA R13+0
        BX       LR               ;; return
          CFI EndBlock cfiBlock2
//  561 }
//  562 
//  563 /* Check if chr is contained in the string */

        SECTION `.text`:CODE:NOROOT(1)
          CFI Block cfiBlock3 Using cfiCommon0
          CFI Function chk_chr
          CFI NoCalls
        THUMB
//  564 static
//  565 int chk_chr (const char* str, int chr) {
//  566 	while (*str && *str != chr) str++;
chk_chr:
??chk_chr_0:
        LDRB     R2,[R0, #+0]
        CMP      R2,#+0
        BEQ.N    ??chk_chr_1
        LDRB     R2,[R0, #+0]
        CMP      R2,R1
        BEQ.N    ??chk_chr_1
        ADDS     R0,R0,#+1
        B.N      ??chk_chr_0
//  567 	return *str;
??chk_chr_1:
        LDRB     R0,[R0, #+0]
        BX       LR               ;; return
          CFI EndBlock cfiBlock3
//  568 }
//  569 
//  570 
//  571 
//  572 /*-----------------------------------------------------------------------*/
//  573 /* Request/Release grant to access the volume                            */
//  574 /*-----------------------------------------------------------------------*/
//  575 #if _FS_REENTRANT
//  576 
//  577 static
//  578 int lock_fs (
//  579 	FATFS *fs		/* File system object */
//  580 )
//  581 {
//  582 	return ff_req_grant(fs->sobj);
//  583 }
//  584 
//  585 
//  586 static
//  587 void unlock_fs (
//  588 	FATFS *fs,		/* File system object */
//  589 	FRESULT res		/* Result code to be returned */
//  590 )
//  591 {
//  592 	if (res != FR_NOT_ENABLED &&
//  593 		res != FR_INVALID_DRIVE &&
//  594 		res != FR_INVALID_OBJECT &&
//  595 		res != FR_TIMEOUT) {
//  596 		ff_rel_grant(fs->sobj);
//  597 	}
//  598 }
//  599 #endif
//  600 
//  601 
//  602 
//  603 /*-----------------------------------------------------------------------*/
//  604 /* File shareing control functions                                       */
//  605 /*-----------------------------------------------------------------------*/
//  606 #if _FS_SHARE
//  607 
//  608 static
//  609 FRESULT chk_lock (	/* Check if the file can be accessed */
//  610 	DIR* dj,		/* Directory object pointing the file to be checked */
//  611 	int acc			/* Desired access (0:Read, 1:Write, 2:Delete/Rename) */
//  612 )
//  613 {
//  614 	UINT i, be;
//  615 
//  616 	/* Search file semaphore table */
//  617 	for (i = be = 0; i < _FS_SHARE; i++) {
//  618 		if (Files[i].fs) {	/* Existing entry */
//  619 			if (Files[i].fs == dj->fs &&	 	/* Check if the file matched with an open file */
//  620 				Files[i].clu == dj->sclust &&
//  621 				Files[i].idx == dj->index) break;
//  622 		} else {			/* Blank entry */
//  623 			be++;
//  624 		}
//  625 	}
//  626 	if (i == _FS_SHARE)	/* The file is not opened */
//  627 		return (be || acc == 2) ? FR_OK : FR_TOO_MANY_OPEN_FILES;	/* Is there a blank entry for new file? */
//  628 
//  629 	/* The file has been opened. Reject any open against writing file and all write mode open */
//  630 	return (acc || Files[i].ctr == 0x100) ? FR_LOCKED : FR_OK;
//  631 }
//  632 
//  633 
//  634 static
//  635 int enq_lock (void)	/* Check if an entry is available for a new file */
//  636 {
//  637 	UINT i;
//  638 
//  639 	for (i = 0; i < _FS_SHARE && Files[i].fs; i++) ;
//  640 	return (i == _FS_SHARE) ? 0 : 1;
//  641 }
//  642 
//  643 
//  644 static
//  645 UINT inc_lock (	/* Increment file open counter and returns its index (0:int error) */
//  646 	DIR* dj,	/* Directory object pointing the file to register or increment */
//  647 	int acc		/* Desired access mode (0:Read, !0:Write) */
//  648 )
//  649 {
//  650 	UINT i;
//  651 
//  652 
//  653 	for (i = 0; i < _FS_SHARE; i++) {	/* Find the file */
//  654 		if (Files[i].fs == dj->fs &&
//  655 			Files[i].clu == dj->sclust &&
//  656 			Files[i].idx == dj->index) break;
//  657 	}
//  658 
//  659 	if (i == _FS_SHARE) {				/* Not opened. Register it as new. */
//  660 		for (i = 0; i < _FS_SHARE && Files[i].fs; i++) ;
//  661 		if (i == _FS_SHARE) return 0;	/* No space to register (int err) */
//  662 		Files[i].fs = dj->fs;
//  663 		Files[i].clu = dj->sclust;
//  664 		Files[i].idx = dj->index;
//  665 		Files[i].ctr = 0;
//  666 	}
//  667 
//  668 	if (acc && Files[i].ctr) return 0;	/* Access violation (int err) */
//  669 
//  670 	Files[i].ctr = acc ? 0x100 : Files[i].ctr + 1;	/* Set semaphore value */
//  671 
//  672 	return i + 1;
//  673 }
//  674 
//  675 
//  676 static
//  677 FRESULT dec_lock (	/* Decrement file open counter */
//  678 	UINT i			/* Semaphore index */
//  679 )
//  680 {
//  681 	WORD n;
//  682 	FRESULT res;
//  683 
//  684 
//  685 	if (--i < _FS_SHARE) {
//  686 		n = Files[i].ctr;
//  687 		if (n == 0x100) n = 0;
//  688 		if (n) n--;
//  689 		Files[i].ctr = n;
//  690 		if (!n) Files[i].fs = 0;
//  691 		res = FR_OK;
//  692 	} else {
//  693 		res = FR_INT_ERR;
//  694 	}
//  695 	return res;
//  696 }
//  697 
//  698 
//  699 static
//  700 void clear_lock (	/* Clear lock entries of the volume */
//  701 	FATFS *fs
//  702 )
//  703 {
//  704 	UINT i;
//  705 
//  706 	for (i = 0; i < _FS_SHARE; i++) {
//  707 		if (Files[i].fs == fs) Files[i].fs = 0;
//  708 	}
//  709 }
//  710 #endif
//  711 
//  712 
//  713 
//  714 /*-----------------------------------------------------------------------*/
//  715 /* Change window offset                                                  */
//  716 /*-----------------------------------------------------------------------*/
//  717 

        SECTION `.text`:CODE:NOROOT(1)
          CFI Block cfiBlock4 Using cfiCommon0
          CFI Function move_window
        THUMB
//  718 static
//  719 FRESULT move_window (
//  720 	FATFS *fs,		/* File system object */
//  721 	DWORD sector	/* Sector number to make appearance in the fs->win[] */
//  722 )					/* Move to zero only writes back dirty window */
//  723 {
move_window:
        PUSH     {R3-R7,LR}
          CFI R14 Frame(CFA, -4)
          CFI R7 Frame(CFA, -8)
          CFI R6 Frame(CFA, -12)
          CFI R5 Frame(CFA, -16)
          CFI R4 Frame(CFA, -20)
          CFI CFA R13+24
        MOVS     R4,R0
        MOVS     R5,R1
//  724 	DWORD wsect;
//  725 
//  726 
//  727 	wsect = fs->winsect;
        LDR      R0,[R4, #+44]
        MOVS     R6,R0
//  728 	if (wsect != sector) {	/* Changed current window */
        CMP      R6,R5
        BEQ.N    ??move_window_0
//  729 #if !_FS_READONLY
//  730 		if (fs->wflag) {	/* Write back dirty window if needed */
        LDRB     R0,[R4, #+4]
        CMP      R0,#+0
        BEQ.N    ??move_window_1
//  731 			if (disk_write(fs->drv, fs->win, wsect, 1) != RES_OK)
        MOVS     R3,#+1
        MOVS     R2,R6
        ADDS     R1,R4,#+48
        LDRB     R0,[R4, #+1]
          CFI FunCall disk_write
        BL       disk_write
        CMP      R0,#+0
        BEQ.N    ??move_window_2
//  732 				return FR_DISK_ERR;
        MOVS     R0,#+1
        B.N      ??move_window_3
//  733 			fs->wflag = 0;
??move_window_2:
        MOVS     R0,#+0
        STRB     R0,[R4, #+4]
//  734 			if (wsect < (fs->fatbase + fs->fsize)) {	/* In FAT area */
        LDR      R0,[R4, #+32]
        LDR      R1,[R4, #+28]
        ADDS     R0,R1,R0
        CMP      R6,R0
        BCS.N    ??move_window_1
//  735 				BYTE nf;
//  736 				for (nf = fs->n_fats; nf > 1; nf--) {	/* Reflect the change to all FAT copies */
        LDRB     R0,[R4, #+3]
        MOVS     R7,R0
??move_window_4:
        UXTB     R7,R7            ;; ZeroExt  R7,R7,#+24,#+24
        CMP      R7,#+2
        BLT.N    ??move_window_1
//  737 					wsect += fs->fsize;
        LDR      R0,[R4, #+28]
        ADDS     R6,R0,R6
//  738 					disk_write(fs->drv, fs->win, wsect, 1);
        MOVS     R3,#+1
        MOVS     R2,R6
        ADDS     R1,R4,#+48
        LDRB     R0,[R4, #+1]
          CFI FunCall disk_write
        BL       disk_write
//  739 				}
        SUBS     R7,R7,#+1
        B.N      ??move_window_4
//  740 			}
//  741 		}
//  742 #endif
//  743 		if (sector) {
??move_window_1:
        CMP      R5,#+0
        BEQ.N    ??move_window_0
//  744 			if (disk_read(fs->drv, fs->win, sector, 1) != RES_OK)
        MOVS     R3,#+1
        MOVS     R2,R5
        ADDS     R1,R4,#+48
        LDRB     R0,[R4, #+1]
          CFI FunCall disk_read
        BL       disk_read
        CMP      R0,#+0
        BEQ.N    ??move_window_5
//  745 				return FR_DISK_ERR;
        MOVS     R0,#+1
        B.N      ??move_window_3
//  746 			fs->winsect = sector;
??move_window_5:
        STR      R5,[R4, #+44]
//  747 		}
//  748 	}
//  749 
//  750 	return FR_OK;
??move_window_0:
        MOVS     R0,#+0
??move_window_3:
        POP      {R1,R4-R7,PC}    ;; return
          CFI EndBlock cfiBlock4
//  751 }
//  752 
//  753 
//  754 
//  755 
//  756 /*-----------------------------------------------------------------------*/
//  757 /* Clean-up cached data                                                  */
//  758 /*-----------------------------------------------------------------------*/
//  759 #if !_FS_READONLY

        SECTION `.text`:CODE:NOROOT(1)
          CFI Block cfiBlock5 Using cfiCommon0
          CFI Function sync
        THUMB
//  760 static
//  761 FRESULT sync (	/* FR_OK: successful, FR_DISK_ERR: failed */
//  762 	FATFS *fs	/* File system object */
//  763 )
//  764 {
sync:
        PUSH     {R3-R5,LR}
          CFI R14 Frame(CFA, -4)
          CFI R5 Frame(CFA, -8)
          CFI R4 Frame(CFA, -12)
          CFI CFA R13+16
        MOVS     R4,R0
//  765 	FRESULT res;
//  766 
//  767 
//  768 	res = move_window(fs, 0);
        MOVS     R1,#+0
        MOVS     R0,R4
          CFI FunCall move_window
        BL       move_window
        MOVS     R5,R0
//  769 	if (res == FR_OK) {
        UXTB     R5,R5            ;; ZeroExt  R5,R5,#+24,#+24
        CMP      R5,#+0
        BNE.N    ??sync_0
//  770 		/* Update FSInfo sector if needed */
//  771 		if (fs->fs_type == FS_FAT32 && fs->fsi_flag) {
        LDRB     R0,[R4, #+0]
        CMP      R0,#+3
        BNE.N    ??sync_1
        LDRB     R0,[R4, #+5]
        CMP      R0,#+0
        BEQ.N    ??sync_1
//  772 			fs->winsect = 0;
        MOVS     R0,#+0
        STR      R0,[R4, #+44]
//  773 			/* Create FSInfo structure */
//  774 			mem_set(fs->win, 0, 512);
        MOV      R2,#+512
        MOVS     R1,#+0
        ADDS     R0,R4,#+48
          CFI FunCall mem_set
        BL       mem_set
//  775 			ST_WORD(fs->win+BS_55AA, 0xAA55);
        MOVS     R0,#+85
        STRB     R0,[R4, #+558]
        MOVS     R0,#+170
        STRB     R0,[R4, #+559]
//  776 			ST_DWORD(fs->win+FSI_LeadSig, 0x41615252);
        MOVS     R0,#+82
        STRB     R0,[R4, #+48]
        MOVS     R0,#+82
        STRB     R0,[R4, #+49]
        MOVS     R0,#+97
        STRB     R0,[R4, #+50]
        MOVS     R0,#+65
        STRB     R0,[R4, #+51]
//  777 			ST_DWORD(fs->win+FSI_StrucSig, 0x61417272);
        MOVS     R0,#+114
        STRB     R0,[R4, #+532]
        MOVS     R0,#+114
        STRB     R0,[R4, #+533]
        MOVS     R0,#+65
        STRB     R0,[R4, #+534]
        MOVS     R0,#+97
        STRB     R0,[R4, #+535]
//  778 			ST_DWORD(fs->win+FSI_Free_Count, fs->free_clust);
        LDR      R0,[R4, #+16]
        STRB     R0,[R4, #+536]
        LDR      R0,[R4, #+16]
        UXTH     R0,R0            ;; ZeroExt  R0,R0,#+16,#+16
        LSRS     R0,R0,#+8
        STRB     R0,[R4, #+537]
        LDR      R0,[R4, #+16]
        LSRS     R0,R0,#+16
        STRB     R0,[R4, #+538]
        LDR      R0,[R4, #+16]
        LSRS     R0,R0,#+24
        STRB     R0,[R4, #+539]
//  779 			ST_DWORD(fs->win+FSI_Nxt_Free, fs->last_clust);
        LDR      R0,[R4, #+12]
        STRB     R0,[R4, #+540]
        LDR      R0,[R4, #+12]
        UXTH     R0,R0            ;; ZeroExt  R0,R0,#+16,#+16
        LSRS     R0,R0,#+8
        STRB     R0,[R4, #+541]
        LDR      R0,[R4, #+12]
        LSRS     R0,R0,#+16
        STRB     R0,[R4, #+542]
        LDR      R0,[R4, #+12]
        LSRS     R0,R0,#+24
        STRB     R0,[R4, #+543]
//  780 			/* Write it into the FSInfo sector */
//  781 			disk_write(fs->drv, fs->win, fs->fsi_sector, 1);
        MOVS     R3,#+1
        LDR      R2,[R4, #+20]
        ADDS     R1,R4,#+48
        LDRB     R0,[R4, #+1]
          CFI FunCall disk_write
        BL       disk_write
//  782 			fs->fsi_flag = 0;
        MOVS     R0,#+0
        STRB     R0,[R4, #+5]
//  783 		}
//  784 		/* Make sure that no pending write process in the physical drive */
//  785 		if (disk_ioctl(fs->drv, CTRL_SYNC, 0) != RES_OK)
??sync_1:
        MOVS     R2,#+0
        MOVS     R1,#+0
        LDRB     R0,[R4, #+1]
          CFI FunCall disk_ioctl
        BL       disk_ioctl
        CMP      R0,#+0
        BEQ.N    ??sync_0
//  786 			res = FR_DISK_ERR;
        MOVS     R0,#+1
        MOVS     R5,R0
//  787 	}
//  788 
//  789 	return res;
??sync_0:
        MOVS     R0,R5
        UXTB     R0,R0            ;; ZeroExt  R0,R0,#+24,#+24
        POP      {R1,R4,R5,PC}    ;; return
          CFI EndBlock cfiBlock5
//  790 }
//  791 #endif
//  792 
//  793 
//  794 
//  795 
//  796 /*-----------------------------------------------------------------------*/
//  797 /* Get sector# from cluster#                                             */
//  798 /*-----------------------------------------------------------------------*/
//  799 
//  800 

        SECTION `.text`:CODE:NOROOT(1)
          CFI Block cfiBlock6 Using cfiCommon0
          CFI Function clust2sect
          CFI NoCalls
        THUMB
//  801 DWORD clust2sect (	/* !=0: Sector number, 0: Failed - invalid cluster# */
//  802 	FATFS *fs,		/* File system object */
//  803 	DWORD clst		/* Cluster# to be converted */
//  804 )
//  805 {
clust2sect:
        MOVS     R2,R0
//  806 	clst -= 2;
        SUBS     R1,R1,#+2
//  807 	if (clst >= (fs->n_fatent - 2)) return 0;		/* Invalid cluster# */
        LDR      R0,[R2, #+24]
        SUBS     R0,R0,#+2
        CMP      R1,R0
        BCC.N    ??clust2sect_0
        MOVS     R0,#+0
        B.N      ??clust2sect_1
//  808 	return clst * fs->csize + fs->database;
??clust2sect_0:
        LDRB     R0,[R2, #+2]
        LDR      R2,[R2, #+40]
        MLA      R0,R0,R1,R2
??clust2sect_1:
        BX       LR               ;; return
          CFI EndBlock cfiBlock6
//  809 }
//  810 
//  811 
//  812 
//  813 
//  814 /*-----------------------------------------------------------------------*/
//  815 /* FAT access - Read value of a FAT entry                                */
//  816 /*-----------------------------------------------------------------------*/
//  817 
//  818 

        SECTION `.text`:CODE:NOROOT(1)
          CFI Block cfiBlock7 Using cfiCommon0
          CFI Function get_fat
        THUMB
//  819 DWORD get_fat (	/* 0xFFFFFFFF:Disk error, 1:Internal error, Else:Cluster status */
//  820 	FATFS *fs,	/* File system object */
//  821 	DWORD clst	/* Cluster# to get the link information */
//  822 )
//  823 {
get_fat:
        PUSH     {R4-R8,LR}
          CFI R14 Frame(CFA, -4)
          CFI R8 Frame(CFA, -8)
          CFI R7 Frame(CFA, -12)
          CFI R6 Frame(CFA, -16)
          CFI R5 Frame(CFA, -20)
          CFI R4 Frame(CFA, -24)
          CFI CFA R13+24
        MOVS     R4,R0
        MOVS     R5,R1
//  824 	UINT wc, bc;
//  825 	BYTE *p;
//  826 
//  827 
//  828 	if (clst < 2 || clst >= fs->n_fatent)	/* Chack range */
        CMP      R5,#+2
        BCC.N    ??get_fat_0
        LDR      R0,[R4, #+24]
        CMP      R5,R0
        BCC.N    ??get_fat_1
//  829 		return 1;
??get_fat_0:
        MOVS     R0,#+1
        B.N      ??get_fat_2
//  830 
//  831 	switch (fs->fs_type) {
??get_fat_1:
        LDRB     R0,[R4, #+0]
        CMP      R0,#+1
        BEQ.N    ??get_fat_3
        BCC.N    ??get_fat_4
        CMP      R0,#+3
        BEQ.N    ??get_fat_5
        BCC.N    ??get_fat_6
        B.N      ??get_fat_4
//  832 	case FS_FAT12 :
//  833 		bc = (UINT)clst; bc += bc / 2;
??get_fat_3:
        MOV      R8,R5
        ADDS     R8,R8,R8, LSR #+1
//  834 		if (move_window(fs, fs->fatbase + (bc / SS(fs)))) break;
        LDR      R0,[R4, #+32]
        ADDS     R1,R0,R8, LSR #+9
        MOVS     R0,R4
          CFI FunCall move_window
        BL       move_window
        CMP      R0,#+0
        BNE.N    ??get_fat_4
//  835 		wc = fs->win[bc % SS(fs)]; bc++;
??get_fat_7:
        MOV      R0,#+512
        UDIV     R1,R8,R0
        MLS      R1,R1,R0,R8
        ADDS     R0,R1,R4
        LDRB     R0,[R0, #+48]
        MOVS     R6,R0
        ADDS     R8,R8,#+1
//  836 		if (move_window(fs, fs->fatbase + (bc / SS(fs)))) break;
        LDR      R0,[R4, #+32]
        ADDS     R1,R0,R8, LSR #+9
        MOVS     R0,R4
          CFI FunCall move_window
        BL       move_window
        CMP      R0,#+0
        BNE.N    ??get_fat_4
//  837 		wc |= fs->win[bc % SS(fs)] << 8;
??get_fat_8:
        MOV      R0,#+512
        UDIV     R1,R8,R0
        MLS      R1,R1,R0,R8
        ADDS     R0,R1,R4
        LDRB     R0,[R0, #+48]
        ORRS     R6,R6,R0, LSL #+8
//  838 		return (clst & 1) ? (wc >> 4) : (wc & 0xFFF);
        LSLS     R0,R5,#+31
        BPL.N    ??get_fat_9
        LSRS     R0,R6,#+4
        B.N      ??get_fat_10
??get_fat_9:
        LSLS     R0,R6,#+20       ;; ZeroExtS R0,R6,#+20,#+20
        LSRS     R0,R0,#+20
??get_fat_10:
        B.N      ??get_fat_2
//  839 
//  840 	case FS_FAT16 :
//  841 		if (move_window(fs, fs->fatbase + (clst / (SS(fs) / 2)))) break;
??get_fat_6:
        LDR      R0,[R4, #+32]
        ADDS     R1,R0,R5, LSR #+8
        MOVS     R0,R4
          CFI FunCall move_window
        BL       move_window
        CMP      R0,#+0
        BNE.N    ??get_fat_4
//  842 		p = &fs->win[clst * 2 % SS(fs)];
??get_fat_11:
        LSLS     R0,R5,#+1
        MOV      R1,#+512
        UDIV     R2,R0,R1
        MLS      R2,R2,R1,R0
        ADDS     R0,R2,R4
        ADDS     R0,R0,#+48
        MOVS     R7,R0
//  843 		return LD_WORD(p);
        LDRB     R0,[R7, #+1]
        LDRB     R1,[R7, #+0]
        ORRS     R0,R1,R0, LSL #+8
        UXTH     R0,R0            ;; ZeroExt  R0,R0,#+16,#+16
        B.N      ??get_fat_2
//  844 
//  845 	case FS_FAT32 :
//  846 		if (move_window(fs, fs->fatbase + (clst / (SS(fs) / 4)))) break;
??get_fat_5:
        LDR      R0,[R4, #+32]
        ADDS     R1,R0,R5, LSR #+7
        MOVS     R0,R4
          CFI FunCall move_window
        BL       move_window
        CMP      R0,#+0
        BNE.N    ??get_fat_4
//  847 		p = &fs->win[clst * 4 % SS(fs)];
??get_fat_12:
        LSLS     R0,R5,#+2
        MOV      R1,#+512
        UDIV     R2,R0,R1
        MLS      R2,R2,R1,R0
        ADDS     R0,R2,R4
        ADDS     R0,R0,#+48
        MOVS     R7,R0
//  848 		return LD_DWORD(p) & 0x0FFFFFFF;
        LDRB     R0,[R7, #+3]
        LDRB     R1,[R7, #+2]
        LSLS     R1,R1,#+16
        ORRS     R0,R1,R0, LSL #+24
        LDRB     R1,[R7, #+1]
        ORRS     R0,R0,R1, LSL #+8
        LDRB     R1,[R7, #+0]
        ORRS     R0,R1,R0
        LSLS     R0,R0,#+4        ;; ZeroExtS R0,R0,#+4,#+4
        LSRS     R0,R0,#+4
        B.N      ??get_fat_2
//  849 	}
//  850 
//  851 	return 0xFFFFFFFF;	/* An error occurred at the disk I/O layer */
??get_fat_4:
        MOVS     R0,#-1
??get_fat_2:
        POP      {R4-R8,PC}       ;; return
          CFI EndBlock cfiBlock7
//  852 }
//  853 
//  854 
//  855 
//  856 
//  857 /*-----------------------------------------------------------------------*/
//  858 /* FAT access - Change value of a FAT entry                              */
//  859 /*-----------------------------------------------------------------------*/
//  860 #if !_FS_READONLY
//  861 

        SECTION `.text`:CODE:NOROOT(1)
          CFI Block cfiBlock8 Using cfiCommon0
          CFI Function put_fat
        THUMB
//  862 FRESULT put_fat (
//  863 	FATFS *fs,	/* File system object */
//  864 	DWORD clst,	/* Cluster# to be changed in range of 2 to fs->n_fatent - 1 */
//  865 	DWORD val	/* New value to mark the cluster */
//  866 )
//  867 {
put_fat:
        PUSH     {R3-R9,LR}
          CFI R14 Frame(CFA, -4)
          CFI R9 Frame(CFA, -8)
          CFI R8 Frame(CFA, -12)
          CFI R7 Frame(CFA, -16)
          CFI R6 Frame(CFA, -20)
          CFI R5 Frame(CFA, -24)
          CFI R4 Frame(CFA, -28)
          CFI CFA R13+32
        MOVS     R4,R0
        MOVS     R5,R1
        MOVS     R6,R2
//  868 	UINT bc;
//  869 	BYTE *p;
//  870 	FRESULT res;
//  871 
//  872 
//  873 	if (clst < 2 || clst >= fs->n_fatent) {	/* Check range */
        CMP      R5,#+2
        BCC.N    ??put_fat_0
        LDR      R0,[R4, #+24]
        CMP      R5,R0
        BCC.N    ??put_fat_1
//  874 		res = FR_INT_ERR;
??put_fat_0:
        MOVS     R0,#+2
        MOV      R9,R0
        B.N      ??put_fat_2
//  875 
//  876 	} else {
//  877 		switch (fs->fs_type) {
??put_fat_1:
        LDRB     R0,[R4, #+0]
        CMP      R0,#+1
        BEQ.N    ??put_fat_3
        BCC.W    ??put_fat_4
        CMP      R0,#+3
        BEQ.N    ??put_fat_5
        BCC.N    ??put_fat_6
        B.N      ??put_fat_4
//  878 		case FS_FAT12 :
//  879 			bc = clst; bc += bc / 2;
??put_fat_3:
        MOVS     R7,R5
        ADDS     R7,R7,R7, LSR #+1
//  880 			res = move_window(fs, fs->fatbase + (bc / SS(fs)));
        LDR      R0,[R4, #+32]
        ADDS     R1,R0,R7, LSR #+9
        MOVS     R0,R4
          CFI FunCall move_window
        BL       move_window
        MOV      R9,R0
//  881 			if (res != FR_OK) break;
        UXTB     R9,R9            ;; ZeroExt  R9,R9,#+24,#+24
        CMP      R9,#+0
        BNE.W    ??put_fat_7
//  882 			p = &fs->win[bc % SS(fs)];
??put_fat_8:
        MOV      R0,#+512
        UDIV     R1,R7,R0
        MLS      R1,R1,R0,R7
        ADDS     R0,R1,R4
        ADDS     R0,R0,#+48
        MOV      R8,R0
//  883 			*p = (clst & 1) ? ((*p & 0x0F) | ((BYTE)val << 4)) : (BYTE)val;
        LSLS     R0,R5,#+31
        BPL.N    ??put_fat_9
        LDRB     R0,[R8, #+0]
        ANDS     R0,R0,#0xF
        ORRS     R0,R0,R6, LSL #+4
        B.N      ??put_fat_10
??put_fat_9:
        MOVS     R0,R6
??put_fat_10:
        STRB     R0,[R8, #+0]
//  884 			bc++;
        ADDS     R7,R7,#+1
//  885 			fs->wflag = 1;
        MOVS     R0,#+1
        STRB     R0,[R4, #+4]
//  886 			res = move_window(fs, fs->fatbase + (bc / SS(fs)));
        LDR      R0,[R4, #+32]
        ADDS     R1,R0,R7, LSR #+9
        MOVS     R0,R4
          CFI FunCall move_window
        BL       move_window
        MOV      R9,R0
//  887 			if (res != FR_OK) break;
        UXTB     R9,R9            ;; ZeroExt  R9,R9,#+24,#+24
        CMP      R9,#+0
        BNE.N    ??put_fat_7
//  888 			p = &fs->win[bc % SS(fs)];
??put_fat_11:
        MOV      R0,#+512
        UDIV     R1,R7,R0
        MLS      R1,R1,R0,R7
        ADDS     R0,R1,R4
        ADDS     R0,R0,#+48
        MOV      R8,R0
//  889 			*p = (clst & 1) ? (BYTE)(val >> 4) : ((*p & 0xF0) | ((BYTE)(val >> 8) & 0x0F));
        LSLS     R0,R5,#+31
        BPL.N    ??put_fat_12
        LSRS     R0,R6,#+4
        B.N      ??put_fat_13
??put_fat_12:
        LDRB     R0,[R8, #+0]
        ANDS     R0,R0,#0xF0
        LSRS     R1,R6,#+8
        ANDS     R1,R1,#0xF
        ORRS     R0,R1,R0
??put_fat_13:
        STRB     R0,[R8, #+0]
//  890 			break;
        B.N      ??put_fat_7
//  891 
//  892 		case FS_FAT16 :
//  893 			res = move_window(fs, fs->fatbase + (clst / (SS(fs) / 2)));
??put_fat_6:
        LDR      R0,[R4, #+32]
        ADDS     R1,R0,R5, LSR #+8
        MOVS     R0,R4
          CFI FunCall move_window
        BL       move_window
        MOV      R9,R0
//  894 			if (res != FR_OK) break;
        UXTB     R9,R9            ;; ZeroExt  R9,R9,#+24,#+24
        CMP      R9,#+0
        BNE.N    ??put_fat_7
//  895 			p = &fs->win[clst * 2 % SS(fs)];
??put_fat_14:
        LSLS     R0,R5,#+1
        MOV      R1,#+512
        UDIV     R2,R0,R1
        MLS      R2,R2,R1,R0
        ADDS     R0,R2,R4
        ADDS     R0,R0,#+48
        MOV      R8,R0
//  896 			ST_WORD(p, (WORD)val);
        STRB     R6,[R8, #+0]
        MOVS     R0,R6
        UXTH     R0,R0            ;; ZeroExt  R0,R0,#+16,#+16
        LSRS     R0,R0,#+8
        STRB     R0,[R8, #+1]
//  897 			break;
        B.N      ??put_fat_7
//  898 
//  899 		case FS_FAT32 :
//  900 			res = move_window(fs, fs->fatbase + (clst / (SS(fs) / 4)));
??put_fat_5:
        LDR      R0,[R4, #+32]
        ADDS     R1,R0,R5, LSR #+7
        MOVS     R0,R4
          CFI FunCall move_window
        BL       move_window
        MOV      R9,R0
//  901 			if (res != FR_OK) break;
        UXTB     R9,R9            ;; ZeroExt  R9,R9,#+24,#+24
        CMP      R9,#+0
        BNE.N    ??put_fat_7
//  902 			p = &fs->win[clst * 4 % SS(fs)];
??put_fat_15:
        LSLS     R0,R5,#+2
        MOV      R1,#+512
        UDIV     R2,R0,R1
        MLS      R2,R2,R1,R0
        ADDS     R0,R2,R4
        ADDS     R0,R0,#+48
        MOV      R8,R0
//  903 			val |= LD_DWORD(p) & 0xF0000000;
        LDRB     R0,[R8, #+3]
        LSLS     R0,R0,#+24
        ANDS     R0,R0,#0xF0000000
        ORRS     R6,R0,R6
//  904 			ST_DWORD(p, val);
        STRB     R6,[R8, #+0]
        MOVS     R0,R6
        UXTH     R0,R0            ;; ZeroExt  R0,R0,#+16,#+16
        LSRS     R0,R0,#+8
        STRB     R0,[R8, #+1]
        LSRS     R0,R6,#+16
        STRB     R0,[R8, #+2]
        LSRS     R0,R6,#+24
        STRB     R0,[R8, #+3]
//  905 			break;
        B.N      ??put_fat_7
//  906 
//  907 		default :
//  908 			res = FR_INT_ERR;
??put_fat_4:
        MOVS     R0,#+2
        MOV      R9,R0
//  909 		}
//  910 		fs->wflag = 1;
??put_fat_7:
        MOVS     R0,#+1
        STRB     R0,[R4, #+4]
//  911 	}
//  912 
//  913 	return res;
??put_fat_2:
        MOV      R0,R9
        UXTB     R0,R0            ;; ZeroExt  R0,R0,#+24,#+24
        POP      {R1,R4-R9,PC}    ;; return
          CFI EndBlock cfiBlock8
//  914 }
//  915 #endif /* !_FS_READONLY */
//  916 
//  917 
//  918 
//  919 
//  920 /*-----------------------------------------------------------------------*/
//  921 /* FAT handling - Remove a cluster chain                                 */
//  922 /*-----------------------------------------------------------------------*/
//  923 #if !_FS_READONLY

        SECTION `.text`:CODE:NOROOT(1)
          CFI Block cfiBlock9 Using cfiCommon0
          CFI Function remove_chain
        THUMB
//  924 static
//  925 FRESULT remove_chain (
//  926 	FATFS *fs,			/* File system object */
//  927 	DWORD clst			/* Cluster# to remove a chain from */
//  928 )
//  929 {
remove_chain:
        PUSH     {R3-R7,LR}
          CFI R14 Frame(CFA, -4)
          CFI R7 Frame(CFA, -8)
          CFI R6 Frame(CFA, -12)
          CFI R5 Frame(CFA, -16)
          CFI R4 Frame(CFA, -20)
          CFI CFA R13+24
        MOVS     R4,R0
        MOVS     R5,R1
//  930 	FRESULT res;
//  931 	DWORD nxt;
//  932 #if _USE_ERASE
//  933 	DWORD scl = clst, ecl = clst, resion[2];
//  934 #endif
//  935 
//  936 	if (clst < 2 || clst >= fs->n_fatent) {	/* Check range */
        CMP      R5,#+2
        BCC.N    ??remove_chain_0
        LDR      R0,[R4, #+24]
        CMP      R5,R0
        BCC.N    ??remove_chain_1
//  937 		res = FR_INT_ERR;
??remove_chain_0:
        MOVS     R0,#+2
        MOVS     R6,R0
        B.N      ??remove_chain_2
//  938 
//  939 	} else {
//  940 		res = FR_OK;
??remove_chain_1:
        MOVS     R0,#+0
        MOVS     R6,R0
//  941 		while (clst < fs->n_fatent) {			/* Not a last link? */
??remove_chain_3:
        LDR      R0,[R4, #+24]
        CMP      R5,R0
        BCS.N    ??remove_chain_2
//  942 			nxt = get_fat(fs, clst);			/* Get cluster status */
        MOVS     R1,R5
        MOVS     R0,R4
          CFI FunCall get_fat
        BL       get_fat
        MOVS     R7,R0
//  943 			if (nxt == 0) break;				/* Empty cluster? */
        CMP      R7,#+0
        BEQ.N    ??remove_chain_2
//  944 			if (nxt == 1) { res = FR_INT_ERR; break; }	/* Internal error? */
??remove_chain_4:
        CMP      R7,#+1
        BNE.N    ??remove_chain_5
        MOVS     R0,#+2
        MOVS     R6,R0
        B.N      ??remove_chain_2
//  945 			if (nxt == 0xFFFFFFFF) { res = FR_DISK_ERR; break; }	/* Disk error? */
??remove_chain_5:
        CMN      R7,#+1
        BNE.N    ??remove_chain_6
        MOVS     R0,#+1
        MOVS     R6,R0
        B.N      ??remove_chain_2
//  946 			res = put_fat(fs, clst, 0);			/* Mark the cluster "empty" */
??remove_chain_6:
        MOVS     R2,#+0
        MOVS     R1,R5
        MOVS     R0,R4
          CFI FunCall put_fat
        BL       put_fat
        MOVS     R6,R0
//  947 			if (res != FR_OK) break;
        UXTB     R6,R6            ;; ZeroExt  R6,R6,#+24,#+24
        CMP      R6,#+0
        BNE.N    ??remove_chain_2
//  948 			if (fs->free_clust != 0xFFFFFFFF) {	/* Update FSInfo */
??remove_chain_7:
        LDR      R0,[R4, #+16]
        CMN      R0,#+1
        BEQ.N    ??remove_chain_8
//  949 				fs->free_clust++;
        LDR      R0,[R4, #+16]
        ADDS     R0,R0,#+1
        STR      R0,[R4, #+16]
//  950 				fs->fsi_flag = 1;
        MOVS     R0,#+1
        STRB     R0,[R4, #+5]
//  951 			}
//  952 #if _USE_ERASE
//  953 			if (ecl + 1 == nxt) {	/* Next cluster is contiguous */
//  954 				ecl = nxt;
//  955 			} else {				/* End of contiguous clusters */ 
//  956 				resion[0] = clust2sect(fs, scl);					/* Start sector */
//  957 				resion[1] = clust2sect(fs, ecl) + fs->csize - 1;	/* End sector */
//  958 				disk_ioctl(fs->drv, CTRL_ERASE_SECTOR, resion);		/* Erase the block */
//  959 				scl = ecl = nxt;
//  960 			}
//  961 #endif
//  962 			clst = nxt;	/* Next cluster */
??remove_chain_8:
        MOVS     R5,R7
        B.N      ??remove_chain_3
//  963 		}
//  964 	}
//  965 
//  966 	return res;
??remove_chain_2:
        MOVS     R0,R6
        UXTB     R0,R0            ;; ZeroExt  R0,R0,#+24,#+24
        POP      {R1,R4-R7,PC}    ;; return
          CFI EndBlock cfiBlock9
//  967 }
//  968 #endif
//  969 
//  970 
//  971 
//  972 
//  973 /*-----------------------------------------------------------------------*/
//  974 /* FAT handling - Stretch or Create a cluster chain                      */
//  975 /*-----------------------------------------------------------------------*/
//  976 #if !_FS_READONLY

        SECTION `.text`:CODE:NOROOT(1)
          CFI Block cfiBlock10 Using cfiCommon0
          CFI Function create_chain
        THUMB
//  977 static
//  978 DWORD create_chain (	/* 0:No free cluster, 1:Internal error, 0xFFFFFFFF:Disk error, >=2:New cluster# */
//  979 	FATFS *fs,			/* File system object */
//  980 	DWORD clst			/* Cluster# to stretch. 0 means create a new chain. */
//  981 )
//  982 {
create_chain:
        PUSH     {R3-R9,LR}
          CFI R14 Frame(CFA, -4)
          CFI R9 Frame(CFA, -8)
          CFI R8 Frame(CFA, -12)
          CFI R7 Frame(CFA, -16)
          CFI R6 Frame(CFA, -20)
          CFI R5 Frame(CFA, -24)
          CFI R4 Frame(CFA, -28)
          CFI CFA R13+32
        MOVS     R4,R0
        MOVS     R5,R1
//  983 	DWORD cs, ncl, scl;
//  984 	FRESULT res;
//  985 
//  986 
//  987 	if (clst == 0) {		/* Create a new chain */
        CMP      R5,#+0
        BNE.N    ??create_chain_0
//  988 		scl = fs->last_clust;			/* Get suggested start point */
        LDR      R0,[R4, #+12]
        MOV      R8,R0
//  989 		if (!scl || scl >= fs->n_fatent) scl = 1;
        CMP      R8,#+0
        BEQ.N    ??create_chain_1
        LDR      R0,[R4, #+24]
        CMP      R8,R0
        BCC.N    ??create_chain_2
??create_chain_1:
        MOVS     R0,#+1
        MOV      R8,R0
        B.N      ??create_chain_2
//  990 	}
//  991 	else {					/* Stretch the current chain */
//  992 		cs = get_fat(fs, clst);			/* Check the cluster status */
??create_chain_0:
        MOVS     R1,R5
        MOVS     R0,R4
          CFI FunCall get_fat
        BL       get_fat
        MOVS     R6,R0
//  993 		if (cs < 2) return 1;			/* It is an invalid cluster */
        CMP      R6,#+2
        BCS.N    ??create_chain_3
        MOVS     R0,#+1
        B.N      ??create_chain_4
//  994 		if (cs < fs->n_fatent) return cs;	/* It is already followed by next cluster */
??create_chain_3:
        LDR      R0,[R4, #+24]
        CMP      R6,R0
        BCS.N    ??create_chain_5
        MOVS     R0,R6
        B.N      ??create_chain_4
//  995 		scl = clst;
??create_chain_5:
        MOV      R8,R5
//  996 	}
//  997 
//  998 	ncl = scl;				/* Start cluster */
??create_chain_2:
        MOV      R7,R8
//  999 	for (;;) {
// 1000 		ncl++;							/* Next cluster */
??create_chain_6:
        ADDS     R7,R7,#+1
// 1001 		if (ncl >= fs->n_fatent) {		/* Wrap around */
        LDR      R0,[R4, #+24]
        CMP      R7,R0
        BCC.N    ??create_chain_7
// 1002 			ncl = 2;
        MOVS     R0,#+2
        MOVS     R7,R0
// 1003 			if (ncl > scl) return 0;	/* No free cluster */
        CMP      R8,R7
        BCS.N    ??create_chain_7
        MOVS     R0,#+0
        B.N      ??create_chain_4
// 1004 		}
// 1005 		cs = get_fat(fs, ncl);			/* Get the cluster status */
??create_chain_7:
        MOVS     R1,R7
        MOVS     R0,R4
          CFI FunCall get_fat
        BL       get_fat
        MOVS     R6,R0
// 1006 		if (cs == 0) break;				/* Found a free cluster */
        CMP      R6,#+0
        BNE.N    ??create_chain_8
// 1007 		if (cs == 0xFFFFFFFF || cs == 1)/* An error occurred */
// 1008 			return cs;
// 1009 		if (ncl == scl) return 0;		/* No free cluster */
// 1010 	}
// 1011 
// 1012 	res = put_fat(fs, ncl, 0x0FFFFFFF);	/* Mark the new cluster "last link" */
        MVNS     R2,#-268435456
        MOVS     R1,R7
        MOVS     R0,R4
          CFI FunCall put_fat
        BL       put_fat
        MOV      R9,R0
// 1013 	if (res == FR_OK && clst != 0) {
        UXTB     R9,R9            ;; ZeroExt  R9,R9,#+24,#+24
        CMP      R9,#+0
        BNE.N    ??create_chain_9
        B.N      ??create_chain_10
??create_chain_8:
        CMN      R6,#+1
        BEQ.N    ??create_chain_11
        CMP      R6,#+1
        BNE.N    ??create_chain_12
??create_chain_11:
        MOVS     R0,R6
        B.N      ??create_chain_4
??create_chain_12:
        CMP      R7,R8
        BNE.N    ??create_chain_6
        MOVS     R0,#+0
        B.N      ??create_chain_4
??create_chain_10:
        CMP      R5,#+0
        BEQ.N    ??create_chain_9
// 1014 		res = put_fat(fs, clst, ncl);	/* Link it to the previous one if needed */
        MOVS     R2,R7
        MOVS     R1,R5
        MOVS     R0,R4
          CFI FunCall put_fat
        BL       put_fat
        MOV      R9,R0
// 1015 	}
// 1016 	if (res == FR_OK) {
??create_chain_9:
        UXTB     R9,R9            ;; ZeroExt  R9,R9,#+24,#+24
        CMP      R9,#+0
        BNE.N    ??create_chain_13
// 1017 		fs->last_clust = ncl;			/* Update FSINFO */
        STR      R7,[R4, #+12]
// 1018 		if (fs->free_clust != 0xFFFFFFFF) {
        LDR      R0,[R4, #+16]
        CMN      R0,#+1
        BEQ.N    ??create_chain_14
// 1019 			fs->free_clust--;
        LDR      R0,[R4, #+16]
        SUBS     R0,R0,#+1
        STR      R0,[R4, #+16]
// 1020 			fs->fsi_flag = 1;
        MOVS     R0,#+1
        STRB     R0,[R4, #+5]
        B.N      ??create_chain_14
// 1021 		}
// 1022 	} else {
// 1023 		ncl = (res == FR_DISK_ERR) ? 0xFFFFFFFF : 1;
??create_chain_13:
        UXTB     R9,R9            ;; ZeroExt  R9,R9,#+24,#+24
        CMP      R9,#+1
        BNE.N    ??create_chain_15
        MOVS     R7,#-1
        B.N      ??create_chain_14
??create_chain_15:
        MOVS     R7,#+1
// 1024 	}
// 1025 
// 1026 	return ncl;		/* Return new cluster number or error code */
??create_chain_14:
        MOVS     R0,R7
??create_chain_4:
        POP      {R1,R4-R9,PC}    ;; return
          CFI EndBlock cfiBlock10
// 1027 }
// 1028 #endif /* !_FS_READONLY */
// 1029 
// 1030 
// 1031 
// 1032 /*-----------------------------------------------------------------------*/
// 1033 /* FAT handling - Convert offset into cluster with link map table        */
// 1034 /*-----------------------------------------------------------------------*/
// 1035 
// 1036 #if _USE_FASTSEEK
// 1037 static
// 1038 DWORD clmt_clust (	/* <2:Error, >=2:Cluster number */
// 1039 	FIL* fp,		/* Pointer to the file object */
// 1040 	DWORD ofs		/* File offset to be converted to cluster# */
// 1041 )
// 1042 {
// 1043 	DWORD cl, ncl, *tbl;
// 1044 
// 1045 
// 1046 	tbl = fp->cltbl + 1;	/* Top of CLMT */
// 1047 	cl = ofs / SS(fp->fs) / fp->fs->csize;	/* Cluster order from top of the file */
// 1048 	for (;;) {
// 1049 		ncl = *tbl++;			/* Number of cluters in the fragment */
// 1050 		if (!ncl) return 0;		/* End of table? (error) */
// 1051 		if (cl < ncl) break;	/* In this fragment? */
// 1052 		cl -= ncl; tbl++;		/* Next fragment */
// 1053 	}
// 1054 	return cl + *tbl;	/* Return the cluster number */
// 1055 }
// 1056 #endif	/* _USE_FASTSEEK */
// 1057 
// 1058 
// 1059 
// 1060 /*-----------------------------------------------------------------------*/
// 1061 /* Directory handling - Set directory index                              */
// 1062 /*-----------------------------------------------------------------------*/
// 1063 

        SECTION `.text`:CODE:NOROOT(1)
          CFI Block cfiBlock11 Using cfiCommon0
          CFI Function dir_sdi
        THUMB
// 1064 static
// 1065 FRESULT dir_sdi (
// 1066 	DIR *dj,		/* Pointer to directory object */
// 1067 	WORD idx		/* Directory index number */
// 1068 )
// 1069 {
dir_sdi:
        PUSH     {R3-R7,LR}
          CFI R14 Frame(CFA, -4)
          CFI R7 Frame(CFA, -8)
          CFI R6 Frame(CFA, -12)
          CFI R5 Frame(CFA, -16)
          CFI R4 Frame(CFA, -20)
          CFI CFA R13+24
        MOVS     R4,R0
        MOVS     R5,R1
// 1070 	DWORD clst;
// 1071 	WORD ic;
// 1072 
// 1073 
// 1074 	dj->index = idx;
        STRH     R5,[R4, #+6]
// 1075 	clst = dj->sclust;
        LDR      R0,[R4, #+8]
        MOVS     R6,R0
// 1076 	if (clst == 1 || clst >= dj->fs->n_fatent)	/* Check start cluster range */
        CMP      R6,#+1
        BEQ.N    ??dir_sdi_0
        LDR      R0,[R4, #+0]
        LDR      R0,[R0, #+24]
        CMP      R6,R0
        BCC.N    ??dir_sdi_1
// 1077 		return FR_INT_ERR;
??dir_sdi_0:
        MOVS     R0,#+2
        B.N      ??dir_sdi_2
// 1078 	if (!clst && dj->fs->fs_type == FS_FAT32)	/* Replace cluster# 0 with root cluster# if in FAT32 */
??dir_sdi_1:
        CMP      R6,#+0
        BNE.N    ??dir_sdi_3
        LDR      R0,[R4, #+0]
        LDRB     R0,[R0, #+0]
        CMP      R0,#+3
        BNE.N    ??dir_sdi_3
// 1079 		clst = dj->fs->dirbase;
        LDR      R0,[R4, #+0]
        LDR      R0,[R0, #+36]
        MOVS     R6,R0
// 1080 
// 1081 	if (clst == 0) {	/* Static table (root-dir in FAT12/16) */
??dir_sdi_3:
        CMP      R6,#+0
        BNE.N    ??dir_sdi_4
// 1082 		dj->clust = clst;
        STR      R6,[R4, #+12]
// 1083 		if (idx >= dj->fs->n_rootdir)		/* Index is out of range */
        LDR      R0,[R4, #+0]
        LDRH     R0,[R0, #+8]
        UXTH     R5,R5            ;; ZeroExt  R5,R5,#+16,#+16
        CMP      R5,R0
        BCC.N    ??dir_sdi_5
// 1084 			return FR_INT_ERR;
        MOVS     R0,#+2
        B.N      ??dir_sdi_2
// 1085 		dj->sect = dj->fs->dirbase + idx / (SS(dj->fs) / SZ_DIR);	/* Sector# */
??dir_sdi_5:
        LDR      R0,[R4, #+0]
        LDR      R0,[R0, #+36]
        UXTH     R5,R5            ;; ZeroExt  R5,R5,#+16,#+16
        ADDS     R0,R0,R5, LSR #+4
        STR      R0,[R4, #+16]
        B.N      ??dir_sdi_6
// 1086 	}
// 1087 	else {				/* Dynamic table (sub-dirs or root-dir in FAT32) */
// 1088 		ic = SS(dj->fs) / SZ_DIR * dj->fs->csize;	/* Entries per cluster */
??dir_sdi_4:
        LDR      R0,[R4, #+0]
        LDRB     R0,[R0, #+2]
        UXTH     R0,R0            ;; ZeroExt  R0,R0,#+16,#+16
        LSLS     R0,R0,#+4
        MOVS     R7,R0
// 1089 		while (idx >= ic) {	/* Follow cluster chain */
??dir_sdi_7:
        UXTH     R5,R5            ;; ZeroExt  R5,R5,#+16,#+16
        UXTH     R7,R7            ;; ZeroExt  R7,R7,#+16,#+16
        CMP      R5,R7
        BCC.N    ??dir_sdi_8
// 1090 			clst = get_fat(dj->fs, clst);				/* Get next cluster */
        MOVS     R1,R6
        LDR      R0,[R4, #+0]
          CFI FunCall get_fat
        BL       get_fat
        MOVS     R6,R0
// 1091 			if (clst == 0xFFFFFFFF) return FR_DISK_ERR;	/* Disk error */
        CMN      R6,#+1
        BNE.N    ??dir_sdi_9
        MOVS     R0,#+1
        B.N      ??dir_sdi_2
// 1092 			if (clst < 2 || clst >= dj->fs->n_fatent)	/* Reached to end of table or int error */
??dir_sdi_9:
        CMP      R6,#+2
        BCC.N    ??dir_sdi_10
        LDR      R0,[R4, #+0]
        LDR      R0,[R0, #+24]
        CMP      R6,R0
        BCC.N    ??dir_sdi_11
// 1093 				return FR_INT_ERR;
??dir_sdi_10:
        MOVS     R0,#+2
        B.N      ??dir_sdi_2
// 1094 			idx -= ic;
??dir_sdi_11:
        SUBS     R5,R5,R7
        B.N      ??dir_sdi_7
// 1095 		}
// 1096 		dj->clust = clst;
??dir_sdi_8:
        STR      R6,[R4, #+12]
// 1097 		dj->sect = clust2sect(dj->fs, clst) + idx / (SS(dj->fs) / SZ_DIR);	/* Sector# */
        MOVS     R1,R6
        LDR      R0,[R4, #+0]
          CFI FunCall clust2sect
        BL       clust2sect
        UXTH     R5,R5            ;; ZeroExt  R5,R5,#+16,#+16
        ADDS     R0,R0,R5, LSR #+4
        STR      R0,[R4, #+16]
// 1098 	}
// 1099 
// 1100 	dj->dir = dj->fs->win + (idx % (SS(dj->fs) / SZ_DIR)) * SZ_DIR;	/* Ptr to the entry in the sector */
??dir_sdi_6:
        UXTH     R5,R5            ;; ZeroExt  R5,R5,#+16,#+16
        MOVS     R0,#+16
        UDIV     R1,R5,R0
        MLS      R1,R1,R0,R5
        LDR      R0,[R4, #+0]
        ADDS     R0,R0,R1, LSL #+5
        ADDS     R0,R0,#+48
        STR      R0,[R4, #+20]
// 1101 
// 1102 	return FR_OK;	/* Seek succeeded */
        MOVS     R0,#+0
??dir_sdi_2:
        POP      {R1,R4-R7,PC}    ;; return
          CFI EndBlock cfiBlock11
// 1103 }
// 1104 
// 1105 
// 1106 
// 1107 
// 1108 /*-----------------------------------------------------------------------*/
// 1109 /* Directory handling - Move directory index next                        */
// 1110 /*-----------------------------------------------------------------------*/
// 1111 

        SECTION `.text`:CODE:NOROOT(1)
          CFI Block cfiBlock12 Using cfiCommon0
          CFI Function dir_next
        THUMB
// 1112 static
// 1113 FRESULT dir_next (	/* FR_OK:Succeeded, FR_NO_FILE:End of table, FR_DENIED:EOT and could not stretch */
// 1114 	DIR *dj,		/* Pointer to directory object */
// 1115 	int stretch		/* 0: Do not stretch table, 1: Stretch table if needed */
// 1116 )
// 1117 {
dir_next:
        PUSH     {R4-R8,LR}
          CFI R14 Frame(CFA, -4)
          CFI R8 Frame(CFA, -8)
          CFI R7 Frame(CFA, -12)
          CFI R6 Frame(CFA, -16)
          CFI R5 Frame(CFA, -20)
          CFI R4 Frame(CFA, -24)
          CFI CFA R13+24
        MOVS     R4,R0
        MOVS     R7,R1
// 1118 	DWORD clst;
// 1119 	WORD i;
// 1120 
// 1121 
// 1122 	stretch = stretch;		/* To suppress warning on read-only cfg. */
// 1123 	i = dj->index + 1;
        LDRH     R0,[R4, #+6]
        ADDS     R0,R0,#+1
        MOVS     R6,R0
// 1124 	if (!i || !dj->sect)	/* Report EOT when index has reached 65535 */
        UXTH     R6,R6            ;; ZeroExt  R6,R6,#+16,#+16
        CMP      R6,#+0
        BEQ.N    ??dir_next_0
        LDR      R0,[R4, #+16]
        CMP      R0,#+0
        BNE.N    ??dir_next_1
// 1125 		return FR_NO_FILE;
??dir_next_0:
        MOVS     R0,#+4
        B.N      ??dir_next_2
// 1126 
// 1127 	if (!(i % (SS(dj->fs) / SZ_DIR))) {	/* Sector changed? */
??dir_next_1:
        UXTH     R6,R6            ;; ZeroExt  R6,R6,#+16,#+16
        MOVS     R0,#+16
        UDIV     R1,R6,R0
        MLS      R1,R1,R0,R6
        CMP      R1,#+0
        BNE.N    ??dir_next_3
// 1128 		dj->sect++;					/* Next sector */
        LDR      R0,[R4, #+16]
        ADDS     R0,R0,#+1
        STR      R0,[R4, #+16]
// 1129 
// 1130 		if (dj->clust == 0) {	/* Static table */
        LDR      R0,[R4, #+12]
        CMP      R0,#+0
        BNE.N    ??dir_next_4
// 1131 			if (i >= dj->fs->n_rootdir)	/* Report EOT when end of table */
        LDR      R0,[R4, #+0]
        LDRH     R0,[R0, #+8]
        UXTH     R6,R6            ;; ZeroExt  R6,R6,#+16,#+16
        CMP      R6,R0
        BCC.N    ??dir_next_3
// 1132 				return FR_NO_FILE;
        MOVS     R0,#+4
        B.N      ??dir_next_2
// 1133 		}
// 1134 		else {					/* Dynamic table */
// 1135 			if (((i / (SS(dj->fs) / SZ_DIR)) & (dj->fs->csize - 1)) == 0) {	/* Cluster changed? */
??dir_next_4:
        UXTH     R6,R6            ;; ZeroExt  R6,R6,#+16,#+16
        LDR      R0,[R4, #+0]
        LDRB     R0,[R0, #+2]
        SUBS     R0,R0,#+1
        TST      R0,R6, LSR #+4
        BNE.N    ??dir_next_3
// 1136 				clst = get_fat(dj->fs, dj->clust);				/* Get next cluster */
        LDR      R1,[R4, #+12]
        LDR      R0,[R4, #+0]
          CFI FunCall get_fat
        BL       get_fat
        MOVS     R5,R0
// 1137 				if (clst <= 1) return FR_INT_ERR;
        CMP      R5,#+2
        BCS.N    ??dir_next_5
        MOVS     R0,#+2
        B.N      ??dir_next_2
// 1138 				if (clst == 0xFFFFFFFF) return FR_DISK_ERR;
??dir_next_5:
        CMN      R5,#+1
        BNE.N    ??dir_next_6
        MOVS     R0,#+1
        B.N      ??dir_next_2
// 1139 				if (clst >= dj->fs->n_fatent) {					/* When it reached end of dynamic table */
??dir_next_6:
        LDR      R0,[R4, #+0]
        LDR      R0,[R0, #+24]
        CMP      R5,R0
        BCC.N    ??dir_next_7
// 1140 #if !_FS_READONLY
// 1141 					BYTE c;
// 1142 					if (!stretch) return FR_NO_FILE;			/* When do not stretch, report EOT */
        CMP      R7,#+0
        BNE.N    ??dir_next_8
        MOVS     R0,#+4
        B.N      ??dir_next_2
// 1143 					clst = create_chain(dj->fs, dj->clust);		/* Stretch cluster chain */
??dir_next_8:
        LDR      R1,[R4, #+12]
        LDR      R0,[R4, #+0]
          CFI FunCall create_chain
        BL       create_chain
        MOVS     R5,R0
// 1144 					if (clst == 0) return FR_DENIED;			/* No free cluster */
        CMP      R5,#+0
        BNE.N    ??dir_next_9
        MOVS     R0,#+7
        B.N      ??dir_next_2
// 1145 					if (clst == 1) return FR_INT_ERR;
??dir_next_9:
        CMP      R5,#+1
        BNE.N    ??dir_next_10
        MOVS     R0,#+2
        B.N      ??dir_next_2
// 1146 					if (clst == 0xFFFFFFFF) return FR_DISK_ERR;
??dir_next_10:
        CMN      R5,#+1
        BNE.N    ??dir_next_11
        MOVS     R0,#+1
        B.N      ??dir_next_2
// 1147 					/* Clean-up stretched table */
// 1148 					if (move_window(dj->fs, 0)) return FR_DISK_ERR;	/* Flush active window */
??dir_next_11:
        MOVS     R1,#+0
        LDR      R0,[R4, #+0]
          CFI FunCall move_window
        BL       move_window
        CMP      R0,#+0
        BEQ.N    ??dir_next_12
        MOVS     R0,#+1
        B.N      ??dir_next_2
// 1149 					mem_set(dj->fs->win, 0, SS(dj->fs));			/* Clear window buffer */
??dir_next_12:
        MOV      R2,#+512
        MOVS     R1,#+0
        LDR      R0,[R4, #+0]
        ADDS     R0,R0,#+48
          CFI FunCall mem_set
        BL       mem_set
// 1150 					dj->fs->winsect = clust2sect(dj->fs, clst);	/* Cluster start sector */
        MOVS     R1,R5
        LDR      R0,[R4, #+0]
          CFI FunCall clust2sect
        BL       clust2sect
        LDR      R1,[R4, #+0]
        STR      R0,[R1, #+44]
// 1151 					for (c = 0; c < dj->fs->csize; c++) {		/* Fill the new cluster with 0 */
        MOVS     R0,#+0
        MOV      R8,R0
??dir_next_13:
        LDR      R0,[R4, #+0]
        LDRB     R0,[R0, #+2]
        UXTB     R8,R8            ;; ZeroExt  R8,R8,#+24,#+24
        CMP      R8,R0
        BCS.N    ??dir_next_14
// 1152 						dj->fs->wflag = 1;
        LDR      R0,[R4, #+0]
        MOVS     R1,#+1
        STRB     R1,[R0, #+4]
// 1153 						if (move_window(dj->fs, 0)) return FR_DISK_ERR;
        MOVS     R1,#+0
        LDR      R0,[R4, #+0]
          CFI FunCall move_window
        BL       move_window
        CMP      R0,#+0
        BEQ.N    ??dir_next_15
        MOVS     R0,#+1
        B.N      ??dir_next_2
// 1154 						dj->fs->winsect++;
??dir_next_15:
        LDR      R0,[R4, #+0]
        LDR      R0,[R0, #+44]
        ADDS     R0,R0,#+1
        LDR      R1,[R4, #+0]
        STR      R0,[R1, #+44]
// 1155 					}
        ADDS     R8,R8,#+1
        B.N      ??dir_next_13
// 1156 					dj->fs->winsect -= c;						/* Rewind window address */
??dir_next_14:
        LDR      R0,[R4, #+0]
        LDR      R0,[R0, #+44]
        UXTB     R8,R8            ;; ZeroExt  R8,R8,#+24,#+24
        SUBS     R0,R0,R8
        LDR      R1,[R4, #+0]
        STR      R0,[R1, #+44]
// 1157 #else
// 1158 					return FR_NO_FILE;			/* Report EOT */
// 1159 #endif
// 1160 				}
// 1161 				dj->clust = clst;				/* Initialize data for new cluster */
??dir_next_7:
        STR      R5,[R4, #+12]
// 1162 				dj->sect = clust2sect(dj->fs, clst);
        MOVS     R1,R5
        LDR      R0,[R4, #+0]
          CFI FunCall clust2sect
        BL       clust2sect
        STR      R0,[R4, #+16]
// 1163 			}
// 1164 		}
// 1165 	}
// 1166 
// 1167 	dj->index = i;
??dir_next_3:
        STRH     R6,[R4, #+6]
// 1168 	dj->dir = dj->fs->win + (i % (SS(dj->fs) / SZ_DIR)) * SZ_DIR;
        UXTH     R6,R6            ;; ZeroExt  R6,R6,#+16,#+16
        MOVS     R0,#+16
        UDIV     R1,R6,R0
        MLS      R1,R1,R0,R6
        LDR      R0,[R4, #+0]
        ADDS     R0,R0,R1, LSL #+5
        ADDS     R0,R0,#+48
        STR      R0,[R4, #+20]
// 1169 
// 1170 	return FR_OK;
        MOVS     R0,#+0
??dir_next_2:
        POP      {R4-R8,PC}       ;; return
          CFI EndBlock cfiBlock12
// 1171 }

        SECTION `.rodata`:CONST:REORDER:NOROOT(2)
`?<Constant "\\"*:<>?|\\177">`:
        DATA
        DC8 "\"*:<>?|\177"
        DC8 0, 0, 0

        SECTION `.rodata`:CONST:REORDER:NOROOT(2)
`?<Constant "+,;=[]">`:
        DATA
        DC8 "+,;=[]"
        DC8 0
// 1172 
// 1173 
// 1174 
// 1175 
// 1176 /*-----------------------------------------------------------------------*/
// 1177 /* LFN handling - Test/Pick/Fit an LFN segment from/to directory entry   */
// 1178 /*-----------------------------------------------------------------------*/
// 1179 #if _USE_LFN
// 1180 static

        SECTION `.rodata`:CONST:REORDER:NOROOT(2)
// 1181 const BYTE LfnOfs[] = {1,3,5,7,9,14,16,18,20,22,24,28,30};	/* Offset of LFN chars in the directory entry */
LfnOfs:
        DATA
        DC8 1, 3, 5, 7, 9, 14, 16, 18, 20, 22, 24, 28, 30, 0, 0, 0
// 1182 
// 1183 

        SECTION `.text`:CODE:NOROOT(1)
          CFI Block cfiBlock13 Using cfiCommon0
          CFI Function cmp_lfn
        THUMB
// 1184 static
// 1185 int cmp_lfn (			/* 1:Matched, 0:Not matched */
// 1186 	WCHAR *lfnbuf,		/* Pointer to the LFN to be compared */
// 1187 	BYTE *dir			/* Pointer to the directory entry containing a part of LFN */
// 1188 )
// 1189 {
cmp_lfn:
        PUSH     {R3-R9,LR}
          CFI R14 Frame(CFA, -4)
          CFI R9 Frame(CFA, -8)
          CFI R8 Frame(CFA, -12)
          CFI R7 Frame(CFA, -16)
          CFI R6 Frame(CFA, -20)
          CFI R5 Frame(CFA, -24)
          CFI R4 Frame(CFA, -28)
          CFI CFA R13+32
        MOVS     R4,R0
        MOVS     R5,R1
// 1190 	UINT i, s;
// 1191 	WCHAR wc, uc;
// 1192 
// 1193 
// 1194 	i = ((dir[LDIR_Ord] & ~LLE) - 1) * 13;	/* Get offset in the LFN buffer */
        LDRB     R0,[R5, #+0]
        BICS     R0,R0,#0x40
        SUBS     R0,R0,#+1
        MOVS     R1,#+13
        MULS     R0,R1,R0
        MOVS     R6,R0
// 1195 	s = 0; wc = 1;
        MOVS     R0,#+0
        MOVS     R7,R0
        MOVS     R0,#+1
        MOV      R8,R0
// 1196 	do {
// 1197 		uc = LD_WORD(dir+LfnOfs[s]);	/* Pick an LFN character from the entry */
??cmp_lfn_0:
        LDR.W    R0,??DataTable4
        LDRB     R0,[R7, R0]
        ADDS     R0,R0,R5
        LDRB     R0,[R0, #+1]
        LDR.W    R1,??DataTable4
        LDRB     R1,[R7, R1]
        LDRB     R1,[R1, R5]
        ORRS     R0,R1,R0, LSL #+8
        MOV      R9,R0
// 1198 		if (wc) {	/* Last char has not been processed */
        UXTH     R8,R8            ;; ZeroExt  R8,R8,#+16,#+16
        CMP      R8,#+0
        BEQ.N    ??cmp_lfn_1
// 1199 			wc = ff_wtoupper(uc);		/* Convert it to upper case */
        MOV      R0,R9
        UXTH     R0,R0            ;; ZeroExt  R0,R0,#+16,#+16
          CFI FunCall ff_wtoupper
        BL       ff_wtoupper
        MOV      R8,R0
// 1200 			if (i >= _MAX_LFN || wc != ff_wtoupper(lfnbuf[i++]))	/* Compare it */
        CMP      R6,#+255
        BCS.N    ??cmp_lfn_2
        LDRH     R0,[R4, R6, LSL #+1]
          CFI FunCall ff_wtoupper
        BL       ff_wtoupper
        ADDS     R6,R6,#+1
        UXTH     R8,R8            ;; ZeroExt  R8,R8,#+16,#+16
        UXTH     R0,R0            ;; ZeroExt  R0,R0,#+16,#+16
        CMP      R8,R0
        BEQ.N    ??cmp_lfn_3
// 1201 				return 0;				/* Not matched */
??cmp_lfn_2:
        MOVS     R0,#+0
        B.N      ??cmp_lfn_4
// 1202 		} else {
// 1203 			if (uc != 0xFFFF) return 0;	/* Check filler */
??cmp_lfn_1:
        UXTH     R9,R9            ;; ZeroExt  R9,R9,#+16,#+16
        MOVW     R0,#+65535
        CMP      R9,R0
        BEQ.N    ??cmp_lfn_3
        MOVS     R0,#+0
        B.N      ??cmp_lfn_4
// 1204 		}
// 1205 	} while (++s < 13);				/* Repeat until all chars in the entry are checked */
??cmp_lfn_3:
        ADDS     R7,R7,#+1
        CMP      R7,#+13
        BCC.N    ??cmp_lfn_0
// 1206 
// 1207 	if ((dir[LDIR_Ord] & LLE) && wc && lfnbuf[i])	/* Last segment matched but different length */
        LDRB     R0,[R5, #+0]
        LSLS     R0,R0,#+25
        BPL.N    ??cmp_lfn_5
        UXTH     R8,R8            ;; ZeroExt  R8,R8,#+16,#+16
        CMP      R8,#+0
        BEQ.N    ??cmp_lfn_5
        LDRH     R0,[R4, R6, LSL #+1]
        CMP      R0,#+0
        BEQ.N    ??cmp_lfn_5
// 1208 		return 0;
        MOVS     R0,#+0
        B.N      ??cmp_lfn_4
// 1209 
// 1210 	return 1;						/* The part of LFN matched */
??cmp_lfn_5:
        MOVS     R0,#+1
??cmp_lfn_4:
        POP      {R1,R4-R9,PC}    ;; return
          CFI EndBlock cfiBlock13
// 1211 }
// 1212 
// 1213 
// 1214 

        SECTION `.text`:CODE:NOROOT(1)
          CFI Block cfiBlock14 Using cfiCommon0
          CFI Function pick_lfn
          CFI NoCalls
        THUMB
// 1215 static
// 1216 int pick_lfn (			/* 1:Succeeded, 0:Buffer overflow */
// 1217 	WCHAR *lfnbuf,		/* Pointer to the Unicode-LFN buffer */
// 1218 	BYTE *dir			/* Pointer to the directory entry */
// 1219 )
// 1220 {
pick_lfn:
        PUSH     {R4-R7}
          CFI R7 Frame(CFA, -4)
          CFI R6 Frame(CFA, -8)
          CFI R5 Frame(CFA, -12)
          CFI R4 Frame(CFA, -16)
          CFI CFA R13+16
        MOVS     R2,R0
// 1221 	UINT i, s;
// 1222 	WCHAR wc, uc;
// 1223 
// 1224 
// 1225 	i = ((dir[LDIR_Ord] & 0x3F) - 1) * 13;	/* Offset in the LFN buffer */
        LDRB     R0,[R1, #+0]
        ANDS     R0,R0,#0x3F
        SUBS     R0,R0,#+1
        MOVS     R7,#+13
        MULS     R0,R7,R0
        MOVS     R3,R0
// 1226 
// 1227 	s = 0; wc = 1;
        MOVS     R0,#+0
        MOVS     R4,R0
        MOVS     R0,#+1
        MOVS     R5,R0
// 1228 	do {
// 1229 		uc = LD_WORD(dir+LfnOfs[s]);		/* Pick an LFN character from the entry */
??pick_lfn_0:
        LDR.W    R0,??DataTable4
        LDRB     R0,[R4, R0]
        ADDS     R0,R0,R1
        LDRB     R0,[R0, #+1]
        LDR.W    R7,??DataTable4
        LDRB     R7,[R4, R7]
        LDRB     R7,[R7, R1]
        ORRS     R0,R7,R0, LSL #+8
        MOVS     R6,R0
// 1230 		if (wc) {	/* Last char has not been processed */
        UXTH     R5,R5            ;; ZeroExt  R5,R5,#+16,#+16
        CMP      R5,#+0
        BEQ.N    ??pick_lfn_1
// 1231 			if (i >= _MAX_LFN) return 0;	/* Buffer overflow? */
        CMP      R3,#+255
        BCC.N    ??pick_lfn_2
        MOVS     R0,#+0
        B.N      ??pick_lfn_3
// 1232 			lfnbuf[i++] = wc = uc;			/* Store it */
??pick_lfn_2:
        MOVS     R5,R6
        STRH     R6,[R2, R3, LSL #+1]
        ADDS     R3,R3,#+1
        B.N      ??pick_lfn_4
// 1233 		} else {
// 1234 			if (uc != 0xFFFF) return 0;		/* Check filler */
??pick_lfn_1:
        UXTH     R6,R6            ;; ZeroExt  R6,R6,#+16,#+16
        MOVW     R0,#+65535
        CMP      R6,R0
        BEQ.N    ??pick_lfn_4
        MOVS     R0,#+0
        B.N      ??pick_lfn_3
// 1235 		}
// 1236 	} while (++s < 13);						/* Read all character in the entry */
??pick_lfn_4:
        ADDS     R4,R4,#+1
        CMP      R4,#+13
        BCC.N    ??pick_lfn_0
// 1237 
// 1238 	if (dir[LDIR_Ord] & LLE) {				/* Put terminator if it is the last LFN part */
        LDRB     R0,[R1, #+0]
        LSLS     R0,R0,#+25
        BPL.N    ??pick_lfn_5
// 1239 		if (i >= _MAX_LFN) return 0;		/* Buffer overflow? */
        CMP      R3,#+255
        BCC.N    ??pick_lfn_6
        MOVS     R0,#+0
        B.N      ??pick_lfn_3
// 1240 		lfnbuf[i] = 0;
??pick_lfn_6:
        MOVS     R0,#+0
        STRH     R0,[R2, R3, LSL #+1]
// 1241 	}
// 1242 
// 1243 	return 1;
??pick_lfn_5:
        MOVS     R0,#+1
??pick_lfn_3:
        POP      {R4-R7}
          CFI R4 SameValue
          CFI R5 SameValue
          CFI R6 SameValue
          CFI R7 SameValue
          CFI CFA R13+0
        BX       LR               ;; return
          CFI EndBlock cfiBlock14
// 1244 }
// 1245 
// 1246 
// 1247 #if !_FS_READONLY

        SECTION `.text`:CODE:NOROOT(1)
          CFI Block cfiBlock15 Using cfiCommon0
          CFI Function fit_lfn
          CFI NoCalls
        THUMB
// 1248 static
// 1249 void fit_lfn (
// 1250 	const WCHAR *lfnbuf,	/* Pointer to the LFN buffer */
// 1251 	BYTE *dir,				/* Pointer to the directory entry */
// 1252 	BYTE ord,				/* LFN order (1-20) */
// 1253 	BYTE sum				/* SFN sum */
// 1254 )
// 1255 {
fit_lfn:
        PUSH     {R4-R7}
          CFI R7 Frame(CFA, -4)
          CFI R6 Frame(CFA, -8)
          CFI R5 Frame(CFA, -12)
          CFI R4 Frame(CFA, -16)
          CFI CFA R13+16
// 1256 	UINT i, s;
// 1257 	WCHAR wc;
// 1258 
// 1259 
// 1260 	dir[LDIR_Chksum] = sum;			/* Set check sum */
        STRB     R3,[R1, #+13]
// 1261 	dir[LDIR_Attr] = AM_LFN;		/* Set attribute. LFN entry */
        MOVS     R7,#+15
        STRB     R7,[R1, #+11]
// 1262 	dir[LDIR_Type] = 0;
        MOVS     R7,#+0
        STRB     R7,[R1, #+12]
// 1263 	ST_WORD(dir+LDIR_FstClusLO, 0);
        MOVS     R7,#+0
        STRB     R7,[R1, #+26]
        MOVS     R7,#+0
        STRB     R7,[R1, #+27]
// 1264 
// 1265 	i = (ord - 1) * 13;				/* Get offset in the LFN buffer */
        UXTB     R2,R2            ;; ZeroExt  R2,R2,#+24,#+24
        SUBS     R7,R2,#+1
        MOVS     R12,#+13
        MUL      R7,R12,R7
        MOVS     R4,R7
// 1266 	s = wc = 0;
        MOVS     R7,#+0
        MOVS     R6,R7
        UXTH     R7,R7            ;; ZeroExt  R7,R7,#+16,#+16
        MOVS     R5,R7
// 1267 	do {
// 1268 		if (wc != 0xFFFF) wc = lfnbuf[i++];	/* Get an effective char */
??fit_lfn_0:
        UXTH     R6,R6            ;; ZeroExt  R6,R6,#+16,#+16
        MOVW     R7,#+65535
        CMP      R6,R7
        BEQ.N    ??fit_lfn_1
        LDRH     R7,[R0, R4, LSL #+1]
        MOVS     R6,R7
        ADDS     R4,R4,#+1
// 1269 		ST_WORD(dir+LfnOfs[s], wc);	/* Put it */
??fit_lfn_1:
        LDR.W    R7,??DataTable4
        LDRB     R7,[R5, R7]
        STRB     R6,[R7, R1]
        LDR.W    R7,??DataTable4
        LDRB     R7,[R5, R7]
        ADDS     R7,R7,R1
        UXTH     R6,R6            ;; ZeroExt  R6,R6,#+16,#+16
        LSRS     R12,R6,#+8
        STRB     R12,[R7, #+1]
// 1270 		if (!wc) wc = 0xFFFF;		/* Padding chars following last char */
        UXTH     R6,R6            ;; ZeroExt  R6,R6,#+16,#+16
        CMP      R6,#+0
        BNE.N    ??fit_lfn_2
        MOVW     R7,#+65535
        MOVS     R6,R7
// 1271 	} while (++s < 13);
??fit_lfn_2:
        ADDS     R5,R5,#+1
        CMP      R5,#+13
        BCC.N    ??fit_lfn_0
// 1272 	if (wc == 0xFFFF || !lfnbuf[i]) ord |= LLE;	/* Bottom LFN part is the start of LFN sequence */
        UXTH     R6,R6            ;; ZeroExt  R6,R6,#+16,#+16
        MOVW     R7,#+65535
        CMP      R6,R7
        BEQ.N    ??fit_lfn_3
        LDRH     R7,[R0, R4, LSL #+1]
        CMP      R7,#+0
        BNE.N    ??fit_lfn_4
??fit_lfn_3:
        ORRS     R2,R2,#0x40
// 1273 	dir[LDIR_Ord] = ord;			/* Set the LFN order */
??fit_lfn_4:
        STRB     R2,[R1, #+0]
// 1274 }
        POP      {R4-R7}
          CFI R4 SameValue
          CFI R5 SameValue
          CFI R6 SameValue
          CFI R7 SameValue
          CFI CFA R13+0
        BX       LR               ;; return
          CFI EndBlock cfiBlock15
// 1275 
// 1276 #endif
// 1277 #endif
// 1278 
// 1279 
// 1280 
// 1281 /*-----------------------------------------------------------------------*/
// 1282 /* Create numbered name                                                  */
// 1283 /*-----------------------------------------------------------------------*/
// 1284 #if _USE_LFN

        SECTION `.text`:CODE:NOROOT(1)
          CFI Block cfiBlock16 Using cfiCommon0
          CFI Function gen_numname
        THUMB
// 1285 void gen_numname (
// 1286 	BYTE *dst,			/* Pointer to generated SFN */
// 1287 	const BYTE *src,	/* Pointer to source SFN to be modified */
// 1288 	const WCHAR *lfn,	/* Pointer to LFN */
// 1289 	WORD seq			/* Sequence number */
// 1290 )
// 1291 {
gen_numname:
        PUSH     {R2-R10,LR}
          CFI R14 Frame(CFA, -4)
          CFI R10 Frame(CFA, -8)
          CFI R9 Frame(CFA, -12)
          CFI R8 Frame(CFA, -16)
          CFI R7 Frame(CFA, -20)
          CFI R6 Frame(CFA, -24)
          CFI R5 Frame(CFA, -28)
          CFI R4 Frame(CFA, -32)
          CFI CFA R13+40
        MOVS     R4,R0
        MOVS     R5,R1
        MOVS     R6,R2
        MOV      R9,R3
// 1292 	BYTE ns[8], c;
// 1293 	UINT i, j;
// 1294 
// 1295 
// 1296 	mem_cpy(dst, src, 11);
        MOVS     R2,#+11
        MOVS     R1,R5
        MOVS     R0,R4
          CFI FunCall mem_cpy
        BL       mem_cpy
// 1297 
// 1298 	if (seq > 5) {	/* On many collisions, generate a hash number instead of sequential number */
        UXTH     R9,R9            ;; ZeroExt  R9,R9,#+16,#+16
        CMP      R9,#+6
        BLT.N    ??gen_numname_0
// 1299 		do seq = (seq >> 1) + (seq << 15) + (WORD)*lfn++; while (*lfn);
??gen_numname_1:
        UXTH     R9,R9            ;; ZeroExt  R9,R9,#+16,#+16
        LSLS     R0,R9,#+15
        ADDS     R0,R0,R9, LSR #+1
        LDRH     R1,[R6, #+0]
        ADDS     R9,R1,R0
        ADDS     R6,R6,#+2
        LDRH     R0,[R6, #+0]
        CMP      R0,#+0
        BNE.N    ??gen_numname_1
// 1300 	}
// 1301 
// 1302 	/* itoa (hexdecimal) */
// 1303 	i = 7;
??gen_numname_0:
        MOVS     R0,#+7
        MOV      R8,R0
// 1304 	do {
// 1305 		c = (seq % 16) + '0';
??gen_numname_2:
        UXTH     R9,R9            ;; ZeroExt  R9,R9,#+16,#+16
        MOVS     R0,#+16
        SDIV     R1,R9,R0
        MLS      R1,R1,R0,R9
        ADDS     R0,R1,#+48
        MOVS     R7,R0
// 1306 		if (c > '9') c += 7;
        UXTB     R7,R7            ;; ZeroExt  R7,R7,#+24,#+24
        CMP      R7,#+58
        BLT.N    ??gen_numname_3
        ADDS     R7,R7,#+7
// 1307 		ns[i--] = c;
??gen_numname_3:
        ADD      R0,SP,#+0
        STRB     R7,[R8, R0]
        SUBS     R8,R8,#+1
// 1308 		seq /= 16;
        UXTH     R9,R9            ;; ZeroExt  R9,R9,#+16,#+16
        MOVS     R0,#+16
        SDIV     R9,R9,R0
// 1309 	} while (seq);
        UXTH     R9,R9            ;; ZeroExt  R9,R9,#+16,#+16
        CMP      R9,#+0
        BNE.N    ??gen_numname_2
// 1310 	ns[i] = '~';
        ADD      R0,SP,#+0
        MOVS     R1,#+126
        STRB     R1,[R8, R0]
// 1311 
// 1312 	/* Append the number */
// 1313 	for (j = 0; j < i && dst[j] != ' '; j++) {
        MOVS     R0,#+0
        MOV      R10,R0
??gen_numname_4:
        CMP      R10,R8
        BCS.N    ??gen_numname_5
        LDRB     R0,[R10, R4]
        CMP      R0,#+32
        BEQ.N    ??gen_numname_5
// 1314 		if (IsDBCS1(dst[j])) {
        ADDS     R10,R10,#+1
        B.N      ??gen_numname_4
// 1315 			if (j == i - 1) break;
// 1316 			j++;
// 1317 		}
// 1318 	}
// 1319 	do {
// 1320 		dst[j++] = (i < 8) ? ns[i++] : ' ';
??gen_numname_5:
        MOV      R0,R10
        ADDS     R10,R0,#+1
        CMP      R8,#+8
        BCS.N    ??gen_numname_6
        ADD      R1,SP,#+0
        LDRB     R1,[R8, R1]
        ADDS     R8,R8,#+1
        B.N      ??gen_numname_7
??gen_numname_6:
        MOVS     R1,#+32
??gen_numname_7:
        STRB     R1,[R0, R4]
// 1321 	} while (j < 8);
        CMP      R10,#+8
        BCC.N    ??gen_numname_5
// 1322 }
        POP      {R0,R1,R4-R10,PC}  ;; return
          CFI EndBlock cfiBlock16
// 1323 #endif
// 1324 
// 1325 
// 1326 
// 1327 
// 1328 /*-----------------------------------------------------------------------*/
// 1329 /* Calculate sum of an SFN                                               */
// 1330 /*-----------------------------------------------------------------------*/
// 1331 #if _USE_LFN

        SECTION `.text`:CODE:NOROOT(1)
          CFI Block cfiBlock17 Using cfiCommon0
          CFI Function sum_sfn
          CFI NoCalls
        THUMB
// 1332 static
// 1333 BYTE sum_sfn (
// 1334 	const BYTE *dir		/* Ptr to directory entry */
// 1335 )
// 1336 {
sum_sfn:
        MOVS     R1,R0
// 1337 	BYTE sum = 0;
        MOVS     R0,#+0
// 1338 	UINT n = 11;
        MOVS     R2,#+11
// 1339 
// 1340 	do sum = (sum >> 1) + (sum << 7) + *dir++; while (--n);
??sum_sfn_0:
        UXTB     R0,R0            ;; ZeroExt  R0,R0,#+24,#+24
        LSLS     R3,R0,#+7
        ADDS     R0,R3,R0, LSR #+1
        LDRB     R3,[R1, #+0]
        ADDS     R0,R3,R0
        ADDS     R1,R1,#+1
        SUBS     R2,R2,#+1
        CMP      R2,#+0
        BNE.N    ??sum_sfn_0
// 1341 	return sum;
        UXTB     R0,R0            ;; ZeroExt  R0,R0,#+24,#+24
        BX       LR               ;; return
          CFI EndBlock cfiBlock17
// 1342 }
// 1343 #endif
// 1344 
// 1345 
// 1346 
// 1347 
// 1348 /*-----------------------------------------------------------------------*/
// 1349 /* Directory handling - Find an object in the directory                  */
// 1350 /*-----------------------------------------------------------------------*/
// 1351 

        SECTION `.text`:CODE:NOROOT(1)
          CFI Block cfiBlock18 Using cfiCommon0
          CFI Function dir_find
        THUMB
// 1352 static
// 1353 FRESULT dir_find (
// 1354 	DIR *dj			/* Pointer to the directory object linked to the file name */
// 1355 )
// 1356 {
dir_find:
        PUSH     {R4-R10,LR}
          CFI R14 Frame(CFA, -4)
          CFI R10 Frame(CFA, -8)
          CFI R9 Frame(CFA, -12)
          CFI R8 Frame(CFA, -16)
          CFI R7 Frame(CFA, -20)
          CFI R6 Frame(CFA, -24)
          CFI R5 Frame(CFA, -28)
          CFI R4 Frame(CFA, -32)
          CFI CFA R13+32
        MOVS     R4,R0
// 1357 	FRESULT res;
// 1358 	BYTE c, *dir;
// 1359 #if _USE_LFN
// 1360 	BYTE a, ord, sum;
// 1361 #endif
// 1362 
// 1363 	res = dir_sdi(dj, 0);			/* Rewind directory object */
        MOVS     R1,#+0
        MOVS     R0,R4
          CFI FunCall dir_sdi
        BL       dir_sdi
        MOV      R10,R0
// 1364 	if (res != FR_OK) return res;
        UXTB     R10,R10          ;; ZeroExt  R10,R10,#+24,#+24
        CMP      R10,#+0
        BEQ.N    ??dir_find_0
        MOV      R0,R10
        UXTB     R0,R0            ;; ZeroExt  R0,R0,#+24,#+24
        B.N      ??dir_find_1
// 1365 
// 1366 #if _USE_LFN
// 1367 	ord = sum = 0xFF;
??dir_find_0:
        MOVS     R0,#+255
        MOV      R9,R0
        MOV      R8,R0
// 1368 #endif
// 1369 	do {
// 1370 		res = move_window(dj->fs, dj->sect);
??dir_find_2:
        LDR      R1,[R4, #+16]
        LDR      R0,[R4, #+0]
          CFI FunCall move_window
        BL       move_window
        MOV      R10,R0
// 1371 		if (res != FR_OK) break;
        UXTB     R10,R10          ;; ZeroExt  R10,R10,#+24,#+24
        CMP      R10,#+0
        BNE.N    ??dir_find_3
// 1372 		dir = dj->dir;					/* Ptr to the directory entry of current index */
??dir_find_4:
        LDR      R0,[R4, #+20]
        MOVS     R6,R0
// 1373 		c = dir[DIR_Name];
        LDRB     R0,[R6, #+0]
        MOVS     R5,R0
// 1374 		if (c == 0) { res = FR_NO_FILE; break; }	/* Reached to end of table */
        UXTB     R5,R5            ;; ZeroExt  R5,R5,#+24,#+24
        CMP      R5,#+0
        BNE.N    ??dir_find_5
        MOVS     R0,#+4
        MOV      R10,R0
        B.N      ??dir_find_3
// 1375 #if _USE_LFN	/* LFN configuration */
// 1376 		a = dir[DIR_Attr] & AM_MASK;
??dir_find_5:
        LDRB     R0,[R6, #+11]
        ANDS     R0,R0,#0x3F
        MOVS     R7,R0
// 1377 		if (c == DDE || ((a & AM_VOL) && a != AM_LFN)) {	/* An entry without valid data */
        UXTB     R5,R5            ;; ZeroExt  R5,R5,#+24,#+24
        CMP      R5,#+229
        BEQ.N    ??dir_find_6
        LSLS     R0,R7,#+28
        BPL.N    ??dir_find_7
        UXTB     R7,R7            ;; ZeroExt  R7,R7,#+24,#+24
        CMP      R7,#+15
        BEQ.N    ??dir_find_7
// 1378 			ord = 0xFF;
??dir_find_6:
        MOVS     R0,#+255
        MOV      R8,R0
        B.N      ??dir_find_8
// 1379 		} else {
// 1380 			if (a == AM_LFN) {			/* An LFN entry is found */
??dir_find_7:
        UXTB     R7,R7            ;; ZeroExt  R7,R7,#+24,#+24
        CMP      R7,#+15
        BNE.N    ??dir_find_9
// 1381 				if (dj->lfn) {
        LDR      R0,[R4, #+28]
        CMP      R0,#+0
        BEQ.N    ??dir_find_8
// 1382 					if (c & LLE) {		/* Is it start of LFN sequence? */
        LSLS     R0,R5,#+25
        BPL.N    ??dir_find_10
// 1383 						sum = dir[LDIR_Chksum];
        LDRB     R0,[R6, #+13]
        MOV      R9,R0
// 1384 						c &= ~LLE; ord = c;	/* LFN start order */
        ANDS     R5,R5,#0xBF
        MOV      R8,R5
// 1385 						dj->lfn_idx = dj->index;
        LDRH     R0,[R4, #+6]
        STRH     R0,[R4, #+32]
// 1386 					}
// 1387 					/* Check validity of the LFN entry and compare it with given name */
// 1388 					ord = (c == ord && sum == dir[LDIR_Chksum] && cmp_lfn(dj->lfn, dir)) ? ord - 1 : 0xFF;
??dir_find_10:
        UXTB     R5,R5            ;; ZeroExt  R5,R5,#+24,#+24
        UXTB     R8,R8            ;; ZeroExt  R8,R8,#+24,#+24
        CMP      R5,R8
        BNE.N    ??dir_find_11
        LDRB     R0,[R6, #+13]
        UXTB     R9,R9            ;; ZeroExt  R9,R9,#+24,#+24
        CMP      R9,R0
        BNE.N    ??dir_find_11
        MOVS     R1,R6
        LDR      R0,[R4, #+28]
          CFI FunCall cmp_lfn
        BL       cmp_lfn
        CMP      R0,#+0
        BEQ.N    ??dir_find_11
        SUBS     R8,R8,#+1
        B.N      ??dir_find_12
??dir_find_11:
        MOV      R8,#+255
??dir_find_12:
        B.N      ??dir_find_8
// 1389 				}
// 1390 			} else {					/* An SFN entry is found */
// 1391 				if (!ord && sum == sum_sfn(dir)) break;	/* LFN matched? */
??dir_find_9:
        UXTB     R8,R8            ;; ZeroExt  R8,R8,#+24,#+24
        CMP      R8,#+0
        BNE.N    ??dir_find_13
        MOVS     R0,R6
          CFI FunCall sum_sfn
        BL       sum_sfn
        UXTB     R9,R9            ;; ZeroExt  R9,R9,#+24,#+24
        CMP      R9,R0
        BEQ.N    ??dir_find_3
// 1392 				ord = 0xFF; dj->lfn_idx = 0xFFFF;	/* Reset LFN sequence */
??dir_find_13:
        MOVS     R0,#+255
        MOV      R8,R0
        MOVW     R0,#+65535
        STRH     R0,[R4, #+32]
// 1393 				if (!(dj->fn[NS] & NS_LOSS) && !mem_cmp(dir, dj->fn, 11)) break;	/* SFN matched? */
        LDR      R0,[R4, #+24]
        LDRB     R0,[R0, #+11]
        LSLS     R0,R0,#+31
        BMI.N    ??dir_find_8
        MOVS     R2,#+11
        LDR      R1,[R4, #+24]
        MOVS     R0,R6
          CFI FunCall mem_cmp
        BL       mem_cmp
        CMP      R0,#+0
        BEQ.N    ??dir_find_3
// 1394 			}
// 1395 		}
// 1396 #else		/* Non LFN configuration */
// 1397 		if (!(dir[DIR_Attr] & AM_VOL) && !mem_cmp(dir, dj->fn, 11)) /* Is it a valid entry? */
// 1398 			break;
// 1399 #endif
// 1400 		res = dir_next(dj, 0);		/* Next entry */
??dir_find_8:
        MOVS     R1,#+0
        MOVS     R0,R4
          CFI FunCall dir_next
        BL       dir_next
        MOV      R10,R0
// 1401 	} while (res == FR_OK);
        UXTB     R10,R10          ;; ZeroExt  R10,R10,#+24,#+24
        CMP      R10,#+0
        BEQ.N    ??dir_find_2
// 1402 
// 1403 	return res;
??dir_find_3:
        MOV      R0,R10
        UXTB     R0,R0            ;; ZeroExt  R0,R0,#+24,#+24
??dir_find_1:
        POP      {R4-R10,PC}      ;; return
          CFI EndBlock cfiBlock18
// 1404 }
// 1405 
// 1406 
// 1407 
// 1408 
// 1409 /*-----------------------------------------------------------------------*/
// 1410 /* Read an object from the directory                                     */
// 1411 /*-----------------------------------------------------------------------*/
// 1412 #if _FS_MINIMIZE <= 1

        SECTION `.text`:CODE:NOROOT(1)
          CFI Block cfiBlock19 Using cfiCommon0
          CFI Function dir_read
        THUMB
// 1413 static
// 1414 FRESULT dir_read (
// 1415 	DIR *dj			/* Pointer to the directory object that pointing the entry to be read */
// 1416 )
// 1417 {
dir_read:
        PUSH     {R4-R10,LR}
          CFI R14 Frame(CFA, -4)
          CFI R10 Frame(CFA, -8)
          CFI R9 Frame(CFA, -12)
          CFI R8 Frame(CFA, -16)
          CFI R7 Frame(CFA, -20)
          CFI R6 Frame(CFA, -24)
          CFI R5 Frame(CFA, -28)
          CFI R4 Frame(CFA, -32)
          CFI CFA R13+32
        MOVS     R4,R0
// 1418 	FRESULT res;
// 1419 	BYTE c, *dir;
// 1420 #if _USE_LFN
// 1421 	BYTE a, ord = 0xFF, sum = 0xFF;
        MOV      R9,#+255
        MOV      R10,#+255
// 1422 #endif
// 1423 
// 1424 	res = FR_NO_FILE;
        MOVS     R0,#+4
        MOVS     R5,R0
// 1425 	while (dj->sect) {
??dir_read_0:
        LDR      R0,[R4, #+16]
        CMP      R0,#+0
        BEQ.N    ??dir_read_1
// 1426 		res = move_window(dj->fs, dj->sect);
        LDR      R1,[R4, #+16]
        LDR      R0,[R4, #+0]
          CFI FunCall move_window
        BL       move_window
        MOVS     R5,R0
// 1427 		if (res != FR_OK) break;
        UXTB     R5,R5            ;; ZeroExt  R5,R5,#+24,#+24
        CMP      R5,#+0
        BNE.N    ??dir_read_1
// 1428 		dir = dj->dir;					/* Ptr to the directory entry of current index */
??dir_read_2:
        LDR      R0,[R4, #+20]
        MOVS     R7,R0
// 1429 		c = dir[DIR_Name];
        LDRB     R0,[R7, #+0]
        MOVS     R6,R0
// 1430 		if (c == 0) { res = FR_NO_FILE; break; }	/* Reached to end of table */
        UXTB     R6,R6            ;; ZeroExt  R6,R6,#+24,#+24
        CMP      R6,#+0
        BNE.N    ??dir_read_3
        MOVS     R0,#+4
        MOVS     R5,R0
        B.N      ??dir_read_1
// 1431 #if _USE_LFN	/* LFN configuration */
// 1432 		a = dir[DIR_Attr] & AM_MASK;
??dir_read_3:
        LDRB     R0,[R7, #+11]
        ANDS     R0,R0,#0x3F
        MOV      R8,R0
// 1433 		if (c == DDE || (!_FS_RPATH && c == '.') || ((a & AM_VOL) && a != AM_LFN)) {	/* An entry without valid data */
        UXTB     R6,R6            ;; ZeroExt  R6,R6,#+24,#+24
        CMP      R6,#+229
        BEQ.N    ??dir_read_4
        UXTB     R6,R6            ;; ZeroExt  R6,R6,#+24,#+24
        CMP      R6,#+46
        BEQ.N    ??dir_read_4
        LSLS     R0,R8,#+28
        BPL.N    ??dir_read_5
        UXTB     R8,R8            ;; ZeroExt  R8,R8,#+24,#+24
        CMP      R8,#+15
        BEQ.N    ??dir_read_5
// 1434 			ord = 0xFF;
??dir_read_4:
        MOVS     R0,#+255
        MOV      R9,R0
        B.N      ??dir_read_6
// 1435 		} else {
// 1436 			if (a == AM_LFN) {			/* An LFN entry is found */
??dir_read_5:
        UXTB     R8,R8            ;; ZeroExt  R8,R8,#+24,#+24
        CMP      R8,#+15
        BNE.N    ??dir_read_7
// 1437 				if (c & LLE) {			/* Is it start of LFN sequence? */
        LSLS     R0,R6,#+25
        BPL.N    ??dir_read_8
// 1438 					sum = dir[LDIR_Chksum];
        LDRB     R0,[R7, #+13]
        MOV      R10,R0
// 1439 					c &= ~LLE; ord = c;
        ANDS     R6,R6,#0xBF
        MOV      R9,R6
// 1440 					dj->lfn_idx = dj->index;
        LDRH     R0,[R4, #+6]
        STRH     R0,[R4, #+32]
// 1441 				}
// 1442 				/* Check LFN validity and capture it */
// 1443 				ord = (c == ord && sum == dir[LDIR_Chksum] && pick_lfn(dj->lfn, dir)) ? ord - 1 : 0xFF;
??dir_read_8:
        UXTB     R6,R6            ;; ZeroExt  R6,R6,#+24,#+24
        UXTB     R9,R9            ;; ZeroExt  R9,R9,#+24,#+24
        CMP      R6,R9
        BNE.N    ??dir_read_9
        LDRB     R0,[R7, #+13]
        UXTB     R10,R10          ;; ZeroExt  R10,R10,#+24,#+24
        CMP      R10,R0
        BNE.N    ??dir_read_9
        MOVS     R1,R7
        LDR      R0,[R4, #+28]
          CFI FunCall pick_lfn
        BL       pick_lfn
        CMP      R0,#+0
        BEQ.N    ??dir_read_9
        SUBS     R9,R9,#+1
        B.N      ??dir_read_10
??dir_read_9:
        MOV      R9,#+255
??dir_read_10:
        B.N      ??dir_read_6
// 1444 			} else {					/* An SFN entry is found */
// 1445 				if (ord || sum != sum_sfn(dir))	/* Is there a valid LFN? */
??dir_read_7:
        UXTB     R9,R9            ;; ZeroExt  R9,R9,#+24,#+24
        CMP      R9,#+0
        BNE.N    ??dir_read_11
        MOVS     R0,R7
          CFI FunCall sum_sfn
        BL       sum_sfn
        UXTB     R10,R10          ;; ZeroExt  R10,R10,#+24,#+24
        CMP      R10,R0
        BEQ.N    ??dir_read_12
// 1446 					dj->lfn_idx = 0xFFFF;		/* It has no LFN. */
??dir_read_11:
        MOVW     R0,#+65535
        STRH     R0,[R4, #+32]
// 1447 				break;
??dir_read_12:
        B.N      ??dir_read_1
// 1448 			}
// 1449 		}
// 1450 #else		/* Non LFN configuration */
// 1451 		if (c != DDE && (_FS_RPATH || c != '.') && !(dir[DIR_Attr] & AM_VOL))	/* Is it a valid entry? */
// 1452 			break;
// 1453 #endif
// 1454 		res = dir_next(dj, 0);				/* Next entry */
??dir_read_6:
        MOVS     R1,#+0
        MOVS     R0,R4
          CFI FunCall dir_next
        BL       dir_next
        MOVS     R5,R0
// 1455 		if (res != FR_OK) break;
        UXTB     R5,R5            ;; ZeroExt  R5,R5,#+24,#+24
        CMP      R5,#+0
        BEQ.N    ??dir_read_0
// 1456 	}
// 1457 
// 1458 	if (res != FR_OK) dj->sect = 0;
??dir_read_1:
        UXTB     R5,R5            ;; ZeroExt  R5,R5,#+24,#+24
        CMP      R5,#+0
        BEQ.N    ??dir_read_13
        MOVS     R0,#+0
        STR      R0,[R4, #+16]
// 1459 
// 1460 	return res;
??dir_read_13:
        MOVS     R0,R5
        UXTB     R0,R0            ;; ZeroExt  R0,R0,#+24,#+24
        POP      {R4-R10,PC}      ;; return
          CFI EndBlock cfiBlock19
// 1461 }
// 1462 #endif
// 1463 
// 1464 
// 1465 
// 1466 /*-----------------------------------------------------------------------*/
// 1467 /* Register an object to the directory                                   */
// 1468 /*-----------------------------------------------------------------------*/
// 1469 #if !_FS_READONLY

        SECTION `.text`:CODE:NOROOT(1)
          CFI Block cfiBlock20 Using cfiCommon0
          CFI Function dir_register
        THUMB
// 1470 static
// 1471 FRESULT dir_register (	/* FR_OK:Successful, FR_DENIED:No free entry or too many SFN collision, FR_DISK_ERR:Disk error */
// 1472 	DIR *dj				/* Target directory with object name to be created */
// 1473 )
// 1474 {
dir_register:
        PUSH     {R4-R11,LR}
          CFI R14 Frame(CFA, -4)
          CFI R11 Frame(CFA, -8)
          CFI R10 Frame(CFA, -12)
          CFI R9 Frame(CFA, -16)
          CFI R8 Frame(CFA, -20)
          CFI R7 Frame(CFA, -24)
          CFI R6 Frame(CFA, -28)
          CFI R5 Frame(CFA, -32)
          CFI R4 Frame(CFA, -36)
          CFI CFA R13+36
        SUB      SP,SP,#+20
          CFI CFA R13+56
        MOVS     R6,R0
// 1475 	FRESULT res;
// 1476 	BYTE c, *dir;
// 1477 #if _USE_LFN	/* LFN configuration */
// 1478 	WORD n, ne, is;
// 1479 	BYTE sn[12], *fn, sum;
// 1480 	WCHAR *lfn;
// 1481 
// 1482 
// 1483 	fn = dj->fn; lfn = dj->lfn;
        LDR      R0,[R6, #+24]
        MOV      R9,R0
        LDR      R0,[R6, #+28]
        MOV      R10,R0
// 1484 	mem_cpy(sn, fn, 12);
        MOVS     R2,#+12
        MOV      R1,R9
        ADD      R0,SP,#+8
          CFI FunCall mem_cpy
        BL       mem_cpy
// 1485 
// 1486 	if (_FS_RPATH && (sn[NS] & NS_DOT))		/* Cannot create dot entry */
// 1487 		return FR_INVALID_NAME;
// 1488 
// 1489 	if (sn[NS] & NS_LOSS) {			/* When LFN is out of 8.3 format, generate a numbered name */
        LDRB     R0,[SP, #+19]
        LSLS     R0,R0,#+31
        BPL.N    ??dir_register_0
// 1490 		fn[NS] = 0; dj->lfn = 0;			/* Find only SFN */
        MOVS     R0,#+0
        STRB     R0,[R9, #+11]
        MOVS     R0,#+0
        STR      R0,[R6, #+28]
// 1491 		for (n = 1; n < 100; n++) {
        MOVS     R0,#+1
        MOVS     R5,R0
??dir_register_1:
        UXTH     R5,R5            ;; ZeroExt  R5,R5,#+16,#+16
        CMP      R5,#+100
        BGE.N    ??dir_register_2
// 1492 			gen_numname(fn, sn, lfn, n);	/* Generate a numbered name */
        MOVS     R3,R5
        UXTH     R3,R3            ;; ZeroExt  R3,R3,#+16,#+16
        MOV      R2,R10
        ADD      R1,SP,#+8
        MOV      R0,R9
          CFI FunCall gen_numname
        BL       gen_numname
// 1493 			res = dir_find(dj);				/* Check if the name collides with existing SFN */
        MOVS     R0,R6
          CFI FunCall dir_find
        BL       dir_find
        MOV      R11,R0
// 1494 			if (res != FR_OK) break;
        UXTB     R11,R11          ;; ZeroExt  R11,R11,#+24,#+24
        CMP      R11,#+0
        BNE.N    ??dir_register_2
// 1495 		}
??dir_register_3:
        ADDS     R5,R5,#+1
        B.N      ??dir_register_1
// 1496 		if (n == 100) return FR_DENIED;		/* Abort if too many collisions */
??dir_register_2:
        UXTH     R5,R5            ;; ZeroExt  R5,R5,#+16,#+16
        CMP      R5,#+100
        BNE.N    ??dir_register_4
        MOVS     R0,#+7
        B.N      ??dir_register_5
// 1497 		if (res != FR_NO_FILE) return res;	/* Abort if the result is other than 'not collided' */
??dir_register_4:
        UXTB     R11,R11          ;; ZeroExt  R11,R11,#+24,#+24
        CMP      R11,#+4
        BEQ.N    ??dir_register_6
        MOV      R0,R11
        UXTB     R0,R0            ;; ZeroExt  R0,R0,#+24,#+24
        B.N      ??dir_register_5
// 1498 		fn[NS] = sn[NS]; dj->lfn = lfn;
??dir_register_6:
        LDRB     R0,[SP, #+19]
        STRB     R0,[R9, #+11]
        STR      R10,[R6, #+28]
// 1499 	}
// 1500 
// 1501 	if (sn[NS] & NS_LFN) {			/* When LFN is to be created, reserve an SFN + LFN entries. */
??dir_register_0:
        LDRB     R0,[SP, #+19]
        LSLS     R0,R0,#+30
        BPL.N    ??dir_register_7
// 1502 		for (ne = 0; lfn[ne]; ne++) ;
        MOVS     R0,#+0
        MOVS     R4,R0
??dir_register_8:
        UXTH     R4,R4            ;; ZeroExt  R4,R4,#+16,#+16
        LDRH     R0,[R10, R4, LSL #+1]
        CMP      R0,#+0
        BEQ.N    ??dir_register_9
        ADDS     R4,R4,#+1
        B.N      ??dir_register_8
// 1503 		ne = (ne + 25) / 13;
??dir_register_9:
        UXTH     R4,R4            ;; ZeroExt  R4,R4,#+16,#+16
        ADDS     R0,R4,#+25
        MOVS     R1,#+13
        SDIV     R4,R0,R1
        B.N      ??dir_register_10
// 1504 	} else {						/* Otherwise reserve only an SFN entry. */
// 1505 		ne = 1;
??dir_register_7:
        MOVS     R0,#+1
        MOVS     R4,R0
// 1506 	}
// 1507 
// 1508 	/* Reserve contiguous entries */
// 1509 	res = dir_sdi(dj, 0);
??dir_register_10:
        MOVS     R1,#+0
        MOVS     R0,R6
          CFI FunCall dir_sdi
        BL       dir_sdi
        MOV      R11,R0
// 1510 	if (res != FR_OK) return res;
        UXTB     R11,R11          ;; ZeroExt  R11,R11,#+24,#+24
        CMP      R11,#+0
        BEQ.N    ??dir_register_11
        MOV      R0,R11
        UXTB     R0,R0            ;; ZeroExt  R0,R0,#+24,#+24
        B.N      ??dir_register_5
// 1511 	n = is = 0;
??dir_register_11:
        MOVS     R0,#+0
        MOV      R8,R0
        MOVS     R5,R0
// 1512 	do {
// 1513 		res = move_window(dj->fs, dj->sect);
??dir_register_12:
        LDR      R1,[R6, #+16]
        LDR      R0,[R6, #+0]
          CFI FunCall move_window
        BL       move_window
        MOV      R11,R0
// 1514 		if (res != FR_OK) break;
        UXTB     R11,R11          ;; ZeroExt  R11,R11,#+24,#+24
        CMP      R11,#+0
        BNE.N    ??dir_register_13
// 1515 		c = *dj->dir;				/* Check the entry status */
??dir_register_14:
        LDR      R0,[R6, #+20]
        LDRB     R0,[R0, #+0]
        MOVS     R7,R0
// 1516 		if (c == DDE || c == 0) {	/* Is it a blank entry? */
        UXTB     R7,R7            ;; ZeroExt  R7,R7,#+24,#+24
        CMP      R7,#+229
        BEQ.N    ??dir_register_15
        UXTB     R7,R7            ;; ZeroExt  R7,R7,#+24,#+24
        CMP      R7,#+0
        BNE.N    ??dir_register_16
// 1517 			if (n == 0) is = dj->index;	/* First index of the contiguous entry */
??dir_register_15:
        UXTH     R5,R5            ;; ZeroExt  R5,R5,#+16,#+16
        CMP      R5,#+0
        BNE.N    ??dir_register_17
        LDRH     R0,[R6, #+6]
        MOV      R8,R0
// 1518 			if (++n == ne) break;	/* A contiguous entry that required count is found */
??dir_register_17:
        ADDS     R0,R5,#+1
        MOVS     R5,R0
        UXTH     R0,R0            ;; ZeroExt  R0,R0,#+16,#+16
        UXTH     R4,R4            ;; ZeroExt  R4,R4,#+16,#+16
        CMP      R0,R4
        BNE.N    ??dir_register_18
        B.N      ??dir_register_13
// 1519 		} else {
// 1520 			n = 0;					/* Not a blank entry. Restart to search */
??dir_register_16:
        MOVS     R0,#+0
        MOVS     R5,R0
// 1521 		}
// 1522 		res = dir_next(dj, 1);		/* Next entry with table stretch */
??dir_register_18:
        MOVS     R1,#+1
        MOVS     R0,R6
          CFI FunCall dir_next
        BL       dir_next
        MOV      R11,R0
// 1523 	} while (res == FR_OK);
        UXTB     R11,R11          ;; ZeroExt  R11,R11,#+24,#+24
        CMP      R11,#+0
        BEQ.N    ??dir_register_12
// 1524 
// 1525 	if (res == FR_OK && ne > 1) {	/* Initialize LFN entry if needed */
??dir_register_13:
        UXTB     R11,R11          ;; ZeroExt  R11,R11,#+24,#+24
        CMP      R11,#+0
        BNE.N    ??dir_register_19
        UXTH     R4,R4            ;; ZeroExt  R4,R4,#+16,#+16
        CMP      R4,#+2
        BLT.N    ??dir_register_19
// 1526 		res = dir_sdi(dj, is);
        MOV      R1,R8
        UXTH     R1,R1            ;; ZeroExt  R1,R1,#+16,#+16
        MOVS     R0,R6
          CFI FunCall dir_sdi
        BL       dir_sdi
        MOV      R11,R0
// 1527 		if (res == FR_OK) {
        UXTB     R11,R11          ;; ZeroExt  R11,R11,#+24,#+24
        CMP      R11,#+0
        BNE.N    ??dir_register_19
// 1528 			sum = sum_sfn(dj->fn);	/* Sum of the SFN tied to the LFN */
        LDR      R0,[R6, #+24]
          CFI FunCall sum_sfn
        BL       sum_sfn
        STRB     R0,[SP, #+4]
// 1529 			ne--;
        SUBS     R4,R4,#+1
// 1530 			do {					/* Store LFN entries in bottom first */
// 1531 				res = move_window(dj->fs, dj->sect);
??dir_register_20:
        LDR      R1,[R6, #+16]
        LDR      R0,[R6, #+0]
          CFI FunCall move_window
        BL       move_window
        MOV      R11,R0
// 1532 				if (res != FR_OK) break;
        UXTB     R11,R11          ;; ZeroExt  R11,R11,#+24,#+24
        CMP      R11,#+0
        BNE.N    ??dir_register_19
// 1533 				fit_lfn(dj->lfn, dj->dir, (BYTE)ne, sum);
??dir_register_21:
        LDRB     R3,[SP, #+4]
        MOVS     R2,R4
        UXTB     R2,R2            ;; ZeroExt  R2,R2,#+24,#+24
        LDR      R1,[R6, #+20]
        LDR      R0,[R6, #+28]
          CFI FunCall fit_lfn
        BL       fit_lfn
// 1534 				dj->fs->wflag = 1;
        LDR      R0,[R6, #+0]
        MOVS     R1,#+1
        STRB     R1,[R0, #+4]
// 1535 				res = dir_next(dj, 0);	/* Next entry */
        MOVS     R1,#+0
        MOVS     R0,R6
          CFI FunCall dir_next
        BL       dir_next
        MOV      R11,R0
// 1536 			} while (res == FR_OK && --ne);
        UXTB     R11,R11          ;; ZeroExt  R11,R11,#+24,#+24
        CMP      R11,#+0
        BNE.N    ??dir_register_19
        SUBS     R0,R4,#+1
        MOVS     R4,R0
        UXTH     R0,R0            ;; ZeroExt  R0,R0,#+16,#+16
        CMP      R0,#+0
        BNE.N    ??dir_register_20
// 1537 		}
// 1538 	}
// 1539 
// 1540 #else	/* Non LFN configuration */
// 1541 	res = dir_sdi(dj, 0);
// 1542 	if (res == FR_OK) {
// 1543 		do {	/* Find a blank entry for the SFN */
// 1544 			res = move_window(dj->fs, dj->sect);
// 1545 			if (res != FR_OK) break;
// 1546 			c = *dj->dir;
// 1547 			if (c == DDE || c == 0) break;	/* Is it a blank entry? */
// 1548 			res = dir_next(dj, 1);			/* Next entry with table stretch */
// 1549 		} while (res == FR_OK);
// 1550 	}
// 1551 #endif
// 1552 
// 1553 	if (res == FR_OK) {		/* Initialize the SFN entry */
??dir_register_19:
        UXTB     R11,R11          ;; ZeroExt  R11,R11,#+24,#+24
        CMP      R11,#+0
        BNE.N    ??dir_register_22
// 1554 		res = move_window(dj->fs, dj->sect);
        LDR      R1,[R6, #+16]
        LDR      R0,[R6, #+0]
          CFI FunCall move_window
        BL       move_window
        MOV      R11,R0
// 1555 		if (res == FR_OK) {
        UXTB     R11,R11          ;; ZeroExt  R11,R11,#+24,#+24
        CMP      R11,#+0
        BNE.N    ??dir_register_22
// 1556 			dir = dj->dir;
        LDR      R0,[R6, #+20]
        STR      R0,[SP, #+0]
// 1557 			mem_set(dir, 0, SZ_DIR);	/* Clean the entry */
        MOVS     R2,#+32
        MOVS     R1,#+0
        LDR      R0,[SP, #+0]
          CFI FunCall mem_set
        BL       mem_set
// 1558 			mem_cpy(dir, dj->fn, 11);	/* Put SFN */
        MOVS     R2,#+11
        LDR      R1,[R6, #+24]
        LDR      R0,[SP, #+0]
          CFI FunCall mem_cpy
        BL       mem_cpy
// 1559 #if _USE_LFN
// 1560 			dir[DIR_NTres] = *(dj->fn+NS) & (NS_BODY | NS_EXT);	/* Put NT flag */
        LDR      R0,[R6, #+24]
        LDRB     R0,[R0, #+11]
        ANDS     R0,R0,#0x18
        LDR      R1,[SP, #+0]
        STRB     R0,[R1, #+12]
// 1561 #endif
// 1562 			dj->fs->wflag = 1;
        LDR      R0,[R6, #+0]
        MOVS     R1,#+1
        STRB     R1,[R0, #+4]
// 1563 		}
// 1564 	}
// 1565 
// 1566 	return res;
??dir_register_22:
        MOV      R0,R11
        UXTB     R0,R0            ;; ZeroExt  R0,R0,#+24,#+24
??dir_register_5:
        ADD      SP,SP,#+20
          CFI CFA R13+36
        POP      {R4-R11,PC}      ;; return
          CFI EndBlock cfiBlock20
// 1567 }
// 1568 #endif /* !_FS_READONLY */
// 1569 
// 1570 
// 1571 
// 1572 
// 1573 /*-----------------------------------------------------------------------*/
// 1574 /* Remove an object from the directory                                   */
// 1575 /*-----------------------------------------------------------------------*/
// 1576 #if !_FS_READONLY && !_FS_MINIMIZE

        SECTION `.text`:CODE:NOROOT(1)
          CFI Block cfiBlock21 Using cfiCommon0
          CFI Function dir_remove
        THUMB
// 1577 static
// 1578 FRESULT dir_remove (	/* FR_OK: Successful, FR_DISK_ERR: A disk error */
// 1579 	DIR *dj				/* Directory object pointing the entry to be removed */
// 1580 )
// 1581 {
dir_remove:
        PUSH     {R4-R6,LR}
          CFI R14 Frame(CFA, -4)
          CFI R6 Frame(CFA, -8)
          CFI R5 Frame(CFA, -12)
          CFI R4 Frame(CFA, -16)
          CFI CFA R13+16
        MOVS     R4,R0
// 1582 	FRESULT res;
// 1583 #if _USE_LFN	/* LFN configuration */
// 1584 	WORD i;
// 1585 
// 1586 	i = dj->index;	/* SFN index */
        LDRH     R0,[R4, #+6]
        MOVS     R6,R0
// 1587 	res = dir_sdi(dj, (WORD)((dj->lfn_idx == 0xFFFF) ? i : dj->lfn_idx));	/* Goto the SFN or top of the LFN entries */
        LDRH     R0,[R4, #+32]
        MOVW     R1,#+65535
        CMP      R0,R1
        BNE.N    ??dir_remove_0
        MOVS     R1,R6
        B.N      ??dir_remove_1
??dir_remove_0:
        LDRH     R1,[R4, #+32]
??dir_remove_1:
        UXTH     R1,R1            ;; ZeroExt  R1,R1,#+16,#+16
        MOVS     R0,R4
          CFI FunCall dir_sdi
        BL       dir_sdi
        MOVS     R5,R0
// 1588 	if (res == FR_OK) {
        UXTB     R5,R5            ;; ZeroExt  R5,R5,#+24,#+24
        CMP      R5,#+0
        BNE.N    ??dir_remove_2
// 1589 		do {
// 1590 			res = move_window(dj->fs, dj->sect);
??dir_remove_3:
        LDR      R1,[R4, #+16]
        LDR      R0,[R4, #+0]
          CFI FunCall move_window
        BL       move_window
        MOVS     R5,R0
// 1591 			if (res != FR_OK) break;
        UXTB     R5,R5            ;; ZeroExt  R5,R5,#+24,#+24
        CMP      R5,#+0
        BNE.N    ??dir_remove_4
// 1592 			*dj->dir = DDE;			/* Mark the entry "deleted" */
??dir_remove_5:
        LDR      R0,[R4, #+20]
        MOVS     R1,#+229
        STRB     R1,[R0, #+0]
// 1593 			dj->fs->wflag = 1;
        LDR      R0,[R4, #+0]
        MOVS     R1,#+1
        STRB     R1,[R0, #+4]
// 1594 			if (dj->index >= i) break;	/* When reached SFN, all entries of the object has been deleted. */
        LDRH     R0,[R4, #+6]
        UXTH     R6,R6            ;; ZeroExt  R6,R6,#+16,#+16
        CMP      R0,R6
        BCS.N    ??dir_remove_4
// 1595 			res = dir_next(dj, 0);		/* Next entry */
??dir_remove_6:
        MOVS     R1,#+0
        MOVS     R0,R4
          CFI FunCall dir_next
        BL       dir_next
        MOVS     R5,R0
// 1596 		} while (res == FR_OK);
        UXTB     R5,R5            ;; ZeroExt  R5,R5,#+24,#+24
        CMP      R5,#+0
        BEQ.N    ??dir_remove_3
// 1597 		if (res == FR_NO_FILE) res = FR_INT_ERR;
??dir_remove_4:
        UXTB     R5,R5            ;; ZeroExt  R5,R5,#+24,#+24
        CMP      R5,#+4
        BNE.N    ??dir_remove_2
        MOVS     R0,#+2
        MOVS     R5,R0
// 1598 	}
// 1599 
// 1600 #else			/* Non LFN configuration */
// 1601 	res = dir_sdi(dj, dj->index);
// 1602 	if (res == FR_OK) {
// 1603 		res = move_window(dj->fs, dj->sect);
// 1604 		if (res == FR_OK) {
// 1605 			*dj->dir = DDE;			/* Mark the entry "deleted" */
// 1606 			dj->fs->wflag = 1;
// 1607 		}
// 1608 	}
// 1609 #endif
// 1610 
// 1611 	return res;
??dir_remove_2:
        MOVS     R0,R5
        UXTB     R0,R0            ;; ZeroExt  R0,R0,#+24,#+24
        POP      {R4-R6,PC}       ;; return
          CFI EndBlock cfiBlock21
// 1612 }
// 1613 #endif /* !_FS_READONLY */
// 1614 
// 1615 
// 1616 
// 1617 
// 1618 /*-----------------------------------------------------------------------*/
// 1619 /* Pick a segment and create the object name in directory form           */
// 1620 /*-----------------------------------------------------------------------*/
// 1621 

        SECTION `.text`:CODE:NOROOT(1)
          CFI Block cfiBlock22 Using cfiCommon0
          CFI Function create_name
        THUMB
// 1622 static
// 1623 FRESULT create_name (
// 1624 	DIR *dj,			/* Pointer to the directory object */
// 1625 	const TCHAR **path	/* Pointer to pointer to the segment in the path string */
// 1626 )
// 1627 {
create_name:
        PUSH     {R0,R1,R4-R11,LR}
          CFI R14 Frame(CFA, -4)
          CFI R11 Frame(CFA, -8)
          CFI R10 Frame(CFA, -12)
          CFI R9 Frame(CFA, -16)
          CFI R8 Frame(CFA, -20)
          CFI R7 Frame(CFA, -24)
          CFI R6 Frame(CFA, -28)
          CFI R5 Frame(CFA, -32)
          CFI R4 Frame(CFA, -36)
          CFI CFA R13+44
        SUB      SP,SP,#+4
          CFI CFA R13+48
// 1628 #ifdef _EXCVT
// 1629 	static const BYTE excvt[] = _EXCVT;	/* Upper conversion table for extended chars */
// 1630 #endif
// 1631 
// 1632 #if _USE_LFN	/* LFN configuration */
// 1633 	BYTE b, cf;
// 1634 	WCHAR w, *lfn;
// 1635 	UINT i, ni, si, di;
// 1636 	const TCHAR *p;
// 1637 
// 1638 	/* Create LFN in Unicode */
// 1639 	for (p = *path; *p == '/' || *p == '\\'; p++) ;	/* Strip duplicated separator */
        LDR      R0,[SP, #+8]
        LDR      R0,[R0, #+0]
        MOVS     R7,R0
??create_name_0:
        LDRB     R0,[R7, #+0]
        CMP      R0,#+47
        BEQ.N    ??create_name_1
        LDRB     R0,[R7, #+0]
        CMP      R0,#+92
        BNE.N    ??create_name_2
??create_name_1:
        ADDS     R7,R7,#+1
        B.N      ??create_name_0
// 1640 	lfn = dj->lfn;
??create_name_2:
        LDR      R0,[SP, #+4]
        LDR      R0,[R0, #+28]
        MOVS     R5,R0
// 1641 	si = di = 0;
        MOVS     R0,#+0
        MOV      R9,R0
        MOV      R10,R0
// 1642 	for (;;) {
// 1643 		w = p[si++];					/* Get a character */
??create_name_3:
        LDRB     R0,[R10, R7]
        MOV      R8,R0
        ADDS     R10,R10,#+1
// 1644 		if (w < ' ' || w == '/' || w == '\\') break;	/* Break on end of segment */
        UXTH     R8,R8            ;; ZeroExt  R8,R8,#+16,#+16
        CMP      R8,#+32
        BLT.N    ??create_name_4
        UXTH     R8,R8            ;; ZeroExt  R8,R8,#+16,#+16
        CMP      R8,#+47
        BEQ.N    ??create_name_4
        UXTH     R8,R8            ;; ZeroExt  R8,R8,#+16,#+16
        CMP      R8,#+92
        BNE.N    ??create_name_5
// 1645 		if (di >= _MAX_LFN)				/* Reject too long name */
// 1646 			return FR_INVALID_NAME;
// 1647 #if !_LFN_UNICODE
// 1648 		w &= 0xFF;
// 1649 		if (IsDBCS1(w)) {				/* Check if it is a DBC 1st byte (always false on SBCS cfg) */
// 1650 			b = (BYTE)p[si++];			/* Get 2nd byte */
// 1651 			if (!IsDBCS2(b))
// 1652 				return FR_INVALID_NAME;	/* Reject invalid sequence */
// 1653 			w = (w << 8) + b;			/* Create a DBC */
// 1654 		}
// 1655 		w = ff_convert(w, 1);			/* Convert ANSI/OEM to Unicode */
// 1656 		if (!w) return FR_INVALID_NAME;	/* Reject invalid code */
// 1657 #endif
// 1658 		if (w < 0x80 && chk_chr("\"*:<>\?|\x7F", w)) /* Reject illegal chars for LFN */
// 1659 			return FR_INVALID_NAME;
// 1660 		lfn[di++] = w;					/* Store the Unicode char */
// 1661 	}
// 1662 	*path = &p[si];						/* Return pointer to the next segment */
??create_name_4:
        ADDS     R0,R10,R7
        LDR      R1,[SP, #+8]
        STR      R0,[R1, #+0]
// 1663 	cf = (w < ' ') ? NS_LAST : 0;		/* Set last segment flag if end of path */
        UXTH     R8,R8            ;; ZeroExt  R8,R8,#+16,#+16
        CMP      R8,#+32
        BGE.N    ??create_name_6
        B.N      ??create_name_7
??create_name_5:
        CMP      R9,#+255
        BCC.N    ??create_name_8
        MOVS     R0,#+6
        B.N      ??create_name_9
??create_name_8:
        UXTB     R8,R8            ;; ZeroExt  R8,R8,#+24,#+24
        MOVS     R1,#+1
        MOV      R0,R8
        UXTH     R0,R0            ;; ZeroExt  R0,R0,#+16,#+16
          CFI FunCall ff_convert
        BL       ff_convert
        MOV      R8,R0
        UXTH     R8,R8            ;; ZeroExt  R8,R8,#+16,#+16
        CMP      R8,#+0
        BNE.N    ??create_name_10
        MOVS     R0,#+6
        B.N      ??create_name_9
??create_name_10:
        UXTH     R8,R8            ;; ZeroExt  R8,R8,#+16,#+16
        CMP      R8,#+128
        BGE.N    ??create_name_11
        UXTH     R8,R8            ;; ZeroExt  R8,R8,#+16,#+16
        MOV      R1,R8
        LDR.W    R0,??DataTable6
          CFI FunCall chk_chr
        BL       chk_chr
        CMP      R0,#+0
        BEQ.N    ??create_name_11
        MOVS     R0,#+6
        B.N      ??create_name_9
??create_name_11:
        STRH     R8,[R5, R9, LSL #+1]
        ADDS     R9,R9,#+1
        B.N      ??create_name_3
??create_name_7:
        MOVS     R11,#+4
        B.N      ??create_name_12
??create_name_6:
        MOVS     R11,#+0
// 1664 #if _FS_RPATH
// 1665 	if ((di == 1 && lfn[di-1] == '.') || /* Is this a dot entry? */
// 1666 		(di == 2 && lfn[di-1] == '.' && lfn[di-2] == '.')) {
// 1667 		lfn[di] = 0;
// 1668 		for (i = 0; i < 11; i++)
// 1669 			dj->fn[i] = (i < di) ? '.' : ' ';
// 1670 		dj->fn[i] = cf | NS_DOT;		/* This is a dot entry */
// 1671 		return FR_OK;
// 1672 	}
// 1673 #endif
// 1674 	while (di) {						/* Strip trailing spaces and dots */
??create_name_12:
??create_name_13:
        CMP      R9,#+0
        BEQ.N    ??create_name_14
// 1675 		w = lfn[di-1];
        ADDS     R0,R5,R9, LSL #+1
        LDRH     R0,[R0, #-2]
        MOV      R8,R0
// 1676 		if (w != ' ' && w != '.') break;
        UXTH     R8,R8            ;; ZeroExt  R8,R8,#+16,#+16
        CMP      R8,#+32
        BEQ.N    ??create_name_15
        UXTH     R8,R8            ;; ZeroExt  R8,R8,#+16,#+16
        CMP      R8,#+46
        BNE.N    ??create_name_14
// 1677 		di--;
??create_name_15:
        SUBS     R9,R9,#+1
        B.N      ??create_name_13
// 1678 	}
// 1679 	if (!di) return FR_INVALID_NAME;	/* Reject nul string */
??create_name_14:
        CMP      R9,#+0
        BNE.N    ??create_name_16
        MOVS     R0,#+6
        B.N      ??create_name_9
// 1680 
// 1681 	lfn[di] = 0;						/* LFN is created */
??create_name_16:
        MOVS     R0,#+0
        STRH     R0,[R5, R9, LSL #+1]
// 1682 
// 1683 	/* Create SFN in directory form */
// 1684 	mem_set(dj->fn, ' ', 11);
        MOVS     R2,#+11
        MOVS     R1,#+32
        LDR      R0,[SP, #+4]
        LDR      R0,[R0, #+24]
          CFI FunCall mem_set
        BL       mem_set
// 1685 	for (si = 0; lfn[si] == ' ' || lfn[si] == '.'; si++) ;	/* Strip leading spaces and dots */
        MOVS     R0,#+0
        MOV      R10,R0
??create_name_17:
        LDRH     R0,[R5, R10, LSL #+1]
        CMP      R0,#+32
        BEQ.N    ??create_name_18
        LDRH     R0,[R5, R10, LSL #+1]
        CMP      R0,#+46
        BNE.N    ??create_name_19
??create_name_18:
        ADDS     R10,R10,#+1
        B.N      ??create_name_17
// 1686 	if (si) cf |= NS_LOSS | NS_LFN;
??create_name_19:
        CMP      R10,#+0
        BEQ.N    ??create_name_20
        ORRS     R11,R11,#0x3
// 1687 	while (di && lfn[di - 1] != '.') di--;	/* Find extension (di<=si: no extension) */
??create_name_20:
        CMP      R9,#+0
        BEQ.N    ??create_name_21
        ADDS     R0,R5,R9, LSL #+1
        LDRH     R0,[R0, #-2]
        CMP      R0,#+46
        BEQ.N    ??create_name_21
        SUBS     R9,R9,#+1
        B.N      ??create_name_20
// 1688 
// 1689 	b = i = 0; ni = 8;
??create_name_21:
        MOVS     R0,#+0
        MOVS     R6,R0
        MOVS     R4,R0
        MOVS     R0,#+8
        STR      R0,[SP, #+0]
// 1690 	for (;;) {
// 1691 		w = lfn[si++];					/* Get an LFN char */
??create_name_22:
        LDRH     R0,[R5, R10, LSL #+1]
        MOV      R8,R0
        ADDS     R10,R10,#+1
// 1692 		if (!w) break;					/* Break on end of the LFN */
        UXTH     R8,R8            ;; ZeroExt  R8,R8,#+16,#+16
        CMP      R8,#+0
        BEQ.N    ??create_name_23
// 1693 		if (w == ' ' || (w == '.' && si != di)) {	/* Remove spaces and dots */
??create_name_24:
        UXTH     R8,R8            ;; ZeroExt  R8,R8,#+16,#+16
        CMP      R8,#+32
        BEQ.N    ??create_name_25
        UXTH     R8,R8            ;; ZeroExt  R8,R8,#+16,#+16
        CMP      R8,#+46
        BNE.N    ??create_name_26
        CMP      R10,R9
        BEQ.N    ??create_name_26
// 1694 			cf |= NS_LOSS | NS_LFN; continue;
??create_name_25:
        ORRS     R11,R11,#0x3
        B.N      ??create_name_22
// 1695 		}
// 1696 
// 1697 		if (i >= ni || si == di) {		/* Extension or end of SFN */
??create_name_26:
        LDR      R0,[SP, #+0]
        CMP      R6,R0
        BCS.N    ??create_name_27
        CMP      R10,R9
        BNE.N    ??create_name_28
// 1698 			if (ni == 11) {				/* Long extension */
??create_name_27:
        LDR      R0,[SP, #+0]
        CMP      R0,#+11
        BNE.N    ??create_name_29
// 1699 				cf |= NS_LOSS | NS_LFN; break;
        ORRS     R11,R11,#0x3
        B.N      ??create_name_23
// 1700 			}
// 1701 			if (si != di) cf |= NS_LOSS | NS_LFN;	/* Out of 8.3 format */
??create_name_29:
        CMP      R10,R9
        BEQ.N    ??create_name_30
        ORRS     R11,R11,#0x3
// 1702 			if (si > di) break;			/* No extension */
??create_name_30:
        CMP      R9,R10
        BCC.N    ??create_name_23
// 1703 			si = di; i = 8; ni = 11;	/* Enter extension section */
??create_name_31:
        MOV      R10,R9
        MOVS     R0,#+8
        MOVS     R6,R0
        MOVS     R0,#+11
        STR      R0,[SP, #+0]
// 1704 			b <<= 2; continue;
        LSLS     R4,R4,#+2
        B.N      ??create_name_22
// 1705 		}
// 1706 
// 1707 		if (w >= 0x80) {				/* Non ASCII char */
??create_name_28:
        UXTH     R8,R8            ;; ZeroExt  R8,R8,#+16,#+16
        CMP      R8,#+128
        BLT.N    ??create_name_32
// 1708 #ifdef _EXCVT
// 1709 			w = ff_convert(w, 0);		/* Unicode -> OEM code */
        MOVS     R1,#+0
        MOV      R0,R8
        UXTH     R0,R0            ;; ZeroExt  R0,R0,#+16,#+16
          CFI FunCall ff_convert
        BL       ff_convert
        MOV      R8,R0
// 1710 			if (w) w = excvt[w - 0x80];	/* Convert extended char to upper (SBCS) */
        UXTH     R8,R8            ;; ZeroExt  R8,R8,#+16,#+16
        CMP      R8,#+0
        BEQ.N    ??create_name_33
        UXTH     R8,R8            ;; ZeroExt  R8,R8,#+16,#+16
        LDR.W    R0,??DataTable6_1
        ADDS     R0,R8,R0
        LDRB     R8,[R0, #-128]
// 1711 #else
// 1712 			w = ff_convert(ff_wtoupper(w), 0);	/* Upper converted Unicode -> OEM code */
// 1713 #endif
// 1714 			cf |= NS_LFN;				/* Force create LFN entry */
??create_name_33:
        ORRS     R11,R11,#0x2
// 1715 		}
// 1716 
// 1717 		if (_DF1S && w >= 0x100) {		/* Double byte char (always false on SBCS cfg) */
// 1718 			if (i >= ni - 1) {
// 1719 				cf |= NS_LOSS | NS_LFN; i = ni; continue;
// 1720 			}
// 1721 			dj->fn[i++] = (BYTE)(w >> 8);
// 1722 		} else {						/* Single byte char */
// 1723 			if (!w || chk_chr("+,;=[]", w)) {	/* Replace illegal chars for SFN */
??create_name_32:
        UXTH     R8,R8            ;; ZeroExt  R8,R8,#+16,#+16
        CMP      R8,#+0
        BEQ.N    ??create_name_34
        UXTH     R8,R8            ;; ZeroExt  R8,R8,#+16,#+16
        MOV      R1,R8
        LDR.W    R0,??DataTable6_2
          CFI FunCall chk_chr
        BL       chk_chr
        CMP      R0,#+0
        BEQ.N    ??create_name_35
// 1724 				w = '_'; cf |= NS_LOSS | NS_LFN;/* Lossy conversion */
??create_name_34:
        MOVS     R0,#+95
        MOV      R8,R0
        ORRS     R11,R11,#0x3
        B.N      ??create_name_36
// 1725 			} else {
// 1726 				if (IsUpper(w)) {		/* ASCII large capital */
??create_name_35:
        UXTH     R8,R8            ;; ZeroExt  R8,R8,#+16,#+16
        CMP      R8,#+65
        BLT.N    ??create_name_37
        UXTH     R8,R8            ;; ZeroExt  R8,R8,#+16,#+16
        CMP      R8,#+91
        BGE.N    ??create_name_37
// 1727 					b |= 2;
        ORRS     R4,R4,#0x2
        B.N      ??create_name_36
// 1728 				} else {
// 1729 					if (IsLower(w)) {	/* ASCII small capital */
??create_name_37:
        UXTH     R8,R8            ;; ZeroExt  R8,R8,#+16,#+16
        CMP      R8,#+97
        BLT.N    ??create_name_36
        UXTH     R8,R8            ;; ZeroExt  R8,R8,#+16,#+16
        CMP      R8,#+123
        BGE.N    ??create_name_36
// 1730 						b |= 1; w -= 0x20;
        ORRS     R4,R4,#0x1
        SUBS     R8,R8,#+32
// 1731 					}
// 1732 				}
// 1733 			}
// 1734 		}
// 1735 		dj->fn[i++] = (BYTE)w;
??create_name_36:
        LDR      R0,[SP, #+4]
        LDR      R0,[R0, #+24]
        STRB     R8,[R6, R0]
        ADDS     R6,R6,#+1
        B.N      ??create_name_22
// 1736 	}
// 1737 
// 1738 	if (dj->fn[0] == DDE) dj->fn[0] = NDDE;	/* If the first char collides with deleted mark, replace it with 0x05 */
??create_name_23:
        LDR      R0,[SP, #+4]
        LDR      R0,[R0, #+24]
        LDRB     R0,[R0, #+0]
        CMP      R0,#+229
        BNE.N    ??create_name_38
        LDR      R0,[SP, #+4]
        LDR      R0,[R0, #+24]
        MOVS     R1,#+5
        STRB     R1,[R0, #+0]
// 1739 
// 1740 	if (ni == 8) b <<= 2;
??create_name_38:
        LDR      R0,[SP, #+0]
        CMP      R0,#+8
        BNE.N    ??create_name_39
        LSLS     R4,R4,#+2
// 1741 	if ((b & 0x0C) == 0x0C || (b & 0x03) == 0x03)	/* Create LFN entry when there are composite capitals */
??create_name_39:
        UXTB     R4,R4            ;; ZeroExt  R4,R4,#+24,#+24
        ANDS     R0,R4,#0xC
        CMP      R0,#+12
        BEQ.N    ??create_name_40
        UXTB     R4,R4            ;; ZeroExt  R4,R4,#+24,#+24
        ANDS     R0,R4,#0x3
        CMP      R0,#+3
        BNE.N    ??create_name_41
// 1742 		cf |= NS_LFN;
??create_name_40:
        ORRS     R11,R11,#0x2
// 1743 	if (!(cf & NS_LFN)) {						/* When LFN is in 8.3 format without extended char, NT flags are created */
??create_name_41:
        LSLS     R0,R11,#+30
        BMI.N    ??create_name_42
// 1744 		if ((b & 0x03) == 0x01) cf |= NS_EXT;	/* NT flag (Extension has only small capital) */
        UXTB     R4,R4            ;; ZeroExt  R4,R4,#+24,#+24
        ANDS     R0,R4,#0x3
        CMP      R0,#+1
        BNE.N    ??create_name_43
        ORRS     R11,R11,#0x10
// 1745 		if ((b & 0x0C) == 0x04) cf |= NS_BODY;	/* NT flag (Filename has only small capital) */
??create_name_43:
        UXTB     R4,R4            ;; ZeroExt  R4,R4,#+24,#+24
        ANDS     R0,R4,#0xC
        CMP      R0,#+4
        BNE.N    ??create_name_42
        ORRS     R11,R11,#0x8
// 1746 	}
// 1747 
// 1748 	dj->fn[NS] = cf;	/* SFN is created */
??create_name_42:
        LDR      R0,[SP, #+4]
        LDR      R0,[R0, #+24]
        STRB     R11,[R0, #+11]
// 1749 
// 1750 	return FR_OK;
        MOVS     R0,#+0
??create_name_9:
        POP      {R1-R11,PC}      ;; return
          CFI EndBlock cfiBlock22
// 1751 
// 1752 
// 1753 #else	/* Non-LFN configuration */
// 1754 	BYTE b, c, d, *sfn;
// 1755 	UINT ni, si, i;
// 1756 	const char *p;
// 1757 
// 1758 	/* Create file name in directory form */
// 1759 	for (p = *path; *p == '/' || *p == '\\'; p++) ;	/* Strip duplicated separator */
// 1760 	sfn = dj->fn;
// 1761 	mem_set(sfn, ' ', 11);
// 1762 	si = i = b = 0; ni = 8;
// 1763 #if _FS_RPATH
// 1764 	if (p[si] == '.') { /* Is this a dot entry? */
// 1765 		for (;;) {
// 1766 			c = (BYTE)p[si++];
// 1767 			if (c != '.' || si >= 3) break;
// 1768 			sfn[i++] = c;
// 1769 		}
// 1770 		if (c != '/' && c != '\\' && c > ' ') return FR_INVALID_NAME;
// 1771 		*path = &p[si];									/* Return pointer to the next segment */
// 1772 		sfn[NS] = (c <= ' ') ? NS_LAST | NS_DOT : NS_DOT;	/* Set last segment flag if end of path */
// 1773 		return FR_OK;
// 1774 	}
// 1775 #endif
// 1776 	for (;;) {
// 1777 		c = (BYTE)p[si++];
// 1778 		if (c <= ' ' || c == '/' || c == '\\') break;	/* Break on end of segment */
// 1779 		if (c == '.' || i >= ni) {
// 1780 			if (ni != 8 || c != '.') return FR_INVALID_NAME;
// 1781 			i = 8; ni = 11;
// 1782 			b <<= 2; continue;
// 1783 		}
// 1784 		if (c >= 0x80) {				/* Extended char? */
// 1785 			b |= 3;						/* Eliminate NT flag */
// 1786 #ifdef _EXCVT
// 1787 			c = excvt[c-0x80];			/* Upper conversion (SBCS) */
// 1788 #else
// 1789 #if !_DF1S	/* ASCII only cfg */
// 1790 			return FR_INVALID_NAME;
// 1791 #endif
// 1792 #endif
// 1793 		}
// 1794 		if (IsDBCS1(c)) {				/* Check if it is a DBC 1st byte (always false on SBCS cfg) */
// 1795 			d = (BYTE)p[si++];			/* Get 2nd byte */
// 1796 			if (!IsDBCS2(d) || i >= ni - 1)	/* Reject invalid DBC */
// 1797 				return FR_INVALID_NAME;
// 1798 			sfn[i++] = c;
// 1799 			sfn[i++] = d;
// 1800 		} else {						/* Single byte code */
// 1801 			if (chk_chr("\"*+,:;<=>\?[]|\x7F", c))	/* Reject illegal chrs for SFN */
// 1802 				return FR_INVALID_NAME;
// 1803 			if (IsUpper(c)) {			/* ASCII large capital? */
// 1804 				b |= 2;
// 1805 			} else {
// 1806 				if (IsLower(c)) {		/* ASCII small capital? */
// 1807 					b |= 1; c -= 0x20;
// 1808 				}
// 1809 			}
// 1810 			sfn[i++] = c;
// 1811 		}
// 1812 	}
// 1813 	*path = &p[si];						/* Return pointer to the next segment */
// 1814 	c = (c <= ' ') ? NS_LAST : 0;		/* Set last segment flag if end of path */
// 1815 
// 1816 	if (!i) return FR_INVALID_NAME;		/* Reject nul string */
// 1817 	if (sfn[0] == DDE) sfn[0] = NDDE;	/* When first char collides with DDE, replace it with 0x05 */
// 1818 
// 1819 	if (ni == 8) b <<= 2;
// 1820 	if ((b & 0x03) == 0x01) c |= NS_EXT;	/* NT flag (Name extension has only small capital) */
// 1821 	if ((b & 0x0C) == 0x04) c |= NS_BODY;	/* NT flag (Name body has only small capital) */
// 1822 
// 1823 	sfn[NS] = c;		/* Store NT flag, File name is created */
// 1824 
// 1825 	return FR_OK;
// 1826 #endif
// 1827 }

        SECTION `.rodata`:CONST:REORDER:NOROOT(2)
??excvt:
        DATA
        DC8 128, 129, 130, 130, 132, 133, 134, 135, 136, 137, 138, 139, 140
        DC8 141, 142, 143, 128, 145, 146, 147, 148, 149, 150, 151, 152, 153
        DC8 138, 155, 140, 141, 142, 143, 160, 162, 162, 163, 164, 165, 166
        DC8 167, 168, 169, 170, 171, 172, 173, 174, 175, 176, 177, 178, 178
        DC8 165, 181, 182, 183, 168, 185, 170, 187, 163, 189, 189, 175, 192
        DC8 193, 194, 195, 196, 197, 198, 199, 200, 201, 202, 203, 204, 205
        DC8 206, 207, 208, 209, 210, 211, 212, 213, 214, 215, 216, 217, 218
        DC8 219, 220, 221, 222, 223, 192, 193, 194, 195, 196, 197, 198, 199
        DC8 200, 201, 202, 203, 204, 205, 206, 207, 208, 209, 210, 211, 212
        DC8 213, 214, 215, 216, 217, 218, 219, 220, 221, 222, 223
// 1828 
// 1829 
// 1830 
// 1831 
// 1832 /*-----------------------------------------------------------------------*/
// 1833 /* Get file information from directory entry                             */
// 1834 /*-----------------------------------------------------------------------*/
// 1835 #if _FS_MINIMIZE <= 1

        SECTION `.text`:CODE:NOROOT(1)
          CFI Block cfiBlock23 Using cfiCommon0
          CFI Function get_fileinfo
        THUMB
// 1836 static
// 1837 void get_fileinfo (		/* No return code */
// 1838 	DIR *dj,			/* Pointer to the directory object */
// 1839 	FILINFO *fno	 	/* Pointer to the file information to be filled */
// 1840 )
// 1841 {
get_fileinfo:
        PUSH     {R0,R4-R11,LR}
          CFI R14 Frame(CFA, -4)
          CFI R11 Frame(CFA, -8)
          CFI R10 Frame(CFA, -12)
          CFI R9 Frame(CFA, -16)
          CFI R8 Frame(CFA, -20)
          CFI R7 Frame(CFA, -24)
          CFI R6 Frame(CFA, -28)
          CFI R5 Frame(CFA, -32)
          CFI R4 Frame(CFA, -36)
          CFI CFA R13+40
        SUB      SP,SP,#+8
          CFI CFA R13+48
        MOVS     R4,R1
// 1842 	UINT i;
// 1843 	BYTE nt, *dir;
// 1844 	TCHAR *p, c;
// 1845 
// 1846 
// 1847 	p = fno->fname;
        ADDW     R0,R4,#+9
        MOVS     R7,R0
// 1848 	if (dj->sect) {
        LDR      R0,[SP, #+8]
        LDR      R0,[R0, #+16]
        CMP      R0,#+0
        BEQ.N    ??get_fileinfo_0
// 1849 		dir = dj->dir;
        LDR      R0,[SP, #+8]
        LDR      R0,[R0, #+20]
        MOVS     R5,R0
// 1850 		nt = dir[DIR_NTres];		/* NT flag */
        LDRB     R0,[R5, #+12]
        STRB     R0,[SP, #+0]
// 1851 		for (i = 0; i < 8; i++) {	/* Copy name body */
        MOVS     R0,#+0
        MOV      R8,R0
??get_fileinfo_1:
        CMP      R8,#+8
        BCS.N    ??get_fileinfo_2
// 1852 			c = dir[i];
        LDRB     R0,[R8, R5]
        MOVS     R6,R0
// 1853 			if (c == ' ') break;
        UXTB     R6,R6            ;; ZeroExt  R6,R6,#+24,#+24
        CMP      R6,#+32
        BEQ.N    ??get_fileinfo_2
// 1854 			if (c == NDDE) c = (TCHAR)DDE;
??get_fileinfo_3:
        UXTB     R6,R6            ;; ZeroExt  R6,R6,#+24,#+24
        CMP      R6,#+5
        BNE.N    ??get_fileinfo_4
        MOVS     R0,#+229
        MOVS     R6,R0
// 1855 			if (_USE_LFN && (nt & NS_BODY) && IsUpper(c)) c += 0x20;
??get_fileinfo_4:
        LDRB     R0,[SP, #+0]
        LSLS     R0,R0,#+28
        BPL.N    ??get_fileinfo_5
        UXTB     R6,R6            ;; ZeroExt  R6,R6,#+24,#+24
        CMP      R6,#+65
        BLT.N    ??get_fileinfo_5
        UXTB     R6,R6            ;; ZeroExt  R6,R6,#+24,#+24
        CMP      R6,#+91
        BGE.N    ??get_fileinfo_5
        ADDS     R6,R6,#+32
// 1856 #if _LFN_UNICODE
// 1857 			if (IsDBCS1(c) && i < 7 && IsDBCS2(dir[i+1]))
// 1858 				c = (c << 8) | dir[++i];
// 1859 			c = ff_convert(c, 1);
// 1860 			if (!c) c = '?';
// 1861 #endif
// 1862 			*p++ = c;
??get_fileinfo_5:
        STRB     R6,[R7, #+0]
        ADDS     R7,R7,#+1
// 1863 		}
        ADDS     R8,R8,#+1
        B.N      ??get_fileinfo_1
// 1864 		if (dir[8] != ' ') {		/* Copy name extension */
??get_fileinfo_2:
        LDRB     R0,[R5, #+8]
        CMP      R0,#+32
        BEQ.N    ??get_fileinfo_6
// 1865 			*p++ = '.';
        MOVS     R0,#+46
        STRB     R0,[R7, #+0]
        ADDS     R7,R7,#+1
// 1866 			for (i = 8; i < 11; i++) {
        MOVS     R0,#+8
        MOV      R8,R0
??get_fileinfo_7:
        CMP      R8,#+11
        BCS.N    ??get_fileinfo_6
// 1867 				c = dir[i];
        LDRB     R0,[R8, R5]
        MOVS     R6,R0
// 1868 				if (c == ' ') break;
        UXTB     R6,R6            ;; ZeroExt  R6,R6,#+24,#+24
        CMP      R6,#+32
        BEQ.N    ??get_fileinfo_6
// 1869 				if (_USE_LFN && (nt & NS_EXT) && IsUpper(c)) c += 0x20;
??get_fileinfo_8:
        LDRB     R0,[SP, #+0]
        LSLS     R0,R0,#+27
        BPL.N    ??get_fileinfo_9
        UXTB     R6,R6            ;; ZeroExt  R6,R6,#+24,#+24
        CMP      R6,#+65
        BLT.N    ??get_fileinfo_9
        UXTB     R6,R6            ;; ZeroExt  R6,R6,#+24,#+24
        CMP      R6,#+91
        BGE.N    ??get_fileinfo_9
        ADDS     R6,R6,#+32
// 1870 #if _LFN_UNICODE
// 1871 				if (IsDBCS1(c) && i < 10 && IsDBCS2(dir[i+1]))
// 1872 					c = (c << 8) | dir[++i];
// 1873 				c = ff_convert(c, 1);
// 1874 				if (!c) c = '?';
// 1875 #endif
// 1876 				*p++ = c;
??get_fileinfo_9:
        STRB     R6,[R7, #+0]
        ADDS     R7,R7,#+1
// 1877 			}
        ADDS     R8,R8,#+1
        B.N      ??get_fileinfo_7
// 1878 		}
// 1879 		fno->fattrib = dir[DIR_Attr];				/* Attribute */
??get_fileinfo_6:
        LDRB     R0,[R5, #+11]
        STRB     R0,[R4, #+8]
// 1880 		fno->fsize = LD_DWORD(dir+DIR_FileSize);	/* Size */
        LDRB     R0,[R5, #+31]
        LDRB     R1,[R5, #+30]
        LSLS     R1,R1,#+16
        ORRS     R0,R1,R0, LSL #+24
        LDRB     R1,[R5, #+29]
        ORRS     R0,R0,R1, LSL #+8
        LDRB     R1,[R5, #+28]
        ORRS     R0,R1,R0
        STR      R0,[R4, #+0]
// 1881 		fno->fdate = LD_WORD(dir+DIR_WrtDate);		/* Date */
        LDRB     R0,[R5, #+25]
        LDRB     R1,[R5, #+24]
        ORRS     R0,R1,R0, LSL #+8
        STRH     R0,[R4, #+4]
// 1882 		fno->ftime = LD_WORD(dir+DIR_WrtTime);		/* Time */
        LDRB     R0,[R5, #+23]
        LDRB     R1,[R5, #+22]
        ORRS     R0,R1,R0, LSL #+8
        STRH     R0,[R4, #+6]
// 1883 	}
// 1884 	*p = 0;		/* Terminate SFN str by a \0 */
??get_fileinfo_0:
        MOVS     R0,#+0
        STRB     R0,[R7, #+0]
// 1885 
// 1886 #if _USE_LFN
// 1887 	if (fno->lfname && fno->lfsize) {
        LDR      R0,[R4, #+24]
        CMP      R0,#+0
        BEQ.N    ??get_fileinfo_10
        LDR      R0,[R4, #+28]
        CMP      R0,#+0
        BEQ.N    ??get_fileinfo_10
// 1888 		TCHAR *tp = fno->lfname;
        LDR      R9,[R4, #+24]
// 1889 		WCHAR w, *lfn;
// 1890 
// 1891 		i = 0;
        MOVS     R0,#+0
        MOV      R8,R0
// 1892 		if (dj->sect && dj->lfn_idx != 0xFFFF) {/* Get LFN if available */
        LDR      R0,[SP, #+8]
        LDR      R0,[R0, #+16]
        CMP      R0,#+0
        BEQ.N    ??get_fileinfo_11
        LDR      R0,[SP, #+8]
        LDRH     R0,[R0, #+32]
        MOVW     R1,#+65535
        CMP      R0,R1
        BEQ.N    ??get_fileinfo_11
// 1893 			lfn = dj->lfn;
        LDR      R0,[SP, #+8]
        LDR      R0,[R0, #+28]
        MOV      R11,R0
// 1894 			while ((w = *lfn++) != 0) {			/* Get an LFN char */
??get_fileinfo_12:
        LDRH     R0,[R11, #+0]
        ADDS     R11,R11,#+2
        MOV      R10,R0
        UXTH     R0,R0            ;; ZeroExt  R0,R0,#+16,#+16
        CMP      R0,#+0
        BEQ.N    ??get_fileinfo_11
// 1895 #if !_LFN_UNICODE
// 1896 				w = ff_convert(w, 0);			/* Unicode -> OEM conversion */
        MOVS     R1,#+0
        MOV      R0,R10
        UXTH     R0,R0            ;; ZeroExt  R0,R0,#+16,#+16
          CFI FunCall ff_convert
        BL       ff_convert
        MOV      R10,R0
// 1897 				if (!w) { i = 0; break; }		/* Could not convert, no LFN */
        UXTH     R10,R10          ;; ZeroExt  R10,R10,#+16,#+16
        CMP      R10,#+0
        BNE.N    ??get_fileinfo_13
        MOVS     R0,#+0
        MOV      R8,R0
        B.N      ??get_fileinfo_11
// 1898 				if (_DF1S && w >= 0x100)		/* Put 1st byte if it is a DBC (always false on SBCS cfg) */
// 1899 					tp[i++] = (TCHAR)(w >> 8);
// 1900 #endif
// 1901 				if (i >= fno->lfsize - 1) { i = 0; break; }	/* Buffer overflow, no LFN */
??get_fileinfo_13:
        LDR      R0,[R4, #+28]
        SUBS     R0,R0,#+1
        CMP      R8,R0
        BCC.N    ??get_fileinfo_14
        MOVS     R0,#+0
        MOV      R8,R0
        B.N      ??get_fileinfo_11
// 1902 				tp[i++] = (TCHAR)w;
??get_fileinfo_14:
        STRB     R10,[R8, R9]
        ADDS     R8,R8,#+1
        B.N      ??get_fileinfo_12
// 1903 			}
// 1904 		}
// 1905 		tp[i] = 0;	/* Terminate the LFN str by a \0 */
??get_fileinfo_11:
        MOVS     R0,#+0
        STRB     R0,[R8, R9]
// 1906 	}
// 1907 #endif
// 1908 }
??get_fileinfo_10:
        POP      {R0-R2,R4-R11,PC}  ;; return
          CFI EndBlock cfiBlock23
// 1909 #endif /* _FS_MINIMIZE <= 1 */
// 1910 
// 1911 
// 1912 
// 1913 
// 1914 /*-----------------------------------------------------------------------*/
// 1915 /* Follow a file path                                                    */
// 1916 /*-----------------------------------------------------------------------*/
// 1917 

        SECTION `.text`:CODE:NOROOT(1)
          CFI Block cfiBlock24 Using cfiCommon0
          CFI Function follow_path
        THUMB
// 1918 static
// 1919 FRESULT follow_path (	/* FR_OK(0): successful, !=0: error code */
// 1920 	DIR *dj,			/* Directory object to return last directory and found object */
// 1921 	const TCHAR *path	/* Full-path string to find a file or directory */
// 1922 )
// 1923 {
follow_path:
        PUSH     {R1,R4-R7,LR}
          CFI R14 Frame(CFA, -4)
          CFI R7 Frame(CFA, -8)
          CFI R6 Frame(CFA, -12)
          CFI R5 Frame(CFA, -16)
          CFI R4 Frame(CFA, -20)
          CFI CFA R13+24
        MOVS     R4,R0
// 1924 	FRESULT res;
// 1925 	BYTE *dir, ns;
// 1926 
// 1927 
// 1928 #if _FS_RPATH
// 1929 	if (*path == '/' || *path == '\\') { /* There is a heading separator */
// 1930 		path++;	dj->sclust = 0;		/* Strip it and start from the root dir */
// 1931 	} else {							/* No heading separator */
// 1932 		dj->sclust = dj->fs->cdir;	/* Start from the current dir */
// 1933 	}
// 1934 #else
// 1935 	if (*path == '/' || *path == '\\')	/* Strip heading separator if exist */
        LDR      R0,[SP, #+0]
        LDRB     R0,[R0, #+0]
        CMP      R0,#+47
        BEQ.N    ??follow_path_0
        LDR      R0,[SP, #+0]
        LDRB     R0,[R0, #+0]
        CMP      R0,#+92
        BNE.N    ??follow_path_1
// 1936 		path++;
??follow_path_0:
        LDR      R0,[SP, #+0]
        ADDS     R0,R0,#+1
        STR      R0,[SP, #+0]
// 1937 	dj->sclust = 0;						/* Start from the root dir */
??follow_path_1:
        MOVS     R0,#+0
        STR      R0,[R4, #+8]
// 1938 #endif
// 1939 
// 1940 	if ((UINT)*path < ' ') {			/* Nul path means the start directory itself */
        LDR      R0,[SP, #+0]
        LDRB     R0,[R0, #+0]
        CMP      R0,#+32
        BCS.N    ??follow_path_2
// 1941 		res = dir_sdi(dj, 0);
        MOVS     R1,#+0
        MOVS     R0,R4
          CFI FunCall dir_sdi
        BL       dir_sdi
        MOVS     R5,R0
// 1942 		dj->dir = 0;
        MOVS     R0,#+0
        STR      R0,[R4, #+20]
        B.N      ??follow_path_3
// 1943 
// 1944 	} else {							/* Follow path */
// 1945 		for (;;) {
// 1946 			res = create_name(dj, &path);	/* Get a segment */
??follow_path_2:
        ADD      R1,SP,#+0
        MOVS     R0,R4
          CFI FunCall create_name
        BL       create_name
        MOVS     R5,R0
// 1947 			if (res != FR_OK) break;
        UXTB     R5,R5            ;; ZeroExt  R5,R5,#+24,#+24
        CMP      R5,#+0
        BNE.N    ??follow_path_3
// 1948 			res = dir_find(dj);				/* Find it */
??follow_path_4:
        MOVS     R0,R4
          CFI FunCall dir_find
        BL       dir_find
        MOVS     R5,R0
// 1949 			ns = *(dj->fn+NS);
        LDR      R0,[R4, #+24]
        LDRB     R0,[R0, #+11]
        MOVS     R7,R0
// 1950 			if (res != FR_OK) {				/* Failed to find the object */
        UXTB     R5,R5            ;; ZeroExt  R5,R5,#+24,#+24
        CMP      R5,#+0
        BEQ.N    ??follow_path_5
// 1951 				if (res != FR_NO_FILE) break;	/* Abort if any hard error occured */
        UXTB     R5,R5            ;; ZeroExt  R5,R5,#+24,#+24
        CMP      R5,#+4
        BNE.N    ??follow_path_3
// 1952 				/* Object not found */
// 1953 				if (_FS_RPATH && (ns & NS_DOT)) {	/* If dot entry is not exit */
// 1954 					dj->sclust = 0; dj->dir = 0;	/* It is the root dir */
// 1955 					res = FR_OK;
// 1956 					if (!(ns & NS_LAST)) continue;
// 1957 				} else {							/* Could not find the object */
// 1958 					if (!(ns & NS_LAST)) res = FR_NO_PATH;
??follow_path_6:
        LSLS     R0,R7,#+29
        BMI.N    ??follow_path_7
        MOVS     R0,#+5
        MOVS     R5,R0
// 1959 				}
// 1960 				break;
??follow_path_7:
        B.N      ??follow_path_3
// 1961 			}
// 1962 			if (ns & NS_LAST) break;			/* Last segment match. Function completed. */
??follow_path_5:
        LSLS     R0,R7,#+29
        BMI.N    ??follow_path_3
// 1963 			dir = dj->dir;						/* There is next segment. Follow the sub directory */
??follow_path_8:
        LDR      R0,[R4, #+20]
        MOVS     R6,R0
// 1964 			if (!(dir[DIR_Attr] & AM_DIR)) {	/* Cannot follow because it is a file */
        LDRB     R0,[R6, #+11]
        LSLS     R0,R0,#+27
        BMI.N    ??follow_path_9
// 1965 				res = FR_NO_PATH; break;
        MOVS     R0,#+5
        MOVS     R5,R0
        B.N      ??follow_path_3
// 1966 			}
// 1967 			dj->sclust = LD_CLUST(dir);
??follow_path_9:
        LDRB     R0,[R6, #+21]
        LDRB     R1,[R6, #+20]
        ORRS     R0,R1,R0, LSL #+8
        UXTH     R0,R0            ;; ZeroExt  R0,R0,#+16,#+16
        LDRB     R1,[R6, #+27]
        LDRB     R2,[R6, #+26]
        ORRS     R1,R2,R1, LSL #+8
        UXTH     R1,R1            ;; ZeroExt  R1,R1,#+16,#+16
        ORRS     R0,R1,R0, LSL #+16
        STR      R0,[R4, #+8]
        B.N      ??follow_path_2
// 1968 		}
// 1969 	}
// 1970 
// 1971 	return res;
??follow_path_3:
        MOVS     R0,R5
        UXTB     R0,R0            ;; ZeroExt  R0,R0,#+24,#+24
        POP      {R1,R4-R7,PC}    ;; return
          CFI EndBlock cfiBlock24
// 1972 }
// 1973 
// 1974 
// 1975 
// 1976 
// 1977 /*-----------------------------------------------------------------------*/
// 1978 /* Load a sector and check if it is an FAT Volume Boot Record            */
// 1979 /*-----------------------------------------------------------------------*/
// 1980 

        SECTION `.text`:CODE:NOROOT(1)
          CFI Block cfiBlock25 Using cfiCommon0
          CFI Function check_fs
        THUMB
// 1981 static
// 1982 BYTE check_fs (	/* 0:FAT-VBR, 1:Valid BR but not FAT, 2:Not a BR, 3:Disk error */
// 1983 	FATFS *fs,	/* File system object */
// 1984 	DWORD sect	/* Sector# (lba) to check if it is an FAT boot record or not */
// 1985 )
// 1986 {
check_fs:
        PUSH     {R3-R5,LR}
          CFI R14 Frame(CFA, -4)
          CFI R5 Frame(CFA, -8)
          CFI R4 Frame(CFA, -12)
          CFI CFA R13+16
        MOVS     R4,R0
        MOVS     R5,R1
// 1987 	if (disk_read(fs->drv, fs->win, sect, 1) != RES_OK)	/* Load boot record */
        MOVS     R3,#+1
        MOVS     R2,R5
        ADDS     R1,R4,#+48
        LDRB     R0,[R4, #+1]
          CFI FunCall disk_read
        BL       disk_read
        CMP      R0,#+0
        BEQ.N    ??check_fs_0
// 1988 		return 3;
        MOVS     R0,#+3
        B.N      ??check_fs_1
// 1989 	if (LD_WORD(&fs->win[BS_55AA]) != 0xAA55)		/* Check record signature (always placed at offset 510 even if the sector size is >512) */
??check_fs_0:
        LDRB     R0,[R4, #+559]
        LDRB     R1,[R4, #+558]
        ORRS     R0,R1,R0, LSL #+8
        UXTH     R0,R0            ;; ZeroExt  R0,R0,#+16,#+16
        MOVW     R1,#+43605
        CMP      R0,R1
        BEQ.N    ??check_fs_2
// 1990 		return 2;
        MOVS     R0,#+2
        B.N      ??check_fs_1
// 1991 
// 1992 	if ((LD_DWORD(&fs->win[BS_FilSysType]) & 0xFFFFFF) == 0x544146)	/* Check "FAT" string */
??check_fs_2:
        LDRB     R0,[R4, #+104]
        LDRB     R1,[R4, #+103]
        LSLS     R1,R1,#+8
        ORRS     R0,R1,R0, LSL #+16
        LDRB     R1,[R4, #+102]
        ORRS     R0,R1,R0
        LDR.W    R1,??DataTable6_3  ;; 0x544146
        CMP      R0,R1
        BNE.N    ??check_fs_3
// 1993 		return 0;
        MOVS     R0,#+0
        B.N      ??check_fs_1
// 1994 	if ((LD_DWORD(&fs->win[BS_FilSysType32]) & 0xFFFFFF) == 0x544146)
??check_fs_3:
        LDRB     R0,[R4, #+132]
        LDRB     R1,[R4, #+131]
        LSLS     R1,R1,#+8
        ORRS     R0,R1,R0, LSL #+16
        LDRB     R1,[R4, #+130]
        ORRS     R0,R1,R0
        LDR.W    R1,??DataTable6_3  ;; 0x544146
        CMP      R0,R1
        BNE.N    ??check_fs_4
// 1995 		return 0;
        MOVS     R0,#+0
        B.N      ??check_fs_1
// 1996 
// 1997 	return 1;
??check_fs_4:
        MOVS     R0,#+1
??check_fs_1:
        POP      {R1,R4,R5,PC}    ;; return
          CFI EndBlock cfiBlock25
// 1998 }

        SECTION `.text`:CODE:NOROOT(2)
        SECTION_TYPE SHT_PROGBITS, 0
        DATA
??DataTable4:
        DC32     LfnOfs
// 1999 
// 2000 
// 2001 
// 2002 
// 2003 /*-----------------------------------------------------------------------*/
// 2004 /* Check if the file system object is valid or not                       */
// 2005 /*-----------------------------------------------------------------------*/
// 2006 

        SECTION `.text`:CODE:NOROOT(1)
          CFI Block cfiBlock26 Using cfiCommon0
          CFI Function chk_mounted
        THUMB
// 2007 static
// 2008 FRESULT chk_mounted (	/* FR_OK(0): successful, !=0: any error occurred */
// 2009 	const TCHAR **path,	/* Pointer to pointer to the path name (drive number) */
// 2010 	FATFS **rfs,		/* Pointer to pointer to the found file system object */
// 2011 	BYTE chk_wp			/* !=0: Check media write protection for write access */
// 2012 )
// 2013 {
chk_mounted:
        PUSH     {R0-R2,R4-R11,LR}
          CFI R14 Frame(CFA, -4)
          CFI R11 Frame(CFA, -8)
          CFI R10 Frame(CFA, -12)
          CFI R9 Frame(CFA, -16)
          CFI R8 Frame(CFA, -20)
          CFI R7 Frame(CFA, -24)
          CFI R6 Frame(CFA, -28)
          CFI R5 Frame(CFA, -32)
          CFI R4 Frame(CFA, -36)
          CFI CFA R13+48
        SUB      SP,SP,#+24
          CFI CFA R13+72
// 2014 	BYTE fmt, b, pi, *tbl;
// 2015 	UINT vol;
// 2016 	DSTATUS stat;
// 2017 	DWORD bsect, fasize, tsect, sysect, nclst, szbfat;
// 2018 	WORD nrsv;
// 2019 	const TCHAR *p = *path;
        LDR      R0,[SP, #+24]
        LDR      R9,[R0, #+0]
// 2020 	FATFS *fs;
// 2021 
// 2022 	/* Get logical drive number from the path name */
// 2023 	vol = p[0] - '0';					/* Is there a drive number? */
        LDRB     R0,[R9, #+0]
        SUBS     R0,R0,#+48
        STR      R0,[SP, #+4]
// 2024 	if (vol <= 9 && p[1] == ':') {		/* Found a drive number, get and strip it */
        LDR      R0,[SP, #+4]
        CMP      R0,#+10
        BCS.N    ??chk_mounted_0
        LDRB     R0,[R9, #+1]
        CMP      R0,#+58
        BNE.N    ??chk_mounted_0
// 2025 		p += 2; *path = p;				/* Return pointer to the path name */
        ADDS     R9,R9,#+2
        LDR      R0,[SP, #+24]
        STR      R9,[R0, #+0]
        B.N      ??chk_mounted_1
// 2026 	} else {							/* No drive number is given */
// 2027 #if _FS_RPATH
// 2028 		vol = CurrVol;					/* Use current drive */
// 2029 #else
// 2030 		vol = 0;						/* Use drive 0 */
??chk_mounted_0:
        MOVS     R0,#+0
        STR      R0,[SP, #+4]
// 2031 #endif
// 2032 	}
// 2033 
// 2034 	/* Check if the file system object is valid or not */
// 2035 	if (vol >= _VOLUMES) 				/* Is the drive number valid? */
??chk_mounted_1:
        LDR      R0,[SP, #+4]
        CMP      R0,#+0
        BEQ.N    ??chk_mounted_2
// 2036 		return FR_INVALID_DRIVE;
        MOVS     R0,#+11
        B.N      ??chk_mounted_3
// 2037 	*rfs = fs = FatFs[vol];				/* Return pointer to the corresponding file system object */
??chk_mounted_2:
        LDR      R0,[SP, #+4]
        LDR.W    R1,??DataTable6_4
        LDR      R0,[R1, R0, LSL #+2]
        MOV      R10,R0
        LDR      R1,[SP, #+28]
        STR      R0,[R1, #+0]
// 2038 	if (!fs) return FR_NOT_ENABLED;		/* Is the file system object available? */
        CMP      R10,#+0
        BNE.N    ??chk_mounted_4
        MOVS     R0,#+12
        B.N      ??chk_mounted_3
// 2039 
// 2040 	ENTER_FF(fs);						/* Lock file system */
// 2041 
// 2042 	if (fs->fs_type) {					/* If the logical drive has been mounted */
??chk_mounted_4:
        LDRB     R0,[R10, #+0]
        CMP      R0,#+0
        BEQ.N    ??chk_mounted_5
// 2043 		stat = disk_status(fs->drv);
        LDRB     R0,[R10, #+1]
          CFI FunCall disk_status
        BL       disk_status
        STRB     R0,[SP, #+0]
// 2044 		if (!(stat & STA_NOINIT)) {		/* and the physical drive is kept initialized (has not been changed), */
        LDRB     R0,[SP, #+0]
        LSLS     R0,R0,#+31
        BMI.N    ??chk_mounted_5
// 2045 			if (!_FS_READONLY && chk_wp && (stat & STA_PROTECT))	/* Check write protection if needed */
        LDRB     R0,[SP, #+32]
        CMP      R0,#+0
        BEQ.N    ??chk_mounted_6
        LDRB     R0,[SP, #+0]
        LSLS     R0,R0,#+29
        BPL.N    ??chk_mounted_6
// 2046 				return FR_WRITE_PROTECTED;
        MOVS     R0,#+10
        B.N      ??chk_mounted_3
// 2047 			return FR_OK;				/* The file system object is valid */
??chk_mounted_6:
        MOVS     R0,#+0
        B.N      ??chk_mounted_3
// 2048 		}
// 2049 	}
// 2050 
// 2051 	/* The file system object is not valid. */
// 2052 	/* Following code attempts to mount the volume. (analyze BPB and initialize the fs object) */
// 2053 
// 2054 	fs->fs_type = 0;					/* Clear the file system object */
??chk_mounted_5:
        MOVS     R0,#+0
        STRB     R0,[R10, #+0]
// 2055 	fs->drv = LD2PD(vol);				/* Bind the logical drive and a physical drive */
        LDR      R0,[SP, #+4]
        STRB     R0,[R10, #+1]
// 2056 	stat = disk_initialize(fs->drv);	/* Initialize low level disk I/O layer */
        LDRB     R0,[R10, #+1]
          CFI FunCall disk_initialize
        BL       disk_initialize
        STRB     R0,[SP, #+0]
// 2057 	if (stat & STA_NOINIT)				/* Check if the initialization succeeded */
        LDRB     R0,[SP, #+0]
        LSLS     R0,R0,#+31
        BPL.N    ??chk_mounted_7
// 2058 		return FR_NOT_READY;			/* Failed to initialize due to no media or hard error */
        MOVS     R0,#+3
        B.N      ??chk_mounted_3
// 2059 	if (!_FS_READONLY && chk_wp && (stat & STA_PROTECT))	/* Check disk write protection if needed */
??chk_mounted_7:
        LDRB     R0,[SP, #+32]
        CMP      R0,#+0
        BEQ.N    ??chk_mounted_8
        LDRB     R0,[SP, #+0]
        LSLS     R0,R0,#+29
        BPL.N    ??chk_mounted_8
// 2060 		return FR_WRITE_PROTECTED;
        MOVS     R0,#+10
        B.N      ??chk_mounted_3
// 2061 #if _MAX_SS != 512						/* Get disk sector size (variable sector size cfg only) */
// 2062 	if (disk_ioctl(fs->drv, GET_SECTOR_SIZE, &fs->ssize) != RES_OK)
// 2063 		return FR_DISK_ERR;
// 2064 #endif
// 2065 	/* Search FAT partition on the drive. Supports only generic partitionings, FDISK and SFD. */
// 2066 	fmt = check_fs(fs, bsect = 0);		/* Load sector 0 and check if it is an FAT-VBR (in SFD) */
??chk_mounted_8:
        MOVS     R1,#+0
        MOV      R11,R1
        MOV      R0,R10
          CFI FunCall check_fs
        BL       check_fs
        MOVS     R4,R0
// 2067 	if (LD2PT(vol) && !fmt) fmt = 1;	/* Force non-SFD if the volume is forced partition */
// 2068 	if (fmt == 1) {						/* Not an FAT-VBR, the physical drive can be partitioned */
        UXTB     R4,R4            ;; ZeroExt  R4,R4,#+24,#+24
        CMP      R4,#+1
        BNE.N    ??chk_mounted_9
// 2069 		/* Check the partition listed in the partition table */
// 2070 		pi = LD2PT(vol);
        MOVS     R0,#+0
        MOVS     R6,R0
// 2071 		if (pi) pi--;
        UXTB     R6,R6            ;; ZeroExt  R6,R6,#+24,#+24
        CMP      R6,#+0
        BEQ.N    ??chk_mounted_10
        SUBS     R6,R6,#+1
// 2072 		tbl = &fs->win[MBR_Table + pi * SZ_PTE];/* Partition table */
??chk_mounted_10:
        UXTB     R6,R6            ;; ZeroExt  R6,R6,#+24,#+24
        ADDS     R0,R10,R6, LSL #+4
        ADDW     R0,R0,#+494
        STR      R0,[SP, #+8]
// 2073 		if (tbl[4]) {						/* Is the partition existing? */
        LDR      R0,[SP, #+8]
        LDRB     R0,[R0, #+4]
        CMP      R0,#+0
        BEQ.N    ??chk_mounted_9
// 2074 			bsect = LD_DWORD(&tbl[8]);		/* Partition offset in LBA */
        LDR      R0,[SP, #+8]
        LDRB     R0,[R0, #+11]
        LDR      R1,[SP, #+8]
        LDRB     R1,[R1, #+10]
        LSLS     R1,R1,#+16
        ORRS     R0,R1,R0, LSL #+24
        LDR      R1,[SP, #+8]
        LDRB     R1,[R1, #+9]
        ORRS     R0,R0,R1, LSL #+8
        LDR      R1,[SP, #+8]
        LDRB     R1,[R1, #+8]
        ORRS     R0,R1,R0
        MOV      R11,R0
// 2075 			fmt = check_fs(fs, bsect);		/* Check the partition */
        MOV      R1,R11
        MOV      R0,R10
          CFI FunCall check_fs
        BL       check_fs
        MOVS     R4,R0
// 2076 		}
// 2077 	}
// 2078 	if (fmt == 3) return FR_DISK_ERR;
??chk_mounted_9:
        UXTB     R4,R4            ;; ZeroExt  R4,R4,#+24,#+24
        CMP      R4,#+3
        BNE.N    ??chk_mounted_11
        MOVS     R0,#+1
        B.N      ??chk_mounted_3
// 2079 	if (fmt) return FR_NO_FILESYSTEM;		/* No FAT volume is found */
??chk_mounted_11:
        UXTB     R4,R4            ;; ZeroExt  R4,R4,#+24,#+24
        CMP      R4,#+0
        BEQ.N    ??chk_mounted_12
        MOVS     R0,#+13
        B.N      ??chk_mounted_3
// 2080 
// 2081 	/* An FAT volume is found. Following code initializes the file system object */
// 2082 
// 2083 	if (LD_WORD(fs->win+BPB_BytsPerSec) != SS(fs))		/* (BPB_BytsPerSec must be equal to the physical sector size) */
??chk_mounted_12:
        LDRB     R0,[R10, #+60]
        LDRB     R1,[R10, #+59]
        ORRS     R0,R1,R0, LSL #+8
        UXTH     R0,R0            ;; ZeroExt  R0,R0,#+16,#+16
        CMP      R0,#+512
        BEQ.N    ??chk_mounted_13
// 2084 		return FR_NO_FILESYSTEM;
        MOVS     R0,#+13
        B.N      ??chk_mounted_3
// 2085 
// 2086 	fasize = LD_WORD(fs->win+BPB_FATSz16);				/* Number of sectors per FAT */
??chk_mounted_13:
        LDRB     R0,[R10, #+71]
        LDRB     R1,[R10, #+70]
        ORRS     R0,R1,R0, LSL #+8
        UXTH     R0,R0            ;; ZeroExt  R0,R0,#+16,#+16
        MOVS     R7,R0
// 2087 	if (!fasize) fasize = LD_DWORD(fs->win+BPB_FATSz32);
        CMP      R7,#+0
        BNE.N    ??chk_mounted_14
        LDRB     R0,[R10, #+87]
        LDRB     R1,[R10, #+86]
        LSLS     R1,R1,#+16
        ORRS     R0,R1,R0, LSL #+24
        LDRB     R1,[R10, #+85]
        ORRS     R0,R0,R1, LSL #+8
        LDRB     R1,[R10, #+84]
        ORRS     R0,R1,R0
        MOVS     R7,R0
// 2088 	fs->fsize = fasize;
??chk_mounted_14:
        STR      R7,[R10, #+28]
// 2089 
// 2090 	fs->n_fats = b = fs->win[BPB_NumFATs];				/* Number of FAT copies */
        LDRB     R0,[R10, #+64]
        MOVS     R5,R0
        STRB     R0,[R10, #+3]
// 2091 	if (b != 1 && b != 2) return FR_NO_FILESYSTEM;		/* (Must be 1 or 2) */
        UXTB     R5,R5            ;; ZeroExt  R5,R5,#+24,#+24
        CMP      R5,#+1
        BEQ.N    ??chk_mounted_15
        UXTB     R5,R5            ;; ZeroExt  R5,R5,#+24,#+24
        CMP      R5,#+2
        BEQ.N    ??chk_mounted_15
        MOVS     R0,#+13
        B.N      ??chk_mounted_3
// 2092 	fasize *= b;										/* Number of sectors for FAT area */
??chk_mounted_15:
        UXTB     R5,R5            ;; ZeroExt  R5,R5,#+24,#+24
        MULS     R7,R5,R7
// 2093 
// 2094 	fs->csize = b = fs->win[BPB_SecPerClus];			/* Number of sectors per cluster */
        LDRB     R0,[R10, #+61]
        MOVS     R5,R0
        STRB     R0,[R10, #+2]
// 2095 	if (!b || (b & (b - 1))) return FR_NO_FILESYSTEM;	/* (Must be power of 2) */
        UXTB     R5,R5            ;; ZeroExt  R5,R5,#+24,#+24
        CMP      R5,#+0
        BEQ.N    ??chk_mounted_16
        SUBS     R1,R5,#+1
        MOVS     R0,R5
        UXTB     R0,R0            ;; ZeroExt  R0,R0,#+24,#+24
        TST      R0,R1
        BEQ.N    ??chk_mounted_17
??chk_mounted_16:
        MOVS     R0,#+13
        B.N      ??chk_mounted_3
// 2096 
// 2097 	fs->n_rootdir = LD_WORD(fs->win+BPB_RootEntCnt);	/* Number of root directory entries */
??chk_mounted_17:
        LDRB     R0,[R10, #+66]
        LDRB     R1,[R10, #+65]
        ORRS     R0,R1,R0, LSL #+8
        STRH     R0,[R10, #+8]
// 2098 	if (fs->n_rootdir % (SS(fs) / SZ_DIR)) return FR_NO_FILESYSTEM;	/* (BPB_RootEntCnt must be sector aligned) */
        LDRH     R0,[R10, #+8]
        MOVS     R1,#+16
        UDIV     R2,R0,R1
        MLS      R2,R2,R1,R0
        CMP      R2,#+0
        BEQ.N    ??chk_mounted_18
        MOVS     R0,#+13
        B.N      ??chk_mounted_3
// 2099 
// 2100 	tsect = LD_WORD(fs->win+BPB_TotSec16);				/* Number of sectors on the volume */
??chk_mounted_18:
        LDRB     R0,[R10, #+68]
        LDRB     R1,[R10, #+67]
        ORRS     R0,R1,R0, LSL #+8
        UXTH     R0,R0            ;; ZeroExt  R0,R0,#+16,#+16
        STR      R0,[SP, #+16]
// 2101 	if (!tsect) tsect = LD_DWORD(fs->win+BPB_TotSec32);
        LDR      R0,[SP, #+16]
        CMP      R0,#+0
        BNE.N    ??chk_mounted_19
        LDRB     R0,[R10, #+83]
        LDRB     R1,[R10, #+82]
        LSLS     R1,R1,#+16
        ORRS     R0,R1,R0, LSL #+24
        LDRB     R1,[R10, #+81]
        ORRS     R0,R0,R1, LSL #+8
        LDRB     R1,[R10, #+80]
        ORRS     R0,R1,R0
        STR      R0,[SP, #+16]
// 2102 
// 2103 	nrsv = LD_WORD(fs->win+BPB_RsvdSecCnt);				/* Number of reserved sectors */
??chk_mounted_19:
        LDRB     R0,[R10, #+63]
        LDRB     R1,[R10, #+62]
        ORRS     R0,R1,R0, LSL #+8
        STRH     R0,[SP, #+2]
// 2104 	if (!nrsv) return FR_NO_FILESYSTEM;					/* (BPB_RsvdSecCnt must not be 0) */
        LDRH     R0,[SP, #+2]
        CMP      R0,#+0
        BNE.N    ??chk_mounted_20
        MOVS     R0,#+13
        B.N      ??chk_mounted_3
// 2105 
// 2106 	/* Determine the FAT sub type */
// 2107 	sysect = nrsv + fasize + fs->n_rootdir / (SS(fs) / SZ_DIR);	/* RSV+FAT+DIR */
??chk_mounted_20:
        LDRH     R0,[SP, #+2]
        UXTAH    R0,R7,R0
        LDRH     R1,[R10, #+8]
        ADDS     R0,R0,R1, LSR #+4
        STR      R0,[SP, #+20]
// 2108 	if (tsect < sysect) return FR_NO_FILESYSTEM;		/* (Invalid volume size) */
        LDR      R0,[SP, #+16]
        LDR      R1,[SP, #+20]
        CMP      R0,R1
        BCS.N    ??chk_mounted_21
        MOVS     R0,#+13
        B.N      ??chk_mounted_3
// 2109 	nclst = (tsect - sysect) / fs->csize;				/* Number of clusters */
??chk_mounted_21:
        LDR      R0,[SP, #+16]
        LDR      R1,[SP, #+20]
        SUBS     R0,R0,R1
        LDRB     R1,[R10, #+2]
        UDIV     R0,R0,R1
        STR      R0,[SP, #+12]
// 2110 	if (!nclst) return FR_NO_FILESYSTEM;				/* (Invalid volume size) */
        LDR      R0,[SP, #+12]
        CMP      R0,#+0
        BNE.N    ??chk_mounted_22
        MOVS     R0,#+13
        B.N      ??chk_mounted_3
// 2111 	fmt = FS_FAT12;
??chk_mounted_22:
        MOVS     R0,#+1
        MOVS     R4,R0
// 2112 	if (nclst >= MIN_FAT16) fmt = FS_FAT16;
        LDR      R0,[SP, #+12]
        MOVW     R1,#+4086
        CMP      R0,R1
        BCC.N    ??chk_mounted_23
        MOVS     R0,#+2
        MOVS     R4,R0
// 2113 	if (nclst >= MIN_FAT32) fmt = FS_FAT32;
??chk_mounted_23:
        LDR      R0,[SP, #+12]
        MOVW     R1,#+65526
        CMP      R0,R1
        BCC.N    ??chk_mounted_24
        MOVS     R0,#+3
        MOVS     R4,R0
// 2114 
// 2115 	/* Boundaries and Limits */
// 2116 	fs->n_fatent = nclst + 2;							/* Number of FAT entries */
??chk_mounted_24:
        LDR      R0,[SP, #+12]
        ADDS     R0,R0,#+2
        STR      R0,[R10, #+24]
// 2117 	fs->database = bsect + sysect;						/* Data start sector */
        LDR      R0,[SP, #+20]
        ADDS     R0,R0,R11
        STR      R0,[R10, #+40]
// 2118 	fs->fatbase = bsect + nrsv; 						/* FAT start sector */
        LDRH     R0,[SP, #+2]
        UXTAH    R0,R11,R0
        STR      R0,[R10, #+32]
// 2119 	if (fmt == FS_FAT32) {
        UXTB     R4,R4            ;; ZeroExt  R4,R4,#+24,#+24
        CMP      R4,#+3
        BNE.N    ??chk_mounted_25
// 2120 		if (fs->n_rootdir) return FR_NO_FILESYSTEM;		/* (BPB_RootEntCnt must be 0) */
        LDRH     R0,[R10, #+8]
        CMP      R0,#+0
        BEQ.N    ??chk_mounted_26
        MOVS     R0,#+13
        B.N      ??chk_mounted_3
// 2121 		fs->dirbase = LD_DWORD(fs->win+BPB_RootClus);	/* Root directory start cluster */
??chk_mounted_26:
        LDRB     R0,[R10, #+95]
        LDRB     R1,[R10, #+94]
        LSLS     R1,R1,#+16
        ORRS     R0,R1,R0, LSL #+24
        LDRB     R1,[R10, #+93]
        ORRS     R0,R0,R1, LSL #+8
        LDRB     R1,[R10, #+92]
        ORRS     R0,R1,R0
        STR      R0,[R10, #+36]
// 2122 		szbfat = fs->n_fatent * 4;						/* (Required FAT size) */
        LDR      R0,[R10, #+24]
        LSLS     R0,R0,#+2
        MOV      R8,R0
        B.N      ??chk_mounted_27
// 2123 	} else {
// 2124 		if (!fs->n_rootdir)	return FR_NO_FILESYSTEM;	/* (BPB_RootEntCnt must not be 0) */
??chk_mounted_25:
        LDRH     R0,[R10, #+8]
        CMP      R0,#+0
        BNE.N    ??chk_mounted_28
        MOVS     R0,#+13
        B.N      ??chk_mounted_3
// 2125 		fs->dirbase = fs->fatbase + fasize;				/* Root directory start sector */
??chk_mounted_28:
        LDR      R0,[R10, #+32]
        ADDS     R0,R7,R0
        STR      R0,[R10, #+36]
// 2126 		szbfat = (fmt == FS_FAT16) ?					/* (Required FAT size) */
// 2127 			fs->n_fatent * 2 : fs->n_fatent * 3 / 2 + (fs->n_fatent & 1);
        UXTB     R4,R4            ;; ZeroExt  R4,R4,#+24,#+24
        CMP      R4,#+2
        BNE.N    ??chk_mounted_29
        LDR      R0,[R10, #+24]
        LSLS     R8,R0,#+1
        B.N      ??chk_mounted_27
??chk_mounted_29:
        LDR      R0,[R10, #+24]
        MOVS     R1,#+3
        MULS     R0,R1,R0
        LDRB     R1,[R10, #+24]
        ANDS     R1,R1,#0x1
        ADDS     R8,R1,R0, LSR #+1
// 2128 	}
// 2129 	if (fs->fsize < (szbfat + (SS(fs) - 1)) / SS(fs))	/* (BPB_FATSz must not be less than required) */
??chk_mounted_27:
        LDR      R0,[R10, #+28]
        ADDW     R1,R8,#+511
        CMP      R0,R1, LSR #+9
        BCS.N    ??chk_mounted_30
// 2130 		return FR_NO_FILESYSTEM;
        MOVS     R0,#+13
        B.N      ??chk_mounted_3
// 2131 
// 2132 #if !_FS_READONLY
// 2133 	/* Initialize cluster allocation information */
// 2134 	fs->free_clust = 0xFFFFFFFF;
??chk_mounted_30:
        MOVS     R0,#-1
        STR      R0,[R10, #+16]
// 2135 	fs->last_clust = 0;
        MOVS     R0,#+0
        STR      R0,[R10, #+12]
// 2136 
// 2137 	/* Get fsinfo if available */
// 2138 	if (fmt == FS_FAT32) {
        UXTB     R4,R4            ;; ZeroExt  R4,R4,#+24,#+24
        CMP      R4,#+3
        BNE.N    ??chk_mounted_31
// 2139 	 	fs->fsi_flag = 0;
        MOVS     R0,#+0
        STRB     R0,[R10, #+5]
// 2140 		fs->fsi_sector = bsect + LD_WORD(fs->win+BPB_FSInfo);
        LDRB     R0,[R10, #+97]
        LDRB     R1,[R10, #+96]
        ORRS     R0,R1,R0, LSL #+8
        UXTAH    R0,R11,R0
        STR      R0,[R10, #+20]
// 2141 		if (disk_read(fs->drv, fs->win, fs->fsi_sector, 1) == RES_OK &&
// 2142 			LD_WORD(fs->win+BS_55AA) == 0xAA55 &&
// 2143 			LD_DWORD(fs->win+FSI_LeadSig) == 0x41615252 &&
// 2144 			LD_DWORD(fs->win+FSI_StrucSig) == 0x61417272) {
        MOVS     R3,#+1
        LDR      R2,[R10, #+20]
        ADDS     R1,R10,#+48
        LDRB     R0,[R10, #+1]
          CFI FunCall disk_read
        BL       disk_read
        CMP      R0,#+0
        BNE.N    ??chk_mounted_31
        LDRB     R0,[R10, #+559]
        LDRB     R1,[R10, #+558]
        ORRS     R0,R1,R0, LSL #+8
        UXTH     R0,R0            ;; ZeroExt  R0,R0,#+16,#+16
        MOVW     R1,#+43605
        CMP      R0,R1
        BNE.N    ??chk_mounted_31
        LDRB     R0,[R10, #+51]
        LDRB     R1,[R10, #+50]
        LSLS     R1,R1,#+16
        ORRS     R0,R1,R0, LSL #+24
        LDRB     R1,[R10, #+49]
        ORRS     R0,R0,R1, LSL #+8
        LDRB     R1,[R10, #+48]
        ORRS     R0,R1,R0
        LDR.N    R1,??DataTable6_5  ;; 0x41615252
        CMP      R0,R1
        BNE.N    ??chk_mounted_31
        LDRB     R0,[R10, #+535]
        LDRB     R1,[R10, #+534]
        LSLS     R1,R1,#+16
        ORRS     R0,R1,R0, LSL #+24
        LDRB     R1,[R10, #+533]
        ORRS     R0,R0,R1, LSL #+8
        LDRB     R1,[R10, #+532]
        ORRS     R0,R1,R0
        LDR.N    R1,??DataTable6_6  ;; 0x61417272
        CMP      R0,R1
        BNE.N    ??chk_mounted_31
// 2145 				fs->last_clust = LD_DWORD(fs->win+FSI_Nxt_Free);
        LDRB     R0,[R10, #+543]
        LDRB     R1,[R10, #+542]
        LSLS     R1,R1,#+16
        ORRS     R0,R1,R0, LSL #+24
        LDRB     R1,[R10, #+541]
        ORRS     R0,R0,R1, LSL #+8
        LDRB     R1,[R10, #+540]
        ORRS     R0,R1,R0
        STR      R0,[R10, #+12]
// 2146 				fs->free_clust = LD_DWORD(fs->win+FSI_Free_Count);
        LDRB     R0,[R10, #+539]
        LDRB     R1,[R10, #+538]
        LSLS     R1,R1,#+16
        ORRS     R0,R1,R0, LSL #+24
        LDRB     R1,[R10, #+537]
        ORRS     R0,R0,R1, LSL #+8
        LDRB     R1,[R10, #+536]
        ORRS     R0,R1,R0
        STR      R0,[R10, #+16]
// 2147 		}
// 2148 	}
// 2149 #endif
// 2150 	fs->fs_type = fmt;		/* FAT sub-type */
??chk_mounted_31:
        STRB     R4,[R10, #+0]
// 2151 	fs->id = ++Fsid;		/* File system mount ID */
        LDR.N    R0,??DataTable6_7
        LDRH     R0,[R0, #+0]
        ADDS     R0,R0,#+1
        LDR.N    R1,??DataTable6_7
        STRH     R0,[R1, #+0]
        STRH     R0,[R10, #+6]
// 2152 	fs->winsect = 0;		/* Invalidate sector cache */
        MOVS     R0,#+0
        STR      R0,[R10, #+44]
// 2153 	fs->wflag = 0;
        MOVS     R0,#+0
        STRB     R0,[R10, #+4]
// 2154 #if _FS_RPATH
// 2155 	fs->cdir = 0;			/* Current directory (root dir) */
// 2156 #endif
// 2157 #if _FS_SHARE				/* Clear file lock semaphores */
// 2158 	clear_lock(fs);
// 2159 #endif
// 2160 
// 2161 	return FR_OK;
        MOVS     R0,#+0
??chk_mounted_3:
        ADD      SP,SP,#+36
          CFI CFA R13+36
        POP      {R4-R11,PC}      ;; return
          CFI EndBlock cfiBlock26
// 2162 }
// 2163 
// 2164 
// 2165 
// 2166 
// 2167 /*-----------------------------------------------------------------------*/
// 2168 /* Check if the file/dir object is valid or not                          */
// 2169 /*-----------------------------------------------------------------------*/
// 2170 

        SECTION `.text`:CODE:NOROOT(1)
          CFI Block cfiBlock27 Using cfiCommon0
          CFI Function validate
        THUMB
// 2171 static
// 2172 FRESULT validate (	/* FR_OK(0): The object is valid, !=0: Invalid */
// 2173 	FATFS *fs,		/* Pointer to the file system object */
// 2174 	WORD id			/* Member id of the target object to be checked */
// 2175 )
// 2176 {
validate:
        PUSH     {R3-R5,LR}
          CFI R14 Frame(CFA, -4)
          CFI R5 Frame(CFA, -8)
          CFI R4 Frame(CFA, -12)
          CFI CFA R13+16
        MOVS     R4,R0
        MOVS     R5,R1
// 2177 	if (!fs || !fs->fs_type || fs->id != id)
        CMP      R4,#+0
        BEQ.N    ??validate_0
        LDRB     R0,[R4, #+0]
        CMP      R0,#+0
        BEQ.N    ??validate_0
        LDRH     R0,[R4, #+6]
        UXTH     R5,R5            ;; ZeroExt  R5,R5,#+16,#+16
        CMP      R0,R5
        BEQ.N    ??validate_1
// 2178 		return FR_INVALID_OBJECT;
??validate_0:
        MOVS     R0,#+9
        B.N      ??validate_2
// 2179 
// 2180 	ENTER_FF(fs);		/* Lock file system */
// 2181 
// 2182 	if (disk_status(fs->drv) & STA_NOINIT)
??validate_1:
        LDRB     R0,[R4, #+1]
          CFI FunCall disk_status
        BL       disk_status
        LSLS     R0,R0,#+31
        BPL.N    ??validate_3
// 2183 		return FR_NOT_READY;
        MOVS     R0,#+3
        B.N      ??validate_2
// 2184 
// 2185 	return FR_OK;
??validate_3:
        MOVS     R0,#+0
??validate_2:
        POP      {R1,R4,R5,PC}    ;; return
          CFI EndBlock cfiBlock27
// 2186 }
// 2187 
// 2188 
// 2189 
// 2190 
// 2191 /*--------------------------------------------------------------------------
// 2192 
// 2193    Public Functions
// 2194 
// 2195 --------------------------------------------------------------------------*/
// 2196 
// 2197 
// 2198 
// 2199 /*-----------------------------------------------------------------------*/
// 2200 /* Mount/Unmount a Logical Drive                                         */
// 2201 /*-----------------------------------------------------------------------*/
// 2202 

        SECTION `.text`:CODE:NOROOT(1)
          CFI Block cfiBlock28 Using cfiCommon0
          CFI Function f_mount
          CFI NoCalls
        THUMB
// 2203 FRESULT f_mount (
// 2204 	BYTE vol,		/* Logical drive number to be mounted/unmounted */
// 2205 	FATFS *fs		/* Pointer to new file system object (NULL for unmount)*/
// 2206 )
// 2207 {
f_mount:
        MOVS     R2,R0
// 2208 	FATFS *rfs;
// 2209 
// 2210 
// 2211 	if (vol >= _VOLUMES)		/* Check if the drive number is valid */
        UXTB     R2,R2            ;; ZeroExt  R2,R2,#+24,#+24
        CMP      R2,#+0
        BEQ.N    ??f_mount_0
// 2212 		return FR_INVALID_DRIVE;
        MOVS     R0,#+11
        B.N      ??f_mount_1
// 2213 	rfs = FatFs[vol];			/* Get current fs object */
??f_mount_0:
        UXTB     R2,R2            ;; ZeroExt  R2,R2,#+24,#+24
        LDR.N    R0,??DataTable6_4
        LDR      R0,[R0, R2, LSL #+2]
        MOVS     R3,R0
// 2214 
// 2215 	if (rfs) {
        CMP      R3,#+0
        BEQ.N    ??f_mount_2
// 2216 #if _FS_SHARE
// 2217 		clear_lock(rfs);
// 2218 #endif
// 2219 #if _FS_REENTRANT				/* Discard sync object of the current volume */
// 2220 		if (!ff_del_syncobj(rfs->sobj)) return FR_INT_ERR;
// 2221 #endif
// 2222 		rfs->fs_type = 0;		/* Clear old fs object */
        MOVS     R0,#+0
        STRB     R0,[R3, #+0]
// 2223 	}
// 2224 
// 2225 	if (fs) {
??f_mount_2:
        CMP      R1,#+0
        BEQ.N    ??f_mount_3
// 2226 		fs->fs_type = 0;		/* Clear new fs object */
        MOVS     R0,#+0
        STRB     R0,[R1, #+0]
// 2227 #if _FS_REENTRANT				/* Create sync object for the new volume */
// 2228 		if (!ff_cre_syncobj(vol, &fs->sobj)) return FR_INT_ERR;
// 2229 #endif
// 2230 	}
// 2231 	FatFs[vol] = fs;			/* Register new fs object */
??f_mount_3:
        UXTB     R2,R2            ;; ZeroExt  R2,R2,#+24,#+24
        LDR.N    R0,??DataTable6_4
        STR      R1,[R0, R2, LSL #+2]
// 2232 
// 2233 	return FR_OK;
        MOVS     R0,#+0
??f_mount_1:
        BX       LR               ;; return
          CFI EndBlock cfiBlock28
// 2234 }

        SECTION `.text`:CODE:NOROOT(2)
        SECTION_TYPE SHT_PROGBITS, 0
        DATA
??DataTable6:
        DC32     `?<Constant "\\"*:<>?|\\177">`

        SECTION `.text`:CODE:NOROOT(2)
        SECTION_TYPE SHT_PROGBITS, 0
        DATA
??DataTable6_1:
        DC32     ??excvt

        SECTION `.text`:CODE:NOROOT(2)
        SECTION_TYPE SHT_PROGBITS, 0
        DATA
??DataTable6_2:
        DC32     `?<Constant "+,;=[]">`

        SECTION `.text`:CODE:NOROOT(2)
        SECTION_TYPE SHT_PROGBITS, 0
        DATA
??DataTable6_3:
        DC32     0x544146

        SECTION `.text`:CODE:NOROOT(2)
        SECTION_TYPE SHT_PROGBITS, 0
        DATA
??DataTable6_4:
        DC32     FatFs

        SECTION `.text`:CODE:NOROOT(2)
        SECTION_TYPE SHT_PROGBITS, 0
        DATA
??DataTable6_5:
        DC32     0x41615252

        SECTION `.text`:CODE:NOROOT(2)
        SECTION_TYPE SHT_PROGBITS, 0
        DATA
??DataTable6_6:
        DC32     0x61417272

        SECTION `.text`:CODE:NOROOT(2)
        SECTION_TYPE SHT_PROGBITS, 0
        DATA
??DataTable6_7:
        DC32     Fsid
// 2235 
// 2236 
// 2237 
// 2238 
// 2239 /*-----------------------------------------------------------------------*/
// 2240 /* Open or Create a File                                                 */
// 2241 /*-----------------------------------------------------------------------*/
// 2242 

        SECTION `.text`:CODE:NOROOT(1)
          CFI Block cfiBlock29 Using cfiCommon0
          CFI Function f_open
        THUMB
// 2243 FRESULT f_open (
// 2244 	FIL *fp,			/* Pointer to the blank file object */
// 2245 	const TCHAR *path,	/* Pointer to the file name */
// 2246 	BYTE mode			/* Access mode and file open mode flags */
// 2247 )
// 2248 {
f_open:
        PUSH     {R1,R4-R10,LR}
          CFI R14 Frame(CFA, -4)
          CFI R10 Frame(CFA, -8)
          CFI R9 Frame(CFA, -12)
          CFI R8 Frame(CFA, -16)
          CFI R7 Frame(CFA, -20)
          CFI R6 Frame(CFA, -24)
          CFI R5 Frame(CFA, -28)
          CFI R4 Frame(CFA, -32)
          CFI CFA R13+36
        SUB      SP,SP,#+52
          CFI CFA R13+88
        MOVS     R4,R0
        MOV      R8,R2
// 2249 	FRESULT res;
// 2250 	DIR dj;
// 2251 	BYTE *dir;
// 2252 	DEF_NAMEBUF;
// 2253 
// 2254 
// 2255 	fp->fs = 0;			/* Clear file object */
        MOVS     R0,#+0
        STR      R0,[R4, #+0]
// 2256 
// 2257 #if !_FS_READONLY
// 2258 	mode &= FA_READ | FA_WRITE | FA_CREATE_ALWAYS | FA_OPEN_ALWAYS | FA_CREATE_NEW;
        ANDS     R8,R8,#0x1F
// 2259 	res = chk_mounted(&path, &dj.fs, (BYTE)(mode & ~FA_READ));
        ANDS     R2,R8,#0xFE
        ADD      R1,SP,#+0
        ADD      R0,SP,#+52
          CFI FunCall chk_mounted
        BL       chk_mounted
        MOVS     R5,R0
// 2260 #else
// 2261 	mode &= FA_READ;
// 2262 	res = chk_mounted(&path, &dj.fs, 0);
// 2263 #endif
// 2264 	INIT_BUF(dj);
        MOV      R0,#+512
          CFI FunCall ff_memalloc
        BL       ff_memalloc
        MOVS     R7,R0
        CMP      R7,#+0
        BNE.N    ??f_open_0
        MOVS     R0,#+17
        B.N      ??f_open_1
??f_open_0:
        STR      R7,[SP, #+28]
        ADD      R0,SP,#+36
        STR      R0,[SP, #+24]
// 2265 	if (res == FR_OK)
        UXTB     R5,R5            ;; ZeroExt  R5,R5,#+24,#+24
        CMP      R5,#+0
        BNE.N    ??f_open_2
// 2266 		res = follow_path(&dj, path);	/* Follow the file path */
        LDR      R1,[SP, #+52]
        ADD      R0,SP,#+0
          CFI FunCall follow_path
        BL       follow_path
        MOVS     R5,R0
// 2267 	dir = dj.dir;
??f_open_2:
        LDR      R0,[SP, #+20]
        MOVS     R6,R0
// 2268 
// 2269 #if !_FS_READONLY	/* R/W configuration */
// 2270 	if (res == FR_OK) {
        UXTB     R5,R5            ;; ZeroExt  R5,R5,#+24,#+24
        CMP      R5,#+0
        BNE.N    ??f_open_3
// 2271 		if (!dir)	/* Current dir itself */
        CMP      R6,#+0
        BNE.N    ??f_open_3
// 2272 			res = FR_INVALID_NAME;
        MOVS     R0,#+6
        MOVS     R5,R0
// 2273 #if _FS_SHARE
// 2274 		else
// 2275 			res = chk_lock(&dj, (mode & ~FA_READ) ? 1 : 0);
// 2276 #endif
// 2277 	}
// 2278 	/* Create or Open a file */
// 2279 	if (mode & (FA_CREATE_ALWAYS | FA_OPEN_ALWAYS | FA_CREATE_NEW)) {
??f_open_3:
        MOVS     R0,#+28
        TST      R8,R0
        BEQ.N    ??f_open_4
// 2280 		DWORD dw, cl;
// 2281 
// 2282 		if (res != FR_OK) {					/* No file, create new */
        UXTB     R5,R5            ;; ZeroExt  R5,R5,#+24,#+24
        CMP      R5,#+0
        BEQ.N    ??f_open_5
// 2283 			if (res == FR_NO_FILE)			/* There is no file to open, create a new entry */
        UXTB     R5,R5            ;; ZeroExt  R5,R5,#+24,#+24
        CMP      R5,#+4
        BNE.N    ??f_open_6
// 2284 #if _FS_SHARE
// 2285 				res = enq_lock() ? dir_register(&dj) : FR_TOO_MANY_OPEN_FILES;
// 2286 #else
// 2287 				res = dir_register(&dj);
        ADD      R0,SP,#+0
          CFI FunCall dir_register
        BL       dir_register
        MOVS     R5,R0
// 2288 #endif
// 2289 			mode |= FA_CREATE_ALWAYS;		/* File is created */
??f_open_6:
        ORRS     R8,R8,#0x8
// 2290 			dir = dj.dir;					/* New entry */
        LDR      R0,[SP, #+20]
        MOVS     R6,R0
        B.N      ??f_open_7
// 2291 		}
// 2292 		else {								/* Any object is already existing */
// 2293 			if (dir[DIR_Attr] & (AM_RDO | AM_DIR)) {	/* Cannot overwrite it (R/O or DIR) */
??f_open_5:
        LDRB     R0,[R6, #+11]
        MOVS     R1,#+17
        TST      R0,R1
        BEQ.N    ??f_open_8
// 2294 				res = FR_DENIED;
        MOVS     R0,#+7
        MOVS     R5,R0
        B.N      ??f_open_7
// 2295 			} else {
// 2296 				if (mode & FA_CREATE_NEW)	/* Cannot create as new file */
??f_open_8:
        LSLS     R0,R8,#+29
        BPL.N    ??f_open_7
// 2297 					res = FR_EXIST;
        MOVS     R0,#+8
        MOVS     R5,R0
// 2298 			}
// 2299 		}
// 2300 		if (res == FR_OK && (mode & FA_CREATE_ALWAYS)) {	/* Truncate it if overwrite mode */
??f_open_7:
        UXTB     R5,R5            ;; ZeroExt  R5,R5,#+24,#+24
        CMP      R5,#+0
        BNE.N    ??f_open_9
        LSLS     R0,R8,#+28
        BPL.N    ??f_open_9
// 2301 			dw = get_fattime();					/* Created time */
          CFI FunCall get_fattime
        BL       get_fattime
        MOV      R9,R0
// 2302 			ST_DWORD(dir+DIR_CrtTime, dw);
        STRB     R9,[R6, #+14]
        MOV      R0,R9
        UXTH     R0,R0            ;; ZeroExt  R0,R0,#+16,#+16
        LSRS     R0,R0,#+8
        STRB     R0,[R6, #+15]
        LSRS     R0,R9,#+16
        STRB     R0,[R6, #+16]
        LSRS     R0,R9,#+24
        STRB     R0,[R6, #+17]
// 2303 			dir[DIR_Attr] = 0;					/* Reset attribute */
        MOVS     R0,#+0
        STRB     R0,[R6, #+11]
// 2304 			ST_DWORD(dir+DIR_FileSize, 0);		/* size = 0 */
        MOVS     R0,#+0
        STRB     R0,[R6, #+28]
        MOVS     R0,#+0
        STRB     R0,[R6, #+29]
        MOVS     R0,#+0
        STRB     R0,[R6, #+30]
        MOVS     R0,#+0
        STRB     R0,[R6, #+31]
// 2305 			cl = LD_CLUST(dir);					/* Get start cluster */
        LDRB     R0,[R6, #+21]
        LDRB     R1,[R6, #+20]
        ORRS     R0,R1,R0, LSL #+8
        UXTH     R0,R0            ;; ZeroExt  R0,R0,#+16,#+16
        LDRB     R1,[R6, #+27]
        LDRB     R2,[R6, #+26]
        ORRS     R1,R2,R1, LSL #+8
        UXTH     R1,R1            ;; ZeroExt  R1,R1,#+16,#+16
        ORRS     R0,R1,R0, LSL #+16
        MOV      R10,R0
// 2306 			ST_CLUST(dir, 0);					/* cluster = 0 */
        MOVS     R0,#+0
        STRB     R0,[R6, #+26]
        MOVS     R0,#+0
        STRB     R0,[R6, #+27]
        MOVS     R0,#+0
        STRB     R0,[R6, #+20]
        MOVS     R0,#+0
        STRB     R0,[R6, #+21]
// 2307 			dj.fs->wflag = 1;
        LDR      R0,[SP, #+0]
        MOVS     R1,#+1
        STRB     R1,[R0, #+4]
// 2308 			if (cl) {							/* Remove the cluster chain if exist */
        CMP      R10,#+0
        BEQ.N    ??f_open_9
// 2309 				dw = dj.fs->winsect;
        LDR      R0,[SP, #+0]
        LDR      R0,[R0, #+44]
        MOV      R9,R0
// 2310 				res = remove_chain(dj.fs, cl);
        MOV      R1,R10
        LDR      R0,[SP, #+0]
          CFI FunCall remove_chain
        BL       remove_chain
        MOVS     R5,R0
// 2311 				if (res == FR_OK) {
        UXTB     R5,R5            ;; ZeroExt  R5,R5,#+24,#+24
        CMP      R5,#+0
        BNE.N    ??f_open_9
// 2312 					dj.fs->last_clust = cl - 1;	/* Reuse the cluster hole */
        LDR      R0,[SP, #+0]
        SUBS     R1,R10,#+1
        STR      R1,[R0, #+12]
// 2313 					res = move_window(dj.fs, dw);
        MOV      R1,R9
        LDR      R0,[SP, #+0]
          CFI FunCall move_window
        BL       move_window
        MOVS     R5,R0
        B.N      ??f_open_9
// 2314 				}
// 2315 			}
// 2316 		}
// 2317 	}
// 2318 	else {	/* Open an existing file */
// 2319 		if (res == FR_OK) {						/* Follow succeeded */
??f_open_4:
        UXTB     R5,R5            ;; ZeroExt  R5,R5,#+24,#+24
        CMP      R5,#+0
        BNE.N    ??f_open_9
// 2320 			if (dir[DIR_Attr] & AM_DIR) {		/* It is a directory */
        LDRB     R0,[R6, #+11]
        LSLS     R0,R0,#+27
        BPL.N    ??f_open_10
// 2321 				res = FR_NO_FILE;
        MOVS     R0,#+4
        MOVS     R5,R0
        B.N      ??f_open_9
// 2322 			} else {
// 2323 				if ((mode & FA_WRITE) && (dir[DIR_Attr] & AM_RDO)) /* R/O violation */
??f_open_10:
        LSLS     R0,R8,#+30
        BPL.N    ??f_open_9
        LDRB     R0,[R6, #+11]
        LSLS     R0,R0,#+31
        BPL.N    ??f_open_9
// 2324 					res = FR_DENIED;
        MOVS     R0,#+7
        MOVS     R5,R0
// 2325 			}
// 2326 		}
// 2327 	}
// 2328 	if (res == FR_OK) {
??f_open_9:
        UXTB     R5,R5            ;; ZeroExt  R5,R5,#+24,#+24
        CMP      R5,#+0
        BNE.N    ??f_open_11
// 2329 		if (mode & FA_CREATE_ALWAYS)			/* Set file change flag if created or overwritten */
        LSLS     R0,R8,#+28
        BPL.N    ??f_open_12
// 2330 			mode |= FA__WRITTEN;
        ORRS     R8,R8,#0x20
// 2331 		fp->dir_sect = dj.fs->winsect;			/* Pointer to the directory entry */
??f_open_12:
        LDR      R0,[SP, #+0]
        LDR      R0,[R0, #+44]
        STR      R0,[R4, #+28]
// 2332 		fp->dir_ptr = dir;
        STR      R6,[R4, #+32]
// 2333 #if _FS_SHARE
// 2334 		fp->lockid = inc_lock(&dj, (mode & ~FA_READ) ? 1 : 0);
// 2335 		if (!fp->lockid) res = FR_INT_ERR;
// 2336 #endif
// 2337 	}
// 2338 
// 2339 #else				/* R/O configuration */
// 2340 	if (res == FR_OK) {					/* Follow succeeded */
// 2341 		if (!dir) {						/* Current dir itself */
// 2342 			res = FR_INVALID_NAME;
// 2343 		} else {
// 2344 			if (dir[DIR_Attr] & AM_DIR)	/* It is a directory */
// 2345 				res = FR_NO_FILE;
// 2346 		}
// 2347 	}
// 2348 #endif
// 2349 	FREE_BUF();
??f_open_11:
        MOVS     R0,R7
          CFI FunCall ff_memfree
        BL       ff_memfree
// 2350 
// 2351 	if (res == FR_OK) {
        UXTB     R5,R5            ;; ZeroExt  R5,R5,#+24,#+24
        CMP      R5,#+0
        BNE.N    ??f_open_13
// 2352 		fp->flag = mode;					/* File access mode */
        STRB     R8,[R4, #+6]
// 2353 		fp->sclust = LD_CLUST(dir);			/* File start cluster */
        LDRB     R0,[R6, #+21]
        LDRB     R1,[R6, #+20]
        ORRS     R0,R1,R0, LSL #+8
        UXTH     R0,R0            ;; ZeroExt  R0,R0,#+16,#+16
        LDRB     R1,[R6, #+27]
        LDRB     R2,[R6, #+26]
        ORRS     R1,R2,R1, LSL #+8
        UXTH     R1,R1            ;; ZeroExt  R1,R1,#+16,#+16
        ORRS     R0,R1,R0, LSL #+16
        STR      R0,[R4, #+16]
// 2354 		fp->fsize = LD_DWORD(dir+DIR_FileSize);	/* File size */
        LDRB     R0,[R6, #+31]
        LDRB     R1,[R6, #+30]
        LSLS     R1,R1,#+16
        ORRS     R0,R1,R0, LSL #+24
        LDRB     R1,[R6, #+29]
        ORRS     R0,R0,R1, LSL #+8
        LDRB     R1,[R6, #+28]
        ORRS     R0,R1,R0
        STR      R0,[R4, #+12]
// 2355 		fp->fptr = 0;						/* File pointer */
        MOVS     R0,#+0
        STR      R0,[R4, #+8]
// 2356 		fp->dsect = 0;
        MOVS     R0,#+0
        STR      R0,[R4, #+24]
// 2357 #if _USE_FASTSEEK
// 2358 		fp->cltbl = 0;						/* Normal seek mode */
// 2359 #endif
// 2360 		fp->fs = dj.fs; fp->id = dj.fs->id;	/* Validate file object */
        LDR      R0,[SP, #+0]
        STR      R0,[R4, #+0]
        LDR      R0,[SP, #+0]
        LDRH     R0,[R0, #+6]
        STRH     R0,[R4, #+4]
// 2361 	}
// 2362 
// 2363 	LEAVE_FF(dj.fs, res);
??f_open_13:
        MOVS     R0,R5
        UXTB     R0,R0            ;; ZeroExt  R0,R0,#+24,#+24
??f_open_1:
        ADD      SP,SP,#+56
          CFI CFA R13+32
        POP      {R4-R10,PC}      ;; return
          CFI EndBlock cfiBlock29
// 2364 }
// 2365 
// 2366 
// 2367 
// 2368 
// 2369 /*-----------------------------------------------------------------------*/
// 2370 /* Read File                                                             */
// 2371 /*-----------------------------------------------------------------------*/
// 2372 

        SECTION `.text`:CODE:NOROOT(1)
          CFI Block cfiBlock30 Using cfiCommon0
          CFI Function f_read
        THUMB
// 2373 FRESULT f_read (
// 2374 	FIL *fp, 		/* Pointer to the file object */
// 2375 	void *buff,		/* Pointer to data buffer */
// 2376 	UINT btr,		/* Number of bytes to read */
// 2377 	UINT *br		/* Pointer to number of bytes read */
// 2378 )
// 2379 {
f_read:
        PUSH     {R1,R3-R11,LR}
          CFI R14 Frame(CFA, -4)
          CFI R11 Frame(CFA, -8)
          CFI R10 Frame(CFA, -12)
          CFI R9 Frame(CFA, -16)
          CFI R8 Frame(CFA, -20)
          CFI R7 Frame(CFA, -24)
          CFI R6 Frame(CFA, -28)
          CFI R5 Frame(CFA, -32)
          CFI R4 Frame(CFA, -36)
          CFI CFA R13+44
        SUB      SP,SP,#+12
          CFI CFA R13+56
        MOVS     R4,R0
        MOVS     R5,R2
// 2380 	FRESULT res;
// 2381 	DWORD clst, sect, remain;
// 2382 	UINT rcnt, cc;
// 2383 	BYTE csect, *rbuff = buff;
        LDR      R11,[SP, #+12]
// 2384 
// 2385 
// 2386 	*br = 0;	/* Initialize byte counter */
        LDR      R0,[SP, #+16]
        MOVS     R1,#+0
        STR      R1,[R0, #+0]
// 2387 
// 2388 	res = validate(fp->fs, fp->id);				/* Check validity */
        LDRH     R1,[R4, #+4]
        LDR      R0,[R4, #+0]
          CFI FunCall validate
        BL       validate
        STRB     R0,[SP, #+4]
// 2389 	if (res != FR_OK) LEAVE_FF(fp->fs, res);
        LDRB     R0,[SP, #+4]
        CMP      R0,#+0
        BEQ.N    ??f_read_0
        LDRB     R0,[SP, #+4]
        B.N      ??f_read_1
// 2390 	if (fp->flag & FA__ERROR)					/* Aborted file? */
??f_read_0:
        LDRB     R0,[R4, #+6]
        LSLS     R0,R0,#+24
        BPL.N    ??f_read_2
// 2391 		LEAVE_FF(fp->fs, FR_INT_ERR);
        MOVS     R0,#+2
        B.N      ??f_read_1
// 2392 	if (!(fp->flag & FA_READ)) 					/* Check access mode */
??f_read_2:
        LDRB     R0,[R4, #+6]
        LSLS     R0,R0,#+31
        BMI.N    ??f_read_3
// 2393 		LEAVE_FF(fp->fs, FR_DENIED);
        MOVS     R0,#+7
        B.N      ??f_read_1
// 2394 	remain = fp->fsize - fp->fptr;
??f_read_3:
        LDR      R0,[R4, #+12]
        LDR      R1,[R4, #+8]
        SUBS     R0,R0,R1
        STR      R0,[SP, #+0]
// 2395 	if (btr > remain) btr = (UINT)remain;		/* Truncate btr by remaining bytes */
        LDR      R0,[SP, #+0]
        CMP      R0,R5
        BCS.N    ??f_read_4
        LDR      R0,[SP, #+0]
        MOVS     R5,R0
// 2396 
// 2397 	for ( ;  btr;								/* Repeat until all data read */
??f_read_4:
        CMP      R5,#+0
        BEQ.W    ??f_read_5
// 2398 		rbuff += rcnt, fp->fptr += rcnt, *br += rcnt, btr -= rcnt) {
// 2399 		if ((fp->fptr % SS(fp->fs)) == 0) {		/* On the sector boundary? */
        LDR      R0,[R4, #+8]
        MOV      R1,#+512
        UDIV     R2,R0,R1
        MLS      R2,R2,R1,R0
        CMP      R2,#+0
        BNE.W    ??f_read_6
// 2400 			csect = (BYTE)(fp->fptr / SS(fp->fs) & (fp->fs->csize - 1));	/* Sector offset in the cluster */
        LDR      R0,[R4, #+8]
        LSRS     R0,R0,#+9
        LDR      R1,[R4, #+0]
        LDRB     R1,[R1, #+2]
        SUBS     R1,R1,#+1
        ANDS     R0,R1,R0
        MOV      R10,R0
// 2401 			if (!csect) {						/* On the cluster boundary? */
        UXTB     R10,R10          ;; ZeroExt  R10,R10,#+24,#+24
        CMP      R10,#+0
        BNE.N    ??f_read_7
// 2402 				if (fp->fptr == 0) {			/* On the top of the file? */
        LDR      R0,[R4, #+8]
        CMP      R0,#+0
        BNE.N    ??f_read_8
// 2403 					clst = fp->sclust;			/* Follow from the origin */
        LDR      R0,[R4, #+16]
        MOVS     R6,R0
        B.N      ??f_read_9
// 2404 				} else {						/* Middle or end of the file */
// 2405 #if _USE_FASTSEEK
// 2406 					if (fp->cltbl)
// 2407 						clst = clmt_clust(fp, fp->fptr);	/* Get cluster# from the CLMT */
// 2408 					else
// 2409 #endif
// 2410 						clst = get_fat(fp->fs, fp->clust);	/* Follow cluster chain on the FAT */
??f_read_8:
        LDR      R1,[R4, #+20]
        LDR      R0,[R4, #+0]
          CFI FunCall get_fat
        BL       get_fat
        MOVS     R6,R0
// 2411 				}
// 2412 				if (clst < 2) ABORT(fp->fs, FR_INT_ERR);
??f_read_9:
        CMP      R6,#+2
        BCS.N    ??f_read_10
        LDRB     R0,[R4, #+6]
        ORRS     R0,R0,#0x80
        STRB     R0,[R4, #+6]
        MOVS     R0,#+2
        B.N      ??f_read_1
// 2413 				if (clst == 0xFFFFFFFF) ABORT(fp->fs, FR_DISK_ERR);
??f_read_10:
        CMN      R6,#+1
        BNE.N    ??f_read_11
        LDRB     R0,[R4, #+6]
        ORRS     R0,R0,#0x80
        STRB     R0,[R4, #+6]
        MOVS     R0,#+1
        B.N      ??f_read_1
// 2414 				fp->clust = clst;				/* Update current cluster */
??f_read_11:
        STR      R6,[R4, #+20]
// 2415 			}
// 2416 			sect = clust2sect(fp->fs, fp->clust);	/* Get current sector */
??f_read_7:
        LDR      R1,[R4, #+20]
        LDR      R0,[R4, #+0]
          CFI FunCall clust2sect
        BL       clust2sect
        MOVS     R7,R0
// 2417 			if (!sect) ABORT(fp->fs, FR_INT_ERR);
        CMP      R7,#+0
        BNE.N    ??f_read_12
        LDRB     R0,[R4, #+6]
        ORRS     R0,R0,#0x80
        STRB     R0,[R4, #+6]
        MOVS     R0,#+2
        B.N      ??f_read_1
// 2418 			sect += csect;
??f_read_12:
        UXTAB    R7,R7,R10
// 2419 			cc = btr / SS(fp->fs);				/* When remaining bytes >= sector size, */
        LSRS     R0,R5,#+9
        MOV      R9,R0
// 2420 			if (cc) {							/* Read maximum contiguous sectors directly */
        CMP      R9,#+0
        BEQ.N    ??f_read_13
// 2421 				if (csect + cc > fp->fs->csize)	/* Clip at cluster boundary */
        LDR      R0,[R4, #+0]
        LDRB     R0,[R0, #+2]
        UXTAB    R1,R9,R10
        CMP      R0,R1
        BCS.N    ??f_read_14
// 2422 					cc = fp->fs->csize - csect;
        LDR      R0,[R4, #+0]
        LDRB     R0,[R0, #+2]
        UXTB     R10,R10          ;; ZeroExt  R10,R10,#+24,#+24
        SUBS     R0,R0,R10
        MOV      R9,R0
// 2423 				if (disk_read(fp->fs->drv, rbuff, sect, (BYTE)cc) != RES_OK)
??f_read_14:
        MOV      R3,R9
        UXTB     R3,R3            ;; ZeroExt  R3,R3,#+24,#+24
        MOVS     R2,R7
        MOV      R1,R11
        LDR      R0,[R4, #+0]
        LDRB     R0,[R0, #+1]
          CFI FunCall disk_read
        BL       disk_read
        CMP      R0,#+0
        BEQ.N    ??f_read_15
// 2424 					ABORT(fp->fs, FR_DISK_ERR);
        LDRB     R0,[R4, #+6]
        ORRS     R0,R0,#0x80
        STRB     R0,[R4, #+6]
        MOVS     R0,#+1
        B.N      ??f_read_1
// 2425 #if !_FS_READONLY && _FS_MINIMIZE <= 2			/* Replace one of the read sectors with cached data if it contains a dirty sector */
// 2426 #if _FS_TINY
// 2427 				if (fp->fs->wflag && fp->fs->winsect - sect < cc)
// 2428 					mem_cpy(rbuff + ((fp->fs->winsect - sect) * SS(fp->fs)), fp->fs->win, SS(fp->fs));
// 2429 #else
// 2430 				if ((fp->flag & FA__DIRTY) && fp->dsect - sect < cc)
??f_read_15:
        LDRB     R0,[R4, #+6]
        LSLS     R0,R0,#+25
        BPL.N    ??f_read_16
        LDR      R0,[R4, #+24]
        SUBS     R0,R0,R7
        CMP      R0,R9
        BCS.N    ??f_read_16
// 2431 					mem_cpy(rbuff + ((fp->dsect - sect) * SS(fp->fs)), fp->buf, SS(fp->fs));
        MOV      R2,#+512
        ADDS     R1,R4,#+36
        LDR      R0,[R4, #+24]
        SUBS     R0,R0,R7
        MOV      R3,#+512
        MLA      R0,R3,R0,R11
          CFI FunCall mem_cpy
        BL       mem_cpy
// 2432 #endif
// 2433 #endif
// 2434 				rcnt = SS(fp->fs) * cc;			/* Number of bytes transferred */
??f_read_16:
        MOV      R0,#+512
        MUL      R0,R0,R9
        MOV      R8,R0
// 2435 				continue;
        B.N      ??f_read_17
// 2436 			}
// 2437 #if !_FS_TINY
// 2438 			if (fp->dsect != sect) {			/* Load data sector if not in cache */
??f_read_13:
        LDR      R0,[R4, #+24]
        CMP      R0,R7
        BEQ.N    ??f_read_18
// 2439 #if !_FS_READONLY
// 2440 				if (fp->flag & FA__DIRTY) {		/* Write-back dirty sector cache */
        LDRB     R0,[R4, #+6]
        LSLS     R0,R0,#+25
        BPL.N    ??f_read_19
// 2441 					if (disk_write(fp->fs->drv, fp->buf, fp->dsect, 1) != RES_OK)
        MOVS     R3,#+1
        LDR      R2,[R4, #+24]
        ADDS     R1,R4,#+36
        LDR      R0,[R4, #+0]
        LDRB     R0,[R0, #+1]
          CFI FunCall disk_write
        BL       disk_write
        CMP      R0,#+0
        BEQ.N    ??f_read_20
// 2442 						ABORT(fp->fs, FR_DISK_ERR);
        LDRB     R0,[R4, #+6]
        ORRS     R0,R0,#0x80
        STRB     R0,[R4, #+6]
        MOVS     R0,#+1
        B.N      ??f_read_1
// 2443 					fp->flag &= ~FA__DIRTY;
??f_read_20:
        LDRB     R0,[R4, #+6]
        ANDS     R0,R0,#0xBF
        STRB     R0,[R4, #+6]
// 2444 				}
// 2445 #endif
// 2446 				if (disk_read(fp->fs->drv, fp->buf, sect, 1) != RES_OK)	/* Fill sector cache */
??f_read_19:
        MOVS     R3,#+1
        MOVS     R2,R7
        ADDS     R1,R4,#+36
        LDR      R0,[R4, #+0]
        LDRB     R0,[R0, #+1]
          CFI FunCall disk_read
        BL       disk_read
        CMP      R0,#+0
        BEQ.N    ??f_read_18
// 2447 					ABORT(fp->fs, FR_DISK_ERR);
        LDRB     R0,[R4, #+6]
        ORRS     R0,R0,#0x80
        STRB     R0,[R4, #+6]
        MOVS     R0,#+1
        B.N      ??f_read_1
// 2448 			}
// 2449 #endif
// 2450 			fp->dsect = sect;
??f_read_18:
        STR      R7,[R4, #+24]
// 2451 		}
// 2452 		rcnt = SS(fp->fs) - (fp->fptr % SS(fp->fs));	/* Get partial sector data from sector buffer */
??f_read_6:
        LDR      R0,[R4, #+8]
        MOV      R1,#+512
        UDIV     R2,R0,R1
        MLS      R2,R2,R1,R0
        RSBS     R0,R2,#+512
        MOV      R8,R0
// 2453 		if (rcnt > btr) rcnt = btr;
        CMP      R5,R8
        BCS.N    ??f_read_21
        MOV      R8,R5
// 2454 #if _FS_TINY
// 2455 		if (move_window(fp->fs, fp->dsect))		/* Move sector window */
// 2456 			ABORT(fp->fs, FR_DISK_ERR);
// 2457 		mem_cpy(rbuff, &fp->fs->win[fp->fptr % SS(fp->fs)], rcnt);	/* Pick partial sector */
// 2458 #else
// 2459 		mem_cpy(rbuff, &fp->buf[fp->fptr % SS(fp->fs)], rcnt);	/* Pick partial sector */
??f_read_21:
        MOV      R2,R8
        LDR      R0,[R4, #+8]
        MOV      R1,#+512
        UDIV     R3,R0,R1
        MLS      R3,R3,R1,R0
        ADDS     R0,R3,R4
        ADDS     R1,R0,#+36
        MOV      R0,R11
          CFI FunCall mem_cpy
        BL       mem_cpy
// 2460 #endif
// 2461 	}
??f_read_17:
        ADDS     R11,R8,R11
        LDR      R0,[R4, #+8]
        ADDS     R0,R8,R0
        STR      R0,[R4, #+8]
        LDR      R0,[SP, #+16]
        LDR      R0,[R0, #+0]
        ADDS     R0,R8,R0
        LDR      R1,[SP, #+16]
        STR      R0,[R1, #+0]
        SUBS     R5,R5,R8
        B.N      ??f_read_4
// 2462 
// 2463 	LEAVE_FF(fp->fs, FR_OK);
??f_read_5:
        MOVS     R0,#+0
??f_read_1:
        ADD      SP,SP,#+20
          CFI CFA R13+36
        POP      {R4-R11,PC}      ;; return
          CFI EndBlock cfiBlock30
// 2464 }
// 2465 
// 2466 
// 2467 
// 2468 
// 2469 #if !_FS_READONLY
// 2470 /*-----------------------------------------------------------------------*/
// 2471 /* Write File                                                            */
// 2472 /*-----------------------------------------------------------------------*/
// 2473 

        SECTION `.text`:CODE:NOROOT(1)
          CFI Block cfiBlock31 Using cfiCommon0
          CFI Function f_write
        THUMB
// 2474 FRESULT f_write (
// 2475 	FIL *fp,			/* Pointer to the file object */
// 2476 	const void *buff,	/* Pointer to the data to be written */
// 2477 	UINT btw,			/* Number of bytes to write */
// 2478 	UINT *bw			/* Pointer to number of bytes written */
// 2479 )
// 2480 {
f_write:
        PUSH     {R0,R1,R3-R11,LR}
          CFI R14 Frame(CFA, -4)
          CFI R11 Frame(CFA, -8)
          CFI R10 Frame(CFA, -12)
          CFI R9 Frame(CFA, -16)
          CFI R8 Frame(CFA, -20)
          CFI R7 Frame(CFA, -24)
          CFI R6 Frame(CFA, -28)
          CFI R5 Frame(CFA, -32)
          CFI R4 Frame(CFA, -36)
          CFI CFA R13+48
        MOVS     R4,R0
        MOVS     R5,R2
// 2481 	FRESULT res;
// 2482 	DWORD clst, sect;
// 2483 	UINT wcnt, cc;
// 2484 	const BYTE *wbuff = buff;
        LDR      R10,[SP, #+4]
// 2485 	BYTE csect;
// 2486 
// 2487 
// 2488 	*bw = 0;	/* Initialize byte counter */
        LDR      R0,[SP, #+8]
        MOVS     R1,#+0
        STR      R1,[R0, #+0]
// 2489 
// 2490 	res = validate(fp->fs, fp->id);			/* Check validity */
        LDRH     R1,[R4, #+4]
        LDR      R0,[R4, #+0]
          CFI FunCall validate
        BL       validate
        STRB     R0,[SP, #+0]
// 2491 	if (res != FR_OK) LEAVE_FF(fp->fs, res);
        LDRB     R0,[SP, #+0]
        CMP      R0,#+0
        BEQ.N    ??f_write_0
        LDRB     R0,[SP, #+0]
        B.N      ??f_write_1
// 2492 	if (fp->flag & FA__ERROR)				/* Aborted file? */
??f_write_0:
        LDRB     R0,[R4, #+6]
        LSLS     R0,R0,#+24
        BPL.N    ??f_write_2
// 2493 		LEAVE_FF(fp->fs, FR_INT_ERR);
        MOVS     R0,#+2
        B.N      ??f_write_1
// 2494 	if (!(fp->flag & FA_WRITE))				/* Check access mode */
??f_write_2:
        LDRB     R0,[R4, #+6]
        LSLS     R0,R0,#+30
        BMI.N    ??f_write_3
// 2495 		LEAVE_FF(fp->fs, FR_DENIED);
        MOVS     R0,#+7
        B.N      ??f_write_1
// 2496 	if ((DWORD)(fp->fsize + btw) < fp->fsize) btw = 0;	/* File size cannot reach 4GB */
??f_write_3:
        LDR      R0,[R4, #+12]
        ADDS     R0,R5,R0
        LDR      R1,[R4, #+12]
        CMP      R0,R1
        BCS.N    ??f_write_4
        MOVS     R0,#+0
        MOVS     R5,R0
// 2497 
// 2498 	for ( ;  btw;							/* Repeat until all data written */
??f_write_4:
        CMP      R5,#+0
        BEQ.W    ??f_write_5
// 2499 		wbuff += wcnt, fp->fptr += wcnt, *bw += wcnt, btw -= wcnt) {
// 2500 		if ((fp->fptr % SS(fp->fs)) == 0) {	/* On the sector boundary? */
        LDR      R0,[R4, #+8]
        MOV      R1,#+512
        UDIV     R2,R0,R1
        MLS      R2,R2,R1,R0
        CMP      R2,#+0
        BNE.W    ??f_write_6
// 2501 			csect = (BYTE)(fp->fptr / SS(fp->fs) & (fp->fs->csize - 1));	/* Sector offset in the cluster */
        LDR      R0,[R4, #+8]
        LSRS     R0,R0,#+9
        LDR      R1,[R4, #+0]
        LDRB     R1,[R1, #+2]
        SUBS     R1,R1,#+1
        ANDS     R0,R1,R0
        MOV      R11,R0
// 2502 			if (!csect) {					/* On the cluster boundary? */
        UXTB     R11,R11          ;; ZeroExt  R11,R11,#+24,#+24
        CMP      R11,#+0
        BNE.N    ??f_write_7
// 2503 				if (fp->fptr == 0) {		/* On the top of the file? */
        LDR      R0,[R4, #+8]
        CMP      R0,#+0
        BNE.N    ??f_write_8
// 2504 					clst = fp->sclust;		/* Follow from the origin */
        LDR      R0,[R4, #+16]
        MOVS     R6,R0
// 2505 					if (clst == 0)			/* When no cluster is allocated, */
        CMP      R6,#+0
        BNE.N    ??f_write_9
// 2506 						fp->sclust = clst = create_chain(fp->fs, 0);	/* Create a new cluster chain */
        MOVS     R1,#+0
        LDR      R0,[R4, #+0]
          CFI FunCall create_chain
        BL       create_chain
        MOVS     R6,R0
        STR      R0,[R4, #+16]
        B.N      ??f_write_9
// 2507 				} else {					/* Middle or end of the file */
// 2508 #if _USE_FASTSEEK
// 2509 					if (fp->cltbl)
// 2510 						clst = clmt_clust(fp, fp->fptr);	/* Get cluster# from the CLMT */
// 2511 					else
// 2512 #endif
// 2513 						clst = create_chain(fp->fs, fp->clust);	/* Follow or stretch cluster chain on the FAT */
??f_write_8:
        LDR      R1,[R4, #+20]
        LDR      R0,[R4, #+0]
          CFI FunCall create_chain
        BL       create_chain
        MOVS     R6,R0
// 2514 				}
// 2515 				if (clst == 0) break;		/* Could not allocate a new cluster (disk full) */
??f_write_9:
        CMP      R6,#+0
        BEQ.W    ??f_write_5
// 2516 				if (clst == 1) ABORT(fp->fs, FR_INT_ERR);
??f_write_10:
        CMP      R6,#+1
        BNE.N    ??f_write_11
        LDRB     R0,[R4, #+6]
        ORRS     R0,R0,#0x80
        STRB     R0,[R4, #+6]
        MOVS     R0,#+2
        B.N      ??f_write_1
// 2517 				if (clst == 0xFFFFFFFF) ABORT(fp->fs, FR_DISK_ERR);
??f_write_11:
        CMN      R6,#+1
        BNE.N    ??f_write_12
        LDRB     R0,[R4, #+6]
        ORRS     R0,R0,#0x80
        STRB     R0,[R4, #+6]
        MOVS     R0,#+1
        B.N      ??f_write_1
// 2518 				fp->clust = clst;			/* Update current cluster */
??f_write_12:
        STR      R6,[R4, #+20]
// 2519 			}
// 2520 #if _FS_TINY
// 2521 			if (fp->fs->winsect == fp->dsect && move_window(fp->fs, 0))	/* Write-back sector cache */
// 2522 				ABORT(fp->fs, FR_DISK_ERR);
// 2523 #else
// 2524 			if (fp->flag & FA__DIRTY) {		/* Write-back sector cache */
??f_write_7:
        LDRB     R0,[R4, #+6]
        LSLS     R0,R0,#+25
        BPL.N    ??f_write_13
// 2525 				if (disk_write(fp->fs->drv, fp->buf, fp->dsect, 1) != RES_OK)
        MOVS     R3,#+1
        LDR      R2,[R4, #+24]
        ADDS     R1,R4,#+36
        LDR      R0,[R4, #+0]
        LDRB     R0,[R0, #+1]
          CFI FunCall disk_write
        BL       disk_write
        CMP      R0,#+0
        BEQ.N    ??f_write_14
// 2526 					ABORT(fp->fs, FR_DISK_ERR);
        LDRB     R0,[R4, #+6]
        ORRS     R0,R0,#0x80
        STRB     R0,[R4, #+6]
        MOVS     R0,#+1
        B.N      ??f_write_1
// 2527 				fp->flag &= ~FA__DIRTY;
??f_write_14:
        LDRB     R0,[R4, #+6]
        ANDS     R0,R0,#0xBF
        STRB     R0,[R4, #+6]
// 2528 			}
// 2529 #endif
// 2530 			sect = clust2sect(fp->fs, fp->clust);	/* Get current sector */
??f_write_13:
        LDR      R1,[R4, #+20]
        LDR      R0,[R4, #+0]
          CFI FunCall clust2sect
        BL       clust2sect
        MOVS     R7,R0
// 2531 			if (!sect) ABORT(fp->fs, FR_INT_ERR);
        CMP      R7,#+0
        BNE.N    ??f_write_15
        LDRB     R0,[R4, #+6]
        ORRS     R0,R0,#0x80
        STRB     R0,[R4, #+6]
        MOVS     R0,#+2
        B.N      ??f_write_1
// 2532 			sect += csect;
??f_write_15:
        UXTAB    R7,R7,R11
// 2533 			cc = btw / SS(fp->fs);			/* When remaining bytes >= sector size, */
        LSRS     R0,R5,#+9
        MOV      R9,R0
// 2534 			if (cc) {						/* Write maximum contiguous sectors directly */
        CMP      R9,#+0
        BEQ.N    ??f_write_16
// 2535 				if (csect + cc > fp->fs->csize)	/* Clip at cluster boundary */
        LDR      R0,[R4, #+0]
        LDRB     R0,[R0, #+2]
        UXTAB    R1,R9,R11
        CMP      R0,R1
        BCS.N    ??f_write_17
// 2536 					cc = fp->fs->csize - csect;
        LDR      R0,[R4, #+0]
        LDRB     R0,[R0, #+2]
        UXTB     R11,R11          ;; ZeroExt  R11,R11,#+24,#+24
        SUBS     R0,R0,R11
        MOV      R9,R0
// 2537 				if (disk_write(fp->fs->drv, wbuff, sect, (BYTE)cc) != RES_OK)
??f_write_17:
        MOV      R3,R9
        UXTB     R3,R3            ;; ZeroExt  R3,R3,#+24,#+24
        MOVS     R2,R7
        MOV      R1,R10
        LDR      R0,[R4, #+0]
        LDRB     R0,[R0, #+1]
          CFI FunCall disk_write
        BL       disk_write
        CMP      R0,#+0
        BEQ.N    ??f_write_18
// 2538 					ABORT(fp->fs, FR_DISK_ERR);
        LDRB     R0,[R4, #+6]
        ORRS     R0,R0,#0x80
        STRB     R0,[R4, #+6]
        MOVS     R0,#+1
        B.N      ??f_write_1
// 2539 #if _FS_TINY
// 2540 				if (fp->fs->winsect - sect < cc) {	/* Refill sector cache if it gets invalidated by the direct write */
// 2541 					mem_cpy(fp->fs->win, wbuff + ((fp->fs->winsect - sect) * SS(fp->fs)), SS(fp->fs));
// 2542 					fp->fs->wflag = 0;
// 2543 				}
// 2544 #else
// 2545 				if (fp->dsect - sect < cc) { /* Refill sector cache if it gets invalidated by the direct write */
??f_write_18:
        LDR      R0,[R4, #+24]
        SUBS     R0,R0,R7
        CMP      R0,R9
        BCS.N    ??f_write_19
// 2546 					mem_cpy(fp->buf, wbuff + ((fp->dsect - sect) * SS(fp->fs)), SS(fp->fs));
        MOV      R2,#+512
        LDR      R0,[R4, #+24]
        SUBS     R0,R0,R7
        MOV      R1,#+512
        MLA      R1,R1,R0,R10
        ADDS     R0,R4,#+36
          CFI FunCall mem_cpy
        BL       mem_cpy
// 2547 					fp->flag &= ~FA__DIRTY;
        LDRB     R0,[R4, #+6]
        ANDS     R0,R0,#0xBF
        STRB     R0,[R4, #+6]
// 2548 				}
// 2549 #endif
// 2550 				wcnt = SS(fp->fs) * cc;		/* Number of bytes transferred */
??f_write_19:
        MOV      R0,#+512
        MUL      R0,R0,R9
        MOV      R8,R0
// 2551 				continue;
        B.N      ??f_write_20
// 2552 			}
// 2553 #if _FS_TINY
// 2554 			if (fp->fptr >= fp->fsize) {	/* Avoid silly cache filling at growing edge */
// 2555 				if (move_window(fp->fs, 0)) ABORT(fp->fs, FR_DISK_ERR);
// 2556 				fp->fs->winsect = sect;
// 2557 			}
// 2558 #else
// 2559 			if (fp->dsect != sect) {		/* Fill sector cache with file data */
??f_write_16:
        LDR      R0,[R4, #+24]
        CMP      R0,R7
        BEQ.N    ??f_write_21
// 2560 				if (fp->fptr < fp->fsize &&
// 2561 					disk_read(fp->fs->drv, fp->buf, sect, 1) != RES_OK)
        LDR      R0,[R4, #+8]
        LDR      R1,[R4, #+12]
        CMP      R0,R1
        BCS.N    ??f_write_21
        MOVS     R3,#+1
        MOVS     R2,R7
        ADDS     R1,R4,#+36
        LDR      R0,[R4, #+0]
        LDRB     R0,[R0, #+1]
          CFI FunCall disk_read
        BL       disk_read
        CMP      R0,#+0
        BEQ.N    ??f_write_21
// 2562 						ABORT(fp->fs, FR_DISK_ERR);
        LDRB     R0,[R4, #+6]
        ORRS     R0,R0,#0x80
        STRB     R0,[R4, #+6]
        MOVS     R0,#+1
        B.N      ??f_write_1
// 2563 			}
// 2564 #endif
// 2565 			fp->dsect = sect;
??f_write_21:
        STR      R7,[R4, #+24]
// 2566 		}
// 2567 		wcnt = SS(fp->fs) - (fp->fptr % SS(fp->fs));/* Put partial sector into file I/O buffer */
??f_write_6:
        LDR      R0,[R4, #+8]
        MOV      R1,#+512
        UDIV     R2,R0,R1
        MLS      R2,R2,R1,R0
        RSBS     R0,R2,#+512
        MOV      R8,R0
// 2568 		if (wcnt > btw) wcnt = btw;
        CMP      R5,R8
        BCS.N    ??f_write_22
        MOV      R8,R5
// 2569 #if _FS_TINY
// 2570 		if (move_window(fp->fs, fp->dsect))	/* Move sector window */
// 2571 			ABORT(fp->fs, FR_DISK_ERR);
// 2572 		mem_cpy(&fp->fs->win[fp->fptr % SS(fp->fs)], wbuff, wcnt);	/* Fit partial sector */
// 2573 		fp->fs->wflag = 1;
// 2574 #else
// 2575 		mem_cpy(&fp->buf[fp->fptr % SS(fp->fs)], wbuff, wcnt);	/* Fit partial sector */
??f_write_22:
        MOV      R2,R8
        MOV      R1,R10
        LDR      R0,[R4, #+8]
        MOV      R3,#+512
        UDIV     R12,R0,R3
        MLS      R12,R12,R3,R0
        ADDS     R0,R12,R4
        ADDS     R0,R0,#+36
          CFI FunCall mem_cpy
        BL       mem_cpy
// 2576 		fp->flag |= FA__DIRTY;
        LDRB     R0,[R4, #+6]
        ORRS     R0,R0,#0x40
        STRB     R0,[R4, #+6]
// 2577 #endif
// 2578 	}
??f_write_20:
        ADDS     R10,R8,R10
        LDR      R0,[R4, #+8]
        ADDS     R0,R8,R0
        STR      R0,[R4, #+8]
        LDR      R0,[SP, #+8]
        LDR      R0,[R0, #+0]
        ADDS     R0,R8,R0
        LDR      R1,[SP, #+8]
        STR      R0,[R1, #+0]
        SUBS     R5,R5,R8
        B.N      ??f_write_4
// 2579 
// 2580 	if (fp->fptr > fp->fsize) fp->fsize = fp->fptr;	/* Update file size if needed */
??f_write_5:
        LDR      R0,[R4, #+12]
        LDR      R1,[R4, #+8]
        CMP      R0,R1
        BCS.N    ??f_write_23
        LDR      R0,[R4, #+8]
        STR      R0,[R4, #+12]
// 2581 	fp->flag |= FA__WRITTEN;						/* Set file change flag */
??f_write_23:
        LDRB     R0,[R4, #+6]
        ORRS     R0,R0,#0x20
        STRB     R0,[R4, #+6]
// 2582 
// 2583 	LEAVE_FF(fp->fs, FR_OK);
        MOVS     R0,#+0
??f_write_1:
        POP      {R1-R11,PC}      ;; return
          CFI EndBlock cfiBlock31
// 2584 }
// 2585 
// 2586 
// 2587 
// 2588 
// 2589 /*-----------------------------------------------------------------------*/
// 2590 /* Synchronize the File Object                                           */
// 2591 /*-----------------------------------------------------------------------*/
// 2592 

        SECTION `.text`:CODE:NOROOT(1)
          CFI Block cfiBlock32 Using cfiCommon0
          CFI Function f_sync
        THUMB
// 2593 FRESULT f_sync (
// 2594 	FIL *fp		/* Pointer to the file object */
// 2595 )
// 2596 {
f_sync:
        PUSH     {R3-R7,LR}
          CFI R14 Frame(CFA, -4)
          CFI R7 Frame(CFA, -8)
          CFI R6 Frame(CFA, -12)
          CFI R5 Frame(CFA, -16)
          CFI R4 Frame(CFA, -20)
          CFI CFA R13+24
        MOVS     R4,R0
// 2597 	FRESULT res;
// 2598 	DWORD tim;
// 2599 	BYTE *dir;
// 2600 
// 2601 
// 2602 	res = validate(fp->fs, fp->id);		/* Check validity of the object */
        LDRH     R1,[R4, #+4]
        LDR      R0,[R4, #+0]
          CFI FunCall validate
        BL       validate
        MOVS     R5,R0
// 2603 	if (res == FR_OK) {
        UXTB     R5,R5            ;; ZeroExt  R5,R5,#+24,#+24
        CMP      R5,#+0
        BNE.N    ??f_sync_0
// 2604 		if (fp->flag & FA__WRITTEN) {	/* Has the file been written? */
        LDRB     R0,[R4, #+6]
        LSLS     R0,R0,#+26
        BPL.N    ??f_sync_0
// 2605 #if !_FS_TINY	/* Write-back dirty buffer */
// 2606 			if (fp->flag & FA__DIRTY) {
        LDRB     R0,[R4, #+6]
        LSLS     R0,R0,#+25
        BPL.N    ??f_sync_1
// 2607 				if (disk_write(fp->fs->drv, fp->buf, fp->dsect, 1) != RES_OK)
        MOVS     R3,#+1
        LDR      R2,[R4, #+24]
        ADDS     R1,R4,#+36
        LDR      R0,[R4, #+0]
        LDRB     R0,[R0, #+1]
          CFI FunCall disk_write
        BL       disk_write
        CMP      R0,#+0
        BEQ.N    ??f_sync_2
// 2608 					LEAVE_FF(fp->fs, FR_DISK_ERR);
        MOVS     R0,#+1
        B.N      ??f_sync_3
// 2609 				fp->flag &= ~FA__DIRTY;
??f_sync_2:
        LDRB     R0,[R4, #+6]
        ANDS     R0,R0,#0xBF
        STRB     R0,[R4, #+6]
// 2610 			}
// 2611 #endif
// 2612 			/* Update the directory entry */
// 2613 			res = move_window(fp->fs, fp->dir_sect);
??f_sync_1:
        LDR      R1,[R4, #+28]
        LDR      R0,[R4, #+0]
          CFI FunCall move_window
        BL       move_window
        MOVS     R5,R0
// 2614 			if (res == FR_OK) {
        UXTB     R5,R5            ;; ZeroExt  R5,R5,#+24,#+24
        CMP      R5,#+0
        BNE.N    ??f_sync_0
// 2615 				dir = fp->dir_ptr;
        LDR      R0,[R4, #+32]
        MOVS     R7,R0
// 2616 				dir[DIR_Attr] |= AM_ARC;					/* Set archive bit */
        LDRB     R0,[R7, #+11]
        ORRS     R0,R0,#0x20
        STRB     R0,[R7, #+11]
// 2617 				ST_DWORD(dir+DIR_FileSize, fp->fsize);		/* Update file size */
        LDR      R0,[R4, #+12]
        STRB     R0,[R7, #+28]
        LDR      R0,[R4, #+12]
        UXTH     R0,R0            ;; ZeroExt  R0,R0,#+16,#+16
        LSRS     R0,R0,#+8
        STRB     R0,[R7, #+29]
        LDR      R0,[R4, #+12]
        LSRS     R0,R0,#+16
        STRB     R0,[R7, #+30]
        LDR      R0,[R4, #+12]
        LSRS     R0,R0,#+24
        STRB     R0,[R7, #+31]
// 2618 				ST_CLUST(dir, fp->sclust);					/* Update start cluster */
        LDR      R0,[R4, #+16]
        STRB     R0,[R7, #+26]
        LDR      R0,[R4, #+16]
        UXTH     R0,R0            ;; ZeroExt  R0,R0,#+16,#+16
        LSRS     R0,R0,#+8
        STRB     R0,[R7, #+27]
        LDR      R0,[R4, #+16]
        LSRS     R0,R0,#+16
        STRB     R0,[R7, #+20]
        LDR      R0,[R4, #+16]
        LSRS     R0,R0,#+16
        UXTH     R0,R0            ;; ZeroExt  R0,R0,#+16,#+16
        LSRS     R0,R0,#+8
        STRB     R0,[R7, #+21]
// 2619 				tim = get_fattime();						/* Update updated time */
          CFI FunCall get_fattime
        BL       get_fattime
        MOVS     R6,R0
// 2620 				ST_DWORD(dir+DIR_WrtTime, tim);
        STRB     R6,[R7, #+22]
        MOVS     R0,R6
        UXTH     R0,R0            ;; ZeroExt  R0,R0,#+16,#+16
        LSRS     R0,R0,#+8
        STRB     R0,[R7, #+23]
        LSRS     R0,R6,#+16
        STRB     R0,[R7, #+24]
        LSRS     R0,R6,#+24
        STRB     R0,[R7, #+25]
// 2621 				fp->flag &= ~FA__WRITTEN;
        LDRB     R0,[R4, #+6]
        ANDS     R0,R0,#0xDF
        STRB     R0,[R4, #+6]
// 2622 				fp->fs->wflag = 1;
        LDR      R0,[R4, #+0]
        MOVS     R1,#+1
        STRB     R1,[R0, #+4]
// 2623 				res = sync(fp->fs);
        LDR      R0,[R4, #+0]
          CFI FunCall sync
        BL       sync
        MOVS     R5,R0
// 2624 			}
// 2625 		}
// 2626 	}
// 2627 
// 2628 	LEAVE_FF(fp->fs, res);
??f_sync_0:
        MOVS     R0,R5
        UXTB     R0,R0            ;; ZeroExt  R0,R0,#+24,#+24
??f_sync_3:
        POP      {R1,R4-R7,PC}    ;; return
          CFI EndBlock cfiBlock32
// 2629 }
// 2630 
// 2631 #endif /* !_FS_READONLY */
// 2632 
// 2633 
// 2634 
// 2635 
// 2636 /*-----------------------------------------------------------------------*/
// 2637 /* Close File                                                            */
// 2638 /*-----------------------------------------------------------------------*/
// 2639 

        SECTION `.text`:CODE:NOROOT(1)
          CFI Block cfiBlock33 Using cfiCommon0
          CFI Function f_close
        THUMB
// 2640 FRESULT f_close (
// 2641 	FIL *fp		/* Pointer to the file object to be closed */
// 2642 )
// 2643 {
f_close:
        PUSH     {R3-R5,LR}
          CFI R14 Frame(CFA, -4)
          CFI R5 Frame(CFA, -8)
          CFI R4 Frame(CFA, -12)
          CFI CFA R13+16
        MOVS     R4,R0
// 2644 	FRESULT res;
// 2645 
// 2646 #if _FS_READONLY
// 2647 	FATFS *fs = fp->fs;
// 2648 	res = validate(fs, fp->id);
// 2649 	if (res == FR_OK) fp->fs = 0;	/* Discard file object */
// 2650 	LEAVE_FF(fs, res);
// 2651 
// 2652 #else
// 2653 	res = f_sync(fp);		/* Flush cached data */
        MOVS     R0,R4
          CFI FunCall f_sync
        BL       f_sync
        MOVS     R5,R0
// 2654 #if _FS_SHARE
// 2655 	if (res == FR_OK) {		/* Decrement open counter */
// 2656 #if _FS_REENTRANT
// 2657 		res = validate(fp->fs, fp->id);
// 2658 		if (res == FR_OK) {
// 2659 			res = dec_lock(fp->lockid);	
// 2660 			unlock_fs(fp->fs, FR_OK);
// 2661 		}
// 2662 #else
// 2663 		res = dec_lock(fp->lockid);
// 2664 #endif
// 2665 	}
// 2666 #endif
// 2667 	if (res == FR_OK) fp->fs = 0;	/* Discard file object */
        UXTB     R5,R5            ;; ZeroExt  R5,R5,#+24,#+24
        CMP      R5,#+0
        BNE.N    ??f_close_0
        MOVS     R0,#+0
        STR      R0,[R4, #+0]
// 2668 	return res;
??f_close_0:
        MOVS     R0,R5
        UXTB     R0,R0            ;; ZeroExt  R0,R0,#+24,#+24
        POP      {R1,R4,R5,PC}    ;; return
          CFI EndBlock cfiBlock33
// 2669 #endif
// 2670 }
// 2671 
// 2672 
// 2673 
// 2674 
// 2675 /*-----------------------------------------------------------------------*/
