///////////////////////////////////////////////////////////////////////////////
//                                                                            /
// IAR ANSI C/C++ Compiler V6.50.3.4676/W32 for ARM     30/Jun/2015  23:08:42 /
// Copyright 1999-2013 IAR Systems AB.                                        /
//                                                                            /
//    Cpu mode        =  thumb                                                /
//    Endian          =  little                                               /
//    Source file     =  F:\stuff\rusefi_sourceforge\firmware\controllers\cor /
//                       e\table_helper.cpp                                   /
//    Command line    =  F:\stuff\rusefi_sourceforge\firmware\controllers\cor /
//                       e\table_helper.cpp -lCN F:\stuff\rusefi_sourceforge\ /
//                       firmware\iar\Debug\List\ -lA                         /
//                       F:\stuff\rusefi_sourceforge\firmware\iar\Debug\List\ /
//                        -o F:\stuff\rusefi_sourceforge\firmware\iar\Debug\O /
//                       bj\ --no_cse --no_unroll --no_inline                 /
//                       --no_code_motion --no_tbaa --no_clustering           /
//                       --no_scheduling --debug --endian=little              /
//                       --cpu=Cortex-M4 -e --fpu=VFPv4_sp --dlib_config      /
//                       "C:\Program Files (x86)\IAR Systems\Embedded         /
//                       Workbench 6.5\arm\INC\c\DLib_Config_Normal.h"        /
//                       --misrac2004=1.2-1.4,2.3,3.4,4.2,6.5-7,8.2-8.3,9.3,  /
//                       12.3,13.6-13,15.5,17.3,19.17,20.7-20.9,20.11 -I      /
//                       F:\stuff\rusefi_sourceforge\firmware\iar\..\ -I      /
//                       F:\stuff\rusefi_sourceforge\firmware\iar\..\chibios\ /
//                       os\kernel\include\ -I F:\stuff\rusefi_sourceforge\fi /
//                       rmware\iar\..\chibios\os\ports\common\ARMCMx\ -I     /
//                       F:\stuff\rusefi_sourceforge\firmware\iar\..\chibios\ /
//                       os\ports\common\ARMCMx\CMSIS\include\ -I             /
//                       F:\stuff\rusefi_sourceforge\firmware\iar\..\chibios\ /
//                       os\ports\IAR\ARMCMx\ -I F:\stuff\rusefi_sourceforge\ /
//                       firmware\iar\..\chibios\os\ports\IAR\ARMCMx\STM32F4x /
//                       x\ -I F:\stuff\rusefi_sourceforge\firmware\iar\..\ch /
//                       ibios\os\hal\include\ -I F:\stuff\rusefi_sourceforge /
//                       \firmware\iar\..\chibios\os\hal\platforms\STM32\ -I  /
//                       F:\stuff\rusefi_sourceforge\firmware\iar\..\chibios\ /
//                       os\hal\platforms\STM32\DMAv1\ -I                     /
//                       F:\stuff\rusefi_sourceforge\firmware\iar\..\chibios\ /
//                       os\hal\platforms\STM32\GPIOv2\ -I                    /
//                       F:\stuff\rusefi_sourceforge\firmware\iar\..\chibios\ /
//                       os\hal\platforms\STM32\I2Cv1\ -I                     /
//                       F:\stuff\rusefi_sourceforge\firmware\iar\..\chibios\ /
//                       os\hal\platforms\STM32\SPIv1\ -I                     /
//                       F:\stuff\rusefi_sourceforge\firmware\iar\..\chibios\ /
//                       os\hal\platforms\STM32\TIMv1\ -I                     /
//                       F:\stuff\rusefi_sourceforge\firmware\iar\..\chibios\ /
//                       os\hal\platforms\STM32\RTCv2\ -I                     /
//                       F:\stuff\rusefi_sourceforge\firmware\iar\..\chibios\ /
//                       os\hal\platforms\STM32\USARTv1\ -I                   /
//                       F:\stuff\rusefi_sourceforge\firmware\iar\..\chibios\ /
//                       os\hal\platforms\STM32\OTGv1\ -I                     /
//                       F:\stuff\rusefi_sourceforge\firmware\iar\..\chibios\ /
//                       os\hal\platforms\STM32F4xx\ -I                       /
//                       F:\stuff\rusefi_sourceforge\firmware\iar\..\chibios\ /
//                       os\various\ -I F:\stuff\rusefi_sourceforge\firmware\ /
//                       iar\..\chibios\os\various\devices_lib\accel\ -I      /
//                       F:\stuff\rusefi_sourceforge\firmware\iar\..\chibios\ /
//                       boards\ST_STM32F4_DISCOVERY\ -I                      /
//                       F:\stuff\rusefi_sourceforge\firmware\iar\..\controll /
//                       ers\ -I F:\stuff\rusefi_sourceforge\firmware\iar\..\ /
//                       controllers\algo\ -I F:\stuff\rusefi_sourceforge\fir /
//                       mware\iar\..\controllers\core\ -I                    /
//                       F:\stuff\rusefi_sourceforge\firmware\iar\..\controll /
//                       ers\system\ -I F:\stuff\rusefi_sourceforge\firmware\ /
//                       iar\..\controllers\sensors\ -I                       /
//                       F:\stuff\rusefi_sourceforge\firmware\iar\..\controll /
//                       ers\math\ -I F:\stuff\rusefi_sourceforge\firmware\ia /
//                       r\..\controllers\trigger\ -I                         /
//                       F:\stuff\rusefi_sourceforge\firmware\iar\..\console\ /
//                        -I F:\stuff\rusefi_sourceforge\firmware\iar\..\conf /
//                       ig\ -I F:\stuff\rusefi_sourceforge\firmware\iar\..\c /
//                       onfig\engines\ -I F:\stuff\rusefi_sourceforge\firmwa /
//                       re\iar\..\config\stm32f4ems\ -I                      /
//                       F:\stuff\rusefi_sourceforge\firmware\iar\..\console\ /
//                       binary\ -I F:\stuff\rusefi_sourceforge\firmware\iar\ /
//                       ..\console_util\ -I F:\stuff\rusefi_sourceforge\firm /
//                       ware\iar\..\development\ -I                          /
//                       F:\stuff\rusefi_sourceforge\firmware\iar\..\developm /
//                       ent\test\ -I F:\stuff\rusefi_sourceforge\firmware\ia /
//                       r\..\development\hw_layer\ -I                        /
//                       F:\stuff\rusefi_sourceforge\firmware\iar\..\hw_layer /
//                       \algo\ -I F:\stuff\rusefi_sourceforge\firmware\iar\. /
//                       .\hw_layer\lcd\ -I F:\stuff\rusefi_sourceforge\firmw /
//                       are\iar\..\hw_layer\stm32f4\ -I                      /
//                       F:\stuff\rusefi_sourceforge\firmware\iar\..\hw_layer /
//                       \serial_over_usb\ -I F:\stuff\rusefi_sourceforge\fir /
//                       mware\iar\..\hw_layer\ -I                            /
//                       F:\stuff\rusefi_sourceforge\firmware\iar\..\ext\ -I  /
//                       F:\stuff\rusefi_sourceforge\firmware\iar\..\ext_algo /
//                       \ -I F:\stuff\rusefi_sourceforge\firmware\iar\..\dev /
//                       elopment\ -I F:\stuff\rusefi_sourceforge\firmware\ia /
//                       r\..\development\hw_layer\ -I                        /
//                       F:\stuff\rusefi_sourceforge\firmware\iar\..\util\    /
//                       -On --eec++                                          /
//    MISRA C version =  2004                                                 /
//      Enabled       =  1.2-1.4 2.3 3.4 4.2 6.5 7 8.2 8.3 9.3 12.3 13.6      /
//                       13.7 15.5 17.3 19.17 20.7-20.9 20.11                 /
//      Checked       =  1.4 2.3 4.2 6.5 7 8.2 8.3 9.3 12.3 13.7 15.5         /
//                       20.7-20.9 20.11                                      /
//      Not checked   =  1.1-1.3 1.5-2.2 2.4-4.1 5-6.4 8.1 8.4-9.2 10-12.2    /
//                       12.4-13.6 14-15.4 16-20.6 20.10 20.12 21             /
//    List file       =  F:\stuff\rusefi_sourceforge\firmware\iar\Debug\List\ /
//                       table_helper.s                                       /
//                                                                            /
//                                                                            /
///////////////////////////////////////////////////////////////////////////////

        NAME table_helper

        RTMODEL "__CPP_Language", "EC++"
        RTMODEL "__SystemLibrary", "DLib"
        AAPCS BASE,INTERWORK,VFP
        PRESERVE8
        REQUIRE8

        #define SHT_PROGBITS 0x1

        EXTERN _Z11interpolatefffff
        EXTERN efiRound

        PUBLIC _Z11setTableBinPfiff
        PUBLIC _Z12setTableBin2Pfifff
        PUBLIC _Z14setRpmTableBinPfi
        
          CFI Names cfiNames0
          CFI StackFrame CFA R13 DATA
          CFI Resource R0:32, R1:32, R2:32, R3:32, R4:32, R5:32, R6:32, R7:32
          CFI Resource R8:32, R9:32, R10:32, R11:32, R12:32, R13:32, R14:32
          CFI Resource D0:64, D1:64, D2:64, D3:64, D4:64, D5:64, D6:64, D7:64
          CFI Resource D8:64, D9:64, D10:64, D11:64, D12:64, D13:64, D14:64
          CFI Resource D15:64
          CFI EndNames cfiNames0
        
          CFI Common cfiCommon0 Using cfiNames0
          CFI CodeAlign 2
          CFI DataAlign 4
          CFI ReturnAddress R14 CODE
          CFI CFA R13+0
          CFI R0 Undefined
          CFI R1 Undefined
          CFI R2 Undefined
          CFI R3 Undefined
          CFI R4 SameValue
          CFI R5 SameValue
          CFI R6 SameValue
          CFI R7 SameValue
          CFI R8 SameValue
          CFI R9 SameValue
          CFI R10 SameValue
          CFI R11 SameValue
          CFI R12 Undefined
          CFI R14 SameValue
          CFI D0 Undefined
          CFI D1 Undefined
          CFI D2 Undefined
          CFI D3 Undefined
          CFI D4 Undefined
          CFI D5 Undefined
          CFI D6 Undefined
          CFI D7 Undefined
          CFI D8 SameValue
          CFI D9 SameValue
          CFI D10 SameValue
          CFI D11 SameValue
          CFI D12 SameValue
          CFI D13 SameValue
          CFI D14 SameValue
          CFI D15 SameValue
          CFI EndCommon cfiCommon0
        
// F:\stuff\rusefi_sourceforge\firmware\controllers\core\table_helper.cpp
//    1 /**
//    2  * @file	table_helper.cpp
//    3  * @brief	Helper methods related to 3D & 2D tables manipulation (maps and curves)
//    4  *
//    5  * @date Jul 6, 2014
//    6  * @author Andrey Belomutskiy, (c) 2012-2015
//    7  */
//    8 
//    9 #include "table_helper.h"
//   10 #include "efilib.h"
//   11 #include "interpolation.h"
//   12 

        SECTION `.text`:CODE:NOROOT(2)
          CFI Block cfiBlock0 Using cfiCommon0
          CFI Function _Z12setTableBin2Pfifff
        THUMB
//   13 void setTableBin2(float array[], int size, float l, float r, float precision) {
_Z12setTableBin2Pfifff:
        PUSH     {R4-R6,LR}
          CFI R14 Frame(CFA, -4)
          CFI R6 Frame(CFA, -8)
          CFI R5 Frame(CFA, -12)
          CFI R4 Frame(CFA, -16)
          CFI CFA R13+16
        VPUSH    {D8-D9}
          CFI D9 Frame(CFA, -24)
          CFI D8 Frame(CFA, -32)
          CFI CFA R13+32
        MOVS     R4,R0
        MOVS     R5,R1
        VMOV.F32 S16,S0
        VMOV.F32 S17,S1
        VMOV.F32 S18,S2
//   14 	for (int i = 0; i < size; i++) {
        MOVS     R6,#+0
??setTableBin2_0:
        CMP      R6,R5
        BGE.N    ??setTableBin2_1
//   15 		float value = interpolate(0, l, size - 1, r, i);
        VMOV     S0,R6
        VCVT.F32.S32 S4,S0
        VMOV.F32 S3,S17
        SUBS     R0,R5,#+1
        VMOV     S0,R0
        VCVT.F32.S32 S2,S0
        VMOV.F32 S1,S16
        VLDR.W   S0,??DataTable2  ;; 0x0
          CFI FunCall _Z11interpolatefffff
        BL       _Z11interpolatefffff
        VMOV.F32 S19,S0
//   16 		/**
//   17 		 * rounded values look nicer, also we want to avoid precision mismatch with Tuner Studio
//   18 		 */
//   19 		array[i] = efiRound(value, precision);
        VMOV.F32 S1,S18
        VMOV.F32 S0,S19
          CFI FunCall efiRound
        BL       efiRound
        ADDS     R0,R4,R6, LSL #+2
        VSTR     S0,[R0, #0]
//   20 	}
        ADDS     R6,R6,#+1
        B.N      ??setTableBin2_0
//   21 }
??setTableBin2_1:
        VPOP     {D8-D9}
          CFI D8 SameValue
          CFI D9 SameValue
          CFI CFA R13+16
        POP      {R4-R6,PC}       ;; return
          CFI EndBlock cfiBlock0
//   22 

        SECTION `.text`:CODE:NOROOT(2)
          CFI Block cfiBlock1 Using cfiCommon0
          CFI Function _Z11setTableBinPfiff
        THUMB
//   23 void setTableBin(float array[], int size, float from, float to) {
_Z11setTableBinPfiff:
        PUSH     {R3-R5,LR}
          CFI R14 Frame(CFA, -4)
          CFI R5 Frame(CFA, -8)
          CFI R4 Frame(CFA, -12)
          CFI CFA R13+16
        VPUSH    {D8}
          CFI D8 Frame(CFA, -24)
          CFI CFA R13+24
        MOVS     R4,R0
        MOVS     R5,R1
        VMOV.F32 S16,S0
        VMOV.F32 S17,S1
//   24 	setTableBin2(array, size, from, to, 0.01);
        VLDR.W   S2,??DataTable2_1  ;; 0x3c23d70a
        VMOV.F32 S1,S17
        VMOV.F32 S0,S16
        MOVS     R1,R5
        MOVS     R0,R4
          CFI FunCall _Z12setTableBin2Pfifff
        BL       _Z12setTableBin2Pfifff
//   25 }
        VPOP     {D8}
          CFI D8 SameValue
          CFI CFA R13+16
        POP      {R0,R4,R5,PC}    ;; return
          CFI EndBlock cfiBlock1
//   26 

        SECTION `.text`:CODE:NOROOT(2)
          CFI Block cfiBlock2 Using cfiCommon0
          CFI Function _Z14setRpmTableBinPfi
        THUMB
//   27 void setRpmTableBin(float array[], int size) {
_Z14setRpmTableBinPfi:
        PUSH     {R3-R5,LR}
          CFI R14 Frame(CFA, -4)
          CFI R5 Frame(CFA, -8)
          CFI R4 Frame(CFA, -12)
          CFI CFA R13+16
        MOVS     R4,R0
        MOVS     R5,R1
//   28 	setTableBin2(array, size, 800, 7000, 1);
        VMOV.F32 S2,#1.0
        VLDR.W   S1,??DataTable2_2  ;; 0x45dac000
        VLDR.W   S0,??DataTable2_3  ;; 0x44480000
        MOVS     R1,R5
        MOVS     R0,R4
          CFI FunCall _Z12setTableBin2Pfifff
        BL       _Z12setTableBin2Pfifff
//   29 }
        POP      {R0,R4,R5,PC}    ;; return
          CFI EndBlock cfiBlock2

        SECTION `.text`:CODE:NOROOT(2)
        SECTION_TYPE SHT_PROGBITS, 0
        DATA
??DataTable2:
        DC32     0x0

        SECTION `.text`:CODE:NOROOT(2)
        SECTION_TYPE SHT_PROGBITS, 0
        DATA
??DataTable2_1:
        DC32     0x3c23d70a

        SECTION `.text`:CODE:NOROOT(2)
        SECTION_TYPE SHT_PROGBITS, 0
        DATA
??DataTable2_2:
        DC32     0x45dac000

        SECTION `.text`:CODE:NOROOT(2)
        SECTION_TYPE SHT_PROGBITS, 0
        DATA
??DataTable2_3:
        DC32     0x44480000

        SECTION `.iar_vfe_header`:DATA:REORDER:NOALLOC:NOROOT(2)
        SECTION_TYPE SHT_PROGBITS, 0
        DATA
        DC32 0

        SECTION __DLIB_PERTHREAD:DATA:REORDER:NOROOT(0)
        SECTION_TYPE SHT_PROGBITS, 0

        SECTION __DLIB_PERTHREAD_init:DATA:REORDER:NOROOT(0)
        SECTION_TYPE SHT_PROGBITS, 0

        END
// 
// 184 bytes in section .text
// 
// 184 bytes of CODE memory
//
//Errors: none
//Warnings: none
