GAS LISTING /cygdrive/c/DOCUME~1/andrey/LOCALS~1/Temp/cc8BE7z6.s 			page 1


   1              		.file	"chdebug.c"
   2              	 # GNU C (GCC) version 4.8.2 (i686-pc-cygwin)
   3              	 #	compiled by GNU C version 4.8.2, GMP version 5.1.3, MPFR version 3.1.2, MPC version 1.0.1
   4              	 # GGC heuristics: --param ggc-min-expand=100 --param ggc-min-heapsize=131072
   5              	 # options passed:  -I . -I ../firmware/chibios/os/ports/GCC/SIMIA32
   6              	 # -I ../firmware/chibios/os/kernel/include
   7              	 # -I ../firmware/chibios/os/hal/include
   8              	 # -I ../firmware/chibios/os/hal/platforms/Win32
   9              	 # -I ../firmware/chibios/boards/simulator -I ../firmware/util
  10              	 # -I ../firmware/console -I ../firmware/console_util
  11              	 # -I ../firmware/config/engines -I ../firmware/ext_algo
  12              	 # -I ../firmware/controllers/sensors -I ../firmware/controllers/system
  13              	 # -I ../firmware/controllers/algo -I ../firmware/controllers/math
  14              	 # -I ../firmware/controllers/trigger -I ../firmware/chibios/os/various
  15              	 # -MD ../firmware/chibios/os/kernel/src/chdebug.d -MF .dep/chdebug.o.d -MP
  16              	 # -MQ ../firmware/chibios/os/kernel/src/chdebug.o -Dunix
  17              	 # -idirafter /usr/lib/gcc/i686-pc-cygwin/4.8.2/../../../../include/w32api
  18              	 # -idirafter ../../include/w32api -D SIMULATOR -D SHELL_USE_IPRINTF=FALSE
  19              	 # ../firmware/chibios/os/kernel/src/chdebug.c -mtune=generic -march=i686
  20              	 # -auxbase-strip ../firmware/chibios/os/kernel/src/chdebug.o -ggdb -O2
  21              	 # -Wall -Wextra -Wstrict-prototypes -std=gnu99 -fomit-frame-pointer
  22              	 # -fgnu89-inline -fverbose-asm
  23              	 # options enabled:  -faggressive-loop-optimizations
  24              	 # -fasynchronous-unwind-tables -fauto-inc-dec -fbranch-count-reg
  25              	 # -fcaller-saves -fcombine-stack-adjustments -fcommon -fcompare-elim
  26              	 # -fcprop-registers -fcrossjumping -fcse-follow-jumps -fdefer-pop
  27              	 # -fdelete-null-pointer-checks -fdevirtualize -fdwarf2-cfi-asm
  28              	 # -fearly-inlining -feliminate-unused-debug-types
  29              	 # -fexpensive-optimizations -fforward-propagate -ffunction-cse -fgcse
  30              	 # -fgcse-lm -fgnu-runtime -fguess-branch-probability
  31              	 # -fhoist-adjacent-loads -fident -fif-conversion -fif-conversion2
  32              	 # -findirect-inlining -finline -finline-atomics
  33              	 # -finline-functions-called-once -finline-small-functions -fipa-cp
  34              	 # -fipa-profile -fipa-pure-const -fipa-reference -fipa-sra
  35              	 # -fira-hoist-pressure -fira-share-save-slots -fira-share-spill-slots
  36              	 # -fivopts -fkeep-inline-dllexport -fkeep-static-consts
  37              	 # -fleading-underscore -fmath-errno -fmerge-constants
  38              	 # -fmerge-debug-strings -fmove-loop-invariants -fomit-frame-pointer
  39              	 # -foptimize-register-move -foptimize-sibling-calls -foptimize-strlen
  40              	 # -fpartial-inlining -fpeephole -fpeephole2 -fprefetch-loop-arrays -free
  41              	 # -freg-struct-return -fregmove -freorder-blocks -freorder-functions
  42              	 # -frerun-cse-after-loop -fsched-critical-path-heuristic
  43              	 # -fsched-dep-count-heuristic -fsched-group-heuristic -fsched-interblock
  44              	 # -fsched-last-insn-heuristic -fsched-rank-heuristic -fsched-spec
  45              	 # -fsched-spec-insn-heuristic -fsched-stalled-insns-dep -fschedule-insns2
  46              	 # -fset-stack-executable -fshow-column -fshrink-wrap -fsigned-zeros
  47              	 # -fsplit-ivs-in-unroller -fsplit-wide-types -fstrict-aliasing
  48              	 # -fstrict-overflow -fstrict-volatile-bitfields -fsync-libcalls
  49              	 # -fthread-jumps -ftoplevel-reorder -ftrapping-math -ftree-bit-ccp
  50              	 # -ftree-builtin-call-dce -ftree-ccp -ftree-ch -ftree-coalesce-vars
  51              	 # -ftree-copy-prop -ftree-copyrename -ftree-cselim -ftree-dce
  52              	 # -ftree-dominator-opts -ftree-dse -ftree-forwprop -ftree-fre
  53              	 # -ftree-loop-if-convert -ftree-loop-im -ftree-loop-ivcanon
  54              	 # -ftree-loop-optimize -ftree-parallelize-loops= -ftree-phiprop -ftree-pre
  55              	 # -ftree-pta -ftree-reassoc -ftree-scev-cprop -ftree-sink
  56              	 # -ftree-slp-vectorize -ftree-slsr -ftree-sra -ftree-switch-conversion
  57              	 # -ftree-tail-merge -ftree-ter -ftree-vect-loop-version -ftree-vrp
GAS LISTING /cygdrive/c/DOCUME~1/andrey/LOCALS~1/Temp/cc8BE7z6.s 			page 2


  58              	 # -funit-at-a-time -funwind-tables -fvar-tracking
  59              	 # -fvar-tracking-assignments -fverbose-asm -fzero-initialized-in-bss -m32
  60              	 # -m80387 -m96bit-long-double -maccumulate-outgoing-args -malign-double
  61              	 # -malign-stringops -mfancy-math-387 -mfp-ret-in-387 -mieee-fp
  62              	 # -mlong-double-80 -mno-red-zone -mno-sse4 -mpush-args -msahf
  63              	 # -mstack-arg-probe
  64              	
  65              		.text
  66              	Ltext0:
  67              		.p2align 4,,15
  68              		.globl	_chDbgPanic
  69              		.def	_chDbgPanic;	.scl	2;	.type	32;	.endef
  70              	_chDbgPanic:
  71              	LFB18:
  72              		.file 1 "../firmware/chibios/os/kernel/src/chdebug.c"
  73              		.loc 1 280 0
  74              		.cfi_startproc
  75              	LVL0:
  76 0000 57       		pushl	%edi	 #
  77              		.cfi_def_cfa_offset 8
  78              		.cfi_offset 7, -8
  79 0001 56       		pushl	%esi	 #
  80              		.cfi_def_cfa_offset 12
  81              		.cfi_offset 6, -12
  82 0002 53       		pushl	%ebx	 #
  83              		.cfi_def_cfa_offset 16
  84              		.cfi_offset 3, -16
  85              		.loc 1 280 0
  86 0003 8B5C2410 		movl	16(%esp), %ebx	 # msg, msg
  87 0007 8B742414 		movl	20(%esp), %esi	 # file, file
  88 000b 8B7C2418 		movl	24(%esp), %edi	 # line, line
  89              		.loc 1 282 0
  90 000f E8000000 		call	_hasFatalError	 #
  90      00
  91              	LVL1:
  92 0014 85C0     		testl	%eax, %eax	 # D.2176
  93 0016 7408     		je	L5	 #,
  94              		.loc 1 291 0
  95 0018 5B       		popl	%ebx	 #
  96              		.cfi_remember_state
  97              		.cfi_restore 3
  98              		.cfi_def_cfa_offset 12
  99 0019 5E       		popl	%esi	 #
 100              		.cfi_restore 6
 101              		.cfi_def_cfa_offset 8
 102 001a 5F       		popl	%edi	 #
 103              		.cfi_restore 7
 104              		.cfi_def_cfa_offset 4
 105 001b C3       		ret
 106 001c 8D742600 		.p2align 4,,7
 107              	L5:
 108              		.cfi_restore_state
 109              	LVL2:
 110              	LBB4:
 111              	LBB5:
 112              		.loc 1 287 0
 113 0020 897C2418 		movl	%edi, 24(%esp)	 # line,
GAS LISTING /cygdrive/c/DOCUME~1/andrey/LOCALS~1/Temp/cc8BE7z6.s 			page 3


 114 0024 89742414 		movl	%esi, 20(%esp)	 # file,
 115 0028 895C2410 		movl	%ebx, 16(%esp)	 # msg,
 116              		.loc 1 284 0
 117 002c 89350000 		movl	%esi, _dbg_panic_file	 # file, dbg_panic_file
 117      0000
 118              		.loc 1 285 0
 119 0032 893D0000 		movl	%edi, _dbg_panic_line	 # line, dbg_panic_line
 119      0000
 120              		.loc 1 286 0
 121 0038 891D0000 		movl	%ebx, _dbg_panic_msg	 # msg, dbg_panic_msg
 121      0000
 122              	LBE5:
 123              	LBE4:
 124              		.loc 1 291 0
 125 003e 5B       		popl	%ebx	 #
 126              		.cfi_restore 3
 127              		.cfi_def_cfa_offset 12
 128              	LVL3:
 129 003f 5E       		popl	%esi	 #
 130              		.cfi_restore 6
 131              		.cfi_def_cfa_offset 8
 132              	LVL4:
 133 0040 5F       		popl	%edi	 #
 134              		.cfi_restore 7
 135              		.cfi_def_cfa_offset 4
 136              	LVL5:
 137              	LBB7:
 138              	LBB6:
 139              		.loc 1 287 0
 140 0041 E9000000 		jmp	_onFatalError	 #
 140      00
 141              	LVL6:
 142              	LBE6:
 143              	LBE7:
 144              		.cfi_endproc
 145              	LFE18:
 146              		.section .rdata,"dr"
 147              		.align 4
 148              	LC0:
 149 0000 2E2E2F66 		.ascii "../firmware/chibios/os/kernel/src/chdebug.c\0"
 149      69726D77 
 149      6172652F 
 149      63686962 
 149      696F732F 
 150              	LC1:
 151 002c 53562331 		.ascii "SV#1\0"
 151      00
 152              		.text
 153 0046 8D76008D 		.p2align 4,,15
 153      BC270000 
 153      0000
 154              		.globl	_dbg_check_disable
 155              		.def	_dbg_check_disable;	.scl	2;	.type	32;	.endef
 156              	_dbg_check_disable:
 157              	LFB7:
 158              		.loc 1 81 0
 159              		.cfi_startproc
GAS LISTING /cygdrive/c/DOCUME~1/andrey/LOCALS~1/Temp/cc8BE7z6.s 			page 4


 160 0050 83EC1C   		subl	$28, %esp	 #,
 161              		.cfi_def_cfa_offset 32
 162              		.loc 1 83 0
 163 0053 8B150000 		movl	_dbg_isr_cnt, %edx	 # dbg_isr_cnt,
 163      0000
 164 0059 85D2     		testl	%edx, %edx	 #
 165 005b 7509     		jne	L7	 #,
 166              		.loc 1 83 0 is_stmt 0 discriminator 1
 167 005d A1000000 		movl	_dbg_lock_cnt, %eax	 # dbg_lock_cnt,
 167      00
 168 0062 85C0     		testl	%eax, %eax	 #
 169 0064 741C     		je	L6	 #,
 170              	L7:
 171              		.loc 1 84 0 is_stmt 1
 172 0066 C7442408 		movl	$84, 8(%esp)	 #,
 172      54000000 
 173 006e C7442404 		movl	$LC0, 4(%esp)	 #,
 173      00000000 
 174 0076 C704242C 		movl	$LC1, (%esp)	 #,
 174      000000
 175 007d E87EFFFF 		call	_chDbgPanic	 #
 175      FF
 176              	LVL7:
 177              	L6:
 178              		.loc 1 85 0
 179 0082 83C41C   		addl	$28, %esp	 #,
 180              		.cfi_def_cfa_offset 4
 181 0085 C3       		ret
 182              		.cfi_endproc
 183              	LFE7:
 184              		.section .rdata,"dr"
 185              	LC2:
 186 0031 53562332 		.ascii "SV#2\0"
 186      00
 187              		.text
 188 0086 8D76008D 		.p2align 4,,15
 188      BC270000 
 188      0000
 189              		.globl	_dbg_check_suspend
 190              		.def	_dbg_check_suspend;	.scl	2;	.type	32;	.endef
 191              	_dbg_check_suspend:
 192              	LFB8:
 193              		.loc 1 92 0
 194              		.cfi_startproc
 195 0090 83EC1C   		subl	$28, %esp	 #,
 196              		.cfi_def_cfa_offset 32
 197              		.loc 1 94 0
 198 0093 A1000000 		movl	_dbg_isr_cnt, %eax	 # dbg_isr_cnt,
 198      00
 199 0098 85C0     		testl	%eax, %eax	 #
 200 009a 750A     		jne	L11	 #,
 201              		.loc 1 94 0 is_stmt 0 discriminator 1
 202 009c 8B0D0000 		movl	_dbg_lock_cnt, %ecx	 # dbg_lock_cnt,
 202      0000
 203 00a2 85C9     		testl	%ecx, %ecx	 #
 204 00a4 741C     		je	L10	 #,
 205              	L11:
GAS LISTING /cygdrive/c/DOCUME~1/andrey/LOCALS~1/Temp/cc8BE7z6.s 			page 5


 206              		.loc 1 95 0 is_stmt 1
 207 00a6 C7442408 		movl	$95, 8(%esp)	 #,
 207      5F000000 
 208 00ae C7442404 		movl	$LC0, 4(%esp)	 #,
 208      00000000 
 209 00b6 C7042431 		movl	$LC2, (%esp)	 #,
 209      000000
 210 00bd E83EFFFF 		call	_chDbgPanic	 #
 210      FF
 211              	LVL8:
 212              	L10:
 213              		.loc 1 96 0
 214 00c2 83C41C   		addl	$28, %esp	 #,
 215              		.cfi_def_cfa_offset 4
 216 00c5 C3       		ret
 217              		.cfi_endproc
 218              	LFE8:
 219              		.section .rdata,"dr"
 220              	LC3:
 221 0036 53562333 		.ascii "SV#3\0"
 221      00
 222              		.text
 223 00c6 8D76008D 		.p2align 4,,15
 223      BC270000 
 223      0000
 224              		.globl	_dbg_check_enable
 225              		.def	_dbg_check_enable;	.scl	2;	.type	32;	.endef
 226              	_dbg_check_enable:
 227              	LFB9:
 228              		.loc 1 103 0
 229              		.cfi_startproc
 230 00d0 83EC1C   		subl	$28, %esp	 #,
 231              		.cfi_def_cfa_offset 32
 232              		.loc 1 105 0
 233 00d3 A1000000 		movl	_dbg_isr_cnt, %eax	 # dbg_isr_cnt,
 233      00
 234 00d8 85C0     		testl	%eax, %eax	 #
 235 00da 7509     		jne	L15	 #,
 236              		.loc 1 105 0 is_stmt 0 discriminator 1
 237 00dc A1000000 		movl	_dbg_lock_cnt, %eax	 # dbg_lock_cnt,
 237      00
 238 00e1 85C0     		testl	%eax, %eax	 #
 239 00e3 741C     		je	L14	 #,
 240              	L15:
 241              		.loc 1 106 0 is_stmt 1
 242 00e5 C7442408 		movl	$106, 8(%esp)	 #,
 242      6A000000 
 243 00ed C7442404 		movl	$LC0, 4(%esp)	 #,
 243      00000000 
 244 00f5 C7042436 		movl	$LC3, (%esp)	 #,
 244      000000
 245 00fc E8FFFEFF 		call	_chDbgPanic	 #
 245      FF
 246              	LVL9:
 247              	L14:
 248              		.loc 1 107 0
 249 0101 83C41C   		addl	$28, %esp	 #,
GAS LISTING /cygdrive/c/DOCUME~1/andrey/LOCALS~1/Temp/cc8BE7z6.s 			page 6


 250              		.cfi_def_cfa_offset 4
 251 0104 C3       		ret
 252              		.cfi_endproc
 253              	LFE9:
 254              		.section .rdata,"dr"
 255              	LC4:
 256 003b 53562334 		.ascii "SV#4 misplaced chSysLock()\0"
 256      206D6973 
 256      706C6163 
 256      65642063 
 256      68537973 
 257              		.text
 258 0105 8D742600 		.p2align 4,,15
 258      8DBC2700 
 258      000000
 259              		.globl	_dbg_check_lock
 260              		.def	_dbg_check_lock;	.scl	2;	.type	32;	.endef
 261              	_dbg_check_lock:
 262              	LFB10:
 263              		.loc 1 114 0
 264              		.cfi_startproc
 265 0110 83EC1C   		subl	$28, %esp	 #,
 266              		.cfi_def_cfa_offset 32
 267              		.loc 1 116 0
 268 0113 A1000000 		movl	_dbg_isr_cnt, %eax	 # dbg_isr_cnt,
 268      00
 269 0118 85C0     		testl	%eax, %eax	 #
 270 011a 7509     		jne	L19	 #,
 271              		.loc 1 116 0 is_stmt 0 discriminator 1
 272 011c A1000000 		movl	_dbg_lock_cnt, %eax	 # dbg_lock_cnt,
 272      00
 273 0121 85C0     		testl	%eax, %eax	 #
 274 0123 741C     		je	L20	 #,
 275              	L19:
 276              		.loc 1 117 0 is_stmt 1
 277 0125 C7442408 		movl	$117, 8(%esp)	 #,
 277      75000000 
 278 012d C7442404 		movl	$LC0, 4(%esp)	 #,
 278      00000000 
 279 0135 C704243B 		movl	$LC4, (%esp)	 #,
 279      000000
 280 013c E8BFFEFF 		call	_chDbgPanic	 #
 280      FF
 281              	LVL10:
 282              	L20:
 283              		.loc 1 118 0
 284 0141 C7050000 		movl	$1, _dbg_lock_cnt	 #, dbg_lock_cnt
 284      00000100 
 284      0000
 285              		.loc 1 119 0
 286 014b 83C41C   		addl	$28, %esp	 #,
 287              		.cfi_def_cfa_offset 4
 288 014e C3       		ret
 289              		.cfi_endproc
 290              	LFE10:
 291              		.section .rdata,"dr"
 292              	LC5:
GAS LISTING /cygdrive/c/DOCUME~1/andrey/LOCALS~1/Temp/cc8BE7z6.s 			page 7


 293 0056 53562335 		.ascii "SV#5\0"
 293      00
 294              		.text
 295 014f 90       		.p2align 4,,15
 296              		.globl	_dbg_check_unlock
 297              		.def	_dbg_check_unlock;	.scl	2;	.type	32;	.endef
 298              	_dbg_check_unlock:
 299              	LFB11:
 300              		.loc 1 126 0
 301              		.cfi_startproc
 302 0150 83EC1C   		subl	$28, %esp	 #,
 303              		.cfi_def_cfa_offset 32
 304              		.loc 1 128 0
 305 0153 8B150000 		movl	_dbg_isr_cnt, %edx	 # dbg_isr_cnt,
 305      0000
 306 0159 85D2     		testl	%edx, %edx	 #
 307 015b 7517     		jne	L23	 #,
 308              		.loc 1 128 0 is_stmt 0 discriminator 1
 309 015d A1000000 		movl	_dbg_lock_cnt, %eax	 # dbg_lock_cnt,
 309      00
 310 0162 85C0     		testl	%eax, %eax	 #
 311 0164 7E0E     		jle	L23	 #,
 312              		.loc 1 130 0 is_stmt 1
 313 0166 C7050000 		movl	$0, _dbg_lock_cnt	 #, dbg_lock_cnt
 313      00000000 
 313      0000
 314              		.loc 1 131 0
 315 0170 83C41C   		addl	$28, %esp	 #,
 316              		.cfi_remember_state
 317              		.cfi_def_cfa_offset 4
 318 0173 C3       		ret
 319              		.p2align 4,,7
 320              	L23:
 321              		.cfi_restore_state
 322              		.loc 1 129 0
 323 0174 C7442408 		movl	$129, 8(%esp)	 #,
 323      81000000 
 324 017c C7442404 		movl	$LC0, 4(%esp)	 #,
 324      00000000 
 325 0184 C7042456 		movl	$LC5, (%esp)	 #,
 325      000000
 326 018b E870FEFF 		call	_chDbgPanic	 #
 326      FF
 327              	LVL11:
 328              		.loc 1 130 0
 329 0190 C7050000 		movl	$0, _dbg_lock_cnt	 #, dbg_lock_cnt
 329      00000000 
 329      0000
 330              		.loc 1 131 0
 331 019a 83C41C   		addl	$28, %esp	 #,
 332              		.cfi_def_cfa_offset 4
 333 019d C3       		ret
 334              		.cfi_endproc
 335              	LFE11:
 336              		.section .rdata,"dr"
 337 005b 00       		.align 4
 338              	LC6:
GAS LISTING /cygdrive/c/DOCUME~1/andrey/LOCALS~1/Temp/cc8BE7z6.s 			page 8


 339 005c 53562336 		.ascii "SV#6 misplaced chSysLockFromIsr\0"
 339      206D6973 
 339      706C6163 
 339      65642063 
 339      68537973 
 340              		.text
 341 019e 6690     		.p2align 4,,15
 342              		.globl	_dbg_check_lock_from_isr
 343              		.def	_dbg_check_lock_from_isr;	.scl	2;	.type	32;	.endef
 344              	_dbg_check_lock_from_isr:
 345              	LFB12:
 346              		.loc 1 138 0
 347              		.cfi_startproc
 348 01a0 83EC1C   		subl	$28, %esp	 #,
 349              		.cfi_def_cfa_offset 32
 350              		.loc 1 140 0
 351 01a3 A1000000 		movl	_dbg_isr_cnt, %eax	 # dbg_isr_cnt,
 351      00
 352 01a8 85C0     		testl	%eax, %eax	 #
 353 01aa 7E0A     		jle	L27	 #,
 354              		.loc 1 140 0 is_stmt 0 discriminator 1
 355 01ac 8B0D0000 		movl	_dbg_lock_cnt, %ecx	 # dbg_lock_cnt,
 355      0000
 356 01b2 85C9     		testl	%ecx, %ecx	 #
 357 01b4 741C     		je	L28	 #,
 358              	L27:
 359              		.loc 1 141 0 is_stmt 1
 360 01b6 C7442408 		movl	$141, 8(%esp)	 #,
 360      8D000000 
 361 01be C7442404 		movl	$LC0, 4(%esp)	 #,
 361      00000000 
 362 01c6 C704245C 		movl	$LC6, (%esp)	 #,
 362      000000
 363 01cd E82EFEFF 		call	_chDbgPanic	 #
 363      FF
 364              	LVL12:
 365              	L28:
 366              		.loc 1 142 0
 367 01d2 C7050000 		movl	$1, _dbg_lock_cnt	 #, dbg_lock_cnt
 367      00000100 
 367      0000
 368              		.loc 1 143 0
 369 01dc 83C41C   		addl	$28, %esp	 #,
 370              		.cfi_def_cfa_offset 4
 371 01df C3       		ret
 372              		.cfi_endproc
 373              	LFE12:
 374              		.section .rdata,"dr"
 375              	LC7:
 376 007c 53562337 		.ascii "SV#7\0"
 376      00
 377              		.text
 378              		.p2align 4,,15
 379              		.globl	_dbg_check_unlock_from_isr
 380              		.def	_dbg_check_unlock_from_isr;	.scl	2;	.type	32;	.endef
 381              	_dbg_check_unlock_from_isr:
 382              	LFB13:
GAS LISTING /cygdrive/c/DOCUME~1/andrey/LOCALS~1/Temp/cc8BE7z6.s 			page 9


 383              		.loc 1 150 0
 384              		.cfi_startproc
 385 01e0 83EC1C   		subl	$28, %esp	 #,
 386              		.cfi_def_cfa_offset 32
 387              		.loc 1 152 0
 388 01e3 A1000000 		movl	_dbg_isr_cnt, %eax	 # dbg_isr_cnt,
 388      00
 389 01e8 85C0     		testl	%eax, %eax	 #
 390 01ea 7E17     		jle	L31	 #,
 391              		.loc 1 152 0 is_stmt 0 discriminator 1
 392 01ec A1000000 		movl	_dbg_lock_cnt, %eax	 # dbg_lock_cnt,
 392      00
 393 01f1 85C0     		testl	%eax, %eax	 #
 394 01f3 7E0E     		jle	L31	 #,
 395              		.loc 1 154 0 is_stmt 1
 396 01f5 C7050000 		movl	$0, _dbg_lock_cnt	 #, dbg_lock_cnt
 396      00000000 
 396      0000
 397              		.loc 1 155 0
 398 01ff 83C41C   		addl	$28, %esp	 #,
 399              		.cfi_remember_state
 400              		.cfi_def_cfa_offset 4
 401 0202 C3       		ret
 402              		.p2align 4,,7
 403              	L31:
 404              		.cfi_restore_state
 405              		.loc 1 153 0
 406 0203 C7442408 		movl	$153, 8(%esp)	 #,
 406      99000000 
 407 020b C7442404 		movl	$LC0, 4(%esp)	 #,
 407      00000000 
 408 0213 C704247C 		movl	$LC7, (%esp)	 #,
 408      000000
 409 021a E8E1FDFF 		call	_chDbgPanic	 #
 409      FF
 410              	LVL13:
 411              		.loc 1 154 0
 412 021f C7050000 		movl	$0, _dbg_lock_cnt	 #, dbg_lock_cnt
 412      00000000 
 412      0000
 413              		.loc 1 155 0
 414 0229 83C41C   		addl	$28, %esp	 #,
 415              		.cfi_def_cfa_offset 4
 416 022c C3       		ret
 417              		.cfi_endproc
 418              	LFE13:
 419              		.section .rdata,"dr"
 420              	LC8:
 421 0081 53562338 		.ascii "SV#8\0"
 421      00
 422              		.text
 423 022d 8D7600   		.p2align 4,,15
 424              		.globl	_dbg_check_enter_isr
 425              		.def	_dbg_check_enter_isr;	.scl	2;	.type	32;	.endef
 426              	_dbg_check_enter_isr:
 427              	LFB14:
 428              		.loc 1 162 0
GAS LISTING /cygdrive/c/DOCUME~1/andrey/LOCALS~1/Temp/cc8BE7z6.s 			page 10


 429              		.cfi_startproc
 430 0230 83EC1C   		subl	$28, %esp	 #,
 431              		.cfi_def_cfa_offset 32
 432              		.loc 1 165 0
 433 0233 A1000000 		movl	_dbg_isr_cnt, %eax	 # dbg_isr_cnt, dbg_isr_cnt.14
 433      00
 434 0238 85C0     		testl	%eax, %eax	 # dbg_isr_cnt.14
 435 023a 780A     		js	L35	 #,
 436              		.loc 1 165 0 is_stmt 0 discriminator 1
 437 023c 8B150000 		movl	_dbg_lock_cnt, %edx	 # dbg_lock_cnt,
 437      0000
 438 0242 85D2     		testl	%edx, %edx	 #
 439 0244 7421     		je	L36	 #,
 440              	L35:
 441              		.loc 1 166 0 is_stmt 1
 442 0246 C7442408 		movl	$166, 8(%esp)	 #,
 442      A6000000 
 443 024e C7442404 		movl	$LC0, 4(%esp)	 #,
 443      00000000 
 444 0256 C7042481 		movl	$LC8, (%esp)	 #,
 444      000000
 445 025d E89EFDFF 		call	_chDbgPanic	 #
 445      FF
 446              	LVL14:
 447 0262 A1000000 		movl	_dbg_isr_cnt, %eax	 # dbg_isr_cnt, D.2201
 447      00
 448              	L36:
 449              		.loc 1 167 0
 450 0267 83C001   		addl	$1, %eax	 #, tmp63
 451 026a A3000000 		movl	%eax, _dbg_isr_cnt	 # tmp63, dbg_isr_cnt
 451      00
 452              		.loc 1 169 0
 453 026f 83C41C   		addl	$28, %esp	 #,
 454              		.cfi_def_cfa_offset 4
 455 0272 C3       		ret
 456              		.cfi_endproc
 457              	LFE14:
 458              		.section .rdata,"dr"
 459              	LC9:
 460 0086 53562339 		.ascii "SV#9\0"
 460      00
 461              		.text
 462 0273 8DB60000 		.p2align 4,,15
 462      00008DBC 
 462      27000000 
 462      00
 463              		.globl	_dbg_check_leave_isr
 464              		.def	_dbg_check_leave_isr;	.scl	2;	.type	32;	.endef
 465              	_dbg_check_leave_isr:
 466              	LFB15:
 467              		.loc 1 176 0
 468              		.cfi_startproc
 469 0280 83EC1C   		subl	$28, %esp	 #,
 470              		.cfi_def_cfa_offset 32
 471              		.loc 1 179 0
 472 0283 A1000000 		movl	_dbg_isr_cnt, %eax	 # dbg_isr_cnt, dbg_isr_cnt.17
 472      00
GAS LISTING /cygdrive/c/DOCUME~1/andrey/LOCALS~1/Temp/cc8BE7z6.s 			page 11


 473 0288 85C0     		testl	%eax, %eax	 # dbg_isr_cnt.17
 474 028a 7E0A     		jle	L40	 #,
 475              		.loc 1 179 0 is_stmt 0 discriminator 1
 476 028c 8B0D0000 		movl	_dbg_lock_cnt, %ecx	 # dbg_lock_cnt,
 476      0000
 477 0292 85C9     		testl	%ecx, %ecx	 #
 478 0294 7421     		je	L41	 #,
 479              	L40:
 480              		.loc 1 180 0 is_stmt 1
 481 0296 C7442408 		movl	$180, 8(%esp)	 #,
 481      B4000000 
 482 029e C7442404 		movl	$LC0, 4(%esp)	 #,
 482      00000000 
 483 02a6 C7042486 		movl	$LC9, (%esp)	 #,
 483      000000
 484 02ad E84EFDFF 		call	_chDbgPanic	 #
 484      FF
 485              	LVL15:
 486 02b2 A1000000 		movl	_dbg_isr_cnt, %eax	 # dbg_isr_cnt, D.2205
 486      00
 487              	L41:
 488              		.loc 1 181 0
 489 02b7 83E801   		subl	$1, %eax	 #, tmp63
 490 02ba A3000000 		movl	%eax, _dbg_isr_cnt	 # tmp63, dbg_isr_cnt
 490      00
 491              		.loc 1 183 0
 492 02bf 83C41C   		addl	$28, %esp	 #,
 493              		.cfi_def_cfa_offset 4
 494 02c2 C3       		ret
 495              		.cfi_endproc
 496              	LFE15:
 497              		.section .rdata,"dr"
 498 008b 00       		.align 4
 499              	LC10:
 500 008c 53562331 		.ascii "SV#10 misplaced I-class function\0"
 500      30206D69 
 500      73706C61 
 500      63656420 
 500      492D636C 
 501              		.text
 502 02c3 8DB60000 		.p2align 4,,15
 502      00008DBC 
 502      27000000 
 502      00
 503              		.globl	_chDbgCheckClassI
 504              		.def	_chDbgCheckClassI;	.scl	2;	.type	32;	.endef
 505              	_chDbgCheckClassI:
 506              	LFB16:
 507              		.loc 1 193 0
 508              		.cfi_startproc
 509 02d0 83EC1C   		subl	$28, %esp	 #,
 510              		.cfi_def_cfa_offset 32
 511              		.loc 1 195 0
 512 02d3 A1000000 		movl	_dbg_isr_cnt, %eax	 # dbg_isr_cnt,
 512      00
 513 02d8 85C0     		testl	%eax, %eax	 #
 514 02da 7814     		js	L45	 #,
GAS LISTING /cygdrive/c/DOCUME~1/andrey/LOCALS~1/Temp/cc8BE7z6.s 			page 12


 515              		.loc 1 195 0 is_stmt 0 discriminator 1
 516 02dc A1000000 		movl	_dbg_lock_cnt, %eax	 # dbg_lock_cnt,
 516      00
 517 02e1 85C0     		testl	%eax, %eax	 #
 518 02e3 7E0B     		jle	L45	 #,
 519              		.loc 1 197 0 is_stmt 1
 520 02e5 83C41C   		addl	$28, %esp	 #,
 521              		.cfi_remember_state
 522              		.cfi_def_cfa_offset 4
 523 02e8 C3       		ret
 524 02e9 8DB42600 		.p2align 4,,7
 524      000000
 525              	L45:
 526              		.cfi_restore_state
 527              		.loc 1 196 0
 528 02f0 C7442408 		movl	$196, 8(%esp)	 #,
 528      C4000000 
 529 02f8 C7442404 		movl	$LC0, 4(%esp)	 #,
 529      00000000 
 530 0300 C704248C 		movl	$LC10, (%esp)	 #,
 530      000000
 531 0307 E8F4FCFF 		call	_chDbgPanic	 #
 531      FF
 532              	LVL16:
 533              		.loc 1 197 0
 534 030c 83C41C   		addl	$28, %esp	 #,
 535              		.cfi_def_cfa_offset 4
 536 030f C3       		ret
 537              		.cfi_endproc
 538              	LFE16:
 539              		.section .rdata,"dr"
 540              	LC11:
 541 00ad 53562331 		.ascii "SV#11\0"
 541      3100
 542 00b3 00       		.text
 543              		.p2align 4,,15
 544              		.globl	_chDbgCheckClassS
 545              		.def	_chDbgCheckClassS;	.scl	2;	.type	32;	.endef
 546              	_chDbgCheckClassS:
 547              	LFB17:
 548              		.loc 1 207 0
 549              		.cfi_startproc
 550 0310 83EC1C   		subl	$28, %esp	 #,
 551              		.cfi_def_cfa_offset 32
 552              		.loc 1 209 0
 553 0313 A1000000 		movl	_dbg_isr_cnt, %eax	 # dbg_isr_cnt,
 553      00
 554 0318 85C0     		testl	%eax, %eax	 #
 555 031a 7514     		jne	L49	 #,
 556              		.loc 1 209 0 is_stmt 0 discriminator 1
 557 031c A1000000 		movl	_dbg_lock_cnt, %eax	 # dbg_lock_cnt,
 557      00
 558 0321 85C0     		testl	%eax, %eax	 #
 559 0323 7E0B     		jle	L49	 #,
 560              		.loc 1 211 0 is_stmt 1
 561 0325 83C41C   		addl	$28, %esp	 #,
 562              		.cfi_remember_state
GAS LISTING /cygdrive/c/DOCUME~1/andrey/LOCALS~1/Temp/cc8BE7z6.s 			page 13


 563              		.cfi_def_cfa_offset 4
 564 0328 C3       		ret
 565 0329 8DB42600 		.p2align 4,,7
 565      000000
 566              	L49:
 567              		.cfi_restore_state
 568              		.loc 1 210 0
 569 0330 C7442408 		movl	$210, 8(%esp)	 #,
 569      D2000000 
 570 0338 C7442404 		movl	$LC0, 4(%esp)	 #,
 570      00000000 
 571 0340 C70424AD 		movl	$LC11, (%esp)	 #,
 571      000000
 572 0347 E8B4FCFF 		call	_chDbgPanic	 #
 572      FF
 573              	LVL17:
 574              		.loc 1 211 0
 575 034c 83C41C   		addl	$28, %esp	 #,
 576              		.cfi_def_cfa_offset 4
 577 034f C3       		ret
 578              		.cfi_endproc
 579              	LFE17:
 580              		.comm	_dbg_panic_line, 4, 2
 581              		.comm	_dbg_panic_file, 4, 2
 582              		.comm	_dbg_panic_msg, 4, 2
 583              		.comm	_dbg_lock_cnt, 4, 2
 584              		.comm	_dbg_isr_cnt, 4, 2
 585              	Letext0:
 586              		.file 2 "/usr/include/stdint.h"
 587              		.file 3 "../firmware/chibios/os/ports/GCC/SIMIA32/chtypes.h"
 588              		.section	.debug_info,"dr"
 589              	Ldebug_info0:
 590 0000 5C060000 		.long	0x65c
 591 0004 0400     		.word	0x4
 592 0006 00000000 		.secrel32	Ldebug_abbrev0
 593 000a 04       		.byte	0x4
 594 000b 01       		.uleb128 0x1
 595 000c 474E5520 		.ascii "GNU C 4.8.2 -mtune=generic -march=i686 -ggdb -O2 -std=gnu99 -fomit-frame-pointer -fgnu89-i
 595      4320342E 
 595      382E3220 
 595      2D6D7475 
 595      6E653D67 
 596 006c 01       		.byte	0x1
 597 006d 2E2E2F66 		.ascii "../firmware/chibios/os/kernel/src/chdebug.c\0"
 597      69726D77 
 597      6172652F 
 597      63686962 
 597      696F732F 
 598 0099 2F637967 		.ascii "/cygdrive/c/Program Files/Jenkins/workspace/runEfi win32 functional/win32_functional_tests
 598      64726976 
 598      652F632F 
 598      50726F67 
 598      72616D20 
 599 00f4 00000000 		.long	Ltext0
 600 00f8 50030000 		.long	Letext0-Ltext0
 601 00fc 00000000 		.secrel32	Ldebug_line0
 602 0100 02       		.uleb128 0x2
GAS LISTING /cygdrive/c/DOCUME~1/andrey/LOCALS~1/Temp/cc8BE7z6.s 			page 14


 603 0101 04       		.byte	0x4
 604 0102 05       		.byte	0x5
 605 0103 696E7400 		.ascii "int\0"
 606 0107 02       		.uleb128 0x2
 607 0108 04       		.byte	0x4
 608 0109 07       		.byte	0x7
 609 010a 756E7369 		.ascii "unsigned int\0"
 609      676E6564 
 609      20696E74 
 609      00
 610 0117 02       		.uleb128 0x2
 611 0118 02       		.byte	0x2
 612 0119 07       		.byte	0x7
 613 011a 73686F72 		.ascii "short unsigned int\0"
 613      7420756E 
 613      7369676E 
 613      65642069 
 613      6E7400
 614 012d 02       		.uleb128 0x2
 615 012e 01       		.byte	0x1
 616 012f 06       		.byte	0x6
 617 0130 7369676E 		.ascii "signed char\0"
 617      65642063 
 617      68617200 
 618 013c 02       		.uleb128 0x2
 619 013d 02       		.byte	0x2
 620 013e 05       		.byte	0x5
 621 013f 73686F72 		.ascii "short int\0"
 621      7420696E 
 621      7400
 622 0149 03       		.uleb128 0x3
 623 014a 696E7433 		.ascii "int32_t\0"
 623      325F7400 
 624 0152 02       		.byte	0x2
 625 0153 16       		.byte	0x16
 626 0154 00010000 		.long	0x100
 627 0158 02       		.uleb128 0x2
 628 0159 08       		.byte	0x8
 629 015a 05       		.byte	0x5
 630 015b 6C6F6E67 		.ascii "long long int\0"
 630      206C6F6E 
 630      6720696E 
 630      7400
 631 0169 02       		.uleb128 0x2
 632 016a 01       		.byte	0x1
 633 016b 08       		.byte	0x8
 634 016c 756E7369 		.ascii "unsigned char\0"
 634      676E6564 
 634      20636861 
 634      7200
 635 017a 02       		.uleb128 0x2
 636 017b 08       		.byte	0x8
 637 017c 07       		.byte	0x7
 638 017d 6C6F6E67 		.ascii "long long unsigned int\0"
 638      206C6F6E 
 638      6720756E 
 638      7369676E 
GAS LISTING /cygdrive/c/DOCUME~1/andrey/LOCALS~1/Temp/cc8BE7z6.s 			page 15


 638      65642069 
 639 0194 02       		.uleb128 0x2
 640 0195 01       		.byte	0x1
 641 0196 02       		.byte	0x2
 642 0197 5F426F6F 		.ascii "_Bool\0"
 642      6C00
 643 019d 03       		.uleb128 0x3
 644 019e 636E745F 		.ascii "cnt_t\0"
 644      7400
 645 01a4 03       		.byte	0x3
 646 01a5 2E       		.byte	0x2e
 647 01a6 49010000 		.long	0x149
 648 01aa 02       		.uleb128 0x2
 649 01ab 04       		.byte	0x4
 650 01ac 07       		.byte	0x7
 651 01ad 73697A65 		.ascii "sizetype\0"
 651      74797065 
 651      00
 652 01b6 04       		.uleb128 0x4
 653 01b7 04       		.byte	0x4
 654 01b8 BC010000 		.long	0x1bc
 655 01bc 05       		.uleb128 0x5
 656 01bd C1010000 		.long	0x1c1
 657 01c1 02       		.uleb128 0x2
 658 01c2 01       		.byte	0x1
 659 01c3 06       		.byte	0x6
 660 01c4 63686172 		.ascii "char\0"
 660      00
 661 01c9 06       		.uleb128 0x6
 662 01ca 63684462 		.ascii "chDbgPanic\0"
 662      6750616E 
 662      696300
 663 01d5 01       		.byte	0x1
 664 01d6 1801     		.word	0x118
 665 01d8 01       		.byte	0x1
 666 01d9 04020000 		.long	0x204
 667 01dd 07       		.uleb128 0x7
 668 01de 6D736700 		.ascii "msg\0"
 669 01e2 01       		.byte	0x1
 670 01e3 1801     		.word	0x118
 671 01e5 B6010000 		.long	0x1b6
 672 01e9 07       		.uleb128 0x7
 673 01ea 66696C65 		.ascii "file\0"
 673      00
 674 01ef 01       		.byte	0x1
 675 01f0 1801     		.word	0x118
 676 01f2 04020000 		.long	0x204
 677 01f6 07       		.uleb128 0x7
 678 01f7 6C696E65 		.ascii "line\0"
 678      00
 679 01fc 01       		.byte	0x1
 680 01fd 1801     		.word	0x118
 681 01ff 00010000 		.long	0x100
 682 0203 00       		.byte	0
 683 0204 04       		.uleb128 0x4
 684 0205 04       		.byte	0x4
 685 0206 C1010000 		.long	0x1c1
GAS LISTING /cygdrive/c/DOCUME~1/andrey/LOCALS~1/Temp/cc8BE7z6.s 			page 16


 686 020a 08       		.uleb128 0x8
 687 020b C9010000 		.long	0x1c9
 688 020f 00000000 		.long	LFB18
 689 0213 46000000 		.long	LFE18-LFB18
 690 0217 01       		.uleb128 0x1
 691 0218 9C       		.byte	0x9c
 692 0219 6D020000 		.long	0x26d
 693 021d 09       		.uleb128 0x9
 694 021e DD010000 		.long	0x1dd
 695 0222 02       		.uleb128 0x2
 696 0223 91       		.byte	0x91
 697 0224 00       		.sleb128 0
 698 0225 09       		.uleb128 0x9
 699 0226 E9010000 		.long	0x1e9
 700 022a 02       		.uleb128 0x2
 701 022b 91       		.byte	0x91
 702 022c 04       		.sleb128 4
 703 022d 09       		.uleb128 0x9
 704 022e F6010000 		.long	0x1f6
 705 0232 02       		.uleb128 0x2
 706 0233 91       		.byte	0x91
 707 0234 08       		.sleb128 8
 708 0235 0A       		.uleb128 0xa
 709 0236 00000000 		.secrel32	Ldebug_ranges0+0
 710 023a 63020000 		.long	0x263
 711 023e 0B       		.uleb128 0xb
 712 023f F6010000 		.long	0x1f6
 713 0243 00000000 		.secrel32	LLST0
 714 0247 0B       		.uleb128 0xb
 715 0248 E9010000 		.long	0x1e9
 716 024c 1F000000 		.secrel32	LLST1
 717 0250 0B       		.uleb128 0xb
 718 0251 DD010000 		.long	0x1dd
 719 0255 3E000000 		.secrel32	LLST2
 720 0259 0C       		.uleb128 0xc
 721 025a 46000000 		.long	LVL6
 722 025e 24060000 		.long	0x624
 723 0262 00       		.byte	0
 724 0263 0D       		.uleb128 0xd
 725 0264 14000000 		.long	LVL1
 726 0268 49060000 		.long	0x649
 727 026c 00       		.byte	0
 728 026d 0E       		.uleb128 0xe
 729 026e 6462675F 		.ascii "dbg_check_disable\0"
 729      63686563 
 729      6B5F6469 
 729      7361626C 
 729      6500
 730 0280 01       		.byte	0x1
 731 0281 51       		.byte	0x51
 732 0282 50000000 		.long	LFB7
 733 0286 36000000 		.long	LFE7-LFB7
 734 028a 01       		.uleb128 0x1
 735 028b 9C       		.byte	0x9c
 736 028c B6020000 		.long	0x2b6
 737 0290 0F       		.uleb128 0xf
 738 0291 82000000 		.long	LVL7
GAS LISTING /cygdrive/c/DOCUME~1/andrey/LOCALS~1/Temp/cc8BE7z6.s 			page 17


 739 0295 C9010000 		.long	0x1c9
 740 0299 10       		.uleb128 0x10
 741 029a 02       		.uleb128 0x2
 742 029b 74       		.byte	0x74
 743 029c 00       		.sleb128 0
 744 029d 05       		.uleb128 0x5
 745 029e 03       		.byte	0x3
 746 029f 2C000000 		.long	LC1
 747 02a3 10       		.uleb128 0x10
 748 02a4 02       		.uleb128 0x2
 749 02a5 74       		.byte	0x74
 750 02a6 04       		.sleb128 4
 751 02a7 05       		.uleb128 0x5
 752 02a8 03       		.byte	0x3
 753 02a9 00000000 		.long	LC0
 754 02ad 10       		.uleb128 0x10
 755 02ae 02       		.uleb128 0x2
 756 02af 74       		.byte	0x74
 757 02b0 08       		.sleb128 8
 758 02b1 02       		.uleb128 0x2
 759 02b2 08       		.byte	0x8
 760 02b3 54       		.byte	0x54
 761 02b4 00       		.byte	0
 762 02b5 00       		.byte	0
 763 02b6 0E       		.uleb128 0xe
 764 02b7 6462675F 		.ascii "dbg_check_suspend\0"
 764      63686563 
 764      6B5F7375 
 764      7370656E 
 764      6400
 765 02c9 01       		.byte	0x1
 766 02ca 5C       		.byte	0x5c
 767 02cb 90000000 		.long	LFB8
 768 02cf 36000000 		.long	LFE8-LFB8
 769 02d3 01       		.uleb128 0x1
 770 02d4 9C       		.byte	0x9c
 771 02d5 FF020000 		.long	0x2ff
 772 02d9 0F       		.uleb128 0xf
 773 02da C2000000 		.long	LVL8
 774 02de C9010000 		.long	0x1c9
 775 02e2 10       		.uleb128 0x10
 776 02e3 02       		.uleb128 0x2
 777 02e4 74       		.byte	0x74
 778 02e5 00       		.sleb128 0
 779 02e6 05       		.uleb128 0x5
 780 02e7 03       		.byte	0x3
 781 02e8 31000000 		.long	LC2
 782 02ec 10       		.uleb128 0x10
 783 02ed 02       		.uleb128 0x2
 784 02ee 74       		.byte	0x74
 785 02ef 04       		.sleb128 4
 786 02f0 05       		.uleb128 0x5
 787 02f1 03       		.byte	0x3
 788 02f2 00000000 		.long	LC0
 789 02f6 10       		.uleb128 0x10
 790 02f7 02       		.uleb128 0x2
 791 02f8 74       		.byte	0x74
GAS LISTING /cygdrive/c/DOCUME~1/andrey/LOCALS~1/Temp/cc8BE7z6.s 			page 18


 792 02f9 08       		.sleb128 8
 793 02fa 02       		.uleb128 0x2
 794 02fb 08       		.byte	0x8
 795 02fc 5F       		.byte	0x5f
 796 02fd 00       		.byte	0
 797 02fe 00       		.byte	0
 798 02ff 0E       		.uleb128 0xe
 799 0300 6462675F 		.ascii "dbg_check_enable\0"
 799      63686563 
 799      6B5F656E 
 799      61626C65 
 799      00
 800 0311 01       		.byte	0x1
 801 0312 67       		.byte	0x67
 802 0313 D0000000 		.long	LFB9
 803 0317 35000000 		.long	LFE9-LFB9
 804 031b 01       		.uleb128 0x1
 805 031c 9C       		.byte	0x9c
 806 031d 47030000 		.long	0x347
 807 0321 0F       		.uleb128 0xf
 808 0322 01010000 		.long	LVL9
 809 0326 C9010000 		.long	0x1c9
 810 032a 10       		.uleb128 0x10
 811 032b 02       		.uleb128 0x2
 812 032c 74       		.byte	0x74
 813 032d 00       		.sleb128 0
 814 032e 05       		.uleb128 0x5
 815 032f 03       		.byte	0x3
 816 0330 36000000 		.long	LC3
 817 0334 10       		.uleb128 0x10
 818 0335 02       		.uleb128 0x2
 819 0336 74       		.byte	0x74
 820 0337 04       		.sleb128 4
 821 0338 05       		.uleb128 0x5
 822 0339 03       		.byte	0x3
 823 033a 00000000 		.long	LC0
 824 033e 10       		.uleb128 0x10
 825 033f 02       		.uleb128 0x2
 826 0340 74       		.byte	0x74
 827 0341 08       		.sleb128 8
 828 0342 02       		.uleb128 0x2
 829 0343 08       		.byte	0x8
 830 0344 6A       		.byte	0x6a
 831 0345 00       		.byte	0
 832 0346 00       		.byte	0
 833 0347 0E       		.uleb128 0xe
 834 0348 6462675F 		.ascii "dbg_check_lock\0"
 834      63686563 
 834      6B5F6C6F 
 834      636B00
 835 0357 01       		.byte	0x1
 836 0358 72       		.byte	0x72
 837 0359 10010000 		.long	LFB10
 838 035d 3F000000 		.long	LFE10-LFB10
 839 0361 01       		.uleb128 0x1
 840 0362 9C       		.byte	0x9c
 841 0363 8D030000 		.long	0x38d
GAS LISTING /cygdrive/c/DOCUME~1/andrey/LOCALS~1/Temp/cc8BE7z6.s 			page 19


 842 0367 0F       		.uleb128 0xf
 843 0368 41010000 		.long	LVL10
 844 036c C9010000 		.long	0x1c9
 845 0370 10       		.uleb128 0x10
 846 0371 02       		.uleb128 0x2
 847 0372 74       		.byte	0x74
 848 0373 00       		.sleb128 0
 849 0374 05       		.uleb128 0x5
 850 0375 03       		.byte	0x3
 851 0376 3B000000 		.long	LC4
 852 037a 10       		.uleb128 0x10
 853 037b 02       		.uleb128 0x2
 854 037c 74       		.byte	0x74
 855 037d 04       		.sleb128 4
 856 037e 05       		.uleb128 0x5
 857 037f 03       		.byte	0x3
 858 0380 00000000 		.long	LC0
 859 0384 10       		.uleb128 0x10
 860 0385 02       		.uleb128 0x2
 861 0386 74       		.byte	0x74
 862 0387 08       		.sleb128 8
 863 0388 02       		.uleb128 0x2
 864 0389 08       		.byte	0x8
 865 038a 75       		.byte	0x75
 866 038b 00       		.byte	0
 867 038c 00       		.byte	0
 868 038d 0E       		.uleb128 0xe
 869 038e 6462675F 		.ascii "dbg_check_unlock\0"
 869      63686563 
 869      6B5F756E 
 869      6C6F636B 
 869      00
 870 039f 01       		.byte	0x1
 871 03a0 7E       		.byte	0x7e
 872 03a1 50010000 		.long	LFB11
 873 03a5 4E000000 		.long	LFE11-LFB11
 874 03a9 01       		.uleb128 0x1
 875 03aa 9C       		.byte	0x9c
 876 03ab D5030000 		.long	0x3d5
 877 03af 0F       		.uleb128 0xf
 878 03b0 90010000 		.long	LVL11
 879 03b4 C9010000 		.long	0x1c9
 880 03b8 10       		.uleb128 0x10
 881 03b9 02       		.uleb128 0x2
 882 03ba 74       		.byte	0x74
 883 03bb 00       		.sleb128 0
 884 03bc 05       		.uleb128 0x5
 885 03bd 03       		.byte	0x3
 886 03be 56000000 		.long	LC5
 887 03c2 10       		.uleb128 0x10
 888 03c3 02       		.uleb128 0x2
 889 03c4 74       		.byte	0x74
 890 03c5 04       		.sleb128 4
 891 03c6 05       		.uleb128 0x5
 892 03c7 03       		.byte	0x3
 893 03c8 00000000 		.long	LC0
 894 03cc 10       		.uleb128 0x10
GAS LISTING /cygdrive/c/DOCUME~1/andrey/LOCALS~1/Temp/cc8BE7z6.s 			page 20


 895 03cd 02       		.uleb128 0x2
 896 03ce 74       		.byte	0x74
 897 03cf 08       		.sleb128 8
 898 03d0 02       		.uleb128 0x2
 899 03d1 08       		.byte	0x8
 900 03d2 81       		.byte	0x81
 901 03d3 00       		.byte	0
 902 03d4 00       		.byte	0
 903 03d5 0E       		.uleb128 0xe
 904 03d6 6462675F 		.ascii "dbg_check_lock_from_isr\0"
 904      63686563 
 904      6B5F6C6F 
 904      636B5F66 
 904      726F6D5F 
 905 03ee 01       		.byte	0x1
 906 03ef 8A       		.byte	0x8a
 907 03f0 A0010000 		.long	LFB12
 908 03f4 40000000 		.long	LFE12-LFB12
 909 03f8 01       		.uleb128 0x1
 910 03f9 9C       		.byte	0x9c
 911 03fa 24040000 		.long	0x424
 912 03fe 0F       		.uleb128 0xf
 913 03ff D2010000 		.long	LVL12
 914 0403 C9010000 		.long	0x1c9
 915 0407 10       		.uleb128 0x10
 916 0408 02       		.uleb128 0x2
 917 0409 74       		.byte	0x74
 918 040a 00       		.sleb128 0
 919 040b 05       		.uleb128 0x5
 920 040c 03       		.byte	0x3
 921 040d 5C000000 		.long	LC6
 922 0411 10       		.uleb128 0x10
 923 0412 02       		.uleb128 0x2
 924 0413 74       		.byte	0x74
 925 0414 04       		.sleb128 4
 926 0415 05       		.uleb128 0x5
 927 0416 03       		.byte	0x3
 928 0417 00000000 		.long	LC0
 929 041b 10       		.uleb128 0x10
 930 041c 02       		.uleb128 0x2
 931 041d 74       		.byte	0x74
 932 041e 08       		.sleb128 8
 933 041f 02       		.uleb128 0x2
 934 0420 08       		.byte	0x8
 935 0421 8D       		.byte	0x8d
 936 0422 00       		.byte	0
 937 0423 00       		.byte	0
 938 0424 0E       		.uleb128 0xe
 939 0425 6462675F 		.ascii "dbg_check_unlock_from_isr\0"
 939      63686563 
 939      6B5F756E 
 939      6C6F636B 
 939      5F66726F 
 940 043f 01       		.byte	0x1
 941 0440 96       		.byte	0x96
 942 0441 E0010000 		.long	LFB13
 943 0445 4D000000 		.long	LFE13-LFB13
GAS LISTING /cygdrive/c/DOCUME~1/andrey/LOCALS~1/Temp/cc8BE7z6.s 			page 21


 944 0449 01       		.uleb128 0x1
 945 044a 9C       		.byte	0x9c
 946 044b 75040000 		.long	0x475
 947 044f 0F       		.uleb128 0xf
 948 0450 1F020000 		.long	LVL13
 949 0454 C9010000 		.long	0x1c9
 950 0458 10       		.uleb128 0x10
 951 0459 02       		.uleb128 0x2
 952 045a 74       		.byte	0x74
 953 045b 00       		.sleb128 0
 954 045c 05       		.uleb128 0x5
 955 045d 03       		.byte	0x3
 956 045e 7C000000 		.long	LC7
 957 0462 10       		.uleb128 0x10
 958 0463 02       		.uleb128 0x2
 959 0464 74       		.byte	0x74
 960 0465 04       		.sleb128 4
 961 0466 05       		.uleb128 0x5
 962 0467 03       		.byte	0x3
 963 0468 00000000 		.long	LC0
 964 046c 10       		.uleb128 0x10
 965 046d 02       		.uleb128 0x2
 966 046e 74       		.byte	0x74
 967 046f 08       		.sleb128 8
 968 0470 02       		.uleb128 0x2
 969 0471 08       		.byte	0x8
 970 0472 99       		.byte	0x99
 971 0473 00       		.byte	0
 972 0474 00       		.byte	0
 973 0475 0E       		.uleb128 0xe
 974 0476 6462675F 		.ascii "dbg_check_enter_isr\0"
 974      63686563 
 974      6B5F656E 
 974      7465725F 
 974      69737200 
 975 048a 01       		.byte	0x1
 976 048b A2       		.byte	0xa2
 977 048c 30020000 		.long	LFB14
 978 0490 43000000 		.long	LFE14-LFB14
 979 0494 01       		.uleb128 0x1
 980 0495 9C       		.byte	0x9c
 981 0496 C0040000 		.long	0x4c0
 982 049a 0F       		.uleb128 0xf
 983 049b 62020000 		.long	LVL14
 984 049f C9010000 		.long	0x1c9
 985 04a3 10       		.uleb128 0x10
 986 04a4 02       		.uleb128 0x2
 987 04a5 74       		.byte	0x74
 988 04a6 00       		.sleb128 0
 989 04a7 05       		.uleb128 0x5
 990 04a8 03       		.byte	0x3
 991 04a9 81000000 		.long	LC8
 992 04ad 10       		.uleb128 0x10
 993 04ae 02       		.uleb128 0x2
 994 04af 74       		.byte	0x74
 995 04b0 04       		.sleb128 4
 996 04b1 05       		.uleb128 0x5
GAS LISTING /cygdrive/c/DOCUME~1/andrey/LOCALS~1/Temp/cc8BE7z6.s 			page 22


 997 04b2 03       		.byte	0x3
 998 04b3 00000000 		.long	LC0
 999 04b7 10       		.uleb128 0x10
 1000 04b8 02       		.uleb128 0x2
 1001 04b9 74       		.byte	0x74
 1002 04ba 08       		.sleb128 8
 1003 04bb 02       		.uleb128 0x2
 1004 04bc 08       		.byte	0x8
 1005 04bd A6       		.byte	0xa6
 1006 04be 00       		.byte	0
 1007 04bf 00       		.byte	0
 1008 04c0 0E       		.uleb128 0xe
 1009 04c1 6462675F 		.ascii "dbg_check_leave_isr\0"
 1009      63686563 
 1009      6B5F6C65 
 1009      6176655F 
 1009      69737200 
 1010 04d5 01       		.byte	0x1
 1011 04d6 B0       		.byte	0xb0
 1012 04d7 80020000 		.long	LFB15
 1013 04db 43000000 		.long	LFE15-LFB15
 1014 04df 01       		.uleb128 0x1
 1015 04e0 9C       		.byte	0x9c
 1016 04e1 0B050000 		.long	0x50b
 1017 04e5 0F       		.uleb128 0xf
 1018 04e6 B2020000 		.long	LVL15
 1019 04ea C9010000 		.long	0x1c9
 1020 04ee 10       		.uleb128 0x10
 1021 04ef 02       		.uleb128 0x2
 1022 04f0 74       		.byte	0x74
 1023 04f1 00       		.sleb128 0
 1024 04f2 05       		.uleb128 0x5
 1025 04f3 03       		.byte	0x3
 1026 04f4 86000000 		.long	LC9
 1027 04f8 10       		.uleb128 0x10
 1028 04f9 02       		.uleb128 0x2
 1029 04fa 74       		.byte	0x74
 1030 04fb 04       		.sleb128 4
 1031 04fc 05       		.uleb128 0x5
 1032 04fd 03       		.byte	0x3
 1033 04fe 00000000 		.long	LC0
 1034 0502 10       		.uleb128 0x10
 1035 0503 02       		.uleb128 0x2
 1036 0504 74       		.byte	0x74
 1037 0505 08       		.sleb128 8
 1038 0506 02       		.uleb128 0x2
 1039 0507 08       		.byte	0x8
 1040 0508 B4       		.byte	0xb4
 1041 0509 00       		.byte	0
 1042 050a 00       		.byte	0
 1043 050b 0E       		.uleb128 0xe
 1044 050c 63684462 		.ascii "chDbgCheckClassI\0"
 1044      67436865 
 1044      636B436C 
 1044      61737349 
 1044      00
 1045 051d 01       		.byte	0x1
GAS LISTING /cygdrive/c/DOCUME~1/andrey/LOCALS~1/Temp/cc8BE7z6.s 			page 23


 1046 051e C1       		.byte	0xc1
 1047 051f D0020000 		.long	LFB16
 1048 0523 40000000 		.long	LFE16-LFB16
 1049 0527 01       		.uleb128 0x1
 1050 0528 9C       		.byte	0x9c
 1051 0529 53050000 		.long	0x553
 1052 052d 0F       		.uleb128 0xf
 1053 052e 0C030000 		.long	LVL16
 1054 0532 C9010000 		.long	0x1c9
 1055 0536 10       		.uleb128 0x10
 1056 0537 02       		.uleb128 0x2
 1057 0538 74       		.byte	0x74
 1058 0539 00       		.sleb128 0
 1059 053a 05       		.uleb128 0x5
 1060 053b 03       		.byte	0x3
 1061 053c 8C000000 		.long	LC10
 1062 0540 10       		.uleb128 0x10
 1063 0541 02       		.uleb128 0x2
 1064 0542 74       		.byte	0x74
 1065 0543 04       		.sleb128 4
 1066 0544 05       		.uleb128 0x5
 1067 0545 03       		.byte	0x3
 1068 0546 00000000 		.long	LC0
 1069 054a 10       		.uleb128 0x10
 1070 054b 02       		.uleb128 0x2
 1071 054c 74       		.byte	0x74
 1072 054d 08       		.sleb128 8
 1073 054e 02       		.uleb128 0x2
 1074 054f 08       		.byte	0x8
 1075 0550 C4       		.byte	0xc4
 1076 0551 00       		.byte	0
 1077 0552 00       		.byte	0
 1078 0553 0E       		.uleb128 0xe
 1079 0554 63684462 		.ascii "chDbgCheckClassS\0"
 1079      67436865 
 1079      636B436C 
 1079      61737353 
 1079      00
 1080 0565 01       		.byte	0x1
 1081 0566 CF       		.byte	0xcf
 1082 0567 10030000 		.long	LFB17
 1083 056b 40000000 		.long	LFE17-LFB17
 1084 056f 01       		.uleb128 0x1
 1085 0570 9C       		.byte	0x9c
 1086 0571 9B050000 		.long	0x59b
 1087 0575 0F       		.uleb128 0xf
 1088 0576 4C030000 		.long	LVL17
 1089 057a C9010000 		.long	0x1c9
 1090 057e 10       		.uleb128 0x10
 1091 057f 02       		.uleb128 0x2
 1092 0580 74       		.byte	0x74
 1093 0581 00       		.sleb128 0
 1094 0582 05       		.uleb128 0x5
 1095 0583 03       		.byte	0x3
 1096 0584 AD000000 		.long	LC11
 1097 0588 10       		.uleb128 0x10
 1098 0589 02       		.uleb128 0x2
GAS LISTING /cygdrive/c/DOCUME~1/andrey/LOCALS~1/Temp/cc8BE7z6.s 			page 24


 1099 058a 74       		.byte	0x74
 1100 058b 04       		.sleb128 4
 1101 058c 05       		.uleb128 0x5
 1102 058d 03       		.byte	0x3
 1103 058e 00000000 		.long	LC0
 1104 0592 10       		.uleb128 0x10
 1105 0593 02       		.uleb128 0x2
 1106 0594 74       		.byte	0x74
 1107 0595 08       		.sleb128 8
 1108 0596 02       		.uleb128 0x2
 1109 0597 08       		.byte	0x8
 1110 0598 D2       		.byte	0xd2
 1111 0599 00       		.byte	0
 1112 059a 00       		.byte	0
 1113 059b 11       		.uleb128 0x11
 1114 059c 6462675F 		.ascii "dbg_isr_cnt\0"
 1114      6973725F 
 1114      636E7400 
 1115 05a8 01       		.byte	0x1
 1116 05a9 45       		.byte	0x45
 1117 05aa 9D010000 		.long	0x19d
 1118 05ae 05       		.uleb128 0x5
 1119 05af 03       		.byte	0x3
 1120 05b0 00000000 		.long	_dbg_isr_cnt
 1121 05b4 11       		.uleb128 0x11
 1122 05b5 6462675F 		.ascii "dbg_lock_cnt\0"
 1122      6C6F636B 
 1122      5F636E74 
 1122      00
 1123 05c2 01       		.byte	0x1
 1124 05c3 4A       		.byte	0x4a
 1125 05c4 9D010000 		.long	0x19d
 1126 05c8 05       		.uleb128 0x5
 1127 05c9 03       		.byte	0x3
 1128 05ca 00000000 		.long	_dbg_lock_cnt
 1129 05ce 12       		.uleb128 0x12
 1130 05cf 6462675F 		.ascii "dbg_panic_msg\0"
 1130      70616E69 
 1130      635F6D73 
 1130      6700
 1131 05dd 01       		.byte	0x1
 1132 05de 0801     		.word	0x108
 1133 05e0 B6010000 		.long	0x1b6
 1134 05e4 05       		.uleb128 0x5
 1135 05e5 03       		.byte	0x3
 1136 05e6 00000000 		.long	_dbg_panic_msg
 1137 05ea 12       		.uleb128 0x12
 1138 05eb 6462675F 		.ascii "dbg_panic_file\0"
 1138      70616E69 
 1138      635F6669 
 1138      6C6500
 1139 05fa 01       		.byte	0x1
 1140 05fb 0901     		.word	0x109
 1141 05fd 04020000 		.long	0x204
 1142 0601 05       		.uleb128 0x5
 1143 0602 03       		.byte	0x3
 1144 0603 00000000 		.long	_dbg_panic_file
GAS LISTING /cygdrive/c/DOCUME~1/andrey/LOCALS~1/Temp/cc8BE7z6.s 			page 25


 1145 0607 12       		.uleb128 0x12
 1146 0608 6462675F 		.ascii "dbg_panic_line\0"
 1146      70616E69 
 1146      635F6C69 
 1146      6E6500
 1147 0617 01       		.byte	0x1
 1148 0618 0A01     		.word	0x10a
 1149 061a 00010000 		.long	0x100
 1150 061e 05       		.uleb128 0x5
 1151 061f 03       		.byte	0x3
 1152 0620 00000000 		.long	_dbg_panic_line
 1153 0624 13       		.uleb128 0x13
 1154 0625 6F6E4661 		.ascii "onFatalError\0"
 1154      74616C45 
 1154      72726F72 
 1154      00
 1155 0632 01       		.byte	0x1
 1156 0633 1601     		.word	0x116
 1157 0635 49060000 		.long	0x649
 1158 0639 14       		.uleb128 0x14
 1159 063a B6010000 		.long	0x1b6
 1160 063e 14       		.uleb128 0x14
 1161 063f 04020000 		.long	0x204
 1162 0643 14       		.uleb128 0x14
 1163 0644 00010000 		.long	0x100
 1164 0648 00       		.byte	0
 1165 0649 15       		.uleb128 0x15
 1166 064a 68617346 		.ascii "hasFatalError\0"
 1166      6174616C 
 1166      4572726F 
 1166      7200
 1167 0658 01       		.byte	0x1
 1168 0659 1401     		.word	0x114
 1169 065b 00010000 		.long	0x100
 1170 065f 00       		.byte	0
 1171              		.section	.debug_abbrev,"dr"
 1172              	Ldebug_abbrev0:
 1173 0000 01       		.uleb128 0x1
 1174 0001 11       		.uleb128 0x11
 1175 0002 01       		.byte	0x1
 1176 0003 25       		.uleb128 0x25
 1177 0004 08       		.uleb128 0x8
 1178 0005 13       		.uleb128 0x13
 1179 0006 0B       		.uleb128 0xb
 1180 0007 03       		.uleb128 0x3
 1181 0008 08       		.uleb128 0x8
 1182 0009 1B       		.uleb128 0x1b
 1183 000a 08       		.uleb128 0x8
 1184 000b 11       		.uleb128 0x11
 1185 000c 01       		.uleb128 0x1
 1186 000d 12       		.uleb128 0x12
 1187 000e 06       		.uleb128 0x6
 1188 000f 10       		.uleb128 0x10
 1189 0010 17       		.uleb128 0x17
 1190 0011 00       		.byte	0
 1191 0012 00       		.byte	0
 1192 0013 02       		.uleb128 0x2
GAS LISTING /cygdrive/c/DOCUME~1/andrey/LOCALS~1/Temp/cc8BE7z6.s 			page 26


 1193 0014 24       		.uleb128 0x24
 1194 0015 00       		.byte	0
 1195 0016 0B       		.uleb128 0xb
 1196 0017 0B       		.uleb128 0xb
 1197 0018 3E       		.uleb128 0x3e
 1198 0019 0B       		.uleb128 0xb
 1199 001a 03       		.uleb128 0x3
 1200 001b 08       		.uleb128 0x8
 1201 001c 00       		.byte	0
 1202 001d 00       		.byte	0
 1203 001e 03       		.uleb128 0x3
 1204 001f 16       		.uleb128 0x16
 1205 0020 00       		.byte	0
 1206 0021 03       		.uleb128 0x3
 1207 0022 08       		.uleb128 0x8
 1208 0023 3A       		.uleb128 0x3a
 1209 0024 0B       		.uleb128 0xb
 1210 0025 3B       		.uleb128 0x3b
 1211 0026 0B       		.uleb128 0xb
 1212 0027 49       		.uleb128 0x49
 1213 0028 13       		.uleb128 0x13
 1214 0029 00       		.byte	0
 1215 002a 00       		.byte	0
 1216 002b 04       		.uleb128 0x4
 1217 002c 0F       		.uleb128 0xf
 1218 002d 00       		.byte	0
 1219 002e 0B       		.uleb128 0xb
 1220 002f 0B       		.uleb128 0xb
 1221 0030 49       		.uleb128 0x49
 1222 0031 13       		.uleb128 0x13
 1223 0032 00       		.byte	0
 1224 0033 00       		.byte	0
 1225 0034 05       		.uleb128 0x5
 1226 0035 26       		.uleb128 0x26
 1227 0036 00       		.byte	0
 1228 0037 49       		.uleb128 0x49
 1229 0038 13       		.uleb128 0x13
 1230 0039 00       		.byte	0
 1231 003a 00       		.byte	0
 1232 003b 06       		.uleb128 0x6
 1233 003c 2E       		.uleb128 0x2e
 1234 003d 01       		.byte	0x1
 1235 003e 3F       		.uleb128 0x3f
 1236 003f 19       		.uleb128 0x19
 1237 0040 03       		.uleb128 0x3
 1238 0041 08       		.uleb128 0x8
 1239 0042 3A       		.uleb128 0x3a
 1240 0043 0B       		.uleb128 0xb
 1241 0044 3B       		.uleb128 0x3b
 1242 0045 05       		.uleb128 0x5
 1243 0046 27       		.uleb128 0x27
 1244 0047 19       		.uleb128 0x19
 1245 0048 20       		.uleb128 0x20
 1246 0049 0B       		.uleb128 0xb
 1247 004a 01       		.uleb128 0x1
 1248 004b 13       		.uleb128 0x13
 1249 004c 00       		.byte	0
GAS LISTING /cygdrive/c/DOCUME~1/andrey/LOCALS~1/Temp/cc8BE7z6.s 			page 27


 1250 004d 00       		.byte	0
 1251 004e 07       		.uleb128 0x7
 1252 004f 05       		.uleb128 0x5
 1253 0050 00       		.byte	0
 1254 0051 03       		.uleb128 0x3
 1255 0052 08       		.uleb128 0x8
 1256 0053 3A       		.uleb128 0x3a
 1257 0054 0B       		.uleb128 0xb
 1258 0055 3B       		.uleb128 0x3b
 1259 0056 05       		.uleb128 0x5
 1260 0057 49       		.uleb128 0x49
 1261 0058 13       		.uleb128 0x13
 1262 0059 00       		.byte	0
 1263 005a 00       		.byte	0
 1264 005b 08       		.uleb128 0x8
 1265 005c 2E       		.uleb128 0x2e
 1266 005d 01       		.byte	0x1
 1267 005e 31       		.uleb128 0x31
 1268 005f 13       		.uleb128 0x13
 1269 0060 11       		.uleb128 0x11
 1270 0061 01       		.uleb128 0x1
 1271 0062 12       		.uleb128 0x12
 1272 0063 06       		.uleb128 0x6
 1273 0064 40       		.uleb128 0x40
 1274 0065 18       		.uleb128 0x18
 1275 0066 9742     		.uleb128 0x2117
 1276 0068 19       		.uleb128 0x19
 1277 0069 01       		.uleb128 0x1
 1278 006a 13       		.uleb128 0x13
 1279 006b 00       		.byte	0
 1280 006c 00       		.byte	0
 1281 006d 09       		.uleb128 0x9
 1282 006e 05       		.uleb128 0x5
 1283 006f 00       		.byte	0
 1284 0070 31       		.uleb128 0x31
 1285 0071 13       		.uleb128 0x13
 1286 0072 02       		.uleb128 0x2
 1287 0073 18       		.uleb128 0x18
 1288 0074 00       		.byte	0
 1289 0075 00       		.byte	0
 1290 0076 0A       		.uleb128 0xa
 1291 0077 0B       		.uleb128 0xb
 1292 0078 01       		.byte	0x1
 1293 0079 55       		.uleb128 0x55
 1294 007a 17       		.uleb128 0x17
 1295 007b 01       		.uleb128 0x1
 1296 007c 13       		.uleb128 0x13
 1297 007d 00       		.byte	0
 1298 007e 00       		.byte	0
 1299 007f 0B       		.uleb128 0xb
 1300 0080 05       		.uleb128 0x5
 1301 0081 00       		.byte	0
 1302 0082 31       		.uleb128 0x31
 1303 0083 13       		.uleb128 0x13
 1304 0084 02       		.uleb128 0x2
 1305 0085 17       		.uleb128 0x17
 1306 0086 00       		.byte	0
GAS LISTING /cygdrive/c/DOCUME~1/andrey/LOCALS~1/Temp/cc8BE7z6.s 			page 28


 1307 0087 00       		.byte	0
 1308 0088 0C       		.uleb128 0xc
 1309 0089 898201   		.uleb128 0x4109
 1310 008c 00       		.byte	0
 1311 008d 11       		.uleb128 0x11
 1312 008e 01       		.uleb128 0x1
 1313 008f 9542     		.uleb128 0x2115
 1314 0091 19       		.uleb128 0x19
 1315 0092 31       		.uleb128 0x31
 1316 0093 13       		.uleb128 0x13
 1317 0094 00       		.byte	0
 1318 0095 00       		.byte	0
 1319 0096 0D       		.uleb128 0xd
 1320 0097 898201   		.uleb128 0x4109
 1321 009a 00       		.byte	0
 1322 009b 11       		.uleb128 0x11
 1323 009c 01       		.uleb128 0x1
 1324 009d 31       		.uleb128 0x31
 1325 009e 13       		.uleb128 0x13
 1326 009f 00       		.byte	0
 1327 00a0 00       		.byte	0
 1328 00a1 0E       		.uleb128 0xe
 1329 00a2 2E       		.uleb128 0x2e
 1330 00a3 01       		.byte	0x1
 1331 00a4 3F       		.uleb128 0x3f
 1332 00a5 19       		.uleb128 0x19
 1333 00a6 03       		.uleb128 0x3
 1334 00a7 08       		.uleb128 0x8
 1335 00a8 3A       		.uleb128 0x3a
 1336 00a9 0B       		.uleb128 0xb
 1337 00aa 3B       		.uleb128 0x3b
 1338 00ab 0B       		.uleb128 0xb
 1339 00ac 27       		.uleb128 0x27
 1340 00ad 19       		.uleb128 0x19
 1341 00ae 11       		.uleb128 0x11
 1342 00af 01       		.uleb128 0x1
 1343 00b0 12       		.uleb128 0x12
 1344 00b1 06       		.uleb128 0x6
 1345 00b2 40       		.uleb128 0x40
 1346 00b3 18       		.uleb128 0x18
 1347 00b4 9742     		.uleb128 0x2117
 1348 00b6 19       		.uleb128 0x19
 1349 00b7 01       		.uleb128 0x1
 1350 00b8 13       		.uleb128 0x13
 1351 00b9 00       		.byte	0
 1352 00ba 00       		.byte	0
 1353 00bb 0F       		.uleb128 0xf
 1354 00bc 898201   		.uleb128 0x4109
 1355 00bf 01       		.byte	0x1
 1356 00c0 11       		.uleb128 0x11
 1357 00c1 01       		.uleb128 0x1
 1358 00c2 31       		.uleb128 0x31
 1359 00c3 13       		.uleb128 0x13
 1360 00c4 00       		.byte	0
 1361 00c5 00       		.byte	0
 1362 00c6 10       		.uleb128 0x10
 1363 00c7 8A8201   		.uleb128 0x410a
GAS LISTING /cygdrive/c/DOCUME~1/andrey/LOCALS~1/Temp/cc8BE7z6.s 			page 29


 1364 00ca 00       		.byte	0
 1365 00cb 02       		.uleb128 0x2
 1366 00cc 18       		.uleb128 0x18
 1367 00cd 9142     		.uleb128 0x2111
 1368 00cf 18       		.uleb128 0x18
 1369 00d0 00       		.byte	0
 1370 00d1 00       		.byte	0
 1371 00d2 11       		.uleb128 0x11
 1372 00d3 34       		.uleb128 0x34
 1373 00d4 00       		.byte	0
 1374 00d5 03       		.uleb128 0x3
 1375 00d6 08       		.uleb128 0x8
 1376 00d7 3A       		.uleb128 0x3a
 1377 00d8 0B       		.uleb128 0xb
 1378 00d9 3B       		.uleb128 0x3b
 1379 00da 0B       		.uleb128 0xb
 1380 00db 49       		.uleb128 0x49
 1381 00dc 13       		.uleb128 0x13
 1382 00dd 3F       		.uleb128 0x3f
 1383 00de 19       		.uleb128 0x19
 1384 00df 02       		.uleb128 0x2
 1385 00e0 18       		.uleb128 0x18
 1386 00e1 00       		.byte	0
 1387 00e2 00       		.byte	0
 1388 00e3 12       		.uleb128 0x12
 1389 00e4 34       		.uleb128 0x34
 1390 00e5 00       		.byte	0
 1391 00e6 03       		.uleb128 0x3
 1392 00e7 08       		.uleb128 0x8
 1393 00e8 3A       		.uleb128 0x3a
 1394 00e9 0B       		.uleb128 0xb
 1395 00ea 3B       		.uleb128 0x3b
 1396 00eb 05       		.uleb128 0x5
 1397 00ec 49       		.uleb128 0x49
 1398 00ed 13       		.uleb128 0x13
 1399 00ee 3F       		.uleb128 0x3f
 1400 00ef 19       		.uleb128 0x19
 1401 00f0 02       		.uleb128 0x2
 1402 00f1 18       		.uleb128 0x18
 1403 00f2 00       		.byte	0
 1404 00f3 00       		.byte	0
 1405 00f4 13       		.uleb128 0x13
 1406 00f5 2E       		.uleb128 0x2e
 1407 00f6 01       		.byte	0x1
 1408 00f7 3F       		.uleb128 0x3f
 1409 00f8 19       		.uleb128 0x19
 1410 00f9 03       		.uleb128 0x3
 1411 00fa 08       		.uleb128 0x8
 1412 00fb 3A       		.uleb128 0x3a
 1413 00fc 0B       		.uleb128 0xb
 1414 00fd 3B       		.uleb128 0x3b
 1415 00fe 05       		.uleb128 0x5
 1416 00ff 27       		.uleb128 0x27
 1417 0100 19       		.uleb128 0x19
 1418 0101 3C       		.uleb128 0x3c
 1419 0102 19       		.uleb128 0x19
 1420 0103 01       		.uleb128 0x1
GAS LISTING /cygdrive/c/DOCUME~1/andrey/LOCALS~1/Temp/cc8BE7z6.s 			page 30


 1421 0104 13       		.uleb128 0x13
 1422 0105 00       		.byte	0
 1423 0106 00       		.byte	0
 1424 0107 14       		.uleb128 0x14
 1425 0108 05       		.uleb128 0x5
 1426 0109 00       		.byte	0
 1427 010a 49       		.uleb128 0x49
 1428 010b 13       		.uleb128 0x13
 1429 010c 00       		.byte	0
 1430 010d 00       		.byte	0
 1431 010e 15       		.uleb128 0x15
 1432 010f 2E       		.uleb128 0x2e
 1433 0110 00       		.byte	0
 1434 0111 3F       		.uleb128 0x3f
 1435 0112 19       		.uleb128 0x19
 1436 0113 03       		.uleb128 0x3
 1437 0114 08       		.uleb128 0x8
 1438 0115 3A       		.uleb128 0x3a
 1439 0116 0B       		.uleb128 0xb
 1440 0117 3B       		.uleb128 0x3b
 1441 0118 05       		.uleb128 0x5
 1442 0119 27       		.uleb128 0x27
 1443 011a 19       		.uleb128 0x19
 1444 011b 49       		.uleb128 0x49
 1445 011c 13       		.uleb128 0x13
 1446 011d 3C       		.uleb128 0x3c
 1447 011e 19       		.uleb128 0x19
 1448 011f 00       		.byte	0
 1449 0120 00       		.byte	0
 1450 0121 00       		.byte	0
 1451              		.section	.debug_loc,"dr"
 1452              	Ldebug_loc0:
 1453              	LLST0:
 1454 0000 20000000 		.long	LVL2-Ltext0
 1455 0004 41000000 		.long	LVL5-Ltext0
 1456 0008 0100     		.word	0x1
 1457 000a 57       		.byte	0x57
 1458 000b 41000000 		.long	LVL5-Ltext0
 1459 000f 45000000 		.long	LVL6-1-Ltext0
 1460 0013 0200     		.word	0x2
 1461 0015 91       		.byte	0x91
 1462 0016 08       		.sleb128 8
 1463 0017 00000000 		.long	0
 1464 001b 00000000 		.long	0
 1465              	LLST1:
 1466 001f 20000000 		.long	LVL2-Ltext0
 1467 0023 40000000 		.long	LVL4-Ltext0
 1468 0027 0100     		.word	0x1
 1469 0029 56       		.byte	0x56
 1470 002a 40000000 		.long	LVL4-Ltext0
 1471 002e 45000000 		.long	LVL6-1-Ltext0
 1472 0032 0200     		.word	0x2
 1473 0034 91       		.byte	0x91
 1474 0035 04       		.sleb128 4
 1475 0036 00000000 		.long	0
 1476 003a 00000000 		.long	0
 1477              	LLST2:
GAS LISTING /cygdrive/c/DOCUME~1/andrey/LOCALS~1/Temp/cc8BE7z6.s 			page 31


 1478 003e 20000000 		.long	LVL2-Ltext0
 1479 0042 3F000000 		.long	LVL3-Ltext0
 1480 0046 0100     		.word	0x1
 1481 0048 53       		.byte	0x53
 1482 0049 3F000000 		.long	LVL3-Ltext0
 1483 004d 45000000 		.long	LVL6-1-Ltext0
 1484 0051 0200     		.word	0x2
 1485 0053 91       		.byte	0x91
 1486 0054 00       		.sleb128 0
 1487 0055 00000000 		.long	0
 1488 0059 00000000 		.long	0
 1489              		.section	.debug_aranges,"dr"
 1490 0000 1C000000 		.long	0x1c
 1491 0004 0200     		.word	0x2
 1492 0006 00000000 		.secrel32	Ldebug_info0
 1493 000a 04       		.byte	0x4
 1494 000b 00       		.byte	0
 1495 000c 0000     		.word	0
 1496 000e 0000     		.word	0
 1497 0010 00000000 		.long	Ltext0
 1498 0014 50030000 		.long	Letext0-Ltext0
 1499 0018 00000000 		.long	0
 1500 001c 00000000 		.long	0
 1501              		.section	.debug_ranges,"dr"
 1502              	Ldebug_ranges0:
 1503 0000 20000000 		.long	LBB4-Ltext0
 1504 0004 3E000000 		.long	LBE4-Ltext0
 1505 0008 41000000 		.long	LBB7-Ltext0
 1506 000c 46000000 		.long	LBE7-Ltext0
 1507 0010 00000000 		.long	0
 1508 0014 00000000 		.long	0
 1509              		.section	.debug_line,"dr"
 1510              	Ldebug_line0:
 1511 0000 4B010000 		.section	.debug_str,"dr"
 1511      02009100 
 1511      00000101 
 1511      FB0E0D00 
 1511      01010101 
 1512              		.ident	"GCC: (GNU) 4.8.2"
 1513              		.def	_hasFatalError;	.scl	2;	.type	32;	.endef
 1514              		.def	_onFatalError;	.scl	2;	.type	32;	.endef
GAS LISTING /cygdrive/c/DOCUME~1/andrey/LOCALS~1/Temp/cc8BE7z6.s 			page 32


DEFINED SYMBOLS
                            *ABS*:00000000 chdebug.c
/cygdrive/c/DOCUME~1/andrey/LOCALS~1/Temp/cc8BE7z6.s:70     .text:00000000 _chDbgPanic
                            *COM*:00000004 _dbg_panic_file
                            *COM*:00000004 _dbg_panic_line
                            *COM*:00000004 _dbg_panic_msg
/cygdrive/c/DOCUME~1/andrey/LOCALS~1/Temp/cc8BE7z6.s:156    .text:00000050 _dbg_check_disable
                            *COM*:00000004 _dbg_isr_cnt
                            *COM*:00000004 _dbg_lock_cnt
/cygdrive/c/DOCUME~1/andrey/LOCALS~1/Temp/cc8BE7z6.s:191    .text:00000090 _dbg_check_suspend
/cygdrive/c/DOCUME~1/andrey/LOCALS~1/Temp/cc8BE7z6.s:226    .text:000000d0 _dbg_check_enable
/cygdrive/c/DOCUME~1/andrey/LOCALS~1/Temp/cc8BE7z6.s:261    .text:00000110 _dbg_check_lock
/cygdrive/c/DOCUME~1/andrey/LOCALS~1/Temp/cc8BE7z6.s:298    .text:00000150 _dbg_check_unlock
/cygdrive/c/DOCUME~1/andrey/LOCALS~1/Temp/cc8BE7z6.s:344    .text:000001a0 _dbg_check_lock_from_isr
/cygdrive/c/DOCUME~1/andrey/LOCALS~1/Temp/cc8BE7z6.s:381    .text:000001e0 _dbg_check_unlock_from_isr
/cygdrive/c/DOCUME~1/andrey/LOCALS~1/Temp/cc8BE7z6.s:426    .text:00000230 _dbg_check_enter_isr
/cygdrive/c/DOCUME~1/andrey/LOCALS~1/Temp/cc8BE7z6.s:465    .text:00000280 _dbg_check_leave_isr
/cygdrive/c/DOCUME~1/andrey/LOCALS~1/Temp/cc8BE7z6.s:505    .text:000002d0 _chDbgCheckClassI
/cygdrive/c/DOCUME~1/andrey/LOCALS~1/Temp/cc8BE7z6.s:546    .text:00000310 _chDbgCheckClassS

UNDEFINED SYMBOLS
_hasFatalError
_onFatalError
