GAS LISTING /cygdrive/c/DOCUME~1/andrey/LOCALS~1/Temp/cc8BE7z6.s 			page 1


   1              		.file	"chdebug.c"
   2              	 # GNU C (GCC) version 4.8.2 (i686-pc-cygwin)
   3              	 #	compiled by GNU C version 4.8.2, GMP version 5.1.3, MPFR version 3.1.2, MPC version 1.0.1
   4              	 # GGC heuristics: --param ggc-min-expand=100 --param ggc-min-heapsize=131072
   5              	 # options passed:  -I . -I ../firmware/chibios/os/ports/GCC/SIMIA32
   6              	 # -I ../firmware/chibios/os/kernel/include
   7              	 # -I ../firmware/chibios/os/hal/include
   8              	 # -I ../firmware/chibios/os/hal/platforms/Win32
   9              	 # -I ../firmware/chibios/boards/simulator -I ../firmware/util
  10              	 # -I ../firmware/console -I ../firmware/console_util
  11              	 # -I ../firmware/config/engines -I ../firmware/ext_algo
  12              	 # -I ../firmware/controllers/sensors -I ../firmware/controllers/system
  13              	 # -I ../firmware/controllers/algo -I ../firmware/controllers/math
  14              	 # -I ../firmware/controllers/trigger -I ../firmware/chibios/os/various
  15              	 # -MD ../firmware/chibios/os/kernel/src/chdebug.d -MF .dep/chdebug.o.d -MP
  16              	 # -MQ ../firmware/chibios/os/kernel/src/chdebug.o -Dunix
  17              	 # -idirafter /usr/lib/gcc/i686-pc-cygwin/4.8.2/../../../../include/w32api
  18              	 # -idirafter ../../include/w32api -D SIMULATOR -D SHELL_USE_IPRINTF=FALSE
  19              	 # ../firmware/chibios/os/kernel/src/chdebug.c -mtune=generic -march=i686
  20              	 # -auxbase-strip ../firmware/chibios/os/kernel/src/chdebug.o -ggdb -O2
  21              	 # -Wall -Wextra -Wstrict-prototypes -std=gnu99 -fomit-frame-pointer
  22              	 # -fgnu89-inline -fverbose-asm
  23              	 # options enabled:  -faggressive-loop-optimizations
  24              	 # -fasynchronous-unwind-tables -fauto-inc-dec -fbranch-count-reg
  25              	 # -fcaller-saves -fcombine-stack-adjustments -fcommon -fcompare-elim
  26              	 # -fcprop-registers -fcrossjumping -fcse-follow-jumps -fdefer-pop
  27              	 # -fdelete-null-pointer-checks -fdevirtualize -fdwarf2-cfi-asm
  28              	 # -fearly-inlining -feliminate-unused-debug-types
  29              	 # -fexpensive-optimizations -fforward-propagate -ffunction-cse -fgcse
  30              	 # -fgcse-lm -fgnu-runtime -fguess-branch-probability
  31              	 # -fhoist-adjacent-loads -fident -fif-conversion -fif-conversion2
  32              	 # -findirect-inlining -finline -finline-atomics
  33              	 # -finline-functions-called-once -finline-small-functions -fipa-cp
  34              	 # -fipa-profile -fipa-pure-const -fipa-reference -fipa-sra
  35              	 # -fira-hoist-pressure -fira-share-save-slots -fira-share-spill-slots
  36              	 # -fivopts -fkeep-inline-dllexport -fkeep-static-consts
  37              	 # -fleading-underscore -fmath-errno -fmerge-constants
  38              	 # -fmerge-debug-strings -fmove-loop-invariants -fomit-frame-pointer
  39              	 # -foptimize-register-move -foptimize-sibling-calls -foptimize-strlen
  40              	 # -fpartial-inlining -fpeephole -fpeephole2 -fprefetch-loop-arrays -free
  41              	 # -freg-struct-return -fregmove -freorder-blocks -freorder-functions
  42              	 # -frerun-cse-after-loop -fsched-critical-path-heuristic
  43              	 # -fsched-dep-count-heuristic -fsched-group-heuristic -fsched-interblock
  44              	 # -fsched-last-insn-heuristic -fsched-rank-heuristic -fsched-spec
  45              	 # -fsched-spec-insn-heuristic -fsched-stalled-insns-dep -fschedule-insns2
  46              	 # -fset-stack-executable -fshow-column -fshrink-wrap -fsigned-zeros
  47              	 # -fsplit-ivs-in-unroller -fsplit-wide-types -fstrict-aliasing
  48              	 # -fstrict-overflow -fstrict-volatile-bitfields -fsync-libcalls
  49              	 # -fthread-jumps -ftoplevel-reorder -ftrapping-math -ftree-bit-ccp
  50              	 # -ftree-builtin-call-dce -ftree-ccp -ftree-ch -ftree-coalesce-vars
  51              	 # -ftree-copy-prop -ftree-copyrename -ftree-cselim -ftree-dce
  52              	 # -ftree-dominator-opts -ftree-dse -ftree-forwprop -ftree-fre
  53              	 # -ftree-loop-if-convert -ftree-loop-im -ftree-loop-ivcanon
  54              	 # -ftree-loop-optimize -ftree-parallelize-loops= -ftree-phiprop -ftree-pre
  55              	 # -ftree-pta -ftree-reassoc -ftree-scev-cprop -ftree-sink
  56              	 # -ftree-slp-vectorize -ftree-slsr -ftree-sra -ftree-switch-conversion
  57              	 # -ftree-tail-merge -ftree-ter -ftree-vect-loop-version -ftree-vrp
GAS LISTING /cygdrive/c/DOCUME~1/andrey/LOCALS~1/Temp/cc8BE7z6.s 			page 2


  58              	 # -funit-at-a-time -funwind-tables -fvar-tracking
  59              	 # -fvar-tracking-assignments -fverbose-asm -fzero-initialized-in-bss -m32
  60              	 # -m80387 -m96bit-long-double -maccumulate-outgoing-args -malign-double
  61              	 # -malign-stringops -mfancy-math-387 -mfp-ret-in-387 -mieee-fp
  62              	 # -mlong-double-80 -mno-red-zone -mno-sse4 -mpush-args -msahf
  63              	 # -mstack-arg-probe
  64              	
  65              		.text
  66              	Ltext0:
  67              		.p2align 4,,15
  68              		.globl	_chDbgPanic
  69              		.def	_chDbgPanic;	.scl	2;	.type	32;	.endef
  70              	_chDbgPanic:
  71              	LFB18:
  72              		.file 1 "../firmware/chibios/os/kernel/src/chdebug.c"
  73              		.loc 1 280 0
  74              		.cfi_startproc
  75              	LVL0:
  76 0000 57       		pushl	%edi	 #
  77              		.cfi_def_cfa_offset 8
  78              		.cfi_offset 7, -8
  79 0001 56       		pushl	%esi	 #
  80              		.cfi_def_cfa_offset 12
  81              		.cfi_offset 6, -12
  82 0002 53       		pushl	%ebx	 #
  83              		.cfi_def_cfa_offset 16
  84              		.cfi_offset 3, -16
  85              		.loc 1 280 0
  86 0003 8B5C2410 		movl	16(%esp), %ebx	 # msg, msg
  87 0007 8B742414 		movl	20(%esp), %esi	 # file, file
  88 000b 8B7C2418 		movl	24(%esp), %edi	 # line, line
  89              		.loc 1 282 0
  90 000f E8000000 		call	_hasFatalError	 #
  90      00
  91              	LVL1:
  92 0014 85C0     		testl	%eax, %eax	 # D.2176
  93 0016 7408     		je	L5	 #,
  94              		.loc 1 291 0
  95 0018 5B       		popl	%ebx	 #
  96              		.cfi_remember_state
  97              		.cfi_restore 3
  98              		.cfi_def_cfa_offset 12
  99 0019 5E       		popl	%esi	 #
 100              		.cfi_restore 6
 101              		.cfi_def_cfa_offset 8
 102 001a 5F       		popl	%edi	 #
 103              		.cfi_restore 7
 104              		.cfi_def_cfa_offset 4
 105 001b C3       		ret
 106 001c 8D742600 		.p2align 4,,7
 107              	L5:
 108              		.cfi_restore_state
 109              	LVL2:
 110              	LBB4:
 111              	LBB5:
 112              		.loc 1 287 0
 113 0020 897C2418 		movl	%edi, 24(%esp)	 # line,
GAS LISTING /cygdrive/c/DOCUME~1/andrey/LOCALS~1/Temp/cc8BE7z6.s 			page 3


 114 0024 89742414 		movl	%esi, 20(%esp)	 # file,
 115 0028 895C2410 		movl	%ebx, 16(%esp)	 # msg,
 116              		.loc 1 284 0
 117 002c 89350000 		movl	%esi, _dbg_panic_file	 # file, dbg_panic_file
 117      0000
 118              		.loc 1 285 0
 119 0032 893D0000 		movl	%edi, _dbg_panic_line	 # line, dbg_panic_line
 119      0000
 120              		.loc 1 286 0
 121 0038 891D0000 		movl	%ebx, _dbg_panic_msg	 # msg, dbg_panic_msg
 121      0000
 122              	LBE5:
 123              	LBE4:
 124              		.loc 1 291 0
 125 003e 5B       		popl	%ebx	 #
 126              		.cfi_restore 3
 127              		.cfi_def_cfa_offset 12
 128              	LVL3:
 129 003f 5E       		popl	%esi	 #
 130              		.cfi_restore 6
 131              		.cfi_def_cfa_offset 8
 132              	LVL4:
 133 0040 5F       		popl	%edi	 #
 134              		.cfi_restore 7
 135              		.cfi_def_cfa_offset 4
 136              	LVL5:
 137              	LBB7:
 138              	LBB6:
 139              		.loc 1 287 0
 140 0041 E9000000 		jmp	_onFatalError	 #
 140      00
 141              	LVL6:
 142              	LBE6:
 143              	LBE7:
 144              		.cfi_endproc
 145              	LFE18:
 146              		.section .rdata,"dr"
 147              		.align 4
 148              	LC0:
 149 0000 2E2E2F66 		.ascii "../firmware/chibios/os/kernel/src/chdebug.c\0"
 149      69726D77 
 149      6172652F 
 149      63686962 
 149      696F732F 
 150              	LC1:
 151 002c 53562331 		.ascii "SV#1\0"
 151      00
 152              		.text
 153 0046 8D76008D 		.p2align 4,,15
 153      BC270000 
 153      0000
 154              		.globl	_dbg_check_disable
 155              		.def	_dbg_check_disable;	.scl	2;	.type	32;	.endef
 156              	_dbg_check_disable:
 157              	LFB7:
 158              		.loc 1 81 0
 159              		.cfi_startproc
GAS LISTING /cygdrive/c/DOCUME~1/andrey/LOCALS~1/Temp/cc8BE7z6.s 			page 4


 160 0050 83EC1C   		subl	$28, %esp	 #,
 161              		.cfi_def_cfa_offset 32
 162              		.loc 1 83 0
 163 0053 8B150000 		movl	_dbg_isr_cnt, %edx	 # dbg_isr_cnt,
 163      0000
 164 0059 85D2     		testl	%edx, %edx	 #
 165 005b 7509     		jne	L7	 #,
 166              		.loc 1 83 0 is_stmt 0 discriminator 1
 167 005d A1000000 		movl	_dbg_lock_cnt, %eax	 # dbg_lock_cnt,
 167      00
 168 0062 85C0     		testl	%eax, %eax	 #
 169 0064 741C     		je	L6	 #,
 170              	L7:
 171              		.loc 1 84 0 is_stmt 1
 172 0066 C7442408 		movl	$84, 8(%esp)	 #,
 172      54000000 
 173 006e C7442404 		movl	$LC0, 4(%esp)	 #,
 173      00000000 
 174 0076 C704242C 		movl	$LC1, (%esp)	 #,
 174      000000
 175 007d E87EFFFF 		call	_chDbgPanic	 #
 175      FF
 176              	LVL7:
 177              	L6:
 178              		.loc 1 85 0
 179 0082 83C41C   		addl	$28, %esp	 #,
 180              		.cfi_def_cfa_offset 4
 181 0085 C3       		ret
 182              		.cfi_endproc
 183              	LFE7:
 184              		.section .rdata,"dr"
 185              	LC2:
 186 0031 53562332 		.ascii "SV#2\0"
 186      00
 187              		.text
 188 0086 8D76008D 		.p2align 4,,15
 188      BC270000 
 188      0000
 189              		.globl	_dbg_check_suspend
 190              		.def	_dbg_check_suspend;	.scl	2;	.type	32;	.endef
 191              	_dbg_check_suspend:
 192              	LFB8:
 193              		.loc 1 92 0
 194              		.cfi_startproc
 195 0090 83EC1C   		subl	$28, %esp	 #,
 196              		.cfi_def_cfa_offset 32
 197              		.loc 1 94 0
 198 0093 A1000000 		movl	_dbg_isr_cnt, %eax	 # dbg_isr_cnt,
 198      00
 199 0098 85C0     		testl	%eax, %eax	 #
 200 009a 750A     		jne	L11	 #,
 201              		.loc 1 94 0 is_stmt 0 discriminator 1
 202 009c 8B0D0000 		movl	_dbg_lock_cnt, %ecx	 # dbg_lock_cnt,
 202      0000
 203 00a2 85C9     		testl	%ecx, %ecx	 #
 204 00a4 741C     		je	L10	 #,
 205              	L11:
GAS LISTING /cygdrive/c/DOCUME~1/andrey/LOCALS~1/Temp/cc8BE7z6.s 			page 5


 206              		.loc 1 95 0 is_stmt 1
 207 00a6 C7442408 		movl	$95, 8(%esp)	 #,
 207      5F000000 
 208 00ae C7442404 		movl	$LC0, 4(%esp)	 #,
 208      00000000 
 209 00b6 C7042431 		movl	$LC2, (%esp)	 #,
 209      000000
 210 00bd E83EFFFF 		call	_chDbgPanic	 #
 210      FF
 211              	LVL8:
 212              	L10:
 213              		.loc 1 96 0
 214 00c2 83C41C   		addl	$28, %esp	 #,
 215              		.cfi_def_cfa_offset 4
 216 00c5 C3       		ret
 217              		.cfi_endproc
 218              	LFE8:
 219              		.section .rdata,"dr"
 220              	LC3:
 221 0036 53562333 		.ascii "SV#3\0"
 221      00
 222              		.text
 223 00c6 8D76008D 		.p2align 4,,15
 223      BC270000 
 223      0000
 224              		.globl	_dbg_check_enable
 225              		.def	_dbg_check_enable;	.scl	2;	.type	32;	.endef
 226              	_dbg_check_enable:
 227              	LFB9:
 228              		.loc 1 103 0
 229              		.cfi_startproc
 230 00d0 83EC1C   		subl	$28, %esp	 #,
 231              		.cfi_def_cfa_offset 32
 232              		.loc 1 105 0
 233 00d3 A1000000 		movl	_dbg_isr_cnt, %eax	 # dbg_isr_cnt,
 233      00
 234 00d8 85C0     		testl	%eax, %eax	 #
 235 00da 7509     		jne	L15	 #,
 236              		.loc 1 105 0 is_stmt 0 discriminator 1
 237 00dc A1000000 		movl	_dbg_lock_cnt, %eax	 # dbg_lock_cnt,
 237      00
 238 00e1 85C0     		testl	%eax, %eax	 #
 239 00e3 741C     		je	L14	 #,
 240              	L15:
 241              		.loc 1 106 0 is_stmt 1
 242 00e5 C7442408 		movl	$106, 8(%esp)	 #,
 242      6A000000 
 243 00ed C7442404 		movl	$LC0, 4(%esp)	 #,
 243      00000000 
 244 00f5 C7042436 		movl	$LC3, (%esp)	 #,
 244      000000
 245 00fc E8FFFEFF 		call	_chDbgPanic	 #
 245      FF
 246              	LVL9:
 247              	L14:
 248              		.loc 1 107 0
 249 0101 83C41C   		addl	$28, %esp	 #,
GAS LISTING /cygdrive/c/DOCUME~1/andrey/LOCALS~1/Temp/cc8BE7z6.s 			page 6


 250              		.cfi_def_cfa_offset 4
 251 0104 C3       		ret
 252              		.cfi_endproc
 253              	LFE9:
 254              		.section .rdata,"dr"
 255              	LC4:
 256 003b 53562334 		.ascii "SV#4 misplaced chSysLock()\0"
 256      206D6973 
 256      706C6163 
 256      65642063 
 256      68537973 
 257              		.text
 258 0105 8D742600 		.p2align 4,,15
 258      8DBC2700 
 258      000000
 259              		.globl	_dbg_check_lock
 260              		.def	_dbg_check_lock;	.scl	2;	.type	32;	.endef
 261              	_dbg_check_lock:
 262              	LFB10:
 263              		.loc 1 114 0
 264              		.cfi_startproc
 265 0110 83EC1C   		subl	$28, %esp	 #,
 266              		.cfi_def_cfa_offset 32
 267              		.loc 1 116 0
 268 0113 A1000000 		movl	_dbg_isr_cnt, %eax	 # dbg_isr_cnt,
 268      00
 269 0118 85C0     		testl	%eax, %eax	 #
 270 011a 7509     		jne	L19	 #,
 271              		.loc 1 116 0 is_stmt 0 discriminator 1
 272 011c A1000000 		movl	_dbg_lock_cnt, %eax	 # dbg_lock_cnt,
 272      00
 273 0121 85C0     		testl	%eax, %eax	 #
 274 0123 741C     		je	L20	 #,
 275              	L19:
 276              		.loc 1 117 0 is_stmt 1
 277 0125 C7442408 		movl	$117, 8(%esp)	 #,
 277      75000000 
 278 012d C7442404 		movl	$LC0, 4(%esp)	 #,
 278      00000000 
 279 0135 C704243B 		movl	$LC4, (%esp)	 #,
 279      000000
 280 013c E8BFFEFF 		call	_chDbgPanic	 #
 280      FF
 281              	LVL10:
 282              	L20:
 283              		.loc 1 118 0
 284 0141 C7050000 		movl	$1, _dbg_lock_cnt	 #, dbg_lock_cnt
 284      00000100 
 284      0000
 285              		.loc 1 119 0
 286 014b 83C41C   		addl	$28, %esp	 #,
 287              		.cfi_def_cfa_offset 4
 288 014e C3       		ret
 289              		.cfi_endproc
 290              	LFE10:
 291              		.section .rdata,"dr"
 292              	LC5:
GAS LISTING /cygdrive/c/DOCUME~1/andrey/LOCALS~1/Temp/cc8BE7z6.s 			page 7


 293 0056 53562335 		.ascii "SV#5\0"
 293      00
 294              		.text
 295 014f 90       		.p2align 4,,15
 296              		.globl	_dbg_check_unlock
 297              		.def	_dbg_check_unlock;	.scl	2;	.type	32;	.endef
 298              	_dbg_check_unlock:
 299              	LFB11:
 300              		.loc 1 126 0
 301              		.cfi_startproc
 302 0150 83EC1C   		subl	$28, %esp	 #,
 303              		.cfi_def_cfa_offset 32
 304              		.loc 1 128 0
 305 0153 8B150000 		movl	_dbg_isr_cnt, %edx	 # dbg_isr_cnt,
 305      0000
 306 0159 85D2     		testl	%edx, %edx	 #
 307 015b 7517     		jne	L23	 #,
 308              		.loc 1 128 0 is_stmt 0 discriminator 1
 309 015d A1000000 		movl	_dbg_lock_cnt, %eax	 # dbg_lock_cnt,
 309      00
 310 0162 85C0     		testl	%eax, %eax	 #
 311 0164 7E0E     		jle	L23	 #,
 312              		.loc 1 130 0 is_stmt 1
 313 0166 C7050000 		movl	$0, _dbg_lock_cnt	 #, dbg_lock_cnt
 313      00000000 
 313      0000
 314              		.loc 1 131 0
 315 0170 83C41C   		addl	$28, %esp	 #,
 316              		.cfi_remember_state
 317              		.cfi_def_cfa_offset 4
 318 0173 C3       		ret
 319              		.p2align 4,,7
 320              	L23:
 321              		.cfi_restore_state
 322              		.loc 1 129 0
 323 0174 C7442408 		movl	$129, 8(%esp)	 #,
 323      81000000 
 324 017c C7442404 		movl	$LC0, 4(%esp)	 #,
 324      00000000 
 325 0184 C7042456 		movl	$LC5, (%esp)	 #,
 325      000000
 326 018b E870FEFF 		call	_chDbgPanic	 #
 326      FF
 327              	LVL11:
 328              		.loc 1 130 0
 329 0190 C7050000 		movl	$0, _dbg_lock_cnt	 #, dbg_lock_cnt
 329      00000000 
 329      0000
 330              		.loc 1 131 0
 331 019a 83C41C   		addl	$28, %esp	 #,
 332              		.cfi_def_cfa_offset 4
 333 019d C3       		ret
 334              		.cfi_endproc
 335              	LFE11:
 336              		.section .rdata,"dr"
 337 005b 00       		.align 4
 338              	LC6:
GAS LISTING /cygdrive/c/DOCUME~1/andrey/LOCALS~1/Temp/cc8BE7z6.s 			page 8


 339 005c 53562336 		.ascii "SV#6 misplaced chSysLockFromIsr\0"
 339      206D6973 
 339      706C6163 
 339      65642063 
 339      68537973 
 340              		.text
 341 019e 6690     		.p2align 4,,15
 342              		.globl	_dbg_check_lock_from_isr
 343              		.def	_dbg_check_lock_from_isr;	.scl	2;	.type	32;	.endef
 344              	_dbg_check_lock_from_isr:
 345              	LFB12:
 346              		.loc 1 138 0
 347              		.cfi_startproc
 348 01a0 83EC1C   		subl	$28, %esp	 #,
 349              		.cfi_def_cfa_offset 32
 350              		.loc 1 140 0
 351 01a3 A1000000 		movl	_dbg_isr_cnt, %eax	 # dbg_isr_cnt,
 351      00
 352 01a8 85C0     		testl	%eax, %eax	 #
 353 01aa 7E0A     		jle	L27	 #,
 354              		.loc 1 140 0 is_stmt 0 discriminator 1
 355 01ac 8B0D0000 		movl	_dbg_lock_cnt, %ecx	 # dbg_lock_cnt,
 355      0000
 356 01b2 85C9     		testl	%ecx, %ecx	 #
 357 01b4 741C     		je	L28	 #,
 358              	L27:
 359              		.loc 1 141 0 is_stmt 1
 360 01b6 C7442408 		movl	$141, 8(%esp)	 #,
 360      8D000000 
 361 01be C7442404 		movl	$LC0, 4(%esp)	 #,
 361      00000000 
 362 01c6 C704245C 		movl	$LC6, (%esp)	 #,
 362      000000
 363 01cd E82EFEFF 		call	_chDbgPanic	 #
 363      FF
 364              	LVL12:
 365              	L28:
 366              		.loc 1 142 0
 367 01d2 C7050000 		movl	$1, _dbg_lock_cnt	 #, dbg_lock_cnt
 367      00000100 
 367      0000
 368              		.loc 1 143 0
 369 01dc 83C41C   		addl	$28, %esp	 #,
 370              		.cfi_def_cfa_offset 4
 371 01df C3       		ret
 372              		.cfi_endproc
 373              	LFE12:
 374              		.section .rdata,"dr"
 375              	LC7:
 376 007c 53562337 		.ascii "SV#7\0"
 376      00
 377              		.text
 378              		.p2align 4,,15
 379              		.globl	_dbg_check_unlock_from_isr
 380              		.def	_dbg_check_unlock_from_isr;	.scl	2;	.type	32;	.endef
 381              	_dbg_check_unlock_from_isr:
 382              	LFB13:
GAS LISTING /cygdrive/c/DOCUME~1/andrey/LOCALS~1/Temp/cc8BE7z6.s 			page 9


 383              		.loc 1 150 0
 384              		.cfi_startproc
 385 01e0 83EC1C   		subl	$28, %esp	 #,
 386              		.cfi_def_cfa_offset 32
 387              		.loc 1 152 0
 388 01e3 A1000000 		movl	_dbg_isr_cnt, %eax	 # dbg_isr_cnt,
 388      00
 389 01e8 85C0     		testl	%eax, %eax	 #
 390 01ea 7E17     		jle	L31	 #,
 391              		.loc 1 152 0 is_stmt 0 discriminator 1
 392 01ec A1000000 		movl	_dbg_lock_cnt, %eax	 # dbg_lock_cnt,
 392      00
 393 01f1 85C0     		testl	%eax, %eax	 #
 394 01f3 7E0E     		jle	L31	 #,
 395              		.loc 1 154 0 is_stmt 1
 396 01f5 C7050000 		movl	$0, _dbg_lock_cnt	 #, dbg_lock_cnt
 396      00000000 
 396      0000
 397              		.loc 1 155 0
 398 01ff 83C41C   		addl	$28, %esp	 #,
 399              		.cfi_remember_state
 400              		.cfi_def_cfa_offset 4
 401 0202 C3       		ret
 402              		.p2align 4,,7
 403              	L31:
 404              		.cfi_restore_state
 405              		.loc 1 153 0
 406 0203 C7442408 		movl	$153, 8(%esp)	 #,
 406      99000000 
 407 020b C7442404 		movl	$LC0, 4(%esp)	 #,
 407      00000000 
 408 0213 C704247C 		movl	$LC7, (%esp)	 #,
 408      000000
 409 021a E8E1FDFF 		call	_chDbgPanic	 #
 409      FF
 410              	LVL13:
 411              		.loc 1 154 0
 412 021f C7050000 		movl	$0, _dbg_lock_cnt	 #, dbg_lock_cnt
 412      00000000 
 412      0000
 413              		.loc 1 155 0
 414 0229 83C41C   		addl	$28, %esp	 #,
 415              		.cfi_def_cfa_offset 4
 416 022c C3       		ret
 417              		.cfi_endproc
 418              	LFE13:
 419              		.section .rdata,"dr"
 420              	LC8:
 421 0081 53562338 		.ascii "SV#8\0"
 421      00
 422              		.text
 423 022d 8D7600   		.p2align 4,,15
 424              		.globl	_dbg_check_enter_isr
 425              		.def	_dbg_check_enter_isr;	.scl	2;	.type	32;	.endef
 426              	_dbg_check_enter_isr:
 427              	LFB14:
 428              		.loc 1 162 0
GAS LISTING /cygdrive/c/DOCUME~1/andrey/LOCALS~1/Temp/cc8BE7z6.s 			page 10


 429              		.cfi_startproc
 430 0230 83EC1C   		subl	$28, %esp	 #,
 431              		.cfi_def_cfa_offset 32
 432              		.loc 1 165 0
 433 0233 A1000000 		movl	_dbg_isr_cnt, %eax	 # dbg_isr_cnt, dbg_isr_cnt.14
 433      00
 434 0238 85C0     		testl	%eax, %eax	 # dbg_isr_cnt.14
 435 023a 780A     		js	L35	 #,
 436              		.loc 1 165 0 is_stmt 0 discriminator 1
 437 023c 8B150000 		movl	_dbg_lock_cnt, %edx	 # dbg_lock_cnt,
 437      0000
 438 0242 85D2     		testl	%edx, %edx	 #
 439 0244 7421     		je	L36	 #,
 440              	L35:
 441              		.loc 1 166 0 is_stmt 1
 442 0246 C7442408 		movl	$166, 8(%esp)	 #,
 442      A6000000 
 443 024e C7442404 		movl	$LC0, 4(%esp)	 #,
 443      00000000 
 444 0256 C7042481 		movl	$LC8, (%esp)	 #,
 444      000000
 445 025d E89EFDFF 		call	_chDbgPanic	 #
 445      FF
 446              	LVL14:
 447 0262 A1000000 		movl	_dbg_isr_cnt, %eax	 # dbg_isr_cnt, D.2201
 447      00
 448              	L36:
 449              		.loc 1 167 0
 450 0267 83C001   		addl	$1, %eax	 #, tmp63
 451 026a A3000000 		movl	%eax, _dbg_isr_cnt	 # tmp63, dbg_isr_cnt
 451      00
 452              		.loc 1 169 0
 453 026f 83C41C   		addl	$28, %esp	 #,
 454              		.cfi_def_cfa_offset 4
 455 0272 C3       		ret
 456              		.cfi_endproc
 457              	LFE14:
 458              		.section .rdata,"dr"
 459              	LC9:
 460 0086 53562339 		.ascii "SV#9\0"
 460      00
 461              		.text
 462 0273 8DB60000 		.p2align 4,,15
 462      00008DBC 
 462      27000000 
 462      00
 463              		.globl	_dbg_check_leave_isr
 464              		.def	_dbg_check_leave_isr;	.scl	2;	.type	32;	.endef
 465              	_dbg_check_leave_isr:
 466              	LFB15:
 467              		.loc 1 176 0
 468              		.cfi_startproc
 469 0280 83EC1C   		subl	$28, %esp	 #,
 470              		.cfi_def_cfa_offset 32
 471              		.loc 1 179 0
 472 0283 A1000000 		movl	_dbg_isr_cnt, %eax	 # dbg_isr_cnt, dbg_isr_cnt.17
 472      00
GAS LISTING /cygdrive/c/DOCUME~1/andrey/LOCALS~1/Temp/cc8BE7z6.s 			page 11


 473 0288 85C0     		testl	%eax, %eax	 # dbg_isr_cnt.17
 474 028a 7E0A     		jle	L40	 #,
 475              		.loc 1 179 0 is_stmt 0 discriminator 1
 476 028c 8B0D0000 		movl	_dbg_lock_cnt, %ecx	 # dbg_lock_cnt,
 476      0000
 477 0292 85C9     		testl	%ecx, %ecx	 #
 478 0294 7421     		je	L41	 #,
 479              	L40:
 480              		.loc 1 180 0 is_stmt 1
 481 0296 C7442408 		movl	$180, 8(%esp)	 #,
 481      B4000000 
 482 029e C7442404 		movl	$LC0, 4(%esp)	 #,
 482      00000000 
 483 02a6 C7042486 		movl	$LC9, (%esp)	 #,
 483      000000
 484 02ad E84EFDFF 		call	_chDbgPanic	 #
 484      FF
 485              	LVL15:
 486 02b2 A1000000 		movl	_dbg_isr_cnt, %eax	 # dbg_isr_cnt, D.2205
 486      00
 487              	L41:
 488              		.loc 1 181 0
 489 02b7 83E801   		subl	$1, %eax	 #, tmp63
 490 02ba A3000000 		movl	%eax, _dbg_isr_cnt	 # tmp63, dbg_isr_cnt
 490      00
 491              		.loc 1 183 0
 492 02bf 83C41C   		addl	$28, %esp	 #,
 493              		.cfi_def_cfa_offset 4
 494 02c2 C3       		ret
 495              		.cfi_endproc
 496              	LFE15:
 497              		.section .rdata,"dr"
 498 008b 00       		.align 4
 499              	LC10:
 500 008c 53562331 		.ascii "SV#10 misplaced I-class function\0"
 500      30206D69 
 500      73706C61 
 500      63656420 
 500      492D636C 
 501              		.text
 502 02c3 8DB60000 		.p2align 4,,15
 502      00008DBC 
 502      27000000 
 502      00
 503              		.globl	_chDbgCheckClassI
 504              		.def	_chDbgCheckClassI;	.scl	2;	.type	32;	.endef
 505              	_chDbgCheckClassI:
 506              	LFB16:
 507              		.loc 1 193 0
 508              		.cfi_startproc
 509 02d0 83EC1C   		subl	$28, %esp	 #,
 510              		.cfi_def_cfa_offset 32
 511              		.loc 1 195 0
 512 02d3 A1000000 		movl	_dbg_isr_cnt, %eax	 # dbg_isr_cnt,
 512      00
 513 02d8 85C0     		testl	%eax, %eax	 #
 514 02da 7814     		js	L45	 #,
GAS LISTING /cygdrive/c/DOCUME~1/andrey/LOCALS~1/Temp/cc8BE7z6.s 			page 12


 515              		.loc 1 195 0 is_stmt 0 discriminator 1
 516 02dc A1000000 		movl	_dbg_lock_cnt, %eax	 # dbg_lock_cnt,
 516      00
 517 02e1 85C0     		testl	%eax, %eax	 #
 518 02e3 7E0B     		jle	L45	 #,
 519              		.loc 1 197 0 is_stmt 1
 520 02e5 83C41C   		addl	$28, %esp	 #,
 521              		.cfi_remember_state
 522              		.cfi_def_cfa_offset 4
 523 02e8 C3       		ret
 524 02e9 8DB42600 		.p2align 4,,7
 524      000000
 525              	L45:
 526              		.cfi_restore_state
 527              		.loc 1 196 0
 528 02f0 C7442408 		movl	$196, 8(%esp)	 #,
 528      C4000000 
 529 02f8 C7442404 		movl	$LC0, 4(%esp)	 #,
 529      00000000 
 530 0300 C704248C 		movl	$LC10, (%esp)	 #,
 530      000000
 531 0307 E8F4FCFF 		call	_chDbgPanic	 #
 531      FF
 532              	LVL16:
 533              		.loc 1 197 0
 534 030c 83C41C   		addl	$28, %esp	 #,
 535              		.cfi_def_cfa_offset 4
 536 030f C3       		ret
 537              		.cfi_endproc
 538              	LFE16:
 539              		.section .rdata,"dr"
 540              	LC11:
 541 00ad 53562331 		.ascii "SV#11\0"
 541      3100
 542 00b3 00       		.text
 543              		.p2align 4,,15
 544              		.globl	_chDbgCheckClassS
 545              		.def	_chDbgCheckClassS;	.scl	2;	.type	32;	.endef
 546              	_chDbgCheckClassS:
 547              	LFB17:
 548              		.loc 1 207 0
 549              		.cfi_startproc
 550 0310 83EC1C   		subl	$28, %esp	 #,
 551              		.cfi_def_cfa_offset 32
 552              		.loc 1 209 0
 553 0313 A1000000 		movl	_dbg_isr_cnt, %eax	 # dbg_isr_cnt,
 553      00
 554 0318 85C0     		testl	%eax, %eax	 #
 555 031a 7514     		jne	L49	 #,
 556              		.loc 1 209 0 is_stmt 0 discriminator 1
 557 031c A1000000 		movl	_dbg_lock_cnt, %eax	 # dbg_lock_cnt,
 557      00
 558 0321 85C0     		testl	%eax, %eax	 #
 559 0323 7E0B     		jle	L49	 #,
 560              		.loc 1 211 0 is_stmt 1
 561 0325 83C41C   		addl	$28, %esp	 #,
 562              		.cfi_remember_state
GAS LISTING /cygdrive/c/DOCUME~1/andrey/LOCALS~1/Temp/cc8BE7z6.s 			page 13


 563              		.cfi_def_cfa_offset 4
 564 0328 C3       		ret
 565 0329 8DB42600 		.p2align 4,,7
 565      000000
 566              	L49:
 567              		.cfi_restore_state
 568              		.loc 1 210 0
 569 0330 C7442408 		movl	$210, 8(%esp)	 #,
 569      D2000000 
 570 0338 C7442404 		movl	$LC0, 4(%esp)	 #,
 570      00000000 
 571 0340 C70424AD 		movl	$LC11, (%esp)	 #,
 571      000000
 572 0347 E8B4FCFF 		call	_chDbgPanic	 #
 572      FF
 573              	LVL17:
 574              		.loc 1 211 0
 575 034c 83C41C   		addl	$28, %esp	 #,
 576              		.cfi_def_cfa_offset 4
 577 034f C3       		ret
 578              		.cfi_endproc
 579              	LFE17:
 580              		.comm	_dbg_panic_line, 4, 2
 581              		.comm	_dbg_panic_file, 4, 2
 582              		.comm	_dbg_panic_msg, 4, 2
 583              		.comm	_dbg_lock_cnt, 4, 2
 584              		.comm	_dbg_isr_cnt, 4, 2
 585              	Letext0:
 586              		.file 2 "/usr/include/stdint.h"
 587              		.file 3 "../firmware/chibios/os/ports/GCC/SIMIA32/chtypes.h"