GAS LISTING /cygdrive/c/DOCUME~1/andrey/LOCALS~1/Temp/cchbppHR.s 			page 1


   1              		.file	"chevents.c"
   2              	 # GNU C (GCC) version 4.8.2 (i686-pc-cygwin)
   3              	 #	compiled by GNU C version 4.8.2, GMP version 5.1.3, MPFR version 3.1.2, MPC version 1.0.1
   4              	 # GGC heuristics: --param ggc-min-expand=100 --param ggc-min-heapsize=131072
   5              	 # options passed:  -I . -I ../firmware/chibios/os/ports/GCC/SIMIA32
   6              	 # -I ../firmware/chibios/os/kernel/include
   7              	 # -I ../firmware/chibios/os/hal/include
   8              	 # -I ../firmware/chibios/os/hal/platforms/Win32
   9              	 # -I ../firmware/chibios/boards/simulator -I ../firmware/util
  10              	 # -I ../firmware/console -I ../firmware/console_util
  11              	 # -I ../firmware/config/engines -I ../firmware/ext_algo
  12              	 # -I ../firmware/controllers/sensors -I ../firmware/controllers/system
  13              	 # -I ../firmware/controllers/algo -I ../firmware/controllers/math
  14              	 # -I ../firmware/controllers/trigger -I ../firmware/chibios/os/various
  15              	 # -MD ../firmware/chibios/os/kernel/src/chevents.d -MF .dep/chevents.o.d
  16              	 # -MP -MQ ../firmware/chibios/os/kernel/src/chevents.o -Dunix
  17              	 # -idirafter /usr/lib/gcc/i686-pc-cygwin/4.8.2/../../../../include/w32api
  18              	 # -idirafter ../../include/w32api -D SIMULATOR -D SHELL_USE_IPRINTF=FALSE
  19              	 # ../firmware/chibios/os/kernel/src/chevents.c -mtune=generic -march=i686
  20              	 # -auxbase-strip ../firmware/chibios/os/kernel/src/chevents.o -ggdb -O2
  21              	 # -Wall -Wextra -Wstrict-prototypes -std=gnu99 -fomit-frame-pointer
  22              	 # -fgnu89-inline -fverbose-asm
  23              	 # options enabled:  -faggressive-loop-optimizations
  24              	 # -fasynchronous-unwind-tables -fauto-inc-dec -fbranch-count-reg
  25              	 # -fcaller-saves -fcombine-stack-adjustments -fcommon -fcompare-elim
  26              	 # -fcprop-registers -fcrossjumping -fcse-follow-jumps -fdefer-pop
  27              	 # -fdelete-null-pointer-checks -fdevirtualize -fdwarf2-cfi-asm
  28              	 # -fearly-inlining -feliminate-unused-debug-types
  29              	 # -fexpensive-optimizations -fforward-propagate -ffunction-cse -fgcse
  30              	 # -fgcse-lm -fgnu-runtime -fguess-branch-probability
  31              	 # -fhoist-adjacent-loads -fident -fif-conversion -fif-conversion2
  32              	 # -findirect-inlining -finline -finline-atomics
  33              	 # -finline-functions-called-once -finline-small-functions -fipa-cp
  34              	 # -fipa-profile -fipa-pure-const -fipa-reference -fipa-sra
  35              	 # -fira-hoist-pressure -fira-share-save-slots -fira-share-spill-slots
  36              	 # -fivopts -fkeep-inline-dllexport -fkeep-static-consts
  37              	 # -fleading-underscore -fmath-errno -fmerge-constants
  38              	 # -fmerge-debug-strings -fmove-loop-invariants -fomit-frame-pointer
  39              	 # -foptimize-register-move -foptimize-sibling-calls -foptimize-strlen
  40              	 # -fpartial-inlining -fpeephole -fpeephole2 -fprefetch-loop-arrays -free
  41              	 # -freg-struct-return -fregmove -freorder-blocks -freorder-functions
  42              	 # -frerun-cse-after-loop -fsched-critical-path-heuristic
  43              	 # -fsched-dep-count-heuristic -fsched-group-heuristic -fsched-interblock
  44              	 # -fsched-last-insn-heuristic -fsched-rank-heuristic -fsched-spec
  45              	 # -fsched-spec-insn-heuristic -fsched-stalled-insns-dep -fschedule-insns2
  46              	 # -fset-stack-executable -fshow-column -fshrink-wrap -fsigned-zeros
  47              	 # -fsplit-ivs-in-unroller -fsplit-wide-types -fstrict-aliasing
  48              	 # -fstrict-overflow -fstrict-volatile-bitfields -fsync-libcalls
  49              	 # -fthread-jumps -ftoplevel-reorder -ftrapping-math -ftree-bit-ccp
  50              	 # -ftree-builtin-call-dce -ftree-ccp -ftree-ch -ftree-coalesce-vars
  51              	 # -ftree-copy-prop -ftree-copyrename -ftree-cselim -ftree-dce
  52              	 # -ftree-dominator-opts -ftree-dse -ftree-forwprop -ftree-fre
  53              	 # -ftree-loop-if-convert -ftree-loop-im -ftree-loop-ivcanon
  54              	 # -ftree-loop-optimize -ftree-parallelize-loops= -ftree-phiprop -ftree-pre
  55              	 # -ftree-pta -ftree-reassoc -ftree-scev-cprop -ftree-sink
  56              	 # -ftree-slp-vectorize -ftree-slsr -ftree-sra -ftree-switch-conversion
  57              	 # -ftree-tail-merge -ftree-ter -ftree-vect-loop-version -ftree-vrp
GAS LISTING /cygdrive/c/DOCUME~1/andrey/LOCALS~1/Temp/cchbppHR.s 			page 2


  58              	 # -funit-at-a-time -funwind-tables -fvar-tracking
  59              	 # -fvar-tracking-assignments -fverbose-asm -fzero-initialized-in-bss -m32
  60              	 # -m80387 -m96bit-long-double -maccumulate-outgoing-args -malign-double
  61              	 # -malign-stringops -mfancy-math-387 -mfp-ret-in-387 -mieee-fp
  62              	 # -mlong-double-80 -mno-red-zone -mno-sse4 -mpush-args -msahf
  63              	 # -mstack-arg-probe
  64              	
  65              		.text
  66              	Ltext0:
  67              		.section .rdata,"dr"
  68              		.align 4
  69              	LC0:
  70 0000 2E2E2F66 		.ascii "../firmware/chibios/os/kernel/src/chevents.c\0"
  70      69726D77 
  70      6172652F 
  70      63686962 
  70      696F732F 
  71              	LC1:
  72 002d 22636845 		.ascii "\"chEvtRegisterMask\"()\0"
  72      76745265 
  72      67697374 
  72      65724D61 
  72      736B2228 
  73              		.text
  74              		.p2align 4,,15
  75              		.globl	_chEvtRegisterMask
  76              		.def	_chEvtRegisterMask;	.scl	2;	.type	32;	.endef
  77              	_chEvtRegisterMask:
  78              	LFB7:
  79              		.file 1 "../firmware/chibios/os/kernel/src/chevents.c"
  80              		.loc 1 85 0
  81              		.cfi_startproc
  82              	LVL0:
  83 0000 56       		pushl	%esi	 #
  84              		.cfi_def_cfa_offset 8
  85              		.cfi_offset 6, -8
  86 0001 53       		pushl	%ebx	 #
  87              		.cfi_def_cfa_offset 12
  88              		.cfi_offset 3, -12
  89 0002 83EC14   		subl	$20, %esp	 #,
  90              		.cfi_def_cfa_offset 32
  91              		.loc 1 85 0
  92 0005 8B742420 		movl	32(%esp), %esi	 # esp, esp
  93 0009 8B5C2424 		movl	36(%esp), %ebx	 # elp, elp
  94              		.loc 1 87 0
  95 000d 85F6     		testl	%esi, %esi	 # esp
  96 000f 7432     		je	L4	 #,
  97 0011 85DB     		testl	%ebx, %ebx	 # elp
  98 0013 742E     		je	L4	 #,
  99              	L2:
 100              		.loc 1 89 0
 101              	/APP
 102              	 # 89 "../firmware/chibios/os/kernel/src/chevents.c" 1
 103 0015 90       		nop
 104              	 # 0 "" 2
 105              	/NO_APP
 106 0016 E8000000 		call	_dbg_check_lock	 #
GAS LISTING /cygdrive/c/DOCUME~1/andrey/LOCALS~1/Temp/cchbppHR.s 			page 3


 106      00
 107              	LVL1:
 108              		.loc 1 90 0
 109 001b 8B06     		movl	(%esi), %eax	 # esp_2(D)->es_next, esp_2(D)->es_next
 110 001d 8903     		movl	%eax, (%ebx)	 # esp_2(D)->es_next, elp_4(D)->el_next
 111              		.loc 1 92 0
 112 001f A1180000 		movl	_rlist+24, %eax	 # rlist.r_current, rlist.r_current
 112      00
 113              		.loc 1 91 0
 114 0024 891E     		movl	%ebx, (%esi)	 # elp, esp_2(D)->es_next
 115              		.loc 1 94 0
 116 0026 C7430C00 		movl	$0, 12(%ebx)	 #, elp_4(D)->el_flags
 116      000000
 117              		.loc 1 92 0
 118 002d 894304   		movl	%eax, 4(%ebx)	 # rlist.r_current, elp_4(D)->el_listener
 119              		.loc 1 93 0
 120 0030 8B442428 		movl	40(%esp), %eax	 # mask, mask
 121 0034 894308   		movl	%eax, 8(%ebx)	 # mask, elp_4(D)->el_mask
 122              		.loc 1 95 0
 123 0037 E8000000 		call	_dbg_check_unlock	 #
 123      00
 124              	LVL2:
 125              	/APP
 126              	 # 95 "../firmware/chibios/os/kernel/src/chevents.c" 1
 127 003c 90       		nop
 128              	 # 0 "" 2
 129              		.loc 1 96 0
 130              	/NO_APP
 131 003d 83C414   		addl	$20, %esp	 #,
 132              		.cfi_remember_state
 133              		.cfi_def_cfa_offset 12
 134 0040 5B       		popl	%ebx	 #
 135              		.cfi_restore 3
 136              		.cfi_def_cfa_offset 8
 137 0041 5E       		popl	%esi	 #
 138              		.cfi_restore 6
 139              		.cfi_def_cfa_offset 4
 140 0042 C3       		ret
 141              		.p2align 4,,7
 142              	L4:
 143              		.cfi_restore_state
 144              		.loc 1 87 0 discriminator 1
 145 0043 C7442408 		movl	$87, 8(%esp)	 #,
 145      57000000 
 146 004b C7442404 		movl	$LC0, 4(%esp)	 #,
 146      00000000 
 147 0053 C704242D 		movl	$LC1, (%esp)	 #,
 147      000000
 148 005a E8000000 		call	_chDbgPanic	 #
 148      00
 149              	LVL3:
 150 005f EBB4     		jmp	L2	 #
 151              		.cfi_endproc
 152              	LFE7:
 153              		.section .rdata,"dr"
 154              	LC2:
 155 0043 22636845 		.ascii "\"chEvtUnregister\"()\0"
GAS LISTING /cygdrive/c/DOCUME~1/andrey/LOCALS~1/Temp/cchbppHR.s 			page 4


 155      7674556E 
 155      72656769 
 155      73746572 
 155      22282900 
 156              		.text
 157 0061 EB0D9090 		.p2align 4,,15
 157      90909090 
 157      90909090 
 157      909090
 158              		.globl	_chEvtUnregister
 159              		.def	_chEvtUnregister;	.scl	2;	.type	32;	.endef
 160              	_chEvtUnregister:
 161              	LFB8:
 162              		.loc 1 111 0
 163              		.cfi_startproc
 164              	LVL4:
 165 0070 56       		pushl	%esi	 #
 166              		.cfi_def_cfa_offset 8
 167              		.cfi_offset 6, -8
 168 0071 53       		pushl	%ebx	 #
 169              		.cfi_def_cfa_offset 12
 170              		.cfi_offset 3, -12
 171 0072 83EC14   		subl	$20, %esp	 #,
 172              		.cfi_def_cfa_offset 32
 173              		.loc 1 111 0
 174 0075 8B5C2420 		movl	32(%esp), %ebx	 # esp, esp
 175 0079 8B742424 		movl	36(%esp), %esi	 # elp, elp
 176              		.loc 1 114 0
 177 007d 85DB     		testl	%ebx, %ebx	 # esp
 178 007f 7435     		je	L17	 #,
 179 0081 85F6     		testl	%esi, %esi	 # elp
 180 0083 7431     		je	L17	 #,
 181              	L11:
 182              	LVL5:
 183              		.loc 1 117 0
 184              	/APP
 185              	 # 117 "../firmware/chibios/os/kernel/src/chevents.c" 1
 186 0085 90       		nop
 187              	 # 0 "" 2
 188              	/NO_APP
 189 0086 E8000000 		call	_dbg_check_lock	 #
 189      00
 190              	LVL6:
 191              		.loc 1 118 0
 192 008b 89DA     		movl	%ebx, %edx	 # esp, esp
 193 008d 8D7600   		.p2align 4,,4
 194 0090 EB06     		jmp	L13	 #
 195              	LVL7:
 196              		.p2align 4,,7
 197              	L16:
 198              		.loc 1 119 0
 199 0092 39C6     		cmpl	%eax, %esi	 # esp, elp
 200 0094 741A     		je	L22	 #,
 201 0096 89C2     		movl	%eax, %edx	 # esp, esp
 202              	LVL8:
 203              	L13:
 204              		.loc 1 118 0 discriminator 1
GAS LISTING /cygdrive/c/DOCUME~1/andrey/LOCALS~1/Temp/cchbppHR.s 			page 5


 205 0098 8B02     		movl	(%edx), %eax	 # MEM[(struct EventListener *)esp_1].el_next, esp
 206 009a 39D8     		cmpl	%ebx, %eax	 # esp, esp
 207 009c 75F4     		jne	L16	 #,
 208              	L15:
 209              		.loc 1 125 0
 210 009e E8000000 		call	_dbg_check_unlock	 #
 210      00
 211              	LVL9:
 212              	/APP
 213              	 # 125 "../firmware/chibios/os/kernel/src/chevents.c" 1
 214 00a3 90       		nop
 215              	 # 0 "" 2
 216              		.loc 1 126 0
 217              	/NO_APP
 218 00a4 83C414   		addl	$20, %esp	 #,
 219              		.cfi_remember_state
 220              		.cfi_def_cfa_offset 12
 221 00a7 5B       		popl	%ebx	 #
 222              		.cfi_restore 3
 223              		.cfi_def_cfa_offset 8
 224 00a8 5E       		popl	%esi	 #
 225              		.cfi_restore 6
 226              		.cfi_def_cfa_offset 4
 227 00a9 C3       		ret
 228              	LVL10:
 229 00aa 8DB60000 		.p2align 4,,7
 229      0000
 230              	L22:
 231              		.cfi_restore_state
 232              		.loc 1 120 0
 233 00b0 8B06     		movl	(%esi), %eax	 # elp_6(D)->el_next, D.2284
 234 00b2 8902     		movl	%eax, (%edx)	 # D.2284, MEM[(struct EventListener *)esp_16].el_next
 235              		.loc 1 121 0
 236 00b4 EBE8     		jmp	L15	 #
 237              	LVL11:
 238              		.p2align 4,,7
 239              	L17:
 240              		.loc 1 114 0 discriminator 1
 241 00b6 C7442408 		movl	$114, 8(%esp)	 #,
 241      72000000 
 242 00be C7442404 		movl	$LC0, 4(%esp)	 #,
 242      00000000 
 243 00c6 C7042443 		movl	$LC2, (%esp)	 #,
 243      000000
 244 00cd E8000000 		call	_chDbgPanic	 #
 244      00
 245              	LVL12:
 246 00d2 EBB1     		jmp	L11	 #
 247              		.cfi_endproc
 248              	LFE8:
 249 00d4 8DB60000 		.p2align 4,,15
 249      00008DBF 
 249      00000000 
 250              		.globl	_chEvtGetAndClearEvents
 251              		.def	_chEvtGetAndClearEvents;	.scl	2;	.type	32;	.endef
 252              	_chEvtGetAndClearEvents:
 253              	LFB9:
GAS LISTING /cygdrive/c/DOCUME~1/andrey/LOCALS~1/Temp/cchbppHR.s 			page 6


 254              		.loc 1 136 0
 255              		.cfi_startproc
 256              	LVL13:
 257 00e0 57       		pushl	%edi	 #
 258              		.cfi_def_cfa_offset 8
 259              		.cfi_offset 7, -8
 260 00e1 56       		pushl	%esi	 #
 261              		.cfi_def_cfa_offset 12
 262              		.cfi_offset 6, -12
 263 00e2 53       		pushl	%ebx	 #
 264              		.cfi_def_cfa_offset 16
 265              		.cfi_offset 3, -16
 266              		.loc 1 136 0
 267 00e3 8B5C2410 		movl	16(%esp), %ebx	 # mask, mask
 268              		.loc 1 139 0
 269              	/APP
 270              	 # 139 "../firmware/chibios/os/kernel/src/chevents.c" 1
 271 00e7 90       		nop
 272              	 # 0 "" 2
 273              	/NO_APP
 274 00e8 E8000000 		call	_dbg_check_lock	 #
 274      00
 275              	LVL14:
 276              		.loc 1 141 0
 277 00ed 8B0D1800 		movl	_rlist+24, %ecx	 # rlist.r_current, D.2288
 277      0000
 278              		.loc 1 142 0
 279 00f3 89DA     		movl	%ebx, %edx	 # mask, tmp68
 280 00f5 F7D2     		notl	%edx	 # tmp68
 281              		.loc 1 141 0
 282 00f7 89DF     		movl	%ebx, %edi	 # mask, m
 283 00f9 8B7138   		movl	56(%ecx), %esi	 # _3->p_epending, D.2289
 284              		.loc 1 142 0
 285 00fc 21F2     		andl	%esi, %edx	 # D.2289, tmp68
 286              		.loc 1 141 0
 287 00fe 21F7     		andl	%esi, %edi	 # D.2289, m
 288              	LVL15:
 289              		.loc 1 142 0
 290 0100 895138   		movl	%edx, 56(%ecx)	 # tmp68, _3->p_epending
 291              		.loc 1 144 0
 292 0103 E8000000 		call	_dbg_check_unlock	 #
 292      00
 293              	LVL16:
 294              	/APP
 295              	 # 144 "../firmware/chibios/os/kernel/src/chevents.c" 1
 296 0108 90       		nop
 297              	 # 0 "" 2
 298              		.loc 1 146 0
 299              	/NO_APP
 300 0109 89F8     		movl	%edi, %eax	 # m,
 301 010b 5B       		popl	%ebx	 #
 302              		.cfi_restore 3
 303              		.cfi_def_cfa_offset 12
 304 010c 5E       		popl	%esi	 #
 305              		.cfi_restore 6
 306              		.cfi_def_cfa_offset 8
 307 010d 5F       		popl	%edi	 #
GAS LISTING /cygdrive/c/DOCUME~1/andrey/LOCALS~1/Temp/cchbppHR.s 			page 7


 308              		.cfi_restore 7
 309              		.cfi_def_cfa_offset 4
 310              	LVL17:
 311 010e C3       		ret
 312              		.cfi_endproc
 313              	LFE9:
 314 010f 90       		.p2align 4,,15
 315              		.globl	_chEvtAddEvents
 316              		.def	_chEvtAddEvents;	.scl	2;	.type	32;	.endef
 317              	_chEvtAddEvents:
 318              	LFB10:
 319              		.loc 1 157 0
 320              		.cfi_startproc
 321              	LVL18:
 322 0110 53       		pushl	%ebx	 #
 323              		.cfi_def_cfa_offset 8
 324              		.cfi_offset 3, -8
 325 0111 83EC08   		subl	$8, %esp	 #,
 326              		.cfi_def_cfa_offset 16
 327              		.loc 1 157 0
 328 0114 8B5C2410 		movl	16(%esp), %ebx	 # mask, D.2293
 329              		.loc 1 159 0
 330              	/APP
 331              	 # 159 "../firmware/chibios/os/kernel/src/chevents.c" 1
 332 0118 90       		nop
 333              	 # 0 "" 2
 334              	/NO_APP
 335 0119 E8000000 		call	_dbg_check_lock	 #
 335      00
 336              	LVL19:
 337              		.loc 1 161 0
 338 011e A1180000 		movl	_rlist+24, %eax	 # rlist.r_current, D.2292
 338      00
 339 0123 0B5838   		orl	56(%eax), %ebx	 # _3->p_epending, D.2293
 340 0126 895838   		movl	%ebx, 56(%eax)	 # D.2293, _3->p_epending
 341              	LVL20:
 342              		.loc 1 163 0
 343 0129 E8000000 		call	_dbg_check_unlock	 #
 343      00
 344              	LVL21:
 345              	/APP
 346              	 # 163 "../firmware/chibios/os/kernel/src/chevents.c" 1
 347 012e 90       		nop
 348              	 # 0 "" 2
 349              		.loc 1 165 0
 350              	/NO_APP
 351 012f 83C408   		addl	$8, %esp	 #,
 352              		.cfi_def_cfa_offset 8
 353 0132 89D8     		movl	%ebx, %eax	 # D.2293,
 354 0134 5B       		popl	%ebx	 #
 355              		.cfi_restore 3
 356              		.cfi_def_cfa_offset 4
 357              	LVL22:
 358 0135 C3       		ret
 359              		.cfi_endproc
 360              	LFE10:
 361 0136 8D76008D 		.p2align 4,,15
GAS LISTING /cygdrive/c/DOCUME~1/andrey/LOCALS~1/Temp/cchbppHR.s 			page 8


 361      BC270000 
 361      0000
 362              		.globl	_chEvtGetAndClearFlags
 363              		.def	_chEvtGetAndClearFlags;	.scl	2;	.type	32;	.endef
 364              	_chEvtGetAndClearFlags:
 365              	LFB12:
 366              		.loc 1 209 0
 367              		.cfi_startproc
 368              	LVL23:
 369 0140 56       		pushl	%esi	 #
 370              		.cfi_def_cfa_offset 8
 371              		.cfi_offset 6, -8
 372 0141 53       		pushl	%ebx	 #
 373              		.cfi_def_cfa_offset 12
 374              		.cfi_offset 3, -12
 375 0142 83EC04   		subl	$4, %esp	 #,
 376              		.cfi_def_cfa_offset 16
 377              		.loc 1 209 0
 378 0145 8B5C2410 		movl	16(%esp), %ebx	 # elp, elp
 379              		.loc 1 212 0
 380              	/APP
 381              	 # 212 "../firmware/chibios/os/kernel/src/chevents.c" 1
 382 0149 90       		nop
 383              	 # 0 "" 2
 384              	/NO_APP
 385 014a E8000000 		call	_dbg_check_lock	 #
 385      00
 386              	LVL24:
 387              		.loc 1 214 0
 388 014f 8B730C   		movl	12(%ebx), %esi	 # elp_3(D)->el_flags, flags
 389              	LVL25:
 390              		.loc 1 215 0
 391 0152 C7430C00 		movl	$0, 12(%ebx)	 #, elp_3(D)->el_flags
 391      000000
 392              		.loc 1 217 0
 393 0159 E8000000 		call	_dbg_check_unlock	 #
 393      00
 394              	LVL26:
 395              	/APP
 396              	 # 217 "../firmware/chibios/os/kernel/src/chevents.c" 1
 397 015e 90       		nop
 398              	 # 0 "" 2
 399              		.loc 1 219 0
 400              	/NO_APP
 401 015f 83C404   		addl	$4, %esp	 #,
 402              		.cfi_def_cfa_offset 12
 403 0162 89F0     		movl	%esi, %eax	 # flags,
 404 0164 5B       		popl	%ebx	 #
 405              		.cfi_restore 3
 406              		.cfi_def_cfa_offset 8
 407 0165 5E       		popl	%esi	 #
 408              		.cfi_restore 6
 409              		.cfi_def_cfa_offset 4
 410              	LVL27:
 411 0166 C3       		ret
 412              		.cfi_endproc
 413              	LFE12:
GAS LISTING /cygdrive/c/DOCUME~1/andrey/LOCALS~1/Temp/cchbppHR.s 			page 9


 414              		.section .rdata,"dr"
 415              	LC3:
 416 0057 22636845 		.ascii "\"chEvtSignalI\"()\0"
 416      76745369 
 416      676E616C 
 416      49222829 
 416      00
 417              		.text
 418 0167 89F68DBC 		.p2align 4,,15
 418      27000000 
 418      00
 419              		.globl	_chEvtSignalI
 420              		.def	_chEvtSignalI;	.scl	2;	.type	32;	.endef
 421              	_chEvtSignalI:
 422              	LFB14:
 423              		.loc 1 251 0
 424              		.cfi_startproc
 425              	LVL28:
 426 0170 53       		pushl	%ebx	 #
 427              		.cfi_def_cfa_offset 8
 428              		.cfi_offset 3, -8
 429 0171 83EC18   		subl	$24, %esp	 #,
 430              		.cfi_def_cfa_offset 32
 431              		.loc 1 251 0
 432 0174 8B5C2420 		movl	32(%esp), %ebx	 # tp, tp
 433              		.loc 1 253 0
 434 0178 E8000000 		call	_chDbgCheckClassI	 #
 434      00
 435              	LVL29:
 436              		.loc 1 254 0
 437 017d 85DB     		testl	%ebx, %ebx	 # tp
 438 017f 7455     		je	L36	 #,
 439              	L30:
 440              		.loc 1 258 0
 441 0181 0FB6431C 		movzbl	28(%ebx), %eax	 # tp_4(D)->p_state, D.2301
 442              		.loc 1 256 0
 443 0185 8B542424 		movl	36(%esp), %edx	 # mask, mask
 444 0189 0B5338   		orl	56(%ebx), %edx	 # tp_4(D)->p_epending, D.2300
 445              		.loc 1 258 0
 446 018c 3C08     		cmpb	$8, %al	 #, D.2301
 447              		.loc 1 256 0
 448 018e 895338   		movl	%edx, 56(%ebx)	 # D.2300, tp_4(D)->p_epending
 449              		.loc 1 258 0
 450 0191 742D     		je	L37	 #,
 451              		.loc 1 259 0
 452 0193 3C09     		cmpb	$9, %al	 #, D.2301
 453 0195 7409     		je	L38	 #,
 454              	L29:
 455              		.loc 1 263 0
 456 0197 83C418   		addl	$24, %esp	 #,
 457              		.cfi_remember_state
 458              		.cfi_def_cfa_offset 8
 459 019a 5B       		popl	%ebx	 #
 460              		.cfi_restore 3
 461              		.cfi_def_cfa_offset 4
 462 019b C3       		ret
 463 019c 8D742600 		.p2align 4,,7
GAS LISTING /cygdrive/c/DOCUME~1/andrey/LOCALS~1/Temp/cchbppHR.s 			page 10


 464              	L38:
 465              		.cfi_restore_state
 466              		.loc 1 261 0
 467 01a0 8B4324   		movl	36(%ebx), %eax	 # tp_4(D)->p_u.ewmask, D.2300
 468 01a3 21C2     		andl	%eax, %edx	 # D.2300, D.2300
 469              		.loc 1 260 0
 470 01a5 39D0     		cmpl	%edx, %eax	 # D.2300, D.2300
 471 01a7 75EE     		jne	L29	 #,
 472              	LVL30:
 473              	LBB4:
 474              	LBB5:
 475              		.loc 1 262 0
 476 01a9 891C24   		movl	%ebx, (%esp)	 # tp,
 477 01ac E8000000 		call	_chSchReadyI	 #
 477      00
 478              	LVL31:
 479 01b1 C7402400 		movl	$0, 36(%eax)	 #, _17->p_u.rdymsg
 479      000000
 480              	L39:
 481              	LBE5:
 482              	LBE4:
 483              		.loc 1 263 0
 484 01b8 83C418   		addl	$24, %esp	 #,
 485              		.cfi_remember_state
 486              		.cfi_def_cfa_offset 8
 487 01bb 5B       		popl	%ebx	 #
 488              		.cfi_restore 3
 489              		.cfi_def_cfa_offset 4
 490              	LVL32:
 491 01bc C3       		ret
 492              	LVL33:
 493 01bd 8D7600   		.p2align 4,,7
 494              	L37:
 495              		.cfi_restore_state
 496              		.loc 1 258 0 discriminator 1
 497 01c0 855324   		testl	%edx, 36(%ebx)	 # D.2300, tp_4(D)->p_u.ewmask
 498 01c3 74D2     		je	L29	 #,
 499              	LVL34:
 500              	LBB7:
 501              	LBB6:
 502              		.loc 1 262 0
 503 01c5 891C24   		movl	%ebx, (%esp)	 # tp,
 504 01c8 E8000000 		call	_chSchReadyI	 #
 504      00
 505              	LVL35:
 506 01cd C7402400 		movl	$0, 36(%eax)	 #, _17->p_u.rdymsg
 506      000000
 507 01d4 EBE2     		jmp	L39	 #
 508              	LVL36:
 509              		.p2align 4,,7
 510              	L36:
 511              	LBE6:
 512              	LBE7:
 513              		.loc 1 254 0 discriminator 1
 514 01d6 C7442408 		movl	$254, 8(%esp)	 #,
 514      FE000000 
 515 01de C7442404 		movl	$LC0, 4(%esp)	 #,
GAS LISTING /cygdrive/c/DOCUME~1/andrey/LOCALS~1/Temp/cchbppHR.s 			page 11


 515      00000000 
 516 01e6 C7042457 		movl	$LC3, (%esp)	 #,
 516      000000
 517 01ed E8000000 		call	_chDbgPanic	 #
 517      00
 518              	LVL37:
 519 01f2 EB8D     		jmp	L30	 #
 520              		.cfi_endproc
 521              	LFE14:
 522              		.section .rdata,"dr"
 523              	LC4:
 524 0068 22636845 		.ascii "\"chEvtBroadcastMaskI\"()\0"
 524      76744272 
 524      6F616463 
 524      6173744D 
 524      61736B49 
 525              		.text
 526 01f4 8DB60000 		.p2align 4,,15
 526      00008DBF 
 526      00000000 
 527              		.globl	_chEvtBroadcastFlagsI
 528              		.def	_chEvtBroadcastFlagsI;	.scl	2;	.type	32;	.endef
 529              	_chEvtBroadcastFlagsI:
 530              	LFB11:
 531              		.loc 1 184 0
 532              		.cfi_startproc
 533              	LVL38:
 534 0200 57       		pushl	%edi	 #
 535              		.cfi_def_cfa_offset 8
 536              		.cfi_offset 7, -8
 537 0201 56       		pushl	%esi	 #
 538              		.cfi_def_cfa_offset 12
 539              		.cfi_offset 6, -12
 540 0202 53       		pushl	%ebx	 #
 541              		.cfi_def_cfa_offset 16
 542              		.cfi_offset 3, -16
 543 0203 83EC10   		subl	$16, %esp	 #,
 544              		.cfi_def_cfa_offset 32
 545              		.loc 1 184 0
 546 0206 8B742420 		movl	32(%esp), %esi	 # esp, esp
 547 020a 8B7C2424 		movl	36(%esp), %edi	 # flags, flags
 548              		.loc 1 187 0
 549 020e E8000000 		call	_chDbgCheckClassI	 #
 549      00
 550              	LVL39:
 551              		.loc 1 188 0
 552 0213 85F6     		testl	%esi, %esi	 # esp
 553 0215 742B     		je	L47	 #,
 554              	L41:
 555              		.loc 1 190 0
 556 0217 8B1E     		movl	(%esi), %ebx	 # esp_6(D)->es_next, elp
 557              	LVL40:
 558              		.loc 1 191 0
 559 0219 39DE     		cmpl	%ebx, %esi	 # elp, esp
 560 021b 741E     		je	L40	 #,
 561 021d 8D7600   		.p2align 4,,7
 562              	L45:
GAS LISTING /cygdrive/c/DOCUME~1/andrey/LOCALS~1/Temp/cchbppHR.s 			page 12


 563              		.loc 1 193 0
 564 0220 8B4308   		movl	8(%ebx), %eax	 # elp_19->el_mask, elp_19->el_mask
 565              		.loc 1 192 0
 566 0223 097B0C   		orl	%edi, 12(%ebx)	 # flags, elp_19->el_flags
 567              		.loc 1 193 0
 568 0226 89442404 		movl	%eax, 4(%esp)	 # elp_19->el_mask,
 569 022a 8B4304   		movl	4(%ebx), %eax	 # elp_19->el_listener, elp_19->el_listener
 570 022d 890424   		movl	%eax, (%esp)	 # elp_19->el_listener,
 571 0230 E83BFFFF 		call	_chEvtSignalI	 #
 571      FF
 572              	LVL41:
 573              		.loc 1 194 0
 574 0235 8B1B     		movl	(%ebx), %ebx	 # elp_19->el_next, elp
 575              	LVL42:
 576              		.loc 1 191 0
 577 0237 39DE     		cmpl	%ebx, %esi	 # elp, esp
 578 0239 75E5     		jne	L45	 #,
 579              	L40:
 580              		.loc 1 196 0
 581 023b 83C410   		addl	$16, %esp	 #,
 582              		.cfi_remember_state
 583              		.cfi_def_cfa_offset 16
 584 023e 5B       		popl	%ebx	 #
 585              		.cfi_restore 3
 586              		.cfi_def_cfa_offset 12
 587              	LVL43:
 588 023f 5E       		popl	%esi	 #
 589              		.cfi_restore 6
 590              		.cfi_def_cfa_offset 8
 591 0240 5F       		popl	%edi	 #
 592              		.cfi_restore 7
 593              		.cfi_def_cfa_offset 4
 594 0241 C3       		ret
 595              	L47:
 596              		.cfi_restore_state
 597              		.loc 1 188 0 discriminator 1
 598 0242 C7442408 		movl	$188, 8(%esp)	 #,
 598      BC000000 
 599 024a C7442404 		movl	$LC0, 4(%esp)	 #,
 599      00000000 
 600 0252 C7042468 		movl	$LC4, (%esp)	 #,
 600      000000
 601 0259 E8000000 		call	_chDbgPanic	 #
 601      00
 602              	LVL44:
 603 025e EBB7     		jmp	L41	 #
 604              		.cfi_endproc
 605              	LFE11:
 606              		.section .rdata,"dr"
 607              	LC5:
 608 0080 22636845 		.ascii "\"chEvtSignal\"()\0"
 608      76745369 
 608      676E616C 
 608      22282900 
 609              		.text
 610              		.p2align 4,,15
 611              		.globl	_chEvtSignal
GAS LISTING /cygdrive/c/DOCUME~1/andrey/LOCALS~1/Temp/cchbppHR.s 			page 13


 612              		.def	_chEvtSignal;	.scl	2;	.type	32;	.endef
 613              	_chEvtSignal:
 614              	LFB13:
 615              		.loc 1 229 0
 616              		.cfi_startproc
 617              	LVL45:
 618 0260 53       		pushl	%ebx	 #
 619              		.cfi_def_cfa_offset 8
 620              		.cfi_offset 3, -8
 621 0261 83EC18   		subl	$24, %esp	 #,
 622              		.cfi_def_cfa_offset 32
 623              		.loc 1 229 0
 624 0264 8B5C2420 		movl	32(%esp), %ebx	 # tp, tp
 625              		.loc 1 231 0
 626 0268 85DB     		testl	%ebx, %ebx	 # tp
 627 026a 7426     		je	L51	 #,
 628              	L49:
 629              		.loc 1 233 0
 630              	/APP
 631              	 # 233 "../firmware/chibios/os/kernel/src/chevents.c" 1
 632 026c 90       		nop
 633              	 # 0 "" 2
 634              	/NO_APP
 635 026d E8000000 		call	_dbg_check_lock	 #
 635      00
 636              	LVL46:
 637              		.loc 1 234 0
 638 0272 8B442424 		movl	36(%esp), %eax	 # mask, mask
 639 0276 891C24   		movl	%ebx, (%esp)	 # tp,
 640 0279 89442404 		movl	%eax, 4(%esp)	 # mask,
 641 027d E8EEFEFF 		call	_chEvtSignalI	 #
 641      FF
 642              	LVL47:
 643              		.loc 1 235 0
 644 0282 E8000000 		call	_chSchRescheduleS	 #
 644      00
 645              	LVL48:
 646              		.loc 1 236 0
 647 0287 E8000000 		call	_dbg_check_unlock	 #
 647      00
 648              	LVL49:
 649              	/APP
 650              	 # 236 "../firmware/chibios/os/kernel/src/chevents.c" 1
 651 028c 90       		nop
 652              	 # 0 "" 2
 653              		.loc 1 237 0
 654              	/NO_APP
 655 028d 83C418   		addl	$24, %esp	 #,
 656              		.cfi_remember_state
 657              		.cfi_def_cfa_offset 8
 658 0290 5B       		popl	%ebx	 #
 659              		.cfi_restore 3
 660              		.cfi_def_cfa_offset 4
 661              		.p2align 4,,1
 662 0291 C3       		ret
 663              		.p2align 4,,7
 664              	L51:
GAS LISTING /cygdrive/c/DOCUME~1/andrey/LOCALS~1/Temp/cchbppHR.s 			page 14


 665              		.cfi_restore_state
 666              		.loc 1 231 0 discriminator 1
 667 0292 C7442408 		movl	$231, 8(%esp)	 #,
 667      E7000000 
 668 029a C7442404 		movl	$LC0, 4(%esp)	 #,
 668      00000000 
 669 02a2 C7042480 		movl	$LC5, (%esp)	 #,
 669      000000
 670 02a9 E8000000 		call	_chDbgPanic	 #
 670      00
 671              	LVL50:
 672 02ae EBBC     		jmp	L49	 #
 673              		.cfi_endproc
 674              	LFE13:
 675              		.p2align 4,,15
 676              		.globl	_chEvtBroadcastFlags
 677              		.def	_chEvtBroadcastFlags;	.scl	2;	.type	32;	.endef
 678              	_chEvtBroadcastFlags:
 679              	LFB15:
 680              		.loc 1 278 0
 681              		.cfi_startproc
 682              	LVL51:
 683 02b0 83EC1C   		subl	$28, %esp	 #,
 684              		.cfi_def_cfa_offset 32
 685              		.loc 1 280 0
 686              	/APP
 687              	 # 280 "../firmware/chibios/os/kernel/src/chevents.c" 1
 688 02b3 90       		nop
 689              	 # 0 "" 2
 690              	/NO_APP
 691 02b4 E8000000 		call	_dbg_check_lock	 #
 691      00
 692              	LVL52:
 693              		.loc 1 281 0
 694 02b9 8B442424 		movl	36(%esp), %eax	 # flags, flags
 695 02bd 89442404 		movl	%eax, 4(%esp)	 # flags,
 696 02c1 8B442420 		movl	32(%esp), %eax	 # esp, esp
 697 02c5 890424   		movl	%eax, (%esp)	 # esp,
 698 02c8 E833FFFF 		call	_chEvtBroadcastFlagsI	 #
 698      FF
 699              	LVL53:
 700              		.loc 1 282 0
 701 02cd E8000000 		call	_chSchRescheduleS	 #
 701      00
 702              	LVL54:
 703              		.loc 1 283 0
 704 02d2 E8000000 		call	_dbg_check_unlock	 #
 704      00
 705              	LVL55:
 706              	/APP
 707              	 # 283 "../firmware/chibios/os/kernel/src/chevents.c" 1
 708 02d7 90       		nop
 709              	 # 0 "" 2
 710              		.loc 1 284 0
 711              	/NO_APP
 712 02d8 83C41C   		addl	$28, %esp	 #,
 713              		.cfi_def_cfa_offset 4
GAS LISTING /cygdrive/c/DOCUME~1/andrey/LOCALS~1/Temp/cchbppHR.s 			page 15


 714              		.p2align 4,,2
 715 02db C3       		ret
 716              		.cfi_endproc
 717              	LFE15:
 718 02dc 8D742600 		.p2align 4,,15
 719              		.globl	_chEvtGetAndClearFlagsI
 720              		.def	_chEvtGetAndClearFlagsI;	.scl	2;	.type	32;	.endef
 721              	_chEvtGetAndClearFlagsI:
 722              	LFB16:
 723              		.loc 1 297 0
 724              		.cfi_startproc
 725              	LVL56:
 726              		.loc 1 297 0
 727 02e0 8B542404 		movl	4(%esp), %edx	 # elp, elp
 728              		.loc 1 300 0
 729 02e4 8B420C   		movl	12(%edx), %eax	 # elp_2(D)->el_flags, flags
 730              	LVL57:
 731              		.loc 1 301 0
 732 02e7 C7420C00 		movl	$0, 12(%edx)	 #, elp_2(D)->el_flags
 732      000000
 733              		.loc 1 304 0
 734 02ee C3       		ret
 735              		.cfi_endproc
 736              	LFE16:
 737              		.section .rdata,"dr"
 738              	LC6:
 739 0090 22636845 		.ascii "\"chEvtDispatch\"()\0"
 739      76744469 
 739      73706174 
 739      63682228 
 739      2900
 740              	LC7:
 741 00a2 63684576 		.ascii "chEvtDispatch(), #1\0"
 741      74446973 
 741      70617463 
 741      6828292C 
 741      20233100 
 742 00b6 0000     		.text
 743 02ef 90       		.p2align 4,,15
 744              		.globl	_chEvtDispatch
 745              		.def	_chEvtDispatch;	.scl	2;	.type	32;	.endef
 746              	_chEvtDispatch:
 747              	LFB17:
 748              		.loc 1 315 0
 749              		.cfi_startproc
 750              	LVL58:
 751 02f0 55       		pushl	%ebp	 #
 752              		.cfi_def_cfa_offset 8
 753              		.cfi_offset 5, -8
 754 02f1 57       		pushl	%edi	 #
 755              		.cfi_def_cfa_offset 12
 756              		.cfi_offset 7, -12
 757 02f2 56       		pushl	%esi	 #
 758              		.cfi_def_cfa_offset 16
 759              		.cfi_offset 6, -16
 760 02f3 53       		pushl	%ebx	 #
 761              		.cfi_def_cfa_offset 20
GAS LISTING /cygdrive/c/DOCUME~1/andrey/LOCALS~1/Temp/cchbppHR.s 			page 16


 762              		.cfi_offset 3, -20
 763 02f4 83EC1C   		subl	$28, %esp	 #,
 764              		.cfi_def_cfa_offset 48
 765              		.loc 1 315 0
 766 02f7 8B6C2430 		movl	48(%esp), %ebp	 # handlers, handlers
 767 02fb 8B742434 		movl	52(%esp), %esi	 # mask, mask
 768              		.loc 1 318 0
 769 02ff 85ED     		testl	%ebp, %ebp	 # handlers
 770 0301 7467     		je	L71	 #,
 771              	L56:
 772              	LVL59:
 773              		.loc 1 321 0 discriminator 1
 774 0303 31DB     		xorl	%ebx, %ebx	 # eid
 775 0305 85F6     		testl	%esi, %esi	 # mask
 776              		.loc 1 322 0 discriminator 1
 777 0307 BF010000 		movl	$1, %edi	 #, tmp72
 777      00
 778              		.loc 1 321 0 discriminator 1
 779 030c 7424     		je	L55	 #,
 780              	LVL60:
 781 030e 6690     		.p2align 4,,7
 782              	L69:
 783              		.loc 1 322 0
 784 0310 89F8     		movl	%edi, %eax	 # tmp72, D.2324
 785 0312 89D9     		movl	%ebx, %ecx	 # eid, tmp74
 786 0314 D3E0     		sall	%cl, %eax	 # tmp74, D.2324
 787 0316 85F0     		testl	%esi, %eax	 # mask, D.2324
 788 0318 7411     		je	L58	 #,
 789              		.loc 1 323 0
 790 031a 8B549D00 		movl	0(%ebp,%ebx,4), %edx	 # MEM[base: handlers_8(D), index: _24, step: 4, offset: 0B], D.2326
 791 031e 85D2     		testl	%edx, %edx	 # D.2326
 792 0320 741E     		je	L72	 #,
 793              	L59:
 794              		.loc 1 326 0
 795 0322 F7D0     		notl	%eax	 # D.2324
 796 0324 21C6     		andl	%eax, %esi	 # D.2324, mask
 797              	LVL61:
 798              		.loc 1 327 0
 799 0326 891C24   		movl	%ebx, (%esp)	 # eid,
 800 0329 FFD2     		call	*%edx	 # D.2326
 801              	LVL62:
 802              	L58:
 803              		.loc 1 329 0
 804 032b 83C301   		addl	$1, %ebx	 #, eid
 805              	LVL63:
 806              		.loc 1 321 0
 807 032e 85F6     		testl	%esi, %esi	 # mask
 808 0330 75DE     		jne	L69	 #,
 809              	LVL64:
 810              	L55:
 811              		.loc 1 331 0
 812 0332 83C41C   		addl	$28, %esp	 #,
 813              		.cfi_remember_state
 814              		.cfi_def_cfa_offset 20
 815 0335 5B       		popl	%ebx	 #
 816              		.cfi_restore 3
 817              		.cfi_def_cfa_offset 16
GAS LISTING /cygdrive/c/DOCUME~1/andrey/LOCALS~1/Temp/cchbppHR.s 			page 17


 818 0336 5E       		popl	%esi	 #
 819              		.cfi_restore 6
 820              		.cfi_def_cfa_offset 12
 821              	LVL65:
 822 0337 5F       		popl	%edi	 #
 823              		.cfi_restore 7
 824              		.cfi_def_cfa_offset 8
 825 0338 5D       		popl	%ebp	 #
 826              		.cfi_restore 5
 827              		.cfi_def_cfa_offset 4
 828 0339 C3       		ret
 829              	LVL66:
 830 033a 8DB60000 		.p2align 4,,7
 830      0000
 831              	L72:
 832              		.cfi_restore_state
 833              		.loc 1 323 0 discriminator 1
 834 0340 C7442408 		movl	$325, 8(%esp)	 #,
 834      45010000 
 835 0348 C7442404 		movl	$LC0, 4(%esp)	 #,
 835      00000000 
 836 0350 C70424A2 		movl	$LC7, (%esp)	 #,
 836      000000
 837 0357 8944240C 		movl	%eax, 12(%esp)	 # D.2324, %sfp
 838 035b E8000000 		call	_chDbgPanic	 #
 838      00
 839              	LVL67:
 840 0360 8B549D00 		movl	0(%ebp,%ebx,4), %edx	 # MEM[base: handlers_8(D), index: _24, step: 4, offset: 0B], D.2326
 841 0364 8B44240C 		movl	12(%esp), %eax	 # %sfp, D.2324
 842 0368 EBB8     		jmp	L59	 #
 843              	LVL68:
 844              	L71:
 845              		.loc 1 318 0 discriminator 1
 846 036a C7442408 		movl	$318, 8(%esp)	 #,
 846      3E010000 
 847 0372 C7442404 		movl	$LC0, 4(%esp)	 #,
 847      00000000 
 848 037a C7042490 		movl	$LC6, (%esp)	 #,
 848      000000
 849 0381 E8000000 		call	_chDbgPanic	 #
 849      00
 850              	LVL69:
 851 0386 E978FFFF 		jmp	L56	 #
 851      FF
 852              		.cfi_endproc
 853              	LFE17:
 854 038b 908D7426 		.p2align 4,,15
 854      00
 855              		.globl	_chEvtWaitOne
 856              		.def	_chEvtWaitOne;	.scl	2;	.type	32;	.endef
 857              	_chEvtWaitOne:
 858              	LFB18:
 859              		.loc 1 350 0
 860              		.cfi_startproc
 861              	LVL70:
 862 0390 56       		pushl	%esi	 #
 863              		.cfi_def_cfa_offset 8
GAS LISTING /cygdrive/c/DOCUME~1/andrey/LOCALS~1/Temp/cchbppHR.s 			page 18


 864              		.cfi_offset 6, -8
 865 0391 53       		pushl	%ebx	 #
 866              		.cfi_def_cfa_offset 12
 867              		.cfi_offset 3, -12
 868 0392 83EC14   		subl	$20, %esp	 #,
 869              		.cfi_def_cfa_offset 32
 870              		.loc 1 351 0
 871 0395 8B351800 		movl	_rlist+24, %esi	 # rlist.r_current, ctp
 871      0000
 872              	LVL71:
 873              		.loc 1 350 0
 874 039b 8B5C2420 		movl	32(%esp), %ebx	 # mask, mask
 875              		.loc 1 354 0
 876              	/APP
 877              	 # 354 "../firmware/chibios/os/kernel/src/chevents.c" 1
 878 039f 90       		nop
 879              	 # 0 "" 2
 880              	/NO_APP
 881 03a0 E8000000 		call	_dbg_check_lock	 #
 881      00
 882              	LVL72:
 883 03a5 8B4638   		movl	56(%esi), %eax	 # ctp_4->p_epending, D.2334
 884              		.loc 1 356 0
 885 03a8 89DA     		movl	%ebx, %edx	 # mask, m
 886 03aa 21C2     		andl	%eax, %edx	 # D.2334, m
 887              	LVL73:
 888 03ac 7516     		jne	L74	 #,
 889              		.loc 1 357 0
 890 03ae 895E24   		movl	%ebx, 36(%esi)	 # mask, ctp_4->p_u.ewmask
 891              		.loc 1 358 0
 892 03b1 C7042408 		movl	$8, (%esp)	 #,
 892      000000
 893 03b8 E8000000 		call	_chSchGoSleepS	 #
 893      00
 894              	LVL74:
 895              		.loc 1 359 0
 896 03bd 8B4638   		movl	56(%esi), %eax	 # ctp_4->p_epending, D.2333
 897 03c0 21C3     		andl	%eax, %ebx	 # D.2333, m
 898 03c2 89DA     		movl	%ebx, %edx	 # m, m
 899              	LVL75:
 900              	L74:
 901              		.loc 1 361 0
 902 03c4 89D3     		movl	%edx, %ebx	 # m, m
 903 03c6 F7DB     		negl	%ebx	 # m
 904 03c8 21D3     		andl	%edx, %ebx	 # m, m
 905              	LVL76:
 906              		.loc 1 362 0
 907 03ca 89DA     		movl	%ebx, %edx	 # m, tmp72
 908 03cc F7D2     		notl	%edx	 # tmp72
 909 03ce 21C2     		andl	%eax, %edx	 # D.2334, tmp72
 910 03d0 895638   		movl	%edx, 56(%esi)	 # tmp72, ctp_4->p_epending
 911              		.loc 1 364 0
 912 03d3 E8000000 		call	_dbg_check_unlock	 #
 912      00
 913              	LVL77:
 914              	/APP
 915              	 # 364 "../firmware/chibios/os/kernel/src/chevents.c" 1
GAS LISTING /cygdrive/c/DOCUME~1/andrey/LOCALS~1/Temp/cchbppHR.s 			page 19


 916 03d8 90       		nop
 917              	 # 0 "" 2
 918              		.loc 1 366 0
 919              	/NO_APP
 920 03d9 83C414   		addl	$20, %esp	 #,
 921              		.cfi_def_cfa_offset 12
 922 03dc 89D8     		movl	%ebx, %eax	 # m,
 923 03de 5B       		popl	%ebx	 #
 924              		.cfi_restore 3
 925              		.cfi_def_cfa_offset 8
 926              	LVL78:
 927 03df 5E       		popl	%esi	 #
 928              		.cfi_restore 6
 929              		.cfi_def_cfa_offset 4
 930              	LVL79:
 931 03e0 C3       		ret
 932              		.cfi_endproc
 933              	LFE18:
 934 03e1 EB0D9090 		.p2align 4,,15
 934      90909090 
 934      90909090 
 934      909090
 935              		.globl	_chEvtWaitAny
 936              		.def	_chEvtWaitAny;	.scl	2;	.type	32;	.endef
 937              	_chEvtWaitAny:
 938              	LFB19:
 939              		.loc 1 379 0
 940              		.cfi_startproc
 941              	LVL80:
 942 03f0 57       		pushl	%edi	 #
 943              		.cfi_def_cfa_offset 8
 944              		.cfi_offset 7, -8
 945 03f1 56       		pushl	%esi	 #
 946              		.cfi_def_cfa_offset 12
 947              		.cfi_offset 6, -12
 948 03f2 53       		pushl	%ebx	 #
 949              		.cfi_def_cfa_offset 16
 950              		.cfi_offset 3, -16
 951 03f3 83EC10   		subl	$16, %esp	 #,
 952              		.cfi_def_cfa_offset 32
 953              		.loc 1 380 0
 954 03f6 8B351800 		movl	_rlist+24, %esi	 # rlist.r_current, ctp
 954      0000
 955              	LVL81:
 956              		.loc 1 379 0
 957 03fc 8B5C2420 		movl	32(%esp), %ebx	 # mask, mask
 958              		.loc 1 383 0
 959              	/APP
 960              	 # 383 "../firmware/chibios/os/kernel/src/chevents.c" 1
 961 0400 90       		nop
 962              	 # 0 "" 2
 963              	/NO_APP
 964 0401 E8000000 		call	_dbg_check_lock	 #
 964      00
 965              	LVL82:
 966 0406 8B5638   		movl	56(%esi), %edx	 # ctp_4->p_epending, D.2338
 967              		.loc 1 385 0
GAS LISTING /cygdrive/c/DOCUME~1/andrey/LOCALS~1/Temp/cchbppHR.s 			page 20


 968 0409 89DF     		movl	%ebx, %edi	 # mask, m
 969 040b 21D7     		andl	%edx, %edi	 # D.2338, m
 970              	LVL83:
 971 040d 7516     		jne	L78	 #,
 972              		.loc 1 386 0
 973 040f 895E24   		movl	%ebx, 36(%esi)	 # mask, ctp_4->p_u.ewmask
 974              		.loc 1 387 0
 975 0412 C7042408 		movl	$8, (%esp)	 #,
 975      000000
 976 0419 E8000000 		call	_chSchGoSleepS	 #
 976      00
 977              	LVL84:
 978              		.loc 1 388 0
 979 041e 8B5638   		movl	56(%esi), %edx	 # ctp_4->p_epending, D.2337
 980 0421 21D3     		andl	%edx, %ebx	 # D.2337, m
 981 0423 89DF     		movl	%ebx, %edi	 # m, m
 982              	LVL85:
 983              	L78:
 984              		.loc 1 390 0
 985 0425 89F9     		movl	%edi, %ecx	 # m, tmp70
 986 0427 F7D1     		notl	%ecx	 # tmp70
 987 0429 21D1     		andl	%edx, %ecx	 # D.2338, tmp70
 988 042b 894E38   		movl	%ecx, 56(%esi)	 # tmp70, ctp_4->p_epending
 989              		.loc 1 392 0
 990 042e E8000000 		call	_dbg_check_unlock	 #
 990      00
 991              	LVL86:
 992              	/APP
 993              	 # 392 "../firmware/chibios/os/kernel/src/chevents.c" 1
 994 0433 90       		nop
 995              	 # 0 "" 2
 996              		.loc 1 394 0
 997              	/NO_APP
 998 0434 83C410   		addl	$16, %esp	 #,
 999              		.cfi_def_cfa_offset 16
 1000 0437 89F8     		movl	%edi, %eax	 # m,
 1001 0439 5B       		popl	%ebx	 #
 1002              		.cfi_restore 3
 1003              		.cfi_def_cfa_offset 12
 1004 043a 5E       		popl	%esi	 #
 1005              		.cfi_restore 6
 1006              		.cfi_def_cfa_offset 8
 1007              	LVL87:
 1008 043b 5F       		popl	%edi	 #
 1009              		.cfi_restore 7
 1010              		.cfi_def_cfa_offset 4
 1011              	LVL88:
 1012 043c C3       		ret
 1013              		.cfi_endproc
 1014              	LFE19:
 1015 043d 8D7600   		.p2align 4,,15
 1016              		.globl	_chEvtWaitAll
 1017              		.def	_chEvtWaitAll;	.scl	2;	.type	32;	.endef
 1018              	_chEvtWaitAll:
 1019              	LFB20:
 1020              		.loc 1 407 0
 1021              		.cfi_startproc
GAS LISTING /cygdrive/c/DOCUME~1/andrey/LOCALS~1/Temp/cchbppHR.s 			page 21


 1022              	LVL89:
 1023 0440 56       		pushl	%esi	 #
 1024              		.cfi_def_cfa_offset 8
 1025              		.cfi_offset 6, -8
 1026 0441 53       		pushl	%ebx	 #
 1027              		.cfi_def_cfa_offset 12
 1028              		.cfi_offset 3, -12
 1029 0442 83EC14   		subl	$20, %esp	 #,
 1030              		.cfi_def_cfa_offset 32
 1031              		.loc 1 408 0
 1032 0445 8B351800 		movl	_rlist+24, %esi	 # rlist.r_current, ctp
 1032      0000
 1033              	LVL90:
 1034              		.loc 1 407 0
 1035 044b 8B5C2420 		movl	32(%esp), %ebx	 # mask, mask
 1036              		.loc 1 410 0
 1037              	/APP
 1038              	 # 410 "../firmware/chibios/os/kernel/src/chevents.c" 1
 1039 044f 90       		nop
 1040              	 # 0 "" 2
 1041              	/NO_APP
 1042 0450 E8000000 		call	_dbg_check_lock	 #
 1042      00
 1043              	LVL91:
 1044              		.loc 1 412 0
 1045 0455 8B4638   		movl	56(%esi), %eax	 # ctp_3->p_epending, D.2341
 1046 0458 89D9     		movl	%ebx, %ecx	 # mask, D.2341
 1047 045a 21C1     		andl	%eax, %ecx	 # D.2341, D.2341
 1048 045c 89C2     		movl	%eax, %edx	 # D.2341, D.2342
 1049 045e 39D9     		cmpl	%ebx, %ecx	 # mask, D.2341
 1050 0460 7412     		je	L82	 #,
 1051              		.loc 1 413 0
 1052 0462 895E24   		movl	%ebx, 36(%esi)	 # mask, ctp_3->p_u.ewmask
 1053              		.loc 1 414 0
 1054 0465 C7042409 		movl	$9, (%esp)	 #,
 1054      000000
 1055 046c E8000000 		call	_chSchGoSleepS	 #
 1055      00
 1056              	LVL92:
 1057 0471 8B5638   		movl	56(%esi), %edx	 # ctp_3->p_epending, D.2342
 1058              	L82:
 1059              		.loc 1 416 0
 1060 0474 89D8     		movl	%ebx, %eax	 # mask, tmp70
 1061 0476 F7D0     		notl	%eax	 # tmp70
 1062 0478 21D0     		andl	%edx, %eax	 # D.2342, tmp70
 1063 047a 894638   		movl	%eax, 56(%esi)	 # tmp70, ctp_3->p_epending
 1064              		.loc 1 418 0
 1065 047d E8000000 		call	_dbg_check_unlock	 #
 1065      00
 1066              	LVL93:
 1067              	/APP
 1068              	 # 418 "../firmware/chibios/os/kernel/src/chevents.c" 1
 1069 0482 90       		nop
 1070              	 # 0 "" 2
 1071              		.loc 1 420 0
 1072              	/NO_APP
 1073 0483 83C414   		addl	$20, %esp	 #,
GAS LISTING /cygdrive/c/DOCUME~1/andrey/LOCALS~1/Temp/cchbppHR.s 			page 22


 1074              		.cfi_def_cfa_offset 12
 1075 0486 89D8     		movl	%ebx, %eax	 # mask,
 1076 0488 5B       		popl	%ebx	 #
 1077              		.cfi_restore 3
 1078              		.cfi_def_cfa_offset 8
 1079 0489 5E       		popl	%esi	 #
 1080              		.cfi_restore 6
 1081              		.cfi_def_cfa_offset 4
 1082              	LVL94:
 1083 048a C3       		ret
 1084              		.cfi_endproc
 1085              	LFE20:
 1086 048b 908D7426 		.p2align 4,,15
 1086      00
 1087              		.globl	_chEvtWaitOneTimeout
 1088              		.def	_chEvtWaitOneTimeout;	.scl	2;	.type	32;	.endef
 1089              	_chEvtWaitOneTimeout:
 1090              	LFB21:
 1091              		.loc 1 446 0
 1092              		.cfi_startproc
 1093              	LVL95:
 1094 0490 57       		pushl	%edi	 #
 1095              		.cfi_def_cfa_offset 8
 1096              		.cfi_offset 7, -8
 1097 0491 56       		pushl	%esi	 #
 1098              		.cfi_def_cfa_offset 12
 1099              		.cfi_offset 6, -12
 1100 0492 53       		pushl	%ebx	 #
 1101              		.cfi_def_cfa_offset 16
 1102              		.cfi_offset 3, -16
 1103 0493 83EC10   		subl	$16, %esp	 #,
 1104              		.cfi_def_cfa_offset 32
 1105              		.loc 1 447 0
 1106 0496 8B351800 		movl	_rlist+24, %esi	 # rlist.r_current, ctp
 1106      0000
 1107              	LVL96:
 1108              		.loc 1 446 0
 1109 049c 8B5C2420 		movl	32(%esp), %ebx	 # mask, mask
 1110 04a0 8B7C2424 		movl	36(%esp), %edi	 # time, time
 1111              		.loc 1 450 0
 1112              	/APP
 1113              	 # 450 "../firmware/chibios/os/kernel/src/chevents.c" 1
 1114 04a4 90       		nop
 1115              	 # 0 "" 2
 1116              	/NO_APP
 1117 04a5 E8000000 		call	_dbg_check_lock	 #
 1117      00
 1118              	LVL97:
 1119              		.loc 1 452 0
 1120 04aa 8B4638   		movl	56(%esi), %eax	 # ctp_6->p_epending, D.2346
 1121              	LVL98:
 1122 04ad 89DA     		movl	%ebx, %edx	 # mask, m
 1123 04af 21C2     		andl	%eax, %edx	 # D.2346, m
 1124              	LVL99:
 1125 04b1 7522     		jne	L86	 #,
 1126              		.loc 1 453 0
 1127 04b3 85FF     		testl	%edi, %edi	 # time
GAS LISTING /cygdrive/c/DOCUME~1/andrey/LOCALS~1/Temp/cchbppHR.s 			page 23


 1128 04b5 743C     		je	L92	 #,
 1129              		.loc 1 457 0
 1130 04b7 895E24   		movl	%ebx, 36(%esi)	 # mask, ctp_6->p_u.ewmask
 1131              		.loc 1 458 0
 1132 04ba 897C2404 		movl	%edi, 4(%esp)	 # time,
 1133 04be C7042408 		movl	$8, (%esp)	 #,
 1133      000000
 1134 04c5 E8000000 		call	_chSchGoSleepTimeoutS	 #
 1134      00
 1135              	LVL100:
 1136 04ca 85C0     		testl	%eax, %eax	 # D.2347
 1137 04cc 7825     		js	L92	 #,
 1138              		.loc 1 462 0
 1139 04ce 8B4638   		movl	56(%esi), %eax	 # ctp_6->p_epending, D.2346
 1140 04d1 21C3     		andl	%eax, %ebx	 # D.2346, m
 1141 04d3 89DA     		movl	%ebx, %edx	 # m, m
 1142              	LVL101:
 1143              	L86:
 1144              		.loc 1 464 0
 1145 04d5 89D3     		movl	%edx, %ebx	 # m, m
 1146 04d7 F7DB     		negl	%ebx	 # m
 1147 04d9 21D3     		andl	%edx, %ebx	 # m, m
 1148              	LVL102:
 1149              		.loc 1 465 0
 1150 04db 89DA     		movl	%ebx, %edx	 # m, tmp75
 1151 04dd F7D2     		notl	%edx	 # tmp75
 1152 04df 21C2     		andl	%eax, %edx	 # D.2345, tmp75
 1153 04e1 895638   		movl	%edx, 56(%esi)	 # tmp75, ctp_6->p_epending
 1154              		.loc 1 467 0
 1155 04e4 E8000000 		call	_dbg_check_unlock	 #
 1155      00
 1156              	LVL103:
 1157              	/APP
 1158              	 # 467 "../firmware/chibios/os/kernel/src/chevents.c" 1
 1159 04e9 90       		nop
 1160              	 # 0 "" 2
 1161              		.loc 1 469 0
 1162              	/NO_APP
 1163 04ea 83C410   		addl	$16, %esp	 #,
 1164              		.cfi_remember_state
 1165              		.cfi_def_cfa_offset 16
 1166              		.loc 1 468 0
 1167 04ed 89D8     		movl	%ebx, %eax	 # m, D.2345
 1168              		.loc 1 469 0
 1169 04ef 5B       		popl	%ebx	 #
 1170              		.cfi_restore 3
 1171              		.cfi_def_cfa_offset 12
 1172              	LVL104:
 1173 04f0 5E       		popl	%esi	 #
 1174              		.cfi_restore 6
 1175              		.cfi_def_cfa_offset 8
 1176              	LVL105:
 1177 04f1 5F       		popl	%edi	 #
 1178              		.cfi_restore 7
 1179              		.cfi_def_cfa_offset 4
 1180 04f2 C3       		ret
 1181              	LVL106:
GAS LISTING /cygdrive/c/DOCUME~1/andrey/LOCALS~1/Temp/cchbppHR.s 			page 24


 1182              		.p2align 4,,7
 1183              	L92:
 1184              		.cfi_restore_state
 1185              		.loc 1 459 0
 1186 04f3 E8000000 		call	_dbg_check_unlock	 #
 1186      00
 1187              	LVL107:
 1188              	/APP
 1189              	 # 459 "../firmware/chibios/os/kernel/src/chevents.c" 1
 1190 04f8 90       		nop
 1191              	 # 0 "" 2
 1192              		.loc 1 469 0
 1193              	/NO_APP
 1194 04f9 83C410   		addl	$16, %esp	 #,
 1195              		.cfi_def_cfa_offset 16
 1196              		.loc 1 460 0
 1197 04fc 31C0     		xorl	%eax, %eax	 # D.2345
 1198              		.loc 1 469 0
 1199 04fe 5B       		popl	%ebx	 #
 1200              		.cfi_restore 3
 1201              		.cfi_def_cfa_offset 12
 1202 04ff 5E       		popl	%esi	 #
 1203              		.cfi_restore 6
 1204              		.cfi_def_cfa_offset 8
 1205              	LVL108:
 1206 0500 5F       		popl	%edi	 #
 1207              		.cfi_restore 7
 1208              		.cfi_def_cfa_offset 4
 1209 0501 C3       		ret
 1210              		.cfi_endproc
 1211              	LFE21:
 1212 0502 8DB42600 		.p2align 4,,15
 1212      0000008D 
 1212      BC270000 
 1212      0000
 1213              		.globl	_chEvtWaitAnyTimeout
 1214              		.def	_chEvtWaitAnyTimeout;	.scl	2;	.type	32;	.endef
 1215              	_chEvtWaitAnyTimeout:
 1216              	LFB22:
 1217              		.loc 1 489 0
 1218              		.cfi_startproc
 1219              	LVL109:
 1220 0510 55       		pushl	%ebp	 #
 1221              		.cfi_def_cfa_offset 8
 1222              		.cfi_offset 5, -8
 1223 0511 57       		pushl	%edi	 #
 1224              		.cfi_def_cfa_offset 12
 1225              		.cfi_offset 7, -12
 1226 0512 56       		pushl	%esi	 #
 1227              		.cfi_def_cfa_offset 16
 1228              		.cfi_offset 6, -16
 1229 0513 53       		pushl	%ebx	 #
 1230              		.cfi_def_cfa_offset 20
 1231              		.cfi_offset 3, -20
 1232 0514 83EC1C   		subl	$28, %esp	 #,
 1233              		.cfi_def_cfa_offset 48
 1234              		.loc 1 490 0
GAS LISTING /cygdrive/c/DOCUME~1/andrey/LOCALS~1/Temp/cchbppHR.s 			page 25


 1235 0517 8B351800 		movl	_rlist+24, %esi	 # rlist.r_current, ctp
 1235      0000
 1236              	LVL110:
 1237              		.loc 1 489 0
 1238 051d 8B5C2430 		movl	48(%esp), %ebx	 # mask, mask
 1239 0521 8B7C2434 		movl	52(%esp), %edi	 # time, time
 1240              		.loc 1 493 0
 1241              	/APP
 1242              	 # 493 "../firmware/chibios/os/kernel/src/chevents.c" 1
 1243 0525 90       		nop
 1244              	 # 0 "" 2
 1245              	/NO_APP
 1246 0526 E8000000 		call	_dbg_check_lock	 #
 1246      00
 1247              	LVL111:
 1248              		.loc 1 495 0
 1249 052b 8B5638   		movl	56(%esi), %edx	 # ctp_6->p_epending, D.2351
 1250              	LVL112:
 1251 052e 89DD     		movl	%ebx, %ebp	 # mask, m
 1252 0530 21D5     		andl	%edx, %ebp	 # D.2351, m
 1253              	LVL113:
 1254 0532 7522     		jne	L94	 #,
 1255              		.loc 1 496 0
 1256 0534 85FF     		testl	%edi, %edi	 # time
 1257 0536 7438     		je	L100	 #,
 1258              		.loc 1 500 0
 1259 0538 895E24   		movl	%ebx, 36(%esi)	 # mask, ctp_6->p_u.ewmask
 1260              		.loc 1 501 0
 1261 053b 897C2404 		movl	%edi, 4(%esp)	 # time,
 1262 053f C7042408 		movl	$8, (%esp)	 #,
 1262      000000
 1263 0546 E8000000 		call	_chSchGoSleepTimeoutS	 #
 1263      00
 1264              	LVL114:
 1265 054b 85C0     		testl	%eax, %eax	 # D.2352
 1266 054d 7821     		js	L100	 #,
 1267              		.loc 1 505 0
 1268 054f 8B5638   		movl	56(%esi), %edx	 # ctp_6->p_epending, D.2351
 1269 0552 21D3     		andl	%edx, %ebx	 # D.2351, m
 1270 0554 89DD     		movl	%ebx, %ebp	 # m, m
 1271              	LVL115:
 1272              	L94:
 1273              		.loc 1 507 0
 1274 0556 89E8     		movl	%ebp, %eax	 # m, tmp73
 1275 0558 F7D0     		notl	%eax	 # tmp73
 1276 055a 21D0     		andl	%edx, %eax	 # D.2350, tmp73
 1277 055c 894638   		movl	%eax, 56(%esi)	 # tmp73, ctp_6->p_epending
 1278              		.loc 1 509 0
 1279 055f E8000000 		call	_dbg_check_unlock	 #
 1279      00
 1280              	LVL116:
 1281              	/APP
 1282              	 # 509 "../firmware/chibios/os/kernel/src/chevents.c" 1
 1283 0564 90       		nop
 1284              	 # 0 "" 2
 1285              		.loc 1 511 0
 1286              	/NO_APP
GAS LISTING /cygdrive/c/DOCUME~1/andrey/LOCALS~1/Temp/cchbppHR.s 			page 26


 1287 0565 83C41C   		addl	$28, %esp	 #,
 1288              		.cfi_remember_state
 1289              		.cfi_def_cfa_offset 20
 1290              		.loc 1 510 0
 1291 0568 89E8     		movl	%ebp, %eax	 # m, D.2350
 1292              		.loc 1 511 0
 1293 056a 5B       		popl	%ebx	 #
 1294              		.cfi_restore 3
 1295              		.cfi_def_cfa_offset 16
 1296 056b 5E       		popl	%esi	 #
 1297              		.cfi_restore 6
 1298              		.cfi_def_cfa_offset 12
 1299              	LVL117:
 1300 056c 5F       		popl	%edi	 #
 1301              		.cfi_restore 7
 1302              		.cfi_def_cfa_offset 8
 1303 056d 5D       		popl	%ebp	 #
 1304              		.cfi_restore 5
 1305              		.cfi_def_cfa_offset 4
 1306              	LVL118:
 1307 056e C3       		ret
 1308              	LVL119:
 1309 056f 90       		.p2align 4,,7
 1310              	L100:
 1311              		.cfi_restore_state
 1312              		.loc 1 502 0
 1313 0570 E8000000 		call	_dbg_check_unlock	 #
 1313      00
 1314              	LVL120:
 1315              	/APP
 1316              	 # 502 "../firmware/chibios/os/kernel/src/chevents.c" 1
 1317 0575 90       		nop
 1318              	 # 0 "" 2
 1319              		.loc 1 511 0
 1320              	/NO_APP
 1321 0576 83C41C   		addl	$28, %esp	 #,
 1322              		.cfi_def_cfa_offset 20
 1323              		.loc 1 503 0
 1324 0579 31C0     		xorl	%eax, %eax	 # D.2350
 1325              		.loc 1 511 0
 1326 057b 5B       		popl	%ebx	 #
 1327              		.cfi_restore 3
 1328              		.cfi_def_cfa_offset 16
 1329 057c 5E       		popl	%esi	 #
 1330              		.cfi_restore 6
 1331              		.cfi_def_cfa_offset 12
 1332              	LVL121:
 1333 057d 5F       		popl	%edi	 #
 1334              		.cfi_restore 7
 1335              		.cfi_def_cfa_offset 8
 1336 057e 5D       		popl	%ebp	 #
 1337              		.cfi_restore 5
 1338              		.cfi_def_cfa_offset 4
 1339              	LVL122:
 1340 057f C3       		ret
 1341              		.cfi_endproc
 1342              	LFE22:
GAS LISTING /cygdrive/c/DOCUME~1/andrey/LOCALS~1/Temp/cchbppHR.s 			page 27


 1343              		.p2align 4,,15
 1344              		.globl	_chEvtWaitAllTimeout
 1345              		.def	_chEvtWaitAllTimeout;	.scl	2;	.type	32;	.endef
 1346              	_chEvtWaitAllTimeout:
 1347              	LFB23:
 1348              		.loc 1 530 0
 1349              		.cfi_startproc
 1350              	LVL123:
 1351 0580 57       		pushl	%edi	 #
 1352              		.cfi_def_cfa_offset 8
 1353              		.cfi_offset 7, -8
 1354 0581 56       		pushl	%esi	 #
 1355              		.cfi_def_cfa_offset 12
 1356              		.cfi_offset 6, -12
 1357 0582 53       		pushl	%ebx	 #
 1358              		.cfi_def_cfa_offset 16
 1359              		.cfi_offset 3, -16
 1360 0583 83EC10   		subl	$16, %esp	 #,
 1361              		.cfi_def_cfa_offset 32
 1362              		.loc 1 531 0
 1363 0586 8B351800 		movl	_rlist+24, %esi	 # rlist.r_current, ctp
 1363      0000
 1364              	LVL124:
 1365              		.loc 1 530 0
 1366 058c 8B5C2420 		movl	32(%esp), %ebx	 # mask, mask
 1367 0590 8B7C2424 		movl	36(%esp), %edi	 # time, time
 1368              		.loc 1 533 0
 1369              	/APP
 1370              	 # 533 "../firmware/chibios/os/kernel/src/chevents.c" 1
 1371 0594 90       		nop
 1372              	 # 0 "" 2
 1373              	/NO_APP
 1374 0595 E8000000 		call	_dbg_check_lock	 #
 1374      00
 1375              	LVL125:
 1376              		.loc 1 535 0
 1377 059a 8B4638   		movl	56(%esi), %eax	 # ctp_5->p_epending, D.2356
 1378 059d 89DA     		movl	%ebx, %edx	 # mask, D.2356
 1379 059f 21C2     		andl	%eax, %edx	 # D.2356, D.2356
 1380 05a1 39DA     		cmpl	%ebx, %edx	 # mask, D.2356
 1381 05a3 744B     		je	L106	 #,
 1382              		.loc 1 536 0
 1383 05a5 85FF     		testl	%edi, %edi	 # time
 1384 05a7 7437     		je	L105	 #,
 1385              		.loc 1 540 0
 1386 05a9 895E24   		movl	%ebx, 36(%esi)	 # mask, ctp_5->p_u.ewmask
 1387              		.loc 1 541 0
 1388 05ac 897C2404 		movl	%edi, 4(%esp)	 # time,
 1389 05b0 C7042409 		movl	$9, (%esp)	 #,
 1389      000000
 1390 05b7 E8000000 		call	_chSchGoSleepTimeoutS	 #
 1390      00
 1391              	LVL126:
 1392 05bc 85C0     		testl	%eax, %eax	 # D.2357
 1393 05be 7820     		js	L105	 #,
 1394 05c0 8B5638   		movl	56(%esi), %edx	 # ctp_5->p_epending, D.2355
 1395              	L102:
GAS LISTING /cygdrive/c/DOCUME~1/andrey/LOCALS~1/Temp/cchbppHR.s 			page 28


 1396              		.loc 1 546 0
 1397 05c3 89D8     		movl	%ebx, %eax	 # mask, tmp73
 1398 05c5 F7D0     		notl	%eax	 # tmp73
 1399 05c7 21D0     		andl	%edx, %eax	 # D.2355, tmp73
 1400 05c9 894638   		movl	%eax, 56(%esi)	 # tmp73, ctp_5->p_epending
 1401              		.loc 1 548 0
 1402 05cc E8000000 		call	_dbg_check_unlock	 #
 1402      00
 1403              	LVL127:
 1404              	/APP
 1405              	 # 548 "../firmware/chibios/os/kernel/src/chevents.c" 1
 1406 05d1 90       		nop
 1407              	 # 0 "" 2
 1408              		.loc 1 550 0
 1409              	/NO_APP
 1410 05d2 83C410   		addl	$16, %esp	 #,
 1411              		.cfi_remember_state
 1412              		.cfi_def_cfa_offset 16
 1413              		.loc 1 549 0
 1414 05d5 89D8     		movl	%ebx, %eax	 # mask, D.2355
 1415              		.loc 1 550 0
 1416 05d7 5B       		popl	%ebx	 #
 1417              		.cfi_restore 3
 1418              		.cfi_def_cfa_offset 12
 1419 05d8 5E       		popl	%esi	 #
 1420              		.cfi_restore 6
 1421              		.cfi_def_cfa_offset 8
 1422              	LVL128:
 1423 05d9 5F       		popl	%edi	 #
 1424              		.cfi_restore 7
 1425              		.cfi_def_cfa_offset 4
 1426 05da C3       		ret
 1427              	LVL129:
 1428 05db 908D7426 		.p2align 4,,7
 1428      00
 1429              	L105:
 1430              		.cfi_restore_state
 1431              		.loc 1 542 0
 1432 05e0 E8000000 		call	_dbg_check_unlock	 #
 1432      00
 1433              	LVL130:
 1434              	/APP
 1435              	 # 542 "../firmware/chibios/os/kernel/src/chevents.c" 1
 1436 05e5 90       		nop
 1437              	 # 0 "" 2
 1438              		.loc 1 550 0
 1439              	/NO_APP
 1440 05e6 83C410   		addl	$16, %esp	 #,
 1441              		.cfi_remember_state
 1442              		.cfi_def_cfa_offset 16
 1443              		.loc 1 543 0
 1444 05e9 31C0     		xorl	%eax, %eax	 # D.2355
 1445              		.loc 1 550 0
 1446 05eb 5B       		popl	%ebx	 #
 1447              		.cfi_restore 3
 1448              		.cfi_def_cfa_offset 12
 1449 05ec 5E       		popl	%esi	 #
GAS LISTING /cygdrive/c/DOCUME~1/andrey/LOCALS~1/Temp/cchbppHR.s 			page 29


 1450              		.cfi_restore 6
 1451              		.cfi_def_cfa_offset 8
 1452              	LVL131:
 1453 05ed 5F       		popl	%edi	 #
 1454              		.cfi_restore 7
 1455              		.cfi_def_cfa_offset 4
 1456 05ee C3       		ret
 1457              	LVL132:
 1458 05ef 90       		.p2align 4,,7
 1459              	L106:
 1460              		.cfi_restore_state
 1461 05f0 89C2     		movl	%eax, %edx	 # D.2356, D.2355
 1462 05f2 EBCF     		jmp	L102	 #
 1463              		.cfi_endproc
 1464              	LFE23:
 1465              	Letext0:
 1466              		.file 2 "/usr/include/stdint.h"
 1467              		.file 3 "../firmware/chibios/os/ports/GCC/SIMIA32/chtypes.h"
 1468              		.file 4 "../firmware/chibios/os/kernel/include/chlists.h"
 1469              		.file 5 "../firmware/chibios/os/kernel/include/chthreads.h"
 1470              		.file 6 "../firmware/chibios/os/ports/GCC/SIMIA32/chcore.h"
 1471              		.file 7 "../firmware/chibios/os/kernel/include/chschd.h"
 1472              		.file 8 "../firmware/chibios/os/kernel/include/chmtx.h"
 1473              		.file 9 "../firmware/chibios/os/kernel/include/chevents.h"
 1474              		.file 10 "../firmware/chibios/os/kernel/include/chdebug.h"