GAS LISTING /cygdrive/c/DOCUME~1/andrey/LOCALS~1/Temp/ccwVF4jH.s 			page 1


   1              		.file	"chheap.c"
   2              	 # GNU C (GCC) version 4.8.2 (i686-pc-cygwin)
   3              	 #	compiled by GNU C version 4.8.2, GMP version 5.1.3, MPFR version 3.1.2, MPC version 1.0.1
   4              	 # GGC heuristics: --param ggc-min-expand=100 --param ggc-min-heapsize=131072
   5              	 # options passed:  -I . -I ../firmware/chibios/os/ports/GCC/SIMIA32
   6              	 # -I ../firmware/chibios/os/kernel/include
   7              	 # -I ../firmware/chibios/os/hal/include
   8              	 # -I ../firmware/chibios/os/hal/platforms/Win32
   9              	 # -I ../firmware/chibios/boards/simulator -I ../firmware/util
  10              	 # -I ../firmware/console -I ../firmware/console_util
  11              	 # -I ../firmware/config/engines -I ../firmware/ext_algo
  12              	 # -I ../firmware/controllers/sensors -I ../firmware/controllers/system
  13              	 # -I ../firmware/controllers/algo -I ../firmware/controllers/math
  14              	 # -I ../firmware/controllers/trigger -I ../firmware/chibios/os/various
  15              	 # -MD ../firmware/chibios/os/kernel/src/chheap.d -MF .dep/chheap.o.d -MP
  16              	 # -MQ ../firmware/chibios/os/kernel/src/chheap.o -Dunix
  17              	 # -idirafter /usr/lib/gcc/i686-pc-cygwin/4.8.2/../../../../include/w32api
  18              	 # -idirafter ../../include/w32api -D SIMULATOR -D SHELL_USE_IPRINTF=FALSE
  19              	 # ../firmware/chibios/os/kernel/src/chheap.c -mtune=generic -march=i686
  20              	 # -auxbase-strip ../firmware/chibios/os/kernel/src/chheap.o -ggdb -O2
  21              	 # -Wall -Wextra -Wstrict-prototypes -std=gnu99 -fomit-frame-pointer
  22              	 # -fgnu89-inline -fverbose-asm
  23              	 # options enabled:  -faggressive-loop-optimizations
  24              	 # -fasynchronous-unwind-tables -fauto-inc-dec -fbranch-count-reg
  25              	 # -fcaller-saves -fcombine-stack-adjustments -fcommon -fcompare-elim
  26              	 # -fcprop-registers -fcrossjumping -fcse-follow-jumps -fdefer-pop
  27              	 # -fdelete-null-pointer-checks -fdevirtualize -fdwarf2-cfi-asm
  28              	 # -fearly-inlining -feliminate-unused-debug-types
  29              	 # -fexpensive-optimizations -fforward-propagate -ffunction-cse -fgcse
  30              	 # -fgcse-lm -fgnu-runtime -fguess-branch-probability
  31              	 # -fhoist-adjacent-loads -fident -fif-conversion -fif-conversion2
  32              	 # -findirect-inlining -finline -finline-atomics
  33              	 # -finline-functions-called-once -finline-small-functions -fipa-cp
  34              	 # -fipa-profile -fipa-pure-const -fipa-reference -fipa-sra
  35              	 # -fira-hoist-pressure -fira-share-save-slots -fira-share-spill-slots
  36              	 # -fivopts -fkeep-inline-dllexport -fkeep-static-consts
  37              	 # -fleading-underscore -fmath-errno -fmerge-constants
  38              	 # -fmerge-debug-strings -fmove-loop-invariants -fomit-frame-pointer
  39              	 # -foptimize-register-move -foptimize-sibling-calls -foptimize-strlen
  40              	 # -fpartial-inlining -fpeephole -fpeephole2 -fprefetch-loop-arrays -free
  41              	 # -freg-struct-return -fregmove -freorder-blocks -freorder-functions
  42              	 # -frerun-cse-after-loop -fsched-critical-path-heuristic
  43              	 # -fsched-dep-count-heuristic -fsched-group-heuristic -fsched-interblock
  44              	 # -fsched-last-insn-heuristic -fsched-rank-heuristic -fsched-spec
  45              	 # -fsched-spec-insn-heuristic -fsched-stalled-insns-dep -fschedule-insns2
  46              	 # -fset-stack-executable -fshow-column -fshrink-wrap -fsigned-zeros
  47              	 # -fsplit-ivs-in-unroller -fsplit-wide-types -fstrict-aliasing
  48              	 # -fstrict-overflow -fstrict-volatile-bitfields -fsync-libcalls
  49              	 # -fthread-jumps -ftoplevel-reorder -ftrapping-math -ftree-bit-ccp
  50              	 # -ftree-builtin-call-dce -ftree-ccp -ftree-ch -ftree-coalesce-vars
  51              	 # -ftree-copy-prop -ftree-copyrename -ftree-cselim -ftree-dce
  52              	 # -ftree-dominator-opts -ftree-dse -ftree-forwprop -ftree-fre
  53              	 # -ftree-loop-if-convert -ftree-loop-im -ftree-loop-ivcanon
  54              	 # -ftree-loop-optimize -ftree-parallelize-loops= -ftree-phiprop -ftree-pre
  55              	 # -ftree-pta -ftree-reassoc -ftree-scev-cprop -ftree-sink
  56              	 # -ftree-slp-vectorize -ftree-slsr -ftree-sra -ftree-switch-conversion
  57              	 # -ftree-tail-merge -ftree-ter -ftree-vect-loop-version -ftree-vrp
GAS LISTING /cygdrive/c/DOCUME~1/andrey/LOCALS~1/Temp/ccwVF4jH.s 			page 2


  58              	 # -funit-at-a-time -funwind-tables -fvar-tracking
  59              	 # -fvar-tracking-assignments -fverbose-asm -fzero-initialized-in-bss -m32
  60              	 # -m80387 -m96bit-long-double -maccumulate-outgoing-args -malign-double
  61              	 # -malign-stringops -mfancy-math-387 -mfp-ret-in-387 -mieee-fp
  62              	 # -mlong-double-80 -mno-red-zone -mno-sse4 -mpush-args -msahf
  63              	 # -mstack-arg-probe
  64              	
  65              		.text
  66              	Ltext0:
  67              		.p2align 4,,15
  68              		.globl	__heap_init
  69              		.def	__heap_init;	.scl	2;	.type	32;	.endef
  70              	__heap_init:
  71              	LFB7:
  72              		.file 1 "../firmware/chibios/os/kernel/src/chheap.c"
  73              		.loc 1 75 0
  74              		.cfi_startproc
  75 0000 83EC1C   		subl	$28, %esp	 #,
  76              		.cfi_def_cfa_offset 32
  77              		.loc 1 80 0
  78 0003 C7042420 		movl	$_default_heap+32, (%esp)	 #,
  78      000000
  79              		.loc 1 76 0
  80 000a C7050000 		movl	$_chCoreAlloc, _default_heap	 #, default_heap.h_provider
  80      00000000 
  80      0000
  81              		.loc 1 77 0
  82 0014 C7051000 		movl	$0, _default_heap+16	 #, default_heap.h_free.h.u.next
  82      00000000 
  82      0000
  83              		.loc 1 78 0
  84 001e C7051400 		movl	$0, _default_heap+20	 #, default_heap.h_free.h.size
  84      00000000 
  84      0000
  85              		.loc 1 80 0
  86 0028 E8000000 		call	_chMtxInit	 #
  86      00
  87              	LVL0:
  88              		.loc 1 84 0
  89 002d 83C41C   		addl	$28, %esp	 #,
  90              		.cfi_def_cfa_offset 4
  91 0030 C3       		ret
  92              		.cfi_endproc
  93              	LFE7:
  94              		.section .rdata,"dr"
  95              		.align 4
  96              	LC0:
  97 0000 2E2E2F66 		.ascii "../firmware/chibios/os/kernel/src/chheap.c\0"
  97      69726D77 
  97      6172652F 
  97      63686962 
  97      696F732F 
  98              	LC1:
  99 002b 22636848 		.ascii "\"chHeapInit\"()\0"
  99      65617049 
  99      6E697422 
  99      282900
GAS LISTING /cygdrive/c/DOCUME~1/andrey/LOCALS~1/Temp/ccwVF4jH.s 			page 3


 100              		.text
 101 0031 EB0D9090 		.p2align 4,,15
 101      90909090 
 101      90909090 
 101      909090
 102              		.globl	_chHeapInit
 103              		.def	_chHeapInit;	.scl	2;	.type	32;	.endef
 104              	_chHeapInit:
 105              	LFB8:
 106              		.loc 1 99 0
 107              		.cfi_startproc
 108              	LVL1:
 109 0040 57       		pushl	%edi	 #
 110              		.cfi_def_cfa_offset 8
 111              		.cfi_offset 7, -8
 112 0041 56       		pushl	%esi	 #
 113              		.cfi_def_cfa_offset 12
 114              		.cfi_offset 6, -12
 115 0042 53       		pushl	%ebx	 #
 116              		.cfi_def_cfa_offset 16
 117              		.cfi_offset 3, -16
 118 0043 83EC10   		subl	$16, %esp	 #,
 119              		.cfi_def_cfa_offset 32
 120              		.loc 1 99 0
 121 0046 8B742424 		movl	36(%esp), %esi	 # buf, buf
 122 004a 8B5C2420 		movl	32(%esp), %ebx	 # heapp, heapp
 123 004e 8B7C2428 		movl	40(%esp), %edi	 # size, size
 124              		.loc 1 102 0
 125 0052 F7C60F00 		testl	$15, %esi	 #, buf
 125      0000
 126 0058 7508     		jne	L4	 #,
 127              		.loc 1 102 0 is_stmt 0 discriminator 2
 128 005a F7C70F00 		testl	$15, %edi	 #, size
 128      0000
 129 0060 741C     		je	L5	 #,
 130              	L4:
 131              		.loc 1 102 0 discriminator 1
 132 0062 C7442408 		movl	$102, 8(%esp)	 #,
 132      66000000 
 133 006a C7442404 		movl	$LC0, 4(%esp)	 #,
 133      00000000 
 134 0072 C704242B 		movl	$LC1, (%esp)	 #,
 134      000000
 135 0079 E8000000 		call	_chDbgPanic	 #
 135      00
 136              	LVL2:
 137              	L5:
 138              		.loc 1 104 0 is_stmt 1
 139 007e C7030000 		movl	$0, (%ebx)	 #, heapp_9(D)->h_provider
 139      0000
 140              	LVL3:
 141              		.loc 1 108 0
 142 0084 83EF10   		subl	$16, %edi	 #, tmp69
 143              		.loc 1 110 0
 144 0087 83C320   		addl	$32, %ebx	 #, tmp70
 145              		.loc 1 105 0
 146 008a 8973F0   		movl	%esi, -16(%ebx)	 # buf, heapp_9(D)->h_free.h.u.next
GAS LISTING /cygdrive/c/DOCUME~1/andrey/LOCALS~1/Temp/ccwVF4jH.s 			page 4


 147              		.loc 1 106 0
 148 008d C743F400 		movl	$0, -12(%ebx)	 #, heapp_9(D)->h_free.h.size
 148      000000
 149              		.loc 1 107 0
 150 0094 C7060000 		movl	$0, (%esi)	 #, MEM[(union heap_header *)buf_2(D)].h.u.next
 150      0000
 151              		.loc 1 108 0
 152 009a 897E04   		movl	%edi, 4(%esi)	 # tmp69, MEM[(union heap_header *)buf_2(D)].h.size
 153              		.loc 1 110 0
 154 009d 895C2420 		movl	%ebx, 32(%esp)	 # tmp70,
 155              		.loc 1 114 0
 156 00a1 83C410   		addl	$16, %esp	 #,
 157              		.cfi_def_cfa_offset 16
 158 00a4 5B       		popl	%ebx	 #
 159              		.cfi_restore 3
 160              		.cfi_def_cfa_offset 12
 161 00a5 5E       		popl	%esi	 #
 162              		.cfi_restore 6
 163              		.cfi_def_cfa_offset 8
 164              	LVL4:
 165 00a6 5F       		popl	%edi	 #
 166              		.cfi_restore 7
 167              		.cfi_def_cfa_offset 4
 168              		.loc 1 110 0
 169 00a7 E9000000 		jmp	_chMtxInit	 #
 169      00
 170              	LVL5:
 171              		.cfi_endproc
 172              	LFE8:
 173 00ac 8D742600 		.p2align 4,,15
 174              		.globl	_chHeapAlloc
 175              		.def	_chHeapAlloc;	.scl	2;	.type	32;	.endef
 176              	_chHeapAlloc:
 177              	LFB9:
 178              		.loc 1 132 0
 179              		.cfi_startproc
 180              	LVL6:
 181 00b0 55       		pushl	%ebp	 #
 182              		.cfi_def_cfa_offset 8
 183              		.cfi_offset 5, -8
 184              		.loc 1 136 0
 185 00b1 B8000000 		movl	$_default_heap, %eax	 #, tmp85
 185      00
 186              		.loc 1 132 0
 187 00b6 57       		pushl	%edi	 #
 188              		.cfi_def_cfa_offset 12
 189              		.cfi_offset 7, -12
 190 00b7 56       		pushl	%esi	 #
 191              		.cfi_def_cfa_offset 16
 192              		.cfi_offset 6, -16
 193 00b8 53       		pushl	%ebx	 #
 194              		.cfi_def_cfa_offset 20
 195              		.cfi_offset 3, -20
 196 00b9 83EC1C   		subl	$28, %esp	 #,
 197              		.cfi_def_cfa_offset 48
 198              		.loc 1 132 0
 199 00bc 8B6C2430 		movl	48(%esp), %ebp	 # heapp, heapp
GAS LISTING /cygdrive/c/DOCUME~1/andrey/LOCALS~1/Temp/ccwVF4jH.s 			page 5


 200              		.loc 1 136 0
 201 00c0 85ED     		testl	%ebp, %ebp	 # heapp
 202 00c2 0F44E8   		cmove	%eax, %ebp	 # heapp,, tmp85, heapp
 203              	LVL7:
 204              		.loc 1 138 0
 205 00c5 8B442434 		movl	52(%esp), %eax	 # size, tmp86
 206              		.loc 1 139 0
 207 00c9 8D7510   		leal	16(%ebp), %esi	 #, qp
 208              		.loc 1 138 0
 209 00cc 8D780F   		leal	15(%eax), %edi	 #, size
 210              		.loc 1 140 0
 211 00cf 8D4520   		leal	32(%ebp), %eax	 #, tmp79
 212              		.loc 1 138 0
 213 00d2 83E7F0   		andl	$-16, %edi	 #, size
 214              	LVL8:
 215              		.loc 1 140 0
 216 00d5 890424   		movl	%eax, (%esp)	 # tmp79,
 217 00d8 E8000000 		call	_chMtxLock	 #
 217      00
 218              	LVL9:
 219              		.loc 1 142 0
 220 00dd EB0A     		jmp	L13	 #
 221 00df 90       		.p2align 4,,7
 222              	L18:
 223              	LVL10:
 224              		.loc 1 144 0
 225 00e0 8B4304   		movl	4(%ebx), %eax	 # qp_14->h.size, D.2152
 226 00e3 39C7     		cmpl	%eax, %edi	 # D.2152, size
 227 00e5 7630     		jbe	L26	 #,
 228 00e7 89DE     		movl	%ebx, %esi	 # qp, qp
 229              	LVL11:
 230              	L13:
 231              		.loc 1 142 0 discriminator 1
 232 00e9 8B1E     		movl	(%esi), %ebx	 # qp_2->h.u.next, qp
 233 00eb 85DB     		testl	%ebx, %ebx	 # qp
 234 00ed 75F1     		jne	L18	 #,
 235              		.loc 1 167 0
 236 00ef E8000000 		call	_chMtxUnlock	 #
 236      00
 237              	LVL12:
 238              		.loc 1 171 0
 239 00f4 8B4500   		movl	0(%ebp), %eax	 # heapp_1->h_provider, D.2155
 240 00f7 85C0     		testl	%eax, %eax	 # D.2155
 241 00f9 744E     		je	L20	 #,
 242              		.loc 1 172 0
 243 00fb 8D5710   		leal	16(%edi), %edx	 #, D.2152
 244 00fe 891424   		movl	%edx, (%esp)	 # D.2152,
 245 0101 FFD0     		call	*%eax	 # D.2155
 246              	LVL13:
 247              		.loc 1 173 0
 248 0103 85C0     		testl	%eax, %eax	 # hp
 249 0105 7442     		je	L20	 #,
 250              		.loc 1 174 0
 251 0107 8928     		movl	%ebp, (%eax)	 # heapp, hp_34->h.u.heap
 252              		.loc 1 177 0
 253 0109 83C010   		addl	$16, %eax	 #, D.2151
 254              	LVL14:
GAS LISTING /cygdrive/c/DOCUME~1/andrey/LOCALS~1/Temp/ccwVF4jH.s 			page 6


 255              		.loc 1 175 0
 256 010c 8978F4   		movl	%edi, -12(%eax)	 # size, hp_34->h.size
 257              	LVL15:
 258              	L17:
 259              		.loc 1 181 0
 260 010f 83C41C   		addl	$28, %esp	 #,
 261              		.cfi_remember_state
 262              		.cfi_def_cfa_offset 20
 263 0112 5B       		popl	%ebx	 #
 264              		.cfi_restore 3
 265              		.cfi_def_cfa_offset 16
 266 0113 5E       		popl	%esi	 #
 267              		.cfi_restore 6
 268              		.cfi_def_cfa_offset 12
 269              	LVL16:
 270 0114 5F       		popl	%edi	 #
 271              		.cfi_restore 7
 272              		.cfi_def_cfa_offset 8
 273              	LVL17:
 274 0115 5D       		popl	%ebp	 #
 275              		.cfi_restore 5
 276              		.cfi_def_cfa_offset 4
 277              	LVL18:
 278 0116 C3       		ret
 279              	LVL19:
 280              		.p2align 4,,7
 281              	L26:
 282              		.cfi_restore_state
 283              		.loc 1 145 0
 284 0117 8D5710   		leal	16(%edi), %edx	 #, D.2152
 285 011a 39C2     		cmpl	%eax, %edx	 # D.2152, D.2152
 286 011c 7616     		jbe	L15	 #,
 287              		.loc 1 149 0
 288 011e 8B03     		movl	(%ebx), %eax	 # qp_38->h.u.next, D.2154
 289 0120 8906     		movl	%eax, (%esi)	 # D.2154, qp_39->h.u.next
 290              	L16:
 291              		.loc 1 159 0
 292 0122 892B     		movl	%ebp, (%ebx)	 # heapp, qp_38->h.u.heap
 293              		.loc 1 161 0
 294 0124 E8000000 		call	_chMtxUnlock	 #
 294      00
 295              	LVL20:
 296              		.loc 1 181 0
 297 0129 83C41C   		addl	$28, %esp	 #,
 298              		.cfi_remember_state
 299              		.cfi_def_cfa_offset 20
 300              		.loc 1 162 0
 301 012c 8D4310   		leal	16(%ebx), %eax	 #, D.2151
 302              		.loc 1 181 0
 303 012f 5B       		popl	%ebx	 #
 304              		.cfi_restore 3
 305              		.cfi_def_cfa_offset 16
 306              	LVL21:
 307 0130 5E       		popl	%esi	 #
 308              		.cfi_restore 6
 309              		.cfi_def_cfa_offset 12
 310              	LVL22:
GAS LISTING /cygdrive/c/DOCUME~1/andrey/LOCALS~1/Temp/ccwVF4jH.s 			page 7


 311 0131 5F       		popl	%edi	 #
 312              		.cfi_restore 7
 313              		.cfi_def_cfa_offset 8
 314              	LVL23:
 315 0132 5D       		popl	%ebp	 #
 316              		.cfi_restore 5
 317              		.cfi_def_cfa_offset 4
 318              	LVL24:
 319 0133 C3       		ret
 320              	LVL25:
 321              		.p2align 4,,7
 322              	L15:
 323              		.cfi_restore_state
 324              		.loc 1 154 0
 325 0134 8B0B     		movl	(%ebx), %ecx	 # qp_38->h.u.next, D.2154
 326              		.loc 1 155 0
 327 0136 29F8     		subl	%edi, %eax	 # size, D.2152
 328              		.loc 1 153 0
 329 0138 01DA     		addl	%ebx, %edx	 # qp, fp
 330              	LVL26:
 331              		.loc 1 155 0
 332 013a 83E810   		subl	$16, %eax	 #, tmp82
 333 013d 894204   		movl	%eax, 4(%edx)	 # tmp82, fp_19->h.size
 334              		.loc 1 154 0
 335 0140 890A     		movl	%ecx, (%edx)	 # D.2154, fp_19->h.u.next
 336              		.loc 1 156 0
 337 0142 8916     		movl	%edx, (%esi)	 # fp, qp_39->h.u.next
 338              		.loc 1 157 0
 339 0144 897B04   		movl	%edi, 4(%ebx)	 # size, qp_38->h.size
 340 0147 EBD9     		jmp	L16	 #
 341              	LVL27:
 342              	L20:
 343              		.loc 1 180 0
 344 0149 31C0     		xorl	%eax, %eax	 # D.2151
 345 014b EBC2     		jmp	L17	 #
 346              		.cfi_endproc
 347              	LFE9:
 348              		.section .rdata,"dr"
 349              	LC2:
 350 003a 22636848 		.ascii "\"chHeapFree\"()\0"
 350      65617046 
 350      72656522 
 350      282900
 351              	LC3:
 352 0049 63684865 		.ascii "chHeapFree(), #1\0"
 352      61704672 
 352      65652829 
 352      2C202331 
 352      00
 353 005a 0000     		.text
 354 014d 8D7600   		.p2align 4,,15
 355              		.globl	_chHeapFree
 356              		.def	_chHeapFree;	.scl	2;	.type	32;	.endef
 357              	_chHeapFree:
 358              	LFB10:
 359              		.loc 1 194 0
 360              		.cfi_startproc
GAS LISTING /cygdrive/c/DOCUME~1/andrey/LOCALS~1/Temp/ccwVF4jH.s 			page 8


 361              	LVL28:
 362 0150 55       		pushl	%ebp	 #
 363              		.cfi_def_cfa_offset 8
 364              		.cfi_offset 5, -8
 365 0151 57       		pushl	%edi	 #
 366              		.cfi_def_cfa_offset 12
 367              		.cfi_offset 7, -12
 368 0152 56       		pushl	%esi	 #
 369              		.cfi_def_cfa_offset 16
 370              		.cfi_offset 6, -16
 371 0153 53       		pushl	%ebx	 #
 372              		.cfi_def_cfa_offset 20
 373              		.cfi_offset 3, -20
 374 0154 83EC1C   		subl	$28, %esp	 #,
 375              		.cfi_def_cfa_offset 48
 376              		.loc 1 194 0
 377 0157 8B6C2430 		movl	48(%esp), %ebp	 # p, p
 378              		.loc 1 198 0
 379 015b 85ED     		testl	%ebp, %ebp	 # p
 380 015d 0F84CE00 		je	L42	 #,
 380      0000
 381              	L28:
 382              		.loc 1 201 0
 383 0163 8B45F0   		movl	-16(%ebp), %eax	 # MEM[(union heap_header *)p_7(D) + 4294967280B].h.u.heap, heapp
 384              		.loc 1 200 0
 385 0166 8D75F0   		leal	-16(%ebp), %esi	 #, hp
 386              	LVL29:
 387              		.loc 1 202 0
 388 0169 8D7810   		leal	16(%eax), %edi	 #, qp
 389              	LVL30:
 390              		.loc 1 203 0
 391 016c 83C020   		addl	$32, %eax	 #, tmp85
 392              	LVL31:
 393 016f 890424   		movl	%eax, (%esp)	 # tmp85,
 394              	LVL32:
 395              		.loc 1 202 0
 396 0172 89FB     		movl	%edi, %ebx	 # qp, qp
 397              		.loc 1 203 0
 398 0174 E8000000 		call	_chMtxLock	 #
 398      00
 399              	LVL33:
 400 0179 8DB42600 		.p2align 4,,7
 400      000000
 401              	L36:
 402              		.loc 1 206 0
 403 0180 39F3     		cmpl	%esi, %ebx	 # hp, qp
 404 0182 770B     		ja	L29	 #,
 405              		.loc 1 206 0 is_stmt 0 discriminator 1
 406 0184 8B4304   		movl	4(%ebx), %eax	 # qp_1->h.size, qp_1->h.size
 407 0187 8D440310 		leal	16(%ebx,%eax), %eax	 #, D.2161
 408 018b 39C6     		cmpl	%eax, %esi	 # D.2161, hp
 409 018d 7219     		jb	L43	 #,
 410              	L29:
 411              		.loc 1 210 0 is_stmt 1
 412 018f 39FB     		cmpl	%edi, %ebx	 # qp, qp
 413 0191 7435     		je	L30	 #,
 414              	L44:
GAS LISTING /cygdrive/c/DOCUME~1/andrey/LOCALS~1/Temp/ccwVF4jH.s 			page 9


 415              		.loc 1 210 0 is_stmt 0 discriminator 2
 416 0193 39F3     		cmpl	%esi, %ebx	 # hp, qp
 417 0195 7231     		jb	L30	 #,
 418 0197 8B1B     		movl	(%ebx), %ebx	 # qp_1->h.u.next, qp
 419              	LVL34:
 420              		.loc 1 206 0 is_stmt 1
 421 0199 39F3     		cmpl	%esi, %ebx	 # hp, qp
 422              		.p2align 4,,3
 423 019b 77F2     		ja	L29	 #,
 424 019d 8B4304   		movl	4(%ebx), %eax	 # qp_1->h.size, qp_1->h.size
 425 01a0 8D440310 		leal	16(%ebx,%eax), %eax	 #, D.2161
 426 01a4 39C6     		cmpl	%eax, %esi	 # D.2161, hp
 427 01a6 73E7     		jae	L29	 #,
 428              	L43:
 429              		.loc 1 206 0 is_stmt 0 discriminator 1
 430 01a8 C7442408 		movl	$208, 8(%esp)	 #,
 430      D0000000 
 431 01b0 C7442404 		movl	$LC0, 4(%esp)	 #,
 431      00000000 
 432 01b8 C7042449 		movl	$LC3, (%esp)	 #,
 432      000000
 433 01bf E8000000 		call	_chDbgPanic	 #
 433      00
 434              	LVL35:
 435              		.loc 1 210 0 is_stmt 1 discriminator 1
 436 01c4 39FB     		cmpl	%edi, %ebx	 # qp, qp
 437 01c6 75CB     		jne	L44	 #,
 438              		.p2align 4,,7
 439              	L30:
 440              		.loc 1 211 0 discriminator 1
 441 01c8 8B03     		movl	(%ebx), %eax	 # qp_1->h.u.next, D.2161
 442              		.loc 1 210 0 discriminator 1
 443 01ca 85C0     		testl	%eax, %eax	 # D.2161
 444 01cc 7408     		je	L32	 #,
 445              		.loc 1 211 0
 446 01ce 39C6     		cmpl	%eax, %esi	 # D.2161, hp
 447              		.p2align 4,,3
 448 01d0 7204     		jb	L32	 #,
 449 01d2 89C3     		movl	%eax, %ebx	 # D.2161, qp
 450              	LVL36:
 451              		.loc 1 229 0
 452              		.p2align 4,,3
 453 01d4 EBAA     		jmp	L36	 #
 454              	LVL37:
 455              		.p2align 4,,7
 456              	L32:
 457              		.loc 1 216 0
 458 01d6 8B55F4   		movl	-12(%ebp), %edx	 # MEM[(union heap_header *)p_7(D) + 4294967280B].h.size, D.2159
 459              		.loc 1 213 0
 460 01d9 8945F0   		movl	%eax, -16(%ebp)	 # D.2161, MEM[(union heap_header *)p_7(D) + 4294967280B].h.u.next
 461              		.loc 1 214 0
 462 01dc 8933     		movl	%esi, (%ebx)	 # hp, qp_65->h.u.next
 463              		.loc 1 216 0
 464 01de 8D441610 		leal	16(%esi,%edx), %eax	 #, D.2161
 465 01e2 3B45F0   		cmpl	-16(%ebp), %eax	 # MEM[(union heap_header *)p_7(D) + 4294967280B].h.u.next, D.2161
 466 01e5 7417     		je	L45	 #,
 467              		.loc 1 221 0
GAS LISTING /cygdrive/c/DOCUME~1/andrey/LOCALS~1/Temp/ccwVF4jH.s 			page 10


 468 01e7 8B4304   		movl	4(%ebx), %eax	 # qp_65->h.size, D.2159
 469 01ea 8D540310 		leal	16(%ebx,%eax), %edx	 #, D.2161
 470 01ee 39D6     		cmpl	%edx, %esi	 # D.2161, hp
 471 01f0 7425     		je	L46	 #,
 472              	L35:
 473              		.loc 1 233 0
 474 01f2 83C41C   		addl	$28, %esp	 #,
 475              		.cfi_remember_state
 476              		.cfi_def_cfa_offset 20
 477 01f5 5B       		popl	%ebx	 #
 478              		.cfi_restore 3
 479              		.cfi_def_cfa_offset 16
 480              	LVL38:
 481 01f6 5E       		popl	%esi	 #
 482              		.cfi_restore 6
 483              		.cfi_def_cfa_offset 12
 484              	LVL39:
 485 01f7 5F       		popl	%edi	 #
 486              		.cfi_restore 7
 487              		.cfi_def_cfa_offset 8
 488              	LVL40:
 489 01f8 5D       		popl	%ebp	 #
 490              		.cfi_restore 5
 491              		.cfi_def_cfa_offset 4
 492              	LVL41:
 493              		.loc 1 231 0
 494 01f9 E9000000 		jmp	_chMtxUnlock	 #
 494      00
 495              	LVL42:
 496              	L45:
 497              		.cfi_restore_state
 498              		.loc 1 218 0
 499 01fe 035004   		addl	4(%eax), %edx	 # _24->h.size, D.2159
 500              		.loc 1 219 0
 501 0201 8B00     		movl	(%eax), %eax	 # _24->h.u.next, D.2161
 502              		.loc 1 218 0
 503 0203 83C210   		addl	$16, %edx	 #, tmp92
 504 0206 8955F4   		movl	%edx, -12(%ebp)	 # tmp92, MEM[(union heap_header *)p_7(D) + 4294967280B].h.size
 505              		.loc 1 219 0
 506 0209 8945F0   		movl	%eax, -16(%ebp)	 # D.2161, MEM[(union heap_header *)p_7(D) + 4294967280B].h.u.next
 507              		.loc 1 221 0
 508 020c 8B4304   		movl	4(%ebx), %eax	 # qp_65->h.size, D.2159
 509 020f 8D540310 		leal	16(%ebx,%eax), %edx	 #, D.2161
 510 0213 39D6     		cmpl	%edx, %esi	 # D.2161, hp
 511 0215 75DB     		jne	L35	 #,
 512              	L46:
 513              		.loc 1 223 0
 514 0217 0345F4   		addl	-12(%ebp), %eax	 # MEM[(union heap_header *)p_7(D) + 4294967280B].h.size, D.2159
 515 021a 83C010   		addl	$16, %eax	 #, tmp97
 516 021d 894304   		movl	%eax, 4(%ebx)	 # tmp97, qp_65->h.size
 517              		.loc 1 224 0
 518 0220 8B45F0   		movl	-16(%ebp), %eax	 # MEM[(union heap_header *)p_7(D) + 4294967280B].h.u.next, D.2161
 519 0223 8903     		movl	%eax, (%ebx)	 # D.2161, qp_65->h.u.next
 520              		.loc 1 233 0
 521 0225 83C41C   		addl	$28, %esp	 #,
 522              		.cfi_remember_state
 523              		.cfi_def_cfa_offset 20
GAS LISTING /cygdrive/c/DOCUME~1/andrey/LOCALS~1/Temp/ccwVF4jH.s 			page 11


 524 0228 5B       		popl	%ebx	 #
 525              		.cfi_restore 3
 526              		.cfi_def_cfa_offset 16
 527              	LVL43:
 528 0229 5E       		popl	%esi	 #
 529              		.cfi_restore 6
 530              		.cfi_def_cfa_offset 12
 531              	LVL44:
 532 022a 5F       		popl	%edi	 #
 533              		.cfi_restore 7
 534              		.cfi_def_cfa_offset 8
 535              	LVL45:
 536 022b 5D       		popl	%ebp	 #
 537              		.cfi_restore 5
 538              		.cfi_def_cfa_offset 4
 539              	LVL46:
 540              		.loc 1 231 0
 541 022c E9000000 		jmp	_chMtxUnlock	 #
 541      00
 542              	LVL47:
 543              	L42:
 544              		.cfi_restore_state
 545              		.loc 1 198 0 discriminator 1
 546 0231 C7442408 		movl	$198, 8(%esp)	 #,
 546      C6000000 
 547 0239 C7442404 		movl	$LC0, 4(%esp)	 #,
 547      00000000 
 548 0241 C704243A 		movl	$LC2, (%esp)	 #,
 548      000000
 549 0248 E8000000 		call	_chDbgPanic	 #
 549      00
 550              	LVL48:
 551 024d E911FFFF 		jmp	L28	 #
 551      FF
 552              		.cfi_endproc
 553              	LFE10:
 554 0252 8DB42600 		.p2align 4,,15
 554      0000008D 
 554      BC270000 
 554      0000
 555              		.globl	_chHeapStatus
 556              		.def	_chHeapStatus;	.scl	2;	.type	32;	.endef
 557              	_chHeapStatus:
 558              	LFB11:
 559              		.loc 1 250 0
 560              		.cfi_startproc
 561              	LVL49:
 562 0260 56       		pushl	%esi	 #
 563              		.cfi_def_cfa_offset 8
 564              		.cfi_offset 6, -8
 565              		.loc 1 255 0
 566 0261 B8000000 		movl	$_default_heap, %eax	 #, tmp72
 566      00
 567              		.loc 1 250 0
 568 0266 53       		pushl	%ebx	 #
 569              		.cfi_def_cfa_offset 12
 570              		.cfi_offset 3, -12
GAS LISTING /cygdrive/c/DOCUME~1/andrey/LOCALS~1/Temp/ccwVF4jH.s 			page 12


 571 0267 83EC14   		subl	$20, %esp	 #,
 572              		.cfi_def_cfa_offset 32
 573              		.loc 1 250 0
 574 026a 8B5C2420 		movl	32(%esp), %ebx	 # heapp, heapp
 575 026e 8B742424 		movl	36(%esp), %esi	 # sizep, sizep
 576              		.loc 1 255 0
 577 0272 85DB     		testl	%ebx, %ebx	 # heapp
 578 0274 0F44D8   		cmove	%eax, %ebx	 # heapp,, tmp72, heapp
 579              	LVL50:
 580              		.loc 1 257 0
 581 0277 8D4320   		leal	32(%ebx), %eax	 #, tmp67
 582 027a 890424   		movl	%eax, (%esp)	 # tmp67,
 583 027d E8000000 		call	_chMtxLock	 #
 583      00
 584              	LVL51:
 585              		.loc 1 260 0
 586 0282 8B5310   		movl	16(%ebx), %edx	 # MEM[(union heap_header *)heapp_1 + 16B].h.u.next, qp
 587              		.loc 1 259 0
 588 0285 31C0     		xorl	%eax, %eax	 # sz
 589              		.loc 1 260 0
 590 0287 31DB     		xorl	%ebx, %ebx	 # n
 591              	LVL52:
 592 0289 85D2     		testl	%edx, %edx	 # qp
 593 028b 740F     		je	L49	 #,
 594              	LVL53:
 595 028d 8D7600   		.p2align 4,,7
 596              	L50:
 597              		.loc 1 261 0 discriminator 2
 598 0290 034204   		addl	4(%edx), %eax	 # qp_26->h.size, sz
 599              	LVL54:
 600              		.loc 1 260 0 discriminator 2
 601 0293 83C301   		addl	$1, %ebx	 #, n
 602              	LVL55:
 603 0296 8B12     		movl	(%edx), %edx	 # qp_26->h.u.next, qp
 604              	LVL56:
 605 0298 85D2     		testl	%edx, %edx	 # qp
 606 029a 75F4     		jne	L50	 #,
 607              	LVL57:
 608              	L49:
 609              		.loc 1 262 0
 610 029c 85F6     		testl	%esi, %esi	 # sizep
 611 029e 7402     		je	L51	 #,
 612              		.loc 1 263 0
 613 02a0 8906     		movl	%eax, (%esi)	 # sz, *sizep_15(D)
 614              	L51:
 615              		.loc 1 265 0
 616 02a2 E8000000 		call	_chMtxUnlock	 #
 616      00
 617              	LVL58:
 618              		.loc 1 267 0
 619 02a7 83C414   		addl	$20, %esp	 #,
 620              		.cfi_def_cfa_offset 12
 621 02aa 89D8     		movl	%ebx, %eax	 # n,
 622 02ac 5B       		popl	%ebx	 #
 623              		.cfi_restore 3
 624              		.cfi_def_cfa_offset 8
 625 02ad 5E       		popl	%esi	 #
GAS LISTING /cygdrive/c/DOCUME~1/andrey/LOCALS~1/Temp/ccwVF4jH.s 			page 13


 626              		.cfi_restore 6
 627              		.cfi_def_cfa_offset 4
 628 02ae C3       		ret
 629              		.cfi_endproc
 630              	LFE11:
 631              	.lcomm _default_heap,48,32
 632              	Letext0:
 633              		.file 2 "/usr/lib/gcc/i686-pc-cygwin/4.8.2/include/stddef.h"
 634              		.file 3 "/usr/include/stdint.h"
 635              		.file 4 "../firmware/chibios/os/ports/GCC/SIMIA32/chtypes.h"
 636              		.file 5 "../firmware/chibios/os/kernel/include/chlists.h"
 637              		.file 6 "../firmware/chibios/os/kernel/include/chthreads.h"
 638              		.file 7 "../firmware/chibios/os/ports/GCC/SIMIA32/chcore.h"
 639              		.file 8 "../firmware/chibios/os/kernel/include/chmtx.h"
 640              		.file 9 "../firmware/chibios/os/kernel/include/chmemcore.h"
 641              		.file 10 "../firmware/chibios/os/kernel/include/chheap.h"
 642              		.file 11 "../firmware/chibios/os/kernel/include/chdebug.h"