GAS LISTING /cygdrive/c/DOCUME~1/andrey/LOCALS~1/Temp/ccxtzNSu.s 			page 1


   1              		.file	"chmboxes.c"
   2              	 # GNU C (GCC) version 4.8.2 (i686-pc-cygwin)
   3              	 #	compiled by GNU C version 4.8.2, GMP version 5.1.3, MPFR version 3.1.2, MPC version 1.0.1
   4              	 # GGC heuristics: --param ggc-min-expand=100 --param ggc-min-heapsize=131072
   5              	 # options passed:  -I . -I ../firmware/chibios/os/ports/GCC/SIMIA32
   6              	 # -I ../firmware/chibios/os/kernel/include
   7              	 # -I ../firmware/chibios/os/hal/include
   8              	 # -I ../firmware/chibios/os/hal/platforms/Win32
   9              	 # -I ../firmware/chibios/boards/simulator -I ../firmware/util
  10              	 # -I ../firmware/console -I ../firmware/console_util
  11              	 # -I ../firmware/config/engines -I ../firmware/ext_algo
  12              	 # -I ../firmware/controllers/sensors -I ../firmware/controllers/system
  13              	 # -I ../firmware/controllers/algo -I ../firmware/controllers/math
  14              	 # -I ../firmware/controllers/trigger -I ../firmware/chibios/os/various
  15              	 # -MD ../firmware/chibios/os/kernel/src/chmboxes.d -MF .dep/chmboxes.o.d
  16              	 # -MP -MQ ../firmware/chibios/os/kernel/src/chmboxes.o -Dunix
  17              	 # -idirafter /usr/lib/gcc/i686-pc-cygwin/4.8.2/../../../../include/w32api
  18              	 # -idirafter ../../include/w32api -D SIMULATOR -D SHELL_USE_IPRINTF=FALSE
  19              	 # ../firmware/chibios/os/kernel/src/chmboxes.c -mtune=generic -march=i686
  20              	 # -auxbase-strip ../firmware/chibios/os/kernel/src/chmboxes.o -ggdb -O2
  21              	 # -Wall -Wextra -Wstrict-prototypes -std=gnu99 -fomit-frame-pointer
  22              	 # -fgnu89-inline -fverbose-asm
  23              	 # options enabled:  -faggressive-loop-optimizations
  24              	 # -fasynchronous-unwind-tables -fauto-inc-dec -fbranch-count-reg
  25              	 # -fcaller-saves -fcombine-stack-adjustments -fcommon -fcompare-elim
  26              	 # -fcprop-registers -fcrossjumping -fcse-follow-jumps -fdefer-pop
  27              	 # -fdelete-null-pointer-checks -fdevirtualize -fdwarf2-cfi-asm
  28              	 # -fearly-inlining -feliminate-unused-debug-types
  29              	 # -fexpensive-optimizations -fforward-propagate -ffunction-cse -fgcse
  30              	 # -fgcse-lm -fgnu-runtime -fguess-branch-probability
  31              	 # -fhoist-adjacent-loads -fident -fif-conversion -fif-conversion2
  32              	 # -findirect-inlining -finline -finline-atomics
  33              	 # -finline-functions-called-once -finline-small-functions -fipa-cp
  34              	 # -fipa-profile -fipa-pure-const -fipa-reference -fipa-sra
  35              	 # -fira-hoist-pressure -fira-share-save-slots -fira-share-spill-slots
  36              	 # -fivopts -fkeep-inline-dllexport -fkeep-static-consts
  37              	 # -fleading-underscore -fmath-errno -fmerge-constants
  38              	 # -fmerge-debug-strings -fmove-loop-invariants -fomit-frame-pointer
  39              	 # -foptimize-register-move -foptimize-sibling-calls -foptimize-strlen
  40              	 # -fpartial-inlining -fpeephole -fpeephole2 -fprefetch-loop-arrays -free
  41              	 # -freg-struct-return -fregmove -freorder-blocks -freorder-functions
  42              	 # -frerun-cse-after-loop -fsched-critical-path-heuristic
  43              	 # -fsched-dep-count-heuristic -fsched-group-heuristic -fsched-interblock
  44              	 # -fsched-last-insn-heuristic -fsched-rank-heuristic -fsched-spec
  45              	 # -fsched-spec-insn-heuristic -fsched-stalled-insns-dep -fschedule-insns2
  46              	 # -fset-stack-executable -fshow-column -fshrink-wrap -fsigned-zeros
  47              	 # -fsplit-ivs-in-unroller -fsplit-wide-types -fstrict-aliasing
  48              	 # -fstrict-overflow -fstrict-volatile-bitfields -fsync-libcalls
  49              	 # -fthread-jumps -ftoplevel-reorder -ftrapping-math -ftree-bit-ccp
  50              	 # -ftree-builtin-call-dce -ftree-ccp -ftree-ch -ftree-coalesce-vars
  51              	 # -ftree-copy-prop -ftree-copyrename -ftree-cselim -ftree-dce
  52              	 # -ftree-dominator-opts -ftree-dse -ftree-forwprop -ftree-fre
  53              	 # -ftree-loop-if-convert -ftree-loop-im -ftree-loop-ivcanon
  54              	 # -ftree-loop-optimize -ftree-parallelize-loops= -ftree-phiprop -ftree-pre
  55              	 # -ftree-pta -ftree-reassoc -ftree-scev-cprop -ftree-sink
  56              	 # -ftree-slp-vectorize -ftree-slsr -ftree-sra -ftree-switch-conversion
  57              	 # -ftree-tail-merge -ftree-ter -ftree-vect-loop-version -ftree-vrp
GAS LISTING /cygdrive/c/DOCUME~1/andrey/LOCALS~1/Temp/ccxtzNSu.s 			page 2


  58              	 # -funit-at-a-time -funwind-tables -fvar-tracking
  59              	 # -fvar-tracking-assignments -fverbose-asm -fzero-initialized-in-bss -m32
  60              	 # -m80387 -m96bit-long-double -maccumulate-outgoing-args -malign-double
  61              	 # -malign-stringops -mfancy-math-387 -mfp-ret-in-387 -mieee-fp
  62              	 # -mlong-double-80 -mno-red-zone -mno-sse4 -mpush-args -msahf
  63              	 # -mstack-arg-probe
  64              	
  65              		.text
  66              	Ltext0:
  67              		.section .rdata,"dr"
  68              		.align 4
  69              	LC0:
  70 0000 2E2E2F66 		.ascii "../firmware/chibios/os/kernel/src/chmboxes.c\0"
  70      69726D77 
  70      6172652F 
  70      63686962 
  70      696F732F 
  71              	LC1:
  72 002d 2263684D 		.ascii "\"chMBInit\"()\0"
  72      42496E69 
  72      74222829 
  72      00
  73              		.text
  74              		.p2align 4,,15
  75              		.globl	_chMBInit
  76              		.def	_chMBInit;	.scl	2;	.type	32;	.endef
  77              	_chMBInit:
  78              	LFB7:
  79              		.file 1 "../firmware/chibios/os/kernel/src/chmboxes.c"
  80              		.loc 1 72 0
  81              		.cfi_startproc
  82              	LVL0:
  83 0000 57       		pushl	%edi	 #
  84              		.cfi_def_cfa_offset 8
  85              		.cfi_offset 7, -8
  86 0001 56       		pushl	%esi	 #
  87              		.cfi_def_cfa_offset 12
  88              		.cfi_offset 6, -12
  89 0002 53       		pushl	%ebx	 #
  90              		.cfi_def_cfa_offset 16
  91              		.cfi_offset 3, -16
  92 0003 83EC10   		subl	$16, %esp	 #,
  93              		.cfi_def_cfa_offset 32
  94              		.loc 1 72 0
  95 0006 8B5C2420 		movl	32(%esp), %ebx	 # mbp, mbp
  96 000a 8B742424 		movl	36(%esp), %esi	 # buf, buf
  97 000e 8B7C2428 		movl	40(%esp), %edi	 # n, n
  98              		.loc 1 74 0
  99 0012 85DB     		testl	%ebx, %ebx	 # mbp
 100 0014 7440     		je	L2	 #,
 101 0016 85F6     		testl	%esi, %esi	 # buf
 102 0018 743C     		je	L2	 #,
 103              		.loc 1 74 0 is_stmt 0 discriminator 2
 104 001a 85FF     		testl	%edi, %edi	 # n
 105 001c 7E38     		jle	L2	 #,
 106              	L3:
 107              		.loc 1 77 0 is_stmt 1
GAS LISTING /cygdrive/c/DOCUME~1/andrey/LOCALS~1/Temp/ccxtzNSu.s 			page 3


 108 001e 8D04BE   		leal	(%esi,%edi,4), %eax	 #, tmp75
 109 0021 894304   		movl	%eax, 4(%ebx)	 # tmp75, mbp_2(D)->mb_top
 110              		.loc 1 78 0
 111 0024 8D431C   		leal	28(%ebx), %eax	 #, tmp76
 112              		.loc 1 79 0
 113 0027 83C310   		addl	$16, %ebx	 #, tmp77
 114              		.loc 1 76 0
 115 002a 8973FC   		movl	%esi, -4(%ebx)	 # buf, mbp_2(D)->mb_rdptr
 116 002d 8973F8   		movl	%esi, -8(%ebx)	 # buf, mbp_2(D)->mb_wrptr
 117 0030 8973F0   		movl	%esi, -16(%ebx)	 # buf, mbp_2(D)->mb_buffer
 118              		.loc 1 78 0
 119 0033 897C2404 		movl	%edi, 4(%esp)	 # n,
 120 0037 890424   		movl	%eax, (%esp)	 # tmp76,
 121 003a E8000000 		call	_chSemInit	 #
 121      00
 122              	LVL1:
 123              		.loc 1 79 0
 124 003f 895C2420 		movl	%ebx, 32(%esp)	 # tmp77,
 125 0043 C7442424 		movl	$0, 36(%esp)	 #,
 125      00000000 
 126              		.loc 1 80 0
 127 004b 83C410   		addl	$16, %esp	 #,
 128              		.cfi_remember_state
 129              		.cfi_def_cfa_offset 16
 130 004e 5B       		popl	%ebx	 #
 131              		.cfi_restore 3
 132              		.cfi_def_cfa_offset 12
 133 004f 5E       		popl	%esi	 #
 134              		.cfi_restore 6
 135              		.cfi_def_cfa_offset 8
 136 0050 5F       		popl	%edi	 #
 137              		.cfi_restore 7
 138              		.cfi_def_cfa_offset 4
 139              		.loc 1 79 0
 140 0051 E9000000 		jmp	_chSemInit	 #
 140      00
 141              	LVL2:
 142              		.p2align 4,,7
 143              	L2:
 144              		.cfi_restore_state
 145              		.loc 1 74 0 discriminator 1
 146 0056 C7442408 		movl	$74, 8(%esp)	 #,
 146      4A000000 
 147 005e C7442404 		movl	$LC0, 4(%esp)	 #,
 147      00000000 
 148 0066 C704242D 		movl	$LC1, (%esp)	 #,
 148      000000
 149 006d E8000000 		call	_chDbgPanic	 #
 149      00
 150              	LVL3:
 151 0072 EBAA     		jmp	L3	 #
 152              		.cfi_endproc
 153              	LFE7:
 154              		.section .rdata,"dr"
 155              	LC2:
 156 003a 2263684D 		.ascii "\"chMBReset\"()\0"
 156      42526573 
GAS LISTING /cygdrive/c/DOCUME~1/andrey/LOCALS~1/Temp/ccxtzNSu.s 			page 4


 156      65742228 
 156      2900
 157              		.text
 158 0074 8DB60000 		.p2align 4,,15
 158      00008DBF 
 158      00000000 
 159              		.globl	_chMBReset
 160              		.def	_chMBReset;	.scl	2;	.type	32;	.endef
 161              	_chMBReset:
 162              	LFB8:
 163              		.loc 1 91 0
 164              		.cfi_startproc
 165              	LVL4:
 166 0080 53       		pushl	%ebx	 #
 167              		.cfi_def_cfa_offset 8
 168              		.cfi_offset 3, -8
 169 0081 83EC18   		subl	$24, %esp	 #,
 170              		.cfi_def_cfa_offset 32
 171              		.loc 1 91 0
 172 0084 8B5C2420 		movl	32(%esp), %ebx	 # mbp, mbp
 173              		.loc 1 93 0
 174 0088 85DB     		testl	%ebx, %ebx	 # mbp
 175 008a 7448     		je	L9	 #,
 176              	L7:
 177              		.loc 1 95 0
 178              	/APP
 179              	 # 95 "../firmware/chibios/os/kernel/src/chmboxes.c" 1
 180 008c 90       		nop
 181              	 # 0 "" 2
 182              	/NO_APP
 183 008d E8000000 		call	_dbg_check_lock	 #
 183      00
 184              	LVL5:
 185              		.loc 1 96 0
 186 0092 8B13     		movl	(%ebx), %edx	 # mbp_2(D)->mb_buffer, D.2240
 187              		.loc 1 97 0
 188 0094 8B4304   		movl	4(%ebx), %eax	 # mbp_2(D)->mb_top, D.2241
 189              		.loc 1 96 0
 190 0097 89530C   		movl	%edx, 12(%ebx)	 # D.2240, mbp_2(D)->mb_rdptr
 191              		.loc 1 97 0
 192 009a 29D0     		subl	%edx, %eax	 # D.2240, D.2241
 193 009c C1F802   		sarl	$2, %eax	 #, D.2241
 194              		.loc 1 96 0
 195 009f 895308   		movl	%edx, 8(%ebx)	 # D.2240, mbp_2(D)->mb_wrptr
 196              		.loc 1 97 0
 197 00a2 89442404 		movl	%eax, 4(%esp)	 # D.2241,
 198 00a6 8D431C   		leal	28(%ebx), %eax	 #, tmp72
 199              		.loc 1 98 0
 200 00a9 83C310   		addl	$16, %ebx	 #, tmp73
 201              		.loc 1 97 0
 202 00ac 890424   		movl	%eax, (%esp)	 # tmp72,
 203 00af E8000000 		call	_chSemResetI	 #
 203      00
 204              	LVL6:
 205              		.loc 1 98 0
 206 00b4 C7442404 		movl	$0, 4(%esp)	 #,
 206      00000000 
GAS LISTING /cygdrive/c/DOCUME~1/andrey/LOCALS~1/Temp/ccxtzNSu.s 			page 5


 207 00bc 891C24   		movl	%ebx, (%esp)	 # tmp73,
 208 00bf E8000000 		call	_chSemResetI	 #
 208      00
 209              	LVL7:
 210              		.loc 1 99 0
 211 00c4 E8000000 		call	_chSchRescheduleS	 #
 211      00
 212              	LVL8:
 213              		.loc 1 100 0
 214 00c9 E8000000 		call	_dbg_check_unlock	 #
 214      00
 215              	LVL9:
 216              	/APP
 217              	 # 100 "../firmware/chibios/os/kernel/src/chmboxes.c" 1
 218 00ce 90       		nop
 219              	 # 0 "" 2
 220              		.loc 1 101 0
 221              	/NO_APP
 222 00cf 83C418   		addl	$24, %esp	 #,
 223              		.cfi_remember_state
 224              		.cfi_def_cfa_offset 8
 225 00d2 5B       		popl	%ebx	 #
 226              		.cfi_restore 3
 227              		.cfi_def_cfa_offset 4
 228              		.p2align 4,,1
 229 00d3 C3       		ret
 230              		.p2align 4,,7
 231              	L9:
 232              		.cfi_restore_state
 233              		.loc 1 93 0 discriminator 1
 234 00d4 C7442408 		movl	$93, 8(%esp)	 #,
 234      5D000000 
 235 00dc C7442404 		movl	$LC0, 4(%esp)	 #,
 235      00000000 
 236 00e4 C704243A 		movl	$LC2, (%esp)	 #,
 236      000000
 237 00eb E8000000 		call	_chDbgPanic	 #
 237      00
 238              	LVL10:
 239 00f0 EB9A     		jmp	L7	 #
 240              		.cfi_endproc
 241              	LFE8:
 242              		.section .rdata,"dr"
 243              	LC3:
 244 0048 2263684D 		.ascii "\"chMBPostS\"()\0"
 244      42506F73 
 244      74532228 
 244      2900
 245              		.text
 246 00f2 8DB42600 		.p2align 4,,15
 246      0000008D 
 246      BC270000 
 246      0000
 247              		.globl	_chMBPostS
 248              		.def	_chMBPostS;	.scl	2;	.type	32;	.endef
 249              	_chMBPostS:
 250              	LFB10:
GAS LISTING /cygdrive/c/DOCUME~1/andrey/LOCALS~1/Temp/ccxtzNSu.s 			page 6


 251              		.loc 1 150 0
 252              		.cfi_startproc
 253              	LVL11:
 254 0100 56       		pushl	%esi	 #
 255              		.cfi_def_cfa_offset 8
 256              		.cfi_offset 6, -8
 257 0101 53       		pushl	%ebx	 #
 258              		.cfi_def_cfa_offset 12
 259              		.cfi_offset 3, -12
 260 0102 83EC14   		subl	$20, %esp	 #,
 261              		.cfi_def_cfa_offset 32
 262              		.loc 1 150 0
 263 0105 8B5C2420 		movl	32(%esp), %ebx	 # mbp, mbp
 264              		.loc 1 153 0
 265 0109 E8000000 		call	_chDbgCheckClassS	 #
 265      00
 266              	LVL12:
 267              		.loc 1 154 0
 268 010e 85DB     		testl	%ebx, %ebx	 # mbp
 269 0110 7455     		je	L15	 #,
 270              	L11:
 271              		.loc 1 156 0
 272 0112 8B442428 		movl	40(%esp), %eax	 # time, time
 273 0116 89442404 		movl	%eax, 4(%esp)	 # time,
 274 011a 8D431C   		leal	28(%ebx), %eax	 #, tmp70
 275 011d 890424   		movl	%eax, (%esp)	 # tmp70,
 276 0120 E8000000 		call	_chSemWaitTimeoutS	 #
 276      00
 277              	LVL13:
 278              		.loc 1 157 0
 279 0125 85C0     		testl	%eax, %eax	 # rdymsg
 280 0127 752C     		jne	L12	 #,
 281              		.loc 1 158 0
 282 0129 8B4B08   		movl	8(%ebx), %ecx	 # mbp_6(D)->mb_wrptr, D.2247
 283 012c 8B742424 		movl	36(%esp), %esi	 # msg, tmp74
 284 0130 8D5104   		leal	4(%ecx), %edx	 #, D.2247
 285              		.loc 1 159 0
 286 0133 3B5304   		cmpl	4(%ebx), %edx	 # mbp_6(D)->mb_top, D.2247
 287              		.loc 1 158 0
 288 0136 895308   		movl	%edx, 8(%ebx)	 # D.2247, mbp_6(D)->mb_wrptr
 289 0139 8931     		movl	%esi, (%ecx)	 # tmp74, *_12
 290              		.loc 1 159 0
 291 013b 7323     		jae	L16	 #,
 292              	L13:
 293              		.loc 1 161 0
 294 013d 83C310   		addl	$16, %ebx	 #, tmp72
 295 0140 891C24   		movl	%ebx, (%esp)	 # tmp72,
 296 0143 8944240C 		movl	%eax, 12(%esp)	 # rdymsg, %sfp
 297 0147 E8000000 		call	_chSemSignalI	 #
 297      00
 298              	LVL14:
 299              		.loc 1 162 0
 300 014c E8000000 		call	_chSchRescheduleS	 #
 300      00
 301              	LVL15:
 302 0151 8B44240C 		movl	12(%esp), %eax	 # %sfp, rdymsg
 303              	LVL16:
GAS LISTING /cygdrive/c/DOCUME~1/andrey/LOCALS~1/Temp/ccxtzNSu.s 			page 7


 304              	L12:
 305              		.loc 1 165 0
 306 0155 83C414   		addl	$20, %esp	 #,
 307              		.cfi_remember_state
 308              		.cfi_def_cfa_offset 12
 309 0158 5B       		popl	%ebx	 #
 310              		.cfi_restore 3
 311              		.cfi_def_cfa_offset 8
 312 0159 5E       		popl	%esi	 #
 313              		.cfi_restore 6
 314              		.cfi_def_cfa_offset 4
 315 015a C3       		ret
 316              	LVL17:
 317 015b 908D7426 		.p2align 4,,7
 317      00
 318              	L16:
 319              		.cfi_restore_state
 320              		.loc 1 160 0
 321 0160 8B13     		movl	(%ebx), %edx	 # mbp_6(D)->mb_buffer, mbp_6(D)->mb_buffer
 322 0162 895308   		movl	%edx, 8(%ebx)	 # mbp_6(D)->mb_buffer, mbp_6(D)->mb_wrptr
 323 0165 EBD6     		jmp	L13	 #
 324              	LVL18:
 325              		.p2align 4,,7
 326              	L15:
 327              		.loc 1 154 0 discriminator 1
 328 0167 C7442408 		movl	$154, 8(%esp)	 #,
 328      9A000000 
 329 016f C7442404 		movl	$LC0, 4(%esp)	 #,
 329      00000000 
 330 0177 C7042448 		movl	$LC3, (%esp)	 #,
 330      000000
 331 017e E8000000 		call	_chDbgPanic	 #
 331      00
 332              	LVL19:
 333 0183 EB8D     		jmp	L11	 #
 334              		.cfi_endproc
 335              	LFE10:
 336 0185 8D742600 		.p2align 4,,15
 336      8DBC2700 
 336      000000
 337              		.globl	_chMBPost
 338              		.def	_chMBPost;	.scl	2;	.type	32;	.endef
 339              	_chMBPost:
 340              	LFB9:
 341              		.loc 1 122 0
 342              		.cfi_startproc
 343              	LVL20:
 344 0190 53       		pushl	%ebx	 #
 345              		.cfi_def_cfa_offset 8
 346              		.cfi_offset 3, -8
 347 0191 83EC18   		subl	$24, %esp	 #,
 348              		.cfi_def_cfa_offset 32
 349              		.loc 1 125 0
 350              	/APP
 351              	 # 125 "../firmware/chibios/os/kernel/src/chmboxes.c" 1
 352 0194 90       		nop
 353              	 # 0 "" 2
GAS LISTING /cygdrive/c/DOCUME~1/andrey/LOCALS~1/Temp/ccxtzNSu.s 			page 8


 354              	/NO_APP
 355 0195 E8000000 		call	_dbg_check_lock	 #
 355      00
 356              	LVL21:
 357              		.loc 1 126 0
 358 019a 8B442428 		movl	40(%esp), %eax	 # time, time
 359 019e 89442408 		movl	%eax, 8(%esp)	 # time,
 360 01a2 8B442424 		movl	36(%esp), %eax	 # msg, msg
 361 01a6 89442404 		movl	%eax, 4(%esp)	 # msg,
 362 01aa 8B442420 		movl	32(%esp), %eax	 # mbp, mbp
 363 01ae 890424   		movl	%eax, (%esp)	 # mbp,
 364 01b1 E84AFFFF 		call	_chMBPostS	 #
 364      FF
 365              	LVL22:
 366 01b6 89C3     		movl	%eax, %ebx	 #, rdymsg
 367              	LVL23:
 368              		.loc 1 127 0
 369 01b8 E8000000 		call	_dbg_check_unlock	 #
 369      00
 370              	LVL24:
 371              	/APP
 372              	 # 127 "../firmware/chibios/os/kernel/src/chmboxes.c" 1
 373 01bd 90       		nop
 374              	 # 0 "" 2
 375              		.loc 1 129 0
 376              	/NO_APP
 377 01be 83C418   		addl	$24, %esp	 #,
 378              		.cfi_def_cfa_offset 8
 379 01c1 89D8     		movl	%ebx, %eax	 # rdymsg,
 380 01c3 5B       		popl	%ebx	 #
 381              		.cfi_restore 3
 382              		.cfi_def_cfa_offset 4
 383              	LVL25:
 384 01c4 C3       		ret
 385              		.cfi_endproc
 386              	LFE9:
 387              		.section .rdata,"dr"
 388              	LC4:
 389 0056 2263684D 		.ascii "\"chMBPostI\"()\0"
 389      42506F73 
 389      74492228 
 389      2900
 390              		.text
 391 01c5 8D742600 		.p2align 4,,15
 391      8DBC2700 
 391      000000
 392              		.globl	_chMBPostI
 393              		.def	_chMBPostI;	.scl	2;	.type	32;	.endef
 394              	_chMBPostI:
 395              	LFB11:
 396              		.loc 1 181 0
 397              		.cfi_startproc
 398              	LVL26:
 399 01d0 53       		pushl	%ebx	 #
 400              		.cfi_def_cfa_offset 8
 401              		.cfi_offset 3, -8
 402 01d1 83EC18   		subl	$24, %esp	 #,
GAS LISTING /cygdrive/c/DOCUME~1/andrey/LOCALS~1/Temp/ccxtzNSu.s 			page 9


 403              		.cfi_def_cfa_offset 32
 404              		.loc 1 181 0
 405 01d4 8B5C2420 		movl	32(%esp), %ebx	 # mbp, mbp
 406              		.loc 1 183 0
 407 01d8 E8000000 		call	_chDbgCheckClassI	 #
 407      00
 408              	LVL27:
 409              		.loc 1 184 0
 410 01dd 85DB     		testl	%ebx, %ebx	 # mbp
 411 01df 743F     		je	L25	 #,
 412              	L20:
 413              		.loc 1 186 0
 414 01e1 8B4324   		movl	36(%ebx), %eax	 # mbp_7(D)->mb_emptysem.s_cnt, D.2255
 415 01e4 85C0     		testl	%eax, %eax	 # D.2255
 416 01e6 7E58     		jle	L23	 #,
 417              		.loc 1 189 0
 418 01e8 8B5308   		movl	8(%ebx), %edx	 # mbp_7(D)->mb_wrptr, D.2256
 419              		.loc 1 188 0
 420 01eb 83E801   		subl	$1, %eax	 #, tmp70
 421              		.loc 1 189 0
 422 01ee 8B4C2424 		movl	36(%esp), %ecx	 # msg, msg
 423              		.loc 1 188 0
 424 01f2 894324   		movl	%eax, 36(%ebx)	 # tmp70, mbp_7(D)->mb_emptysem.s_cnt
 425              		.loc 1 189 0
 426 01f5 8D4204   		leal	4(%edx), %eax	 #, D.2256
 427              		.loc 1 190 0
 428 01f8 3B4304   		cmpl	4(%ebx), %eax	 # mbp_7(D)->mb_top, D.2256
 429              		.loc 1 189 0
 430 01fb 894308   		movl	%eax, 8(%ebx)	 # D.2256, mbp_7(D)->mb_wrptr
 431 01fe 890A     		movl	%ecx, (%edx)	 # msg, *_12
 432              		.loc 1 190 0
 433 0200 7312     		jae	L26	 #,
 434              	L22:
 435              		.loc 1 192 0
 436 0202 83C310   		addl	$16, %ebx	 #, tmp72
 437 0205 891C24   		movl	%ebx, (%esp)	 # tmp72,
 438 0208 E8000000 		call	_chSemSignalI	 #
 438      00
 439              	LVL28:
 440              		.loc 1 193 0
 441 020d 31C0     		xorl	%eax, %eax	 # D.2254
 442              	L21:
 443              		.loc 1 194 0
 444 020f 83C418   		addl	$24, %esp	 #,
 445              		.cfi_remember_state
 446              		.cfi_def_cfa_offset 8
 447 0212 5B       		popl	%ebx	 #
 448              		.cfi_restore 3
 449              		.cfi_def_cfa_offset 4
 450 0213 C3       		ret
 451              		.p2align 4,,7
 452              	L26:
 453              		.cfi_restore_state
 454              		.loc 1 191 0
 455 0214 8B03     		movl	(%ebx), %eax	 # mbp_7(D)->mb_buffer, mbp_7(D)->mb_buffer
 456 0216 894308   		movl	%eax, 8(%ebx)	 # mbp_7(D)->mb_buffer, mbp_7(D)->mb_wrptr
 457 0219 EBE7     		jmp	L22	 #
GAS LISTING /cygdrive/c/DOCUME~1/andrey/LOCALS~1/Temp/ccxtzNSu.s 			page 10


 458 021b 908D7426 		.p2align 4,,7
 458      00
 459              	L25:
 460              		.loc 1 184 0 discriminator 1
 461 0220 C7442408 		movl	$184, 8(%esp)	 #,
 461      B8000000 
 462 0228 C7442404 		movl	$LC0, 4(%esp)	 #,
 462      00000000 
 463 0230 C7042456 		movl	$LC4, (%esp)	 #,
 463      000000
 464 0237 E8000000 		call	_chDbgPanic	 #
 464      00
 465              	LVL29:
 466 023c EBA3     		jmp	L20	 #
 467 023e 6690     		.p2align 4,,7
 468              	L23:
 469              		.loc 1 187 0
 470 0240 B8FFFFFF 		movl	$-1, %eax	 #, D.2254
 470      FF
 471 0245 EBC8     		jmp	L21	 #
 472              		.cfi_endproc
 473              	LFE11:
 474              		.section .rdata,"dr"
 475              	LC5:
 476 0064 2263684D 		.ascii "\"chMBPostAheadS\"()\0"
 476      42506F73 
 476      74416865 
 476      61645322 
 476      282900
 477              		.text
 478 0247 89F68DBC 		.p2align 4,,15
 478      27000000 
 478      00
 479              		.globl	_chMBPostAheadS
 480              		.def	_chMBPostAheadS;	.scl	2;	.type	32;	.endef
 481              	_chMBPostAheadS:
 482              	LFB13:
 483              		.loc 1 243 0
 484              		.cfi_startproc
 485              	LVL30:
 486 0250 53       		pushl	%ebx	 #
 487              		.cfi_def_cfa_offset 8
 488              		.cfi_offset 3, -8
 489 0251 83EC18   		subl	$24, %esp	 #,
 490              		.cfi_def_cfa_offset 32
 491              		.loc 1 243 0
 492 0254 8B5C2420 		movl	32(%esp), %ebx	 # mbp, mbp
 493              		.loc 1 246 0
 494 0258 E8000000 		call	_chDbgCheckClassS	 #
 494      00
 495              	LVL31:
 496              		.loc 1 247 0
 497 025d 85DB     		testl	%ebx, %ebx	 # mbp
 498 025f 7452     		je	L32	 #,
 499              	L28:
 500              		.loc 1 249 0
 501 0261 8B442428 		movl	40(%esp), %eax	 # time, time
GAS LISTING /cygdrive/c/DOCUME~1/andrey/LOCALS~1/Temp/ccxtzNSu.s 			page 11


 502 0265 89442404 		movl	%eax, 4(%esp)	 # time,
 503 0269 8D431C   		leal	28(%ebx), %eax	 #, tmp70
 504 026c 890424   		movl	%eax, (%esp)	 # tmp70,
 505 026f E8000000 		call	_chSemWaitTimeoutS	 #
 505      00
 506              	LVL32:
 507              		.loc 1 250 0
 508 0274 85C0     		testl	%eax, %eax	 # rdymsg
 509 0276 752B     		jne	L29	 #,
 510              		.loc 1 251 0
 511 0278 8B4B0C   		movl	12(%ebx), %ecx	 # mbp_6(D)->mb_rdptr, tmp75
 512 027b 8D51FC   		leal	-4(%ecx), %edx	 #, D.2262
 513 027e 3B13     		cmpl	(%ebx), %edx	 # mbp_6(D)->mb_buffer, D.2262
 514 0280 89530C   		movl	%edx, 12(%ebx)	 # D.2262, mbp_6(D)->mb_rdptr
 515 0283 7223     		jb	L33	 #,
 516              	L30:
 517              		.loc 1 253 0
 518 0285 8B4C2424 		movl	36(%esp), %ecx	 # msg, msg
 519              		.loc 1 254 0
 520 0289 83C310   		addl	$16, %ebx	 #, tmp73
 521 028c 8944240C 		movl	%eax, 12(%esp)	 # rdymsg, %sfp
 522              		.loc 1 253 0
 523 0290 890A     		movl	%ecx, (%edx)	 # msg, *_26
 524              		.loc 1 254 0
 525 0292 891C24   		movl	%ebx, (%esp)	 # tmp73,
 526 0295 E8000000 		call	_chSemSignalI	 #
 526      00
 527              	LVL33:
 528              		.loc 1 255 0
 529 029a E8000000 		call	_chSchRescheduleS	 #
 529      00
 530              	LVL34:
 531 029f 8B44240C 		movl	12(%esp), %eax	 # %sfp, rdymsg
 532              	LVL35:
 533              	L29:
 534              		.loc 1 258 0
 535 02a3 83C418   		addl	$24, %esp	 #,
 536              		.cfi_remember_state
 537              		.cfi_def_cfa_offset 8
 538 02a6 5B       		popl	%ebx	 #
 539              		.cfi_restore 3
 540              		.cfi_def_cfa_offset 4
 541 02a7 C3       		ret
 542              	LVL36:
 543              		.p2align 4,,7
 544              	L33:
 545              		.cfi_restore_state
 546              		.loc 1 252 0
 547 02a8 8B4B04   		movl	4(%ebx), %ecx	 # mbp_6(D)->mb_top, tmp76
 548 02ab 8D51FC   		leal	-4(%ecx), %edx	 #, D.2262
 549 02ae 89530C   		movl	%edx, 12(%ebx)	 # D.2262, mbp_6(D)->mb_rdptr
 550 02b1 EBD2     		jmp	L30	 #
 551              	LVL37:
 552              		.p2align 4,,7
 553              	L32:
 554              		.loc 1 247 0 discriminator 1
 555 02b3 C7442408 		movl	$247, 8(%esp)	 #,
GAS LISTING /cygdrive/c/DOCUME~1/andrey/LOCALS~1/Temp/ccxtzNSu.s 			page 12


 555      F7000000 
 556 02bb C7442404 		movl	$LC0, 4(%esp)	 #,
 556      00000000 
 557 02c3 C7042464 		movl	$LC5, (%esp)	 #,
 557      000000
 558 02ca E8000000 		call	_chDbgPanic	 #
 558      00
 559              	LVL38:
 560 02cf EB90     		jmp	L28	 #
 561              		.cfi_endproc
 562              	LFE13:
 563 02d1 EB0D9090 		.p2align 4,,15
 563      90909090 
 563      90909090 
 563      909090
 564              		.globl	_chMBPostAhead
 565              		.def	_chMBPostAhead;	.scl	2;	.type	32;	.endef
 566              	_chMBPostAhead:
 567              	LFB12:
 568              		.loc 1 215 0
 569              		.cfi_startproc
 570              	LVL39:
 571 02e0 53       		pushl	%ebx	 #
 572              		.cfi_def_cfa_offset 8
 573              		.cfi_offset 3, -8
 574 02e1 83EC18   		subl	$24, %esp	 #,
 575              		.cfi_def_cfa_offset 32
 576              		.loc 1 218 0
 577              	/APP
 578              	 # 218 "../firmware/chibios/os/kernel/src/chmboxes.c" 1
 579 02e4 90       		nop
 580              	 # 0 "" 2
 581              	/NO_APP
 582 02e5 E8000000 		call	_dbg_check_lock	 #
 582      00
 583              	LVL40:
 584              		.loc 1 219 0
 585 02ea 8B442428 		movl	40(%esp), %eax	 # time, time
 586 02ee 89442408 		movl	%eax, 8(%esp)	 # time,
 587 02f2 8B442424 		movl	36(%esp), %eax	 # msg, msg
 588 02f6 89442404 		movl	%eax, 4(%esp)	 # msg,
 589 02fa 8B442420 		movl	32(%esp), %eax	 # mbp, mbp
 590 02fe 890424   		movl	%eax, (%esp)	 # mbp,
 591 0301 E84AFFFF 		call	_chMBPostAheadS	 #
 591      FF
 592              	LVL41:
 593 0306 89C3     		movl	%eax, %ebx	 #, rdymsg
 594              	LVL42:
 595              		.loc 1 220 0
 596 0308 E8000000 		call	_dbg_check_unlock	 #
 596      00
 597              	LVL43:
 598              	/APP
 599              	 # 220 "../firmware/chibios/os/kernel/src/chmboxes.c" 1
 600 030d 90       		nop
 601              	 # 0 "" 2
 602              		.loc 1 222 0
GAS LISTING /cygdrive/c/DOCUME~1/andrey/LOCALS~1/Temp/ccxtzNSu.s 			page 13


 603              	/NO_APP
 604 030e 83C418   		addl	$24, %esp	 #,
 605              		.cfi_def_cfa_offset 8
 606 0311 89D8     		movl	%ebx, %eax	 # rdymsg,
 607 0313 5B       		popl	%ebx	 #
 608              		.cfi_restore 3
 609              		.cfi_def_cfa_offset 4
 610              	LVL44:
 611 0314 C3       		ret
 612              		.cfi_endproc
 613              	LFE12:
 614              		.section .rdata,"dr"
 615              	LC6:
 616 0077 2263684D 		.ascii "\"chMBPostAheadI\"()\0"
 616      42506F73 
 616      74416865 
 616      61644922 
 616      282900
 617              		.text
 618 0315 8D742600 		.p2align 4,,15
 618      8DBC2700 
 618      000000
 619              		.globl	_chMBPostAheadI
 620              		.def	_chMBPostAheadI;	.scl	2;	.type	32;	.endef
 621              	_chMBPostAheadI:
 622              	LFB14:
 623              		.loc 1 274 0
 624              		.cfi_startproc
 625              	LVL45:
 626 0320 53       		pushl	%ebx	 #
 627              		.cfi_def_cfa_offset 8
 628              		.cfi_offset 3, -8
 629 0321 83EC18   		subl	$24, %esp	 #,
 630              		.cfi_def_cfa_offset 32
 631              		.loc 1 274 0
 632 0324 8B5C2420 		movl	32(%esp), %ebx	 # mbp, mbp
 633              		.loc 1 276 0
 634 0328 E8000000 		call	_chDbgCheckClassI	 #
 634      00
 635              	LVL46:
 636              		.loc 1 277 0
 637 032d 85DB     		testl	%ebx, %ebx	 # mbp
 638 032f 743F     		je	L42	 #,
 639              	L37:
 640              		.loc 1 279 0
 641 0331 8B4324   		movl	36(%ebx), %eax	 # mbp_7(D)->mb_emptysem.s_cnt, D.2269
 642 0334 85C0     		testl	%eax, %eax	 # D.2269
 643 0336 7E58     		jle	L40	 #,
 644              		.loc 1 281 0
 645 0338 83E801   		subl	$1, %eax	 #, tmp70
 646 033b 894324   		movl	%eax, 36(%ebx)	 # tmp70, mbp_7(D)->mb_emptysem.s_cnt
 647              		.loc 1 282 0
 648 033e 8B430C   		movl	12(%ebx), %eax	 # mbp_7(D)->mb_rdptr, tmp75
 649 0341 83E804   		subl	$4, %eax	 #, D.2270
 650 0344 3B03     		cmpl	(%ebx), %eax	 # mbp_7(D)->mb_buffer, D.2270
 651 0346 89430C   		movl	%eax, 12(%ebx)	 # D.2270, mbp_7(D)->mb_rdptr
 652 0349 7218     		jb	L43	 #,
GAS LISTING /cygdrive/c/DOCUME~1/andrey/LOCALS~1/Temp/ccxtzNSu.s 			page 14


 653              	L39:
 654              		.loc 1 284 0
 655 034b 8B542424 		movl	36(%esp), %edx	 # msg, msg
 656              		.loc 1 285 0
 657 034f 83C310   		addl	$16, %ebx	 #, tmp73
 658              		.loc 1 284 0
 659 0352 8910     		movl	%edx, (%eax)	 # msg, *_25
 660              		.loc 1 285 0
 661 0354 891C24   		movl	%ebx, (%esp)	 # tmp73,
 662 0357 E8000000 		call	_chSemSignalI	 #
 662      00
 663              	LVL47:
 664              		.loc 1 286 0
 665 035c 31C0     		xorl	%eax, %eax	 # D.2268
 666              	L38:
 667              		.loc 1 287 0
 668 035e 83C418   		addl	$24, %esp	 #,
 669              		.cfi_remember_state
 670              		.cfi_def_cfa_offset 8
 671 0361 5B       		popl	%ebx	 #
 672              		.cfi_restore 3
 673              		.cfi_def_cfa_offset 4
 674 0362 C3       		ret
 675              		.p2align 4,,7
 676              	L43:
 677              		.cfi_restore_state
 678              		.loc 1 283 0
 679 0363 8B4304   		movl	4(%ebx), %eax	 # mbp_7(D)->mb_top, tmp76
 680 0366 83E804   		subl	$4, %eax	 #, D.2270
 681 0369 89430C   		movl	%eax, 12(%ebx)	 # D.2270, mbp_7(D)->mb_rdptr
 682 036c EBDD     		jmp	L39	 #
 683 036e 6690     		.p2align 4,,7
 684              	L42:
 685              		.loc 1 277 0 discriminator 1
 686 0370 C7442408 		movl	$277, 8(%esp)	 #,
 686      15010000 
 687 0378 C7442404 		movl	$LC0, 4(%esp)	 #,
 687      00000000 
 688 0380 C7042477 		movl	$LC6, (%esp)	 #,
 688      000000
 689 0387 E8000000 		call	_chDbgPanic	 #
 689      00
 690              	LVL48:
 691 038c EBA3     		jmp	L37	 #
 692 038e 6690     		.p2align 4,,7
 693              	L40:
 694              		.loc 1 280 0
 695 0390 B8FFFFFF 		movl	$-1, %eax	 #, D.2268
 695      FF
 696 0395 EBC7     		jmp	L38	 #
 697              		.cfi_endproc
 698              	LFE14:
 699              		.section .rdata,"dr"
 700              	LC7:
 701 008a 2263684D 		.ascii "\"chMBFetchS\"()\0"
 701      42466574 
 701      63685322 
GAS LISTING /cygdrive/c/DOCUME~1/andrey/LOCALS~1/Temp/ccxtzNSu.s 			page 15


 701      282900
 702              		.text
 703 0397 89F68DBC 		.p2align 4,,15
 703      27000000 
 703      00
 704              		.globl	_chMBFetchS
 705              		.def	_chMBFetchS;	.scl	2;	.type	32;	.endef
 706              	_chMBFetchS:
 707              	LFB16:
 708              		.loc 1 336 0
 709              		.cfi_startproc
 710              	LVL49:
 711 03a0 56       		pushl	%esi	 #
 712              		.cfi_def_cfa_offset 8
 713              		.cfi_offset 6, -8
 714 03a1 53       		pushl	%ebx	 #
 715              		.cfi_def_cfa_offset 12
 716              		.cfi_offset 3, -12
 717 03a2 83EC14   		subl	$20, %esp	 #,
 718              		.cfi_def_cfa_offset 32
 719              		.loc 1 336 0
 720 03a5 8B5C2420 		movl	32(%esp), %ebx	 # mbp, mbp
 721 03a9 8B742424 		movl	36(%esp), %esi	 # msgp, msgp
 722              		.loc 1 339 0
 723 03ad E8000000 		call	_chDbgCheckClassS	 #
 723      00
 724              	LVL50:
 725              		.loc 1 340 0
 726 03b2 85DB     		testl	%ebx, %ebx	 # mbp
 727 03b4 7452     		je	L49	 #,
 728 03b6 85F6     		testl	%esi, %esi	 # msgp
 729 03b8 744E     		je	L49	 #,
 730              	L45:
 731              		.loc 1 342 0
 732 03ba 8B442428 		movl	40(%esp), %eax	 # time, time
 733 03be 89442404 		movl	%eax, 4(%esp)	 # time,
 734 03c2 8D4310   		leal	16(%ebx), %eax	 #, tmp78
 735 03c5 890424   		movl	%eax, (%esp)	 # tmp78,
 736 03c8 E8000000 		call	_chSemWaitTimeoutS	 #
 736      00
 737              	LVL51:
 738              		.loc 1 343 0
 739 03cd 85C0     		testl	%eax, %eax	 # rdymsg
 740 03cf 752A     		jne	L47	 #,
 741              		.loc 1 344 0
 742 03d1 8B4B0C   		movl	12(%ebx), %ecx	 # mbp_6(D)->mb_rdptr, D.2277
 743 03d4 8D5104   		leal	4(%ecx), %edx	 #, D.2277
 744 03d7 8B09     		movl	(%ecx), %ecx	 # *_16, D.2278
 745              		.loc 1 345 0
 746 03d9 3B5304   		cmpl	4(%ebx), %edx	 # mbp_6(D)->mb_top, D.2277
 747              		.loc 1 344 0
 748 03dc 89530C   		movl	%edx, 12(%ebx)	 # D.2277, mbp_6(D)->mb_rdptr
 749 03df 890E     		movl	%ecx, (%esi)	 # D.2278, *msgp_8(D)
 750              		.loc 1 345 0
 751 03e1 731E     		jae	L54	 #,
 752              	L48:
 753              		.loc 1 347 0
GAS LISTING /cygdrive/c/DOCUME~1/andrey/LOCALS~1/Temp/ccxtzNSu.s 			page 16


 754 03e3 83C31C   		addl	$28, %ebx	 #, tmp80
 755 03e6 891C24   		movl	%ebx, (%esp)	 # tmp80,
 756 03e9 8944240C 		movl	%eax, 12(%esp)	 # rdymsg, %sfp
 757 03ed E8000000 		call	_chSemSignalI	 #
 757      00
 758              	LVL52:
 759              		.loc 1 348 0
 760 03f2 E8000000 		call	_chSchRescheduleS	 #
 760      00
 761              	LVL53:
 762 03f7 8B44240C 		movl	12(%esp), %eax	 # %sfp, rdymsg
 763              	LVL54:
 764              	L47:
 765              		.loc 1 351 0
 766 03fb 83C414   		addl	$20, %esp	 #,
 767              		.cfi_remember_state
 768              		.cfi_def_cfa_offset 12
 769 03fe 5B       		popl	%ebx	 #
 770              		.cfi_restore 3
 771              		.cfi_def_cfa_offset 8
 772 03ff 5E       		popl	%esi	 #
 773              		.cfi_restore 6
 774              		.cfi_def_cfa_offset 4
 775 0400 C3       		ret
 776              	LVL55:
 777              		.p2align 4,,7
 778              	L54:
 779              		.cfi_restore_state
 780              		.loc 1 346 0
 781 0401 8B13     		movl	(%ebx), %edx	 # mbp_6(D)->mb_buffer, mbp_6(D)->mb_buffer
 782 0403 89530C   		movl	%edx, 12(%ebx)	 # mbp_6(D)->mb_buffer, mbp_6(D)->mb_rdptr
 783 0406 EBDB     		jmp	L48	 #
 784              	LVL56:
 785              		.p2align 4,,7
 786              	L49:
 787              		.loc 1 340 0 discriminator 1
 788 0408 C7442408 		movl	$340, 8(%esp)	 #,
 788      54010000 
 789 0410 C7442404 		movl	$LC0, 4(%esp)	 #,
 789      00000000 
 790 0418 C704248A 		movl	$LC7, (%esp)	 #,
 790      000000
 791 041f E8000000 		call	_chDbgPanic	 #
 791      00
 792              	LVL57:
 793 0424 EB94     		jmp	L45	 #
 794              		.cfi_endproc
 795              	LFE16:
 796 0426 8D76008D 		.p2align 4,,15
 796      BC270000 
 796      0000
 797              		.globl	_chMBFetch
 798              		.def	_chMBFetch;	.scl	2;	.type	32;	.endef
 799              	_chMBFetch:
 800              	LFB15:
 801              		.loc 1 308 0
 802              		.cfi_startproc
GAS LISTING /cygdrive/c/DOCUME~1/andrey/LOCALS~1/Temp/ccxtzNSu.s 			page 17


 803              	LVL58:
 804 0430 53       		pushl	%ebx	 #
 805              		.cfi_def_cfa_offset 8
 806              		.cfi_offset 3, -8
 807 0431 83EC18   		subl	$24, %esp	 #,
 808              		.cfi_def_cfa_offset 32
 809              		.loc 1 311 0
 810              	/APP
 811              	 # 311 "../firmware/chibios/os/kernel/src/chmboxes.c" 1
 812 0434 90       		nop
 813              	 # 0 "" 2
 814              	/NO_APP
 815 0435 E8000000 		call	_dbg_check_lock	 #
 815      00
 816              	LVL59:
 817              		.loc 1 312 0
 818 043a 8B442428 		movl	40(%esp), %eax	 # time, time
 819 043e 89442408 		movl	%eax, 8(%esp)	 # time,
 820 0442 8B442424 		movl	36(%esp), %eax	 # msgp, msgp
 821 0446 89442404 		movl	%eax, 4(%esp)	 # msgp,
 822 044a 8B442420 		movl	32(%esp), %eax	 # mbp, mbp
 823 044e 890424   		movl	%eax, (%esp)	 # mbp,
 824 0451 E84AFFFF 		call	_chMBFetchS	 #
 824      FF
 825              	LVL60:
 826 0456 89C3     		movl	%eax, %ebx	 #, rdymsg
 827              	LVL61:
 828              		.loc 1 313 0
 829 0458 E8000000 		call	_dbg_check_unlock	 #
 829      00
 830              	LVL62:
 831              	/APP
 832              	 # 313 "../firmware/chibios/os/kernel/src/chmboxes.c" 1
 833 045d 90       		nop
 834              	 # 0 "" 2
 835              		.loc 1 315 0
 836              	/NO_APP
 837 045e 83C418   		addl	$24, %esp	 #,
 838              		.cfi_def_cfa_offset 8
 839 0461 89D8     		movl	%ebx, %eax	 # rdymsg,
 840 0463 5B       		popl	%ebx	 #
 841              		.cfi_restore 3
 842              		.cfi_def_cfa_offset 4
 843              	LVL63:
 844 0464 C3       		ret
 845              		.cfi_endproc
 846              	LFE15:
 847              		.section .rdata,"dr"
 848              	LC8:
 849 0099 2263684D 		.ascii "\"chMBFetchI\"()\0"
 849      42466574 
 849      63684922 
 849      282900
 850              		.text
 851 0465 8D742600 		.p2align 4,,15
 851      8DBC2700 
 851      000000
GAS LISTING /cygdrive/c/DOCUME~1/andrey/LOCALS~1/Temp/ccxtzNSu.s 			page 18


 852              		.globl	_chMBFetchI
 853              		.def	_chMBFetchI;	.scl	2;	.type	32;	.endef
 854              	_chMBFetchI:
 855              	LFB17:
 856              		.loc 1 367 0
 857              		.cfi_startproc
 858              	LVL64:
 859 0470 56       		pushl	%esi	 #
 860              		.cfi_def_cfa_offset 8
 861              		.cfi_offset 6, -8
 862 0471 53       		pushl	%ebx	 #
 863              		.cfi_def_cfa_offset 12
 864              		.cfi_offset 3, -12
 865 0472 83EC14   		subl	$20, %esp	 #,
 866              		.cfi_def_cfa_offset 32
 867              		.loc 1 367 0
 868 0475 8B5C2420 		movl	32(%esp), %ebx	 # mbp, mbp
 869 0479 8B742424 		movl	36(%esp), %esi	 # msgp, msgp
 870              		.loc 1 369 0
 871 047d E8000000 		call	_chDbgCheckClassI	 #
 871      00
 872              	LVL65:
 873              		.loc 1 370 0
 874 0482 85DB     		testl	%ebx, %ebx	 # mbp
 875 0484 7441     		je	L63	 #,
 876 0486 85F6     		testl	%esi, %esi	 # msgp
 877 0488 743D     		je	L63	 #,
 878              	L58:
 879              		.loc 1 372 0
 880 048a 8B4318   		movl	24(%ebx), %eax	 # mbp_7(D)->mb_fullsem.s_cnt, D.2286
 881 048d 85C0     		testl	%eax, %eax	 # D.2286
 882 048f 90       		.p2align 4,,2
 883 0490 7E53     		jle	L62	 #,
 884              		.loc 1 375 0
 885 0492 8B530C   		movl	12(%ebx), %edx	 # mbp_7(D)->mb_rdptr, D.2287
 886              		.loc 1 374 0
 887 0495 83E801   		subl	$1, %eax	 #, tmp78
 888 0498 894318   		movl	%eax, 24(%ebx)	 # tmp78, mbp_7(D)->mb_fullsem.s_cnt
 889              		.loc 1 375 0
 890 049b 8D4204   		leal	4(%edx), %eax	 #, D.2287
 891 049e 8B12     		movl	(%edx), %edx	 # *_16, D.2286
 892              		.loc 1 376 0
 893 04a0 3B4304   		cmpl	4(%ebx), %eax	 # mbp_7(D)->mb_top, D.2287
 894              		.loc 1 375 0
 895 04a3 89430C   		movl	%eax, 12(%ebx)	 # D.2287, mbp_7(D)->mb_rdptr
 896 04a6 8916     		movl	%edx, (%esi)	 # D.2286, *msgp_9(D)
 897              		.loc 1 376 0
 898 04a8 7316     		jae	L68	 #,
 899              	L61:
 900              		.loc 1 378 0
 901 04aa 83C31C   		addl	$28, %ebx	 #, tmp80
 902 04ad 891C24   		movl	%ebx, (%esp)	 # tmp80,
 903 04b0 E8000000 		call	_chSemSignalI	 #
 903      00
 904              	LVL66:
 905              		.loc 1 379 0
 906 04b5 31C0     		xorl	%eax, %eax	 # D.2284
GAS LISTING /cygdrive/c/DOCUME~1/andrey/LOCALS~1/Temp/ccxtzNSu.s 			page 19


 907              	L60:
 908              		.loc 1 380 0
 909 04b7 83C414   		addl	$20, %esp	 #,
 910              		.cfi_remember_state
 911              		.cfi_def_cfa_offset 12
 912 04ba 5B       		popl	%ebx	 #
 913              		.cfi_restore 3
 914              		.cfi_def_cfa_offset 8
 915 04bb 5E       		popl	%esi	 #
 916              		.cfi_restore 6
 917              		.cfi_def_cfa_offset 4
 918 04bc C3       		ret
 919 04bd 8D7600   		.p2align 4,,7
 920              	L68:
 921              		.cfi_restore_state
 922              		.loc 1 377 0
 923 04c0 8B03     		movl	(%ebx), %eax	 # mbp_7(D)->mb_buffer, mbp_7(D)->mb_buffer
 924 04c2 89430C   		movl	%eax, 12(%ebx)	 # mbp_7(D)->mb_buffer, mbp_7(D)->mb_rdptr
 925 04c5 EBE3     		jmp	L61	 #
 926              		.p2align 4,,7
 927              	L63:
 928              		.loc 1 370 0 discriminator 1
 929 04c7 C7442408 		movl	$370, 8(%esp)	 #,
 929      72010000 
 930 04cf C7442404 		movl	$LC0, 4(%esp)	 #,
 930      00000000 
 931 04d7 C7042499 		movl	$LC8, (%esp)	 #,
 931      000000
 932 04de E8000000 		call	_chDbgPanic	 #
 932      00
 933              	LVL67:
 934 04e3 EBA5     		jmp	L58	 #
 935              		.p2align 4,,7
 936              	L62:
 937              		.loc 1 373 0
 938 04e5 B8FFFFFF 		movl	$-1, %eax	 #, D.2284
 938      FF
 939 04ea EBCB     		jmp	L60	 #
 940              		.cfi_endproc
 941              	LFE17:
 942              	Letext0:
 943              		.file 2 "/usr/include/stdint.h"
 944              		.file 3 "../firmware/chibios/os/ports/GCC/SIMIA32/chtypes.h"
 945              		.file 4 "../firmware/chibios/os/kernel/include/chlists.h"
 946              		.file 5 "../firmware/chibios/os/kernel/include/chthreads.h"
 947              		.file 6 "../firmware/chibios/os/ports/GCC/SIMIA32/chcore.h"
 948              		.file 7 "../firmware/chibios/os/kernel/include/chsem.h"
 949              		.file 8 "../firmware/chibios/os/kernel/include/chmtx.h"
 950              		.file 9 "../firmware/chibios/os/kernel/include/chmboxes.h"
 951              		.file 10 "../firmware/chibios/os/kernel/include/chdebug.h"
 952              		.file 11 "../firmware/chibios/os/kernel/include/chschd.h"