GAS LISTING /cygdrive/c/DOCUME~1/andrey/LOCALS~1/Temp/ccxtzNSu.s 			page 1


   1              		.file	"chmboxes.c"
   2              	 # GNU C (GCC) version 4.8.2 (i686-pc-cygwin)
   3              	 #	compiled by GNU C version 4.8.2, GMP version 5.1.3, MPFR version 3.1.2, MPC version 1.0.1
   4              	 # GGC heuristics: --param ggc-min-expand=100 --param ggc-min-heapsize=131072
   5              	 # options passed:  -I . -I ../firmware/chibios/os/ports/GCC/SIMIA32
   6              	 # -I ../firmware/chibios/os/kernel/include
   7              	 # -I ../firmware/chibios/os/hal/include
   8              	 # -I ../firmware/chibios/os/hal/platforms/Win32
   9              	 # -I ../firmware/chibios/boards/simulator -I ../firmware/util
  10              	 # -I ../firmware/console -I ../firmware/console_util
  11              	 # -I ../firmware/config/engines -I ../firmware/ext_algo
  12              	 # -I ../firmware/controllers/sensors -I ../firmware/controllers/system
  13              	 # -I ../firmware/controllers/algo -I ../firmware/controllers/math
  14              	 # -I ../firmware/controllers/trigger -I ../firmware/chibios/os/various
  15              	 # -MD ../firmware/chibios/os/kernel/src/chmboxes.d -MF .dep/chmboxes.o.d
  16              	 # -MP -MQ ../firmware/chibios/os/kernel/src/chmboxes.o -Dunix
  17              	 # -idirafter /usr/lib/gcc/i686-pc-cygwin/4.8.2/../../../../include/w32api
  18              	 # -idirafter ../../include/w32api -D SIMULATOR -D SHELL_USE_IPRINTF=FALSE
  19              	 # ../firmware/chibios/os/kernel/src/chmboxes.c -mtune=generic -march=i686
  20              	 # -auxbase-strip ../firmware/chibios/os/kernel/src/chmboxes.o -ggdb -O2
  21              	 # -Wall -Wextra -Wstrict-prototypes -std=gnu99 -fomit-frame-pointer
  22              	 # -fgnu89-inline -fverbose-asm
  23              	 # options enabled:  -faggressive-loop-optimizations
  24              	 # -fasynchronous-unwind-tables -fauto-inc-dec -fbranch-count-reg
  25              	 # -fcaller-saves -fcombine-stack-adjustments -fcommon -fcompare-elim
  26              	 # -fcprop-registers -fcrossjumping -fcse-follow-jumps -fdefer-pop
  27              	 # -fdelete-null-pointer-checks -fdevirtualize -fdwarf2-cfi-asm
  28              	 # -fearly-inlining -feliminate-unused-debug-types
  29              	 # -fexpensive-optimizations -fforward-propagate -ffunction-cse -fgcse
  30              	 # -fgcse-lm -fgnu-runtime -fguess-branch-probability
  31              	 # -fhoist-adjacent-loads -fident -fif-conversion -fif-conversion2
  32              	 # -findirect-inlining -finline -finline-atomics
  33              	 # -finline-functions-called-once -finline-small-functions -fipa-cp
  34              	 # -fipa-profile -fipa-pure-const -fipa-reference -fipa-sra
  35              	 # -fira-hoist-pressure -fira-share-save-slots -fira-share-spill-slots
  36              	 # -fivopts -fkeep-inline-dllexport -fkeep-static-consts
  37              	 # -fleading-underscore -fmath-errno -fmerge-constants
  38              	 # -fmerge-debug-strings -fmove-loop-invariants -fomit-frame-pointer
  39              	 # -foptimize-register-move -foptimize-sibling-calls -foptimize-strlen
  40              	 # -fpartial-inlining -fpeephole -fpeephole2 -fprefetch-loop-arrays -free
  41              	 # -freg-struct-return -fregmove -freorder-blocks -freorder-functions
  42              	 # -frerun-cse-after-loop -fsched-critical-path-heuristic
  43              	 # -fsched-dep-count-heuristic -fsched-group-heuristic -fsched-interblock
  44              	 # -fsched-last-insn-heuristic -fsched-rank-heuristic -fsched-spec
  45              	 # -fsched-spec-insn-heuristic -fsched-stalled-insns-dep -fschedule-insns2
  46              	 # -fset-stack-executable -fshow-column -fshrink-wrap -fsigned-zeros
  47              	 # -fsplit-ivs-in-unroller -fsplit-wide-types -fstrict-aliasing
  48              	 # -fstrict-overflow -fstrict-volatile-bitfields -fsync-libcalls
  49              	 # -fthread-jumps -ftoplevel-reorder -ftrapping-math -ftree-bit-ccp
  50              	 # -ftree-builtin-call-dce -ftree-ccp -ftree-ch -ftree-coalesce-vars
  51              	 # -ftree-copy-prop -ftree-copyrename -ftree-cselim -ftree-dce
  52              	 # -ftree-dominator-opts -ftree-dse -ftree-forwprop -ftree-fre
  53              	 # -ftree-loop-if-convert -ftree-loop-im -ftree-loop-ivcanon
  54              	 # -ftree-loop-optimize -ftree-parallelize-loops= -ftree-phiprop -ftree-pre
  55              	 # -ftree-pta -ftree-reassoc -ftree-scev-cprop -ftree-sink
  56              	 # -ftree-slp-vectorize -ftree-slsr -ftree-sra -ftree-switch-conversion
  57              	 # -ftree-tail-merge -ftree-ter -ftree-vect-loop-version -ftree-vrp
GAS LISTING /cygdrive/c/DOCUME~1/andrey/LOCALS~1/Temp/ccxtzNSu.s 			page 2


  58              	 # -funit-at-a-time -funwind-tables -fvar-tracking
  59              	 # -fvar-tracking-assignments -fverbose-asm -fzero-initialized-in-bss -m32
  60              	 # -m80387 -m96bit-long-double -maccumulate-outgoing-args -malign-double
  61              	 # -malign-stringops -mfancy-math-387 -mfp-ret-in-387 -mieee-fp
  62              	 # -mlong-double-80 -mno-red-zone -mno-sse4 -mpush-args -msahf
  63              	 # -mstack-arg-probe
  64              	
  65              		.text
  66              	Ltext0:
  67              		.section .rdata,"dr"
  68              		.align 4
  69              	LC0:
  70 0000 2E2E2F66 		.ascii "../firmware/chibios/os/kernel/src/chmboxes.c\0"
  70      69726D77 
  70      6172652F 
  70      63686962 
  70      696F732F 
  71              	LC1:
  72 002d 2263684D 		.ascii "\"chMBInit\"()\0"
  72      42496E69 
  72      74222829 
  72      00
  73              		.text
  74              		.p2align 4,,15
  75              		.globl	_chMBInit
  76              		.def	_chMBInit;	.scl	2;	.type	32;	.endef
  77              	_chMBInit:
  78              	LFB7:
  79              		.file 1 "../firmware/chibios/os/kernel/src/chmboxes.c"
  80              		.loc 1 72 0
  81              		.cfi_startproc
  82              	LVL0:
  83 0000 57       		pushl	%edi	 #
  84              		.cfi_def_cfa_offset 8
  85              		.cfi_offset 7, -8
  86 0001 56       		pushl	%esi	 #
  87              		.cfi_def_cfa_offset 12
  88              		.cfi_offset 6, -12
  89 0002 53       		pushl	%ebx	 #
  90              		.cfi_def_cfa_offset 16
  91              		.cfi_offset 3, -16
  92 0003 83EC10   		subl	$16, %esp	 #,
  93              		.cfi_def_cfa_offset 32
  94              		.loc 1 72 0
  95 0006 8B5C2420 		movl	32(%esp), %ebx	 # mbp, mbp
  96 000a 8B742424 		movl	36(%esp), %esi	 # buf, buf
  97 000e 8B7C2428 		movl	40(%esp), %edi	 # n, n
  98              		.loc 1 74 0
  99 0012 85DB     		testl	%ebx, %ebx	 # mbp
 100 0014 7440     		je	L2	 #,
 101 0016 85F6     		testl	%esi, %esi	 # buf
 102 0018 743C     		je	L2	 #,
 103              		.loc 1 74 0 is_stmt 0 discriminator 2
 104 001a 85FF     		testl	%edi, %edi	 # n
 105 001c 7E38     		jle	L2	 #,
 106              	L3:
 107              		.loc 1 77 0 is_stmt 1
GAS LISTING /cygdrive/c/DOCUME~1/andrey/LOCALS~1/Temp/ccxtzNSu.s 			page 3


 108 001e 8D04BE   		leal	(%esi,%edi,4), %eax	 #, tmp75
 109 0021 894304   		movl	%eax, 4(%ebx)	 # tmp75, mbp_2(D)->mb_top
 110              		.loc 1 78 0
 111 0024 8D431C   		leal	28(%ebx), %eax	 #, tmp76
 112              		.loc 1 79 0
 113 0027 83C310   		addl	$16, %ebx	 #, tmp77
 114              		.loc 1 76 0
 115 002a 8973FC   		movl	%esi, -4(%ebx)	 # buf, mbp_2(D)->mb_rdptr
 116 002d 8973F8   		movl	%esi, -8(%ebx)	 # buf, mbp_2(D)->mb_wrptr
 117 0030 8973F0   		movl	%esi, -16(%ebx)	 # buf, mbp_2(D)->mb_buffer
 118              		.loc 1 78 0
 119 0033 897C2404 		movl	%edi, 4(%esp)	 # n,
 120 0037 890424   		movl	%eax, (%esp)	 # tmp76,
 121 003a E8000000 		call	_chSemInit	 #
 121      00
 122              	LVL1:
 123              		.loc 1 79 0
 124 003f 895C2420 		movl	%ebx, 32(%esp)	 # tmp77,
 125 0043 C7442424 		movl	$0, 36(%esp)	 #,
 125      00000000 
 126              		.loc 1 80 0
 127 004b 83C410   		addl	$16, %esp	 #,
 128              		.cfi_remember_state
 129              		.cfi_def_cfa_offset 16
 130 004e 5B       		popl	%ebx	 #
 131              		.cfi_restore 3
 132              		.cfi_def_cfa_offset 12
 133 004f 5E       		popl	%esi	 #
 134              		.cfi_restore 6
 135              		.cfi_def_cfa_offset 8
 136 0050 5F       		popl	%edi	 #
 137              		.cfi_restore 7
 138              		.cfi_def_cfa_offset 4
 139              		.loc 1 79 0
 140 0051 E9000000 		jmp	_chSemInit	 #
 140      00
 141              	LVL2:
 142              		.p2align 4,,7
 143              	L2:
 144              		.cfi_restore_state
 145              		.loc 1 74 0 discriminator 1
 146 0056 C7442408 		movl	$74, 8(%esp)	 #,
 146      4A000000 
 147 005e C7442404 		movl	$LC0, 4(%esp)	 #,
 147      00000000 
 148 0066 C704242D 		movl	$LC1, (%esp)	 #,
 148      000000
 149 006d E8000000 		call	_chDbgPanic	 #
 149      00
 150              	LVL3:
 151 0072 EBAA     		jmp	L3	 #
 152              		.cfi_endproc
 153              	LFE7:
 154              		.section .rdata,"dr"
 155              	LC2:
 156 003a 2263684D 		.ascii "\"chMBReset\"()\0"
 156      42526573 
GAS LISTING /cygdrive/c/DOCUME~1/andrey/LOCALS~1/Temp/ccxtzNSu.s 			page 4


 156      65742228 
 156      2900
 157              		.text
 158 0074 8DB60000 		.p2align 4,,15
 158      00008DBF 
 158      00000000 
 159              		.globl	_chMBReset
 160              		.def	_chMBReset;	.scl	2;	.type	32;	.endef
 161              	_chMBReset:
 162              	LFB8:
 163              		.loc 1 91 0
 164              		.cfi_startproc
 165              	LVL4:
 166 0080 53       		pushl	%ebx	 #
 167              		.cfi_def_cfa_offset 8
 168              		.cfi_offset 3, -8
 169 0081 83EC18   		subl	$24, %esp	 #,
 170              		.cfi_def_cfa_offset 32
 171              		.loc 1 91 0
 172 0084 8B5C2420 		movl	32(%esp), %ebx	 # mbp, mbp
 173              		.loc 1 93 0
 174 0088 85DB     		testl	%ebx, %ebx	 # mbp
 175 008a 7448     		je	L9	 #,
 176              	L7:
 177              		.loc 1 95 0
 178              	/APP
 179              	 # 95 "../firmware/chibios/os/kernel/src/chmboxes.c" 1
 180 008c 90       		nop
 181              	 # 0 "" 2
 182              	/NO_APP
 183 008d E8000000 		call	_dbg_check_lock	 #
 183      00
 184              	LVL5:
 185              		.loc 1 96 0
 186 0092 8B13     		movl	(%ebx), %edx	 # mbp_2(D)->mb_buffer, D.2240
 187              		.loc 1 97 0
 188 0094 8B4304   		movl	4(%ebx), %eax	 # mbp_2(D)->mb_top, D.2241
 189              		.loc 1 96 0
 190 0097 89530C   		movl	%edx, 12(%ebx)	 # D.2240, mbp_2(D)->mb_rdptr
 191              		.loc 1 97 0
 192 009a 29D0     		subl	%edx, %eax	 # D.2240, D.2241
 193 009c C1F802   		sarl	$2, %eax	 #, D.2241
 194              		.loc 1 96 0
 195 009f 895308   		movl	%edx, 8(%ebx)	 # D.2240, mbp_2(D)->mb_wrptr
 196              		.loc 1 97 0
 197 00a2 89442404 		movl	%eax, 4(%esp)	 # D.2241,
 198 00a6 8D431C   		leal	28(%ebx), %eax	 #, tmp72
 199              		.loc 1 98 0
 200 00a9 83C310   		addl	$16, %ebx	 #, tmp73
 201              		.loc 1 97 0
 202 00ac 890424   		movl	%eax, (%esp)	 # tmp72,
 203 00af E8000000 		call	_chSemResetI	 #
 203      00
 204              	LVL6:
 205              		.loc 1 98 0
 206 00b4 C7442404 		movl	$0, 4(%esp)	 #,
 206      00000000 
GAS LISTING /cygdrive/c/DOCUME~1/andrey/LOCALS~1/Temp/ccxtzNSu.s 			page 5


 207 00bc 891C24   		movl	%ebx, (%esp)	 # tmp73,
 208 00bf E8000000 		call	_chSemResetI	 #
 208      00
 209              	LVL7:
 210              		.loc 1 99 0
 211 00c4 E8000000 		call	_chSchRescheduleS	 #
 211      00
 212              	LVL8:
 213              		.loc 1 100 0
 214 00c9 E8000000 		call	_dbg_check_unlock	 #
 214      00
 215              	LVL9:
 216              	/APP
 217              	 # 100 "../firmware/chibios/os/kernel/src/chmboxes.c" 1
 218 00ce 90       		nop
 219              	 # 0 "" 2
 220              		.loc 1 101 0
 221              	/NO_APP
 222 00cf 83C418   		addl	$24, %esp	 #,
 223              		.cfi_remember_state
 224              		.cfi_def_cfa_offset 8
 225 00d2 5B       		popl	%ebx	 #
 226              		.cfi_restore 3
 227              		.cfi_def_cfa_offset 4
 228              		.p2align 4,,1
 229 00d3 C3       		ret
 230              		.p2align 4,,7
 231              	L9:
 232              		.cfi_restore_state
 233              		.loc 1 93 0 discriminator 1
 234 00d4 C7442408 		movl	$93, 8(%esp)	 #,
 234      5D000000 
 235 00dc C7442404 		movl	$LC0, 4(%esp)	 #,
 235      00000000 
 236 00e4 C704243A 		movl	$LC2, (%esp)	 #,
 236      000000
 237 00eb E8000000 		call	_chDbgPanic	 #
 237      00
 238              	LVL10:
 239 00f0 EB9A     		jmp	L7	 #
 240              		.cfi_endproc
 241              	LFE8:
 242              		.section .rdata,"dr"
 243              	LC3:
 244 0048 2263684D 		.ascii "\"chMBPostS\"()\0"
 244      42506F73 
 244      74532228 
 244      2900
 245              		.text
 246 00f2 8DB42600 		.p2align 4,,15
 246      0000008D 
 246      BC270000 
 246      0000
 247              		.globl	_chMBPostS
 248              		.def	_chMBPostS;	.scl	2;	.type	32;	.endef
 249              	_chMBPostS:
 250              	LFB10:
GAS LISTING /cygdrive/c/DOCUME~1/andrey/LOCALS~1/Temp/ccxtzNSu.s 			page 6


 251              		.loc 1 150 0
 252              		.cfi_startproc
 253              	LVL11:
 254 0100 56       		pushl	%esi	 #
 255              		.cfi_def_cfa_offset 8
 256              		.cfi_offset 6, -8
 257 0101 53       		pushl	%ebx	 #
 258              		.cfi_def_cfa_offset 12
 259              		.cfi_offset 3, -12
 260 0102 83EC14   		subl	$20, %esp	 #,
 261              		.cfi_def_cfa_offset 32
 262              		.loc 1 150 0
 263 0105 8B5C2420 		movl	32(%esp), %ebx	 # mbp, mbp
 264              		.loc 1 153 0
 265 0109 E8000000 		call	_chDbgCheckClassS	 #
 265      00
 266              	LVL12:
 267              		.loc 1 154 0
 268 010e 85DB     		testl	%ebx, %ebx	 # mbp
 269 0110 7455     		je	L15	 #,
 270              	L11:
 271              		.loc 1 156 0
 272 0112 8B442428 		movl	40(%esp), %eax	 # time, time
 273 0116 89442404 		movl	%eax, 4(%esp)	 # time,
 274 011a 8D431C   		leal	28(%ebx), %eax	 #, tmp70
 275 011d 890424   		movl	%eax, (%esp)	 # tmp70,
 276 0120 E8000000 		call	_chSemWaitTimeoutS	 #
 276      00
 277              	LVL13:
 278              		.loc 1 157 0
 279 0125 85C0     		testl	%eax, %eax	 # rdymsg
 280 0127 752C     		jne	L12	 #,
 281              		.loc 1 158 0
 282 0129 8B4B08   		movl	8(%ebx), %ecx	 # mbp_6(D)->mb_wrptr, D.2247
 283 012c 8B742424 		movl	36(%esp), %esi	 # msg, tmp74
 284 0130 8D5104   		leal	4(%ecx), %edx	 #, D.2247
 285              		.loc 1 159 0
 286 0133 3B5304   		cmpl	4(%ebx), %edx	 # mbp_6(D)->mb_top, D.2247
 287              		.loc 1 158 0
 288 0136 895308   		movl	%edx, 8(%ebx)	 # D.2247, mbp_6(D)->mb_wrptr
 289 0139 8931     		movl	%esi, (%ecx)	 # tmp74, *_12
 290              		.loc 1 159 0
 291 013b 7323     		jae	L16	 #,
 292              	L13:
 293              		.loc 1 161 0
 294 013d 83C310   		addl	$16, %ebx	 #, tmp72
 295 0140 891C24   		movl	%ebx, (%esp)	 # tmp72,
 296 0143 8944240C 		movl	%eax, 12(%esp)	 # rdymsg, %sfp
 297 0147 E8000000 		call	_chSemSignalI	 #
 297      00
 298              	LVL14:
 299              		.loc 1 162 0
 300 014c E8000000 		call	_chSchRescheduleS	 #
 300      00
 301              	LVL15:
 302 0151 8B44240C 		movl	12(%esp), %eax	 # %sfp, rdymsg
 303              	LVL16:
GAS LISTING /cygdrive/c/DOCUME~1/andrey/LOCALS~1/Temp/ccxtzNSu.s 			page 7


 304              	L12:
 305              		.loc 1 165 0
 306 0155 83C414   		addl	$20, %esp	 #,
 307              		.cfi_remember_state
 308              		.cfi_def_cfa_offset 12
 309 0158 5B       		popl	%ebx	 #
 310              		.cfi_restore 3
 311              		.cfi_def_cfa_offset 8
 312 0159 5E       		popl	%esi	 #
 313              		.cfi_restore 6
 314              		.cfi_def_cfa_offset 4
 315 015a C3       		ret
 316              	LVL17:
 317 015b 908D7426 		.p2align 4,,7
 317      00
 318              	L16:
 319              		.cfi_restore_state
 320              		.loc 1 160 0
 321 0160 8B13     		movl	(%ebx), %edx	 # mbp_6(D)->mb_buffer, mbp_6(D)->mb_buffer
 322 0162 895308   		movl	%edx, 8(%ebx)	 # mbp_6(D)->mb_buffer, mbp_6(D)->mb_wrptr
 323 0165 EBD6     		jmp	L13	 #
 324              	LVL18:
 325              		.p2align 4,,7
 326              	L15:
 327              		.loc 1 154 0 discriminator 1
 328 0167 C7442408 		movl	$154, 8(%esp)	 #,
 328      9A000000 
 329 016f C7442404 		movl	$LC0, 4(%esp)	 #,
 329      00000000 
 330 0177 C7042448 		movl	$LC3, (%esp)	 #,
 330      000000
 331 017e E8000000 		call	_chDbgPanic	 #
 331      00
 332              	LVL19:
 333 0183 EB8D     		jmp	L11	 #
 334              		.cfi_endproc
 335              	LFE10:
 336 0185 8D742600 		.p2align 4,,15
 336      8DBC2700 
 336      000000
 337              		.globl	_chMBPost
 338              		.def	_chMBPost;	.scl	2;	.type	32;	.endef
 339              	_chMBPost:
 340              	LFB9:
 341              		.loc 1 122 0
 342              		.cfi_startproc
 343              	LVL20:
 344 0190 53       		pushl	%ebx	 #
 345              		.cfi_def_cfa_offset 8
 346              		.cfi_offset 3, -8
 347 0191 83EC18   		subl	$24, %esp	 #,
 348              		.cfi_def_cfa_offset 32
 349              		.loc 1 125 0
 350              	/APP
 351              	 # 125 "../firmware/chibios/os/kernel/src/chmboxes.c" 1
 352 0194 90       		nop
 353              	 # 0 "" 2
GAS LISTING /cygdrive/c/DOCUME~1/andrey/LOCALS~1/Temp/ccxtzNSu.s 			page 8


 354              	/NO_APP
 355 0195 E8000000 		call	_dbg_check_lock	 #
 355      00
 356              	LVL21:
 357              		.loc 1 126 0
 358 019a 8B442428 		movl	40(%esp), %eax	 # time, time
 359 019e 89442408 		movl	%eax, 8(%esp)	 # time,
 360 01a2 8B442424 		movl	36(%esp), %eax	 # msg, msg
 361 01a6 89442404 		movl	%eax, 4(%esp)	 # msg,
 362 01aa 8B442420 		movl	32(%esp), %eax	 # mbp, mbp
 363 01ae 890424   		movl	%eax, (%esp)	 # mbp,
 364 01b1 E84AFFFF 		call	_chMBPostS	 #
 364      FF
 365              	LVL22:
 366 01b6 89C3     		movl	%eax, %ebx	 #, rdymsg
 367              	LVL23:
 368              		.loc 1 127 0
 369 01b8 E8000000 		call	_dbg_check_unlock	 #
 369      00
 370              	LVL24:
 371              	/APP
 372              	 # 127 "../firmware/chibios/os/kernel/src/chmboxes.c" 1
 373 01bd 90       		nop
 374              	 # 0 "" 2
 375              		.loc 1 129 0
 376              	/NO_APP
 377 01be 83C418   		addl	$24, %esp	 #,
 378              		.cfi_def_cfa_offset 8
 379 01c1 89D8     		movl	%ebx, %eax	 # rdymsg,
 380 01c3 5B       		popl	%ebx	 #
 381              		.cfi_restore 3
 382              		.cfi_def_cfa_offset 4
 383              	LVL25:
 384 01c4 C3       		ret
 385              		.cfi_endproc
 386              	LFE9:
 387              		.section .rdata,"dr"
 388              	LC4:
 389 0056 2263684D 		.ascii "\"chMBPostI\"()\0"
 389      42506F73 
 389      74492228 
 389      2900
 390              		.text
 391 01c5 8D742600 		.p2align 4,,15
 391      8DBC2700 
 391      000000
 392              		.globl	_chMBPostI
 393              		.def	_chMBPostI;	.scl	2;	.type	32;	.endef
 394              	_chMBPostI:
 395              	LFB11:
 396              		.loc 1 181 0
 397              		.cfi_startproc
 398              	LVL26:
 399 01d0 53       		pushl	%ebx	 #
 400              		.cfi_def_cfa_offset 8
 401              		.cfi_offset 3, -8
 402 01d1 83EC18   		subl	$24, %esp	 #,
GAS LISTING /cygdrive/c/DOCUME~1/andrey/LOCALS~1/Temp/ccxtzNSu.s 			page 9


 403              		.cfi_def_cfa_offset 32
 404              		.loc 1 181 0
 405 01d4 8B5C2420 		movl	32(%esp), %ebx	 # mbp, mbp
 406              		.loc 1 183 0
 407 01d8 E8000000 		call	_chDbgCheckClassI	 #
 407      00
 408              	LVL27:
 409              		.loc 1 184 0
 410 01dd 85DB     		testl	%ebx, %ebx	 # mbp
 411 01df 743F     		je	L25	 #,
 412              	L20:
 413              		.loc 1 186 0
 414 01e1 8B4324   		movl	36(%ebx), %eax	 # mbp_7(D)->mb_emptysem.s_cnt, D.2255
 415 01e4 85C0     		testl	%eax, %eax	 # D.2255
 416 01e6 7E58     		jle	L23	 #,
 417              		.loc 1 189 0
 418 01e8 8B5308   		movl	8(%ebx), %edx	 # mbp_7(D)->mb_wrptr, D.2256
 419              		.loc 1 188 0
 420 01eb 83E801   		subl	$1, %eax	 #, tmp70
 421              		.loc 1 189 0
 422 01ee 8B4C2424 		movl	36(%esp), %ecx	 # msg, msg
 423              		.loc 1 188 0
 424 01f2 894324   		movl	%eax, 36(%ebx)	 # tmp70, mbp_7(D)->mb_emptysem.s_cnt
 425              		.loc 1 189 0
 426 01f5 8D4204   		leal	4(%edx), %eax	 #, D.2256
 427              		.loc 1 190 0
 428 01f8 3B4304   		cmpl	4(%ebx), %eax	 # mbp_7(D)->mb_top, D.2256
 429              		.loc 1 189 0
 430 01fb 894308   		movl	%eax, 8(%ebx)	 # D.2256, mbp_7(D)->mb_wrptr
 431 01fe 890A     		movl	%ecx, (%edx)	 # msg, *_12
 432              		.loc 1 190 0
 433 0200 7312     		jae	L26	 #,
 434              	L22:
 435              		.loc 1 192 0
 436 0202 83C310   		addl	$16, %ebx	 #, tmp72
 437 0205 891C24   		movl	%ebx, (%esp)	 # tmp72,
 438 0208 E8000000 		call	_chSemSignalI	 #
 438      00
 439              	LVL28:
 440              		.loc 1 193 0
 441 020d 31C0     		xorl	%eax, %eax	 # D.2254
 442              	L21:
 443              		.loc 1 194 0
 444 020f 83C418   		addl	$24, %esp	 #,
 445              		.cfi_remember_state
 446              		.cfi_def_cfa_offset 8
 447 0212 5B       		popl	%ebx	 #
 448              		.cfi_restore 3
 449              		.cfi_def_cfa_offset 4
 450 0213 C3       		ret
 451              		.p2align 4,,7
 452              	L26:
 453              		.cfi_restore_state
 454              		.loc 1 191 0
 455 0214 8B03     		movl	(%ebx), %eax	 # mbp_7(D)->mb_buffer, mbp_7(D)->mb_buffer
 456 0216 894308   		movl	%eax, 8(%ebx)	 # mbp_7(D)->mb_buffer, mbp_7(D)->mb_wrptr
 457 0219 EBE7     		jmp	L22	 #
GAS LISTING /cygdrive/c/DOCUME~1/andrey/LOCALS~1/Temp/ccxtzNSu.s 			page 10


 458 021b 908D7426 		.p2align 4,,7
 458      00
 459              	L25:
 460              		.loc 1 184 0 discriminator 1
 461 0220 C7442408 		movl	$184, 8(%esp)	 #,
 461      B8000000 
 462 0228 C7442404 		movl	$LC0, 4(%esp)	 #,
 462      00000000 
 463 0230 C7042456 		movl	$LC4, (%esp)	 #,
 463      000000
 464 0237 E8000000 		call	_chDbgPanic	 #
 464      00
 465              	LVL29:
 466 023c EBA3     		jmp	L20	 #
 467 023e 6690     		.p2align 4,,7
 468              	L23:
 469              		.loc 1 187 0
 470 0240 B8FFFFFF 		movl	$-1, %eax	 #, D.2254
 470      FF
 471 0245 EBC8     		jmp	L21	 #
 472              		.cfi_endproc
 473              	LFE11:
 474              		.section .rdata,"dr"
 475              	LC5:
 476 0064 2263684D 		.ascii "\"chMBPostAheadS\"()\0"
 476      42506F73 
 476      74416865 
 476      61645322 
 476      282900
 477              		.text
 478 0247 89F68DBC 		.p2align 4,,15
 478      27000000 
 478      00
 479              		.globl	_chMBPostAheadS
 480              		.def	_chMBPostAheadS;	.scl	2;	.type	32;	.endef
 481              	_chMBPostAheadS:
 482              	LFB13:
 483              		.loc 1 243 0
 484              		.cfi_startproc
 485              	LVL30:
 486 0250 53       		pushl	%ebx	 #
 487              		.cfi_def_cfa_offset 8
 488              		.cfi_offset 3, -8
 489 0251 83EC18   		subl	$24, %esp	 #,
 490              		.cfi_def_cfa_offset 32
 491              		.loc 1 243 0
 492 0254 8B5C2420 		movl	32(%esp), %ebx	 # mbp, mbp
 493              		.loc 1 246 0
 494 0258 E8000000 		call	_chDbgCheckClassS	 #
 494      00
 495              	LVL31:
 496              		.loc 1 247 0
 497 025d 85DB     		testl	%ebx, %ebx	 # mbp
 498 025f 7452     		je	L32	 #,
 499              	L28:
 500              		.loc 1 249 0
 501 0261 8B442428 		movl	40(%esp), %eax	 # time, time
GAS LISTING /cygdrive/c/DOCUME~1/andrey/LOCALS~1/Temp/ccxtzNSu.s 			page 11


 502 0265 89442404 		movl	%eax, 4(%esp)	 # time,
 503 0269 8D431C   		leal	28(%ebx), %eax	 #, tmp70
 504 026c 890424   		movl	%eax, (%esp)	 # tmp70,
 505 026f E8000000 		call	_chSemWaitTimeoutS	 #
 505      00
 506              	LVL32:
 507              		.loc 1 250 0
 508 0274 85C0     		testl	%eax, %eax	 # rdymsg
 509 0276 752B     		jne	L29	 #,
 510              		.loc 1 251 0
 511 0278 8B4B0C   		movl	12(%ebx), %ecx	 # mbp_6(D)->mb_rdptr, tmp75
 512 027b 8D51FC   		leal	-4(%ecx), %edx	 #, D.2262
 513 027e 3B13     		cmpl	(%ebx), %edx	 # mbp_6(D)->mb_buffer, D.2262
 514 0280 89530C   		movl	%edx, 12(%ebx)	 # D.2262, mbp_6(D)->mb_rdptr
 515 0283 7223     		jb	L33	 #,
 516              	L30:
 517              		.loc 1 253 0
 518 0285 8B4C2424 		movl	36(%esp), %ecx	 # msg, msg
 519              		.loc 1 254 0
 520 0289 83C310   		addl	$16, %ebx	 #, tmp73
 521 028c 8944240C 		movl	%eax, 12(%esp)	 # rdymsg, %sfp
 522              		.loc 1 253 0
 523 0290 890A     		movl	%ecx, (%edx)	 # msg, *_26
 524              		.loc 1 254 0
 525 0292 891C24   		movl	%ebx, (%esp)	 # tmp73,
 526 0295 E8000000 		call	_chSemSignalI	 #
 526      00
 527              	LVL33:
 528              		.loc 1 255 0
 529 029a E8000000 		call	_chSchRescheduleS	 #
 529      00
 530              	LVL34:
 531 029f 8B44240C 		movl	12(%esp), %eax	 # %sfp, rdymsg
 532              	LVL35:
 533              	L29:
 534              		.loc 1 258 0
 535 02a3 83C418   		addl	$24, %esp	 #,
 536              		.cfi_remember_state
 537              		.cfi_def_cfa_offset 8
 538 02a6 5B       		popl	%ebx	 #
 539              		.cfi_restore 3
 540              		.cfi_def_cfa_offset 4
 541 02a7 C3       		ret
 542              	LVL36:
 543              		.p2align 4,,7
 544              	L33:
 545              		.cfi_restore_state
 546              		.loc 1 252 0
 547 02a8 8B4B04   		movl	4(%ebx), %ecx	 # mbp_6(D)->mb_top, tmp76
 548 02ab 8D51FC   		leal	-4(%ecx), %edx	 #, D.2262
 549 02ae 89530C   		movl	%edx, 12(%ebx)	 # D.2262, mbp_6(D)->mb_rdptr
 550 02b1 EBD2     		jmp	L30	 #
 551              	LVL37:
 552              		.p2align 4,,7
 553              	L32:
 554              		.loc 1 247 0 discriminator 1
 555 02b3 C7442408 		movl	$247, 8(%esp)	 #,
GAS LISTING /cygdrive/c/DOCUME~1/andrey/LOCALS~1/Temp/ccxtzNSu.s 			page 12


 555      F7000000 
 556 02bb C7442404 		movl	$LC0, 4(%esp)	 #,
 556      00000000 
 557 02c3 C7042464 		movl	$LC5, (%esp)	 #,
 557      000000
 558 02ca E8000000 		call	_chDbgPanic	 #
 558      00
 559              	LVL38:
 560 02cf EB90     		jmp	L28	 #
 561              		.cfi_endproc
 562              	LFE13:
 563 02d1 EB0D9090 		.p2align 4,,15
 563      90909090 
 563      90909090 
 563      909090
 564              		.globl	_chMBPostAhead
 565              		.def	_chMBPostAhead;	.scl	2;	.type	32;	.endef
 566              	_chMBPostAhead:
 567              	LFB12:
 568              		.loc 1 215 0
 569              		.cfi_startproc
 570              	LVL39:
 571 02e0 53       		pushl	%ebx	 #
 572              		.cfi_def_cfa_offset 8
 573              		.cfi_offset 3, -8
 574 02e1 83EC18   		subl	$24, %esp	 #,
 575              		.cfi_def_cfa_offset 32
 576              		.loc 1 218 0
 577              	/APP
 578              	 # 218 "../firmware/chibios/os/kernel/src/chmboxes.c" 1
 579 02e4 90       		nop
 580              	 # 0 "" 2
 581              	/NO_APP
 582 02e5 E8000000 		call	_dbg_check_lock	 #
 582      00
 583              	LVL40:
 584              		.loc 1 219 0
 585 02ea 8B442428 		movl	40(%esp), %eax	 # time, time
 586 02ee 89442408 		movl	%eax, 8(%esp)	 # time,
 587 02f2 8B442424 		movl	36(%esp), %eax	 # msg, msg
 588 02f6 89442404 		movl	%eax, 4(%esp)	 # msg,
 589 02fa 8B442420 		movl	32(%esp), %eax	 # mbp, mbp
 590 02fe 890424   		movl	%eax, (%esp)	 # mbp,
 591 0301 E84AFFFF 		call	_chMBPostAheadS	 #
 591      FF
 592              	LVL41:
 593 0306 89C3     		movl	%eax, %ebx	 #, rdymsg
 594              	LVL42:
 595              		.loc 1 220 0
 596 0308 E8000000 		call	_dbg_check_unlock	 #
 596      00
 597              	LVL43:
 598              	/APP
 599              	 # 220 "../firmware/chibios/os/kernel/src/chmboxes.c" 1
 600 030d 90       		nop
 601              	 # 0 "" 2
 602              		.loc 1 222 0
GAS LISTING /cygdrive/c/DOCUME~1/andrey/LOCALS~1/Temp/ccxtzNSu.s 			page 13


 603              	/NO_APP
 604 030e 83C418   		addl	$24, %esp	 #,
 605              		.cfi_def_cfa_offset 8
 606 0311 89D8     		movl	%ebx, %eax	 # rdymsg,
 607 0313 5B       		popl	%ebx	 #
 608              		.cfi_restore 3
 609              		.cfi_def_cfa_offset 4
 610              	LVL44:
 611 0314 C3       		ret
 612              		.cfi_endproc
 613              	LFE12:
 614              		.section .rdata,"dr"
 615              	LC6:
 616 0077 2263684D 		.ascii "\"chMBPostAheadI\"()\0"
 616      42506F73 
 616      74416865 
 616      61644922 
 616      282900
 617              		.text
 618 0315 8D742600 		.p2align 4,,15
 618      8DBC2700 
 618      000000
 619              		.globl	_chMBPostAheadI
 620              		.def	_chMBPostAheadI;	.scl	2;	.type	32;	.endef
 621              	_chMBPostAheadI:
 622              	LFB14:
 623              		.loc 1 274 0
 624              		.cfi_startproc
 625              	LVL45:
 626 0320 53       		pushl	%ebx	 #
 627              		.cfi_def_cfa_offset 8
 628              		.cfi_offset 3, -8
 629 0321 83EC18   		subl	$24, %esp	 #,
 630              		.cfi_def_cfa_offset 32
 631              		.loc 1 274 0
 632 0324 8B5C2420 		movl	32(%esp), %ebx	 # mbp, mbp
 633              		.loc 1 276 0
 634 0328 E8000000 		call	_chDbgCheckClassI	 #
 634      00
 635              	LVL46:
 636              		.loc 1 277 0
 637 032d 85DB     		testl	%ebx, %ebx	 # mbp
 638 032f 743F     		je	L42	 #,
 639              	L37:
 640              		.loc 1 279 0
 641 0331 8B4324   		movl	36(%ebx), %eax	 # mbp_7(D)->mb_emptysem.s_cnt, D.2269
 642 0334 85C0     		testl	%eax, %eax	 # D.2269
 643 0336 7E58     		jle	L40	 #,
 644              		.loc 1 281 0
 645 0338 83E801   		subl	$1, %eax	 #, tmp70
 646 033b 894324   		movl	%eax, 36(%ebx)	 # tmp70, mbp_7(D)->mb_emptysem.s_cnt
 647              		.loc 1 282 0
 648 033e 8B430C   		movl	12(%ebx), %eax	 # mbp_7(D)->mb_rdptr, tmp75
 649 0341 83E804   		subl	$4, %eax	 #, D.2270
 650 0344 3B03     		cmpl	(%ebx), %eax	 # mbp_7(D)->mb_buffer, D.2270
 651 0346 89430C   		movl	%eax, 12(%ebx)	 # D.2270, mbp_7(D)->mb_rdptr
 652 0349 7218     		jb	L43	 #,
GAS LISTING /cygdrive/c/DOCUME~1/andrey/LOCALS~1/Temp/ccxtzNSu.s 			page 14


 653              	L39:
 654              		.loc 1 284 0
 655 034b 8B542424 		movl	36(%esp), %edx	 # msg, msg
 656              		.loc 1 285 0
 657 034f 83C310   		addl	$16, %ebx	 #, tmp73
 658              		.loc 1 284 0
 659 0352 8910     		movl	%edx, (%eax)	 # msg, *_25
 660              		.loc 1 285 0
 661 0354 891C24   		movl	%ebx, (%esp)	 # tmp73,
 662 0357 E8000000 		call	_chSemSignalI	 #
 662      00
 663              	LVL47:
 664              		.loc 1 286 0
 665 035c 31C0     		xorl	%eax, %eax	 # D.2268
 666              	L38:
 667              		.loc 1 287 0
 668 035e 83C418   		addl	$24, %esp	 #,
 669              		.cfi_remember_state
 670              		.cfi_def_cfa_offset 8
 671 0361 5B       		popl	%ebx	 #
 672              		.cfi_restore 3
 673              		.cfi_def_cfa_offset 4
 674 0362 C3       		ret
 675              		.p2align 4,,7
 676              	L43:
 677              		.cfi_restore_state
 678              		.loc 1 283 0
 679 0363 8B4304   		movl	4(%ebx), %eax	 # mbp_7(D)->mb_top, tmp76
 680 0366 83E804   		subl	$4, %eax	 #, D.2270
 681 0369 89430C   		movl	%eax, 12(%ebx)	 # D.2270, mbp_7(D)->mb_rdptr
 682 036c EBDD     		jmp	L39	 #
 683 036e 6690     		.p2align 4,,7
 684              	L42:
 685              		.loc 1 277 0 discriminator 1
 686 0370 C7442408 		movl	$277, 8(%esp)	 #,
 686      15010000 
 687 0378 C7442404 		movl	$LC0, 4(%esp)	 #,
 687      00000000 
 688 0380 C7042477 		movl	$LC6, (%esp)	 #,
 688      000000
 689 0387 E8000000 		call	_chDbgPanic	 #
 689      00
 690              	LVL48:
 691 038c EBA3     		jmp	L37	 #
 692 038e 6690     		.p2align 4,,7
 693              	L40:
 694              		.loc 1 280 0
 695 0390 B8FFFFFF 		movl	$-1, %eax	 #, D.2268
 695      FF
 696 0395 EBC7     		jmp	L38	 #
 697              		.cfi_endproc
 698              	LFE14:
 699              		.section .rdata,"dr"
 700              	LC7:
 701 008a 2263684D 		.ascii "\"chMBFetchS\"()\0"
 701      42466574 
 701      63685322 
GAS LISTING /cygdrive/c/DOCUME~1/andrey/LOCALS~1/Temp/ccxtzNSu.s 			page 15


 701      282900
 702              		.text
 703 0397 89F68DBC 		.p2align 4,,15
 703      27000000 
 703      00
 704              		.globl	_chMBFetchS
 705              		.def	_chMBFetchS;	.scl	2;	.type	32;	.endef
 706              	_chMBFetchS:
 707              	LFB16:
 708              		.loc 1 336 0
 709              		.cfi_startproc
 710              	LVL49:
 711 03a0 56       		pushl	%esi	 #
 712              		.cfi_def_cfa_offset 8
 713              		.cfi_offset 6, -8
 714 03a1 53       		pushl	%ebx	 #
 715              		.cfi_def_cfa_offset 12
 716              		.cfi_offset 3, -12
 717 03a2 83EC14   		subl	$20, %esp	 #,
 718              		.cfi_def_cfa_offset 32
 719              		.loc 1 336 0
 720 03a5 8B5C2420 		movl	32(%esp), %ebx	 # mbp, mbp
 721 03a9 8B742424 		movl	36(%esp), %esi	 # msgp, msgp
 722              		.loc 1 339 0
 723 03ad E8000000 		call	_chDbgCheckClassS	 #
 723      00
 724              	LVL50:
 725              		.loc 1 340 0
 726 03b2 85DB     		testl	%ebx, %ebx	 # mbp
 727 03b4 7452     		je	L49	 #,
 728 03b6 85F6     		testl	%esi, %esi	 # msgp
 729 03b8 744E     		je	L49	 #,
 730              	L45:
 731              		.loc 1 342 0
 732 03ba 8B442428 		movl	40(%esp), %eax	 # time, time
 733 03be 89442404 		movl	%eax, 4(%esp)	 # time,
 734 03c2 8D4310   		leal	16(%ebx), %eax	 #, tmp78
 735 03c5 890424   		movl	%eax, (%esp)	 # tmp78,
 736 03c8 E8000000 		call	_chSemWaitTimeoutS	 #
 736      00
 737              	LVL51:
 738              		.loc 1 343 0
 739 03cd 85C0     		testl	%eax, %eax	 # rdymsg
 740 03cf 752A     		jne	L47	 #,
 741              		.loc 1 344 0
 742 03d1 8B4B0C   		movl	12(%ebx), %ecx	 # mbp_6(D)->mb_rdptr, D.2277
 743 03d4 8D5104   		leal	4(%ecx), %edx	 #, D.2277
 744 03d7 8B09     		movl	(%ecx), %ecx	 # *_16, D.2278
 745              		.loc 1 345 0
 746 03d9 3B5304   		cmpl	4(%ebx), %edx	 # mbp_6(D)->mb_top, D.2277
 747              		.loc 1 344 0
 748 03dc 89530C   		movl	%edx, 12(%ebx)	 # D.2277, mbp_6(D)->mb_rdptr
 749 03df 890E     		movl	%ecx, (%esi)	 # D.2278, *msgp_8(D)
 750              		.loc 1 345 0
 751 03e1 731E     		jae	L54	 #,
 752              	L48:
 753              		.loc 1 347 0
GAS LISTING /cygdrive/c/DOCUME~1/andrey/LOCALS~1/Temp/ccxtzNSu.s 			page 16


 754 03e3 83C31C   		addl	$28, %ebx	 #, tmp80
 755 03e6 891C24   		movl	%ebx, (%esp)	 # tmp80,
 756 03e9 8944240C 		movl	%eax, 12(%esp)	 # rdymsg, %sfp
 757 03ed E8000000 		call	_chSemSignalI	 #
 757      00
 758              	LVL52:
 759              		.loc 1 348 0
 760 03f2 E8000000 		call	_chSchRescheduleS	 #
 760      00
 761              	LVL53:
 762 03f7 8B44240C 		movl	12(%esp), %eax	 # %sfp, rdymsg
 763              	LVL54:
 764              	L47:
 765              		.loc 1 351 0
 766 03fb 83C414   		addl	$20, %esp	 #,
 767              		.cfi_remember_state
 768              		.cfi_def_cfa_offset 12
 769 03fe 5B       		popl	%ebx	 #
 770              		.cfi_restore 3
 771              		.cfi_def_cfa_offset 8
 772 03ff 5E       		popl	%esi	 #
 773              		.cfi_restore 6
 774              		.cfi_def_cfa_offset 4
 775 0400 C3       		ret
 776              	LVL55:
 777              		.p2align 4,,7
 778              	L54:
 779              		.cfi_restore_state
 780              		.loc 1 346 0
 781 0401 8B13     		movl	(%ebx), %edx	 # mbp_6(D)->mb_buffer, mbp_6(D)->mb_buffer
 782 0403 89530C   		movl	%edx, 12(%ebx)	 # mbp_6(D)->mb_buffer, mbp_6(D)->mb_rdptr
 783 0406 EBDB     		jmp	L48	 #
 784              	LVL56:
 785              		.p2align 4,,7
 786              	L49:
 787              		.loc 1 340 0 discriminator 1
 788 0408 C7442408 		movl	$340, 8(%esp)	 #,
 788      54010000 
 789 0410 C7442404 		movl	$LC0, 4(%esp)	 #,
 789      00000000 
 790 0418 C704248A 		movl	$LC7, (%esp)	 #,
 790      000000
 791 041f E8000000 		call	_chDbgPanic	 #
 791      00
 792              	LVL57:
 793 0424 EB94     		jmp	L45	 #
 794              		.cfi_endproc
 795              	LFE16:
 796 0426 8D76008D 		.p2align 4,,15
 796      BC270000 
 796      0000
 797              		.globl	_chMBFetch
 798              		.def	_chMBFetch;	.scl	2;	.type	32;	.endef
 799              	_chMBFetch:
 800              	LFB15:
 801              		.loc 1 308 0
 802              		.cfi_startproc
GAS LISTING /cygdrive/c/DOCUME~1/andrey/LOCALS~1/Temp/ccxtzNSu.s 			page 17


 803              	LVL58:
 804 0430 53       		pushl	%ebx	 #
 805              		.cfi_def_cfa_offset 8
 806              		.cfi_offset 3, -8
 807 0431 83EC18   		subl	$24, %esp	 #,
 808              		.cfi_def_cfa_offset 32
 809              		.loc 1 311 0
 810              	/APP
 811              	 # 311 "../firmware/chibios/os/kernel/src/chmboxes.c" 1
 812 0434 90       		nop
 813              	 # 0 "" 2
 814              	/NO_APP
 815 0435 E8000000 		call	_dbg_check_lock	 #
 815      00
 816              	LVL59:
 817              		.loc 1 312 0
 818 043a 8B442428 		movl	40(%esp), %eax	 # time, time
 819 043e 89442408 		movl	%eax, 8(%esp)	 # time,
 820 0442 8B442424 		movl	36(%esp), %eax	 # msgp, msgp
 821 0446 89442404 		movl	%eax, 4(%esp)	 # msgp,
 822 044a 8B442420 		movl	32(%esp), %eax	 # mbp, mbp
 823 044e 890424   		movl	%eax, (%esp)	 # mbp,
 824 0451 E84AFFFF 		call	_chMBFetchS	 #
 824      FF
 825              	LVL60:
 826 0456 89C3     		movl	%eax, %ebx	 #, rdymsg
 827              	LVL61:
 828              		.loc 1 313 0
 829 0458 E8000000 		call	_dbg_check_unlock	 #
 829      00
 830              	LVL62:
 831              	/APP
 832              	 # 313 "../firmware/chibios/os/kernel/src/chmboxes.c" 1
 833 045d 90       		nop
 834              	 # 0 "" 2
 835              		.loc 1 315 0
 836              	/NO_APP
 837 045e 83C418   		addl	$24, %esp	 #,
 838              		.cfi_def_cfa_offset 8
 839 0461 89D8     		movl	%ebx, %eax	 # rdymsg,
 840 0463 5B       		popl	%ebx	 #
 841              		.cfi_restore 3
 842              		.cfi_def_cfa_offset 4
 843              	LVL63:
 844 0464 C3       		ret
 845              		.cfi_endproc
 846              	LFE15:
 847              		.section .rdata,"dr"
 848              	LC8:
 849 0099 2263684D 		.ascii "\"chMBFetchI\"()\0"
 849      42466574 
 849      63684922 
 849      282900
 850              		.text
 851 0465 8D742600 		.p2align 4,,15
 851      8DBC2700 
 851      000000
GAS LISTING /cygdrive/c/DOCUME~1/andrey/LOCALS~1/Temp/ccxtzNSu.s 			page 18


 852              		.globl	_chMBFetchI
 853              		.def	_chMBFetchI;	.scl	2;	.type	32;	.endef
 854              	_chMBFetchI:
 855              	LFB17:
 856              		.loc 1 367 0
 857              		.cfi_startproc
 858              	LVL64:
 859 0470 56       		pushl	%esi	 #
 860              		.cfi_def_cfa_offset 8
 861              		.cfi_offset 6, -8
 862 0471 53       		pushl	%ebx	 #
 863              		.cfi_def_cfa_offset 12
 864              		.cfi_offset 3, -12
 865 0472 83EC14   		subl	$20, %esp	 #,
 866              		.cfi_def_cfa_offset 32
 867              		.loc 1 367 0
 868 0475 8B5C2420 		movl	32(%esp), %ebx	 # mbp, mbp
 869 0479 8B742424 		movl	36(%esp), %esi	 # msgp, msgp
 870              		.loc 1 369 0
 871 047d E8000000 		call	_chDbgCheckClassI	 #
 871      00
 872              	LVL65:
 873              		.loc 1 370 0
 874 0482 85DB     		testl	%ebx, %ebx	 # mbp
 875 0484 7441     		je	L63	 #,
 876 0486 85F6     		testl	%esi, %esi	 # msgp
 877 0488 743D     		je	L63	 #,
 878              	L58:
 879              		.loc 1 372 0
 880 048a 8B4318   		movl	24(%ebx), %eax	 # mbp_7(D)->mb_fullsem.s_cnt, D.2286
 881 048d 85C0     		testl	%eax, %eax	 # D.2286
 882 048f 90       		.p2align 4,,2
 883 0490 7E53     		jle	L62	 #,
 884              		.loc 1 375 0
 885 0492 8B530C   		movl	12(%ebx), %edx	 # mbp_7(D)->mb_rdptr, D.2287
 886              		.loc 1 374 0
 887 0495 83E801   		subl	$1, %eax	 #, tmp78
 888 0498 894318   		movl	%eax, 24(%ebx)	 # tmp78, mbp_7(D)->mb_fullsem.s_cnt
 889              		.loc 1 375 0
 890 049b 8D4204   		leal	4(%edx), %eax	 #, D.2287
 891 049e 8B12     		movl	(%edx), %edx	 # *_16, D.2286
 892              		.loc 1 376 0
 893 04a0 3B4304   		cmpl	4(%ebx), %eax	 # mbp_7(D)->mb_top, D.2287
 894              		.loc 1 375 0
 895 04a3 89430C   		movl	%eax, 12(%ebx)	 # D.2287, mbp_7(D)->mb_rdptr
 896 04a6 8916     		movl	%edx, (%esi)	 # D.2286, *msgp_9(D)
 897              		.loc 1 376 0
 898 04a8 7316     		jae	L68	 #,
 899              	L61:
 900              		.loc 1 378 0
 901 04aa 83C31C   		addl	$28, %ebx	 #, tmp80
 902 04ad 891C24   		movl	%ebx, (%esp)	 # tmp80,
 903 04b0 E8000000 		call	_chSemSignalI	 #
 903      00
 904              	LVL66:
 905              		.loc 1 379 0
 906 04b5 31C0     		xorl	%eax, %eax	 # D.2284
GAS LISTING /cygdrive/c/DOCUME~1/andrey/LOCALS~1/Temp/ccxtzNSu.s 			page 19


 907              	L60:
 908              		.loc 1 380 0
 909 04b7 83C414   		addl	$20, %esp	 #,
 910              		.cfi_remember_state
 911              		.cfi_def_cfa_offset 12
 912 04ba 5B       		popl	%ebx	 #
 913              		.cfi_restore 3
 914              		.cfi_def_cfa_offset 8
 915 04bb 5E       		popl	%esi	 #
 916              		.cfi_restore 6
 917              		.cfi_def_cfa_offset 4
 918 04bc C3       		ret
 919 04bd 8D7600   		.p2align 4,,7
 920              	L68:
 921              		.cfi_restore_state
 922              		.loc 1 377 0
 923 04c0 8B03     		movl	(%ebx), %eax	 # mbp_7(D)->mb_buffer, mbp_7(D)->mb_buffer
 924 04c2 89430C   		movl	%eax, 12(%ebx)	 # mbp_7(D)->mb_buffer, mbp_7(D)->mb_rdptr
 925 04c5 EBE3     		jmp	L61	 #
 926              		.p2align 4,,7
 927              	L63:
 928              		.loc 1 370 0 discriminator 1
 929 04c7 C7442408 		movl	$370, 8(%esp)	 #,
 929      72010000 
 930 04cf C7442404 		movl	$LC0, 4(%esp)	 #,
 930      00000000 
 931 04d7 C7042499 		movl	$LC8, (%esp)	 #,
 931      000000
 932 04de E8000000 		call	_chDbgPanic	 #
 932      00
 933              	LVL67:
 934 04e3 EBA5     		jmp	L58	 #
 935              		.p2align 4,,7
 936              	L62:
 937              		.loc 1 373 0
 938 04e5 B8FFFFFF 		movl	$-1, %eax	 #, D.2284
 938      FF
 939 04ea EBCB     		jmp	L60	 #
 940              		.cfi_endproc
 941              	LFE17:
 942              	Letext0:
 943              		.file 2 "/usr/include/stdint.h"
 944              		.file 3 "../firmware/chibios/os/ports/GCC/SIMIA32/chtypes.h"
 945              		.file 4 "../firmware/chibios/os/kernel/include/chlists.h"
 946              		.file 5 "../firmware/chibios/os/kernel/include/chthreads.h"
 947              		.file 6 "../firmware/chibios/os/ports/GCC/SIMIA32/chcore.h"
 948              		.file 7 "../firmware/chibios/os/kernel/include/chsem.h"
 949              		.file 8 "../firmware/chibios/os/kernel/include/chmtx.h"
 950              		.file 9 "../firmware/chibios/os/kernel/include/chmboxes.h"
 951              		.file 10 "../firmware/chibios/os/kernel/include/chdebug.h"
 952              		.file 11 "../firmware/chibios/os/kernel/include/chschd.h"
 953 04ec 90909090 		.section	.debug_info,"dr"
 954              	Ldebug_info0:
 955 0000 DF0D0000 		.long	0xddf
 956 0004 0400     		.word	0x4
 957 0006 00000000 		.secrel32	Ldebug_abbrev0
 958 000a 04       		.byte	0x4
GAS LISTING /cygdrive/c/DOCUME~1/andrey/LOCALS~1/Temp/ccxtzNSu.s 			page 20


 959 000b 01       		.uleb128 0x1
 960 000c 474E5520 		.ascii "GNU C 4.8.2 -mtune=generic -march=i686 -ggdb -O2 -std=gnu99 -fomit-frame-pointer -fgnu89-i
 960      4320342E 
 960      382E3220 
 960      2D6D7475 
 960      6E653D67 
 961 006c 01       		.byte	0x1
 962 006d 2E2E2F66 		.ascii "../firmware/chibios/os/kernel/src/chmboxes.c\0"
 962      69726D77 
 962      6172652F 
 962      63686962 
 962      696F732F 
 963 009a 2F637967 		.ascii "/cygdrive/c/Program Files/Jenkins/workspace/runEfi win32 functional/win32_functional_tests
 963      64726976 
 963      652F632F 
 963      50726F67 
 963      72616D20 
 964 00f5 00000000 		.long	Ltext0
 965 00f9 EC040000 		.long	Letext0-Ltext0
 966 00fd 00000000 		.secrel32	Ldebug_line0
 967 0101 02       		.uleb128 0x2
 968 0102 04       		.byte	0x4
 969 0103 05       		.byte	0x5
 970 0104 696E7400 		.ascii "int\0"
 971 0108 02       		.uleb128 0x2
 972 0109 04       		.byte	0x4
 973 010a 07       		.byte	0x7
 974 010b 756E7369 		.ascii "unsigned int\0"
 974      676E6564 
 974      20696E74 
 974      00
 975 0118 02       		.uleb128 0x2
 976 0119 02       		.byte	0x2
 977 011a 07       		.byte	0x7
 978 011b 73686F72 		.ascii "short unsigned int\0"
 978      7420756E 
 978      7369676E 
 978      65642069 
 978      6E7400
 979 012e 02       		.uleb128 0x2
 980 012f 01       		.byte	0x1
 981 0130 06       		.byte	0x6
 982 0131 7369676E 		.ascii "signed char\0"
 982      65642063 
 982      68617200 
 983 013d 02       		.uleb128 0x2
 984 013e 02       		.byte	0x2
 985 013f 05       		.byte	0x5
 986 0140 73686F72 		.ascii "short int\0"
 986      7420696E 
 986      7400
 987 014a 03       		.uleb128 0x3
 988 014b 696E7433 		.ascii "int32_t\0"
 988      325F7400 
 989 0153 02       		.byte	0x2
 990 0154 16       		.byte	0x16
 991 0155 01010000 		.long	0x101
GAS LISTING /cygdrive/c/DOCUME~1/andrey/LOCALS~1/Temp/ccxtzNSu.s 			page 21


 992 0159 02       		.uleb128 0x2
 993 015a 08       		.byte	0x8
 994 015b 05       		.byte	0x5
 995 015c 6C6F6E67 		.ascii "long long int\0"
 995      206C6F6E 
 995      6720696E 
 995      7400
 996 016a 03       		.uleb128 0x3
 997 016b 75696E74 		.ascii "uint8_t\0"
 997      385F7400 
 998 0173 02       		.byte	0x2
 999 0174 1E       		.byte	0x1e
 1000 0175 79010000 		.long	0x179
 1001 0179 02       		.uleb128 0x2
 1002 017a 01       		.byte	0x1
 1003 017b 08       		.byte	0x8
 1004 017c 756E7369 		.ascii "unsigned char\0"
 1004      676E6564 
 1004      20636861 
 1004      7200
 1005 018a 03       		.uleb128 0x3
 1006 018b 75696E74 		.ascii "uint32_t\0"
 1006      33325F74 
 1006      00
 1007 0194 02       		.byte	0x2
 1008 0195 22       		.byte	0x22
 1009 0196 08010000 		.long	0x108
 1010 019a 02       		.uleb128 0x2
 1011 019b 08       		.byte	0x8
 1012 019c 07       		.byte	0x7
 1013 019d 6C6F6E67 		.ascii "long long unsigned int\0"
 1013      206C6F6E 
 1013      6720756E 
 1013      7369676E 
 1013      65642069 
 1014 01b4 02       		.uleb128 0x2
 1015 01b5 01       		.byte	0x1
 1016 01b6 02       		.byte	0x2
 1017 01b7 5F426F6F 		.ascii "_Bool\0"
 1017      6C00
 1018 01bd 03       		.uleb128 0x3
 1019 01be 746D6F64 		.ascii "tmode_t\0"
 1019      655F7400 
 1020 01c6 03       		.byte	0x3
 1021 01c7 24       		.byte	0x24
 1022 01c8 6A010000 		.long	0x16a
 1023 01cc 03       		.uleb128 0x3
 1024 01cd 74737461 		.ascii "tstate_t\0"
 1024      74655F74 
 1024      00
 1025 01d6 03       		.byte	0x3
 1026 01d7 25       		.byte	0x25
 1027 01d8 6A010000 		.long	0x16a
 1028 01dc 03       		.uleb128 0x3
 1029 01dd 74726566 		.ascii "trefs_t\0"
 1029      735F7400 
 1030 01e5 03       		.byte	0x3
GAS LISTING /cygdrive/c/DOCUME~1/andrey/LOCALS~1/Temp/ccxtzNSu.s 			page 22


 1031 01e6 26       		.byte	0x26
 1032 01e7 6A010000 		.long	0x16a
 1033 01eb 03       		.uleb128 0x3
 1034 01ec 74736C69 		.ascii "tslices_t\0"
 1034      6365735F 
 1034      7400
 1035 01f6 03       		.byte	0x3
 1036 01f7 27       		.byte	0x27
 1037 01f8 6A010000 		.long	0x16a
 1038 01fc 03       		.uleb128 0x3
 1039 01fd 74707269 		.ascii "tprio_t\0"
 1039      6F5F7400 
 1040 0205 03       		.byte	0x3
 1041 0206 28       		.byte	0x28
 1042 0207 8A010000 		.long	0x18a
 1043 020b 03       		.uleb128 0x3
 1044 020c 6D73675F 		.ascii "msg_t\0"
 1044      7400
 1045 0212 03       		.byte	0x3
 1046 0213 29       		.byte	0x29
 1047 0214 4A010000 		.long	0x14a
 1048 0218 03       		.uleb128 0x3
 1049 0219 6576656E 		.ascii "eventmask_t\0"
 1049      746D6173 
 1049      6B5F7400 
 1050 0225 03       		.byte	0x3
 1051 0226 2B       		.byte	0x2b
 1052 0227 8A010000 		.long	0x18a
 1053 022b 03       		.uleb128 0x3
 1054 022c 73797374 		.ascii "systime_t\0"
 1054      696D655F 
 1054      7400
 1055 0236 03       		.byte	0x3
 1056 0237 2D       		.byte	0x2d
 1057 0238 8A010000 		.long	0x18a
 1058 023c 03       		.uleb128 0x3
 1059 023d 636E745F 		.ascii "cnt_t\0"
 1059      7400
 1060 0243 03       		.byte	0x3
 1061 0244 2E       		.byte	0x2e
 1062 0245 4A010000 		.long	0x14a
 1063 0249 03       		.uleb128 0x3
 1064 024a 54687265 		.ascii "Thread\0"
 1064      616400
 1065 0251 04       		.byte	0x4
 1066 0252 2A       		.byte	0x2a
 1067 0253 57020000 		.long	0x257
 1068 0257 04       		.uleb128 0x4
 1069 0258 54687265 		.ascii "Thread\0"
 1069      616400
 1070 025f 48       		.byte	0x48
 1071 0260 05       		.byte	0x5
 1072 0261 5E       		.byte	0x5e
 1073 0262 A5030000 		.long	0x3a5
 1074 0266 05       		.uleb128 0x5
 1075 0267 16000000 		.secrel32	LASF0
 1076 026b 05       		.byte	0x5
GAS LISTING /cygdrive/c/DOCUME~1/andrey/LOCALS~1/Temp/ccxtzNSu.s 			page 23


 1077 026c 5F       		.byte	0x5f
 1078 026d C9030000 		.long	0x3c9
 1079 0271 00       		.byte	0
 1080 0272 06       		.uleb128 0x6
 1081 0273 705F7072 		.ascii "p_prev\0"
 1081      657600
 1082 027a 05       		.byte	0x5
 1083 027b 61       		.byte	0x61
 1084 027c C9030000 		.long	0x3c9
 1085 0280 04       		.byte	0x4
 1086 0281 06       		.uleb128 0x6
 1087 0282 705F7072 		.ascii "p_prio\0"
 1087      696F00
 1088 0289 05       		.byte	0x5
 1089 028a 63       		.byte	0x63
 1090 028b FC010000 		.long	0x1fc
 1091 028f 08       		.byte	0x8
 1092 0290 06       		.uleb128 0x6
 1093 0291 705F6374 		.ascii "p_ctx\0"
 1093      7800
 1094 0297 05       		.byte	0x5
 1095 0298 64       		.byte	0x64
 1096 0299 73040000 		.long	0x473
 1097 029d 0C       		.byte	0xc
 1098 029e 06       		.uleb128 0x6
 1099 029f 705F6E65 		.ascii "p_newer\0"
 1099      77657200 
 1100 02a7 05       		.byte	0x5
 1101 02a8 66       		.byte	0x66
 1102 02a9 C9030000 		.long	0x3c9
 1103 02ad 10       		.byte	0x10
 1104 02ae 06       		.uleb128 0x6
 1105 02af 705F6F6C 		.ascii "p_older\0"
 1105      64657200 
 1106 02b7 05       		.byte	0x5
 1107 02b8 67       		.byte	0x67
 1108 02b9 C9030000 		.long	0x3c9
 1109 02bd 14       		.byte	0x14
 1110 02be 06       		.uleb128 0x6
 1111 02bf 705F6E61 		.ascii "p_name\0"
 1111      6D6500
 1112 02c6 05       		.byte	0x5
 1113 02c7 6E       		.byte	0x6e
 1114 02c8 EF050000 		.long	0x5ef
 1115 02cc 18       		.byte	0x18
 1116 02cd 06       		.uleb128 0x6
 1117 02ce 705F7374 		.ascii "p_state\0"
 1117      61746500 
 1118 02d6 05       		.byte	0x5
 1119 02d7 79       		.byte	0x79
 1120 02d8 CC010000 		.long	0x1cc
 1121 02dc 1C       		.byte	0x1c
 1122 02dd 06       		.uleb128 0x6
 1123 02de 705F666C 		.ascii "p_flags\0"
 1123      61677300 
 1124 02e6 05       		.byte	0x5
 1125 02e7 7D       		.byte	0x7d
GAS LISTING /cygdrive/c/DOCUME~1/andrey/LOCALS~1/Temp/ccxtzNSu.s 			page 24


 1126 02e8 BD010000 		.long	0x1bd
 1127 02ec 1D       		.byte	0x1d
 1128 02ed 06       		.uleb128 0x6
 1129 02ee 705F7265 		.ascii "p_refs\0"
 1129      667300
 1130 02f5 05       		.byte	0x5
 1131 02f6 82       		.byte	0x82
 1132 02f7 DC010000 		.long	0x1dc
 1133 02fb 1E       		.byte	0x1e
 1134 02fc 06       		.uleb128 0x6
 1135 02fd 705F7072 		.ascii "p_preempt\0"
 1135      65656D70 
 1135      7400
 1136 0307 05       		.byte	0x5
 1137 0308 88       		.byte	0x88
 1138 0309 EB010000 		.long	0x1eb
 1139 030d 1F       		.byte	0x1f
 1140 030e 06       		.uleb128 0x6
 1141 030f 705F7469 		.ascii "p_time\0"
 1141      6D6500
 1142 0316 05       		.byte	0x5
 1143 0317 8F       		.byte	0x8f
 1144 0318 9B040000 		.long	0x49b
 1145 031c 20       		.byte	0x20
 1146 031d 06       		.uleb128 0x6
 1147 031e 705F7500 		.ascii "p_u\0"
 1148 0322 05       		.byte	0x5
 1149 0323 B4       		.byte	0xb4
 1150 0324 AF050000 		.long	0x5af
 1151 0328 24       		.byte	0x24
 1152 0329 06       		.uleb128 0x6
 1153 032a 705F7761 		.ascii "p_waiting\0"
 1153      6974696E 
 1153      6700
 1154 0334 05       		.byte	0x5
 1155 0335 B9       		.byte	0xb9
 1156 0336 F8030000 		.long	0x3f8
 1157 033a 28       		.byte	0x28
 1158 033b 06       		.uleb128 0x6
 1159 033c 705F6D73 		.ascii "p_msgqueue\0"
 1159      67717565 
 1159      756500
 1160 0347 05       		.byte	0x5
 1161 0348 BF       		.byte	0xbf
 1162 0349 CF030000 		.long	0x3cf
 1163 034d 2C       		.byte	0x2c
 1164 034e 06       		.uleb128 0x6
 1165 034f 705F6D73 		.ascii "p_msg\0"
 1165      6700
 1166 0355 05       		.byte	0x5
 1167 0356 C3       		.byte	0xc3
 1168 0357 0B020000 		.long	0x20b
 1169 035b 34       		.byte	0x34
 1170 035c 06       		.uleb128 0x6
 1171 035d 705F6570 		.ascii "p_epending\0"
 1171      656E6469 
 1171      6E6700
GAS LISTING /cygdrive/c/DOCUME~1/andrey/LOCALS~1/Temp/ccxtzNSu.s 			page 25


 1172 0368 05       		.byte	0x5
 1173 0369 C9       		.byte	0xc9
 1174 036a 18020000 		.long	0x218
 1175 036e 38       		.byte	0x38
 1176 036f 06       		.uleb128 0x6
 1177 0370 705F6D74 		.ascii "p_mtxlist\0"
 1177      786C6973 
 1177      7400
 1178 037a 05       		.byte	0x5
 1179 037b D0       		.byte	0xd0
 1180 037c 02060000 		.long	0x602
 1181 0380 3C       		.byte	0x3c
 1182 0381 06       		.uleb128 0x6
 1183 0382 705F7265 		.ascii "p_realprio\0"
 1183      616C7072 
 1183      696F00
 1184 038d 05       		.byte	0x5
 1185 038e D4       		.byte	0xd4
 1186 038f FC010000 		.long	0x1fc
 1187 0393 40       		.byte	0x40
 1188 0394 06       		.uleb128 0x6
 1189 0395 705F6D70 		.ascii "p_mpool\0"
 1189      6F6F6C00 
 1190 039d 05       		.byte	0x5
 1191 039e DA       		.byte	0xda
 1192 039f 25040000 		.long	0x425
 1193 03a3 44       		.byte	0x44
 1194 03a4 00       		.byte	0
 1195 03a5 07       		.uleb128 0x7
 1196 03a6 08       		.byte	0x8
 1197 03a7 04       		.byte	0x4
 1198 03a8 61       		.byte	0x61
 1199 03a9 C9030000 		.long	0x3c9
 1200 03ad 05       		.uleb128 0x5
 1201 03ae 16000000 		.secrel32	LASF0
 1202 03b2 04       		.byte	0x4
 1203 03b3 62       		.byte	0x62
 1204 03b4 C9030000 		.long	0x3c9
 1205 03b8 00       		.byte	0
 1206 03b9 06       		.uleb128 0x6
 1207 03ba 705F7072 		.ascii "p_prev\0"
 1207      657600
 1208 03c1 04       		.byte	0x4
 1209 03c2 64       		.byte	0x64
 1210 03c3 C9030000 		.long	0x3c9
 1211 03c7 04       		.byte	0x4
 1212 03c8 00       		.byte	0
 1213 03c9 08       		.uleb128 0x8
 1214 03ca 04       		.byte	0x4
 1215 03cb 49020000 		.long	0x249
 1216 03cf 03       		.uleb128 0x3
 1217 03d0 54687265 		.ascii "ThreadsQueue\0"
 1217      61647351 
 1217      75657565 
 1217      00
 1218 03dd 04       		.byte	0x4
 1219 03de 66       		.byte	0x66
GAS LISTING /cygdrive/c/DOCUME~1/andrey/LOCALS~1/Temp/ccxtzNSu.s 			page 26


 1220 03df A5030000 		.long	0x3a5
 1221 03e3 07       		.uleb128 0x7
 1222 03e4 04       		.byte	0x4
 1223 03e5 04       		.byte	0x4
 1224 03e6 6B       		.byte	0x6b
 1225 03e7 F8030000 		.long	0x3f8
 1226 03eb 05       		.uleb128 0x5
 1227 03ec 16000000 		.secrel32	LASF0
 1228 03f0 04       		.byte	0x4
 1229 03f1 6D       		.byte	0x6d
 1230 03f2 C9030000 		.long	0x3c9
 1231 03f6 00       		.byte	0
 1232 03f7 00       		.byte	0
 1233 03f8 03       		.uleb128 0x3
 1234 03f9 54687265 		.ascii "ThreadsList\0"
 1234      6164734C 
 1234      69737400 
 1235 0405 04       		.byte	0x4
 1236 0406 70       		.byte	0x70
 1237 0407 E3030000 		.long	0x3e3
 1238 040b 02       		.uleb128 0x2
 1239 040c 04       		.byte	0x4
 1240 040d 07       		.byte	0x7
 1241 040e 73697A65 		.ascii "sizetype\0"
 1241      74797065 
 1241      00
 1242 0417 03       		.uleb128 0x3
 1243 0418 72656778 		.ascii "regx86\0"
 1243      383600
 1244 041f 06       		.byte	0x6
 1245 0420 4B       		.byte	0x4b
 1246 0421 25040000 		.long	0x425
 1247 0425 09       		.uleb128 0x9
 1248 0426 04       		.byte	0x4
 1249 0427 04       		.uleb128 0x4
 1250 0428 696E7463 		.ascii "intctx\0"
 1250      747800
 1251 042f 14       		.byte	0x14
 1252 0430 06       		.byte	0x6
 1253 0431 59       		.byte	0x59
 1254 0432 73040000 		.long	0x473
 1255 0436 06       		.uleb128 0x6
 1256 0437 65627800 		.ascii "ebx\0"
 1257 043b 06       		.byte	0x6
 1258 043c 5A       		.byte	0x5a
 1259 043d 17040000 		.long	0x417
 1260 0441 00       		.byte	0
 1261 0442 06       		.uleb128 0x6
 1262 0443 65646900 		.ascii "edi\0"
 1263 0447 06       		.byte	0x6
 1264 0448 5B       		.byte	0x5b
 1265 0449 17040000 		.long	0x417
 1266 044d 04       		.byte	0x4
 1267 044e 06       		.uleb128 0x6
 1268 044f 65736900 		.ascii "esi\0"
 1269 0453 06       		.byte	0x6
 1270 0454 5C       		.byte	0x5c
GAS LISTING /cygdrive/c/DOCUME~1/andrey/LOCALS~1/Temp/ccxtzNSu.s 			page 27


 1271 0455 17040000 		.long	0x417
 1272 0459 08       		.byte	0x8
 1273 045a 06       		.uleb128 0x6
 1274 045b 65627000 		.ascii "ebp\0"
 1275 045f 06       		.byte	0x6
 1276 0460 5D       		.byte	0x5d
 1277 0461 17040000 		.long	0x417
 1278 0465 0C       		.byte	0xc
 1279 0466 06       		.uleb128 0x6
 1280 0467 65697000 		.ascii "eip\0"
 1281 046b 06       		.byte	0x6
 1282 046c 5E       		.byte	0x5e
 1283 046d 17040000 		.long	0x417
 1284 0471 10       		.byte	0x10
 1285 0472 00       		.byte	0
 1286 0473 04       		.uleb128 0x4
 1287 0474 636F6E74 		.ascii "context\0"
 1287      65787400 
 1288 047c 04       		.byte	0x4
 1289 047d 06       		.byte	0x6
 1290 047e 66       		.byte	0x66
 1291 047f 90040000 		.long	0x490
 1292 0483 06       		.uleb128 0x6
 1293 0484 65737000 		.ascii "esp\0"
 1294 0488 06       		.byte	0x6
 1295 0489 67       		.byte	0x67
 1296 048a 90040000 		.long	0x490
 1297 048e 00       		.byte	0
 1298 048f 00       		.byte	0
 1299 0490 08       		.uleb128 0x8
 1300 0491 04       		.byte	0x4
 1301 0492 96040000 		.long	0x496
 1302 0496 0A       		.uleb128 0xa
 1303 0497 27040000 		.long	0x427
 1304 049b 0A       		.uleb128 0xa
 1305 049c 2B020000 		.long	0x22b
 1306 04a0 0B       		.uleb128 0xb
 1307 04a1 05000000 		.secrel32	LASF1
 1308 04a5 0C       		.byte	0xc
 1309 04a6 07       		.byte	0x7
 1310 04a7 2C       		.byte	0x2c
 1311 04a8 CB040000 		.long	0x4cb
 1312 04ac 06       		.uleb128 0x6
 1313 04ad 735F7175 		.ascii "s_queue\0"
 1313      65756500 
 1314 04b5 07       		.byte	0x7
 1315 04b6 2D       		.byte	0x2d
 1316 04b7 CF030000 		.long	0x3cf
 1317 04bb 00       		.byte	0
 1318 04bc 06       		.uleb128 0x6
 1319 04bd 735F636E 		.ascii "s_cnt\0"
 1319      7400
 1320 04c3 07       		.byte	0x7
 1321 04c4 2F       		.byte	0x2f
 1322 04c5 3C020000 		.long	0x23c
 1323 04c9 08       		.byte	0x8
 1324 04ca 00       		.byte	0
GAS LISTING /cygdrive/c/DOCUME~1/andrey/LOCALS~1/Temp/ccxtzNSu.s 			page 28


 1325 04cb 0C       		.uleb128 0xc
 1326 04cc 05000000 		.secrel32	LASF1
 1327 04d0 07       		.byte	0x7
 1328 04d1 30       		.byte	0x30
 1329 04d2 A0040000 		.long	0x4a0
 1330 04d6 04       		.uleb128 0x4
 1331 04d7 4D757465 		.ascii "Mutex\0"
 1331      7800
 1332 04dd 10       		.byte	0x10
 1333 04de 08       		.byte	0x8
 1334 04df 2C       		.byte	0x2c
 1335 04e0 14050000 		.long	0x514
 1336 04e4 06       		.uleb128 0x6
 1337 04e5 6D5F7175 		.ascii "m_queue\0"
 1337      65756500 
 1338 04ed 08       		.byte	0x8
 1339 04ee 2D       		.byte	0x2d
 1340 04ef CF030000 		.long	0x3cf
 1341 04f3 00       		.byte	0
 1342 04f4 06       		.uleb128 0x6
 1343 04f5 6D5F6F77 		.ascii "m_owner\0"
 1343      6E657200 
 1344 04fd 08       		.byte	0x8
 1345 04fe 2F       		.byte	0x2f
 1346 04ff C9030000 		.long	0x3c9
 1347 0503 08       		.byte	0x8
 1348 0504 06       		.uleb128 0x6
 1349 0505 6D5F6E65 		.ascii "m_next\0"
 1349      787400
 1350 050c 08       		.byte	0x8
 1351 050d 31       		.byte	0x31
 1352 050e 14050000 		.long	0x514
 1353 0512 0C       		.byte	0xc
 1354 0513 00       		.byte	0
 1355 0514 08       		.uleb128 0x8
 1356 0515 04       		.byte	0x4
 1357 0516 D6040000 		.long	0x4d6
 1358 051a 03       		.uleb128 0x3
 1359 051b 4D757465 		.ascii "Mutex\0"
 1359      7800
 1360 0521 08       		.byte	0x8
 1361 0522 33       		.byte	0x33
 1362 0523 D6040000 		.long	0x4d6
 1363 0527 07       		.uleb128 0x7
 1364 0528 28       		.byte	0x28
 1365 0529 09       		.byte	0x9
 1366 052a 33       		.byte	0x33
 1367 052b 9A050000 		.long	0x59a
 1368 052f 06       		.uleb128 0x6
 1369 0530 6D625F62 		.ascii "mb_buffer\0"
 1369      75666665 
 1369      7200
 1370 053a 09       		.byte	0x9
 1371 053b 34       		.byte	0x34
 1372 053c 9A050000 		.long	0x59a
 1373 0540 00       		.byte	0
 1374 0541 06       		.uleb128 0x6
GAS LISTING /cygdrive/c/DOCUME~1/andrey/LOCALS~1/Temp/ccxtzNSu.s 			page 29


 1375 0542 6D625F74 		.ascii "mb_top\0"
 1375      6F7000
 1376 0549 09       		.byte	0x9
 1377 054a 36       		.byte	0x36
 1378 054b 9A050000 		.long	0x59a
 1379 054f 04       		.byte	0x4
 1380 0550 06       		.uleb128 0x6
 1381 0551 6D625F77 		.ascii "mb_wrptr\0"
 1381      72707472 
 1381      00
 1382 055a 09       		.byte	0x9
 1383 055b 38       		.byte	0x38
 1384 055c 9A050000 		.long	0x59a
 1385 0560 08       		.byte	0x8
 1386 0561 06       		.uleb128 0x6
 1387 0562 6D625F72 		.ascii "mb_rdptr\0"
 1387      64707472 
 1387      00
 1388 056b 09       		.byte	0x9
 1389 056c 39       		.byte	0x39
 1390 056d 9A050000 		.long	0x59a
 1391 0571 0C       		.byte	0xc
 1392 0572 06       		.uleb128 0x6
 1393 0573 6D625F66 		.ascii "mb_fullsem\0"
 1393      756C6C73 
 1393      656D00
 1394 057e 09       		.byte	0x9
 1395 057f 3A       		.byte	0x3a
 1396 0580 CB040000 		.long	0x4cb
 1397 0584 10       		.byte	0x10
 1398 0585 06       		.uleb128 0x6
 1399 0586 6D625F65 		.ascii "mb_emptysem\0"
 1399      6D707479 
 1399      73656D00 
 1400 0592 09       		.byte	0x9
 1401 0593 3C       		.byte	0x3c
 1402 0594 CB040000 		.long	0x4cb
 1403 0598 1C       		.byte	0x1c
 1404 0599 00       		.byte	0
 1405 059a 08       		.uleb128 0x8
 1406 059b 04       		.byte	0x4
 1407 059c 0B020000 		.long	0x20b
 1408 05a0 03       		.uleb128 0x3
 1409 05a1 4D61696C 		.ascii "Mailbox\0"
 1409      626F7800 
 1410 05a9 09       		.byte	0x9
 1411 05aa 3E       		.byte	0x3e
 1412 05ab 27050000 		.long	0x527
 1413 05af 0D       		.uleb128 0xd
 1414 05b0 04       		.byte	0x4
 1415 05b1 05       		.byte	0x5
 1416 05b2 96       		.byte	0x96
 1417 05b3 EF050000 		.long	0x5ef
 1418 05b7 0E       		.uleb128 0xe
 1419 05b8 0F000000 		.secrel32	LASF2
 1420 05bc 05       		.byte	0x5
 1421 05bd 9D       		.byte	0x9d
GAS LISTING /cygdrive/c/DOCUME~1/andrey/LOCALS~1/Temp/ccxtzNSu.s 			page 30


 1422 05be 0B020000 		.long	0x20b
 1423 05c2 0F       		.uleb128 0xf
 1424 05c3 65786974 		.ascii "exitcode\0"
 1424      636F6465 
 1424      00
 1425 05cc 05       		.byte	0x5
 1426 05cd A4       		.byte	0xa4
 1427 05ce 0B020000 		.long	0x20b
 1428 05d2 0F       		.uleb128 0xf
 1429 05d3 77746F62 		.ascii "wtobjp\0"
 1429      6A7000
 1430 05da 05       		.byte	0x5
 1431 05db AB       		.byte	0xab
 1432 05dc 25040000 		.long	0x425
 1433 05e0 0F       		.uleb128 0xf
 1434 05e1 65776D61 		.ascii "ewmask\0"
 1434      736B00
 1435 05e8 05       		.byte	0x5
 1436 05e9 B2       		.byte	0xb2
 1437 05ea 18020000 		.long	0x218
 1438 05ee 00       		.byte	0
 1439 05ef 08       		.uleb128 0x8
 1440 05f0 04       		.byte	0x4
 1441 05f1 F5050000 		.long	0x5f5
 1442 05f5 10       		.uleb128 0x10
 1443 05f6 FA050000 		.long	0x5fa
 1444 05fa 02       		.uleb128 0x2
 1445 05fb 01       		.byte	0x1
 1446 05fc 06       		.byte	0x6
 1447 05fd 63686172 		.ascii "char\0"
 1447      00
 1448 0602 08       		.uleb128 0x8
 1449 0603 04       		.byte	0x4
 1450 0604 1A050000 		.long	0x51a
 1451 0608 11       		.uleb128 0x11
 1452 0609 63684D42 		.ascii "chMBInit\0"
 1452      496E6974 
 1452      00
 1453 0612 01       		.byte	0x1
 1454 0613 48       		.byte	0x48
 1455 0614 00000000 		.long	LFB7
 1456 0618 74000000 		.long	LFE7-LFB7
 1457 061c 01       		.uleb128 0x1
 1458 061d 9C       		.byte	0x9c
 1459 061e 98060000 		.long	0x698
 1460 0622 12       		.uleb128 0x12
 1461 0623 6D627000 		.ascii "mbp\0"
 1462 0627 01       		.byte	0x1
 1463 0628 48       		.byte	0x48
 1464 0629 98060000 		.long	0x698
 1465 062d 02       		.uleb128 0x2
 1466 062e 91       		.byte	0x91
 1467 062f 00       		.sleb128 0
 1468 0630 12       		.uleb128 0x12
 1469 0631 62756600 		.ascii "buf\0"
 1470 0635 01       		.byte	0x1
 1471 0636 48       		.byte	0x48
GAS LISTING /cygdrive/c/DOCUME~1/andrey/LOCALS~1/Temp/ccxtzNSu.s 			page 31


 1472 0637 9A050000 		.long	0x59a
 1473 063b 02       		.uleb128 0x2
 1474 063c 91       		.byte	0x91
 1475 063d 04       		.sleb128 4
 1476 063e 12       		.uleb128 0x12
 1477 063f 6E00     		.ascii "n\0"
 1478 0641 01       		.byte	0x1
 1479 0642 48       		.byte	0x48
 1480 0643 3C020000 		.long	0x23c
 1481 0647 02       		.uleb128 0x2
 1482 0648 91       		.byte	0x91
 1483 0649 08       		.sleb128 8
 1484 064a 13       		.uleb128 0x13
 1485 064b 3F000000 		.long	LVL1
 1486 064f D60C0000 		.long	0xcd6
 1487 0653 69060000 		.long	0x669
 1488 0657 14       		.uleb128 0x14
 1489 0658 02       		.uleb128 0x2
 1490 0659 74       		.byte	0x74
 1491 065a 00       		.sleb128 0
 1492 065b 05       		.uleb128 0x5
 1493 065c 91       		.byte	0x91
 1494 065d 00       		.sleb128 0
 1495 065e 06       		.byte	0x6
 1496 065f 23       		.byte	0x23
 1497 0660 1C       		.uleb128 0x1c
 1498 0661 14       		.uleb128 0x14
 1499 0662 02       		.uleb128 0x2
 1500 0663 74       		.byte	0x74
 1501 0664 04       		.sleb128 4
 1502 0665 02       		.uleb128 0x2
 1503 0666 77       		.byte	0x77
 1504 0667 00       		.sleb128 0
 1505 0668 00       		.byte	0
 1506 0669 15       		.uleb128 0x15
 1507 066a 56000000 		.long	LVL2
 1508 066e D60C0000 		.long	0xcd6
 1509 0672 16       		.uleb128 0x16
 1510 0673 72000000 		.long	LVL3
 1511 0677 F80C0000 		.long	0xcf8
 1512 067b 14       		.uleb128 0x14
 1513 067c 02       		.uleb128 0x2
 1514 067d 74       		.byte	0x74
 1515 067e 00       		.sleb128 0
 1516 067f 05       		.uleb128 0x5
 1517 0680 03       		.byte	0x3
 1518 0681 2D000000 		.long	LC1
 1519 0685 14       		.uleb128 0x14
 1520 0686 02       		.uleb128 0x2
 1521 0687 74       		.byte	0x74
 1522 0688 04       		.sleb128 4
 1523 0689 05       		.uleb128 0x5
 1524 068a 03       		.byte	0x3
 1525 068b 00000000 		.long	LC0
 1526 068f 14       		.uleb128 0x14
 1527 0690 02       		.uleb128 0x2
 1528 0691 74       		.byte	0x74
GAS LISTING /cygdrive/c/DOCUME~1/andrey/LOCALS~1/Temp/ccxtzNSu.s 			page 32


 1529 0692 08       		.sleb128 8
 1530 0693 02       		.uleb128 0x2
 1531 0694 08       		.byte	0x8
 1532 0695 4A       		.byte	0x4a
 1533 0696 00       		.byte	0
 1534 0697 00       		.byte	0
 1535 0698 08       		.uleb128 0x8
 1536 0699 04       		.byte	0x4
 1537 069a A0050000 		.long	0x5a0
 1538 069e 11       		.uleb128 0x11
 1539 069f 63684D42 		.ascii "chMBReset\0"
 1539      52657365 
 1539      7400
 1540 06a9 01       		.byte	0x1
 1541 06aa 5B       		.byte	0x5b
 1542 06ab 80000000 		.long	LFB8
 1543 06af 72000000 		.long	LFE8-LFB8
 1544 06b3 01       		.uleb128 0x1
 1545 06b4 9C       		.byte	0x9c
 1546 06b5 3B070000 		.long	0x73b
 1547 06b9 12       		.uleb128 0x12
 1548 06ba 6D627000 		.ascii "mbp\0"
 1549 06be 01       		.byte	0x1
 1550 06bf 5B       		.byte	0x5b
 1551 06c0 98060000 		.long	0x698
 1552 06c4 02       		.uleb128 0x2
 1553 06c5 91       		.byte	0x91
 1554 06c6 00       		.sleb128 0
 1555 06c7 17       		.uleb128 0x17
 1556 06c8 92000000 		.long	LVL5
 1557 06cc 200D0000 		.long	0xd20
 1558 06d0 13       		.uleb128 0x13
 1559 06d1 B4000000 		.long	LVL6
 1560 06d5 320D0000 		.long	0xd32
 1561 06d9 E8060000 		.long	0x6e8
 1562 06dd 14       		.uleb128 0x14
 1563 06de 02       		.uleb128 0x2
 1564 06df 74       		.byte	0x74
 1565 06e0 00       		.sleb128 0
 1566 06e1 05       		.uleb128 0x5
 1567 06e2 91       		.byte	0x91
 1568 06e3 00       		.sleb128 0
 1569 06e4 06       		.byte	0x6
 1570 06e5 23       		.byte	0x23
 1571 06e6 1C       		.uleb128 0x1c
 1572 06e7 00       		.byte	0
 1573 06e8 13       		.uleb128 0x13
 1574 06e9 C4000000 		.long	LVL7
 1575 06ed 320D0000 		.long	0xd32
 1576 06f1 03070000 		.long	0x703
 1577 06f5 14       		.uleb128 0x14
 1578 06f6 02       		.uleb128 0x2
 1579 06f7 74       		.byte	0x74
 1580 06f8 00       		.sleb128 0
 1581 06f9 02       		.uleb128 0x2
 1582 06fa 73       		.byte	0x73
 1583 06fb 00       		.sleb128 0
GAS LISTING /cygdrive/c/DOCUME~1/andrey/LOCALS~1/Temp/ccxtzNSu.s 			page 33


 1584 06fc 14       		.uleb128 0x14
 1585 06fd 02       		.uleb128 0x2
 1586 06fe 74       		.byte	0x74
 1587 06ff 04       		.sleb128 4
 1588 0700 01       		.uleb128 0x1
 1589 0701 30       		.byte	0x30
 1590 0702 00       		.byte	0
 1591 0703 17       		.uleb128 0x17
 1592 0704 C9000000 		.long	LVL8
 1593 0708 500D0000 		.long	0xd50
 1594 070c 17       		.uleb128 0x17
 1595 070d CE000000 		.long	LVL9
 1596 0711 640D0000 		.long	0xd64
 1597 0715 16       		.uleb128 0x16
 1598 0716 F0000000 		.long	LVL10
 1599 071a F80C0000 		.long	0xcf8
 1600 071e 14       		.uleb128 0x14
 1601 071f 02       		.uleb128 0x2
 1602 0720 74       		.byte	0x74
 1603 0721 00       		.sleb128 0
 1604 0722 05       		.uleb128 0x5
 1605 0723 03       		.byte	0x3
 1606 0724 3A000000 		.long	LC2
 1607 0728 14       		.uleb128 0x14
 1608 0729 02       		.uleb128 0x2
 1609 072a 74       		.byte	0x74
 1610 072b 04       		.sleb128 4
 1611 072c 05       		.uleb128 0x5
 1612 072d 03       		.byte	0x3
 1613 072e 00000000 		.long	LC0
 1614 0732 14       		.uleb128 0x14
 1615 0733 02       		.uleb128 0x2
 1616 0734 74       		.byte	0x74
 1617 0735 08       		.sleb128 8
 1618 0736 02       		.uleb128 0x2
 1619 0737 08       		.byte	0x8
 1620 0738 5D       		.byte	0x5d
 1621 0739 00       		.byte	0
 1622 073a 00       		.byte	0
 1623 073b 18       		.uleb128 0x18
 1624 073c 63684D42 		.ascii "chMBPostS\0"
 1624      506F7374 
 1624      5300
 1625 0746 01       		.byte	0x1
 1626 0747 96       		.byte	0x96
 1627 0748 0B020000 		.long	0x20b
 1628 074c 00010000 		.long	LFB10
 1629 0750 85000000 		.long	LFE10-LFB10
 1630 0754 01       		.uleb128 0x1
 1631 0755 9C       		.byte	0x9c
 1632 0756 FD070000 		.long	0x7fd
 1633 075a 12       		.uleb128 0x12
 1634 075b 6D627000 		.ascii "mbp\0"
 1635 075f 01       		.byte	0x1
 1636 0760 96       		.byte	0x96
 1637 0761 98060000 		.long	0x698
 1638 0765 02       		.uleb128 0x2
GAS LISTING /cygdrive/c/DOCUME~1/andrey/LOCALS~1/Temp/ccxtzNSu.s 			page 34


 1639 0766 91       		.byte	0x91
 1640 0767 00       		.sleb128 0
 1641 0768 12       		.uleb128 0x12
 1642 0769 6D736700 		.ascii "msg\0"
 1643 076d 01       		.byte	0x1
 1644 076e 96       		.byte	0x96
 1645 076f 0B020000 		.long	0x20b
 1646 0773 02       		.uleb128 0x2
 1647 0774 91       		.byte	0x91
 1648 0775 04       		.sleb128 4
 1649 0776 19       		.uleb128 0x19
 1650 0777 00000000 		.secrel32	LASF3
 1651 077b 01       		.byte	0x1
 1652 077c 96       		.byte	0x96
 1653 077d 2B020000 		.long	0x22b
 1654 0781 02       		.uleb128 0x2
 1655 0782 91       		.byte	0x91
 1656 0783 08       		.sleb128 8
 1657 0784 1A       		.uleb128 0x1a
 1658 0785 0F000000 		.secrel32	LASF2
 1659 0789 01       		.byte	0x1
 1660 078a 97       		.byte	0x97
 1661 078b 0B020000 		.long	0x20b
 1662 078f 00000000 		.secrel32	LLST0
 1663 0793 17       		.uleb128 0x17
 1664 0794 0E010000 		.long	LVL12
 1665 0798 780D0000 		.long	0xd78
 1666 079c 13       		.uleb128 0x13
 1667 079d 25010000 		.long	LVL13
 1668 07a1 8C0D0000 		.long	0xd8c
 1669 07a5 B9070000 		.long	0x7b9
 1670 07a9 14       		.uleb128 0x14
 1671 07aa 02       		.uleb128 0x2
 1672 07ab 74       		.byte	0x74
 1673 07ac 00       		.sleb128 0
 1674 07ad 02       		.uleb128 0x2
 1675 07ae 73       		.byte	0x73
 1676 07af 1C       		.sleb128 28
 1677 07b0 14       		.uleb128 0x14
 1678 07b1 02       		.uleb128 0x2
 1679 07b2 74       		.byte	0x74
 1680 07b3 04       		.sleb128 4
 1681 07b4 03       		.uleb128 0x3
 1682 07b5 91       		.byte	0x91
 1683 07b6 08       		.sleb128 8
 1684 07b7 06       		.byte	0x6
 1685 07b8 00       		.byte	0
 1686 07b9 13       		.uleb128 0x13
 1687 07ba 4C010000 		.long	LVL14
 1688 07be B40D0000 		.long	0xdb4
 1689 07c2 CE070000 		.long	0x7ce
 1690 07c6 14       		.uleb128 0x14
 1691 07c7 02       		.uleb128 0x2
 1692 07c8 74       		.byte	0x74
 1693 07c9 00       		.sleb128 0
 1694 07ca 02       		.uleb128 0x2
 1695 07cb 73       		.byte	0x73
GAS LISTING /cygdrive/c/DOCUME~1/andrey/LOCALS~1/Temp/ccxtzNSu.s 			page 35


 1696 07cc 00       		.sleb128 0
 1697 07cd 00       		.byte	0
 1698 07ce 17       		.uleb128 0x17
 1699 07cf 51010000 		.long	LVL15
 1700 07d3 500D0000 		.long	0xd50
 1701 07d7 16       		.uleb128 0x16
 1702 07d8 83010000 		.long	LVL19
 1703 07dc F80C0000 		.long	0xcf8
 1704 07e0 14       		.uleb128 0x14
 1705 07e1 02       		.uleb128 0x2
 1706 07e2 74       		.byte	0x74
 1707 07e3 00       		.sleb128 0
 1708 07e4 05       		.uleb128 0x5
 1709 07e5 03       		.byte	0x3
 1710 07e6 48000000 		.long	LC3
 1711 07ea 14       		.uleb128 0x14
 1712 07eb 02       		.uleb128 0x2
 1713 07ec 74       		.byte	0x74
 1714 07ed 04       		.sleb128 4
 1715 07ee 05       		.uleb128 0x5
 1716 07ef 03       		.byte	0x3
 1717 07f0 00000000 		.long	LC0
 1718 07f4 14       		.uleb128 0x14
 1719 07f5 02       		.uleb128 0x2
 1720 07f6 74       		.byte	0x74
 1721 07f7 08       		.sleb128 8
 1722 07f8 02       		.uleb128 0x2
 1723 07f9 08       		.byte	0x8
 1724 07fa 9A       		.byte	0x9a
 1725 07fb 00       		.byte	0
 1726 07fc 00       		.byte	0
 1727 07fd 18       		.uleb128 0x18
 1728 07fe 63684D42 		.ascii "chMBPost\0"
 1728      506F7374 
 1728      00
 1729 0807 01       		.byte	0x1
 1730 0808 7A       		.byte	0x7a
 1731 0809 0B020000 		.long	0x20b
 1732 080d 90010000 		.long	LFB9
 1733 0811 35000000 		.long	LFE9-LFB9
 1734 0815 01       		.uleb128 0x1
 1735 0816 9C       		.byte	0x9c
 1736 0817 8D080000 		.long	0x88d
 1737 081b 12       		.uleb128 0x12
 1738 081c 6D627000 		.ascii "mbp\0"
 1739 0820 01       		.byte	0x1
 1740 0821 7A       		.byte	0x7a
 1741 0822 98060000 		.long	0x698
 1742 0826 02       		.uleb128 0x2
 1743 0827 91       		.byte	0x91
 1744 0828 00       		.sleb128 0
 1745 0829 12       		.uleb128 0x12
 1746 082a 6D736700 		.ascii "msg\0"
 1747 082e 01       		.byte	0x1
 1748 082f 7A       		.byte	0x7a
 1749 0830 0B020000 		.long	0x20b
 1750 0834 02       		.uleb128 0x2
GAS LISTING /cygdrive/c/DOCUME~1/andrey/LOCALS~1/Temp/ccxtzNSu.s 			page 36


 1751 0835 91       		.byte	0x91
 1752 0836 04       		.sleb128 4
 1753 0837 19       		.uleb128 0x19
 1754 0838 00000000 		.secrel32	LASF3
 1755 083c 01       		.byte	0x1
 1756 083d 7A       		.byte	0x7a
 1757 083e 2B020000 		.long	0x22b
 1758 0842 02       		.uleb128 0x2
 1759 0843 91       		.byte	0x91
 1760 0844 08       		.sleb128 8
 1761 0845 1A       		.uleb128 0x1a
 1762 0846 0F000000 		.secrel32	LASF2
 1763 084a 01       		.byte	0x1
 1764 084b 7B       		.byte	0x7b
 1765 084c 0B020000 		.long	0x20b
 1766 0850 2A000000 		.secrel32	LLST1
 1767 0854 17       		.uleb128 0x17
 1768 0855 9A010000 		.long	LVL21
 1769 0859 200D0000 		.long	0xd20
 1770 085d 13       		.uleb128 0x13
 1771 085e B6010000 		.long	LVL22
 1772 0862 3B070000 		.long	0x73b
 1773 0866 83080000 		.long	0x883
 1774 086a 14       		.uleb128 0x14
 1775 086b 02       		.uleb128 0x2
 1776 086c 74       		.byte	0x74
 1777 086d 00       		.sleb128 0
 1778 086e 03       		.uleb128 0x3
 1779 086f 91       		.byte	0x91
 1780 0870 00       		.sleb128 0
 1781 0871 06       		.byte	0x6
 1782 0872 14       		.uleb128 0x14
 1783 0873 02       		.uleb128 0x2
 1784 0874 74       		.byte	0x74
 1785 0875 04       		.sleb128 4
 1786 0876 03       		.uleb128 0x3
 1787 0877 91       		.byte	0x91
 1788 0878 04       		.sleb128 4
 1789 0879 06       		.byte	0x6
 1790 087a 14       		.uleb128 0x14
 1791 087b 02       		.uleb128 0x2
 1792 087c 74       		.byte	0x74
 1793 087d 08       		.sleb128 8
 1794 087e 03       		.uleb128 0x3
 1795 087f 91       		.byte	0x91
 1796 0880 08       		.sleb128 8
 1797 0881 06       		.byte	0x6
 1798 0882 00       		.byte	0
 1799 0883 17       		.uleb128 0x17
 1800 0884 BD010000 		.long	LVL24
 1801 0888 640D0000 		.long	0xd64
 1802 088c 00       		.byte	0
 1803 088d 18       		.uleb128 0x18
 1804 088e 63684D42 		.ascii "chMBPostI\0"
 1804      506F7374 
 1804      4900
 1805 0898 01       		.byte	0x1
GAS LISTING /cygdrive/c/DOCUME~1/andrey/LOCALS~1/Temp/ccxtzNSu.s 			page 37


 1806 0899 B5       		.byte	0xb5
 1807 089a 0B020000 		.long	0x20b
 1808 089e D0010000 		.long	LFB11
 1809 08a2 77000000 		.long	LFE11-LFB11
 1810 08a6 01       		.uleb128 0x1
 1811 08a7 9C       		.byte	0x9c
 1812 08a8 0C090000 		.long	0x90c
 1813 08ac 12       		.uleb128 0x12
 1814 08ad 6D627000 		.ascii "mbp\0"
 1815 08b1 01       		.byte	0x1
 1816 08b2 B5       		.byte	0xb5
 1817 08b3 98060000 		.long	0x698
 1818 08b7 02       		.uleb128 0x2
 1819 08b8 91       		.byte	0x91
 1820 08b9 00       		.sleb128 0
 1821 08ba 12       		.uleb128 0x12
 1822 08bb 6D736700 		.ascii "msg\0"
 1823 08bf 01       		.byte	0x1
 1824 08c0 B5       		.byte	0xb5
 1825 08c1 0B020000 		.long	0x20b
 1826 08c5 02       		.uleb128 0x2
 1827 08c6 91       		.byte	0x91
 1828 08c7 04       		.sleb128 4
 1829 08c8 17       		.uleb128 0x17
 1830 08c9 DD010000 		.long	LVL27
 1831 08cd CE0D0000 		.long	0xdce
 1832 08d1 13       		.uleb128 0x13
 1833 08d2 0D020000 		.long	LVL28
 1834 08d6 B40D0000 		.long	0xdb4
 1835 08da E6080000 		.long	0x8e6
 1836 08de 14       		.uleb128 0x14
 1837 08df 02       		.uleb128 0x2
 1838 08e0 74       		.byte	0x74
 1839 08e1 00       		.sleb128 0
 1840 08e2 02       		.uleb128 0x2
 1841 08e3 73       		.byte	0x73
 1842 08e4 00       		.sleb128 0
 1843 08e5 00       		.byte	0
 1844 08e6 16       		.uleb128 0x16
 1845 08e7 3C020000 		.long	LVL29
 1846 08eb F80C0000 		.long	0xcf8
 1847 08ef 14       		.uleb128 0x14
 1848 08f0 02       		.uleb128 0x2
 1849 08f1 74       		.byte	0x74
 1850 08f2 00       		.sleb128 0
 1851 08f3 05       		.uleb128 0x5
 1852 08f4 03       		.byte	0x3
 1853 08f5 56000000 		.long	LC4
 1854 08f9 14       		.uleb128 0x14
 1855 08fa 02       		.uleb128 0x2
 1856 08fb 74       		.byte	0x74
 1857 08fc 04       		.sleb128 4
 1858 08fd 05       		.uleb128 0x5
 1859 08fe 03       		.byte	0x3
 1860 08ff 00000000 		.long	LC0
 1861 0903 14       		.uleb128 0x14
 1862 0904 02       		.uleb128 0x2
GAS LISTING /cygdrive/c/DOCUME~1/andrey/LOCALS~1/Temp/ccxtzNSu.s 			page 38


 1863 0905 74       		.byte	0x74
 1864 0906 08       		.sleb128 8
 1865 0907 02       		.uleb128 0x2
 1866 0908 08       		.byte	0x8
 1867 0909 B8       		.byte	0xb8
 1868 090a 00       		.byte	0
 1869 090b 00       		.byte	0
 1870 090c 18       		.uleb128 0x18
 1871 090d 63684D42 		.ascii "chMBPostAheadS\0"
 1871      506F7374 
 1871      41686561 
 1871      645300
 1872 091c 01       		.byte	0x1
 1873 091d F3       		.byte	0xf3
 1874 091e 0B020000 		.long	0x20b
 1875 0922 50020000 		.long	LFB13
 1876 0926 81000000 		.long	LFE13-LFB13
 1877 092a 01       		.uleb128 0x1
 1878 092b 9C       		.byte	0x9c
 1879 092c D3090000 		.long	0x9d3
 1880 0930 12       		.uleb128 0x12
 1881 0931 6D627000 		.ascii "mbp\0"
 1882 0935 01       		.byte	0x1
 1883 0936 F3       		.byte	0xf3
 1884 0937 98060000 		.long	0x698
 1885 093b 02       		.uleb128 0x2
 1886 093c 91       		.byte	0x91
 1887 093d 00       		.sleb128 0
 1888 093e 12       		.uleb128 0x12
 1889 093f 6D736700 		.ascii "msg\0"
 1890 0943 01       		.byte	0x1
 1891 0944 F3       		.byte	0xf3
 1892 0945 0B020000 		.long	0x20b
 1893 0949 02       		.uleb128 0x2
 1894 094a 91       		.byte	0x91
 1895 094b 04       		.sleb128 4
 1896 094c 19       		.uleb128 0x19
 1897 094d 00000000 		.secrel32	LASF3
 1898 0951 01       		.byte	0x1
 1899 0952 F3       		.byte	0xf3
 1900 0953 2B020000 		.long	0x22b
 1901 0957 02       		.uleb128 0x2
 1902 0958 91       		.byte	0x91
 1903 0959 08       		.sleb128 8
 1904 095a 1A       		.uleb128 0x1a
 1905 095b 0F000000 		.secrel32	LASF2
 1906 095f 01       		.byte	0x1
 1907 0960 F4       		.byte	0xf4
 1908 0961 0B020000 		.long	0x20b
 1909 0965 53000000 		.secrel32	LLST2
 1910 0969 17       		.uleb128 0x17
 1911 096a 5D020000 		.long	LVL31
 1912 096e 780D0000 		.long	0xd78
 1913 0972 13       		.uleb128 0x13
 1914 0973 74020000 		.long	LVL32
 1915 0977 8C0D0000 		.long	0xd8c
 1916 097b 8F090000 		.long	0x98f
GAS LISTING /cygdrive/c/DOCUME~1/andrey/LOCALS~1/Temp/ccxtzNSu.s 			page 39


 1917 097f 14       		.uleb128 0x14
 1918 0980 02       		.uleb128 0x2
 1919 0981 74       		.byte	0x74
 1920 0982 00       		.sleb128 0
 1921 0983 02       		.uleb128 0x2
 1922 0984 73       		.byte	0x73
 1923 0985 1C       		.sleb128 28
 1924 0986 14       		.uleb128 0x14
 1925 0987 02       		.uleb128 0x2
 1926 0988 74       		.byte	0x74
 1927 0989 04       		.sleb128 4
 1928 098a 03       		.uleb128 0x3
 1929 098b 91       		.byte	0x91
 1930 098c 08       		.sleb128 8
 1931 098d 06       		.byte	0x6
 1932 098e 00       		.byte	0
 1933 098f 13       		.uleb128 0x13
 1934 0990 9A020000 		.long	LVL33
 1935 0994 B40D0000 		.long	0xdb4
 1936 0998 A4090000 		.long	0x9a4
 1937 099c 14       		.uleb128 0x14
 1938 099d 02       		.uleb128 0x2
 1939 099e 74       		.byte	0x74
 1940 099f 00       		.sleb128 0
 1941 09a0 02       		.uleb128 0x2
 1942 09a1 73       		.byte	0x73
 1943 09a2 00       		.sleb128 0
 1944 09a3 00       		.byte	0
 1945 09a4 17       		.uleb128 0x17
 1946 09a5 9F020000 		.long	LVL34
 1947 09a9 500D0000 		.long	0xd50
 1948 09ad 16       		.uleb128 0x16
 1949 09ae CF020000 		.long	LVL38
 1950 09b2 F80C0000 		.long	0xcf8
 1951 09b6 14       		.uleb128 0x14
 1952 09b7 02       		.uleb128 0x2
 1953 09b8 74       		.byte	0x74
 1954 09b9 00       		.sleb128 0
 1955 09ba 05       		.uleb128 0x5
 1956 09bb 03       		.byte	0x3
 1957 09bc 64000000 		.long	LC5
 1958 09c0 14       		.uleb128 0x14
 1959 09c1 02       		.uleb128 0x2
 1960 09c2 74       		.byte	0x74
 1961 09c3 04       		.sleb128 4
 1962 09c4 05       		.uleb128 0x5
 1963 09c5 03       		.byte	0x3
 1964 09c6 00000000 		.long	LC0
 1965 09ca 14       		.uleb128 0x14
 1966 09cb 02       		.uleb128 0x2
 1967 09cc 74       		.byte	0x74
 1968 09cd 08       		.sleb128 8
 1969 09ce 02       		.uleb128 0x2
 1970 09cf 08       		.byte	0x8
 1971 09d0 F7       		.byte	0xf7
 1972 09d1 00       		.byte	0
 1973 09d2 00       		.byte	0
GAS LISTING /cygdrive/c/DOCUME~1/andrey/LOCALS~1/Temp/ccxtzNSu.s 			page 40


 1974 09d3 18       		.uleb128 0x18
 1975 09d4 63684D42 		.ascii "chMBPostAhead\0"
 1975      506F7374 
 1975      41686561 
 1975      6400
 1976 09e2 01       		.byte	0x1
 1977 09e3 D7       		.byte	0xd7
 1978 09e4 0B020000 		.long	0x20b
 1979 09e8 E0020000 		.long	LFB12
 1980 09ec 35000000 		.long	LFE12-LFB12
 1981 09f0 01       		.uleb128 0x1
 1982 09f1 9C       		.byte	0x9c
 1983 09f2 680A0000 		.long	0xa68
 1984 09f6 12       		.uleb128 0x12
 1985 09f7 6D627000 		.ascii "mbp\0"
 1986 09fb 01       		.byte	0x1
 1987 09fc D7       		.byte	0xd7
 1988 09fd 98060000 		.long	0x698
 1989 0a01 02       		.uleb128 0x2
 1990 0a02 91       		.byte	0x91
 1991 0a03 00       		.sleb128 0
 1992 0a04 12       		.uleb128 0x12
 1993 0a05 6D736700 		.ascii "msg\0"
 1994 0a09 01       		.byte	0x1
 1995 0a0a D7       		.byte	0xd7
 1996 0a0b 0B020000 		.long	0x20b
 1997 0a0f 02       		.uleb128 0x2
 1998 0a10 91       		.byte	0x91
 1999 0a11 04       		.sleb128 4
 2000 0a12 19       		.uleb128 0x19
 2001 0a13 00000000 		.secrel32	LASF3
 2002 0a17 01       		.byte	0x1
 2003 0a18 D7       		.byte	0xd7
 2004 0a19 2B020000 		.long	0x22b
 2005 0a1d 02       		.uleb128 0x2
 2006 0a1e 91       		.byte	0x91
 2007 0a1f 08       		.sleb128 8
 2008 0a20 1A       		.uleb128 0x1a
 2009 0a21 0F000000 		.secrel32	LASF2
 2010 0a25 01       		.byte	0x1
 2011 0a26 D8       		.byte	0xd8
 2012 0a27 0B020000 		.long	0x20b
 2013 0a2b 7D000000 		.secrel32	LLST3
 2014 0a2f 17       		.uleb128 0x17
 2015 0a30 EA020000 		.long	LVL40
 2016 0a34 200D0000 		.long	0xd20
 2017 0a38 13       		.uleb128 0x13
 2018 0a39 06030000 		.long	LVL41
 2019 0a3d 0C090000 		.long	0x90c
 2020 0a41 5E0A0000 		.long	0xa5e
 2021 0a45 14       		.uleb128 0x14
 2022 0a46 02       		.uleb128 0x2
 2023 0a47 74       		.byte	0x74
 2024 0a48 00       		.sleb128 0
 2025 0a49 03       		.uleb128 0x3
 2026 0a4a 91       		.byte	0x91
 2027 0a4b 00       		.sleb128 0
GAS LISTING /cygdrive/c/DOCUME~1/andrey/LOCALS~1/Temp/ccxtzNSu.s 			page 41


 2028 0a4c 06       		.byte	0x6
 2029 0a4d 14       		.uleb128 0x14
 2030 0a4e 02       		.uleb128 0x2
 2031 0a4f 74       		.byte	0x74
 2032 0a50 04       		.sleb128 4
 2033 0a51 03       		.uleb128 0x3
 2034 0a52 91       		.byte	0x91
 2035 0a53 04       		.sleb128 4
 2036 0a54 06       		.byte	0x6
 2037 0a55 14       		.uleb128 0x14
 2038 0a56 02       		.uleb128 0x2
 2039 0a57 74       		.byte	0x74
 2040 0a58 08       		.sleb128 8
 2041 0a59 03       		.uleb128 0x3
 2042 0a5a 91       		.byte	0x91
 2043 0a5b 08       		.sleb128 8
 2044 0a5c 06       		.byte	0x6
 2045 0a5d 00       		.byte	0
 2046 0a5e 17       		.uleb128 0x17
 2047 0a5f 0D030000 		.long	LVL43
 2048 0a63 640D0000 		.long	0xd64
 2049 0a67 00       		.byte	0
 2050 0a68 1B       		.uleb128 0x1b
 2051 0a69 63684D42 		.ascii "chMBPostAheadI\0"
 2051      506F7374 
 2051      41686561 
 2051      644900
 2052 0a78 01       		.byte	0x1
 2053 0a79 1201     		.word	0x112
 2054 0a7b 0B020000 		.long	0x20b
 2055 0a7f 20030000 		.long	LFB14
 2056 0a83 77000000 		.long	LFE14-LFB14
 2057 0a87 01       		.uleb128 0x1
 2058 0a88 9C       		.byte	0x9c
 2059 0a89 F00A0000 		.long	0xaf0
 2060 0a8d 1C       		.uleb128 0x1c
 2061 0a8e 6D627000 		.ascii "mbp\0"
 2062 0a92 01       		.byte	0x1
 2063 0a93 1201     		.word	0x112
 2064 0a95 98060000 		.long	0x698
 2065 0a99 02       		.uleb128 0x2
 2066 0a9a 91       		.byte	0x91
 2067 0a9b 00       		.sleb128 0
 2068 0a9c 1C       		.uleb128 0x1c
 2069 0a9d 6D736700 		.ascii "msg\0"
 2070 0aa1 01       		.byte	0x1
 2071 0aa2 1201     		.word	0x112
 2072 0aa4 0B020000 		.long	0x20b
 2073 0aa8 02       		.uleb128 0x2
 2074 0aa9 91       		.byte	0x91
 2075 0aaa 04       		.sleb128 4
 2076 0aab 17       		.uleb128 0x17
 2077 0aac 2D030000 		.long	LVL46
 2078 0ab0 CE0D0000 		.long	0xdce
 2079 0ab4 13       		.uleb128 0x13
 2080 0ab5 5C030000 		.long	LVL47
 2081 0ab9 B40D0000 		.long	0xdb4
GAS LISTING /cygdrive/c/DOCUME~1/andrey/LOCALS~1/Temp/ccxtzNSu.s 			page 42


 2082 0abd C90A0000 		.long	0xac9
 2083 0ac1 14       		.uleb128 0x14
 2084 0ac2 02       		.uleb128 0x2
 2085 0ac3 74       		.byte	0x74
 2086 0ac4 00       		.sleb128 0
 2087 0ac5 02       		.uleb128 0x2
 2088 0ac6 73       		.byte	0x73
 2089 0ac7 00       		.sleb128 0
 2090 0ac8 00       		.byte	0
 2091 0ac9 16       		.uleb128 0x16
 2092 0aca 8C030000 		.long	LVL48
 2093 0ace F80C0000 		.long	0xcf8
 2094 0ad2 14       		.uleb128 0x14
 2095 0ad3 02       		.uleb128 0x2
 2096 0ad4 74       		.byte	0x74
 2097 0ad5 00       		.sleb128 0
 2098 0ad6 05       		.uleb128 0x5
 2099 0ad7 03       		.byte	0x3
 2100 0ad8 77000000 		.long	LC6
 2101 0adc 14       		.uleb128 0x14
 2102 0add 02       		.uleb128 0x2
 2103 0ade 74       		.byte	0x74
 2104 0adf 04       		.sleb128 4
 2105 0ae0 05       		.uleb128 0x5
 2106 0ae1 03       		.byte	0x3
 2107 0ae2 00000000 		.long	LC0
 2108 0ae6 14       		.uleb128 0x14
 2109 0ae7 02       		.uleb128 0x2
 2110 0ae8 74       		.byte	0x74
 2111 0ae9 08       		.sleb128 8
 2112 0aea 03       		.uleb128 0x3
 2113 0aeb 0A       		.byte	0xa
 2114 0aec 1501     		.word	0x115
 2115 0aee 00       		.byte	0
 2116 0aef 00       		.byte	0
 2117 0af0 1B       		.uleb128 0x1b
 2118 0af1 63684D42 		.ascii "chMBFetchS\0"
 2118      46657463 
 2118      685300
 2119 0afc 01       		.byte	0x1
 2120 0afd 5001     		.word	0x150
 2121 0aff 0B020000 		.long	0x20b
 2122 0b03 A0030000 		.long	LFB16
 2123 0b07 86000000 		.long	LFE16-LFB16
 2124 0b0b 01       		.uleb128 0x1
 2125 0b0c 9C       		.byte	0x9c
 2126 0b0d BA0B0000 		.long	0xbba
 2127 0b11 1C       		.uleb128 0x1c
 2128 0b12 6D627000 		.ascii "mbp\0"
 2129 0b16 01       		.byte	0x1
 2130 0b17 5001     		.word	0x150
 2131 0b19 98060000 		.long	0x698
 2132 0b1d 02       		.uleb128 0x2
 2133 0b1e 91       		.byte	0x91
 2134 0b1f 00       		.sleb128 0
 2135 0b20 1C       		.uleb128 0x1c
 2136 0b21 6D736770 		.ascii "msgp\0"
GAS LISTING /cygdrive/c/DOCUME~1/andrey/LOCALS~1/Temp/ccxtzNSu.s 			page 43


 2136      00
 2137 0b26 01       		.byte	0x1
 2138 0b27 5001     		.word	0x150
 2139 0b29 9A050000 		.long	0x59a
 2140 0b2d 02       		.uleb128 0x2
 2141 0b2e 91       		.byte	0x91
 2142 0b2f 04       		.sleb128 4
 2143 0b30 1D       		.uleb128 0x1d
 2144 0b31 00000000 		.secrel32	LASF3
 2145 0b35 01       		.byte	0x1
 2146 0b36 5001     		.word	0x150
 2147 0b38 2B020000 		.long	0x22b
 2148 0b3c 02       		.uleb128 0x2
 2149 0b3d 91       		.byte	0x91
 2150 0b3e 08       		.sleb128 8
 2151 0b3f 1E       		.uleb128 0x1e
 2152 0b40 0F000000 		.secrel32	LASF2
 2153 0b44 01       		.byte	0x1
 2154 0b45 5101     		.word	0x151
 2155 0b47 0B020000 		.long	0x20b
 2156 0b4b A6000000 		.secrel32	LLST4
 2157 0b4f 17       		.uleb128 0x17
 2158 0b50 B2030000 		.long	LVL50
 2159 0b54 780D0000 		.long	0xd78
 2160 0b58 13       		.uleb128 0x13
 2161 0b59 CD030000 		.long	LVL51
 2162 0b5d 8C0D0000 		.long	0xd8c
 2163 0b61 750B0000 		.long	0xb75
 2164 0b65 14       		.uleb128 0x14
 2165 0b66 02       		.uleb128 0x2
 2166 0b67 74       		.byte	0x74
 2167 0b68 00       		.sleb128 0
 2168 0b69 02       		.uleb128 0x2
 2169 0b6a 73       		.byte	0x73
 2170 0b6b 10       		.sleb128 16
 2171 0b6c 14       		.uleb128 0x14
 2172 0b6d 02       		.uleb128 0x2
 2173 0b6e 74       		.byte	0x74
 2174 0b6f 04       		.sleb128 4
 2175 0b70 03       		.uleb128 0x3
 2176 0b71 91       		.byte	0x91
 2177 0b72 08       		.sleb128 8
 2178 0b73 06       		.byte	0x6
 2179 0b74 00       		.byte	0
 2180 0b75 13       		.uleb128 0x13
 2181 0b76 F2030000 		.long	LVL52
 2182 0b7a B40D0000 		.long	0xdb4
 2183 0b7e 8A0B0000 		.long	0xb8a
 2184 0b82 14       		.uleb128 0x14
 2185 0b83 02       		.uleb128 0x2
 2186 0b84 74       		.byte	0x74
 2187 0b85 00       		.sleb128 0
 2188 0b86 02       		.uleb128 0x2
 2189 0b87 73       		.byte	0x73
 2190 0b88 00       		.sleb128 0
 2191 0b89 00       		.byte	0
 2192 0b8a 17       		.uleb128 0x17
GAS LISTING /cygdrive/c/DOCUME~1/andrey/LOCALS~1/Temp/ccxtzNSu.s 			page 44


 2193 0b8b F7030000 		.long	LVL53
 2194 0b8f 500D0000 		.long	0xd50
 2195 0b93 16       		.uleb128 0x16
 2196 0b94 24040000 		.long	LVL57
 2197 0b98 F80C0000 		.long	0xcf8
 2198 0b9c 14       		.uleb128 0x14
 2199 0b9d 02       		.uleb128 0x2
 2200 0b9e 74       		.byte	0x74
 2201 0b9f 00       		.sleb128 0
 2202 0ba0 05       		.uleb128 0x5
 2203 0ba1 03       		.byte	0x3
 2204 0ba2 8A000000 		.long	LC7
 2205 0ba6 14       		.uleb128 0x14
 2206 0ba7 02       		.uleb128 0x2
 2207 0ba8 74       		.byte	0x74
 2208 0ba9 04       		.sleb128 4
 2209 0baa 05       		.uleb128 0x5
 2210 0bab 03       		.byte	0x3
 2211 0bac 00000000 		.long	LC0
 2212 0bb0 14       		.uleb128 0x14
 2213 0bb1 02       		.uleb128 0x2
 2214 0bb2 74       		.byte	0x74
 2215 0bb3 08       		.sleb128 8
 2216 0bb4 03       		.uleb128 0x3
 2217 0bb5 0A       		.byte	0xa
 2218 0bb6 5401     		.word	0x154
 2219 0bb8 00       		.byte	0
 2220 0bb9 00       		.byte	0
 2221 0bba 1B       		.uleb128 0x1b
 2222 0bbb 63684D42 		.ascii "chMBFetch\0"
 2222      46657463 
 2222      6800
 2223 0bc5 01       		.byte	0x1
 2224 0bc6 3401     		.word	0x134
 2225 0bc8 0B020000 		.long	0x20b
 2226 0bcc 30040000 		.long	LFB15
 2227 0bd0 35000000 		.long	LFE15-LFB15
 2228 0bd4 01       		.uleb128 0x1
 2229 0bd5 9C       		.byte	0x9c
 2230 0bd6 510C0000 		.long	0xc51
 2231 0bda 1C       		.uleb128 0x1c
 2232 0bdb 6D627000 		.ascii "mbp\0"
 2233 0bdf 01       		.byte	0x1
 2234 0be0 3401     		.word	0x134
 2235 0be2 98060000 		.long	0x698
 2236 0be6 02       		.uleb128 0x2
 2237 0be7 91       		.byte	0x91
 2238 0be8 00       		.sleb128 0
 2239 0be9 1C       		.uleb128 0x1c
 2240 0bea 6D736770 		.ascii "msgp\0"
 2240      00
 2241 0bef 01       		.byte	0x1
 2242 0bf0 3401     		.word	0x134
 2243 0bf2 9A050000 		.long	0x59a
 2244 0bf6 02       		.uleb128 0x2
 2245 0bf7 91       		.byte	0x91
 2246 0bf8 04       		.sleb128 4
GAS LISTING /cygdrive/c/DOCUME~1/andrey/LOCALS~1/Temp/ccxtzNSu.s 			page 45


 2247 0bf9 1D       		.uleb128 0x1d
 2248 0bfa 00000000 		.secrel32	LASF3
 2249 0bfe 01       		.byte	0x1
 2250 0bff 3401     		.word	0x134
 2251 0c01 2B020000 		.long	0x22b
 2252 0c05 02       		.uleb128 0x2
 2253 0c06 91       		.byte	0x91
 2254 0c07 08       		.sleb128 8
 2255 0c08 1E       		.uleb128 0x1e
 2256 0c09 0F000000 		.secrel32	LASF2
 2257 0c0d 01       		.byte	0x1
 2258 0c0e 3501     		.word	0x135
 2259 0c10 0B020000 		.long	0x20b
 2260 0c14 D0000000 		.secrel32	LLST5
 2261 0c18 17       		.uleb128 0x17
 2262 0c19 3A040000 		.long	LVL59
 2263 0c1d 200D0000 		.long	0xd20
 2264 0c21 13       		.uleb128 0x13
 2265 0c22 56040000 		.long	LVL60
 2266 0c26 F00A0000 		.long	0xaf0
 2267 0c2a 470C0000 		.long	0xc47
 2268 0c2e 14       		.uleb128 0x14
 2269 0c2f 02       		.uleb128 0x2
 2270 0c30 74       		.byte	0x74
 2271 0c31 00       		.sleb128 0
 2272 0c32 03       		.uleb128 0x3
 2273 0c33 91       		.byte	0x91
 2274 0c34 00       		.sleb128 0
 2275 0c35 06       		.byte	0x6
 2276 0c36 14       		.uleb128 0x14
 2277 0c37 02       		.uleb128 0x2
 2278 0c38 74       		.byte	0x74
 2279 0c39 04       		.sleb128 4
 2280 0c3a 03       		.uleb128 0x3
 2281 0c3b 91       		.byte	0x91
 2282 0c3c 04       		.sleb128 4
 2283 0c3d 06       		.byte	0x6
 2284 0c3e 14       		.uleb128 0x14
 2285 0c3f 02       		.uleb128 0x2
 2286 0c40 74       		.byte	0x74
 2287 0c41 08       		.sleb128 8
 2288 0c42 03       		.uleb128 0x3
 2289 0c43 91       		.byte	0x91
 2290 0c44 08       		.sleb128 8
 2291 0c45 06       		.byte	0x6
 2292 0c46 00       		.byte	0
 2293 0c47 17       		.uleb128 0x17
 2294 0c48 5D040000 		.long	LVL62
 2295 0c4c 640D0000 		.long	0xd64
 2296 0c50 00       		.byte	0
 2297 0c51 1B       		.uleb128 0x1b
 2298 0c52 63684D42 		.ascii "chMBFetchI\0"
 2298      46657463 
 2298      684900
 2299 0c5d 01       		.byte	0x1
 2300 0c5e 6F01     		.word	0x16f
 2301 0c60 0B020000 		.long	0x20b
GAS LISTING /cygdrive/c/DOCUME~1/andrey/LOCALS~1/Temp/ccxtzNSu.s 			page 46


 2302 0c64 70040000 		.long	LFB17
 2303 0c68 7C000000 		.long	LFE17-LFB17
 2304 0c6c 01       		.uleb128 0x1
 2305 0c6d 9C       		.byte	0x9c
 2306 0c6e D60C0000 		.long	0xcd6
 2307 0c72 1C       		.uleb128 0x1c
 2308 0c73 6D627000 		.ascii "mbp\0"
 2309 0c77 01       		.byte	0x1
 2310 0c78 6F01     		.word	0x16f
 2311 0c7a 98060000 		.long	0x698
 2312 0c7e 02       		.uleb128 0x2
 2313 0c7f 91       		.byte	0x91
 2314 0c80 00       		.sleb128 0
 2315 0c81 1C       		.uleb128 0x1c
 2316 0c82 6D736770 		.ascii "msgp\0"
 2316      00
 2317 0c87 01       		.byte	0x1
 2318 0c88 6F01     		.word	0x16f
 2319 0c8a 9A050000 		.long	0x59a
 2320 0c8e 02       		.uleb128 0x2
 2321 0c8f 91       		.byte	0x91
 2322 0c90 04       		.sleb128 4
 2323 0c91 17       		.uleb128 0x17
 2324 0c92 82040000 		.long	LVL65
 2325 0c96 CE0D0000 		.long	0xdce
 2326 0c9a 13       		.uleb128 0x13
 2327 0c9b B5040000 		.long	LVL66
 2328 0c9f B40D0000 		.long	0xdb4
 2329 0ca3 AF0C0000 		.long	0xcaf
 2330 0ca7 14       		.uleb128 0x14
 2331 0ca8 02       		.uleb128 0x2
 2332 0ca9 74       		.byte	0x74
 2333 0caa 00       		.sleb128 0
 2334 0cab 02       		.uleb128 0x2
 2335 0cac 73       		.byte	0x73
 2336 0cad 00       		.sleb128 0
 2337 0cae 00       		.byte	0
 2338 0caf 16       		.uleb128 0x16
 2339 0cb0 E3040000 		.long	LVL67
 2340 0cb4 F80C0000 		.long	0xcf8
 2341 0cb8 14       		.uleb128 0x14
 2342 0cb9 02       		.uleb128 0x2
 2343 0cba 74       		.byte	0x74
 2344 0cbb 00       		.sleb128 0
 2345 0cbc 05       		.uleb128 0x5
 2346 0cbd 03       		.byte	0x3
 2347 0cbe 99000000 		.long	LC8
 2348 0cc2 14       		.uleb128 0x14
 2349 0cc3 02       		.uleb128 0x2
 2350 0cc4 74       		.byte	0x74
 2351 0cc5 04       		.sleb128 4
 2352 0cc6 05       		.uleb128 0x5
 2353 0cc7 03       		.byte	0x3
 2354 0cc8 00000000 		.long	LC0
 2355 0ccc 14       		.uleb128 0x14
 2356 0ccd 02       		.uleb128 0x2
 2357 0cce 74       		.byte	0x74
GAS LISTING /cygdrive/c/DOCUME~1/andrey/LOCALS~1/Temp/ccxtzNSu.s 			page 47


 2358 0ccf 08       		.sleb128 8
 2359 0cd0 03       		.uleb128 0x3
 2360 0cd1 0A       		.byte	0xa
 2361 0cd2 7201     		.word	0x172
 2362 0cd4 00       		.byte	0
 2363 0cd5 00       		.byte	0
 2364 0cd6 1F       		.uleb128 0x1f
 2365 0cd7 63685365 		.ascii "chSemInit\0"
 2365      6D496E69 
 2365      7400
 2366 0ce1 07       		.byte	0x7
 2367 0ce2 35       		.byte	0x35
 2368 0ce3 F20C0000 		.long	0xcf2
 2369 0ce7 20       		.uleb128 0x20
 2370 0ce8 F20C0000 		.long	0xcf2
 2371 0cec 20       		.uleb128 0x20
 2372 0ced 3C020000 		.long	0x23c
 2373 0cf1 00       		.byte	0
 2374 0cf2 08       		.uleb128 0x8
 2375 0cf3 04       		.byte	0x4
 2376 0cf4 CB040000 		.long	0x4cb
 2377 0cf8 1F       		.uleb128 0x1f
 2378 0cf9 63684462 		.ascii "chDbgPanic\0"
 2378      6750616E 
 2378      696300
 2379 0d04 0A       		.byte	0xa
 2380 0d05 F6       		.byte	0xf6
 2381 0d06 1A0D0000 		.long	0xd1a
 2382 0d0a 20       		.uleb128 0x20
 2383 0d0b EF050000 		.long	0x5ef
 2384 0d0f 20       		.uleb128 0x20
 2385 0d10 1A0D0000 		.long	0xd1a
 2386 0d14 20       		.uleb128 0x20
 2387 0d15 01010000 		.long	0x101
 2388 0d19 00       		.byte	0
 2389 0d1a 08       		.uleb128 0x8
 2390 0d1b 04       		.byte	0x4
 2391 0d1c FA050000 		.long	0x5fa
 2392 0d20 21       		.uleb128 0x21
 2393 0d21 6462675F 		.ascii "dbg_check_lock\0"
 2393      63686563 
 2393      6B5F6C6F 
 2393      636B00
 2394 0d30 0A       		.byte	0xa
 2395 0d31 E7       		.byte	0xe7
 2396 0d32 1F       		.uleb128 0x1f
 2397 0d33 63685365 		.ascii "chSemResetI\0"
 2397      6D526573 
 2397      65744900 
 2398 0d3f 07       		.byte	0x7
 2399 0d40 37       		.byte	0x37
 2400 0d41 500D0000 		.long	0xd50
 2401 0d45 20       		.uleb128 0x20
 2402 0d46 F20C0000 		.long	0xcf2
 2403 0d4a 20       		.uleb128 0x20
 2404 0d4b 3C020000 		.long	0x23c
 2405 0d4f 00       		.byte	0
GAS LISTING /cygdrive/c/DOCUME~1/andrey/LOCALS~1/Temp/ccxtzNSu.s 			page 48


 2406 0d50 21       		.uleb128 0x21
 2407 0d51 63685363 		.ascii "chSchRescheduleS\0"
 2407      68526573 
 2407      63686564 
 2407      756C6553 
 2407      00
 2408 0d62 0B       		.byte	0xb
 2409 0d63 9C       		.byte	0x9c
 2410 0d64 21       		.uleb128 0x21
 2411 0d65 6462675F 		.ascii "dbg_check_unlock\0"
 2411      63686563 
 2411      6B5F756E 
 2411      6C6F636B 
 2411      00
 2412 0d76 0A       		.byte	0xa
 2413 0d77 E8       		.byte	0xe8
 2414 0d78 21       		.uleb128 0x21
 2415 0d79 63684462 		.ascii "chDbgCheckClassS\0"
 2415      67436865 
 2415      636B436C 
 2415      61737353 
 2415      00
 2416 0d8a 0A       		.byte	0xa
 2417 0d8b EE       		.byte	0xee
 2418 0d8c 22       		.uleb128 0x22
 2419 0d8d 63685365 		.ascii "chSemWaitTimeoutS\0"
 2419      6D576169 
 2419      7454696D 
 2419      656F7574 
 2419      5300
 2420 0d9f 07       		.byte	0x7
 2421 0da0 3B       		.byte	0x3b
 2422 0da1 0B020000 		.long	0x20b
 2423 0da5 B40D0000 		.long	0xdb4
 2424 0da9 20       		.uleb128 0x20
 2425 0daa F20C0000 		.long	0xcf2
 2426 0dae 20       		.uleb128 0x20
 2427 0daf 2B020000 		.long	0x22b
 2428 0db3 00       		.byte	0
 2429 0db4 1F       		.uleb128 0x1f
 2430 0db5 63685365 		.ascii "chSemSignalI\0"
 2430      6D536967 
 2430      6E616C49 
 2430      00
 2431 0dc2 07       		.byte	0x7
 2432 0dc3 3D       		.byte	0x3d
 2433 0dc4 CE0D0000 		.long	0xdce
 2434 0dc8 20       		.uleb128 0x20
 2435 0dc9 F20C0000 		.long	0xcf2
 2436 0dcd 00       		.byte	0
 2437 0dce 21       		.uleb128 0x21
 2438 0dcf 63684462 		.ascii "chDbgCheckClassI\0"
 2438      67436865 
 2438      636B436C 
 2438      61737349 
 2438      00
 2439 0de0 0A       		.byte	0xa
GAS LISTING /cygdrive/c/DOCUME~1/andrey/LOCALS~1/Temp/ccxtzNSu.s 			page 49


 2440 0de1 ED       		.byte	0xed
 2441 0de2 00       		.byte	0
 2442              		.section	.debug_abbrev,"dr"
 2443              	Ldebug_abbrev0:
 2444 0000 01       		.uleb128 0x1
 2445 0001 11       		.uleb128 0x11
 2446 0002 01       		.byte	0x1
 2447 0003 25       		.uleb128 0x25
 2448 0004 08       		.uleb128 0x8
 2449 0005 13       		.uleb128 0x13
 2450 0006 0B       		.uleb128 0xb
 2451 0007 03       		.uleb128 0x3
 2452 0008 08       		.uleb128 0x8
 2453 0009 1B       		.uleb128 0x1b
 2454 000a 08       		.uleb128 0x8
 2455 000b 11       		.uleb128 0x11
 2456 000c 01       		.uleb128 0x1
 2457 000d 12       		.uleb128 0x12
 2458 000e 06       		.uleb128 0x6
 2459 000f 10       		.uleb128 0x10
 2460 0010 17       		.uleb128 0x17
 2461 0011 00       		.byte	0
 2462 0012 00       		.byte	0
 2463 0013 02       		.uleb128 0x2
 2464 0014 24       		.uleb128 0x24
 2465 0015 00       		.byte	0
 2466 0016 0B       		.uleb128 0xb
 2467 0017 0B       		.uleb128 0xb
 2468 0018 3E       		.uleb128 0x3e
 2469 0019 0B       		.uleb128 0xb
 2470 001a 03       		.uleb128 0x3
 2471 001b 08       		.uleb128 0x8
 2472 001c 00       		.byte	0
 2473 001d 00       		.byte	0
 2474 001e 03       		.uleb128 0x3
 2475 001f 16       		.uleb128 0x16
 2476 0020 00       		.byte	0
 2477 0021 03       		.uleb128 0x3
 2478 0022 08       		.uleb128 0x8
 2479 0023 3A       		.uleb128 0x3a
 2480 0024 0B       		.uleb128 0xb
 2481 0025 3B       		.uleb128 0x3b
 2482 0026 0B       		.uleb128 0xb
 2483 0027 49       		.uleb128 0x49
 2484 0028 13       		.uleb128 0x13
 2485 0029 00       		.byte	0
 2486 002a 00       		.byte	0
 2487 002b 04       		.uleb128 0x4
 2488 002c 13       		.uleb128 0x13
 2489 002d 01       		.byte	0x1
 2490 002e 03       		.uleb128 0x3
 2491 002f 08       		.uleb128 0x8
 2492 0030 0B       		.uleb128 0xb
 2493 0031 0B       		.uleb128 0xb
 2494 0032 3A       		.uleb128 0x3a
 2495 0033 0B       		.uleb128 0xb
 2496 0034 3B       		.uleb128 0x3b
GAS LISTING /cygdrive/c/DOCUME~1/andrey/LOCALS~1/Temp/ccxtzNSu.s 			page 50


 2497 0035 0B       		.uleb128 0xb
 2498 0036 01       		.uleb128 0x1
 2499 0037 13       		.uleb128 0x13
 2500 0038 00       		.byte	0
 2501 0039 00       		.byte	0
 2502 003a 05       		.uleb128 0x5
 2503 003b 0D       		.uleb128 0xd
 2504 003c 00       		.byte	0
 2505 003d 03       		.uleb128 0x3
 2506 003e 0E       		.uleb128 0xe
 2507 003f 3A       		.uleb128 0x3a
 2508 0040 0B       		.uleb128 0xb
 2509 0041 3B       		.uleb128 0x3b
 2510 0042 0B       		.uleb128 0xb
 2511 0043 49       		.uleb128 0x49
 2512 0044 13       		.uleb128 0x13
 2513 0045 38       		.uleb128 0x38
 2514 0046 0B       		.uleb128 0xb
 2515 0047 00       		.byte	0
 2516 0048 00       		.byte	0
 2517 0049 06       		.uleb128 0x6
 2518 004a 0D       		.uleb128 0xd
 2519 004b 00       		.byte	0
 2520 004c 03       		.uleb128 0x3
 2521 004d 08       		.uleb128 0x8
 2522 004e 3A       		.uleb128 0x3a
 2523 004f 0B       		.uleb128 0xb
 2524 0050 3B       		.uleb128 0x3b
 2525 0051 0B       		.uleb128 0xb
 2526 0052 49       		.uleb128 0x49
 2527 0053 13       		.uleb128 0x13
 2528 0054 38       		.uleb128 0x38
 2529 0055 0B       		.uleb128 0xb
 2530 0056 00       		.byte	0
 2531 0057 00       		.byte	0
 2532 0058 07       		.uleb128 0x7
 2533 0059 13       		.uleb128 0x13
 2534 005a 01       		.byte	0x1
 2535 005b 0B       		.uleb128 0xb
 2536 005c 0B       		.uleb128 0xb
 2537 005d 3A       		.uleb128 0x3a
 2538 005e 0B       		.uleb128 0xb
 2539 005f 3B       		.uleb128 0x3b
 2540 0060 0B       		.uleb128 0xb
 2541 0061 01       		.uleb128 0x1
 2542 0062 13       		.uleb128 0x13
 2543 0063 00       		.byte	0
 2544 0064 00       		.byte	0
 2545 0065 08       		.uleb128 0x8
 2546 0066 0F       		.uleb128 0xf
 2547 0067 00       		.byte	0
 2548 0068 0B       		.uleb128 0xb
 2549 0069 0B       		.uleb128 0xb
 2550 006a 49       		.uleb128 0x49
 2551 006b 13       		.uleb128 0x13
 2552 006c 00       		.byte	0
 2553 006d 00       		.byte	0
GAS LISTING /cygdrive/c/DOCUME~1/andrey/LOCALS~1/Temp/ccxtzNSu.s 			page 51


 2554 006e 09       		.uleb128 0x9
 2555 006f 0F       		.uleb128 0xf
 2556 0070 00       		.byte	0
 2557 0071 0B       		.uleb128 0xb
 2558 0072 0B       		.uleb128 0xb
 2559 0073 00       		.byte	0
 2560 0074 00       		.byte	0
 2561 0075 0A       		.uleb128 0xa
 2562 0076 35       		.uleb128 0x35
 2563 0077 00       		.byte	0
 2564 0078 49       		.uleb128 0x49
 2565 0079 13       		.uleb128 0x13
 2566 007a 00       		.byte	0
 2567 007b 00       		.byte	0
 2568 007c 0B       		.uleb128 0xb
 2569 007d 13       		.uleb128 0x13
 2570 007e 01       		.byte	0x1
 2571 007f 03       		.uleb128 0x3
 2572 0080 0E       		.uleb128 0xe
 2573 0081 0B       		.uleb128 0xb
 2574 0082 0B       		.uleb128 0xb
 2575 0083 3A       		.uleb128 0x3a
 2576 0084 0B       		.uleb128 0xb
 2577 0085 3B       		.uleb128 0x3b
 2578 0086 0B       		.uleb128 0xb
 2579 0087 01       		.uleb128 0x1
 2580 0088 13       		.uleb128 0x13
 2581 0089 00       		.byte	0
 2582 008a 00       		.byte	0
 2583 008b 0C       		.uleb128 0xc
 2584 008c 16       		.uleb128 0x16
 2585 008d 00       		.byte	0
 2586 008e 03       		.uleb128 0x3
 2587 008f 0E       		.uleb128 0xe
 2588 0090 3A       		.uleb128 0x3a
 2589 0091 0B       		.uleb128 0xb
 2590 0092 3B       		.uleb128 0x3b
 2591 0093 0B       		.uleb128 0xb
 2592 0094 49       		.uleb128 0x49
 2593 0095 13       		.uleb128 0x13
 2594 0096 00       		.byte	0
 2595 0097 00       		.byte	0
 2596 0098 0D       		.uleb128 0xd
 2597 0099 17       		.uleb128 0x17
 2598 009a 01       		.byte	0x1
 2599 009b 0B       		.uleb128 0xb
 2600 009c 0B       		.uleb128 0xb
 2601 009d 3A       		.uleb128 0x3a
 2602 009e 0B       		.uleb128 0xb
 2603 009f 3B       		.uleb128 0x3b
 2604 00a0 0B       		.uleb128 0xb
 2605 00a1 01       		.uleb128 0x1
 2606 00a2 13       		.uleb128 0x13
 2607 00a3 00       		.byte	0
 2608 00a4 00       		.byte	0
 2609 00a5 0E       		.uleb128 0xe
 2610 00a6 0D       		.uleb128 0xd
GAS LISTING /cygdrive/c/DOCUME~1/andrey/LOCALS~1/Temp/ccxtzNSu.s 			page 52


 2611 00a7 00       		.byte	0
 2612 00a8 03       		.uleb128 0x3
 2613 00a9 0E       		.uleb128 0xe
 2614 00aa 3A       		.uleb128 0x3a
 2615 00ab 0B       		.uleb128 0xb
 2616 00ac 3B       		.uleb128 0x3b
 2617 00ad 0B       		.uleb128 0xb
 2618 00ae 49       		.uleb128 0x49
 2619 00af 13       		.uleb128 0x13
 2620 00b0 00       		.byte	0
 2621 00b1 00       		.byte	0
 2622 00b2 0F       		.uleb128 0xf
 2623 00b3 0D       		.uleb128 0xd
 2624 00b4 00       		.byte	0
 2625 00b5 03       		.uleb128 0x3
 2626 00b6 08       		.uleb128 0x8
 2627 00b7 3A       		.uleb128 0x3a
 2628 00b8 0B       		.uleb128 0xb
 2629 00b9 3B       		.uleb128 0x3b
 2630 00ba 0B       		.uleb128 0xb
 2631 00bb 49       		.uleb128 0x49
 2632 00bc 13       		.uleb128 0x13
 2633 00bd 00       		.byte	0
 2634 00be 00       		.byte	0
 2635 00bf 10       		.uleb128 0x10
 2636 00c0 26       		.uleb128 0x26
 2637 00c1 00       		.byte	0
 2638 00c2 49       		.uleb128 0x49
 2639 00c3 13       		.uleb128 0x13
 2640 00c4 00       		.byte	0
 2641 00c5 00       		.byte	0
 2642 00c6 11       		.uleb128 0x11
 2643 00c7 2E       		.uleb128 0x2e
 2644 00c8 01       		.byte	0x1
 2645 00c9 3F       		.uleb128 0x3f
 2646 00ca 19       		.uleb128 0x19
 2647 00cb 03       		.uleb128 0x3
 2648 00cc 08       		.uleb128 0x8
 2649 00cd 3A       		.uleb128 0x3a
 2650 00ce 0B       		.uleb128 0xb
 2651 00cf 3B       		.uleb128 0x3b
 2652 00d0 0B       		.uleb128 0xb
 2653 00d1 27       		.uleb128 0x27
 2654 00d2 19       		.uleb128 0x19
 2655 00d3 11       		.uleb128 0x11
 2656 00d4 01       		.uleb128 0x1
 2657 00d5 12       		.uleb128 0x12
 2658 00d6 06       		.uleb128 0x6
 2659 00d7 40       		.uleb128 0x40
 2660 00d8 18       		.uleb128 0x18
 2661 00d9 9742     		.uleb128 0x2117
 2662 00db 19       		.uleb128 0x19
 2663 00dc 01       		.uleb128 0x1
 2664 00dd 13       		.uleb128 0x13
 2665 00de 00       		.byte	0
 2666 00df 00       		.byte	0
 2667 00e0 12       		.uleb128 0x12
GAS LISTING /cygdrive/c/DOCUME~1/andrey/LOCALS~1/Temp/ccxtzNSu.s 			page 53


 2668 00e1 05       		.uleb128 0x5
 2669 00e2 00       		.byte	0
 2670 00e3 03       		.uleb128 0x3
 2671 00e4 08       		.uleb128 0x8
 2672 00e5 3A       		.uleb128 0x3a
 2673 00e6 0B       		.uleb128 0xb
 2674 00e7 3B       		.uleb128 0x3b
 2675 00e8 0B       		.uleb128 0xb
 2676 00e9 49       		.uleb128 0x49
 2677 00ea 13       		.uleb128 0x13
 2678 00eb 02       		.uleb128 0x2
 2679 00ec 18       		.uleb128 0x18
 2680 00ed 00       		.byte	0
 2681 00ee 00       		.byte	0
 2682 00ef 13       		.uleb128 0x13
 2683 00f0 898201   		.uleb128 0x4109
 2684 00f3 01       		.byte	0x1
 2685 00f4 11       		.uleb128 0x11
 2686 00f5 01       		.uleb128 0x1
 2687 00f6 31       		.uleb128 0x31
 2688 00f7 13       		.uleb128 0x13
 2689 00f8 01       		.uleb128 0x1
 2690 00f9 13       		.uleb128 0x13
 2691 00fa 00       		.byte	0
 2692 00fb 00       		.byte	0
 2693 00fc 14       		.uleb128 0x14
 2694 00fd 8A8201   		.uleb128 0x410a
 2695 0100 00       		.byte	0
 2696 0101 02       		.uleb128 0x2
 2697 0102 18       		.uleb128 0x18
 2698 0103 9142     		.uleb128 0x2111
 2699 0105 18       		.uleb128 0x18
 2700 0106 00       		.byte	0
 2701 0107 00       		.byte	0
 2702 0108 15       		.uleb128 0x15
 2703 0109 898201   		.uleb128 0x4109
 2704 010c 00       		.byte	0
 2705 010d 11       		.uleb128 0x11
 2706 010e 01       		.uleb128 0x1
 2707 010f 9542     		.uleb128 0x2115
 2708 0111 19       		.uleb128 0x19
 2709 0112 31       		.uleb128 0x31
 2710 0113 13       		.uleb128 0x13
 2711 0114 00       		.byte	0
 2712 0115 00       		.byte	0
 2713 0116 16       		.uleb128 0x16
 2714 0117 898201   		.uleb128 0x4109
 2715 011a 01       		.byte	0x1
 2716 011b 11       		.uleb128 0x11
 2717 011c 01       		.uleb128 0x1
 2718 011d 31       		.uleb128 0x31
 2719 011e 13       		.uleb128 0x13
 2720 011f 00       		.byte	0
 2721 0120 00       		.byte	0
 2722 0121 17       		.uleb128 0x17
 2723 0122 898201   		.uleb128 0x4109
 2724 0125 00       		.byte	0
GAS LISTING /cygdrive/c/DOCUME~1/andrey/LOCALS~1/Temp/ccxtzNSu.s 			page 54


 2725 0126 11       		.uleb128 0x11
 2726 0127 01       		.uleb128 0x1
 2727 0128 31       		.uleb128 0x31
 2728 0129 13       		.uleb128 0x13
 2729 012a 00       		.byte	0
 2730 012b 00       		.byte	0
 2731 012c 18       		.uleb128 0x18
 2732 012d 2E       		.uleb128 0x2e
 2733 012e 01       		.byte	0x1
 2734 012f 3F       		.uleb128 0x3f
 2735 0130 19       		.uleb128 0x19
 2736 0131 03       		.uleb128 0x3
 2737 0132 08       		.uleb128 0x8
 2738 0133 3A       		.uleb128 0x3a
 2739 0134 0B       		.uleb128 0xb
 2740 0135 3B       		.uleb128 0x3b
 2741 0136 0B       		.uleb128 0xb
 2742 0137 27       		.uleb128 0x27
 2743 0138 19       		.uleb128 0x19
 2744 0139 49       		.uleb128 0x49
 2745 013a 13       		.uleb128 0x13
 2746 013b 11       		.uleb128 0x11
 2747 013c 01       		.uleb128 0x1
 2748 013d 12       		.uleb128 0x12
 2749 013e 06       		.uleb128 0x6
 2750 013f 40       		.uleb128 0x40
 2751 0140 18       		.uleb128 0x18
 2752 0141 9742     		.uleb128 0x2117
 2753 0143 19       		.uleb128 0x19
 2754 0144 01       		.uleb128 0x1
 2755 0145 13       		.uleb128 0x13
 2756 0146 00       		.byte	0
 2757 0147 00       		.byte	0
 2758 0148 19       		.uleb128 0x19
 2759 0149 05       		.uleb128 0x5
 2760 014a 00       		.byte	0
 2761 014b 03       		.uleb128 0x3
 2762 014c 0E       		.uleb128 0xe
 2763 014d 3A       		.uleb128 0x3a
 2764 014e 0B       		.uleb128 0xb
 2765 014f 3B       		.uleb128 0x3b
 2766 0150 0B       		.uleb128 0xb
 2767 0151 49       		.uleb128 0x49
 2768 0152 13       		.uleb128 0x13
 2769 0153 02       		.uleb128 0x2
 2770 0154 18       		.uleb128 0x18
 2771 0155 00       		.byte	0
 2772 0156 00       		.byte	0
 2773 0157 1A       		.uleb128 0x1a
 2774 0158 34       		.uleb128 0x34
 2775 0159 00       		.byte	0
 2776 015a 03       		.uleb128 0x3
 2777 015b 0E       		.uleb128 0xe
 2778 015c 3A       		.uleb128 0x3a
 2779 015d 0B       		.uleb128 0xb
 2780 015e 3B       		.uleb128 0x3b
 2781 015f 0B       		.uleb128 0xb
GAS LISTING /cygdrive/c/DOCUME~1/andrey/LOCALS~1/Temp/ccxtzNSu.s 			page 55


 2782 0160 49       		.uleb128 0x49
 2783 0161 13       		.uleb128 0x13
 2784 0162 02       		.uleb128 0x2
 2785 0163 17       		.uleb128 0x17
 2786 0164 00       		.byte	0
 2787 0165 00       		.byte	0
 2788 0166 1B       		.uleb128 0x1b
 2789 0167 2E       		.uleb128 0x2e
 2790 0168 01       		.byte	0x1
 2791 0169 3F       		.uleb128 0x3f
 2792 016a 19       		.uleb128 0x19
 2793 016b 03       		.uleb128 0x3
 2794 016c 08       		.uleb128 0x8
 2795 016d 3A       		.uleb128 0x3a
 2796 016e 0B       		.uleb128 0xb
 2797 016f 3B       		.uleb128 0x3b
 2798 0170 05       		.uleb128 0x5
 2799 0171 27       		.uleb128 0x27
 2800 0172 19       		.uleb128 0x19
 2801 0173 49       		.uleb128 0x49
 2802 0174 13       		.uleb128 0x13
 2803 0175 11       		.uleb128 0x11
 2804 0176 01       		.uleb128 0x1
 2805 0177 12       		.uleb128 0x12
 2806 0178 06       		.uleb128 0x6
 2807 0179 40       		.uleb128 0x40
 2808 017a 18       		.uleb128 0x18
 2809 017b 9742     		.uleb128 0x2117
 2810 017d 19       		.uleb128 0x19
 2811 017e 01       		.uleb128 0x1
 2812 017f 13       		.uleb128 0x13
 2813 0180 00       		.byte	0
 2814 0181 00       		.byte	0
 2815 0182 1C       		.uleb128 0x1c
 2816 0183 05       		.uleb128 0x5
 2817 0184 00       		.byte	0
 2818 0185 03       		.uleb128 0x3
 2819 0186 08       		.uleb128 0x8
 2820 0187 3A       		.uleb128 0x3a
 2821 0188 0B       		.uleb128 0xb
 2822 0189 3B       		.uleb128 0x3b
 2823 018a 05       		.uleb128 0x5
 2824 018b 49       		.uleb128 0x49
 2825 018c 13       		.uleb128 0x13
 2826 018d 02       		.uleb128 0x2
 2827 018e 18       		.uleb128 0x18
 2828 018f 00       		.byte	0
 2829 0190 00       		.byte	0
 2830 0191 1D       		.uleb128 0x1d
 2831 0192 05       		.uleb128 0x5
 2832 0193 00       		.byte	0
 2833 0194 03       		.uleb128 0x3
 2834 0195 0E       		.uleb128 0xe
 2835 0196 3A       		.uleb128 0x3a
 2836 0197 0B       		.uleb128 0xb
 2837 0198 3B       		.uleb128 0x3b
 2838 0199 05       		.uleb128 0x5
GAS LISTING /cygdrive/c/DOCUME~1/andrey/LOCALS~1/Temp/ccxtzNSu.s 			page 56


 2839 019a 49       		.uleb128 0x49
 2840 019b 13       		.uleb128 0x13
 2841 019c 02       		.uleb128 0x2
 2842 019d 18       		.uleb128 0x18
 2843 019e 00       		.byte	0
 2844 019f 00       		.byte	0
 2845 01a0 1E       		.uleb128 0x1e
 2846 01a1 34       		.uleb128 0x34
 2847 01a2 00       		.byte	0
 2848 01a3 03       		.uleb128 0x3
 2849 01a4 0E       		.uleb128 0xe
 2850 01a5 3A       		.uleb128 0x3a
 2851 01a6 0B       		.uleb128 0xb
 2852 01a7 3B       		.uleb128 0x3b
 2853 01a8 05       		.uleb128 0x5
 2854 01a9 49       		.uleb128 0x49
 2855 01aa 13       		.uleb128 0x13
 2856 01ab 02       		.uleb128 0x2
 2857 01ac 17       		.uleb128 0x17
 2858 01ad 00       		.byte	0
 2859 01ae 00       		.byte	0
 2860 01af 1F       		.uleb128 0x1f
 2861 01b0 2E       		.uleb128 0x2e
 2862 01b1 01       		.byte	0x1
 2863 01b2 3F       		.uleb128 0x3f
 2864 01b3 19       		.uleb128 0x19
 2865 01b4 03       		.uleb128 0x3
 2866 01b5 08       		.uleb128 0x8
 2867 01b6 3A       		.uleb128 0x3a
 2868 01b7 0B       		.uleb128 0xb
 2869 01b8 3B       		.uleb128 0x3b
 2870 01b9 0B       		.uleb128 0xb
 2871 01ba 27       		.uleb128 0x27
 2872 01bb 19       		.uleb128 0x19
 2873 01bc 3C       		.uleb128 0x3c
 2874 01bd 19       		.uleb128 0x19
 2875 01be 01       		.uleb128 0x1
 2876 01bf 13       		.uleb128 0x13
 2877 01c0 00       		.byte	0
 2878 01c1 00       		.byte	0
 2879 01c2 20       		.uleb128 0x20
 2880 01c3 05       		.uleb128 0x5
 2881 01c4 00       		.byte	0
 2882 01c5 49       		.uleb128 0x49
 2883 01c6 13       		.uleb128 0x13
 2884 01c7 00       		.byte	0
 2885 01c8 00       		.byte	0
 2886 01c9 21       		.uleb128 0x21
 2887 01ca 2E       		.uleb128 0x2e
 2888 01cb 00       		.byte	0
 2889 01cc 3F       		.uleb128 0x3f
 2890 01cd 19       		.uleb128 0x19
 2891 01ce 03       		.uleb128 0x3
 2892 01cf 08       		.uleb128 0x8
 2893 01d0 3A       		.uleb128 0x3a
 2894 01d1 0B       		.uleb128 0xb
 2895 01d2 3B       		.uleb128 0x3b
GAS LISTING /cygdrive/c/DOCUME~1/andrey/LOCALS~1/Temp/ccxtzNSu.s 			page 57


 2896 01d3 0B       		.uleb128 0xb
 2897 01d4 27       		.uleb128 0x27
 2898 01d5 19       		.uleb128 0x19
 2899 01d6 3C       		.uleb128 0x3c
 2900 01d7 19       		.uleb128 0x19
 2901 01d8 00       		.byte	0
 2902 01d9 00       		.byte	0
 2903 01da 22       		.uleb128 0x22
 2904 01db 2E       		.uleb128 0x2e
 2905 01dc 01       		.byte	0x1
 2906 01dd 3F       		.uleb128 0x3f
 2907 01de 19       		.uleb128 0x19
 2908 01df 03       		.uleb128 0x3
 2909 01e0 08       		.uleb128 0x8
 2910 01e1 3A       		.uleb128 0x3a
 2911 01e2 0B       		.uleb128 0xb
 2912 01e3 3B       		.uleb128 0x3b
 2913 01e4 0B       		.uleb128 0xb
 2914 01e5 27       		.uleb128 0x27
 2915 01e6 19       		.uleb128 0x19
 2916 01e7 49       		.uleb128 0x49
 2917 01e8 13       		.uleb128 0x13
 2918 01e9 3C       		.uleb128 0x3c
 2919 01ea 19       		.uleb128 0x19
 2920 01eb 01       		.uleb128 0x1
 2921 01ec 13       		.uleb128 0x13
 2922 01ed 00       		.byte	0
 2923 01ee 00       		.byte	0
 2924 01ef 00       		.byte	0
 2925              		.section	.debug_loc,"dr"
 2926              	Ldebug_loc0:
 2927              	LLST0:
 2928 0000 25010000 		.long	LVL13-Ltext0
 2929 0004 4B010000 		.long	LVL14-1-Ltext0
 2930 0008 0100     		.word	0x1
 2931 000a 50       		.byte	0x50
 2932 000b 4B010000 		.long	LVL14-1-Ltext0
 2933 000f 55010000 		.long	LVL16-Ltext0
 2934 0013 0200     		.word	0x2
 2935 0015 91       		.byte	0x91
 2936 0016 6C       		.sleb128 -20
 2937 0017 5B010000 		.long	LVL17-Ltext0
 2938 001b 67010000 		.long	LVL18-Ltext0
 2939 001f 0100     		.word	0x1
 2940 0021 50       		.byte	0x50
 2941 0022 00000000 		.long	0
 2942 0026 00000000 		.long	0
 2943              	LLST1:
 2944 002a B8010000 		.long	LVL23-Ltext0
 2945 002e BC010000 		.long	LVL24-1-Ltext0
 2946 0032 0100     		.word	0x1
 2947 0034 50       		.byte	0x50
 2948 0035 BC010000 		.long	LVL24-1-Ltext0
 2949 0039 C4010000 		.long	LVL25-Ltext0
 2950 003d 0100     		.word	0x1
 2951 003f 53       		.byte	0x53
 2952 0040 C4010000 		.long	LVL25-Ltext0
GAS LISTING /cygdrive/c/DOCUME~1/andrey/LOCALS~1/Temp/ccxtzNSu.s 			page 58


 2953 0044 C5010000 		.long	LFE9-Ltext0
 2954 0048 0100     		.word	0x1
 2955 004a 50       		.byte	0x50
 2956 004b 00000000 		.long	0
 2957 004f 00000000 		.long	0
 2958              	LLST2:
 2959 0053 74020000 		.long	LVL32-Ltext0
 2960 0057 99020000 		.long	LVL33-1-Ltext0
 2961 005b 0100     		.word	0x1
 2962 005d 50       		.byte	0x50
 2963 005e 99020000 		.long	LVL33-1-Ltext0
 2964 0062 A3020000 		.long	LVL35-Ltext0
 2965 0066 0200     		.word	0x2
 2966 0068 91       		.byte	0x91
 2967 0069 6C       		.sleb128 -20
 2968 006a A8020000 		.long	LVL36-Ltext0
 2969 006e B3020000 		.long	LVL37-Ltext0
 2970 0072 0100     		.word	0x1
 2971 0074 50       		.byte	0x50
 2972 0075 00000000 		.long	0
 2973 0079 00000000 		.long	0
 2974              	LLST3:
 2975 007d 08030000 		.long	LVL42-Ltext0
 2976 0081 0C030000 		.long	LVL43-1-Ltext0
 2977 0085 0100     		.word	0x1
 2978 0087 50       		.byte	0x50
 2979 0088 0C030000 		.long	LVL43-1-Ltext0
 2980 008c 14030000 		.long	LVL44-Ltext0
 2981 0090 0100     		.word	0x1
 2982 0092 53       		.byte	0x53
 2983 0093 14030000 		.long	LVL44-Ltext0
 2984 0097 15030000 		.long	LFE12-Ltext0
 2985 009b 0100     		.word	0x1
 2986 009d 50       		.byte	0x50
 2987 009e 00000000 		.long	0
 2988 00a2 00000000 		.long	0
 2989              	LLST4:
 2990 00a6 CD030000 		.long	LVL51-Ltext0
 2991 00aa F1030000 		.long	LVL52-1-Ltext0
 2992 00ae 0100     		.word	0x1
 2993 00b0 50       		.byte	0x50
 2994 00b1 F1030000 		.long	LVL52-1-Ltext0
 2995 00b5 FB030000 		.long	LVL54-Ltext0
 2996 00b9 0200     		.word	0x2
 2997 00bb 91       		.byte	0x91
 2998 00bc 6C       		.sleb128 -20
 2999 00bd 01040000 		.long	LVL55-Ltext0
 3000 00c1 08040000 		.long	LVL56-Ltext0
 3001 00c5 0100     		.word	0x1
 3002 00c7 50       		.byte	0x50
 3003 00c8 00000000 		.long	0
 3004 00cc 00000000 		.long	0
 3005              	LLST5:
 3006 00d0 58040000 		.long	LVL61-Ltext0
 3007 00d4 5C040000 		.long	LVL62-1-Ltext0
 3008 00d8 0100     		.word	0x1
 3009 00da 50       		.byte	0x50
GAS LISTING /cygdrive/c/DOCUME~1/andrey/LOCALS~1/Temp/ccxtzNSu.s 			page 59


 3010 00db 5C040000 		.long	LVL62-1-Ltext0
 3011 00df 64040000 		.long	LVL63-Ltext0
 3012 00e3 0100     		.word	0x1
 3013 00e5 53       		.byte	0x53
 3014 00e6 64040000 		.long	LVL63-Ltext0
 3015 00ea 65040000 		.long	LFE15-Ltext0
 3016 00ee 0100     		.word	0x1
 3017 00f0 50       		.byte	0x50
 3018 00f1 00000000 		.long	0
 3019 00f5 00000000 		.long	0
 3020              		.section	.debug_aranges,"dr"
 3021 0000 1C000000 		.long	0x1c
 3022 0004 0200     		.word	0x2
 3023 0006 00000000 		.secrel32	Ldebug_info0
 3024 000a 04       		.byte	0x4
 3025 000b 00       		.byte	0
 3026 000c 0000     		.word	0
 3027 000e 0000     		.word	0
 3028 0010 00000000 		.long	Ltext0
 3029 0014 EC040000 		.long	Letext0-Ltext0
 3030 0018 00000000 		.long	0
 3031 001c 00000000 		.long	0
 3032              		.section	.debug_line,"dr"
 3033              	Ldebug_line0:
 3034 0000 1E020000 		.section	.debug_str,"dr"
 3034      02001D01 
 3034      00000101 
 3034      FB0E0D00 
 3034      01010101 
 3035              	LASF3:
 3036 0000 74696D65 		.ascii "time\0"
 3036      00
 3037              	LASF1:
 3038 0005 53656D61 		.ascii "Semaphore\0"
 3038      70686F72 
 3038      6500
 3039              	LASF2:
 3040 000f 7264796D 		.ascii "rdymsg\0"
 3040      736700
 3041              	LASF0:
 3042 0016 705F6E65 		.ascii "p_next\0"
 3042      787400
 3043              		.ident	"GCC: (GNU) 4.8.2"
 3044              		.def	_chSemInit;	.scl	2;	.type	32;	.endef
 3045              		.def	_chDbgPanic;	.scl	2;	.type	32;	.endef
 3046              		.def	_dbg_check_lock;	.scl	2;	.type	32;	.endef
 3047              		.def	_chSemResetI;	.scl	2;	.type	32;	.endef
 3048              		.def	_chSchRescheduleS;	.scl	2;	.type	32;	.endef
 3049              		.def	_dbg_check_unlock;	.scl	2;	.type	32;	.endef
 3050              		.def	_chDbgCheckClassS;	.scl	2;	.type	32;	.endef
 3051              		.def	_chSemWaitTimeoutS;	.scl	2;	.type	32;	.endef
 3052              		.def	_chSemSignalI;	.scl	2;	.type	32;	.endef
 3053              		.def	_chDbgCheckClassI;	.scl	2;	.type	32;	.endef
GAS LISTING /cygdrive/c/DOCUME~1/andrey/LOCALS~1/Temp/ccxtzNSu.s 			page 60


DEFINED SYMBOLS
                            *ABS*:00000000 chmboxes.c
/cygdrive/c/DOCUME~1/andrey/LOCALS~1/Temp/ccxtzNSu.s:77     .text:00000000 _chMBInit
/cygdrive/c/DOCUME~1/andrey/LOCALS~1/Temp/ccxtzNSu.s:161    .text:00000080 _chMBReset
/cygdrive/c/DOCUME~1/andrey/LOCALS~1/Temp/ccxtzNSu.s:249    .text:00000100 _chMBPostS
/cygdrive/c/DOCUME~1/andrey/LOCALS~1/Temp/ccxtzNSu.s:339    .text:00000190 _chMBPost
/cygdrive/c/DOCUME~1/andrey/LOCALS~1/Temp/ccxtzNSu.s:394    .text:000001d0 _chMBPostI
/cygdrive/c/DOCUME~1/andrey/LOCALS~1/Temp/ccxtzNSu.s:481    .text:00000250 _chMBPostAheadS
/cygdrive/c/DOCUME~1/andrey/LOCALS~1/Temp/ccxtzNSu.s:566    .text:000002e0 _chMBPostAhead
/cygdrive/c/DOCUME~1/andrey/LOCALS~1/Temp/ccxtzNSu.s:621    .text:00000320 _chMBPostAheadI
/cygdrive/c/DOCUME~1/andrey/LOCALS~1/Temp/ccxtzNSu.s:706    .text:000003a0 _chMBFetchS
/cygdrive/c/DOCUME~1/andrey/LOCALS~1/Temp/ccxtzNSu.s:799    .text:00000430 _chMBFetch
/cygdrive/c/DOCUME~1/andrey/LOCALS~1/Temp/ccxtzNSu.s:854    .text:00000470 _chMBFetchI

UNDEFINED SYMBOLS
_chSemInit
_chDbgPanic
_dbg_check_lock
_chSemResetI
_chSchRescheduleS
_dbg_check_unlock
_chDbgCheckClassS
_chSemWaitTimeoutS
_chSemSignalI
_chDbgCheckClassI
