GAS LISTING /cygdrive/c/DOCUME~1/andrey/LOCALS~1/Temp/ccIj26Ni.s 			page 1


   1              		.file	"chmsg.c"
   2              	 # GNU C (GCC) version 4.8.2 (i686-pc-cygwin)
   3              	 #	compiled by GNU C version 4.8.2, GMP version 5.1.3, MPFR version 3.1.2, MPC version 1.0.1
   4              	 # GGC heuristics: --param ggc-min-expand=100 --param ggc-min-heapsize=131072
   5              	 # options passed:  -I . -I ../firmware/chibios/os/ports/GCC/SIMIA32
   6              	 # -I ../firmware/chibios/os/kernel/include
   7              	 # -I ../firmware/chibios/os/hal/include
   8              	 # -I ../firmware/chibios/os/hal/platforms/Win32
   9              	 # -I ../firmware/chibios/boards/simulator -I ../firmware/util
  10              	 # -I ../firmware/console -I ../firmware/console_util
  11              	 # -I ../firmware/config/engines -I ../firmware/ext_algo
  12              	 # -I ../firmware/controllers/sensors -I ../firmware/controllers/system
  13              	 # -I ../firmware/controllers/algo -I ../firmware/controllers/math
  14              	 # -I ../firmware/controllers/trigger -I ../firmware/chibios/os/various
  15              	 # -MD ../firmware/chibios/os/kernel/src/chmsg.d -MF .dep/chmsg.o.d -MP
  16              	 # -MQ ../firmware/chibios/os/kernel/src/chmsg.o -Dunix
  17              	 # -idirafter /usr/lib/gcc/i686-pc-cygwin/4.8.2/../../../../include/w32api
  18              	 # -idirafter ../../include/w32api -D SIMULATOR -D SHELL_USE_IPRINTF=FALSE
  19              	 # ../firmware/chibios/os/kernel/src/chmsg.c -mtune=generic -march=i686
  20              	 # -auxbase-strip ../firmware/chibios/os/kernel/src/chmsg.o -ggdb -O2 -Wall
  21              	 # -Wextra -Wstrict-prototypes -std=gnu99 -fomit-frame-pointer
  22              	 # -fgnu89-inline -fverbose-asm
  23              	 # options enabled:  -faggressive-loop-optimizations
  24              	 # -fasynchronous-unwind-tables -fauto-inc-dec -fbranch-count-reg
  25              	 # -fcaller-saves -fcombine-stack-adjustments -fcommon -fcompare-elim
  26              	 # -fcprop-registers -fcrossjumping -fcse-follow-jumps -fdefer-pop
  27              	 # -fdelete-null-pointer-checks -fdevirtualize -fdwarf2-cfi-asm
  28              	 # -fearly-inlining -feliminate-unused-debug-types
  29              	 # -fexpensive-optimizations -fforward-propagate -ffunction-cse -fgcse
  30              	 # -fgcse-lm -fgnu-runtime -fguess-branch-probability
  31              	 # -fhoist-adjacent-loads -fident -fif-conversion -fif-conversion2
  32              	 # -findirect-inlining -finline -finline-atomics
  33              	 # -finline-functions-called-once -finline-small-functions -fipa-cp
  34              	 # -fipa-profile -fipa-pure-const -fipa-reference -fipa-sra
  35              	 # -fira-hoist-pressure -fira-share-save-slots -fira-share-spill-slots
  36              	 # -fivopts -fkeep-inline-dllexport -fkeep-static-consts
  37              	 # -fleading-underscore -fmath-errno -fmerge-constants
  38              	 # -fmerge-debug-strings -fmove-loop-invariants -fomit-frame-pointer
  39              	 # -foptimize-register-move -foptimize-sibling-calls -foptimize-strlen
  40              	 # -fpartial-inlining -fpeephole -fpeephole2 -fprefetch-loop-arrays -free
  41              	 # -freg-struct-return -fregmove -freorder-blocks -freorder-functions
  42              	 # -frerun-cse-after-loop -fsched-critical-path-heuristic
  43              	 # -fsched-dep-count-heuristic -fsched-group-heuristic -fsched-interblock
  44              	 # -fsched-last-insn-heuristic -fsched-rank-heuristic -fsched-spec
  45              	 # -fsched-spec-insn-heuristic -fsched-stalled-insns-dep -fschedule-insns2
  46              	 # -fset-stack-executable -fshow-column -fshrink-wrap -fsigned-zeros
  47              	 # -fsplit-ivs-in-unroller -fsplit-wide-types -fstrict-aliasing
  48              	 # -fstrict-overflow -fstrict-volatile-bitfields -fsync-libcalls
  49              	 # -fthread-jumps -ftoplevel-reorder -ftrapping-math -ftree-bit-ccp
  50              	 # -ftree-builtin-call-dce -ftree-ccp -ftree-ch -ftree-coalesce-vars
  51              	 # -ftree-copy-prop -ftree-copyrename -ftree-cselim -ftree-dce
  52              	 # -ftree-dominator-opts -ftree-dse -ftree-forwprop -ftree-fre
  53              	 # -ftree-loop-if-convert -ftree-loop-im -ftree-loop-ivcanon
  54              	 # -ftree-loop-optimize -ftree-parallelize-loops= -ftree-phiprop -ftree-pre
  55              	 # -ftree-pta -ftree-reassoc -ftree-scev-cprop -ftree-sink
  56              	 # -ftree-slp-vectorize -ftree-slsr -ftree-sra -ftree-switch-conversion
  57              	 # -ftree-tail-merge -ftree-ter -ftree-vect-loop-version -ftree-vrp
GAS LISTING /cygdrive/c/DOCUME~1/andrey/LOCALS~1/Temp/ccIj26Ni.s 			page 2


  58              	 # -funit-at-a-time -funwind-tables -fvar-tracking
  59              	 # -fvar-tracking-assignments -fverbose-asm -fzero-initialized-in-bss -m32
  60              	 # -m80387 -m96bit-long-double -maccumulate-outgoing-args -malign-double
  61              	 # -malign-stringops -mfancy-math-387 -mfp-ret-in-387 -mieee-fp
  62              	 # -mlong-double-80 -mno-red-zone -mno-sse4 -mpush-args -msahf
  63              	 # -mstack-arg-probe
  64              	
  65              		.text
  66              	Ltext0:
  67              		.section .rdata,"dr"
  68              		.align 4
  69              	LC0:
  70 0000 2E2E2F66 		.ascii "../firmware/chibios/os/kernel/src/chmsg.c\0"
  70      69726D77 
  70      6172652F 
  70      63686962 
  70      696F732F 
  71              	LC1:
  72 002a 2263684D 		.ascii "\"chMsgSend\"()\0"
  72      73675365 
  72      6E642228 
  72      2900
  73              		.text
  74              		.p2align 4,,15
  75              		.globl	_chMsgSend
  76              		.def	_chMsgSend;	.scl	2;	.type	32;	.endef
  77              	_chMsgSend:
  78              	LFB7:
  79              		.file 1 "../firmware/chibios/os/kernel/src/chmsg.c"
  80              		.loc 1 75 0
  81              		.cfi_startproc
  82              	LVL0:
  83 0000 56       		pushl	%esi	 #
  84              		.cfi_def_cfa_offset 8
  85              		.cfi_offset 6, -8
  86 0001 53       		pushl	%ebx	 #
  87              		.cfi_def_cfa_offset 12
  88              		.cfi_offset 3, -12
  89 0002 83EC14   		subl	$20, %esp	 #,
  90              		.cfi_def_cfa_offset 32
  91              		.loc 1 76 0
  92 0005 8B1D1800 		movl	_rlist+24, %ebx	 # rlist.r_current, ctp
  92      0000
  93              	LVL1:
  94              		.loc 1 75 0
  95 000b 8B742420 		movl	32(%esp), %esi	 # tp, tp
  96              		.loc 1 78 0
  97 000f 85F6     		testl	%esi, %esi	 # tp
  98 0011 744D     		je	L6	 #,
  99              	L2:
 100              		.loc 1 80 0
 101              	/APP
 102              	 # 80 "../firmware/chibios/os/kernel/src/chmsg.c" 1
 103 0013 90       		nop
 104              	 # 0 "" 2
 105              	/NO_APP
 106 0014 E8000000 		call	_dbg_check_lock	 #
GAS LISTING /cygdrive/c/DOCUME~1/andrey/LOCALS~1/Temp/ccIj26Ni.s 			page 3


 106      00
 107              	LVL2:
 108              		.loc 1 81 0
 109 0019 8B442424 		movl	36(%esp), %eax	 # msg, msg
 110              		.loc 1 84 0
 111 001d 807E1C0C 		cmpb	$12, 28(%esi)	 #, tp_5(D)->p_state
 112              		.loc 1 81 0
 113 0021 894334   		movl	%eax, 52(%ebx)	 # msg, ctp_4->p_msg
 114              		.loc 1 82 0
 115 0024 8D462C   		leal	44(%esi), %eax	 #, D.2075
 116 0027 894324   		movl	%eax, 36(%ebx)	 # D.2075, ctp_4->p_u.wtobjp
 117              	LVL3:
 118              	LBB6:
 119              	LBB7:
 120              		.file 2 "../firmware/chibios/os/kernel/include/chinline.h"
 121              		.loc 2 54 0
 122 002a 8903     		movl	%eax, (%ebx)	 # D.2075, ctp_4->p_next
 123              		.loc 2 55 0
 124 002c 8B4630   		movl	48(%esi), %eax	 # MEM[(struct ThreadsQueue *)tp_5(D) + 44B].p_prev, D.2077
 125              	LVL4:
 126 002f 894304   		movl	%eax, 4(%ebx)	 # D.2077, ctp_4->p_prev
 127              		.loc 2 56 0
 128 0032 895E30   		movl	%ebx, 48(%esi)	 # ctp, MEM[(struct ThreadsQueue *)tp_5(D) + 44B].p_prev
 129 0035 8918     		movl	%ebx, (%eax)	 # ctp, _18->p_next
 130              	LVL5:
 131              	LBE7:
 132              	LBE6:
 133              		.loc 1 84 0
 134 0037 741D     		je	L7	 #,
 135              	L3:
 136              		.loc 1 86 0
 137 0039 C704240A 		movl	$10, (%esp)	 #,
 137      000000
 138 0040 E8000000 		call	_chSchGoSleepS	 #
 138      00
 139              	LVL6:
 140              		.loc 1 87 0
 141 0045 8B5B24   		movl	36(%ebx), %ebx	 # ctp_4->p_u.rdymsg, msg
 142              	LVL7:
 143              		.loc 1 88 0
 144 0048 E8000000 		call	_dbg_check_unlock	 #
 144      00
 145              	LVL8:
 146              	/APP
 147              	 # 88 "../firmware/chibios/os/kernel/src/chmsg.c" 1
 148 004d 90       		nop
 149              	 # 0 "" 2
 150              		.loc 1 90 0
 151              	/NO_APP
 152 004e 83C414   		addl	$20, %esp	 #,
 153              		.cfi_remember_state
 154              		.cfi_def_cfa_offset 12
 155 0051 89D8     		movl	%ebx, %eax	 # msg,
 156 0053 5B       		popl	%ebx	 #
 157              		.cfi_restore 3
 158              		.cfi_def_cfa_offset 8
 159              	LVL9:
GAS LISTING /cygdrive/c/DOCUME~1/andrey/LOCALS~1/Temp/ccIj26Ni.s 			page 4


 160 0054 5E       		popl	%esi	 #
 161              		.cfi_restore 6
 162              		.cfi_def_cfa_offset 4
 163              	LVL10:
 164 0055 C3       		ret
 165              	LVL11:
 166              		.p2align 4,,7
 167              	L7:
 168              		.cfi_restore_state
 169              		.loc 1 85 0
 170 0056 893424   		movl	%esi, (%esp)	 # tp,
 171 0059 E8000000 		call	_chSchReadyI	 #
 171      00
 172              	LVL12:
 173 005e EBD9     		jmp	L3	 #
 174              	LVL13:
 175              		.p2align 4,,7
 176              	L6:
 177              		.loc 1 78 0 discriminator 1
 178 0060 C7442408 		movl	$78, 8(%esp)	 #,
 178      4E000000 
 179 0068 C7442404 		movl	$LC0, 4(%esp)	 #,
 179      00000000 
 180 0070 C704242A 		movl	$LC1, (%esp)	 #,
 180      000000
 181 0077 E8000000 		call	_chDbgPanic	 #
 181      00
 182              	LVL14:
 183 007c EB95     		jmp	L2	 #
 184              		.cfi_endproc
 185              	LFE7:
 186 007e 6690     		.p2align 4,,15
 187              		.globl	_chMsgWait
 188              		.def	_chMsgWait;	.scl	2;	.type	32;	.endef
 189              	_chMsgWait:
 190              	LFB8:
 191              		.loc 1 106 0
 192              		.cfi_startproc
 193 0080 53       		pushl	%ebx	 #
 194              		.cfi_def_cfa_offset 8
 195              		.cfi_offset 3, -8
 196 0081 83EC18   		subl	$24, %esp	 #,
 197              		.cfi_def_cfa_offset 32
 198              		.loc 1 109 0
 199              	/APP
 200              	 # 109 "../firmware/chibios/os/kernel/src/chmsg.c" 1
 201 0084 90       		nop
 202              	 # 0 "" 2
 203              	/NO_APP
 204 0085 E8000000 		call	_dbg_check_lock	 #
 204      00
 205              	LVL15:
 206              		.loc 1 110 0
 207 008a A1180000 		movl	_rlist+24, %eax	 # rlist.r_current, D.2082
 207      00
 208 008f 8B582C   		movl	44(%eax), %ebx	 # _4->p_msgqueue.p_next, D.2082
 209 0092 8D502C   		leal	44(%eax), %edx	 #, D.2083
GAS LISTING /cygdrive/c/DOCUME~1/andrey/LOCALS~1/Temp/ccIj26Ni.s 			page 5


 210 0095 39D3     		cmpl	%edx, %ebx	 # D.2083, D.2082
 211 0097 7419     		je	L11	 #,
 212              	L9:
 213              	LVL16:
 214              	LBB8:
 215              	LBB9:
 216              		.loc 2 62 0
 217 0099 8B0B     		movl	(%ebx), %ecx	 # _24->p_next, D.2082
 218 009b 89482C   		movl	%ecx, 44(%eax)	 # D.2082, MEM[(struct ThreadsQueue *)_20 + 44B].p_next
 219 009e 895104   		movl	%edx, 4(%ecx)	 # D.2083, _14->p_prev
 220              	LBE9:
 221              	LBE8:
 222              		.loc 1 113 0
 223 00a1 C6431C0B 		movb	$11, 28(%ebx)	 #, _24->p_state
 224              		.loc 1 114 0
 225 00a5 E8000000 		call	_dbg_check_unlock	 #
 225      00
 226              	LVL17:
 227              	/APP
 228              	 # 114 "../firmware/chibios/os/kernel/src/chmsg.c" 1
 229 00aa 90       		nop
 230              	 # 0 "" 2
 231              		.loc 1 116 0
 232              	/NO_APP
 233 00ab 83C418   		addl	$24, %esp	 #,
 234              		.cfi_remember_state
 235              		.cfi_def_cfa_offset 8
 236 00ae 89D8     		movl	%ebx, %eax	 # D.2082,
 237 00b0 5B       		popl	%ebx	 #
 238              		.cfi_restore 3
 239              		.cfi_def_cfa_offset 4
 240              	LVL18:
 241 00b1 C3       		ret
 242              	LVL19:
 243              		.p2align 4,,7
 244              	L11:
 245              		.cfi_restore_state
 246              		.loc 1 111 0
 247 00b2 C704240C 		movl	$12, (%esp)	 #,
 247      000000
 248 00b9 E8000000 		call	_chSchGoSleepS	 #
 248      00
 249              	LVL20:
 250 00be A1180000 		movl	_rlist+24, %eax	 # rlist.r_current, D.2082
 250      00
 251 00c3 8D502C   		leal	44(%eax), %edx	 #, D.2083
 252 00c6 8B582C   		movl	44(%eax), %ebx	 # MEM[(struct ThreadsQueue *)_17 + 44B].p_next, D.2082
 253 00c9 EBCE     		jmp	L9	 #
 254              		.cfi_endproc
 255              	LFE8:
 256              		.section .rdata,"dr"
 257              	LC2:
 258 0038 63684D73 		.ascii "chMsgRelease(), #1\0"
 258      6752656C 
 258      65617365 
 258      28292C20 
 258      233100
GAS LISTING /cygdrive/c/DOCUME~1/andrey/LOCALS~1/Temp/ccIj26Ni.s 			page 6


 259 004b 00       		.text
 260 00cb 908D7426 		.p2align 4,,15
 260      00
 261              		.globl	_chMsgRelease
 262              		.def	_chMsgRelease;	.scl	2;	.type	32;	.endef
 263              	_chMsgRelease:
 264              	LFB9:
 265              		.loc 1 128 0
 266              		.cfi_startproc
 267              	LVL21:
 268 00d0 53       		pushl	%ebx	 #
 269              		.cfi_def_cfa_offset 8
 270              		.cfi_offset 3, -8
 271 00d1 83EC18   		subl	$24, %esp	 #,
 272              		.cfi_def_cfa_offset 32
 273              		.loc 1 128 0
 274 00d4 8B5C2420 		movl	32(%esp), %ebx	 # tp, tp
 275              		.loc 1 130 0
 276              	/APP
 277              	 # 130 "../firmware/chibios/os/kernel/src/chmsg.c" 1
 278 00d8 90       		nop
 279              	 # 0 "" 2
 280              	/NO_APP
 281 00d9 E8000000 		call	_dbg_check_lock	 #
 281      00
 282              	LVL22:
 283              		.loc 1 131 0
 284 00de 807B1C0B 		cmpb	$11, 28(%ebx)	 #, tp_4(D)->p_state
 285 00e2 741C     		je	L13	 #,
 286              		.loc 1 131 0 is_stmt 0 discriminator 1
 287 00e4 C7442408 		movl	$132, 8(%esp)	 #,
 287      84000000 
 288 00ec C7442404 		movl	$LC0, 4(%esp)	 #,
 288      00000000 
 289 00f4 C7042438 		movl	$LC2, (%esp)	 #,
 289      000000
 290 00fb E8000000 		call	_chDbgPanic	 #
 290      00
 291              	LVL23:
 292              	L13:
 293              		.loc 1 133 0 is_stmt 1
 294 0100 8B442424 		movl	36(%esp), %eax	 # msg, msg
 295 0104 891C24   		movl	%ebx, (%esp)	 # tp,
 296 0107 89442404 		movl	%eax, 4(%esp)	 # msg,
 297 010b E8000000 		call	_chSchWakeupS	 #
 297      00
 298              	LVL24:
 299              		.loc 1 134 0
 300 0110 E8000000 		call	_dbg_check_unlock	 #
 300      00
 301              	LVL25:
 302              	/APP
 303              	 # 134 "../firmware/chibios/os/kernel/src/chmsg.c" 1
 304 0115 90       		nop
 305              	 # 0 "" 2
 306              		.loc 1 135 0
 307              	/NO_APP
GAS LISTING /cygdrive/c/DOCUME~1/andrey/LOCALS~1/Temp/ccIj26Ni.s 			page 7


 308 0116 83C418   		addl	$24, %esp	 #,
 309              		.cfi_def_cfa_offset 8
 310 0119 5B       		popl	%ebx	 #
 311              		.cfi_restore 3
 312              		.cfi_def_cfa_offset 4
 313 011a C3       		ret
 314              		.cfi_endproc
 315              	LFE9:
 316              	Letext0:
 317              		.file 3 "/usr/include/stdint.h"
 318              		.file 4 "../firmware/chibios/os/ports/GCC/SIMIA32/chtypes.h"
 319              		.file 5 "../firmware/chibios/os/kernel/include/chlists.h"
 320              		.file 6 "../firmware/chibios/os/kernel/include/chthreads.h"
 321              		.file 7 "../firmware/chibios/os/ports/GCC/SIMIA32/chcore.h"
 322              		.file 8 "../firmware/chibios/os/kernel/include/chschd.h"
 323              		.file 9 "../firmware/chibios/os/kernel/include/chmtx.h"
 324              		.file 10 "../firmware/chibios/os/kernel/include/chdebug.h"
 325              		.section	.debug_info,"dr"
 326              	Ldebug_info0:
 327 0000 9F080000 		.long	0x89f
 328 0004 0400     		.word	0x4
 329 0006 00000000 		.secrel32	Ldebug_abbrev0
 330 000a 04       		.byte	0x4
 331 000b 01       		.uleb128 0x1
 332 000c 474E5520 		.ascii "GNU C 4.8.2 -mtune=generic -march=i686 -ggdb -O2 -std=gnu99 -fomit-frame-pointer -fgnu89-i
 332      4320342E 
 332      382E3220 
 332      2D6D7475 
 332      6E653D67 
 333 006c 01       		.byte	0x1
 334 006d 2E2E2F66 		.ascii "../firmware/chibios/os/kernel/src/chmsg.c\0"
 334      69726D77 
 334      6172652F 
 334      63686962 
 334      696F732F 
 335 0097 2F637967 		.ascii "/cygdrive/c/Program Files/Jenkins/workspace/runEfi win32 functional/win32_functional_tests
 335      64726976 
 335      652F632F 
 335      50726F67 
 335      72616D20 
 336 00f2 00000000 		.long	Ltext0
 337 00f6 1B010000 		.long	Letext0-Ltext0
 338 00fa 00000000 		.secrel32	Ldebug_line0
 339 00fe 02       		.uleb128 0x2
 340 00ff 04       		.byte	0x4
 341 0100 05       		.byte	0x5
 342 0101 696E7400 		.ascii "int\0"
 343 0105 02       		.uleb128 0x2
 344 0106 04       		.byte	0x4
 345 0107 07       		.byte	0x7
 346 0108 756E7369 		.ascii "unsigned int\0"
 346      676E6564 
 346      20696E74 
 346      00
 347 0115 02       		.uleb128 0x2
 348 0116 02       		.byte	0x2
 349 0117 07       		.byte	0x7
GAS LISTING /cygdrive/c/DOCUME~1/andrey/LOCALS~1/Temp/ccIj26Ni.s 			page 8


 350 0118 73686F72 		.ascii "short unsigned int\0"
 350      7420756E 
 350      7369676E 
 350      65642069 
 350      6E7400
 351 012b 02       		.uleb128 0x2
 352 012c 01       		.byte	0x1
 353 012d 06       		.byte	0x6
 354 012e 7369676E 		.ascii "signed char\0"
 354      65642063 
 354      68617200 
 355 013a 02       		.uleb128 0x2
 356 013b 02       		.byte	0x2
 357 013c 05       		.byte	0x5
 358 013d 73686F72 		.ascii "short int\0"
 358      7420696E 
 358      7400
 359 0147 03       		.uleb128 0x3
 360 0148 696E7433 		.ascii "int32_t\0"
 360      325F7400 
 361 0150 03       		.byte	0x3
 362 0151 16       		.byte	0x16
 363 0152 FE000000 		.long	0xfe
 364 0156 02       		.uleb128 0x2
 365 0157 08       		.byte	0x8
 366 0158 05       		.byte	0x5
 367 0159 6C6F6E67 		.ascii "long long int\0"
 367      206C6F6E 
 367      6720696E 
 367      7400
 368 0167 03       		.uleb128 0x3
 369 0168 75696E74 		.ascii "uint8_t\0"
 369      385F7400 
 370 0170 03       		.byte	0x3
 371 0171 1E       		.byte	0x1e
 372 0172 76010000 		.long	0x176
 373 0176 02       		.uleb128 0x2
 374 0177 01       		.byte	0x1
 375 0178 08       		.byte	0x8
 376 0179 756E7369 		.ascii "unsigned char\0"
 376      676E6564 
 376      20636861 
 376      7200
 377 0187 03       		.uleb128 0x3
 378 0188 75696E74 		.ascii "uint32_t\0"
 378      33325F74 
 378      00
 379 0191 03       		.byte	0x3
 380 0192 22       		.byte	0x22
 381 0193 05010000 		.long	0x105
 382 0197 02       		.uleb128 0x2
 383 0198 08       		.byte	0x8
 384 0199 07       		.byte	0x7
 385 019a 6C6F6E67 		.ascii "long long unsigned int\0"
 385      206C6F6E 
 385      6720756E 
 385      7369676E 
GAS LISTING /cygdrive/c/DOCUME~1/andrey/LOCALS~1/Temp/ccIj26Ni.s 			page 9


 385      65642069 
 386 01b1 02       		.uleb128 0x2
 387 01b2 01       		.byte	0x1
 388 01b3 02       		.byte	0x2
 389 01b4 5F426F6F 		.ascii "_Bool\0"
 389      6C00
 390 01ba 03       		.uleb128 0x3
 391 01bb 746D6F64 		.ascii "tmode_t\0"
 391      655F7400 
 392 01c3 04       		.byte	0x4
 393 01c4 24       		.byte	0x24
 394 01c5 67010000 		.long	0x167
 395 01c9 03       		.uleb128 0x3
 396 01ca 74737461 		.ascii "tstate_t\0"
 396      74655F74 
 396      00
 397 01d3 04       		.byte	0x4
 398 01d4 25       		.byte	0x25
 399 01d5 67010000 		.long	0x167
 400 01d9 03       		.uleb128 0x3
 401 01da 74726566 		.ascii "trefs_t\0"
 401      735F7400 
 402 01e2 04       		.byte	0x4
 403 01e3 26       		.byte	0x26
 404 01e4 67010000 		.long	0x167
 405 01e8 03       		.uleb128 0x3
 406 01e9 74736C69 		.ascii "tslices_t\0"
 406      6365735F 
 406      7400
 407 01f3 04       		.byte	0x4
 408 01f4 27       		.byte	0x27
 409 01f5 67010000 		.long	0x167
 410 01f9 03       		.uleb128 0x3
 411 01fa 74707269 		.ascii "tprio_t\0"
 411      6F5F7400 
 412 0202 04       		.byte	0x4
 413 0203 28       		.byte	0x28
 414 0204 87010000 		.long	0x187
 415 0208 03       		.uleb128 0x3
 416 0209 6D73675F 		.ascii "msg_t\0"
 416      7400
 417 020f 04       		.byte	0x4
 418 0210 29       		.byte	0x29
 419 0211 47010000 		.long	0x147
 420 0215 03       		.uleb128 0x3
 421 0216 6576656E 		.ascii "eventmask_t\0"
 421      746D6173 
 421      6B5F7400 
 422 0222 04       		.byte	0x4
 423 0223 2B       		.byte	0x2b
 424 0224 87010000 		.long	0x187
 425 0228 03       		.uleb128 0x3
 426 0229 73797374 		.ascii "systime_t\0"
 426      696D655F 
 426      7400
 427 0233 04       		.byte	0x4
 428 0234 2D       		.byte	0x2d
GAS LISTING /cygdrive/c/DOCUME~1/andrey/LOCALS~1/Temp/ccIj26Ni.s 			page 10


 429 0235 87010000 		.long	0x187
 430 0239 03       		.uleb128 0x3
 431 023a 54687265 		.ascii "Thread\0"
 431      616400
 432 0241 05       		.byte	0x5
 433 0242 2A       		.byte	0x2a
 434 0243 47020000 		.long	0x247
 435 0247 04       		.uleb128 0x4
 436 0248 54687265 		.ascii "Thread\0"
 436      616400
 437 024f 48       		.byte	0x48
 438 0250 06       		.byte	0x6
 439 0251 5E       		.byte	0x5e
 440 0252 95030000 		.long	0x395
 441 0256 05       		.uleb128 0x5
 442 0257 00000000 		.secrel32	LASF0
 443 025b 06       		.byte	0x6
 444 025c 5F       		.byte	0x5f
 445 025d B9030000 		.long	0x3b9
 446 0261 00       		.byte	0
 447 0262 06       		.uleb128 0x6
 448 0263 705F7072 		.ascii "p_prev\0"
 448      657600
 449 026a 06       		.byte	0x6
 450 026b 61       		.byte	0x61
 451 026c B9030000 		.long	0x3b9
 452 0270 04       		.byte	0x4
 453 0271 06       		.uleb128 0x6
 454 0272 705F7072 		.ascii "p_prio\0"
 454      696F00
 455 0279 06       		.byte	0x6
 456 027a 63       		.byte	0x63
 457 027b F9010000 		.long	0x1f9
 458 027f 08       		.byte	0x8
 459 0280 06       		.uleb128 0x6
 460 0281 705F6374 		.ascii "p_ctx\0"
 460      7800
 461 0287 06       		.byte	0x6
 462 0288 64       		.byte	0x64
 463 0289 63040000 		.long	0x463
 464 028d 0C       		.byte	0xc
 465 028e 06       		.uleb128 0x6
 466 028f 705F6E65 		.ascii "p_newer\0"
 466      77657200 
 467 0297 06       		.byte	0x6
 468 0298 66       		.byte	0x66
 469 0299 B9030000 		.long	0x3b9
 470 029d 10       		.byte	0x10
 471 029e 06       		.uleb128 0x6
 472 029f 705F6F6C 		.ascii "p_older\0"
 472      64657200 
 473 02a7 06       		.byte	0x6
 474 02a8 67       		.byte	0x67
 475 02a9 B9030000 		.long	0x3b9
 476 02ad 14       		.byte	0x14
 477 02ae 06       		.uleb128 0x6
 478 02af 705F6E61 		.ascii "p_name\0"
GAS LISTING /cygdrive/c/DOCUME~1/andrey/LOCALS~1/Temp/ccIj26Ni.s 			page 11


 478      6D6500
 479 02b6 06       		.byte	0x6
 480 02b7 6E       		.byte	0x6e
 481 02b8 9D050000 		.long	0x59d
 482 02bc 18       		.byte	0x18
 483 02bd 06       		.uleb128 0x6
 484 02be 705F7374 		.ascii "p_state\0"
 484      61746500 
 485 02c6 06       		.byte	0x6
 486 02c7 79       		.byte	0x79
 487 02c8 C9010000 		.long	0x1c9
 488 02cc 1C       		.byte	0x1c
 489 02cd 06       		.uleb128 0x6
 490 02ce 705F666C 		.ascii "p_flags\0"
 490      61677300 
 491 02d6 06       		.byte	0x6
 492 02d7 7D       		.byte	0x7d
 493 02d8 BA010000 		.long	0x1ba
 494 02dc 1D       		.byte	0x1d
 495 02dd 06       		.uleb128 0x6
 496 02de 705F7265 		.ascii "p_refs\0"
 496      667300
 497 02e5 06       		.byte	0x6
 498 02e6 82       		.byte	0x82
 499 02e7 D9010000 		.long	0x1d9
 500 02eb 1E       		.byte	0x1e
 501 02ec 06       		.uleb128 0x6
 502 02ed 705F7072 		.ascii "p_preempt\0"
 502      65656D70 
 502      7400
 503 02f7 06       		.byte	0x6
 504 02f8 88       		.byte	0x88
 505 02f9 E8010000 		.long	0x1e8
 506 02fd 1F       		.byte	0x1f
 507 02fe 06       		.uleb128 0x6
 508 02ff 705F7469 		.ascii "p_time\0"
 508      6D6500
 509 0306 06       		.byte	0x6
 510 0307 8F       		.byte	0x8f
 511 0308 8B040000 		.long	0x48b
 512 030c 20       		.byte	0x20
 513 030d 06       		.uleb128 0x6
 514 030e 705F7500 		.ascii "p_u\0"
 515 0312 06       		.byte	0x6
 516 0313 B4       		.byte	0xb4
 517 0314 5A050000 		.long	0x55a
 518 0318 24       		.byte	0x24
 519 0319 06       		.uleb128 0x6
 520 031a 705F7761 		.ascii "p_waiting\0"
 520      6974696E 
 520      6700
 521 0324 06       		.byte	0x6
 522 0325 B9       		.byte	0xb9
 523 0326 E8030000 		.long	0x3e8
 524 032a 28       		.byte	0x28
 525 032b 06       		.uleb128 0x6
 526 032c 705F6D73 		.ascii "p_msgqueue\0"
GAS LISTING /cygdrive/c/DOCUME~1/andrey/LOCALS~1/Temp/ccIj26Ni.s 			page 12


 526      67717565 
 526      756500
 527 0337 06       		.byte	0x6
 528 0338 BF       		.byte	0xbf
 529 0339 BF030000 		.long	0x3bf
 530 033d 2C       		.byte	0x2c
 531 033e 06       		.uleb128 0x6
 532 033f 705F6D73 		.ascii "p_msg\0"
 532      6700
 533 0345 06       		.byte	0x6
 534 0346 C3       		.byte	0xc3
 535 0347 08020000 		.long	0x208
 536 034b 34       		.byte	0x34
 537 034c 06       		.uleb128 0x6
 538 034d 705F6570 		.ascii "p_epending\0"
 538      656E6469 
 538      6E6700
 539 0358 06       		.byte	0x6
 540 0359 C9       		.byte	0xc9
 541 035a 15020000 		.long	0x215
 542 035e 38       		.byte	0x38
 543 035f 06       		.uleb128 0x6
 544 0360 705F6D74 		.ascii "p_mtxlist\0"
 544      786C6973 
 544      7400
 545 036a 06       		.byte	0x6
 546 036b D0       		.byte	0xd0
 547 036c B0050000 		.long	0x5b0
 548 0370 3C       		.byte	0x3c
 549 0371 06       		.uleb128 0x6
 550 0372 705F7265 		.ascii "p_realprio\0"
 550      616C7072 
 550      696F00
 551 037d 06       		.byte	0x6
 552 037e D4       		.byte	0xd4
 553 037f F9010000 		.long	0x1f9
 554 0383 40       		.byte	0x40
 555 0384 06       		.uleb128 0x6
 556 0385 705F6D70 		.ascii "p_mpool\0"
 556      6F6F6C00 
 557 038d 06       		.byte	0x6
 558 038e DA       		.byte	0xda
 559 038f 15040000 		.long	0x415
 560 0393 44       		.byte	0x44
 561 0394 00       		.byte	0
 562 0395 07       		.uleb128 0x7
 563 0396 08       		.byte	0x8
 564 0397 05       		.byte	0x5
 565 0398 61       		.byte	0x61
 566 0399 B9030000 		.long	0x3b9
 567 039d 05       		.uleb128 0x5
 568 039e 00000000 		.secrel32	LASF0
 569 03a2 05       		.byte	0x5
 570 03a3 62       		.byte	0x62
 571 03a4 B9030000 		.long	0x3b9
 572 03a8 00       		.byte	0
 573 03a9 06       		.uleb128 0x6
GAS LISTING /cygdrive/c/DOCUME~1/andrey/LOCALS~1/Temp/ccIj26Ni.s 			page 13


 574 03aa 705F7072 		.ascii "p_prev\0"
 574      657600
 575 03b1 05       		.byte	0x5
 576 03b2 64       		.byte	0x64
 577 03b3 B9030000 		.long	0x3b9
 578 03b7 04       		.byte	0x4
 579 03b8 00       		.byte	0
 580 03b9 08       		.uleb128 0x8
 581 03ba 04       		.byte	0x4
 582 03bb 39020000 		.long	0x239
 583 03bf 03       		.uleb128 0x3
 584 03c0 54687265 		.ascii "ThreadsQueue\0"
 584      61647351 
 584      75657565 
 584      00
 585 03cd 05       		.byte	0x5
 586 03ce 66       		.byte	0x66
 587 03cf 95030000 		.long	0x395
 588 03d3 07       		.uleb128 0x7
 589 03d4 04       		.byte	0x4
 590 03d5 05       		.byte	0x5
 591 03d6 6B       		.byte	0x6b
 592 03d7 E8030000 		.long	0x3e8
 593 03db 05       		.uleb128 0x5
 594 03dc 00000000 		.secrel32	LASF0
 595 03e0 05       		.byte	0x5
 596 03e1 6D       		.byte	0x6d
 597 03e2 B9030000 		.long	0x3b9
 598 03e6 00       		.byte	0
 599 03e7 00       		.byte	0
 600 03e8 03       		.uleb128 0x3
 601 03e9 54687265 		.ascii "ThreadsList\0"
 601      6164734C 
 601      69737400 
 602 03f5 05       		.byte	0x5
 603 03f6 70       		.byte	0x70
 604 03f7 D3030000 		.long	0x3d3
 605 03fb 02       		.uleb128 0x2
 606 03fc 04       		.byte	0x4
 607 03fd 07       		.byte	0x7
 608 03fe 73697A65 		.ascii "sizetype\0"
 608      74797065 
 608      00
 609 0407 03       		.uleb128 0x3
 610 0408 72656778 		.ascii "regx86\0"
 610      383600
 611 040f 07       		.byte	0x7
 612 0410 4B       		.byte	0x4b
 613 0411 15040000 		.long	0x415
 614 0415 09       		.uleb128 0x9
 615 0416 04       		.byte	0x4
 616 0417 04       		.uleb128 0x4
 617 0418 696E7463 		.ascii "intctx\0"
 617      747800
 618 041f 14       		.byte	0x14
 619 0420 07       		.byte	0x7
 620 0421 59       		.byte	0x59
GAS LISTING /cygdrive/c/DOCUME~1/andrey/LOCALS~1/Temp/ccIj26Ni.s 			page 14


 621 0422 63040000 		.long	0x463
 622 0426 06       		.uleb128 0x6
 623 0427 65627800 		.ascii "ebx\0"
 624 042b 07       		.byte	0x7
 625 042c 5A       		.byte	0x5a
 626 042d 07040000 		.long	0x407
 627 0431 00       		.byte	0
 628 0432 06       		.uleb128 0x6
 629 0433 65646900 		.ascii "edi\0"
 630 0437 07       		.byte	0x7
 631 0438 5B       		.byte	0x5b
 632 0439 07040000 		.long	0x407
 633 043d 04       		.byte	0x4
 634 043e 06       		.uleb128 0x6
 635 043f 65736900 		.ascii "esi\0"
 636 0443 07       		.byte	0x7
 637 0444 5C       		.byte	0x5c
 638 0445 07040000 		.long	0x407
 639 0449 08       		.byte	0x8
 640 044a 06       		.uleb128 0x6
 641 044b 65627000 		.ascii "ebp\0"
 642 044f 07       		.byte	0x7
 643 0450 5D       		.byte	0x5d
 644 0451 07040000 		.long	0x407
 645 0455 0C       		.byte	0xc
 646 0456 06       		.uleb128 0x6
 647 0457 65697000 		.ascii "eip\0"
 648 045b 07       		.byte	0x7
 649 045c 5E       		.byte	0x5e
 650 045d 07040000 		.long	0x407
 651 0461 10       		.byte	0x10
 652 0462 00       		.byte	0
 653 0463 04       		.uleb128 0x4
 654 0464 636F6E74 		.ascii "context\0"
 654      65787400 
 655 046c 04       		.byte	0x4
 656 046d 07       		.byte	0x7
 657 046e 66       		.byte	0x66
 658 046f 80040000 		.long	0x480
 659 0473 06       		.uleb128 0x6
 660 0474 65737000 		.ascii "esp\0"
 661 0478 07       		.byte	0x7
 662 0479 67       		.byte	0x67
 663 047a 80040000 		.long	0x480
 664 047e 00       		.byte	0
 665 047f 00       		.byte	0
 666 0480 08       		.uleb128 0x8
 667 0481 04       		.byte	0x4
 668 0482 86040000 		.long	0x486
 669 0486 0A       		.uleb128 0xa
 670 0487 17040000 		.long	0x417
 671 048b 0A       		.uleb128 0xa
 672 048c 28020000 		.long	0x228
 673 0490 07       		.uleb128 0x7
 674 0491 1C       		.byte	0x1c
 675 0492 08       		.byte	0x8
 676 0493 5E       		.byte	0x5e
GAS LISTING /cygdrive/c/DOCUME~1/andrey/LOCALS~1/Temp/ccIj26Ni.s 			page 15


 677 0494 F8040000 		.long	0x4f8
 678 0498 06       		.uleb128 0x6
 679 0499 725F7175 		.ascii "r_queue\0"
 679      65756500 
 680 04a1 08       		.byte	0x8
 681 04a2 5F       		.byte	0x5f
 682 04a3 BF030000 		.long	0x3bf
 683 04a7 00       		.byte	0
 684 04a8 06       		.uleb128 0x6
 685 04a9 725F7072 		.ascii "r_prio\0"
 685      696F00
 686 04b0 08       		.byte	0x8
 687 04b1 60       		.byte	0x60
 688 04b2 F9010000 		.long	0x1f9
 689 04b6 08       		.byte	0x8
 690 04b7 06       		.uleb128 0x6
 691 04b8 725F6374 		.ascii "r_ctx\0"
 691      7800
 692 04be 08       		.byte	0x8
 693 04bf 62       		.byte	0x62
 694 04c0 63040000 		.long	0x463
 695 04c4 0C       		.byte	0xc
 696 04c5 06       		.uleb128 0x6
 697 04c6 725F6E65 		.ascii "r_newer\0"
 697      77657200 
 698 04ce 08       		.byte	0x8
 699 04cf 65       		.byte	0x65
 700 04d0 B9030000 		.long	0x3b9
 701 04d4 10       		.byte	0x10
 702 04d5 06       		.uleb128 0x6
 703 04d6 725F6F6C 		.ascii "r_older\0"
 703      64657200 
 704 04de 08       		.byte	0x8
 705 04df 66       		.byte	0x66
 706 04e0 B9030000 		.long	0x3b9
 707 04e4 14       		.byte	0x14
 708 04e5 06       		.uleb128 0x6
 709 04e6 725F6375 		.ascii "r_current\0"
 709      7272656E 
 709      7400
 710 04f0 08       		.byte	0x8
 711 04f1 69       		.byte	0x69
 712 04f2 B9030000 		.long	0x3b9
 713 04f6 18       		.byte	0x18
 714 04f7 00       		.byte	0
 715 04f8 03       		.uleb128 0x3
 716 04f9 52656164 		.ascii "ReadyList\0"
 716      794C6973 
 716      7400
 717 0503 08       		.byte	0x8
 718 0504 6B       		.byte	0x6b
 719 0505 90040000 		.long	0x490
 720 0509 04       		.uleb128 0x4
 721 050a 4D757465 		.ascii "Mutex\0"
 721      7800
 722 0510 10       		.byte	0x10
 723 0511 09       		.byte	0x9
GAS LISTING /cygdrive/c/DOCUME~1/andrey/LOCALS~1/Temp/ccIj26Ni.s 			page 16


 724 0512 2C       		.byte	0x2c
 725 0513 47050000 		.long	0x547
 726 0517 06       		.uleb128 0x6
 727 0518 6D5F7175 		.ascii "m_queue\0"
 727      65756500 
 728 0520 09       		.byte	0x9
 729 0521 2D       		.byte	0x2d
 730 0522 BF030000 		.long	0x3bf
 731 0526 00       		.byte	0
 732 0527 06       		.uleb128 0x6
 733 0528 6D5F6F77 		.ascii "m_owner\0"
 733      6E657200 
 734 0530 09       		.byte	0x9
 735 0531 2F       		.byte	0x2f
 736 0532 B9030000 		.long	0x3b9
 737 0536 08       		.byte	0x8
 738 0537 06       		.uleb128 0x6
 739 0538 6D5F6E65 		.ascii "m_next\0"
 739      787400
 740 053f 09       		.byte	0x9
 741 0540 31       		.byte	0x31
 742 0541 47050000 		.long	0x547
 743 0545 0C       		.byte	0xc
 744 0546 00       		.byte	0
 745 0547 08       		.uleb128 0x8
 746 0548 04       		.byte	0x4
 747 0549 09050000 		.long	0x509
 748 054d 03       		.uleb128 0x3
 749 054e 4D757465 		.ascii "Mutex\0"
 749      7800
 750 0554 09       		.byte	0x9
 751 0555 33       		.byte	0x33
 752 0556 09050000 		.long	0x509
 753 055a 0B       		.uleb128 0xb
 754 055b 04       		.byte	0x4
 755 055c 06       		.byte	0x6
 756 055d 96       		.byte	0x96
 757 055e 9D050000 		.long	0x59d
 758 0562 0C       		.uleb128 0xc
 759 0563 7264796D 		.ascii "rdymsg\0"
 759      736700
 760 056a 06       		.byte	0x6
 761 056b 9D       		.byte	0x9d
 762 056c 08020000 		.long	0x208
 763 0570 0C       		.uleb128 0xc
 764 0571 65786974 		.ascii "exitcode\0"
 764      636F6465 
 764      00
 765 057a 06       		.byte	0x6
 766 057b A4       		.byte	0xa4
 767 057c 08020000 		.long	0x208
 768 0580 0C       		.uleb128 0xc
 769 0581 77746F62 		.ascii "wtobjp\0"
 769      6A7000
 770 0588 06       		.byte	0x6
 771 0589 AB       		.byte	0xab
 772 058a 15040000 		.long	0x415
GAS LISTING /cygdrive/c/DOCUME~1/andrey/LOCALS~1/Temp/ccIj26Ni.s 			page 17


 773 058e 0C       		.uleb128 0xc
 774 058f 65776D61 		.ascii "ewmask\0"
 774      736B00
 775 0596 06       		.byte	0x6
 776 0597 B2       		.byte	0xb2
 777 0598 15020000 		.long	0x215
 778 059c 00       		.byte	0
 779 059d 08       		.uleb128 0x8
 780 059e 04       		.byte	0x4
 781 059f A3050000 		.long	0x5a3
 782 05a3 0D       		.uleb128 0xd
 783 05a4 A8050000 		.long	0x5a8
 784 05a8 02       		.uleb128 0x2
 785 05a9 01       		.byte	0x1
 786 05aa 06       		.byte	0x6
 787 05ab 63686172 		.ascii "char\0"
 787      00
 788 05b0 08       		.uleb128 0x8
 789 05b1 04       		.byte	0x4
 790 05b2 4D050000 		.long	0x54d
 791 05b6 0E       		.uleb128 0xe
 792 05b7 71756575 		.ascii "queue_insert\0"
 792      655F696E 
 792      73657274 
 792      00
 793 05c4 02       		.byte	0x2
 794 05c5 34       		.byte	0x34
 795 05c6 03       		.byte	0x3
 796 05c7 E1050000 		.long	0x5e1
 797 05cb 0F       		.uleb128 0xf
 798 05cc 747000   		.ascii "tp\0"
 799 05cf 02       		.byte	0x2
 800 05d0 34       		.byte	0x34
 801 05d1 B9030000 		.long	0x3b9
 802 05d5 0F       		.uleb128 0xf
 803 05d6 74717000 		.ascii "tqp\0"
 804 05da 02       		.byte	0x2
 805 05db 34       		.byte	0x34
 806 05dc E1050000 		.long	0x5e1
 807 05e0 00       		.byte	0
 808 05e1 08       		.uleb128 0x8
 809 05e2 04       		.byte	0x4
 810 05e3 BF030000 		.long	0x3bf
 811 05e7 10       		.uleb128 0x10
 812 05e8 6669666F 		.ascii "fifo_remove\0"
 812      5F72656D 
 812      6F766500 
 813 05f4 02       		.byte	0x2
 814 05f5 3B       		.byte	0x3b
 815 05f6 B9030000 		.long	0x3b9
 816 05fa 03       		.byte	0x3
 817 05fb 15060000 		.long	0x615
 818 05ff 0F       		.uleb128 0xf
 819 0600 74717000 		.ascii "tqp\0"
 820 0604 02       		.byte	0x2
 821 0605 3B       		.byte	0x3b
 822 0606 E1050000 		.long	0x5e1
GAS LISTING /cygdrive/c/DOCUME~1/andrey/LOCALS~1/Temp/ccIj26Ni.s 			page 18


 823 060a 11       		.uleb128 0x11
 824 060b 747000   		.ascii "tp\0"
 825 060e 02       		.byte	0x2
 826 060f 3C       		.byte	0x3c
 827 0610 B9030000 		.long	0x3b9
 828 0614 00       		.byte	0
 829 0615 12       		.uleb128 0x12
 830 0616 63684D73 		.ascii "chMsgSend\0"
 830      6753656E 
 830      6400
 831 0620 01       		.byte	0x1
 832 0621 4B       		.byte	0x4b
 833 0622 08020000 		.long	0x208
 834 0626 00000000 		.long	LFB7
 835 062a 7E000000 		.long	LFE7-LFB7
 836 062e 01       		.uleb128 0x1
 837 062f 9C       		.byte	0x9c
 838 0630 E6060000 		.long	0x6e6
 839 0634 13       		.uleb128 0x13
 840 0635 747000   		.ascii "tp\0"
 841 0638 01       		.byte	0x1
 842 0639 4B       		.byte	0x4b
 843 063a B9030000 		.long	0x3b9
 844 063e 02       		.uleb128 0x2
 845 063f 91       		.byte	0x91
 846 0640 00       		.sleb128 0
 847 0641 14       		.uleb128 0x14
 848 0642 6D736700 		.ascii "msg\0"
 849 0646 01       		.byte	0x1
 850 0647 4B       		.byte	0x4b
 851 0648 08020000 		.long	0x208
 852 064c 00000000 		.secrel32	LLST0
 853 0650 15       		.uleb128 0x15
 854 0651 63747000 		.ascii "ctp\0"
 855 0655 01       		.byte	0x1
 856 0656 4C       		.byte	0x4c
 857 0657 B9030000 		.long	0x3b9
 858 065b 36000000 		.secrel32	LLST1
 859 065f 16       		.uleb128 0x16
 860 0660 B6050000 		.long	0x5b6
 861 0664 2A000000 		.long	LBB6
 862 0668 0D000000 		.long	LBE6-LBB6
 863 066c 01       		.byte	0x1
 864 066d 53       		.byte	0x53
 865 066e 85060000 		.long	0x685
 866 0672 17       		.uleb128 0x17
 867 0673 D5050000 		.long	0x5d5
 868 0677 54000000 		.secrel32	LLST2
 869 067b 17       		.uleb128 0x17
 870 067c CB050000 		.long	0x5cb
 871 0680 9D000000 		.secrel32	LLST3
 872 0684 00       		.byte	0
 873 0685 18       		.uleb128 0x18
 874 0686 19000000 		.long	LVL2
 875 068a 01080000 		.long	0x801
 876 068e 19       		.uleb128 0x19
 877 068f 45000000 		.long	LVL6
GAS LISTING /cygdrive/c/DOCUME~1/andrey/LOCALS~1/Temp/ccIj26Ni.s 			page 19


 878 0693 13080000 		.long	0x813
 879 0697 A2060000 		.long	0x6a2
 880 069b 1A       		.uleb128 0x1a
 881 069c 02       		.uleb128 0x2
 882 069d 74       		.byte	0x74
 883 069e 00       		.sleb128 0
 884 069f 01       		.uleb128 0x1
 885 06a0 3A       		.byte	0x3a
 886 06a1 00       		.byte	0
 887 06a2 18       		.uleb128 0x18
 888 06a3 4D000000 		.long	LVL8
 889 06a7 2E080000 		.long	0x82e
 890 06ab 19       		.uleb128 0x19
 891 06ac 5E000000 		.long	LVL12
 892 06b0 42080000 		.long	0x842
 893 06b4 C0060000 		.long	0x6c0
 894 06b8 1A       		.uleb128 0x1a
 895 06b9 02       		.uleb128 0x2
 896 06ba 74       		.byte	0x74
 897 06bb 00       		.sleb128 0
 898 06bc 02       		.uleb128 0x2
 899 06bd 76       		.byte	0x76
 900 06be 00       		.sleb128 0
 901 06bf 00       		.byte	0
 902 06c0 1B       		.uleb128 0x1b
 903 06c1 7C000000 		.long	LVL14
 904 06c5 5F080000 		.long	0x85f
 905 06c9 1A       		.uleb128 0x1a
 906 06ca 02       		.uleb128 0x2
 907 06cb 74       		.byte	0x74
 908 06cc 00       		.sleb128 0
 909 06cd 05       		.uleb128 0x5
 910 06ce 03       		.byte	0x3
 911 06cf 2A000000 		.long	LC1
 912 06d3 1A       		.uleb128 0x1a
 913 06d4 02       		.uleb128 0x2
 914 06d5 74       		.byte	0x74
 915 06d6 04       		.sleb128 4
 916 06d7 05       		.uleb128 0x5
 917 06d8 03       		.byte	0x3
 918 06d9 00000000 		.long	LC0
 919 06dd 1A       		.uleb128 0x1a
 920 06de 02       		.uleb128 0x2
 921 06df 74       		.byte	0x74
 922 06e0 08       		.sleb128 8
 923 06e1 02       		.uleb128 0x2
 924 06e2 08       		.byte	0x8
 925 06e3 4E       		.byte	0x4e
 926 06e4 00       		.byte	0
 927 06e5 00       		.byte	0
 928 06e6 12       		.uleb128 0x12
 929 06e7 63684D73 		.ascii "chMsgWait\0"
 929      67576169 
 929      7400
 930 06f1 01       		.byte	0x1
 931 06f2 6A       		.byte	0x6a
 932 06f3 B9030000 		.long	0x3b9
GAS LISTING /cygdrive/c/DOCUME~1/andrey/LOCALS~1/Temp/ccIj26Ni.s 			page 20


 933 06f7 80000000 		.long	LFB8
 934 06fb 4B000000 		.long	LFE8-LFB8
 935 06ff 01       		.uleb128 0x1
 936 0700 9C       		.byte	0x9c
 937 0701 62070000 		.long	0x762
 938 0705 11       		.uleb128 0x11
 939 0706 747000   		.ascii "tp\0"
 940 0709 01       		.byte	0x1
 941 070a 6B       		.byte	0x6b
 942 070b B9030000 		.long	0x3b9
 943 070f 16       		.uleb128 0x16
 944 0710 E7050000 		.long	0x5e7
 945 0714 99000000 		.long	LBB8
 946 0718 08000000 		.long	LBE8-LBB8
 947 071c 01       		.byte	0x1
 948 071d 70       		.byte	0x70
 949 071e 3F070000 		.long	0x73f
 950 0722 17       		.uleb128 0x17
 951 0723 FF050000 		.long	0x5ff
 952 0727 BB000000 		.secrel32	LLST4
 953 072b 1C       		.uleb128 0x1c
 954 072c 99000000 		.long	LBB9
 955 0730 08000000 		.long	LBE9-LBB9
 956 0734 1D       		.uleb128 0x1d
 957 0735 0A060000 		.long	0x60a
 958 0739 CE000000 		.secrel32	LLST5
 959 073d 00       		.byte	0
 960 073e 00       		.byte	0
 961 073f 18       		.uleb128 0x18
 962 0740 8A000000 		.long	LVL15
 963 0744 01080000 		.long	0x801
 964 0748 18       		.uleb128 0x18
 965 0749 AA000000 		.long	LVL17
 966 074d 2E080000 		.long	0x82e
 967 0751 1B       		.uleb128 0x1b
 968 0752 BE000000 		.long	LVL20
 969 0756 13080000 		.long	0x813
 970 075a 1A       		.uleb128 0x1a
 971 075b 02       		.uleb128 0x2
 972 075c 74       		.byte	0x74
 973 075d 00       		.sleb128 0
 974 075e 01       		.uleb128 0x1
 975 075f 3C       		.byte	0x3c
 976 0760 00       		.byte	0
 977 0761 00       		.byte	0
 978 0762 1E       		.uleb128 0x1e
 979 0763 63684D73 		.ascii "chMsgRelease\0"
 979      6752656C 
 979      65617365 
 979      00
 980 0770 01       		.byte	0x1
 981 0771 80       		.byte	0x80
 982 0772 D0000000 		.long	LFB9
 983 0776 4B000000 		.long	LFE9-LFB9
 984 077a 01       		.uleb128 0x1
 985 077b 9C       		.byte	0x9c
 986 077c F4070000 		.long	0x7f4
GAS LISTING /cygdrive/c/DOCUME~1/andrey/LOCALS~1/Temp/ccIj26Ni.s 			page 21


 987 0780 13       		.uleb128 0x13
 988 0781 747000   		.ascii "tp\0"
 989 0784 01       		.byte	0x1
 990 0785 80       		.byte	0x80
 991 0786 B9030000 		.long	0x3b9
 992 078a 02       		.uleb128 0x2
 993 078b 91       		.byte	0x91
 994 078c 00       		.sleb128 0
 995 078d 13       		.uleb128 0x13
 996 078e 6D736700 		.ascii "msg\0"
 997 0792 01       		.byte	0x1
 998 0793 80       		.byte	0x80
 999 0794 08020000 		.long	0x208
 1000 0798 02       		.uleb128 0x2
 1001 0799 91       		.byte	0x91
 1002 079a 04       		.sleb128 4
 1003 079b 18       		.uleb128 0x18
 1004 079c DE000000 		.long	LVL22
 1005 07a0 01080000 		.long	0x801
 1006 07a4 19       		.uleb128 0x19
 1007 07a5 00010000 		.long	LVL23
 1008 07a9 5F080000 		.long	0x85f
 1009 07ad CD070000 		.long	0x7cd
 1010 07b1 1A       		.uleb128 0x1a
 1011 07b2 02       		.uleb128 0x2
 1012 07b3 74       		.byte	0x74
 1013 07b4 00       		.sleb128 0
 1014 07b5 05       		.uleb128 0x5
 1015 07b6 03       		.byte	0x3
 1016 07b7 38000000 		.long	LC2
 1017 07bb 1A       		.uleb128 0x1a
 1018 07bc 02       		.uleb128 0x2
 1019 07bd 74       		.byte	0x74
 1020 07be 04       		.sleb128 4
 1021 07bf 05       		.uleb128 0x5
 1022 07c0 03       		.byte	0x3
 1023 07c1 00000000 		.long	LC0
 1024 07c5 1A       		.uleb128 0x1a
 1025 07c6 02       		.uleb128 0x2
 1026 07c7 74       		.byte	0x74
 1027 07c8 08       		.sleb128 8
 1028 07c9 02       		.uleb128 0x2
 1029 07ca 08       		.byte	0x8
 1030 07cb 84       		.byte	0x84
 1031 07cc 00       		.byte	0
 1032 07cd 19       		.uleb128 0x19
 1033 07ce 10010000 		.long	LVL24
 1034 07d2 87080000 		.long	0x887
 1035 07d6 EA070000 		.long	0x7ea
 1036 07da 1A       		.uleb128 0x1a
 1037 07db 02       		.uleb128 0x2
 1038 07dc 74       		.byte	0x74
 1039 07dd 00       		.sleb128 0
 1040 07de 02       		.uleb128 0x2
 1041 07df 73       		.byte	0x73
 1042 07e0 00       		.sleb128 0
 1043 07e1 1A       		.uleb128 0x1a
GAS LISTING /cygdrive/c/DOCUME~1/andrey/LOCALS~1/Temp/ccIj26Ni.s 			page 22


 1044 07e2 02       		.uleb128 0x2
 1045 07e3 74       		.byte	0x74
 1046 07e4 04       		.sleb128 4
 1047 07e5 03       		.uleb128 0x3
 1048 07e6 91       		.byte	0x91
 1049 07e7 04       		.sleb128 4
 1050 07e8 06       		.byte	0x6
 1051 07e9 00       		.byte	0
 1052 07ea 18       		.uleb128 0x18
 1053 07eb 15010000 		.long	LVL25
 1054 07ef 2E080000 		.long	0x82e
 1055 07f3 00       		.byte	0
 1056 07f4 1F       		.uleb128 0x1f
 1057 07f5 726C6973 		.ascii "rlist\0"
 1057      7400
 1058 07fb 08       		.byte	0x8
 1059 07fc 6F       		.byte	0x6f
 1060 07fd F8040000 		.long	0x4f8
 1061 0801 20       		.uleb128 0x20
 1062 0802 6462675F 		.ascii "dbg_check_lock\0"
 1062      63686563 
 1062      6B5F6C6F 
 1062      636B00
 1063 0811 0A       		.byte	0xa
 1064 0812 E7       		.byte	0xe7
 1065 0813 21       		.uleb128 0x21
 1066 0814 63685363 		.ascii "chSchGoSleepS\0"
 1066      68476F53 
 1066      6C656570 
 1066      5300
 1067 0822 08       		.byte	0x8
 1068 0823 93       		.byte	0x93
 1069 0824 2E080000 		.long	0x82e
 1070 0828 22       		.uleb128 0x22
 1071 0829 C9010000 		.long	0x1c9
 1072 082d 00       		.byte	0
 1073 082e 20       		.uleb128 0x20
 1074 082f 6462675F 		.ascii "dbg_check_unlock\0"
 1074      63686563 
 1074      6B5F756E 
 1074      6C6F636B 
 1074      00
 1075 0840 0A       		.byte	0xa
 1076 0841 E8       		.byte	0xe8
 1077 0842 23       		.uleb128 0x23
 1078 0843 63685363 		.ascii "chSchReadyI\0"
 1078      68526561 
 1078      64794900 
 1079 084f 08       		.byte	0x8
 1080 0850 90       		.byte	0x90
 1081 0851 B9030000 		.long	0x3b9
 1082 0855 5F080000 		.long	0x85f
 1083 0859 22       		.uleb128 0x22
 1084 085a B9030000 		.long	0x3b9
 1085 085e 00       		.byte	0
 1086 085f 21       		.uleb128 0x21
 1087 0860 63684462 		.ascii "chDbgPanic\0"
GAS LISTING /cygdrive/c/DOCUME~1/andrey/LOCALS~1/Temp/ccIj26Ni.s 			page 23


 1087      6750616E 
 1087      696300
 1088 086b 0A       		.byte	0xa
 1089 086c F6       		.byte	0xf6
 1090 086d 81080000 		.long	0x881
 1091 0871 22       		.uleb128 0x22
 1092 0872 9D050000 		.long	0x59d
 1093 0876 22       		.uleb128 0x22
 1094 0877 81080000 		.long	0x881
 1095 087b 22       		.uleb128 0x22
 1096 087c FE000000 		.long	0xfe
 1097 0880 00       		.byte	0
 1098 0881 08       		.uleb128 0x8
 1099 0882 04       		.byte	0x4
 1100 0883 A8050000 		.long	0x5a8
 1101 0887 24       		.uleb128 0x24
 1102 0888 63685363 		.ascii "chSchWakeupS\0"
 1102      6857616B 
 1102      65757053 
 1102      00
 1103 0895 08       		.byte	0x8
 1104 0896 99       		.byte	0x99
 1105 0897 22       		.uleb128 0x22
 1106 0898 B9030000 		.long	0x3b9
 1107 089c 22       		.uleb128 0x22
 1108 089d 08020000 		.long	0x208
 1109 08a1 00       		.byte	0
 1110 08a2 00       		.byte	0
 1111              		.section	.debug_abbrev,"dr"
 1112              	Ldebug_abbrev0:
 1113 0000 01       		.uleb128 0x1
 1114 0001 11       		.uleb128 0x11
 1115 0002 01       		.byte	0x1
 1116 0003 25       		.uleb128 0x25
 1117 0004 08       		.uleb128 0x8
 1118 0005 13       		.uleb128 0x13
 1119 0006 0B       		.uleb128 0xb
 1120 0007 03       		.uleb128 0x3
 1121 0008 08       		.uleb128 0x8
 1122 0009 1B       		.uleb128 0x1b
 1123 000a 08       		.uleb128 0x8
 1124 000b 11       		.uleb128 0x11
 1125 000c 01       		.uleb128 0x1
 1126 000d 12       		.uleb128 0x12
 1127 000e 06       		.uleb128 0x6
 1128 000f 10       		.uleb128 0x10
 1129 0010 17       		.uleb128 0x17
 1130 0011 00       		.byte	0
 1131 0012 00       		.byte	0
 1132 0013 02       		.uleb128 0x2
 1133 0014 24       		.uleb128 0x24
 1134 0015 00       		.byte	0
 1135 0016 0B       		.uleb128 0xb
 1136 0017 0B       		.uleb128 0xb
 1137 0018 3E       		.uleb128 0x3e
 1138 0019 0B       		.uleb128 0xb
 1139 001a 03       		.uleb128 0x3
GAS LISTING /cygdrive/c/DOCUME~1/andrey/LOCALS~1/Temp/ccIj26Ni.s 			page 24


 1140 001b 08       		.uleb128 0x8
 1141 001c 00       		.byte	0
 1142 001d 00       		.byte	0
 1143 001e 03       		.uleb128 0x3
 1144 001f 16       		.uleb128 0x16
 1145 0020 00       		.byte	0
 1146 0021 03       		.uleb128 0x3
 1147 0022 08       		.uleb128 0x8
 1148 0023 3A       		.uleb128 0x3a
 1149 0024 0B       		.uleb128 0xb
 1150 0025 3B       		.uleb128 0x3b
 1151 0026 0B       		.uleb128 0xb
 1152 0027 49       		.uleb128 0x49
 1153 0028 13       		.uleb128 0x13
 1154 0029 00       		.byte	0
 1155 002a 00       		.byte	0
 1156 002b 04       		.uleb128 0x4
 1157 002c 13       		.uleb128 0x13
 1158 002d 01       		.byte	0x1
 1159 002e 03       		.uleb128 0x3
 1160 002f 08       		.uleb128 0x8
 1161 0030 0B       		.uleb128 0xb
 1162 0031 0B       		.uleb128 0xb
 1163 0032 3A       		.uleb128 0x3a
 1164 0033 0B       		.uleb128 0xb
 1165 0034 3B       		.uleb128 0x3b
 1166 0035 0B       		.uleb128 0xb
 1167 0036 01       		.uleb128 0x1
 1168 0037 13       		.uleb128 0x13
 1169 0038 00       		.byte	0
 1170 0039 00       		.byte	0
 1171 003a 05       		.uleb128 0x5
 1172 003b 0D       		.uleb128 0xd
 1173 003c 00       		.byte	0
 1174 003d 03       		.uleb128 0x3
 1175 003e 0E       		.uleb128 0xe
 1176 003f 3A       		.uleb128 0x3a
 1177 0040 0B       		.uleb128 0xb
 1178 0041 3B       		.uleb128 0x3b
 1179 0042 0B       		.uleb128 0xb
 1180 0043 49       		.uleb128 0x49
 1181 0044 13       		.uleb128 0x13
 1182 0045 38       		.uleb128 0x38
 1183 0046 0B       		.uleb128 0xb
 1184 0047 00       		.byte	0
 1185 0048 00       		.byte	0
 1186 0049 06       		.uleb128 0x6
 1187 004a 0D       		.uleb128 0xd
 1188 004b 00       		.byte	0
 1189 004c 03       		.uleb128 0x3
 1190 004d 08       		.uleb128 0x8
 1191 004e 3A       		.uleb128 0x3a
 1192 004f 0B       		.uleb128 0xb
 1193 0050 3B       		.uleb128 0x3b
 1194 0051 0B       		.uleb128 0xb
 1195 0052 49       		.uleb128 0x49
 1196 0053 13       		.uleb128 0x13
GAS LISTING /cygdrive/c/DOCUME~1/andrey/LOCALS~1/Temp/ccIj26Ni.s 			page 25


 1197 0054 38       		.uleb128 0x38
 1198 0055 0B       		.uleb128 0xb
 1199 0056 00       		.byte	0
 1200 0057 00       		.byte	0
 1201 0058 07       		.uleb128 0x7
 1202 0059 13       		.uleb128 0x13
 1203 005a 01       		.byte	0x1
 1204 005b 0B       		.uleb128 0xb
 1205 005c 0B       		.uleb128 0xb
 1206 005d 3A       		.uleb128 0x3a
 1207 005e 0B       		.uleb128 0xb
 1208 005f 3B       		.uleb128 0x3b
 1209 0060 0B       		.uleb128 0xb
 1210 0061 01       		.uleb128 0x1
 1211 0062 13       		.uleb128 0x13
 1212 0063 00       		.byte	0
 1213 0064 00       		.byte	0
 1214 0065 08       		.uleb128 0x8
 1215 0066 0F       		.uleb128 0xf
 1216 0067 00       		.byte	0
 1217 0068 0B       		.uleb128 0xb
 1218 0069 0B       		.uleb128 0xb
 1219 006a 49       		.uleb128 0x49
 1220 006b 13       		.uleb128 0x13
 1221 006c 00       		.byte	0
 1222 006d 00       		.byte	0
 1223 006e 09       		.uleb128 0x9
 1224 006f 0F       		.uleb128 0xf
 1225 0070 00       		.byte	0
 1226 0071 0B       		.uleb128 0xb
 1227 0072 0B       		.uleb128 0xb
 1228 0073 00       		.byte	0
 1229 0074 00       		.byte	0
 1230 0075 0A       		.uleb128 0xa
 1231 0076 35       		.uleb128 0x35
 1232 0077 00       		.byte	0
 1233 0078 49       		.uleb128 0x49
 1234 0079 13       		.uleb128 0x13
 1235 007a 00       		.byte	0
 1236 007b 00       		.byte	0
 1237 007c 0B       		.uleb128 0xb
 1238 007d 17       		.uleb128 0x17
 1239 007e 01       		.byte	0x1
 1240 007f 0B       		.uleb128 0xb
 1241 0080 0B       		.uleb128 0xb
 1242 0081 3A       		.uleb128 0x3a
 1243 0082 0B       		.uleb128 0xb
 1244 0083 3B       		.uleb128 0x3b
 1245 0084 0B       		.uleb128 0xb
 1246 0085 01       		.uleb128 0x1
 1247 0086 13       		.uleb128 0x13
 1248 0087 00       		.byte	0
 1249 0088 00       		.byte	0
 1250 0089 0C       		.uleb128 0xc
 1251 008a 0D       		.uleb128 0xd
 1252 008b 00       		.byte	0
 1253 008c 03       		.uleb128 0x3
GAS LISTING /cygdrive/c/DOCUME~1/andrey/LOCALS~1/Temp/ccIj26Ni.s 			page 26


 1254 008d 08       		.uleb128 0x8
 1255 008e 3A       		.uleb128 0x3a
 1256 008f 0B       		.uleb128 0xb
 1257 0090 3B       		.uleb128 0x3b
 1258 0091 0B       		.uleb128 0xb
 1259 0092 49       		.uleb128 0x49
 1260 0093 13       		.uleb128 0x13
 1261 0094 00       		.byte	0
 1262 0095 00       		.byte	0
 1263 0096 0D       		.uleb128 0xd
 1264 0097 26       		.uleb128 0x26
 1265 0098 00       		.byte	0
 1266 0099 49       		.uleb128 0x49
 1267 009a 13       		.uleb128 0x13
 1268 009b 00       		.byte	0
 1269 009c 00       		.byte	0
 1270 009d 0E       		.uleb128 0xe
 1271 009e 2E       		.uleb128 0x2e
 1272 009f 01       		.byte	0x1
 1273 00a0 03       		.uleb128 0x3
 1274 00a1 08       		.uleb128 0x8
 1275 00a2 3A       		.uleb128 0x3a
 1276 00a3 0B       		.uleb128 0xb
 1277 00a4 3B       		.uleb128 0x3b
 1278 00a5 0B       		.uleb128 0xb
 1279 00a6 27       		.uleb128 0x27
 1280 00a7 19       		.uleb128 0x19
 1281 00a8 20       		.uleb128 0x20
 1282 00a9 0B       		.uleb128 0xb
 1283 00aa 01       		.uleb128 0x1
 1284 00ab 13       		.uleb128 0x13
 1285 00ac 00       		.byte	0
 1286 00ad 00       		.byte	0
 1287 00ae 0F       		.uleb128 0xf
 1288 00af 05       		.uleb128 0x5
 1289 00b0 00       		.byte	0
 1290 00b1 03       		.uleb128 0x3
 1291 00b2 08       		.uleb128 0x8
 1292 00b3 3A       		.uleb128 0x3a
 1293 00b4 0B       		.uleb128 0xb
 1294 00b5 3B       		.uleb128 0x3b
 1295 00b6 0B       		.uleb128 0xb
 1296 00b7 49       		.uleb128 0x49
 1297 00b8 13       		.uleb128 0x13
 1298 00b9 00       		.byte	0
 1299 00ba 00       		.byte	0
 1300 00bb 10       		.uleb128 0x10
 1301 00bc 2E       		.uleb128 0x2e
 1302 00bd 01       		.byte	0x1
 1303 00be 03       		.uleb128 0x3
 1304 00bf 08       		.uleb128 0x8
 1305 00c0 3A       		.uleb128 0x3a
 1306 00c1 0B       		.uleb128 0xb
 1307 00c2 3B       		.uleb128 0x3b
 1308 00c3 0B       		.uleb128 0xb
 1309 00c4 27       		.uleb128 0x27
 1310 00c5 19       		.uleb128 0x19
GAS LISTING /cygdrive/c/DOCUME~1/andrey/LOCALS~1/Temp/ccIj26Ni.s 			page 27


 1311 00c6 49       		.uleb128 0x49
 1312 00c7 13       		.uleb128 0x13
 1313 00c8 20       		.uleb128 0x20
 1314 00c9 0B       		.uleb128 0xb
 1315 00ca 01       		.uleb128 0x1
 1316 00cb 13       		.uleb128 0x13
 1317 00cc 00       		.byte	0
 1318 00cd 00       		.byte	0
 1319 00ce 11       		.uleb128 0x11
 1320 00cf 34       		.uleb128 0x34
 1321 00d0 00       		.byte	0
 1322 00d1 03       		.uleb128 0x3
 1323 00d2 08       		.uleb128 0x8
 1324 00d3 3A       		.uleb128 0x3a
 1325 00d4 0B       		.uleb128 0xb
 1326 00d5 3B       		.uleb128 0x3b
 1327 00d6 0B       		.uleb128 0xb
 1328 00d7 49       		.uleb128 0x49
 1329 00d8 13       		.uleb128 0x13
 1330 00d9 00       		.byte	0
 1331 00da 00       		.byte	0
 1332 00db 12       		.uleb128 0x12
 1333 00dc 2E       		.uleb128 0x2e
 1334 00dd 01       		.byte	0x1
 1335 00de 3F       		.uleb128 0x3f
 1336 00df 19       		.uleb128 0x19
 1337 00e0 03       		.uleb128 0x3
 1338 00e1 08       		.uleb128 0x8
 1339 00e2 3A       		.uleb128 0x3a
 1340 00e3 0B       		.uleb128 0xb
 1341 00e4 3B       		.uleb128 0x3b
 1342 00e5 0B       		.uleb128 0xb
 1343 00e6 27       		.uleb128 0x27
 1344 00e7 19       		.uleb128 0x19
 1345 00e8 49       		.uleb128 0x49
 1346 00e9 13       		.uleb128 0x13
 1347 00ea 11       		.uleb128 0x11
 1348 00eb 01       		.uleb128 0x1
 1349 00ec 12       		.uleb128 0x12
 1350 00ed 06       		.uleb128 0x6
 1351 00ee 40       		.uleb128 0x40
 1352 00ef 18       		.uleb128 0x18
 1353 00f0 9742     		.uleb128 0x2117
 1354 00f2 19       		.uleb128 0x19
 1355 00f3 01       		.uleb128 0x1
 1356 00f4 13       		.uleb128 0x13
 1357 00f5 00       		.byte	0
 1358 00f6 00       		.byte	0
 1359 00f7 13       		.uleb128 0x13
 1360 00f8 05       		.uleb128 0x5
 1361 00f9 00       		.byte	0
 1362 00fa 03       		.uleb128 0x3
 1363 00fb 08       		.uleb128 0x8
 1364 00fc 3A       		.uleb128 0x3a
 1365 00fd 0B       		.uleb128 0xb
 1366 00fe 3B       		.uleb128 0x3b
 1367 00ff 0B       		.uleb128 0xb
GAS LISTING /cygdrive/c/DOCUME~1/andrey/LOCALS~1/Temp/ccIj26Ni.s 			page 28


 1368 0100 49       		.uleb128 0x49
 1369 0101 13       		.uleb128 0x13
 1370 0102 02       		.uleb128 0x2
 1371 0103 18       		.uleb128 0x18
 1372 0104 00       		.byte	0
 1373 0105 00       		.byte	0
 1374 0106 14       		.uleb128 0x14
 1375 0107 05       		.uleb128 0x5
 1376 0108 00       		.byte	0
 1377 0109 03       		.uleb128 0x3
 1378 010a 08       		.uleb128 0x8
 1379 010b 3A       		.uleb128 0x3a
 1380 010c 0B       		.uleb128 0xb
 1381 010d 3B       		.uleb128 0x3b
 1382 010e 0B       		.uleb128 0xb
 1383 010f 49       		.uleb128 0x49
 1384 0110 13       		.uleb128 0x13
 1385 0111 02       		.uleb128 0x2
 1386 0112 17       		.uleb128 0x17
 1387 0113 00       		.byte	0
 1388 0114 00       		.byte	0
 1389 0115 15       		.uleb128 0x15
 1390 0116 34       		.uleb128 0x34
 1391 0117 00       		.byte	0
 1392 0118 03       		.uleb128 0x3
 1393 0119 08       		.uleb128 0x8
 1394 011a 3A       		.uleb128 0x3a
 1395 011b 0B       		.uleb128 0xb
 1396 011c 3B       		.uleb128 0x3b
 1397 011d 0B       		.uleb128 0xb
 1398 011e 49       		.uleb128 0x49
 1399 011f 13       		.uleb128 0x13
 1400 0120 02       		.uleb128 0x2
 1401 0121 17       		.uleb128 0x17
 1402 0122 00       		.byte	0
 1403 0123 00       		.byte	0
 1404 0124 16       		.uleb128 0x16
 1405 0125 1D       		.uleb128 0x1d
 1406 0126 01       		.byte	0x1
 1407 0127 31       		.uleb128 0x31
 1408 0128 13       		.uleb128 0x13
 1409 0129 11       		.uleb128 0x11
 1410 012a 01       		.uleb128 0x1
 1411 012b 12       		.uleb128 0x12
 1412 012c 06       		.uleb128 0x6
 1413 012d 58       		.uleb128 0x58
 1414 012e 0B       		.uleb128 0xb
 1415 012f 59       		.uleb128 0x59
 1416 0130 0B       		.uleb128 0xb
 1417 0131 01       		.uleb128 0x1
 1418 0132 13       		.uleb128 0x13
 1419 0133 00       		.byte	0
 1420 0134 00       		.byte	0
 1421 0135 17       		.uleb128 0x17
 1422 0136 05       		.uleb128 0x5
 1423 0137 00       		.byte	0
 1424 0138 31       		.uleb128 0x31
GAS LISTING /cygdrive/c/DOCUME~1/andrey/LOCALS~1/Temp/ccIj26Ni.s 			page 29


 1425 0139 13       		.uleb128 0x13
 1426 013a 02       		.uleb128 0x2
 1427 013b 17       		.uleb128 0x17
 1428 013c 00       		.byte	0
 1429 013d 00       		.byte	0
 1430 013e 18       		.uleb128 0x18
 1431 013f 898201   		.uleb128 0x4109
 1432 0142 00       		.byte	0
 1433 0143 11       		.uleb128 0x11
 1434 0144 01       		.uleb128 0x1
 1435 0145 31       		.uleb128 0x31
 1436 0146 13       		.uleb128 0x13
 1437 0147 00       		.byte	0
 1438 0148 00       		.byte	0
 1439 0149 19       		.uleb128 0x19
 1440 014a 898201   		.uleb128 0x4109
 1441 014d 01       		.byte	0x1
 1442 014e 11       		.uleb128 0x11
 1443 014f 01       		.uleb128 0x1
 1444 0150 31       		.uleb128 0x31
 1445 0151 13       		.uleb128 0x13
 1446 0152 01       		.uleb128 0x1
 1447 0153 13       		.uleb128 0x13
 1448 0154 00       		.byte	0
 1449 0155 00       		.byte	0
 1450 0156 1A       		.uleb128 0x1a
 1451 0157 8A8201   		.uleb128 0x410a
 1452 015a 00       		.byte	0
 1453 015b 02       		.uleb128 0x2
 1454 015c 18       		.uleb128 0x18
 1455 015d 9142     		.uleb128 0x2111
 1456 015f 18       		.uleb128 0x18
 1457 0160 00       		.byte	0
 1458 0161 00       		.byte	0
 1459 0162 1B       		.uleb128 0x1b
 1460 0163 898201   		.uleb128 0x4109
 1461 0166 01       		.byte	0x1
 1462 0167 11       		.uleb128 0x11
 1463 0168 01       		.uleb128 0x1
 1464 0169 31       		.uleb128 0x31
 1465 016a 13       		.uleb128 0x13
 1466 016b 00       		.byte	0
 1467 016c 00       		.byte	0
 1468 016d 1C       		.uleb128 0x1c
 1469 016e 0B       		.uleb128 0xb
 1470 016f 01       		.byte	0x1
 1471 0170 11       		.uleb128 0x11
 1472 0171 01       		.uleb128 0x1
 1473 0172 12       		.uleb128 0x12
 1474 0173 06       		.uleb128 0x6
 1475 0174 00       		.byte	0
 1476 0175 00       		.byte	0
 1477 0176 1D       		.uleb128 0x1d
 1478 0177 34       		.uleb128 0x34
 1479 0178 00       		.byte	0
 1480 0179 31       		.uleb128 0x31
 1481 017a 13       		.uleb128 0x13
GAS LISTING /cygdrive/c/DOCUME~1/andrey/LOCALS~1/Temp/ccIj26Ni.s 			page 30


 1482 017b 02       		.uleb128 0x2
 1483 017c 17       		.uleb128 0x17
 1484 017d 00       		.byte	0
 1485 017e 00       		.byte	0
 1486 017f 1E       		.uleb128 0x1e
 1487 0180 2E       		.uleb128 0x2e
 1488 0181 01       		.byte	0x1
 1489 0182 3F       		.uleb128 0x3f
 1490 0183 19       		.uleb128 0x19
 1491 0184 03       		.uleb128 0x3
 1492 0185 08       		.uleb128 0x8
 1493 0186 3A       		.uleb128 0x3a
 1494 0187 0B       		.uleb128 0xb
 1495 0188 3B       		.uleb128 0x3b
 1496 0189 0B       		.uleb128 0xb
 1497 018a 27       		.uleb128 0x27
 1498 018b 19       		.uleb128 0x19
 1499 018c 11       		.uleb128 0x11
 1500 018d 01       		.uleb128 0x1
 1501 018e 12       		.uleb128 0x12
 1502 018f 06       		.uleb128 0x6
 1503 0190 40       		.uleb128 0x40
 1504 0191 18       		.uleb128 0x18
 1505 0192 9742     		.uleb128 0x2117
 1506 0194 19       		.uleb128 0x19
 1507 0195 01       		.uleb128 0x1
 1508 0196 13       		.uleb128 0x13
 1509 0197 00       		.byte	0
 1510 0198 00       		.byte	0
 1511 0199 1F       		.uleb128 0x1f
 1512 019a 34       		.uleb128 0x34
 1513 019b 00       		.byte	0
 1514 019c 03       		.uleb128 0x3
 1515 019d 08       		.uleb128 0x8
 1516 019e 3A       		.uleb128 0x3a
 1517 019f 0B       		.uleb128 0xb
 1518 01a0 3B       		.uleb128 0x3b
 1519 01a1 0B       		.uleb128 0xb
 1520 01a2 49       		.uleb128 0x49
 1521 01a3 13       		.uleb128 0x13
 1522 01a4 3F       		.uleb128 0x3f
 1523 01a5 19       		.uleb128 0x19
 1524 01a6 3C       		.uleb128 0x3c
 1525 01a7 19       		.uleb128 0x19
 1526 01a8 00       		.byte	0
 1527 01a9 00       		.byte	0
 1528 01aa 20       		.uleb128 0x20
 1529 01ab 2E       		.uleb128 0x2e
 1530 01ac 00       		.byte	0
 1531 01ad 3F       		.uleb128 0x3f
 1532 01ae 19       		.uleb128 0x19
 1533 01af 03       		.uleb128 0x3
 1534 01b0 08       		.uleb128 0x8
 1535 01b1 3A       		.uleb128 0x3a
 1536 01b2 0B       		.uleb128 0xb
 1537 01b3 3B       		.uleb128 0x3b
 1538 01b4 0B       		.uleb128 0xb
GAS LISTING /cygdrive/c/DOCUME~1/andrey/LOCALS~1/Temp/ccIj26Ni.s 			page 31


 1539 01b5 27       		.uleb128 0x27
 1540 01b6 19       		.uleb128 0x19
 1541 01b7 3C       		.uleb128 0x3c
 1542 01b8 19       		.uleb128 0x19
 1543 01b9 00       		.byte	0
 1544 01ba 00       		.byte	0
 1545 01bb 21       		.uleb128 0x21
 1546 01bc 2E       		.uleb128 0x2e
 1547 01bd 01       		.byte	0x1
 1548 01be 3F       		.uleb128 0x3f
 1549 01bf 19       		.uleb128 0x19
 1550 01c0 03       		.uleb128 0x3
 1551 01c1 08       		.uleb128 0x8
 1552 01c2 3A       		.uleb128 0x3a
 1553 01c3 0B       		.uleb128 0xb
 1554 01c4 3B       		.uleb128 0x3b
 1555 01c5 0B       		.uleb128 0xb
 1556 01c6 27       		.uleb128 0x27
 1557 01c7 19       		.uleb128 0x19
 1558 01c8 3C       		.uleb128 0x3c
 1559 01c9 19       		.uleb128 0x19
 1560 01ca 01       		.uleb128 0x1
 1561 01cb 13       		.uleb128 0x13
 1562 01cc 00       		.byte	0
 1563 01cd 00       		.byte	0
 1564 01ce 22       		.uleb128 0x22
 1565 01cf 05       		.uleb128 0x5
 1566 01d0 00       		.byte	0
 1567 01d1 49       		.uleb128 0x49
 1568 01d2 13       		.uleb128 0x13
 1569 01d3 00       		.byte	0
 1570 01d4 00       		.byte	0
 1571 01d5 23       		.uleb128 0x23
 1572 01d6 2E       		.uleb128 0x2e
 1573 01d7 01       		.byte	0x1
 1574 01d8 3F       		.uleb128 0x3f
 1575 01d9 19       		.uleb128 0x19
 1576 01da 03       		.uleb128 0x3
 1577 01db 08       		.uleb128 0x8
 1578 01dc 3A       		.uleb128 0x3a
 1579 01dd 0B       		.uleb128 0xb
 1580 01de 3B       		.uleb128 0x3b
 1581 01df 0B       		.uleb128 0xb
 1582 01e0 27       		.uleb128 0x27
 1583 01e1 19       		.uleb128 0x19
 1584 01e2 49       		.uleb128 0x49
 1585 01e3 13       		.uleb128 0x13
 1586 01e4 3C       		.uleb128 0x3c
 1587 01e5 19       		.uleb128 0x19
 1588 01e6 01       		.uleb128 0x1
 1589 01e7 13       		.uleb128 0x13
 1590 01e8 00       		.byte	0
 1591 01e9 00       		.byte	0
 1592 01ea 24       		.uleb128 0x24
 1593 01eb 2E       		.uleb128 0x2e
 1594 01ec 01       		.byte	0x1
 1595 01ed 3F       		.uleb128 0x3f
GAS LISTING /cygdrive/c/DOCUME~1/andrey/LOCALS~1/Temp/ccIj26Ni.s 			page 32


 1596 01ee 19       		.uleb128 0x19
 1597 01ef 03       		.uleb128 0x3
 1598 01f0 08       		.uleb128 0x8
 1599 01f1 3A       		.uleb128 0x3a
 1600 01f2 0B       		.uleb128 0xb
 1601 01f3 3B       		.uleb128 0x3b
 1602 01f4 0B       		.uleb128 0xb
 1603 01f5 27       		.uleb128 0x27
 1604 01f6 19       		.uleb128 0x19
 1605 01f7 3C       		.uleb128 0x3c
 1606 01f8 19       		.uleb128 0x19
 1607 01f9 00       		.byte	0
 1608 01fa 00       		.byte	0
 1609 01fb 00       		.byte	0
 1610              		.section	.debug_loc,"dr"
 1611              	Ldebug_loc0:
 1612              	LLST0:
 1613 0000 00000000 		.long	LVL0-Ltext0
 1614 0004 48000000 		.long	LVL7-Ltext0
 1615 0008 0200     		.word	0x2
 1616 000a 91       		.byte	0x91
 1617 000b 04       		.sleb128 4
 1618 000c 48000000 		.long	LVL7-Ltext0
 1619 0010 54000000 		.long	LVL9-Ltext0
 1620 0014 0100     		.word	0x1
 1621 0016 53       		.byte	0x53
 1622 0017 54000000 		.long	LVL9-Ltext0
 1623 001b 56000000 		.long	LVL11-Ltext0
 1624 001f 0100     		.word	0x1
 1625 0021 50       		.byte	0x50
 1626 0022 56000000 		.long	LVL11-Ltext0
 1627 0026 7E000000 		.long	LFE7-Ltext0
 1628 002a 0200     		.word	0x2
 1629 002c 91       		.byte	0x91
 1630 002d 04       		.sleb128 4
 1631 002e 00000000 		.long	0
 1632 0032 00000000 		.long	0
 1633              	LLST1:
 1634 0036 0B000000 		.long	LVL1-Ltext0
 1635 003a 48000000 		.long	LVL7-Ltext0
 1636 003e 0100     		.word	0x1
 1637 0040 53       		.byte	0x53
 1638 0041 56000000 		.long	LVL11-Ltext0
 1639 0045 7E000000 		.long	LFE7-Ltext0
 1640 0049 0100     		.word	0x1
 1641 004b 53       		.byte	0x53
 1642 004c 00000000 		.long	0
 1643 0050 00000000 		.long	0
 1644              	LLST2:
 1645 0054 2A000000 		.long	LVL3-Ltext0
 1646 0058 2F000000 		.long	LVL4-Ltext0
 1647 005c 0100     		.word	0x1
 1648 005e 50       		.byte	0x50
 1649 005f 2F000000 		.long	LVL4-Ltext0
 1650 0063 37000000 		.long	LVL5-Ltext0
 1651 0067 0200     		.word	0x2
 1652 0069 73       		.byte	0x73
GAS LISTING /cygdrive/c/DOCUME~1/andrey/LOCALS~1/Temp/ccIj26Ni.s 			page 33


 1653 006a 00       		.sleb128 0
 1654 006b 37000000 		.long	LVL5-Ltext0
 1655 006f 55000000 		.long	LVL10-Ltext0
 1656 0073 0300     		.word	0x3
 1657 0075 76       		.byte	0x76
 1658 0076 2C       		.sleb128 44
 1659 0077 9F       		.byte	0x9f
 1660 0078 55000000 		.long	LVL10-Ltext0
 1661 007c 56000000 		.long	LVL11-Ltext0
 1662 0080 0600     		.word	0x6
 1663 0082 91       		.byte	0x91
 1664 0083 00       		.sleb128 0
 1665 0084 06       		.byte	0x6
 1666 0085 23       		.byte	0x23
 1667 0086 2C       		.uleb128 0x2c
 1668 0087 9F       		.byte	0x9f
 1669 0088 56000000 		.long	LVL11-Ltext0
 1670 008c 60000000 		.long	LVL13-Ltext0
 1671 0090 0300     		.word	0x3
 1672 0092 76       		.byte	0x76
 1673 0093 2C       		.sleb128 44
 1674 0094 9F       		.byte	0x9f
 1675 0095 00000000 		.long	0
 1676 0099 00000000 		.long	0
 1677              	LLST3:
 1678 009d 2A000000 		.long	LVL3-Ltext0
 1679 00a1 48000000 		.long	LVL7-Ltext0
 1680 00a5 0100     		.word	0x1
 1681 00a7 53       		.byte	0x53
 1682 00a8 56000000 		.long	LVL11-Ltext0
 1683 00ac 60000000 		.long	LVL13-Ltext0
 1684 00b0 0100     		.word	0x1
 1685 00b2 53       		.byte	0x53
 1686 00b3 00000000 		.long	0
 1687 00b7 00000000 		.long	0
 1688              	LLST4:
 1689 00bb 99000000 		.long	LVL16-Ltext0
 1690 00bf A9000000 		.long	LVL17-1-Ltext0
 1691 00c3 0100     		.word	0x1
 1692 00c5 52       		.byte	0x52
 1693 00c6 00000000 		.long	0
 1694 00ca 00000000 		.long	0
 1695              	LLST5:
 1696 00ce 99000000 		.long	LVL16-Ltext0
 1697 00d2 B1000000 		.long	LVL18-Ltext0
 1698 00d6 0100     		.word	0x1
 1699 00d8 53       		.byte	0x53
 1700 00d9 B1000000 		.long	LVL18-Ltext0
 1701 00dd B2000000 		.long	LVL19-Ltext0
 1702 00e1 0100     		.word	0x1
 1703 00e3 50       		.byte	0x50
 1704 00e4 00000000 		.long	0
 1705 00e8 00000000 		.long	0
 1706              		.section	.debug_aranges,"dr"
 1707 0000 1C000000 		.long	0x1c
 1708 0004 0200     		.word	0x2
 1709 0006 00000000 		.secrel32	Ldebug_info0
GAS LISTING /cygdrive/c/DOCUME~1/andrey/LOCALS~1/Temp/ccIj26Ni.s 			page 34


 1710 000a 04       		.byte	0x4
 1711 000b 00       		.byte	0
 1712 000c 0000     		.word	0
 1713 000e 0000     		.word	0
 1714 0010 00000000 		.long	Ltext0
 1715 0014 1B010000 		.long	Letext0-Ltext0
 1716 0018 00000000 		.long	0
 1717 001c 00000000 		.long	0
 1718              		.section	.debug_line,"dr"
 1719              	Ldebug_line0:
 1720 0000 6A010000 		.section	.debug_str,"dr"
 1720      02000F01 
 1720      00000101 
 1720      FB0E0D00 
 1720      01010101 
 1721              	LASF0:
 1722 0000 705F6E65 		.ascii "p_next\0"
 1722      787400
 1723              		.ident	"GCC: (GNU) 4.8.2"
 1724              		.def	_dbg_check_lock;	.scl	2;	.type	32;	.endef
 1725              		.def	_chSchGoSleepS;	.scl	2;	.type	32;	.endef
 1726              		.def	_dbg_check_unlock;	.scl	2;	.type	32;	.endef
 1727              		.def	_chSchReadyI;	.scl	2;	.type	32;	.endef
 1728              		.def	_chDbgPanic;	.scl	2;	.type	32;	.endef
 1729              		.def	_chSchWakeupS;	.scl	2;	.type	32;	.endef
GAS LISTING /cygdrive/c/DOCUME~1/andrey/LOCALS~1/Temp/ccIj26Ni.s 			page 35


DEFINED SYMBOLS
                            *ABS*:00000000 chmsg.c
/cygdrive/c/DOCUME~1/andrey/LOCALS~1/Temp/ccIj26Ni.s:77     .text:00000000 _chMsgSend
/cygdrive/c/DOCUME~1/andrey/LOCALS~1/Temp/ccIj26Ni.s:189    .text:00000080 _chMsgWait
/cygdrive/c/DOCUME~1/andrey/LOCALS~1/Temp/ccIj26Ni.s:263    .text:000000d0 _chMsgRelease

UNDEFINED SYMBOLS
_rlist
_dbg_check_lock
_chSchGoSleepS
_dbg_check_unlock
_chSchReadyI
_chDbgPanic
_chSchWakeupS
