GAS LISTING /cygdrive/c/DOCUME~1/andrey/LOCALS~1/Temp/ccIj26Ni.s 			page 1


   1              		.file	"chmsg.c"
   2              	 # GNU C (GCC) version 4.8.2 (i686-pc-cygwin)
   3              	 #	compiled by GNU C version 4.8.2, GMP version 5.1.3, MPFR version 3.1.2, MPC version 1.0.1
   4              	 # GGC heuristics: --param ggc-min-expand=100 --param ggc-min-heapsize=131072
   5              	 # options passed:  -I . -I ../firmware/chibios/os/ports/GCC/SIMIA32
   6              	 # -I ../firmware/chibios/os/kernel/include
   7              	 # -I ../firmware/chibios/os/hal/include
   8              	 # -I ../firmware/chibios/os/hal/platforms/Win32
   9              	 # -I ../firmware/chibios/boards/simulator -I ../firmware/util
  10              	 # -I ../firmware/console -I ../firmware/console_util
  11              	 # -I ../firmware/config/engines -I ../firmware/ext_algo
  12              	 # -I ../firmware/controllers/sensors -I ../firmware/controllers/system
  13              	 # -I ../firmware/controllers/algo -I ../firmware/controllers/math
  14              	 # -I ../firmware/controllers/trigger -I ../firmware/chibios/os/various
  15              	 # -MD ../firmware/chibios/os/kernel/src/chmsg.d -MF .dep/chmsg.o.d -MP
  16              	 # -MQ ../firmware/chibios/os/kernel/src/chmsg.o -Dunix
  17              	 # -idirafter /usr/lib/gcc/i686-pc-cygwin/4.8.2/../../../../include/w32api
  18              	 # -idirafter ../../include/w32api -D SIMULATOR -D SHELL_USE_IPRINTF=FALSE
  19              	 # ../firmware/chibios/os/kernel/src/chmsg.c -mtune=generic -march=i686
  20              	 # -auxbase-strip ../firmware/chibios/os/kernel/src/chmsg.o -ggdb -O2 -Wall
  21              	 # -Wextra -Wstrict-prototypes -std=gnu99 -fomit-frame-pointer
  22              	 # -fgnu89-inline -fverbose-asm
  23              	 # options enabled:  -faggressive-loop-optimizations
  24              	 # -fasynchronous-unwind-tables -fauto-inc-dec -fbranch-count-reg
  25              	 # -fcaller-saves -fcombine-stack-adjustments -fcommon -fcompare-elim
  26              	 # -fcprop-registers -fcrossjumping -fcse-follow-jumps -fdefer-pop
  27              	 # -fdelete-null-pointer-checks -fdevirtualize -fdwarf2-cfi-asm
  28              	 # -fearly-inlining -feliminate-unused-debug-types
  29              	 # -fexpensive-optimizations -fforward-propagate -ffunction-cse -fgcse
  30              	 # -fgcse-lm -fgnu-runtime -fguess-branch-probability
  31              	 # -fhoist-adjacent-loads -fident -fif-conversion -fif-conversion2
  32              	 # -findirect-inlining -finline -finline-atomics
  33              	 # -finline-functions-called-once -finline-small-functions -fipa-cp
  34              	 # -fipa-profile -fipa-pure-const -fipa-reference -fipa-sra
  35              	 # -fira-hoist-pressure -fira-share-save-slots -fira-share-spill-slots
  36              	 # -fivopts -fkeep-inline-dllexport -fkeep-static-consts
  37              	 # -fleading-underscore -fmath-errno -fmerge-constants
  38              	 # -fmerge-debug-strings -fmove-loop-invariants -fomit-frame-pointer
  39              	 # -foptimize-register-move -foptimize-sibling-calls -foptimize-strlen
  40              	 # -fpartial-inlining -fpeephole -fpeephole2 -fprefetch-loop-arrays -free
  41              	 # -freg-struct-return -fregmove -freorder-blocks -freorder-functions
  42              	 # -frerun-cse-after-loop -fsched-critical-path-heuristic
  43              	 # -fsched-dep-count-heuristic -fsched-group-heuristic -fsched-interblock
  44              	 # -fsched-last-insn-heuristic -fsched-rank-heuristic -fsched-spec
  45              	 # -fsched-spec-insn-heuristic -fsched-stalled-insns-dep -fschedule-insns2
  46              	 # -fset-stack-executable -fshow-column -fshrink-wrap -fsigned-zeros
  47              	 # -fsplit-ivs-in-unroller -fsplit-wide-types -fstrict-aliasing
  48              	 # -fstrict-overflow -fstrict-volatile-bitfields -fsync-libcalls
  49              	 # -fthread-jumps -ftoplevel-reorder -ftrapping-math -ftree-bit-ccp
  50              	 # -ftree-builtin-call-dce -ftree-ccp -ftree-ch -ftree-coalesce-vars
  51              	 # -ftree-copy-prop -ftree-copyrename -ftree-cselim -ftree-dce
  52              	 # -ftree-dominator-opts -ftree-dse -ftree-forwprop -ftree-fre
  53              	 # -ftree-loop-if-convert -ftree-loop-im -ftree-loop-ivcanon
  54              	 # -ftree-loop-optimize -ftree-parallelize-loops= -ftree-phiprop -ftree-pre
  55              	 # -ftree-pta -ftree-reassoc -ftree-scev-cprop -ftree-sink
  56              	 # -ftree-slp-vectorize -ftree-slsr -ftree-sra -ftree-switch-conversion
  57              	 # -ftree-tail-merge -ftree-ter -ftree-vect-loop-version -ftree-vrp
GAS LISTING /cygdrive/c/DOCUME~1/andrey/LOCALS~1/Temp/ccIj26Ni.s 			page 2


  58              	 # -funit-at-a-time -funwind-tables -fvar-tracking
  59              	 # -fvar-tracking-assignments -fverbose-asm -fzero-initialized-in-bss -m32
  60              	 # -m80387 -m96bit-long-double -maccumulate-outgoing-args -malign-double
  61              	 # -malign-stringops -mfancy-math-387 -mfp-ret-in-387 -mieee-fp
  62              	 # -mlong-double-80 -mno-red-zone -mno-sse4 -mpush-args -msahf
  63              	 # -mstack-arg-probe
  64              	
  65              		.text
  66              	Ltext0:
  67              		.section .rdata,"dr"
  68              		.align 4
  69              	LC0:
  70 0000 2E2E2F66 		.ascii "../firmware/chibios/os/kernel/src/chmsg.c\0"
  70      69726D77 
  70      6172652F 
  70      63686962 
  70      696F732F 
  71              	LC1:
  72 002a 2263684D 		.ascii "\"chMsgSend\"()\0"
  72      73675365 
  72      6E642228 
  72      2900
  73              		.text
  74              		.p2align 4,,15
  75              		.globl	_chMsgSend
  76              		.def	_chMsgSend;	.scl	2;	.type	32;	.endef
  77              	_chMsgSend:
  78              	LFB7:
  79              		.file 1 "../firmware/chibios/os/kernel/src/chmsg.c"
  80              		.loc 1 75 0
  81              		.cfi_startproc
  82              	LVL0:
  83 0000 56       		pushl	%esi	 #
  84              		.cfi_def_cfa_offset 8
  85              		.cfi_offset 6, -8
  86 0001 53       		pushl	%ebx	 #
  87              		.cfi_def_cfa_offset 12
  88              		.cfi_offset 3, -12
  89 0002 83EC14   		subl	$20, %esp	 #,
  90              		.cfi_def_cfa_offset 32
  91              		.loc 1 76 0
  92 0005 8B1D1800 		movl	_rlist+24, %ebx	 # rlist.r_current, ctp
  92      0000
  93              	LVL1:
  94              		.loc 1 75 0
  95 000b 8B742420 		movl	32(%esp), %esi	 # tp, tp
  96              		.loc 1 78 0
  97 000f 85F6     		testl	%esi, %esi	 # tp
  98 0011 744D     		je	L6	 #,
  99              	L2:
 100              		.loc 1 80 0
 101              	/APP
 102              	 # 80 "../firmware/chibios/os/kernel/src/chmsg.c" 1
 103 0013 90       		nop
 104              	 # 0 "" 2
 105              	/NO_APP
 106 0014 E8000000 		call	_dbg_check_lock	 #
GAS LISTING /cygdrive/c/DOCUME~1/andrey/LOCALS~1/Temp/ccIj26Ni.s 			page 3


 106      00
 107              	LVL2:
 108              		.loc 1 81 0
 109 0019 8B442424 		movl	36(%esp), %eax	 # msg, msg
 110              		.loc 1 84 0
 111 001d 807E1C0C 		cmpb	$12, 28(%esi)	 #, tp_5(D)->p_state
 112              		.loc 1 81 0
 113 0021 894334   		movl	%eax, 52(%ebx)	 # msg, ctp_4->p_msg
 114              		.loc 1 82 0
 115 0024 8D462C   		leal	44(%esi), %eax	 #, D.2075
 116 0027 894324   		movl	%eax, 36(%ebx)	 # D.2075, ctp_4->p_u.wtobjp
 117              	LVL3:
 118              	LBB6:
 119              	LBB7:
 120              		.file 2 "../firmware/chibios/os/kernel/include/chinline.h"
 121              		.loc 2 54 0
 122 002a 8903     		movl	%eax, (%ebx)	 # D.2075, ctp_4->p_next
 123              		.loc 2 55 0
 124 002c 8B4630   		movl	48(%esi), %eax	 # MEM[(struct ThreadsQueue *)tp_5(D) + 44B].p_prev, D.2077
 125              	LVL4:
 126 002f 894304   		movl	%eax, 4(%ebx)	 # D.2077, ctp_4->p_prev
 127              		.loc 2 56 0
 128 0032 895E30   		movl	%ebx, 48(%esi)	 # ctp, MEM[(struct ThreadsQueue *)tp_5(D) + 44B].p_prev
 129 0035 8918     		movl	%ebx, (%eax)	 # ctp, _18->p_next
 130              	LVL5:
 131              	LBE7:
 132              	LBE6:
 133              		.loc 1 84 0
 134 0037 741D     		je	L7	 #,
 135              	L3:
 136              		.loc 1 86 0
 137 0039 C704240A 		movl	$10, (%esp)	 #,
 137      000000
 138 0040 E8000000 		call	_chSchGoSleepS	 #
 138      00
 139              	LVL6:
 140              		.loc 1 87 0
 141 0045 8B5B24   		movl	36(%ebx), %ebx	 # ctp_4->p_u.rdymsg, msg
 142              	LVL7:
 143              		.loc 1 88 0
 144 0048 E8000000 		call	_dbg_check_unlock	 #
 144      00
 145              	LVL8:
 146              	/APP
 147              	 # 88 "../firmware/chibios/os/kernel/src/chmsg.c" 1
 148 004d 90       		nop
 149              	 # 0 "" 2
 150              		.loc 1 90 0
 151              	/NO_APP
 152 004e 83C414   		addl	$20, %esp	 #,
 153              		.cfi_remember_state
 154              		.cfi_def_cfa_offset 12
 155 0051 89D8     		movl	%ebx, %eax	 # msg,
 156 0053 5B       		popl	%ebx	 #
 157              		.cfi_restore 3
 158              		.cfi_def_cfa_offset 8
 159              	LVL9:
GAS LISTING /cygdrive/c/DOCUME~1/andrey/LOCALS~1/Temp/ccIj26Ni.s 			page 4


 160 0054 5E       		popl	%esi	 #
 161              		.cfi_restore 6
 162              		.cfi_def_cfa_offset 4
 163              	LVL10:
 164 0055 C3       		ret
 165              	LVL11:
 166              		.p2align 4,,7
 167              	L7:
 168              		.cfi_restore_state
 169              		.loc 1 85 0
 170 0056 893424   		movl	%esi, (%esp)	 # tp,
 171 0059 E8000000 		call	_chSchReadyI	 #
 171      00
 172              	LVL12:
 173 005e EBD9     		jmp	L3	 #
 174              	LVL13:
 175              		.p2align 4,,7
 176              	L6:
 177              		.loc 1 78 0 discriminator 1
 178 0060 C7442408 		movl	$78, 8(%esp)	 #,
 178      4E000000 
 179 0068 C7442404 		movl	$LC0, 4(%esp)	 #,
 179      00000000 
 180 0070 C704242A 		movl	$LC1, (%esp)	 #,
 180      000000
 181 0077 E8000000 		call	_chDbgPanic	 #
 181      00
 182              	LVL14:
 183 007c EB95     		jmp	L2	 #
 184              		.cfi_endproc
 185              	LFE7:
 186 007e 6690     		.p2align 4,,15
 187              		.globl	_chMsgWait
 188              		.def	_chMsgWait;	.scl	2;	.type	32;	.endef
 189              	_chMsgWait:
 190              	LFB8:
 191              		.loc 1 106 0
 192              		.cfi_startproc
 193 0080 53       		pushl	%ebx	 #
 194              		.cfi_def_cfa_offset 8
 195              		.cfi_offset 3, -8
 196 0081 83EC18   		subl	$24, %esp	 #,
 197              		.cfi_def_cfa_offset 32
 198              		.loc 1 109 0
 199              	/APP
 200              	 # 109 "../firmware/chibios/os/kernel/src/chmsg.c" 1
 201 0084 90       		nop
 202              	 # 0 "" 2
 203              	/NO_APP
 204 0085 E8000000 		call	_dbg_check_lock	 #
 204      00
 205              	LVL15:
 206              		.loc 1 110 0
 207 008a A1180000 		movl	_rlist+24, %eax	 # rlist.r_current, D.2082
 207      00
 208 008f 8B582C   		movl	44(%eax), %ebx	 # _4->p_msgqueue.p_next, D.2082
 209 0092 8D502C   		leal	44(%eax), %edx	 #, D.2083
GAS LISTING /cygdrive/c/DOCUME~1/andrey/LOCALS~1/Temp/ccIj26Ni.s 			page 5


 210 0095 39D3     		cmpl	%edx, %ebx	 # D.2083, D.2082
 211 0097 7419     		je	L11	 #,
 212              	L9:
 213              	LVL16:
 214              	LBB8:
 215              	LBB9:
 216              		.loc 2 62 0
 217 0099 8B0B     		movl	(%ebx), %ecx	 # _24->p_next, D.2082
 218 009b 89482C   		movl	%ecx, 44(%eax)	 # D.2082, MEM[(struct ThreadsQueue *)_20 + 44B].p_next
 219 009e 895104   		movl	%edx, 4(%ecx)	 # D.2083, _14->p_prev
 220              	LBE9:
 221              	LBE8:
 222              		.loc 1 113 0
 223 00a1 C6431C0B 		movb	$11, 28(%ebx)	 #, _24->p_state
 224              		.loc 1 114 0
 225 00a5 E8000000 		call	_dbg_check_unlock	 #
 225      00
 226              	LVL17:
 227              	/APP
 228              	 # 114 "../firmware/chibios/os/kernel/src/chmsg.c" 1
 229 00aa 90       		nop
 230              	 # 0 "" 2
 231              		.loc 1 116 0
 232              	/NO_APP
 233 00ab 83C418   		addl	$24, %esp	 #,
 234              		.cfi_remember_state
 235              		.cfi_def_cfa_offset 8
 236 00ae 89D8     		movl	%ebx, %eax	 # D.2082,
 237 00b0 5B       		popl	%ebx	 #
 238              		.cfi_restore 3
 239              		.cfi_def_cfa_offset 4
 240              	LVL18:
 241 00b1 C3       		ret
 242              	LVL19:
 243              		.p2align 4,,7
 244              	L11:
 245              		.cfi_restore_state
 246              		.loc 1 111 0
 247 00b2 C704240C 		movl	$12, (%esp)	 #,
 247      000000
 248 00b9 E8000000 		call	_chSchGoSleepS	 #
 248      00
 249              	LVL20:
 250 00be A1180000 		movl	_rlist+24, %eax	 # rlist.r_current, D.2082
 250      00
 251 00c3 8D502C   		leal	44(%eax), %edx	 #, D.2083
 252 00c6 8B582C   		movl	44(%eax), %ebx	 # MEM[(struct ThreadsQueue *)_17 + 44B].p_next, D.2082
 253 00c9 EBCE     		jmp	L9	 #
 254              		.cfi_endproc
 255              	LFE8:
 256              		.section .rdata,"dr"
 257              	LC2:
 258 0038 63684D73 		.ascii "chMsgRelease(), #1\0"
 258      6752656C 
 258      65617365 
 258      28292C20 
 258      233100
GAS LISTING /cygdrive/c/DOCUME~1/andrey/LOCALS~1/Temp/ccIj26Ni.s 			page 6


 259 004b 00       		.text
 260 00cb 908D7426 		.p2align 4,,15
 260      00
 261              		.globl	_chMsgRelease
 262              		.def	_chMsgRelease;	.scl	2;	.type	32;	.endef
 263              	_chMsgRelease:
 264              	LFB9:
 265              		.loc 1 128 0
 266              		.cfi_startproc
 267              	LVL21:
 268 00d0 53       		pushl	%ebx	 #
 269              		.cfi_def_cfa_offset 8
 270              		.cfi_offset 3, -8
 271 00d1 83EC18   		subl	$24, %esp	 #,
 272              		.cfi_def_cfa_offset 32
 273              		.loc 1 128 0
 274 00d4 8B5C2420 		movl	32(%esp), %ebx	 # tp, tp
 275              		.loc 1 130 0
 276              	/APP
 277              	 # 130 "../firmware/chibios/os/kernel/src/chmsg.c" 1
 278 00d8 90       		nop
 279              	 # 0 "" 2
 280              	/NO_APP
 281 00d9 E8000000 		call	_dbg_check_lock	 #
 281      00
 282              	LVL22:
 283              		.loc 1 131 0
 284 00de 807B1C0B 		cmpb	$11, 28(%ebx)	 #, tp_4(D)->p_state
 285 00e2 741C     		je	L13	 #,
 286              		.loc 1 131 0 is_stmt 0 discriminator 1
 287 00e4 C7442408 		movl	$132, 8(%esp)	 #,
 287      84000000 
 288 00ec C7442404 		movl	$LC0, 4(%esp)	 #,
 288      00000000 
 289 00f4 C7042438 		movl	$LC2, (%esp)	 #,
 289      000000
 290 00fb E8000000 		call	_chDbgPanic	 #
 290      00
 291              	LVL23:
 292              	L13:
 293              		.loc 1 133 0 is_stmt 1
 294 0100 8B442424 		movl	36(%esp), %eax	 # msg, msg
 295 0104 891C24   		movl	%ebx, (%esp)	 # tp,
 296 0107 89442404 		movl	%eax, 4(%esp)	 # msg,
 297 010b E8000000 		call	_chSchWakeupS	 #
 297      00
 298              	LVL24:
 299              		.loc 1 134 0
 300 0110 E8000000 		call	_dbg_check_unlock	 #
 300      00
 301              	LVL25:
 302              	/APP
 303              	 # 134 "../firmware/chibios/os/kernel/src/chmsg.c" 1
 304 0115 90       		nop
 305              	 # 0 "" 2
 306              		.loc 1 135 0
 307              	/NO_APP
GAS LISTING /cygdrive/c/DOCUME~1/andrey/LOCALS~1/Temp/ccIj26Ni.s 			page 7


 308 0116 83C418   		addl	$24, %esp	 #,
 309              		.cfi_def_cfa_offset 8
 310 0119 5B       		popl	%ebx	 #
 311              		.cfi_restore 3
 312              		.cfi_def_cfa_offset 4
 313 011a C3       		ret
 314              		.cfi_endproc
 315              	LFE9:
 316              	Letext0:
 317              		.file 3 "/usr/include/stdint.h"
 318              		.file 4 "../firmware/chibios/os/ports/GCC/SIMIA32/chtypes.h"
 319              		.file 5 "../firmware/chibios/os/kernel/include/chlists.h"
 320              		.file 6 "../firmware/chibios/os/kernel/include/chthreads.h"
 321              		.file 7 "../firmware/chibios/os/ports/GCC/SIMIA32/chcore.h"
 322              		.file 8 "../firmware/chibios/os/kernel/include/chschd.h"
 323              		.file 9 "../firmware/chibios/os/kernel/include/chmtx.h"
 324              		.file 10 "../firmware/chibios/os/kernel/include/chdebug.h"