GAS LISTING /cygdrive/c/DOCUME~1/andrey/LOCALS~1/Temp/ccMuA7oP.s 			page 1


   1              		.file	"chmtx.c"
   2              	 # GNU C (GCC) version 4.8.2 (i686-pc-cygwin)
   3              	 #	compiled by GNU C version 4.8.2, GMP version 5.1.3, MPFR version 3.1.2, MPC version 1.0.1
   4              	 # GGC heuristics: --param ggc-min-expand=100 --param ggc-min-heapsize=131072
   5              	 # options passed:  -I . -I ../firmware/chibios/os/ports/GCC/SIMIA32
   6              	 # -I ../firmware/chibios/os/kernel/include
   7              	 # -I ../firmware/chibios/os/hal/include
   8              	 # -I ../firmware/chibios/os/hal/platforms/Win32
   9              	 # -I ../firmware/chibios/boards/simulator -I ../firmware/util
  10              	 # -I ../firmware/console -I ../firmware/console_util
  11              	 # -I ../firmware/config/engines -I ../firmware/ext_algo
  12              	 # -I ../firmware/controllers/sensors -I ../firmware/controllers/system
  13              	 # -I ../firmware/controllers/algo -I ../firmware/controllers/math
  14              	 # -I ../firmware/controllers/trigger -I ../firmware/chibios/os/various
  15              	 # -MD ../firmware/chibios/os/kernel/src/chmtx.d -MF .dep/chmtx.o.d -MP
  16              	 # -MQ ../firmware/chibios/os/kernel/src/chmtx.o -Dunix
  17              	 # -idirafter /usr/lib/gcc/i686-pc-cygwin/4.8.2/../../../../include/w32api
  18              	 # -idirafter ../../include/w32api -D SIMULATOR -D SHELL_USE_IPRINTF=FALSE
  19              	 # ../firmware/chibios/os/kernel/src/chmtx.c -mtune=generic -march=i686
  20              	 # -auxbase-strip ../firmware/chibios/os/kernel/src/chmtx.o -ggdb -O2 -Wall
  21              	 # -Wextra -Wstrict-prototypes -std=gnu99 -fomit-frame-pointer
  22              	 # -fgnu89-inline -fverbose-asm
  23              	 # options enabled:  -faggressive-loop-optimizations
  24              	 # -fasynchronous-unwind-tables -fauto-inc-dec -fbranch-count-reg
  25              	 # -fcaller-saves -fcombine-stack-adjustments -fcommon -fcompare-elim
  26              	 # -fcprop-registers -fcrossjumping -fcse-follow-jumps -fdefer-pop
  27              	 # -fdelete-null-pointer-checks -fdevirtualize -fdwarf2-cfi-asm
  28              	 # -fearly-inlining -feliminate-unused-debug-types
  29              	 # -fexpensive-optimizations -fforward-propagate -ffunction-cse -fgcse
  30              	 # -fgcse-lm -fgnu-runtime -fguess-branch-probability
  31              	 # -fhoist-adjacent-loads -fident -fif-conversion -fif-conversion2
  32              	 # -findirect-inlining -finline -finline-atomics
  33              	 # -finline-functions-called-once -finline-small-functions -fipa-cp
  34              	 # -fipa-profile -fipa-pure-const -fipa-reference -fipa-sra
  35              	 # -fira-hoist-pressure -fira-share-save-slots -fira-share-spill-slots
  36              	 # -fivopts -fkeep-inline-dllexport -fkeep-static-consts
  37              	 # -fleading-underscore -fmath-errno -fmerge-constants
  38              	 # -fmerge-debug-strings -fmove-loop-invariants -fomit-frame-pointer
  39              	 # -foptimize-register-move -foptimize-sibling-calls -foptimize-strlen
  40              	 # -fpartial-inlining -fpeephole -fpeephole2 -fprefetch-loop-arrays -free
  41              	 # -freg-struct-return -fregmove -freorder-blocks -freorder-functions
  42              	 # -frerun-cse-after-loop -fsched-critical-path-heuristic
  43              	 # -fsched-dep-count-heuristic -fsched-group-heuristic -fsched-interblock
  44              	 # -fsched-last-insn-heuristic -fsched-rank-heuristic -fsched-spec
  45              	 # -fsched-spec-insn-heuristic -fsched-stalled-insns-dep -fschedule-insns2
  46              	 # -fset-stack-executable -fshow-column -fshrink-wrap -fsigned-zeros
  47              	 # -fsplit-ivs-in-unroller -fsplit-wide-types -fstrict-aliasing
  48              	 # -fstrict-overflow -fstrict-volatile-bitfields -fsync-libcalls
  49              	 # -fthread-jumps -ftoplevel-reorder -ftrapping-math -ftree-bit-ccp
  50              	 # -ftree-builtin-call-dce -ftree-ccp -ftree-ch -ftree-coalesce-vars
  51              	 # -ftree-copy-prop -ftree-copyrename -ftree-cselim -ftree-dce
  52              	 # -ftree-dominator-opts -ftree-dse -ftree-forwprop -ftree-fre
  53              	 # -ftree-loop-if-convert -ftree-loop-im -ftree-loop-ivcanon
  54              	 # -ftree-loop-optimize -ftree-parallelize-loops= -ftree-phiprop -ftree-pre
  55              	 # -ftree-pta -ftree-reassoc -ftree-scev-cprop -ftree-sink
  56              	 # -ftree-slp-vectorize -ftree-slsr -ftree-sra -ftree-switch-conversion
  57              	 # -ftree-tail-merge -ftree-ter -ftree-vect-loop-version -ftree-vrp
GAS LISTING /cygdrive/c/DOCUME~1/andrey/LOCALS~1/Temp/ccMuA7oP.s 			page 2


  58              	 # -funit-at-a-time -funwind-tables -fvar-tracking
  59              	 # -fvar-tracking-assignments -fverbose-asm -fzero-initialized-in-bss -m32
  60              	 # -m80387 -m96bit-long-double -maccumulate-outgoing-args -malign-double
  61              	 # -malign-stringops -mfancy-math-387 -mfp-ret-in-387 -mieee-fp
  62              	 # -mlong-double-80 -mno-red-zone -mno-sse4 -mpush-args -msahf
  63              	 # -mstack-arg-probe
  64              	
  65              		.text
  66              	Ltext0:
  67              		.section .rdata,"dr"
  68              		.align 4
  69              	LC0:
  70 0000 2E2E2F66 		.ascii "../firmware/chibios/os/kernel/src/chmtx.c\0"
  70      69726D77 
  70      6172652F 
  70      63686962 
  70      696F732F 
  71              	LC1:
  72 002a 2263684D 		.ascii "\"chMtxInit\"()\0"
  72      7478496E 
  72      69742228 
  72      2900
  73              		.text
  74              		.p2align 4,,15
  75              		.globl	_chMtxInit
  76              		.def	_chMtxInit;	.scl	2;	.type	32;	.endef
  77              	_chMtxInit:
  78              	LFB7:
  79              		.file 1 "../firmware/chibios/os/kernel/src/chmtx.c"
  80              		.loc 1 86 0
  81              		.cfi_startproc
  82              	LVL0:
  83 0000 53       		pushl	%ebx	 #
  84              		.cfi_def_cfa_offset 8
  85              		.cfi_offset 3, -8
  86 0001 83EC18   		subl	$24, %esp	 #,
  87              		.cfi_def_cfa_offset 32
  88              		.loc 1 86 0
  89 0004 8B5C2420 		movl	32(%esp), %ebx	 # mp, mp
  90              		.loc 1 88 0
  91 0008 85DB     		testl	%ebx, %ebx	 # mp
  92 000a 7414     		je	L5	 #,
  93              	L2:
  94              		.loc 1 90 0
  95 000c 895B04   		movl	%ebx, 4(%ebx)	 # mp, mp_2(D)->m_queue.p_prev
  96 000f 891B     		movl	%ebx, (%ebx)	 # mp, mp_2(D)->m_queue.p_next
  97              		.loc 1 91 0
  98 0011 C7430800 		movl	$0, 8(%ebx)	 #, mp_2(D)->m_owner
  98      000000
  99              		.loc 1 92 0
 100 0018 83C418   		addl	$24, %esp	 #,
 101              		.cfi_remember_state
 102              		.cfi_def_cfa_offset 8
 103 001b 5B       		popl	%ebx	 #
 104              		.cfi_restore 3
 105              		.cfi_def_cfa_offset 4
 106 001c C3       		ret
GAS LISTING /cygdrive/c/DOCUME~1/andrey/LOCALS~1/Temp/ccMuA7oP.s 			page 3


 107 001d 8D7600   		.p2align 4,,7
 108              	L5:
 109              		.cfi_restore_state
 110              		.loc 1 88 0 discriminator 1
 111 0020 C7442408 		movl	$88, 8(%esp)	 #,
 111      58000000 
 112 0028 C7442404 		movl	$LC0, 4(%esp)	 #,
 112      00000000 
 113 0030 C704242A 		movl	$LC1, (%esp)	 #,
 113      000000
 114 0037 E8000000 		call	_chDbgPanic	 #
 114      00
 115              	LVL1:
 116 003c EBCE     		jmp	L2	 #
 117              		.cfi_endproc
 118              	LFE7:
 119              		.section .rdata,"dr"
 120              	LC2:
 121 0038 2263684D 		.ascii "\"chMtxLockS\"()\0"
 121      74784C6F 
 121      636B5322 
 121      282900
 122              	LC3:
 123 0047 63684D74 		.ascii "chMtxLockS(), #1\0"
 123      784C6F63 
 123      6B532829 
 123      2C202331 
 123      00
 124              	LC4:
 125 0058 63684D74 		.ascii "chMtxLockS(), #2\0"
 125      784C6F63 
 125      6B532829 
 125      2C202332 
 125      00
 126              		.text
 127 003e 6690     		.p2align 4,,15
 128              		.globl	_chMtxLockS
 129              		.def	_chMtxLockS;	.scl	2;	.type	32;	.endef
 130              	_chMtxLockS:
 131              	LFB9:
 132              		.loc 1 121 0
 133              		.cfi_startproc
 134              	LVL2:
 135 0040 55       		pushl	%ebp	 #
 136              		.cfi_def_cfa_offset 8
 137              		.cfi_offset 5, -8
 138 0041 57       		pushl	%edi	 #
 139              		.cfi_def_cfa_offset 12
 140              		.cfi_offset 7, -12
 141 0042 56       		pushl	%esi	 #
 142              		.cfi_def_cfa_offset 16
 143              		.cfi_offset 6, -16
 144 0043 53       		pushl	%ebx	 #
 145              		.cfi_def_cfa_offset 20
 146              		.cfi_offset 3, -20
 147 0044 83EC1C   		subl	$28, %esp	 #,
 148              		.cfi_def_cfa_offset 48
GAS LISTING /cygdrive/c/DOCUME~1/andrey/LOCALS~1/Temp/ccMuA7oP.s 			page 4


 149              		.loc 1 122 0
 150 0047 8B1D1800 		movl	_rlist+24, %ebx	 # rlist.r_current, ctp
 150      0000
 151              	LVL3:
 152              		.loc 1 121 0
 153 004d 8B742430 		movl	48(%esp), %esi	 # mp, mp
 154              		.loc 1 124 0
 155 0051 E8000000 		call	_chDbgCheckClassS	 #
 155      00
 156              	LVL4:
 157              		.loc 1 125 0
 158 0056 85F6     		testl	%esi, %esi	 # mp
 159 0058 0F844801 		je	L31	 #,
 159      0000
 160              	L7:
 161              		.loc 1 128 0
 162 005e 8B5608   		movl	8(%esi), %edx	 # mp_10(D)->m_owner, tp
 163 0061 85D2     		testl	%edx, %edx	 # tp
 164 0063 0F842901 		je	L8	 #,
 164      0000
 165              	LVL5:
 166              	LBB25:
 167              		.loc 1 135 0 discriminator 1
 168 0069 8B4B08   		movl	8(%ebx), %ecx	 # ctp_8->p_prio, D.2235
 169 006c 394A08   		cmpl	%ecx, 8(%edx)	 # D.2235,
 170 006f 731B     		jae	L10	 #,
 171              	L29:
 172              		.loc 1 139 0
 173 0071 0FB6421C 		movzbl	28(%edx), %eax	 # tp_117->p_state, D.2236
 174              		.loc 1 137 0
 175 0075 894A08   		movl	%ecx, 8(%edx)	 # D.2235, tp_117->p_prio
 176              		.loc 1 139 0
 177 0078 3C04     		cmpb	$4, %al	 #, D.2236
 178 007a 0F84D300 		je	L11	 #,
 178      0000
 179 0080 3C05     		cmpb	$5, %al	 #, D.2236
 180 0082 0F849B00 		je	L12	 #,
 180      0000
 181 0088 84C0     		testb	%al, %al	 # D.2236
 182 008a 747A     		je	L32	 #,
 183              	LVL6:
 184              	L10:
 185              	LBB26:
 186              	LBB27:
 187              		.file 2 "../firmware/chibios/os/kernel/include/chinline.h"
 188              		.loc 2 43 0
 189 008c 89F0     		movl	%esi, %eax	 # mp, tqp
 190 008e 6690     		.p2align 4,,5
 191 0090 EB08     		jmp	L27	 #
 192              	LVL7:
 193              		.p2align 4,,7
 194              	L23:
 195              		.loc 2 46 0
 196 0092 8B7B08   		movl	8(%ebx), %edi	 # ctp_8->p_prio, tmp102
 197 0095 397808   		cmpl	%edi, 8(%eax)	 # tmp102, MEM[(struct Thread *)tqp_59].p_prio
 198 0098 7206     		jb	L26	 #,
 199              	L27:
GAS LISTING /cygdrive/c/DOCUME~1/andrey/LOCALS~1/Temp/ccMuA7oP.s 			page 5


 200              		.loc 2 45 0
 201 009a 8B00     		movl	(%eax), %eax	 # MEM[(struct Thread *)tqp_58].p_next, tqp
 202              	LVL8:
 203              		.loc 2 46 0
 204 009c 39C6     		cmpl	%eax, %esi	 # tqp, mp
 205 009e 75F2     		jne	L23	 #,
 206              	L26:
 207              		.loc 2 48 0
 208 00a0 8B5004   		movl	4(%eax), %edx	 # MEM[(struct Thread *)tqp_84].p_prev, D.2237
 209              		.loc 2 47 0
 210 00a3 8903     		movl	%eax, (%ebx)	 # tqp, ctp_8->p_next
 211              		.loc 2 48 0
 212 00a5 895304   		movl	%edx, 4(%ebx)	 # D.2237, ctp_8->p_prev
 213              		.loc 2 49 0
 214 00a8 895804   		movl	%ebx, 4(%eax)	 # ctp, MEM[(struct Thread *)tqp_84].p_prev
 215 00ab 891A     		movl	%ebx, (%edx)	 # ctp, _62->p_next
 216              	LBE27:
 217              	LBE26:
 218              		.loc 1 174 0
 219 00ad 897324   		movl	%esi, 36(%ebx)	 # mp, ctp_8->p_u.wtobjp
 220              		.loc 1 175 0
 221 00b0 C7042404 		movl	$4, (%esp)	 #,
 221      000000
 222 00b7 E8000000 		call	_chSchGoSleepS	 #
 222      00
 223              	LVL9:
 224              		.loc 1 178 0
 225 00bc 395E08   		cmpl	%ebx, 8(%esi)	 # ctp, mp_10(D)->m_owner
 226 00bf 741C     		je	L25	 #,
 227              		.loc 1 178 0 is_stmt 0 discriminator 1
 228 00c1 C7442408 		movl	$178, 8(%esp)	 #,
 228      B2000000 
 229 00c9 C7442404 		movl	$LC0, 4(%esp)	 #,
 229      00000000 
 230 00d1 C7042447 		movl	$LC3, (%esp)	 #,
 230      000000
 231 00d8 E8000000 		call	_chDbgPanic	 #
 231      00
 232              	LVL10:
 233              	L25:
 234              		.loc 1 179 0 is_stmt 1
 235 00dd 39733C   		cmpl	%esi, 60(%ebx)	 # mp, ctp_8->p_mtxlist
 236 00e0 741C     		je	L6	 #,
 237              		.loc 1 179 0 is_stmt 0 discriminator 1
 238 00e2 C7442408 		movl	$179, 8(%esp)	 #,
 238      B3000000 
 239 00ea C7442404 		movl	$LC0, 4(%esp)	 #,
 239      00000000 
 240 00f2 C7042458 		movl	$LC4, (%esp)	 #,
 240      000000
 241 00f9 E8000000 		call	_chDbgPanic	 #
 241      00
 242              	LVL11:
 243              	L6:
 244              	LBE25:
 245              		.loc 1 187 0 is_stmt 1
 246 00fe 83C41C   		addl	$28, %esp	 #,
GAS LISTING /cygdrive/c/DOCUME~1/andrey/LOCALS~1/Temp/ccMuA7oP.s 			page 6


 247              		.cfi_remember_state
 248              		.cfi_def_cfa_offset 20
 249 0101 5B       		popl	%ebx	 #
 250              		.cfi_restore 3
 251              		.cfi_def_cfa_offset 16
 252              	LVL12:
 253 0102 5E       		popl	%esi	 #
 254              		.cfi_restore 6
 255              		.cfi_def_cfa_offset 12
 256              	LVL13:
 257 0103 5F       		popl	%edi	 #
 258              		.cfi_restore 7
 259              		.cfi_def_cfa_offset 8
 260 0104 5D       		popl	%ebp	 #
 261              		.cfi_restore 5
 262              		.cfi_def_cfa_offset 4
 263 0105 C3       		ret
 264              	LVL14:
 265              		.p2align 4,,7
 266              	L32:
 267              		.cfi_restore_state
 268              	LBB44:
 269              	LBB28:
 270              	LBB29:
 271              		.loc 2 75 0
 272 0106 8B0A     		movl	(%edx), %ecx	 # tp_81->p_next, D.2237
 273 0108 8B4204   		movl	4(%edx), %eax	 # tp_81->p_prev, D.2237
 274              	LBE29:
 275              	LBE28:
 276              		.loc 1 164 0
 277 010b C6421C01 		movb	$1, 28(%edx)	 #, tp_81->p_state
 278              	LVL15:
 279              	LBB31:
 280              	LBB30:
 281              		.loc 2 75 0
 282 010f 8908     		movl	%ecx, (%eax)	 # D.2237, _55->p_next
 283              		.loc 2 76 0
 284 0111 8B0A     		movl	(%edx), %ecx	 # tp_81->p_next, tp_81->p_next
 285 0113 894104   		movl	%eax, 4(%ecx)	 # D.2237, _57->p_prev
 286              	LBE30:
 287              	LBE31:
 288              		.loc 1 167 0
 289 0116 891424   		movl	%edx, (%esp)	 # tp,
 290 0119 E8000000 		call	_chSchReadyI	 #
 290      00
 291              	LVL16:
 292              		.loc 1 168 0
 293 011e E969FFFF 		jmp	L10	 #
 293      FF
 294              	LVL17:
 295              		.p2align 4,,7
 296              	L12:
 297              	LBB32:
 298              	LBB33:
 299              		.loc 2 75 0
 300 0123 8B4204   		movl	4(%edx), %eax	 # tp_82->p_prev, D.2237
 301 0126 8B2A     		movl	(%edx), %ebp	 # tp_82->p_next, tmp100
GAS LISTING /cygdrive/c/DOCUME~1/andrey/LOCALS~1/Temp/ccMuA7oP.s 			page 7


 302              	LBE33:
 303              	LBE32:
 304              		.loc 1 158 0
 305 0128 8B7A24   		movl	36(%edx), %edi	 # tp_82->p_u.wtobjp, tqp
 306              	LVL18:
 307              	LBB35:
 308              	LBB34:
 309              		.loc 2 75 0
 310 012b 8928     		movl	%ebp, (%eax)	 # tmp100, _48->p_next
 311              		.loc 2 76 0
 312 012d 8B2A     		movl	(%edx), %ebp	 # tp_82->p_next, tmp101
 313 012f 894504   		movl	%eax, 4(%ebp)	 # D.2237, _50->p_prev
 314              	LVL19:
 315              	LBE34:
 316              	LBE35:
 317              	LBB36:
 318              	LBB37:
 319              		.loc 2 43 0
 320 0132 89F8     		movl	%edi, %eax	 # tqp, tqp
 321 0134 EB05     		jmp	L22	 #
 322              	LVL20:
 323              		.p2align 4,,7
 324              	L20:
 325              		.loc 2 46 0
 326 0136 394808   		cmpl	%ecx, 8(%eax)	 # D.2235, MEM[(struct Thread *)tqp_52].p_prio
 327 0139 7206     		jb	L21	 #,
 328              	L22:
 329              		.loc 2 45 0
 330 013b 8B00     		movl	(%eax), %eax	 # MEM[(struct Thread *)tqp_51].p_next, tqp
 331              	LVL21:
 332              		.loc 2 46 0
 333 013d 39C7     		cmpl	%eax, %edi	 # tqp, tqp
 334 013f 75F5     		jne	L20	 #,
 335              	L21:
 336              		.loc 2 48 0
 337 0141 8B4804   		movl	4(%eax), %ecx	 # MEM[(struct Thread *)tqp_85].p_prev, D.2237
 338              		.loc 2 47 0
 339 0144 8902     		movl	%eax, (%edx)	 # tqp, tp_82->p_next
 340              		.loc 2 48 0
 341 0146 894A04   		movl	%ecx, 4(%edx)	 # D.2237, tp_82->p_prev
 342              		.loc 2 49 0
 343 0149 895004   		movl	%edx, 4(%eax)	 # tp, MEM[(struct Thread *)tqp_85].p_prev
 344 014c 8911     		movl	%edx, (%ecx)	 # tp, _54->p_next
 345 014e E939FFFF 		jmp	L10	 #
 345      FF
 346              	LVL22:
 347              		.p2align 4,,7
 348              	L11:
 349              	LBE37:
 350              	LBE36:
 351              	LBB38:
 352              	LBB39:
 353              		.loc 2 75 0
 354 0153 8B4204   		movl	4(%edx), %eax	 # tp_117->p_prev, D.2237
 355 0156 8B2A     		movl	(%edx), %ebp	 # tp_117->p_next, tmp98
 356              	LBE39:
 357              	LBE38:
GAS LISTING /cygdrive/c/DOCUME~1/andrey/LOCALS~1/Temp/ccMuA7oP.s 			page 8


 358              		.loc 1 142 0
 359 0158 8B7A24   		movl	36(%edx), %edi	 # tp_117->p_u.wtobjp, tqp
 360              	LVL23:
 361              	LBB41:
 362              	LBB40:
 363              		.loc 2 75 0
 364 015b 8928     		movl	%ebp, (%eax)	 # tmp98, _41->p_next
 365              		.loc 2 76 0
 366 015d 8B2A     		movl	(%edx), %ebp	 # tp_117->p_next, tmp99
 367 015f 894504   		movl	%eax, 4(%ebp)	 # D.2237, _43->p_prev
 368              	LVL24:
 369              	LBE40:
 370              	LBE41:
 371              		.loc 1 142 0
 372 0162 89F8     		movl	%edi, %eax	 # tqp, tqp
 373 0164 EB05     		jmp	L18	 #
 374              	LVL25:
 375              		.p2align 4,,7
 376              	L14:
 377              	LBB42:
 378              	LBB43:
 379              		.loc 2 46 0
 380 0166 394808   		cmpl	%ecx, 8(%eax)	 # D.2235, MEM[(struct Thread *)tqp_45].p_prio
 381 0169 7206     		jb	L17	 #,
 382              	L18:
 383              		.loc 2 45 0
 384 016b 8B00     		movl	(%eax), %eax	 # MEM[(struct Thread *)tqp_44].p_next, tqp
 385              	LVL26:
 386              		.loc 2 46 0
 387 016d 39C7     		cmpl	%eax, %edi	 # tqp, tqp
 388 016f 75F5     		jne	L14	 #,
 389              	L17:
 390              		.loc 2 48 0
 391 0171 8B4804   		movl	4(%eax), %ecx	 # MEM[(struct Thread *)tqp_86].p_prev, D.2237
 392              		.loc 2 47 0
 393 0174 8902     		movl	%eax, (%edx)	 # tqp, tp_117->p_next
 394              		.loc 2 48 0
 395 0176 894A04   		movl	%ecx, 4(%edx)	 # D.2237, tp_117->p_prev
 396              		.loc 2 49 0
 397 0179 895004   		movl	%edx, 4(%eax)	 # tp, MEM[(struct Thread *)tqp_86].p_prev
 398 017c 8911     		movl	%edx, (%ecx)	 # tp, _47->p_next
 399              	LBE43:
 400              	LBE42:
 401              		.loc 1 143 0
 402 017e 8B5708   		movl	8(%edi), %edx	 # MEM[(struct Mutex *)tqp_18].m_owner, tp
 403              	LVL27:
 404              		.loc 1 135 0
 405 0181 8B4B08   		movl	8(%ebx), %ecx	 # ctp_8->p_prio, D.2235
 406 0184 394A08   		cmpl	%ecx, 8(%edx)	 # D.2235,
 407 0187 0F82E4FE 		jb	L29	 #,
 407      FFFF
 408 018d E9FAFEFF 		jmp	L10	 #
 408      FF
 409              	LVL28:
 410              		.p2align 4,,7
 411              	L8:
 412              	LBE44:
GAS LISTING /cygdrive/c/DOCUME~1/andrey/LOCALS~1/Temp/ccMuA7oP.s 			page 9


 413              		.loc 1 184 0
 414 0192 8B433C   		movl	60(%ebx), %eax	 # ctp_8->p_mtxlist, ctp_8->p_mtxlist
 415              		.loc 1 183 0
 416 0195 895E08   		movl	%ebx, 8(%esi)	 # ctp, mp_10(D)->m_owner
 417              		.loc 1 184 0
 418 0198 89460C   		movl	%eax, 12(%esi)	 # ctp_8->p_mtxlist, mp_10(D)->m_next
 419              		.loc 1 185 0
 420 019b 89733C   		movl	%esi, 60(%ebx)	 # mp, ctp_8->p_mtxlist
 421              		.loc 1 187 0
 422 019e 83C41C   		addl	$28, %esp	 #,
 423              		.cfi_remember_state
 424              		.cfi_def_cfa_offset 20
 425 01a1 5B       		popl	%ebx	 #
 426              		.cfi_restore 3
 427              		.cfi_def_cfa_offset 16
 428              	LVL29:
 429 01a2 5E       		popl	%esi	 #
 430              		.cfi_restore 6
 431              		.cfi_def_cfa_offset 12
 432              	LVL30:
 433 01a3 5F       		popl	%edi	 #
 434              		.cfi_restore 7
 435              		.cfi_def_cfa_offset 8
 436 01a4 5D       		popl	%ebp	 #
 437              		.cfi_restore 5
 438              		.cfi_def_cfa_offset 4
 439 01a5 C3       		ret
 440              	LVL31:
 441              	L31:
 442              		.cfi_restore_state
 443              		.loc 1 125 0 discriminator 1
 444 01a6 C7442408 		movl	$125, 8(%esp)	 #,
 444      7D000000 
 445 01ae C7442404 		movl	$LC0, 4(%esp)	 #,
 445      00000000 
 446 01b6 C7042438 		movl	$LC2, (%esp)	 #,
 446      000000
 447 01bd E8000000 		call	_chDbgPanic	 #
 447      00
 448              	LVL32:
 449 01c2 E997FEFF 		jmp	L7	 #
 449      FF
 450              		.cfi_endproc
 451              	LFE9:
 452 01c7 89F68DBC 		.p2align 4,,15
 452      27000000 
 452      00
 453              		.globl	_chMtxLock
 454              		.def	_chMtxLock;	.scl	2;	.type	32;	.endef
 455              	_chMtxLock:
 456              	LFB8:
 457              		.loc 1 103 0
 458              		.cfi_startproc
 459              	LVL33:
 460 01d0 83EC1C   		subl	$28, %esp	 #,
 461              		.cfi_def_cfa_offset 32
 462              		.loc 1 105 0
GAS LISTING /cygdrive/c/DOCUME~1/andrey/LOCALS~1/Temp/ccMuA7oP.s 			page 10


 463              	/APP
 464              	 # 105 "../firmware/chibios/os/kernel/src/chmtx.c" 1
 465 01d3 90       		nop
 466              	 # 0 "" 2
 467              	/NO_APP
 468 01d4 E8000000 		call	_dbg_check_lock	 #
 468      00
 469              	LVL34:
 470              		.loc 1 107 0
 471 01d9 8B442420 		movl	32(%esp), %eax	 # mp, mp
 472 01dd 890424   		movl	%eax, (%esp)	 # mp,
 473 01e0 E85BFEFF 		call	_chMtxLockS	 #
 473      FF
 474              	LVL35:
 475              		.loc 1 109 0
 476 01e5 E8000000 		call	_dbg_check_unlock	 #
 476      00
 477              	LVL36:
 478              	/APP
 479              	 # 109 "../firmware/chibios/os/kernel/src/chmtx.c" 1
 480 01ea 90       		nop
 481              	 # 0 "" 2
 482              		.loc 1 110 0
 483              	/NO_APP
 484 01eb 83C41C   		addl	$28, %esp	 #,
 485              		.cfi_def_cfa_offset 4
 486 01ee C3       		ret
 487              		.cfi_endproc
 488              	LFE8:
 489              		.section .rdata,"dr"
 490              	LC5:
 491 0069 2263684D 		.ascii "\"chMtxTryLockS\"()\0"
 491      74785472 
 491      794C6F63 
 491      6B532228 
 491      2900
 492              		.text
 493 01ef 90       		.p2align 4,,15
 494              		.globl	_chMtxTryLockS
 495              		.def	_chMtxTryLockS;	.scl	2;	.type	32;	.endef
 496              	_chMtxTryLockS:
 497              	LFB11:
 498              		.loc 1 234 0
 499              		.cfi_startproc
 500              	LVL37:
 501 01f0 53       		pushl	%ebx	 #
 502              		.cfi_def_cfa_offset 8
 503              		.cfi_offset 3, -8
 504 01f1 83EC18   		subl	$24, %esp	 #,
 505              		.cfi_def_cfa_offset 32
 506              		.loc 1 234 0
 507 01f4 8B5C2420 		movl	32(%esp), %ebx	 # mp, mp
 508              		.loc 1 236 0
 509 01f8 E8000000 		call	_chDbgCheckClassS	 #
 509      00
 510              	LVL38:
 511              		.loc 1 237 0
GAS LISTING /cygdrive/c/DOCUME~1/andrey/LOCALS~1/Temp/ccMuA7oP.s 			page 11


 512 01fd 85DB     		testl	%ebx, %ebx	 # mp
 513 01ff 742F     		je	L40	 #,
 514              	L36:
 515              		.loc 1 239 0
 516 0201 8B5308   		movl	8(%ebx), %edx	 # mp_6(D)->m_owner,
 517              		.loc 1 240 0
 518 0204 31C0     		xorl	%eax, %eax	 # D.2246
 519              		.loc 1 239 0
 520 0206 85D2     		testl	%edx, %edx	 #
 521 0208 7406     		je	L41	 #,
 522              		.loc 1 245 0
 523 020a 83C418   		addl	$24, %esp	 #,
 524              		.cfi_remember_state
 525              		.cfi_def_cfa_offset 8
 526 020d 5B       		popl	%ebx	 #
 527              		.cfi_restore 3
 528              		.cfi_def_cfa_offset 4
 529 020e C3       		ret
 530 020f 90       		.p2align 4,,7
 531              	L41:
 532              		.cfi_restore_state
 533              		.loc 1 241 0
 534 0210 A1180000 		movl	_rlist+24, %eax	 # rlist.r_current, D.2247
 534      00
 535              		.loc 1 242 0
 536 0215 8B503C   		movl	60(%eax), %edx	 # _9->p_mtxlist, _9->p_mtxlist
 537              		.loc 1 241 0
 538 0218 894308   		movl	%eax, 8(%ebx)	 # D.2247, mp_6(D)->m_owner
 539              		.loc 1 242 0
 540 021b 89530C   		movl	%edx, 12(%ebx)	 # _9->p_mtxlist, mp_6(D)->m_next
 541              		.loc 1 243 0
 542 021e 89583C   		movl	%ebx, 60(%eax)	 # mp, _9->p_mtxlist
 543              		.loc 1 245 0
 544 0221 83C418   		addl	$24, %esp	 #,
 545              		.cfi_remember_state
 546              		.cfi_def_cfa_offset 8
 547              		.loc 1 244 0
 548 0224 B8010000 		movl	$1, %eax	 #, D.2246
 548      00
 549              		.loc 1 245 0
 550 0229 5B       		popl	%ebx	 #
 551              		.cfi_restore 3
 552              		.cfi_def_cfa_offset 4
 553 022a C3       		ret
 554 022b 908D7426 		.p2align 4,,7
 554      00
 555              	L40:
 556              		.cfi_restore_state
 557              		.loc 1 237 0 discriminator 1
 558 0230 C7442408 		movl	$237, 8(%esp)	 #,
 558      ED000000 
 559 0238 C7442404 		movl	$LC0, 4(%esp)	 #,
 559      00000000 
 560 0240 C7042469 		movl	$LC5, (%esp)	 #,
 560      000000
 561 0247 E8000000 		call	_chDbgPanic	 #
 561      00
GAS LISTING /cygdrive/c/DOCUME~1/andrey/LOCALS~1/Temp/ccMuA7oP.s 			page 12


 562              	LVL39:
 563 024c EBB3     		jmp	L36	 #
 564              		.cfi_endproc
 565              	LFE11:
 566 024e 6690     		.p2align 4,,15
 567              		.globl	_chMtxTryLock
 568              		.def	_chMtxTryLock;	.scl	2;	.type	32;	.endef
 569              	_chMtxTryLock:
 570              	LFB10:
 571              		.loc 1 206 0
 572              		.cfi_startproc
 573              	LVL40:
 574 0250 53       		pushl	%ebx	 #
 575              		.cfi_def_cfa_offset 8
 576              		.cfi_offset 3, -8
 577 0251 83EC18   		subl	$24, %esp	 #,
 578              		.cfi_def_cfa_offset 32
 579              		.loc 1 209 0
 580              	/APP
 581              	 # 209 "../firmware/chibios/os/kernel/src/chmtx.c" 1
 582 0254 90       		nop
 583              	 # 0 "" 2
 584              	/NO_APP
 585 0255 E8000000 		call	_dbg_check_lock	 #
 585      00
 586              	LVL41:
 587              		.loc 1 211 0
 588 025a 8B442420 		movl	32(%esp), %eax	 # mp, mp
 589 025e 890424   		movl	%eax, (%esp)	 # mp,
 590 0261 E88AFFFF 		call	_chMtxTryLockS	 #
 590      FF
 591              	LVL42:
 592 0266 89C3     		movl	%eax, %ebx	 #, b
 593              	LVL43:
 594              		.loc 1 213 0
 595 0268 E8000000 		call	_dbg_check_unlock	 #
 595      00
 596              	LVL44:
 597              	/APP
 598              	 # 213 "../firmware/chibios/os/kernel/src/chmtx.c" 1
 599 026d 90       		nop
 600              	 # 0 "" 2
 601              		.loc 1 215 0
 602              	/NO_APP
 603 026e 83C418   		addl	$24, %esp	 #,
 604              		.cfi_def_cfa_offset 8
 605 0271 89D8     		movl	%ebx, %eax	 # b,
 606 0273 5B       		popl	%ebx	 #
 607              		.cfi_restore 3
 608              		.cfi_def_cfa_offset 4
 609              	LVL45:
 610 0274 C3       		ret
 611              		.cfi_endproc
 612              	LFE10:
 613              		.section .rdata,"dr"
 614              	LC6:
 615 007b 63684D74 		.ascii "chMtxUnlock(), #1\0"
GAS LISTING /cygdrive/c/DOCUME~1/andrey/LOCALS~1/Temp/ccMuA7oP.s 			page 13


 615      78556E6C 
 615      6F636B28 
 615      292C2023 
 615      3100
 616              	LC7:
 617 008d 63684D74 		.ascii "chMtxUnlock(), #2\0"
 617      78556E6C 
 617      6F636B28 
 617      292C2023 
 617      3200
 618              		.text
 619 0275 8D742600 		.p2align 4,,15
 619      8DBC2700 
 619      000000
 620              		.globl	_chMtxUnlock
 621              		.def	_chMtxUnlock;	.scl	2;	.type	32;	.endef
 622              	_chMtxUnlock:
 623              	LFB12:
 624              		.loc 1 257 0
 625              		.cfi_startproc
 626 0280 57       		pushl	%edi	 #
 627              		.cfi_def_cfa_offset 8
 628              		.cfi_offset 7, -8
 629 0281 56       		pushl	%esi	 #
 630              		.cfi_def_cfa_offset 12
 631              		.cfi_offset 6, -12
 632 0282 53       		pushl	%ebx	 #
 633              		.cfi_def_cfa_offset 16
 634              		.cfi_offset 3, -16
 635 0283 83EC10   		subl	$16, %esp	 #,
 636              		.cfi_def_cfa_offset 32
 637              		.loc 1 258 0
 638 0286 8B3D1800 		movl	_rlist+24, %edi	 # rlist.r_current, ctp
 638      0000
 639              	LVL46:
 640              		.loc 1 261 0
 641              	/APP
 642              	 # 261 "../firmware/chibios/os/kernel/src/chmtx.c" 1
 643 028c 90       		nop
 644              	 # 0 "" 2
 645              	/NO_APP
 646 028d E8000000 		call	_dbg_check_lock	 #
 646      00
 647              	LVL47:
 648              		.loc 1 262 0
 649 0292 8B773C   		movl	60(%edi), %esi	 # ctp_8->p_mtxlist, D.2254
 650 0295 85F6     		testl	%esi, %esi	 # D.2254
 651 0297 0F848C00 		je	L59	 #,
 651      0000
 652              	L45:
 653              		.loc 1 265 0
 654 029d 397E08   		cmpl	%edi, 8(%esi)	 # ctp, _46->m_owner
 655 02a0 741F     		je	L46	 #,
 656              		.loc 1 265 0 is_stmt 0 discriminator 1
 657 02a2 C7442408 		movl	$267, 8(%esp)	 #,
 657      0B010000 
 658 02aa C7442404 		movl	$LC0, 4(%esp)	 #,
GAS LISTING /cygdrive/c/DOCUME~1/andrey/LOCALS~1/Temp/ccMuA7oP.s 			page 14


 658      00000000 
 659 02b2 C704248D 		movl	$LC7, (%esp)	 #,
 659      000000
 660 02b9 E8000000 		call	_chDbgPanic	 #
 660      00
 661              	LVL48:
 662 02be 8B773C   		movl	60(%edi), %esi	 # ctp_8->p_mtxlist, D.2254
 663              	L46:
 664              	LVL49:
 665              		.loc 1 273 0 is_stmt 1
 666 02c1 8B06     		movl	(%esi), %eax	 # _49->m_queue.p_next, D.2255
 667              		.loc 1 271 0
 668 02c3 8B560C   		movl	12(%esi), %edx	 # _49->m_next, mp
 669              		.loc 1 273 0
 670 02c6 39F0     		cmpl	%esi, %eax	 # D.2254, D.2255
 671              		.loc 1 271 0
 672 02c8 89573C   		movl	%edx, 60(%edi)	 # mp, ctp_8->p_mtxlist
 673              		.loc 1 273 0
 674 02cb 7453     		je	L47	 #,
 675              	LBB45:
 676              		.loc 1 280 0
 677 02cd 85D2     		testl	%edx, %edx	 # mp
 678              		.loc 1 278 0
 679 02cf 8B5F40   		movl	64(%edi), %ebx	 # ctp_8->p_realprio, newprio
 680              	LVL50:
 681              		.loc 1 280 0
 682 02d2 7415     		je	L48	 #,
 683              		.p2align 4,,7
 684              	L50:
 685              		.loc 1 284 0
 686 02d4 8B0A     		movl	(%edx), %ecx	 # mp_39->m_queue.p_next, D.2255
 687 02d6 39D1     		cmpl	%edx, %ecx	 # mp, D.2255
 688 02d8 7408     		je	L49	 #,
 689              		.loc 1 284 0 is_stmt 0 discriminator 1
 690 02da 8B4908   		movl	8(%ecx), %ecx	 # _21->p_prio, newprio
 691 02dd 39CB     		cmpl	%ecx, %ebx	 # newprio, newprio
 692 02df 0F42D9   		cmovb	%ecx, %ebx	 # newprio,, newprio, newprio
 693              	LVL51:
 694              	L49:
 695              		.loc 1 286 0 is_stmt 1
 696 02e2 8B520C   		movl	12(%edx), %edx	 # mp_39->m_next, mp
 697              	LVL52:
 698              		.loc 1 280 0
 699 02e5 85D2     		testl	%edx, %edx	 # mp
 700 02e7 75EB     		jne	L50	 #,
 701              	L48:
 702              	LBB46:
 703              	LBB47:
 704              		.loc 2 62 0
 705 02e9 8B10     		movl	(%eax), %edx	 # _18->p_next, D.2255
 706              	LVL53:
 707              	LBE47:
 708              	LBE46:
 709              		.loc 1 290 0
 710 02eb 895F08   		movl	%ebx, 8(%edi)	 # newprio, ctp_8->p_prio
 711              	LVL54:
 712              	LBB49:
GAS LISTING /cygdrive/c/DOCUME~1/andrey/LOCALS~1/Temp/ccMuA7oP.s 			page 15


 713              	LBB48:
 714              		.loc 2 62 0
 715 02ee 8916     		movl	%edx, (%esi)	 # D.2255, MEM[(struct ThreadsQueue *)_49].p_next
 716 02f0 897204   		movl	%esi, 4(%edx)	 # D.2254, _34->p_prev
 717              	LBE48:
 718              	LBE49:
 719              		.loc 1 295 0
 720 02f3 8B503C   		movl	60(%eax), %edx	 # _18->p_mtxlist, _18->p_mtxlist
 721              		.loc 1 294 0
 722 02f6 894608   		movl	%eax, 8(%esi)	 # D.2255, _49->m_owner
 723              		.loc 1 295 0
 724 02f9 89560C   		movl	%edx, 12(%esi)	 # _18->p_mtxlist, _49->m_next
 725              		.loc 1 296 0
 726 02fc 89703C   		movl	%esi, 60(%eax)	 # D.2254, _18->p_mtxlist
 727              		.loc 1 297 0
 728 02ff C7442404 		movl	$0, 4(%esp)	 #,
 728      00000000 
 729 0307 890424   		movl	%eax, (%esp)	 # D.2255,
 730 030a E8000000 		call	_chSchWakeupS	 #
 730      00
 731              	LVL55:
 732              	L51:
 733              	LBE45:
 734              		.loc 1 301 0
 735 030f E8000000 		call	_dbg_check_unlock	 #
 735      00
 736              	LVL56:
 737              	/APP
 738              	 # 301 "../firmware/chibios/os/kernel/src/chmtx.c" 1
 739 0314 90       		nop
 740              	 # 0 "" 2
 741              		.loc 1 303 0
 742              	/NO_APP
 743 0315 83C410   		addl	$16, %esp	 #,
 744              		.cfi_remember_state
 745              		.cfi_def_cfa_offset 16
 746 0318 89F0     		movl	%esi, %eax	 # D.2254,
 747 031a 5B       		popl	%ebx	 #
 748              		.cfi_restore 3
 749              		.cfi_def_cfa_offset 12
 750 031b 5E       		popl	%esi	 #
 751              		.cfi_restore 6
 752              		.cfi_def_cfa_offset 8
 753              	LVL57:
 754 031c 5F       		popl	%edi	 #
 755              		.cfi_restore 7
 756              		.cfi_def_cfa_offset 4
 757              	LVL58:
 758 031d C3       		ret
 759              	LVL59:
 760 031e 6690     		.p2align 4,,7
 761              	L47:
 762              		.cfi_restore_state
 763              		.loc 1 300 0
 764 0320 C7460800 		movl	$0, 8(%esi)	 #, _49->m_owner
 764      000000
 765 0327 EBE6     		jmp	L51	 #
GAS LISTING /cygdrive/c/DOCUME~1/andrey/LOCALS~1/Temp/ccMuA7oP.s 			page 16


 766              	LVL60:
 767              	L59:
 768              		.loc 1 262 0 discriminator 1
 769 0329 C7442408 		movl	$264, 8(%esp)	 #,
 769      08010000 
 770 0331 C7442404 		movl	$LC0, 4(%esp)	 #,
 770      00000000 
 771 0339 C704247B 		movl	$LC6, (%esp)	 #,
 771      000000
 772 0340 E8000000 		call	_chDbgPanic	 #
 772      00
 773              	LVL61:
 774 0345 8B773C   		movl	60(%edi), %esi	 # ctp_8->p_mtxlist, D.2254
 775 0348 E950FFFF 		jmp	L45	 #
 775      FF
 776              		.cfi_endproc
 777              	LFE12:
 778              		.section .rdata,"dr"
 779              	LC8:
 780 009f 63684D74 		.ascii "chMtxUnlockS(), #1\0"
 780      78556E6C 
 780      6F636B53 
 780      28292C20 
 780      233100
 781              	LC9:
 782 00b2 63684D74 		.ascii "chMtxUnlockS(), #2\0"
 782      78556E6C 
 782      6F636B53 
 782      28292C20 
 782      233200
 783 00c5 000000   		.text
 784 034d 8D7600   		.p2align 4,,15
 785              		.globl	_chMtxUnlockS
 786              		.def	_chMtxUnlockS;	.scl	2;	.type	32;	.endef
 787              	_chMtxUnlockS:
 788              	LFB13:
 789              		.loc 1 317 0
 790              		.cfi_startproc
 791 0350 57       		pushl	%edi	 #
 792              		.cfi_def_cfa_offset 8
 793              		.cfi_offset 7, -8
 794 0351 56       		pushl	%esi	 #
 795              		.cfi_def_cfa_offset 12
 796              		.cfi_offset 6, -12
 797 0352 53       		pushl	%ebx	 #
 798              		.cfi_def_cfa_offset 16
 799              		.cfi_offset 3, -16
 800 0353 83EC10   		subl	$16, %esp	 #,
 801              		.cfi_def_cfa_offset 32
 802              		.loc 1 318 0
 803 0356 8B3D1800 		movl	_rlist+24, %edi	 # rlist.r_current, ctp
 803      0000
 804              	LVL62:
 805              		.loc 1 321 0
 806 035c E8000000 		call	_chDbgCheckClassS	 #
 806      00
 807              	LVL63:
GAS LISTING /cygdrive/c/DOCUME~1/andrey/LOCALS~1/Temp/ccMuA7oP.s 			page 17


 808              		.loc 1 322 0
 809 0361 8B773C   		movl	60(%edi), %esi	 # ctp_8->p_mtxlist, D.2262
 810 0364 85F6     		testl	%esi, %esi	 # D.2262
 811 0366 0F848400 		je	L75	 #,
 811      0000
 812              	L61:
 813              		.loc 1 325 0
 814 036c 397E08   		cmpl	%edi, 8(%esi)	 # ctp, _45->m_owner
 815 036f 741F     		je	L62	 #,
 816              		.loc 1 325 0 is_stmt 0 discriminator 1
 817 0371 C7442408 		movl	$327, 8(%esp)	 #,
 817      47010000 
 818 0379 C7442404 		movl	$LC0, 4(%esp)	 #,
 818      00000000 
 819 0381 C70424B2 		movl	$LC9, (%esp)	 #,
 819      000000
 820 0388 E8000000 		call	_chDbgPanic	 #
 820      00
 821              	LVL64:
 822 038d 8B773C   		movl	60(%edi), %esi	 # ctp_8->p_mtxlist, D.2262
 823              	L62:
 824              	LVL65:
 825              		.loc 1 334 0 is_stmt 1
 826 0390 8B06     		movl	(%esi), %eax	 # _48->m_queue.p_next, D.2263
 827              		.loc 1 332 0
 828 0392 8B560C   		movl	12(%esi), %edx	 # _48->m_next, mp
 829              		.loc 1 334 0
 830 0395 39F0     		cmpl	%esi, %eax	 # D.2262, D.2263
 831              		.loc 1 332 0
 832 0397 89573C   		movl	%edx, 60(%edi)	 # mp, ctp_8->p_mtxlist
 833              		.loc 1 334 0
 834 039a 7444     		je	L63	 #,
 835              	LBB50:
 836              		.loc 1 341 0
 837 039c 85D2     		testl	%edx, %edx	 # mp
 838              		.loc 1 339 0
 839 039e 8B5F40   		movl	64(%edi), %ebx	 # ctp_8->p_realprio, newprio
 840              	LVL66:
 841              		.loc 1 341 0
 842 03a1 7415     		je	L64	 #,
 843              		.p2align 4,,7
 844              	L66:
 845              		.loc 1 345 0
 846 03a3 8B0A     		movl	(%edx), %ecx	 # mp_38->m_queue.p_next, D.2263
 847 03a5 39D1     		cmpl	%edx, %ecx	 # mp, D.2263
 848 03a7 7408     		je	L65	 #,
 849              		.loc 1 345 0 is_stmt 0 discriminator 1
 850 03a9 8B4908   		movl	8(%ecx), %ecx	 # _21->p_prio, newprio
 851 03ac 39CB     		cmpl	%ecx, %ebx	 # newprio, newprio
 852 03ae 0F42D9   		cmovb	%ecx, %ebx	 # newprio,, newprio, newprio
 853              	LVL67:
 854              	L65:
 855              		.loc 1 347 0 is_stmt 1
 856 03b1 8B520C   		movl	12(%edx), %edx	 # mp_38->m_next, mp
 857              	LVL68:
 858              		.loc 1 341 0
 859 03b4 85D2     		testl	%edx, %edx	 # mp
GAS LISTING /cygdrive/c/DOCUME~1/andrey/LOCALS~1/Temp/ccMuA7oP.s 			page 18


 860 03b6 75EB     		jne	L66	 #,
 861              	L64:
 862              	LBB51:
 863              	LBB52:
 864              		.loc 2 62 0
 865 03b8 8B10     		movl	(%eax), %edx	 # _18->p_next, D.2263
 866              	LVL69:
 867              	LBE52:
 868              	LBE51:
 869              		.loc 1 349 0
 870 03ba 895F08   		movl	%ebx, 8(%edi)	 # newprio, ctp_8->p_prio
 871              	LVL70:
 872              	LBB54:
 873              	LBB53:
 874              		.loc 2 62 0
 875 03bd 8916     		movl	%edx, (%esi)	 # D.2263, MEM[(struct ThreadsQueue *)_48].p_next
 876 03bf 897204   		movl	%esi, 4(%edx)	 # D.2262, _33->p_prev
 877              	LBE53:
 878              	LBE54:
 879              		.loc 1 354 0
 880 03c2 8B503C   		movl	60(%eax), %edx	 # _18->p_mtxlist, _18->p_mtxlist
 881              		.loc 1 353 0
 882 03c5 894608   		movl	%eax, 8(%esi)	 # D.2263, _48->m_owner
 883              		.loc 1 354 0
 884 03c8 89560C   		movl	%edx, 12(%esi)	 # _18->p_mtxlist, _48->m_next
 885              		.loc 1 355 0
 886 03cb 89703C   		movl	%esi, 60(%eax)	 # D.2262, _18->p_mtxlist
 887              		.loc 1 356 0
 888 03ce 890424   		movl	%eax, (%esp)	 # D.2263,
 889 03d1 E8000000 		call	_chSchReadyI	 #
 889      00
 890              	LVL71:
 891              	LBE50:
 892              		.loc 1 361 0
 893 03d6 83C410   		addl	$16, %esp	 #,
 894              		.cfi_remember_state
 895              		.cfi_def_cfa_offset 16
 896 03d9 89F0     		movl	%esi, %eax	 # D.2262,
 897 03db 5B       		popl	%ebx	 #
 898              		.cfi_restore 3
 899              		.cfi_def_cfa_offset 12
 900              	LVL72:
 901 03dc 5E       		popl	%esi	 #
 902              		.cfi_restore 6
 903              		.cfi_def_cfa_offset 8
 904              	LVL73:
 905 03dd 5F       		popl	%edi	 #
 906              		.cfi_restore 7
 907              		.cfi_def_cfa_offset 4
 908              	LVL74:
 909 03de C3       		ret
 910              	LVL75:
 911 03df 90       		.p2align 4,,7
 912              	L63:
 913              		.cfi_restore_state
 914              		.loc 1 359 0
 915 03e0 C7460800 		movl	$0, 8(%esi)	 #, _48->m_owner
GAS LISTING /cygdrive/c/DOCUME~1/andrey/LOCALS~1/Temp/ccMuA7oP.s 			page 19


 915      000000
 916              		.loc 1 361 0
 917 03e7 83C410   		addl	$16, %esp	 #,
 918              		.cfi_remember_state
 919              		.cfi_def_cfa_offset 16
 920 03ea 89F0     		movl	%esi, %eax	 # D.2262,
 921 03ec 5B       		popl	%ebx	 #
 922              		.cfi_restore 3
 923              		.cfi_def_cfa_offset 12
 924 03ed 5E       		popl	%esi	 #
 925              		.cfi_restore 6
 926              		.cfi_def_cfa_offset 8
 927              	LVL76:
 928 03ee 5F       		popl	%edi	 #
 929              		.cfi_restore 7
 930              		.cfi_def_cfa_offset 4
 931              	LVL77:
 932 03ef C3       		ret
 933              	LVL78:
 934              	L75:
 935              		.cfi_restore_state
 936              		.loc 1 322 0 discriminator 1
 937 03f0 C7442408 		movl	$324, 8(%esp)	 #,
 937      44010000 
 938 03f8 C7442404 		movl	$LC0, 4(%esp)	 #,
 938      00000000 
 939 0400 C704249F 		movl	$LC8, (%esp)	 #,
 939      000000
 940 0407 E8000000 		call	_chDbgPanic	 #
 940      00
 941              	LVL79:
 942 040c 8B773C   		movl	60(%edi), %esi	 # ctp_8->p_mtxlist, D.2262
 943 040f E958FFFF 		jmp	L61	 #
 943      FF
 944              		.cfi_endproc
 945              	LFE13:
 946 0414 8DB60000 		.p2align 4,,15
 946      00008DBF 
 946      00000000 
 947              		.globl	_chMtxUnlockAll
 948              		.def	_chMtxUnlockAll;	.scl	2;	.type	32;	.endef
 949              	_chMtxUnlockAll:
 950              	LFB14:
 951              		.loc 1 374 0
 952              		.cfi_startproc
 953 0420 53       		pushl	%ebx	 #
 954              		.cfi_def_cfa_offset 8
 955              		.cfi_offset 3, -8
 956 0421 83EC18   		subl	$24, %esp	 #,
 957              		.cfi_def_cfa_offset 32
 958              		.loc 1 375 0
 959 0424 8B1D1800 		movl	_rlist+24, %ebx	 # rlist.r_current, ctp
 959      0000
 960              	LVL80:
 961              		.loc 1 377 0
 962              	/APP
 963              	 # 377 "../firmware/chibios/os/kernel/src/chmtx.c" 1
GAS LISTING /cygdrive/c/DOCUME~1/andrey/LOCALS~1/Temp/ccMuA7oP.s 			page 20


 964 042a 90       		nop
 965              	 # 0 "" 2
 966              	/NO_APP
 967 042b E8000000 		call	_dbg_check_lock	 #
 967      00
 968              	LVL81:
 969              		.loc 1 378 0
 970 0430 8B433C   		movl	60(%ebx), %eax	 # ctp_5->p_mtxlist, D.2272
 971 0433 85C0     		testl	%eax, %eax	 # D.2272
 972 0435 752B     		jne	L81	 #,
 973 0437 EB4E     		jmp	L77	 #
 974              	LVL82:
 975 0439 8DB42600 		.p2align 4,,7
 975      000000
 976              	L87:
 977              	LBB55:
 978              	LBB56:
 979              	LBB57:
 980              	LBB58:
 981              		.loc 2 62 0
 982 0440 8B0A     		movl	(%edx), %ecx	 # _11->p_next, D.2270
 983 0442 8908     		movl	%ecx, (%eax)	 # D.2270, MEM[(struct ThreadsQueue *)_13].p_next
 984 0444 894104   		movl	%eax, 4(%ecx)	 # D.2272, _26->p_prev
 985              	LBE58:
 986              	LBE57:
 987              		.loc 1 385 0
 988 0447 8B4A3C   		movl	60(%edx), %ecx	 # _11->p_mtxlist, _11->p_mtxlist
 989              		.loc 1 384 0
 990 044a 895008   		movl	%edx, 8(%eax)	 # D.2270, _13->m_owner
 991              		.loc 1 385 0
 992 044d 89480C   		movl	%ecx, 12(%eax)	 # _11->p_mtxlist, _13->m_next
 993              		.loc 1 386 0
 994 0450 89423C   		movl	%eax, 60(%edx)	 # D.2272, _11->p_mtxlist
 995              		.loc 1 387 0
 996 0453 891424   		movl	%edx, (%esp)	 # D.2270,
 997 0456 E8000000 		call	_chSchReadyI	 #
 997      00
 998              	LVL83:
 999              	LBE56:
 1000              	LBE55:
 1001              		.loc 1 391 0
 1002 045b 8B433C   		movl	60(%ebx), %eax	 # ctp_5->p_mtxlist, D.2272
 1003 045e 85C0     		testl	%eax, %eax	 # D.2272
 1004 0460 741A     		je	L86	 #,
 1005              	L81:
 1006              	LVL84:
 1007              	LBB59:
 1008              		.loc 1 381 0
 1009 0462 8B500C   		movl	12(%eax), %edx	 # _13->m_next, _13->m_next
 1010 0465 89533C   		movl	%edx, 60(%ebx)	 # _13->m_next, ctp_5->p_mtxlist
 1011              		.loc 1 382 0
 1012 0468 8B10     		movl	(%eax), %edx	 # _13->m_queue.p_next, D.2270
 1013 046a 39C2     		cmpl	%eax, %edx	 # D.2272, D.2270
 1014 046c 75D2     		jne	L87	 #,
 1015              		.loc 1 390 0
 1016 046e C7400800 		movl	$0, 8(%eax)	 #, _13->m_owner
 1016      000000
GAS LISTING /cygdrive/c/DOCUME~1/andrey/LOCALS~1/Temp/ccMuA7oP.s 			page 21


 1017              	LBE59:
 1018              		.loc 1 391 0
 1019 0475 8B433C   		movl	60(%ebx), %eax	 # ctp_5->p_mtxlist, D.2272
 1020              	LVL85:
 1021 0478 85C0     		testl	%eax, %eax	 # D.2272
 1022 047a 75E6     		jne	L81	 #,
 1023              	L86:
 1024              		.loc 1 392 0
 1025 047c 8B4340   		movl	64(%ebx), %eax	 # ctp_5->p_realprio, ctp_5->p_realprio
 1026 047f 894308   		movl	%eax, 8(%ebx)	 # ctp_5->p_realprio, ctp_5->p_prio
 1027              		.loc 1 393 0
 1028 0482 E8000000 		call	_chSchRescheduleS	 #
 1028      00
 1029              	LVL86:
 1030              	L77:
 1031              		.loc 1 395 0
 1032 0487 E8000000 		call	_dbg_check_unlock	 #
 1032      00
 1033              	LVL87:
 1034              	/APP
 1035              	 # 395 "../firmware/chibios/os/kernel/src/chmtx.c" 1
 1036 048c 90       		nop
 1037              	 # 0 "" 2
 1038              		.loc 1 396 0
 1039              	/NO_APP
 1040 048d 83C418   		addl	$24, %esp	 #,
 1041              		.cfi_def_cfa_offset 8
 1042 0490 5B       		popl	%ebx	 #
 1043              		.cfi_restore 3
 1044              		.cfi_def_cfa_offset 4
 1045              	LVL88:
 1046 0491 C3       		ret
 1047              		.cfi_endproc
 1048              	LFE14:
 1049              	Letext0:
 1050              		.file 3 "/usr/include/stdint.h"
 1051              		.file 4 "../firmware/chibios/os/ports/GCC/SIMIA32/chtypes.h"
 1052              		.file 5 "../firmware/chibios/os/kernel/include/chlists.h"
 1053              		.file 6 "../firmware/chibios/os/kernel/include/chthreads.h"
 1054              		.file 7 "../firmware/chibios/os/ports/GCC/SIMIA32/chcore.h"
 1055              		.file 8 "../firmware/chibios/os/kernel/include/chschd.h"
 1056              		.file 9 "../firmware/chibios/os/kernel/include/chmtx.h"
 1057              		.file 10 "../firmware/chibios/os/kernel/include/chdebug.h"