GAS LISTING /cygdrive/c/DOCUME~1/andrey/LOCALS~1/Temp/ccMuA7oP.s 			page 1


   1              		.file	"chmtx.c"
   2              	 # GNU C (GCC) version 4.8.2 (i686-pc-cygwin)
   3              	 #	compiled by GNU C version 4.8.2, GMP version 5.1.3, MPFR version 3.1.2, MPC version 1.0.1
   4              	 # GGC heuristics: --param ggc-min-expand=100 --param ggc-min-heapsize=131072
   5              	 # options passed:  -I . -I ../firmware/chibios/os/ports/GCC/SIMIA32
   6              	 # -I ../firmware/chibios/os/kernel/include
   7              	 # -I ../firmware/chibios/os/hal/include
   8              	 # -I ../firmware/chibios/os/hal/platforms/Win32
   9              	 # -I ../firmware/chibios/boards/simulator -I ../firmware/util
  10              	 # -I ../firmware/console -I ../firmware/console_util
  11              	 # -I ../firmware/config/engines -I ../firmware/ext_algo
  12              	 # -I ../firmware/controllers/sensors -I ../firmware/controllers/system
  13              	 # -I ../firmware/controllers/algo -I ../firmware/controllers/math
  14              	 # -I ../firmware/controllers/trigger -I ../firmware/chibios/os/various
  15              	 # -MD ../firmware/chibios/os/kernel/src/chmtx.d -MF .dep/chmtx.o.d -MP
  16              	 # -MQ ../firmware/chibios/os/kernel/src/chmtx.o -Dunix
  17              	 # -idirafter /usr/lib/gcc/i686-pc-cygwin/4.8.2/../../../../include/w32api
  18              	 # -idirafter ../../include/w32api -D SIMULATOR -D SHELL_USE_IPRINTF=FALSE
  19              	 # ../firmware/chibios/os/kernel/src/chmtx.c -mtune=generic -march=i686
  20              	 # -auxbase-strip ../firmware/chibios/os/kernel/src/chmtx.o -ggdb -O2 -Wall
  21              	 # -Wextra -Wstrict-prototypes -std=gnu99 -fomit-frame-pointer
  22              	 # -fgnu89-inline -fverbose-asm
  23              	 # options enabled:  -faggressive-loop-optimizations
  24              	 # -fasynchronous-unwind-tables -fauto-inc-dec -fbranch-count-reg
  25              	 # -fcaller-saves -fcombine-stack-adjustments -fcommon -fcompare-elim
  26              	 # -fcprop-registers -fcrossjumping -fcse-follow-jumps -fdefer-pop
  27              	 # -fdelete-null-pointer-checks -fdevirtualize -fdwarf2-cfi-asm
  28              	 # -fearly-inlining -feliminate-unused-debug-types
  29              	 # -fexpensive-optimizations -fforward-propagate -ffunction-cse -fgcse
  30              	 # -fgcse-lm -fgnu-runtime -fguess-branch-probability
  31              	 # -fhoist-adjacent-loads -fident -fif-conversion -fif-conversion2
  32              	 # -findirect-inlining -finline -finline-atomics
  33              	 # -finline-functions-called-once -finline-small-functions -fipa-cp
  34              	 # -fipa-profile -fipa-pure-const -fipa-reference -fipa-sra
  35              	 # -fira-hoist-pressure -fira-share-save-slots -fira-share-spill-slots
  36              	 # -fivopts -fkeep-inline-dllexport -fkeep-static-consts
  37              	 # -fleading-underscore -fmath-errno -fmerge-constants
  38              	 # -fmerge-debug-strings -fmove-loop-invariants -fomit-frame-pointer
  39              	 # -foptimize-register-move -foptimize-sibling-calls -foptimize-strlen
  40              	 # -fpartial-inlining -fpeephole -fpeephole2 -fprefetch-loop-arrays -free
  41              	 # -freg-struct-return -fregmove -freorder-blocks -freorder-functions
  42              	 # -frerun-cse-after-loop -fsched-critical-path-heuristic
  43              	 # -fsched-dep-count-heuristic -fsched-group-heuristic -fsched-interblock
  44              	 # -fsched-last-insn-heuristic -fsched-rank-heuristic -fsched-spec
  45              	 # -fsched-spec-insn-heuristic -fsched-stalled-insns-dep -fschedule-insns2
  46              	 # -fset-stack-executable -fshow-column -fshrink-wrap -fsigned-zeros
  47              	 # -fsplit-ivs-in-unroller -fsplit-wide-types -fstrict-aliasing
  48              	 # -fstrict-overflow -fstrict-volatile-bitfields -fsync-libcalls
  49              	 # -fthread-jumps -ftoplevel-reorder -ftrapping-math -ftree-bit-ccp
  50              	 # -ftree-builtin-call-dce -ftree-ccp -ftree-ch -ftree-coalesce-vars
  51              	 # -ftree-copy-prop -ftree-copyrename -ftree-cselim -ftree-dce
  52              	 # -ftree-dominator-opts -ftree-dse -ftree-forwprop -ftree-fre
  53              	 # -ftree-loop-if-convert -ftree-loop-im -ftree-loop-ivcanon
  54              	 # -ftree-loop-optimize -ftree-parallelize-loops= -ftree-phiprop -ftree-pre
  55              	 # -ftree-pta -ftree-reassoc -ftree-scev-cprop -ftree-sink
  56              	 # -ftree-slp-vectorize -ftree-slsr -ftree-sra -ftree-switch-conversion
  57              	 # -ftree-tail-merge -ftree-ter -ftree-vect-loop-version -ftree-vrp
GAS LISTING /cygdrive/c/DOCUME~1/andrey/LOCALS~1/Temp/ccMuA7oP.s 			page 2


  58              	 # -funit-at-a-time -funwind-tables -fvar-tracking
  59              	 # -fvar-tracking-assignments -fverbose-asm -fzero-initialized-in-bss -m32
  60              	 # -m80387 -m96bit-long-double -maccumulate-outgoing-args -malign-double
  61              	 # -malign-stringops -mfancy-math-387 -mfp-ret-in-387 -mieee-fp
  62              	 # -mlong-double-80 -mno-red-zone -mno-sse4 -mpush-args -msahf
  63              	 # -mstack-arg-probe
  64              	
  65              		.text
  66              	Ltext0:
  67              		.section .rdata,"dr"
  68              		.align 4
  69              	LC0:
  70 0000 2E2E2F66 		.ascii "../firmware/chibios/os/kernel/src/chmtx.c\0"
  70      69726D77 
  70      6172652F 
  70      63686962 
  70      696F732F 
  71              	LC1:
  72 002a 2263684D 		.ascii "\"chMtxInit\"()\0"
  72      7478496E 
  72      69742228 
  72      2900
  73              		.text
  74              		.p2align 4,,15
  75              		.globl	_chMtxInit
  76              		.def	_chMtxInit;	.scl	2;	.type	32;	.endef
  77              	_chMtxInit:
  78              	LFB7:
  79              		.file 1 "../firmware/chibios/os/kernel/src/chmtx.c"
  80              		.loc 1 86 0
  81              		.cfi_startproc
  82              	LVL0:
  83 0000 53       		pushl	%ebx	 #
  84              		.cfi_def_cfa_offset 8
  85              		.cfi_offset 3, -8
  86 0001 83EC18   		subl	$24, %esp	 #,
  87              		.cfi_def_cfa_offset 32
  88              		.loc 1 86 0
  89 0004 8B5C2420 		movl	32(%esp), %ebx	 # mp, mp
  90              		.loc 1 88 0
  91 0008 85DB     		testl	%ebx, %ebx	 # mp
  92 000a 7414     		je	L5	 #,
  93              	L2:
  94              		.loc 1 90 0
  95 000c 895B04   		movl	%ebx, 4(%ebx)	 # mp, mp_2(D)->m_queue.p_prev
  96 000f 891B     		movl	%ebx, (%ebx)	 # mp, mp_2(D)->m_queue.p_next
  97              		.loc 1 91 0
  98 0011 C7430800 		movl	$0, 8(%ebx)	 #, mp_2(D)->m_owner
  98      000000
  99              		.loc 1 92 0
 100 0018 83C418   		addl	$24, %esp	 #,
 101              		.cfi_remember_state
 102              		.cfi_def_cfa_offset 8
 103 001b 5B       		popl	%ebx	 #
 104              		.cfi_restore 3
 105              		.cfi_def_cfa_offset 4
 106 001c C3       		ret
GAS LISTING /cygdrive/c/DOCUME~1/andrey/LOCALS~1/Temp/ccMuA7oP.s 			page 3


 107 001d 8D7600   		.p2align 4,,7
 108              	L5:
 109              		.cfi_restore_state
 110              		.loc 1 88 0 discriminator 1
 111 0020 C7442408 		movl	$88, 8(%esp)	 #,
 111      58000000 
 112 0028 C7442404 		movl	$LC0, 4(%esp)	 #,
 112      00000000 
 113 0030 C704242A 		movl	$LC1, (%esp)	 #,
 113      000000
 114 0037 E8000000 		call	_chDbgPanic	 #
 114      00
 115              	LVL1:
 116 003c EBCE     		jmp	L2	 #
 117              		.cfi_endproc
 118              	LFE7:
 119              		.section .rdata,"dr"
 120              	LC2:
 121 0038 2263684D 		.ascii "\"chMtxLockS\"()\0"
 121      74784C6F 
 121      636B5322 
 121      282900
 122              	LC3:
 123 0047 63684D74 		.ascii "chMtxLockS(), #1\0"
 123      784C6F63 
 123      6B532829 
 123      2C202331 
 123      00
 124              	LC4:
 125 0058 63684D74 		.ascii "chMtxLockS(), #2\0"
 125      784C6F63 
 125      6B532829 
 125      2C202332 
 125      00
 126              		.text
 127 003e 6690     		.p2align 4,,15
 128              		.globl	_chMtxLockS
 129              		.def	_chMtxLockS;	.scl	2;	.type	32;	.endef
 130              	_chMtxLockS:
 131              	LFB9:
 132              		.loc 1 121 0
 133              		.cfi_startproc
 134              	LVL2:
 135 0040 55       		pushl	%ebp	 #
 136              		.cfi_def_cfa_offset 8
 137              		.cfi_offset 5, -8
 138 0041 57       		pushl	%edi	 #
 139              		.cfi_def_cfa_offset 12
 140              		.cfi_offset 7, -12
 141 0042 56       		pushl	%esi	 #
 142              		.cfi_def_cfa_offset 16
 143              		.cfi_offset 6, -16
 144 0043 53       		pushl	%ebx	 #
 145              		.cfi_def_cfa_offset 20
 146              		.cfi_offset 3, -20
 147 0044 83EC1C   		subl	$28, %esp	 #,
 148              		.cfi_def_cfa_offset 48
GAS LISTING /cygdrive/c/DOCUME~1/andrey/LOCALS~1/Temp/ccMuA7oP.s 			page 4


 149              		.loc 1 122 0
 150 0047 8B1D1800 		movl	_rlist+24, %ebx	 # rlist.r_current, ctp
 150      0000
 151              	LVL3:
 152              		.loc 1 121 0
 153 004d 8B742430 		movl	48(%esp), %esi	 # mp, mp
 154              		.loc 1 124 0
 155 0051 E8000000 		call	_chDbgCheckClassS	 #
 155      00
 156              	LVL4:
 157              		.loc 1 125 0
 158 0056 85F6     		testl	%esi, %esi	 # mp
 159 0058 0F844801 		je	L31	 #,
 159      0000
 160              	L7:
 161              		.loc 1 128 0
 162 005e 8B5608   		movl	8(%esi), %edx	 # mp_10(D)->m_owner, tp
 163 0061 85D2     		testl	%edx, %edx	 # tp
 164 0063 0F842901 		je	L8	 #,
 164      0000
 165              	LVL5:
 166              	LBB25:
 167              		.loc 1 135 0 discriminator 1
 168 0069 8B4B08   		movl	8(%ebx), %ecx	 # ctp_8->p_prio, D.2235
 169 006c 394A08   		cmpl	%ecx, 8(%edx)	 # D.2235,
 170 006f 731B     		jae	L10	 #,
 171              	L29:
 172              		.loc 1 139 0
 173 0071 0FB6421C 		movzbl	28(%edx), %eax	 # tp_117->p_state, D.2236
 174              		.loc 1 137 0
 175 0075 894A08   		movl	%ecx, 8(%edx)	 # D.2235, tp_117->p_prio
 176              		.loc 1 139 0
 177 0078 3C04     		cmpb	$4, %al	 #, D.2236
 178 007a 0F84D300 		je	L11	 #,
 178      0000
 179 0080 3C05     		cmpb	$5, %al	 #, D.2236
 180 0082 0F849B00 		je	L12	 #,
 180      0000
 181 0088 84C0     		testb	%al, %al	 # D.2236
 182 008a 747A     		je	L32	 #,
 183              	LVL6:
 184              	L10:
 185              	LBB26:
 186              	LBB27:
 187              		.file 2 "../firmware/chibios/os/kernel/include/chinline.h"
 188              		.loc 2 43 0
 189 008c 89F0     		movl	%esi, %eax	 # mp, tqp
 190 008e 6690     		.p2align 4,,5
 191 0090 EB08     		jmp	L27	 #
 192              	LVL7:
 193              		.p2align 4,,7
 194              	L23:
 195              		.loc 2 46 0
 196 0092 8B7B08   		movl	8(%ebx), %edi	 # ctp_8->p_prio, tmp102
 197 0095 397808   		cmpl	%edi, 8(%eax)	 # tmp102, MEM[(struct Thread *)tqp_59].p_prio
 198 0098 7206     		jb	L26	 #,
 199              	L27:
GAS LISTING /cygdrive/c/DOCUME~1/andrey/LOCALS~1/Temp/ccMuA7oP.s 			page 5


 200              		.loc 2 45 0
 201 009a 8B00     		movl	(%eax), %eax	 # MEM[(struct Thread *)tqp_58].p_next, tqp
 202              	LVL8:
 203              		.loc 2 46 0
 204 009c 39C6     		cmpl	%eax, %esi	 # tqp, mp
 205 009e 75F2     		jne	L23	 #,
 206              	L26:
 207              		.loc 2 48 0
 208 00a0 8B5004   		movl	4(%eax), %edx	 # MEM[(struct Thread *)tqp_84].p_prev, D.2237
 209              		.loc 2 47 0
 210 00a3 8903     		movl	%eax, (%ebx)	 # tqp, ctp_8->p_next
 211              		.loc 2 48 0
 212 00a5 895304   		movl	%edx, 4(%ebx)	 # D.2237, ctp_8->p_prev
 213              		.loc 2 49 0
 214 00a8 895804   		movl	%ebx, 4(%eax)	 # ctp, MEM[(struct Thread *)tqp_84].p_prev
 215 00ab 891A     		movl	%ebx, (%edx)	 # ctp, _62->p_next
 216              	LBE27:
 217              	LBE26:
 218              		.loc 1 174 0
 219 00ad 897324   		movl	%esi, 36(%ebx)	 # mp, ctp_8->p_u.wtobjp
 220              		.loc 1 175 0
 221 00b0 C7042404 		movl	$4, (%esp)	 #,
 221      000000
 222 00b7 E8000000 		call	_chSchGoSleepS	 #
 222      00
 223              	LVL9:
 224              		.loc 1 178 0
 225 00bc 395E08   		cmpl	%ebx, 8(%esi)	 # ctp, mp_10(D)->m_owner
 226 00bf 741C     		je	L25	 #,
 227              		.loc 1 178 0 is_stmt 0 discriminator 1
 228 00c1 C7442408 		movl	$178, 8(%esp)	 #,
 228      B2000000 
 229 00c9 C7442404 		movl	$LC0, 4(%esp)	 #,
 229      00000000 
 230 00d1 C7042447 		movl	$LC3, (%esp)	 #,
 230      000000
 231 00d8 E8000000 		call	_chDbgPanic	 #
 231      00
 232              	LVL10:
 233              	L25:
 234              		.loc 1 179 0 is_stmt 1
 235 00dd 39733C   		cmpl	%esi, 60(%ebx)	 # mp, ctp_8->p_mtxlist
 236 00e0 741C     		je	L6	 #,
 237              		.loc 1 179 0 is_stmt 0 discriminator 1
 238 00e2 C7442408 		movl	$179, 8(%esp)	 #,
 238      B3000000 
 239 00ea C7442404 		movl	$LC0, 4(%esp)	 #,
 239      00000000 
 240 00f2 C7042458 		movl	$LC4, (%esp)	 #,
 240      000000
 241 00f9 E8000000 		call	_chDbgPanic	 #
 241      00
 242              	LVL11:
 243              	L6:
 244              	LBE25:
 245              		.loc 1 187 0 is_stmt 1
 246 00fe 83C41C   		addl	$28, %esp	 #,
GAS LISTING /cygdrive/c/DOCUME~1/andrey/LOCALS~1/Temp/ccMuA7oP.s 			page 6


 247              		.cfi_remember_state
 248              		.cfi_def_cfa_offset 20
 249 0101 5B       		popl	%ebx	 #
 250              		.cfi_restore 3
 251              		.cfi_def_cfa_offset 16
 252              	LVL12:
 253 0102 5E       		popl	%esi	 #
 254              		.cfi_restore 6
 255              		.cfi_def_cfa_offset 12
 256              	LVL13:
 257 0103 5F       		popl	%edi	 #
 258              		.cfi_restore 7
 259              		.cfi_def_cfa_offset 8
 260 0104 5D       		popl	%ebp	 #
 261              		.cfi_restore 5
 262              		.cfi_def_cfa_offset 4
 263 0105 C3       		ret
 264              	LVL14:
 265              		.p2align 4,,7
 266              	L32:
 267              		.cfi_restore_state
 268              	LBB44:
 269              	LBB28:
 270              	LBB29:
 271              		.loc 2 75 0
 272 0106 8B0A     		movl	(%edx), %ecx	 # tp_81->p_next, D.2237
 273 0108 8B4204   		movl	4(%edx), %eax	 # tp_81->p_prev, D.2237
 274              	LBE29:
 275              	LBE28:
 276              		.loc 1 164 0
 277 010b C6421C01 		movb	$1, 28(%edx)	 #, tp_81->p_state
 278              	LVL15:
 279              	LBB31:
 280              	LBB30:
 281              		.loc 2 75 0
 282 010f 8908     		movl	%ecx, (%eax)	 # D.2237, _55->p_next
 283              		.loc 2 76 0
 284 0111 8B0A     		movl	(%edx), %ecx	 # tp_81->p_next, tp_81->p_next
 285 0113 894104   		movl	%eax, 4(%ecx)	 # D.2237, _57->p_prev
 286              	LBE30:
 287              	LBE31:
 288              		.loc 1 167 0
 289 0116 891424   		movl	%edx, (%esp)	 # tp,
 290 0119 E8000000 		call	_chSchReadyI	 #
 290      00
 291              	LVL16:
 292              		.loc 1 168 0
 293 011e E969FFFF 		jmp	L10	 #
 293      FF
 294              	LVL17:
 295              		.p2align 4,,7
 296              	L12:
 297              	LBB32:
 298              	LBB33:
 299              		.loc 2 75 0
 300 0123 8B4204   		movl	4(%edx), %eax	 # tp_82->p_prev, D.2237
 301 0126 8B2A     		movl	(%edx), %ebp	 # tp_82->p_next, tmp100
GAS LISTING /cygdrive/c/DOCUME~1/andrey/LOCALS~1/Temp/ccMuA7oP.s 			page 7


 302              	LBE33:
 303              	LBE32:
 304              		.loc 1 158 0
 305 0128 8B7A24   		movl	36(%edx), %edi	 # tp_82->p_u.wtobjp, tqp
 306              	LVL18:
 307              	LBB35:
 308              	LBB34:
 309              		.loc 2 75 0
 310 012b 8928     		movl	%ebp, (%eax)	 # tmp100, _48->p_next
 311              		.loc 2 76 0
 312 012d 8B2A     		movl	(%edx), %ebp	 # tp_82->p_next, tmp101
 313 012f 894504   		movl	%eax, 4(%ebp)	 # D.2237, _50->p_prev
 314              	LVL19:
 315              	LBE34:
 316              	LBE35:
 317              	LBB36:
 318              	LBB37:
 319              		.loc 2 43 0
 320 0132 89F8     		movl	%edi, %eax	 # tqp, tqp
 321 0134 EB05     		jmp	L22	 #
 322              	LVL20:
 323              		.p2align 4,,7
 324              	L20:
 325              		.loc 2 46 0
 326 0136 394808   		cmpl	%ecx, 8(%eax)	 # D.2235, MEM[(struct Thread *)tqp_52].p_prio
 327 0139 7206     		jb	L21	 #,
 328              	L22:
 329              		.loc 2 45 0
 330 013b 8B00     		movl	(%eax), %eax	 # MEM[(struct Thread *)tqp_51].p_next, tqp
 331              	LVL21:
 332              		.loc 2 46 0
 333 013d 39C7     		cmpl	%eax, %edi	 # tqp, tqp
 334 013f 75F5     		jne	L20	 #,
 335              	L21:
 336              		.loc 2 48 0
 337 0141 8B4804   		movl	4(%eax), %ecx	 # MEM[(struct Thread *)tqp_85].p_prev, D.2237
 338              		.loc 2 47 0
 339 0144 8902     		movl	%eax, (%edx)	 # tqp, tp_82->p_next
 340              		.loc 2 48 0
 341 0146 894A04   		movl	%ecx, 4(%edx)	 # D.2237, tp_82->p_prev
 342              		.loc 2 49 0
 343 0149 895004   		movl	%edx, 4(%eax)	 # tp, MEM[(struct Thread *)tqp_85].p_prev
 344 014c 8911     		movl	%edx, (%ecx)	 # tp, _54->p_next
 345 014e E939FFFF 		jmp	L10	 #
 345      FF
 346              	LVL22:
 347              		.p2align 4,,7
 348              	L11:
 349              	LBE37:
 350              	LBE36:
 351              	LBB38:
 352              	LBB39:
 353              		.loc 2 75 0
 354 0153 8B4204   		movl	4(%edx), %eax	 # tp_117->p_prev, D.2237
 355 0156 8B2A     		movl	(%edx), %ebp	 # tp_117->p_next, tmp98
 356              	LBE39:
 357              	LBE38:
GAS LISTING /cygdrive/c/DOCUME~1/andrey/LOCALS~1/Temp/ccMuA7oP.s 			page 8


 358              		.loc 1 142 0
 359 0158 8B7A24   		movl	36(%edx), %edi	 # tp_117->p_u.wtobjp, tqp
 360              	LVL23:
 361              	LBB41:
 362              	LBB40:
 363              		.loc 2 75 0
 364 015b 8928     		movl	%ebp, (%eax)	 # tmp98, _41->p_next
 365              		.loc 2 76 0
 366 015d 8B2A     		movl	(%edx), %ebp	 # tp_117->p_next, tmp99
 367 015f 894504   		movl	%eax, 4(%ebp)	 # D.2237, _43->p_prev
 368              	LVL24:
 369              	LBE40:
 370              	LBE41:
 371              		.loc 1 142 0
 372 0162 89F8     		movl	%edi, %eax	 # tqp, tqp
 373 0164 EB05     		jmp	L18	 #
 374              	LVL25:
 375              		.p2align 4,,7
 376              	L14:
 377              	LBB42:
 378              	LBB43:
 379              		.loc 2 46 0
 380 0166 394808   		cmpl	%ecx, 8(%eax)	 # D.2235, MEM[(struct Thread *)tqp_45].p_prio
 381 0169 7206     		jb	L17	 #,
 382              	L18:
 383              		.loc 2 45 0
 384 016b 8B00     		movl	(%eax), %eax	 # MEM[(struct Thread *)tqp_44].p_next, tqp
 385              	LVL26:
 386              		.loc 2 46 0
 387 016d 39C7     		cmpl	%eax, %edi	 # tqp, tqp
 388 016f 75F5     		jne	L14	 #,
 389              	L17:
 390              		.loc 2 48 0
 391 0171 8B4804   		movl	4(%eax), %ecx	 # MEM[(struct Thread *)tqp_86].p_prev, D.2237
 392              		.loc 2 47 0
 393 0174 8902     		movl	%eax, (%edx)	 # tqp, tp_117->p_next
 394              		.loc 2 48 0
 395 0176 894A04   		movl	%ecx, 4(%edx)	 # D.2237, tp_117->p_prev
 396              		.loc 2 49 0
 397 0179 895004   		movl	%edx, 4(%eax)	 # tp, MEM[(struct Thread *)tqp_86].p_prev
 398 017c 8911     		movl	%edx, (%ecx)	 # tp, _47->p_next
 399              	LBE43:
 400              	LBE42:
 401              		.loc 1 143 0
 402 017e 8B5708   		movl	8(%edi), %edx	 # MEM[(struct Mutex *)tqp_18].m_owner, tp
 403              	LVL27:
 404              		.loc 1 135 0
 405 0181 8B4B08   		movl	8(%ebx), %ecx	 # ctp_8->p_prio, D.2235
 406 0184 394A08   		cmpl	%ecx, 8(%edx)	 # D.2235,
 407 0187 0F82E4FE 		jb	L29	 #,
 407      FFFF
 408 018d E9FAFEFF 		jmp	L10	 #
 408      FF
 409              	LVL28:
 410              		.p2align 4,,7
 411              	L8:
 412              	LBE44:
GAS LISTING /cygdrive/c/DOCUME~1/andrey/LOCALS~1/Temp/ccMuA7oP.s 			page 9


 413              		.loc 1 184 0
 414 0192 8B433C   		movl	60(%ebx), %eax	 # ctp_8->p_mtxlist, ctp_8->p_mtxlist
 415              		.loc 1 183 0
 416 0195 895E08   		movl	%ebx, 8(%esi)	 # ctp, mp_10(D)->m_owner
 417              		.loc 1 184 0
 418 0198 89460C   		movl	%eax, 12(%esi)	 # ctp_8->p_mtxlist, mp_10(D)->m_next
 419              		.loc 1 185 0
 420 019b 89733C   		movl	%esi, 60(%ebx)	 # mp, ctp_8->p_mtxlist
 421              		.loc 1 187 0
 422 019e 83C41C   		addl	$28, %esp	 #,
 423              		.cfi_remember_state
 424              		.cfi_def_cfa_offset 20
 425 01a1 5B       		popl	%ebx	 #
 426              		.cfi_restore 3
 427              		.cfi_def_cfa_offset 16
 428              	LVL29:
 429 01a2 5E       		popl	%esi	 #
 430              		.cfi_restore 6
 431              		.cfi_def_cfa_offset 12
 432              	LVL30:
 433 01a3 5F       		popl	%edi	 #
 434              		.cfi_restore 7
 435              		.cfi_def_cfa_offset 8
 436 01a4 5D       		popl	%ebp	 #
 437              		.cfi_restore 5
 438              		.cfi_def_cfa_offset 4
 439 01a5 C3       		ret
 440              	LVL31:
 441              	L31:
 442              		.cfi_restore_state
 443              		.loc 1 125 0 discriminator 1
 444 01a6 C7442408 		movl	$125, 8(%esp)	 #,
 444      7D000000 
 445 01ae C7442404 		movl	$LC0, 4(%esp)	 #,
 445      00000000 
 446 01b6 C7042438 		movl	$LC2, (%esp)	 #,
 446      000000
 447 01bd E8000000 		call	_chDbgPanic	 #
 447      00
 448              	LVL32:
 449 01c2 E997FEFF 		jmp	L7	 #
 449      FF
 450              		.cfi_endproc
 451              	LFE9:
 452 01c7 89F68DBC 		.p2align 4,,15
 452      27000000 
 452      00
 453              		.globl	_chMtxLock
 454              		.def	_chMtxLock;	.scl	2;	.type	32;	.endef
 455              	_chMtxLock:
 456              	LFB8:
 457              		.loc 1 103 0
 458              		.cfi_startproc
 459              	LVL33:
 460 01d0 83EC1C   		subl	$28, %esp	 #,
 461              		.cfi_def_cfa_offset 32
 462              		.loc 1 105 0
GAS LISTING /cygdrive/c/DOCUME~1/andrey/LOCALS~1/Temp/ccMuA7oP.s 			page 10


 463              	/APP
 464              	 # 105 "../firmware/chibios/os/kernel/src/chmtx.c" 1
 465 01d3 90       		nop
 466              	 # 0 "" 2
 467              	/NO_APP
 468 01d4 E8000000 		call	_dbg_check_lock	 #
 468      00
 469              	LVL34:
 470              		.loc 1 107 0
 471 01d9 8B442420 		movl	32(%esp), %eax	 # mp, mp
 472 01dd 890424   		movl	%eax, (%esp)	 # mp,
 473 01e0 E85BFEFF 		call	_chMtxLockS	 #
 473      FF
 474              	LVL35:
 475              		.loc 1 109 0
 476 01e5 E8000000 		call	_dbg_check_unlock	 #
 476      00
 477              	LVL36:
 478              	/APP
 479              	 # 109 "../firmware/chibios/os/kernel/src/chmtx.c" 1
 480 01ea 90       		nop
 481              	 # 0 "" 2
 482              		.loc 1 110 0
 483              	/NO_APP
 484 01eb 83C41C   		addl	$28, %esp	 #,
 485              		.cfi_def_cfa_offset 4
 486 01ee C3       		ret
 487              		.cfi_endproc
 488              	LFE8:
 489              		.section .rdata,"dr"
 490              	LC5:
 491 0069 2263684D 		.ascii "\"chMtxTryLockS\"()\0"
 491      74785472 
 491      794C6F63 
 491      6B532228 
 491      2900
 492              		.text
 493 01ef 90       		.p2align 4,,15
 494              		.globl	_chMtxTryLockS
 495              		.def	_chMtxTryLockS;	.scl	2;	.type	32;	.endef
 496              	_chMtxTryLockS:
 497              	LFB11:
 498              		.loc 1 234 0
 499              		.cfi_startproc
 500              	LVL37:
 501 01f0 53       		pushl	%ebx	 #
 502              		.cfi_def_cfa_offset 8
 503              		.cfi_offset 3, -8
 504 01f1 83EC18   		subl	$24, %esp	 #,
 505              		.cfi_def_cfa_offset 32
 506              		.loc 1 234 0
 507 01f4 8B5C2420 		movl	32(%esp), %ebx	 # mp, mp
 508              		.loc 1 236 0
 509 01f8 E8000000 		call	_chDbgCheckClassS	 #
 509      00
 510              	LVL38:
 511              		.loc 1 237 0
GAS LISTING /cygdrive/c/DOCUME~1/andrey/LOCALS~1/Temp/ccMuA7oP.s 			page 11


 512 01fd 85DB     		testl	%ebx, %ebx	 # mp
 513 01ff 742F     		je	L40	 #,
 514              	L36:
 515              		.loc 1 239 0
 516 0201 8B5308   		movl	8(%ebx), %edx	 # mp_6(D)->m_owner,
 517              		.loc 1 240 0
 518 0204 31C0     		xorl	%eax, %eax	 # D.2246
 519              		.loc 1 239 0
 520 0206 85D2     		testl	%edx, %edx	 #
 521 0208 7406     		je	L41	 #,
 522              		.loc 1 245 0
 523 020a 83C418   		addl	$24, %esp	 #,
 524              		.cfi_remember_state
 525              		.cfi_def_cfa_offset 8
 526 020d 5B       		popl	%ebx	 #
 527              		.cfi_restore 3
 528              		.cfi_def_cfa_offset 4
 529 020e C3       		ret
 530 020f 90       		.p2align 4,,7
 531              	L41:
 532              		.cfi_restore_state
 533              		.loc 1 241 0
 534 0210 A1180000 		movl	_rlist+24, %eax	 # rlist.r_current, D.2247
 534      00
 535              		.loc 1 242 0
 536 0215 8B503C   		movl	60(%eax), %edx	 # _9->p_mtxlist, _9->p_mtxlist
 537              		.loc 1 241 0
 538 0218 894308   		movl	%eax, 8(%ebx)	 # D.2247, mp_6(D)->m_owner
 539              		.loc 1 242 0
 540 021b 89530C   		movl	%edx, 12(%ebx)	 # _9->p_mtxlist, mp_6(D)->m_next
 541              		.loc 1 243 0
 542 021e 89583C   		movl	%ebx, 60(%eax)	 # mp, _9->p_mtxlist
 543              		.loc 1 245 0
 544 0221 83C418   		addl	$24, %esp	 #,
 545              		.cfi_remember_state
 546              		.cfi_def_cfa_offset 8
 547              		.loc 1 244 0
 548 0224 B8010000 		movl	$1, %eax	 #, D.2246
 548      00
 549              		.loc 1 245 0
 550 0229 5B       		popl	%ebx	 #
 551              		.cfi_restore 3
 552              		.cfi_def_cfa_offset 4
 553 022a C3       		ret
 554 022b 908D7426 		.p2align 4,,7
 554      00
 555              	L40:
 556              		.cfi_restore_state
 557              		.loc 1 237 0 discriminator 1
 558 0230 C7442408 		movl	$237, 8(%esp)	 #,
 558      ED000000 
 559 0238 C7442404 		movl	$LC0, 4(%esp)	 #,
 559      00000000 
 560 0240 C7042469 		movl	$LC5, (%esp)	 #,
 560      000000
 561 0247 E8000000 		call	_chDbgPanic	 #
 561      00
GAS LISTING /cygdrive/c/DOCUME~1/andrey/LOCALS~1/Temp/ccMuA7oP.s 			page 12


 562              	LVL39:
 563 024c EBB3     		jmp	L36	 #
 564              		.cfi_endproc
 565              	LFE11:
 566 024e 6690     		.p2align 4,,15
 567              		.globl	_chMtxTryLock
 568              		.def	_chMtxTryLock;	.scl	2;	.type	32;	.endef
 569              	_chMtxTryLock:
 570              	LFB10:
 571              		.loc 1 206 0
 572              		.cfi_startproc
 573              	LVL40:
 574 0250 53       		pushl	%ebx	 #
 575              		.cfi_def_cfa_offset 8
 576              		.cfi_offset 3, -8
 577 0251 83EC18   		subl	$24, %esp	 #,
 578              		.cfi_def_cfa_offset 32
 579              		.loc 1 209 0
 580              	/APP
 581              	 # 209 "../firmware/chibios/os/kernel/src/chmtx.c" 1
 582 0254 90       		nop
 583              	 # 0 "" 2
 584              	/NO_APP
 585 0255 E8000000 		call	_dbg_check_lock	 #
 585      00
 586              	LVL41:
 587              		.loc 1 211 0
 588 025a 8B442420 		movl	32(%esp), %eax	 # mp, mp
 589 025e 890424   		movl	%eax, (%esp)	 # mp,
 590 0261 E88AFFFF 		call	_chMtxTryLockS	 #
 590      FF
 591              	LVL42:
 592 0266 89C3     		movl	%eax, %ebx	 #, b
 593              	LVL43:
 594              		.loc 1 213 0
 595 0268 E8000000 		call	_dbg_check_unlock	 #
 595      00
 596              	LVL44:
 597              	/APP
 598              	 # 213 "../firmware/chibios/os/kernel/src/chmtx.c" 1
 599 026d 90       		nop
 600              	 # 0 "" 2
 601              		.loc 1 215 0
 602              	/NO_APP
 603 026e 83C418   		addl	$24, %esp	 #,
 604              		.cfi_def_cfa_offset 8
 605 0271 89D8     		movl	%ebx, %eax	 # b,
 606 0273 5B       		popl	%ebx	 #
 607              		.cfi_restore 3
 608              		.cfi_def_cfa_offset 4
 609              	LVL45:
 610 0274 C3       		ret
 611              		.cfi_endproc
 612              	LFE10:
 613              		.section .rdata,"dr"
 614              	LC6:
 615 007b 63684D74 		.ascii "chMtxUnlock(), #1\0"
GAS LISTING /cygdrive/c/DOCUME~1/andrey/LOCALS~1/Temp/ccMuA7oP.s 			page 13


 615      78556E6C 
 615      6F636B28 
 615      292C2023 
 615      3100
 616              	LC7:
 617 008d 63684D74 		.ascii "chMtxUnlock(), #2\0"
 617      78556E6C 
 617      6F636B28 
 617      292C2023 
 617      3200
 618              		.text
 619 0275 8D742600 		.p2align 4,,15
 619      8DBC2700 
 619      000000
 620              		.globl	_chMtxUnlock
 621              		.def	_chMtxUnlock;	.scl	2;	.type	32;	.endef
 622              	_chMtxUnlock:
 623              	LFB12:
 624              		.loc 1 257 0
 625              		.cfi_startproc
 626 0280 57       		pushl	%edi	 #
 627              		.cfi_def_cfa_offset 8
 628              		.cfi_offset 7, -8
 629 0281 56       		pushl	%esi	 #
 630              		.cfi_def_cfa_offset 12
 631              		.cfi_offset 6, -12
 632 0282 53       		pushl	%ebx	 #
 633              		.cfi_def_cfa_offset 16
 634              		.cfi_offset 3, -16
 635 0283 83EC10   		subl	$16, %esp	 #,
 636              		.cfi_def_cfa_offset 32
 637              		.loc 1 258 0
 638 0286 8B3D1800 		movl	_rlist+24, %edi	 # rlist.r_current, ctp
 638      0000
 639              	LVL46:
 640              		.loc 1 261 0
 641              	/APP
 642              	 # 261 "../firmware/chibios/os/kernel/src/chmtx.c" 1
 643 028c 90       		nop
 644              	 # 0 "" 2
 645              	/NO_APP
 646 028d E8000000 		call	_dbg_check_lock	 #
 646      00
 647              	LVL47:
 648              		.loc 1 262 0
 649 0292 8B773C   		movl	60(%edi), %esi	 # ctp_8->p_mtxlist, D.2254
 650 0295 85F6     		testl	%esi, %esi	 # D.2254
 651 0297 0F848C00 		je	L59	 #,
 651      0000
 652              	L45:
 653              		.loc 1 265 0
 654 029d 397E08   		cmpl	%edi, 8(%esi)	 # ctp, _46->m_owner
 655 02a0 741F     		je	L46	 #,
 656              		.loc 1 265 0 is_stmt 0 discriminator 1
 657 02a2 C7442408 		movl	$267, 8(%esp)	 #,
 657      0B010000 
 658 02aa C7442404 		movl	$LC0, 4(%esp)	 #,
GAS LISTING /cygdrive/c/DOCUME~1/andrey/LOCALS~1/Temp/ccMuA7oP.s 			page 14


 658      00000000 
 659 02b2 C704248D 		movl	$LC7, (%esp)	 #,
 659      000000
 660 02b9 E8000000 		call	_chDbgPanic	 #
 660      00
 661              	LVL48:
 662 02be 8B773C   		movl	60(%edi), %esi	 # ctp_8->p_mtxlist, D.2254
 663              	L46:
 664              	LVL49:
 665              		.loc 1 273 0 is_stmt 1
 666 02c1 8B06     		movl	(%esi), %eax	 # _49->m_queue.p_next, D.2255
 667              		.loc 1 271 0
 668 02c3 8B560C   		movl	12(%esi), %edx	 # _49->m_next, mp
 669              		.loc 1 273 0
 670 02c6 39F0     		cmpl	%esi, %eax	 # D.2254, D.2255
 671              		.loc 1 271 0
 672 02c8 89573C   		movl	%edx, 60(%edi)	 # mp, ctp_8->p_mtxlist
 673              		.loc 1 273 0
 674 02cb 7453     		je	L47	 #,
 675              	LBB45:
 676              		.loc 1 280 0
 677 02cd 85D2     		testl	%edx, %edx	 # mp
 678              		.loc 1 278 0
 679 02cf 8B5F40   		movl	64(%edi), %ebx	 # ctp_8->p_realprio, newprio
 680              	LVL50:
 681              		.loc 1 280 0
 682 02d2 7415     		je	L48	 #,
 683              		.p2align 4,,7
 684              	L50:
 685              		.loc 1 284 0
 686 02d4 8B0A     		movl	(%edx), %ecx	 # mp_39->m_queue.p_next, D.2255
 687 02d6 39D1     		cmpl	%edx, %ecx	 # mp, D.2255
 688 02d8 7408     		je	L49	 #,
 689              		.loc 1 284 0 is_stmt 0 discriminator 1
 690 02da 8B4908   		movl	8(%ecx), %ecx	 # _21->p_prio, newprio
 691 02dd 39CB     		cmpl	%ecx, %ebx	 # newprio, newprio
 692 02df 0F42D9   		cmovb	%ecx, %ebx	 # newprio,, newprio, newprio
 693              	LVL51:
 694              	L49:
 695              		.loc 1 286 0 is_stmt 1
 696 02e2 8B520C   		movl	12(%edx), %edx	 # mp_39->m_next, mp
 697              	LVL52:
 698              		.loc 1 280 0
 699 02e5 85D2     		testl	%edx, %edx	 # mp
 700 02e7 75EB     		jne	L50	 #,
 701              	L48:
 702              	LBB46:
 703              	LBB47:
 704              		.loc 2 62 0
 705 02e9 8B10     		movl	(%eax), %edx	 # _18->p_next, D.2255
 706              	LVL53:
 707              	LBE47:
 708              	LBE46:
 709              		.loc 1 290 0
 710 02eb 895F08   		movl	%ebx, 8(%edi)	 # newprio, ctp_8->p_prio
 711              	LVL54:
 712              	LBB49:
GAS LISTING /cygdrive/c/DOCUME~1/andrey/LOCALS~1/Temp/ccMuA7oP.s 			page 15


 713              	LBB48:
 714              		.loc 2 62 0
 715 02ee 8916     		movl	%edx, (%esi)	 # D.2255, MEM[(struct ThreadsQueue *)_49].p_next
 716 02f0 897204   		movl	%esi, 4(%edx)	 # D.2254, _34->p_prev
 717              	LBE48:
 718              	LBE49:
 719              		.loc 1 295 0
 720 02f3 8B503C   		movl	60(%eax), %edx	 # _18->p_mtxlist, _18->p_mtxlist
 721              		.loc 1 294 0
 722 02f6 894608   		movl	%eax, 8(%esi)	 # D.2255, _49->m_owner
 723              		.loc 1 295 0
 724 02f9 89560C   		movl	%edx, 12(%esi)	 # _18->p_mtxlist, _49->m_next
 725              		.loc 1 296 0
 726 02fc 89703C   		movl	%esi, 60(%eax)	 # D.2254, _18->p_mtxlist
 727              		.loc 1 297 0
 728 02ff C7442404 		movl	$0, 4(%esp)	 #,
 728      00000000 
 729 0307 890424   		movl	%eax, (%esp)	 # D.2255,
 730 030a E8000000 		call	_chSchWakeupS	 #
 730      00
 731              	LVL55:
 732              	L51:
 733              	LBE45:
 734              		.loc 1 301 0
 735 030f E8000000 		call	_dbg_check_unlock	 #
 735      00
 736              	LVL56:
 737              	/APP
 738              	 # 301 "../firmware/chibios/os/kernel/src/chmtx.c" 1
 739 0314 90       		nop
 740              	 # 0 "" 2
 741              		.loc 1 303 0
 742              	/NO_APP
 743 0315 83C410   		addl	$16, %esp	 #,
 744              		.cfi_remember_state
 745              		.cfi_def_cfa_offset 16
 746 0318 89F0     		movl	%esi, %eax	 # D.2254,
 747 031a 5B       		popl	%ebx	 #
 748              		.cfi_restore 3
 749              		.cfi_def_cfa_offset 12
 750 031b 5E       		popl	%esi	 #
 751              		.cfi_restore 6
 752              		.cfi_def_cfa_offset 8
 753              	LVL57:
 754 031c 5F       		popl	%edi	 #
 755              		.cfi_restore 7
 756              		.cfi_def_cfa_offset 4
 757              	LVL58:
 758 031d C3       		ret
 759              	LVL59:
 760 031e 6690     		.p2align 4,,7
 761              	L47:
 762              		.cfi_restore_state
 763              		.loc 1 300 0
 764 0320 C7460800 		movl	$0, 8(%esi)	 #, _49->m_owner
 764      000000
 765 0327 EBE6     		jmp	L51	 #
GAS LISTING /cygdrive/c/DOCUME~1/andrey/LOCALS~1/Temp/ccMuA7oP.s 			page 16


 766              	LVL60:
 767              	L59:
 768              		.loc 1 262 0 discriminator 1
 769 0329 C7442408 		movl	$264, 8(%esp)	 #,
 769      08010000 
 770 0331 C7442404 		movl	$LC0, 4(%esp)	 #,
 770      00000000 
 771 0339 C704247B 		movl	$LC6, (%esp)	 #,
 771      000000
 772 0340 E8000000 		call	_chDbgPanic	 #
 772      00
 773              	LVL61:
 774 0345 8B773C   		movl	60(%edi), %esi	 # ctp_8->p_mtxlist, D.2254
 775 0348 E950FFFF 		jmp	L45	 #
 775      FF
 776              		.cfi_endproc
 777              	LFE12:
 778              		.section .rdata,"dr"
 779              	LC8:
 780 009f 63684D74 		.ascii "chMtxUnlockS(), #1\0"
 780      78556E6C 
 780      6F636B53 
 780      28292C20 
 780      233100
 781              	LC9:
 782 00b2 63684D74 		.ascii "chMtxUnlockS(), #2\0"
 782      78556E6C 
 782      6F636B53 
 782      28292C20 
 782      233200
 783 00c5 000000   		.text
 784 034d 8D7600   		.p2align 4,,15
 785              		.globl	_chMtxUnlockS
 786              		.def	_chMtxUnlockS;	.scl	2;	.type	32;	.endef
 787              	_chMtxUnlockS:
 788              	LFB13:
 789              		.loc 1 317 0
 790              		.cfi_startproc
 791 0350 57       		pushl	%edi	 #
 792              		.cfi_def_cfa_offset 8
 793              		.cfi_offset 7, -8
 794 0351 56       		pushl	%esi	 #
 795              		.cfi_def_cfa_offset 12
 796              		.cfi_offset 6, -12
 797 0352 53       		pushl	%ebx	 #
 798              		.cfi_def_cfa_offset 16
 799              		.cfi_offset 3, -16
 800 0353 83EC10   		subl	$16, %esp	 #,
 801              		.cfi_def_cfa_offset 32
 802              		.loc 1 318 0
 803 0356 8B3D1800 		movl	_rlist+24, %edi	 # rlist.r_current, ctp
 803      0000
 804              	LVL62:
 805              		.loc 1 321 0
 806 035c E8000000 		call	_chDbgCheckClassS	 #
 806      00
 807              	LVL63:
GAS LISTING /cygdrive/c/DOCUME~1/andrey/LOCALS~1/Temp/ccMuA7oP.s 			page 17


 808              		.loc 1 322 0
 809 0361 8B773C   		movl	60(%edi), %esi	 # ctp_8->p_mtxlist, D.2262
 810 0364 85F6     		testl	%esi, %esi	 # D.2262
 811 0366 0F848400 		je	L75	 #,
 811      0000
 812              	L61:
 813              		.loc 1 325 0
 814 036c 397E08   		cmpl	%edi, 8(%esi)	 # ctp, _45->m_owner
 815 036f 741F     		je	L62	 #,
 816              		.loc 1 325 0 is_stmt 0 discriminator 1
 817 0371 C7442408 		movl	$327, 8(%esp)	 #,
 817      47010000 
 818 0379 C7442404 		movl	$LC0, 4(%esp)	 #,
 818      00000000 
 819 0381 C70424B2 		movl	$LC9, (%esp)	 #,
 819      000000
 820 0388 E8000000 		call	_chDbgPanic	 #
 820      00
 821              	LVL64:
 822 038d 8B773C   		movl	60(%edi), %esi	 # ctp_8->p_mtxlist, D.2262
 823              	L62:
 824              	LVL65:
 825              		.loc 1 334 0 is_stmt 1
 826 0390 8B06     		movl	(%esi), %eax	 # _48->m_queue.p_next, D.2263
 827              		.loc 1 332 0
 828 0392 8B560C   		movl	12(%esi), %edx	 # _48->m_next, mp
 829              		.loc 1 334 0
 830 0395 39F0     		cmpl	%esi, %eax	 # D.2262, D.2263
 831              		.loc 1 332 0
 832 0397 89573C   		movl	%edx, 60(%edi)	 # mp, ctp_8->p_mtxlist
 833              		.loc 1 334 0
 834 039a 7444     		je	L63	 #,
 835              	LBB50:
 836              		.loc 1 341 0
 837 039c 85D2     		testl	%edx, %edx	 # mp
 838              		.loc 1 339 0
 839 039e 8B5F40   		movl	64(%edi), %ebx	 # ctp_8->p_realprio, newprio
 840              	LVL66:
 841              		.loc 1 341 0
 842 03a1 7415     		je	L64	 #,
 843              		.p2align 4,,7
 844              	L66:
 845              		.loc 1 345 0
 846 03a3 8B0A     		movl	(%edx), %ecx	 # mp_38->m_queue.p_next, D.2263
 847 03a5 39D1     		cmpl	%edx, %ecx	 # mp, D.2263
 848 03a7 7408     		je	L65	 #,
 849              		.loc 1 345 0 is_stmt 0 discriminator 1
 850 03a9 8B4908   		movl	8(%ecx), %ecx	 # _21->p_prio, newprio
 851 03ac 39CB     		cmpl	%ecx, %ebx	 # newprio, newprio
 852 03ae 0F42D9   		cmovb	%ecx, %ebx	 # newprio,, newprio, newprio
 853              	LVL67:
 854              	L65:
 855              		.loc 1 347 0 is_stmt 1
 856 03b1 8B520C   		movl	12(%edx), %edx	 # mp_38->m_next, mp
 857              	LVL68:
 858              		.loc 1 341 0
 859 03b4 85D2     		testl	%edx, %edx	 # mp
GAS LISTING /cygdrive/c/DOCUME~1/andrey/LOCALS~1/Temp/ccMuA7oP.s 			page 18


 860 03b6 75EB     		jne	L66	 #,
 861              	L64:
 862              	LBB51:
 863              	LBB52:
 864              		.loc 2 62 0
 865 03b8 8B10     		movl	(%eax), %edx	 # _18->p_next, D.2263
 866              	LVL69:
 867              	LBE52:
 868              	LBE51:
 869              		.loc 1 349 0
 870 03ba 895F08   		movl	%ebx, 8(%edi)	 # newprio, ctp_8->p_prio
 871              	LVL70:
 872              	LBB54:
 873              	LBB53:
 874              		.loc 2 62 0
 875 03bd 8916     		movl	%edx, (%esi)	 # D.2263, MEM[(struct ThreadsQueue *)_48].p_next
 876 03bf 897204   		movl	%esi, 4(%edx)	 # D.2262, _33->p_prev
 877              	LBE53:
 878              	LBE54:
 879              		.loc 1 354 0
 880 03c2 8B503C   		movl	60(%eax), %edx	 # _18->p_mtxlist, _18->p_mtxlist
 881              		.loc 1 353 0
 882 03c5 894608   		movl	%eax, 8(%esi)	 # D.2263, _48->m_owner
 883              		.loc 1 354 0
 884 03c8 89560C   		movl	%edx, 12(%esi)	 # _18->p_mtxlist, _48->m_next
 885              		.loc 1 355 0
 886 03cb 89703C   		movl	%esi, 60(%eax)	 # D.2262, _18->p_mtxlist
 887              		.loc 1 356 0
 888 03ce 890424   		movl	%eax, (%esp)	 # D.2263,
 889 03d1 E8000000 		call	_chSchReadyI	 #
 889      00
 890              	LVL71:
 891              	LBE50:
 892              		.loc 1 361 0
 893 03d6 83C410   		addl	$16, %esp	 #,
 894              		.cfi_remember_state
 895              		.cfi_def_cfa_offset 16
 896 03d9 89F0     		movl	%esi, %eax	 # D.2262,
 897 03db 5B       		popl	%ebx	 #
 898              		.cfi_restore 3
 899              		.cfi_def_cfa_offset 12
 900              	LVL72:
 901 03dc 5E       		popl	%esi	 #
 902              		.cfi_restore 6
 903              		.cfi_def_cfa_offset 8
 904              	LVL73:
 905 03dd 5F       		popl	%edi	 #
 906              		.cfi_restore 7
 907              		.cfi_def_cfa_offset 4
 908              	LVL74:
 909 03de C3       		ret
 910              	LVL75:
 911 03df 90       		.p2align 4,,7
 912              	L63:
 913              		.cfi_restore_state
 914              		.loc 1 359 0
 915 03e0 C7460800 		movl	$0, 8(%esi)	 #, _48->m_owner
GAS LISTING /cygdrive/c/DOCUME~1/andrey/LOCALS~1/Temp/ccMuA7oP.s 			page 19


 915      000000
 916              		.loc 1 361 0
 917 03e7 83C410   		addl	$16, %esp	 #,
 918              		.cfi_remember_state
 919              		.cfi_def_cfa_offset 16
 920 03ea 89F0     		movl	%esi, %eax	 # D.2262,
 921 03ec 5B       		popl	%ebx	 #
 922              		.cfi_restore 3
 923              		.cfi_def_cfa_offset 12
 924 03ed 5E       		popl	%esi	 #
 925              		.cfi_restore 6
 926              		.cfi_def_cfa_offset 8
 927              	LVL76:
 928 03ee 5F       		popl	%edi	 #
 929              		.cfi_restore 7
 930              		.cfi_def_cfa_offset 4
 931              	LVL77:
 932 03ef C3       		ret
 933              	LVL78:
 934              	L75:
 935              		.cfi_restore_state
 936              		.loc 1 322 0 discriminator 1
 937 03f0 C7442408 		movl	$324, 8(%esp)	 #,
 937      44010000 
 938 03f8 C7442404 		movl	$LC0, 4(%esp)	 #,
 938      00000000 
 939 0400 C704249F 		movl	$LC8, (%esp)	 #,
 939      000000
 940 0407 E8000000 		call	_chDbgPanic	 #
 940      00
 941              	LVL79:
 942 040c 8B773C   		movl	60(%edi), %esi	 # ctp_8->p_mtxlist, D.2262
 943 040f E958FFFF 		jmp	L61	 #
 943      FF
 944              		.cfi_endproc
 945              	LFE13:
 946 0414 8DB60000 		.p2align 4,,15
 946      00008DBF 
 946      00000000 
 947              		.globl	_chMtxUnlockAll
 948              		.def	_chMtxUnlockAll;	.scl	2;	.type	32;	.endef
 949              	_chMtxUnlockAll:
 950              	LFB14:
 951              		.loc 1 374 0
 952              		.cfi_startproc
 953 0420 53       		pushl	%ebx	 #
 954              		.cfi_def_cfa_offset 8
 955              		.cfi_offset 3, -8
 956 0421 83EC18   		subl	$24, %esp	 #,
 957              		.cfi_def_cfa_offset 32
 958              		.loc 1 375 0
 959 0424 8B1D1800 		movl	_rlist+24, %ebx	 # rlist.r_current, ctp
 959      0000
 960              	LVL80:
 961              		.loc 1 377 0
 962              	/APP
 963              	 # 377 "../firmware/chibios/os/kernel/src/chmtx.c" 1
GAS LISTING /cygdrive/c/DOCUME~1/andrey/LOCALS~1/Temp/ccMuA7oP.s 			page 20


 964 042a 90       		nop
 965              	 # 0 "" 2
 966              	/NO_APP
 967 042b E8000000 		call	_dbg_check_lock	 #
 967      00
 968              	LVL81:
 969              		.loc 1 378 0
 970 0430 8B433C   		movl	60(%ebx), %eax	 # ctp_5->p_mtxlist, D.2272
 971 0433 85C0     		testl	%eax, %eax	 # D.2272
 972 0435 752B     		jne	L81	 #,
 973 0437 EB4E     		jmp	L77	 #
 974              	LVL82:
 975 0439 8DB42600 		.p2align 4,,7
 975      000000
 976              	L87:
 977              	LBB55:
 978              	LBB56:
 979              	LBB57:
 980              	LBB58:
 981              		.loc 2 62 0
 982 0440 8B0A     		movl	(%edx), %ecx	 # _11->p_next, D.2270
 983 0442 8908     		movl	%ecx, (%eax)	 # D.2270, MEM[(struct ThreadsQueue *)_13].p_next
 984 0444 894104   		movl	%eax, 4(%ecx)	 # D.2272, _26->p_prev
 985              	LBE58:
 986              	LBE57:
 987              		.loc 1 385 0
 988 0447 8B4A3C   		movl	60(%edx), %ecx	 # _11->p_mtxlist, _11->p_mtxlist
 989              		.loc 1 384 0
 990 044a 895008   		movl	%edx, 8(%eax)	 # D.2270, _13->m_owner
 991              		.loc 1 385 0
 992 044d 89480C   		movl	%ecx, 12(%eax)	 # _11->p_mtxlist, _13->m_next
 993              		.loc 1 386 0
 994 0450 89423C   		movl	%eax, 60(%edx)	 # D.2272, _11->p_mtxlist
 995              		.loc 1 387 0
 996 0453 891424   		movl	%edx, (%esp)	 # D.2270,
 997 0456 E8000000 		call	_chSchReadyI	 #
 997      00
 998              	LVL83:
 999              	LBE56:
 1000              	LBE55:
 1001              		.loc 1 391 0
 1002 045b 8B433C   		movl	60(%ebx), %eax	 # ctp_5->p_mtxlist, D.2272
 1003 045e 85C0     		testl	%eax, %eax	 # D.2272
 1004 0460 741A     		je	L86	 #,
 1005              	L81:
 1006              	LVL84:
 1007              	LBB59:
 1008              		.loc 1 381 0
 1009 0462 8B500C   		movl	12(%eax), %edx	 # _13->m_next, _13->m_next
 1010 0465 89533C   		movl	%edx, 60(%ebx)	 # _13->m_next, ctp_5->p_mtxlist
 1011              		.loc 1 382 0
 1012 0468 8B10     		movl	(%eax), %edx	 # _13->m_queue.p_next, D.2270
 1013 046a 39C2     		cmpl	%eax, %edx	 # D.2272, D.2270
 1014 046c 75D2     		jne	L87	 #,
 1015              		.loc 1 390 0
 1016 046e C7400800 		movl	$0, 8(%eax)	 #, _13->m_owner
 1016      000000
GAS LISTING /cygdrive/c/DOCUME~1/andrey/LOCALS~1/Temp/ccMuA7oP.s 			page 21


 1017              	LBE59:
 1018              		.loc 1 391 0
 1019 0475 8B433C   		movl	60(%ebx), %eax	 # ctp_5->p_mtxlist, D.2272
 1020              	LVL85:
 1021 0478 85C0     		testl	%eax, %eax	 # D.2272
 1022 047a 75E6     		jne	L81	 #,
 1023              	L86:
 1024              		.loc 1 392 0
 1025 047c 8B4340   		movl	64(%ebx), %eax	 # ctp_5->p_realprio, ctp_5->p_realprio
 1026 047f 894308   		movl	%eax, 8(%ebx)	 # ctp_5->p_realprio, ctp_5->p_prio
 1027              		.loc 1 393 0
 1028 0482 E8000000 		call	_chSchRescheduleS	 #
 1028      00
 1029              	LVL86:
 1030              	L77:
 1031              		.loc 1 395 0
 1032 0487 E8000000 		call	_dbg_check_unlock	 #
 1032      00
 1033              	LVL87:
 1034              	/APP
 1035              	 # 395 "../firmware/chibios/os/kernel/src/chmtx.c" 1
 1036 048c 90       		nop
 1037              	 # 0 "" 2
 1038              		.loc 1 396 0
 1039              	/NO_APP
 1040 048d 83C418   		addl	$24, %esp	 #,
 1041              		.cfi_def_cfa_offset 8
 1042 0490 5B       		popl	%ebx	 #
 1043              		.cfi_restore 3
 1044              		.cfi_def_cfa_offset 4
 1045              	LVL88:
 1046 0491 C3       		ret
 1047              		.cfi_endproc
 1048              	LFE14:
 1049              	Letext0:
 1050              		.file 3 "/usr/include/stdint.h"
 1051              		.file 4 "../firmware/chibios/os/ports/GCC/SIMIA32/chtypes.h"
 1052              		.file 5 "../firmware/chibios/os/kernel/include/chlists.h"
 1053              		.file 6 "../firmware/chibios/os/kernel/include/chthreads.h"
 1054              		.file 7 "../firmware/chibios/os/ports/GCC/SIMIA32/chcore.h"
 1055              		.file 8 "../firmware/chibios/os/kernel/include/chschd.h"
 1056              		.file 9 "../firmware/chibios/os/kernel/include/chmtx.h"
 1057              		.file 10 "../firmware/chibios/os/kernel/include/chdebug.h"
 1058 0492 90909090 		.section	.debug_info,"dr"
 1058      90909090 
 1058      90909090 
 1058      9090
 1059              	Ldebug_info0:
 1060 0000 580D0000 		.long	0xd58
 1061 0004 0400     		.word	0x4
 1062 0006 00000000 		.secrel32	Ldebug_abbrev0
 1063 000a 04       		.byte	0x4
 1064 000b 01       		.uleb128 0x1
 1065 000c 474E5520 		.ascii "GNU C 4.8.2 -mtune=generic -march=i686 -ggdb -O2 -std=gnu99 -fomit-frame-pointer -fgnu89-i
 1065      4320342E 
 1065      382E3220 
 1065      2D6D7475 
GAS LISTING /cygdrive/c/DOCUME~1/andrey/LOCALS~1/Temp/ccMuA7oP.s 			page 22


 1065      6E653D67 
 1066 006c 01       		.byte	0x1
 1067 006d 2E2E2F66 		.ascii "../firmware/chibios/os/kernel/src/chmtx.c\0"
 1067      69726D77 
 1067      6172652F 
 1067      63686962 
 1067      696F732F 
 1068 0097 2F637967 		.ascii "/cygdrive/c/Program Files/Jenkins/workspace/runEfi win32 functional/win32_functional_tests
 1068      64726976 
 1068      652F632F 
 1068      50726F67 
 1068      72616D20 
 1069 00f2 00000000 		.long	Ltext0
 1070 00f6 92040000 		.long	Letext0-Ltext0
 1071 00fa 00000000 		.secrel32	Ldebug_line0
 1072 00fe 02       		.uleb128 0x2
 1073 00ff 04       		.byte	0x4
 1074 0100 05       		.byte	0x5
 1075 0101 696E7400 		.ascii "int\0"
 1076 0105 02       		.uleb128 0x2
 1077 0106 04       		.byte	0x4
 1078 0107 07       		.byte	0x7
 1079 0108 756E7369 		.ascii "unsigned int\0"
 1079      676E6564 
 1079      20696E74 
 1079      00
 1080 0115 02       		.uleb128 0x2
 1081 0116 02       		.byte	0x2
 1082 0117 07       		.byte	0x7
 1083 0118 73686F72 		.ascii "short unsigned int\0"
 1083      7420756E 
 1083      7369676E 
 1083      65642069 
 1083      6E7400
 1084 012b 02       		.uleb128 0x2
 1085 012c 01       		.byte	0x1
 1086 012d 06       		.byte	0x6
 1087 012e 7369676E 		.ascii "signed char\0"
 1087      65642063 
 1087      68617200 
 1088 013a 02       		.uleb128 0x2
 1089 013b 02       		.byte	0x2
 1090 013c 05       		.byte	0x5
 1091 013d 73686F72 		.ascii "short int\0"
 1091      7420696E 
 1091      7400
 1092 0147 03       		.uleb128 0x3
 1093 0148 696E7433 		.ascii "int32_t\0"
 1093      325F7400 
 1094 0150 03       		.byte	0x3
 1095 0151 16       		.byte	0x16
 1096 0152 FE000000 		.long	0xfe
 1097 0156 02       		.uleb128 0x2
 1098 0157 08       		.byte	0x8
 1099 0158 05       		.byte	0x5
 1100 0159 6C6F6E67 		.ascii "long long int\0"
 1100      206C6F6E 
GAS LISTING /cygdrive/c/DOCUME~1/andrey/LOCALS~1/Temp/ccMuA7oP.s 			page 23


 1100      6720696E 
 1100      7400
 1101 0167 03       		.uleb128 0x3
 1102 0168 75696E74 		.ascii "uint8_t\0"
 1102      385F7400 
 1103 0170 03       		.byte	0x3
 1104 0171 1E       		.byte	0x1e
 1105 0172 76010000 		.long	0x176
 1106 0176 02       		.uleb128 0x2
 1107 0177 01       		.byte	0x1
 1108 0178 08       		.byte	0x8
 1109 0179 756E7369 		.ascii "unsigned char\0"
 1109      676E6564 
 1109      20636861 
 1109      7200
 1110 0187 03       		.uleb128 0x3
 1111 0188 75696E74 		.ascii "uint32_t\0"
 1111      33325F74 
 1111      00
 1112 0191 03       		.byte	0x3
 1113 0192 22       		.byte	0x22
 1114 0193 05010000 		.long	0x105
 1115 0197 02       		.uleb128 0x2
 1116 0198 08       		.byte	0x8
 1117 0199 07       		.byte	0x7
 1118 019a 6C6F6E67 		.ascii "long long unsigned int\0"
 1118      206C6F6E 
 1118      6720756E 
 1118      7369676E 
 1118      65642069 
 1119 01b1 03       		.uleb128 0x3
 1120 01b2 626F6F6C 		.ascii "bool_t\0"
 1120      5F7400
 1121 01b9 04       		.byte	0x4
 1122 01ba 23       		.byte	0x23
 1123 01bb BF010000 		.long	0x1bf
 1124 01bf 02       		.uleb128 0x2
 1125 01c0 01       		.byte	0x1
 1126 01c1 02       		.byte	0x2
 1127 01c2 5F426F6F 		.ascii "_Bool\0"
 1127      6C00
 1128 01c8 03       		.uleb128 0x3
 1129 01c9 746D6F64 		.ascii "tmode_t\0"
 1129      655F7400 
 1130 01d1 04       		.byte	0x4
 1131 01d2 24       		.byte	0x24
 1132 01d3 67010000 		.long	0x167
 1133 01d7 03       		.uleb128 0x3
 1134 01d8 74737461 		.ascii "tstate_t\0"
 1134      74655F74 
 1134      00
 1135 01e1 04       		.byte	0x4
 1136 01e2 25       		.byte	0x25
 1137 01e3 67010000 		.long	0x167
 1138 01e7 03       		.uleb128 0x3
 1139 01e8 74726566 		.ascii "trefs_t\0"
 1139      735F7400 
GAS LISTING /cygdrive/c/DOCUME~1/andrey/LOCALS~1/Temp/ccMuA7oP.s 			page 24


 1140 01f0 04       		.byte	0x4
 1141 01f1 26       		.byte	0x26
 1142 01f2 67010000 		.long	0x167
 1143 01f6 03       		.uleb128 0x3
 1144 01f7 74736C69 		.ascii "tslices_t\0"
 1144      6365735F 
 1144      7400
 1145 0201 04       		.byte	0x4
 1146 0202 27       		.byte	0x27
 1147 0203 67010000 		.long	0x167
 1148 0207 03       		.uleb128 0x3
 1149 0208 74707269 		.ascii "tprio_t\0"
 1149      6F5F7400 
 1150 0210 04       		.byte	0x4
 1151 0211 28       		.byte	0x28
 1152 0212 87010000 		.long	0x187
 1153 0216 03       		.uleb128 0x3
 1154 0217 6D73675F 		.ascii "msg_t\0"
 1154      7400
 1155 021d 04       		.byte	0x4
 1156 021e 29       		.byte	0x29
 1157 021f 47010000 		.long	0x147
 1158 0223 03       		.uleb128 0x3
 1159 0224 6576656E 		.ascii "eventmask_t\0"
 1159      746D6173 
 1159      6B5F7400 
 1160 0230 04       		.byte	0x4
 1161 0231 2B       		.byte	0x2b
 1162 0232 87010000 		.long	0x187
 1163 0236 03       		.uleb128 0x3
 1164 0237 73797374 		.ascii "systime_t\0"
 1164      696D655F 
 1164      7400
 1165 0241 04       		.byte	0x4
 1166 0242 2D       		.byte	0x2d
 1167 0243 87010000 		.long	0x187
 1168 0247 03       		.uleb128 0x3
 1169 0248 54687265 		.ascii "Thread\0"
 1169      616400
 1170 024f 05       		.byte	0x5
 1171 0250 2A       		.byte	0x2a
 1172 0251 55020000 		.long	0x255
 1173 0255 04       		.uleb128 0x4
 1174 0256 54687265 		.ascii "Thread\0"
 1174      616400
 1175 025d 48       		.byte	0x48
 1176 025e 06       		.byte	0x6
 1177 025f 5E       		.byte	0x5e
 1178 0260 A3030000 		.long	0x3a3
 1179 0264 05       		.uleb128 0x5
 1180 0265 00000000 		.secrel32	LASF0
 1181 0269 06       		.byte	0x6
 1182 026a 5F       		.byte	0x5f
 1183 026b C7030000 		.long	0x3c7
 1184 026f 00       		.byte	0
 1185 0270 06       		.uleb128 0x6
 1186 0271 705F7072 		.ascii "p_prev\0"
GAS LISTING /cygdrive/c/DOCUME~1/andrey/LOCALS~1/Temp/ccMuA7oP.s 			page 25


 1186      657600
 1187 0278 06       		.byte	0x6
 1188 0279 61       		.byte	0x61
 1189 027a C7030000 		.long	0x3c7
 1190 027e 04       		.byte	0x4
 1191 027f 06       		.uleb128 0x6
 1192 0280 705F7072 		.ascii "p_prio\0"
 1192      696F00
 1193 0287 06       		.byte	0x6
 1194 0288 63       		.byte	0x63
 1195 0289 07020000 		.long	0x207
 1196 028d 08       		.byte	0x8
 1197 028e 06       		.uleb128 0x6
 1198 028f 705F6374 		.ascii "p_ctx\0"
 1198      7800
 1199 0295 06       		.byte	0x6
 1200 0296 64       		.byte	0x64
 1201 0297 71040000 		.long	0x471
 1202 029b 0C       		.byte	0xc
 1203 029c 06       		.uleb128 0x6
 1204 029d 705F6E65 		.ascii "p_newer\0"
 1204      77657200 
 1205 02a5 06       		.byte	0x6
 1206 02a6 66       		.byte	0x66
 1207 02a7 C7030000 		.long	0x3c7
 1208 02ab 10       		.byte	0x10
 1209 02ac 06       		.uleb128 0x6
 1210 02ad 705F6F6C 		.ascii "p_older\0"
 1210      64657200 
 1211 02b5 06       		.byte	0x6
 1212 02b6 67       		.byte	0x67
 1213 02b7 C7030000 		.long	0x3c7
 1214 02bb 14       		.byte	0x14
 1215 02bc 06       		.uleb128 0x6
 1216 02bd 705F6E61 		.ascii "p_name\0"
 1216      6D6500
 1217 02c4 06       		.byte	0x6
 1218 02c5 6E       		.byte	0x6e
 1219 02c6 AB050000 		.long	0x5ab
 1220 02ca 18       		.byte	0x18
 1221 02cb 06       		.uleb128 0x6
 1222 02cc 705F7374 		.ascii "p_state\0"
 1222      61746500 
 1223 02d4 06       		.byte	0x6
 1224 02d5 79       		.byte	0x79
 1225 02d6 D7010000 		.long	0x1d7
 1226 02da 1C       		.byte	0x1c
 1227 02db 06       		.uleb128 0x6
 1228 02dc 705F666C 		.ascii "p_flags\0"
 1228      61677300 
 1229 02e4 06       		.byte	0x6
 1230 02e5 7D       		.byte	0x7d
 1231 02e6 C8010000 		.long	0x1c8
 1232 02ea 1D       		.byte	0x1d
 1233 02eb 06       		.uleb128 0x6
 1234 02ec 705F7265 		.ascii "p_refs\0"
 1234      667300
GAS LISTING /cygdrive/c/DOCUME~1/andrey/LOCALS~1/Temp/ccMuA7oP.s 			page 26


 1235 02f3 06       		.byte	0x6
 1236 02f4 82       		.byte	0x82
 1237 02f5 E7010000 		.long	0x1e7
 1238 02f9 1E       		.byte	0x1e
 1239 02fa 06       		.uleb128 0x6
 1240 02fb 705F7072 		.ascii "p_preempt\0"
 1240      65656D70 
 1240      7400
 1241 0305 06       		.byte	0x6
 1242 0306 88       		.byte	0x88
 1243 0307 F6010000 		.long	0x1f6
 1244 030b 1F       		.byte	0x1f
 1245 030c 06       		.uleb128 0x6
 1246 030d 705F7469 		.ascii "p_time\0"
 1246      6D6500
 1247 0314 06       		.byte	0x6
 1248 0315 8F       		.byte	0x8f
 1249 0316 99040000 		.long	0x499
 1250 031a 20       		.byte	0x20
 1251 031b 06       		.uleb128 0x6
 1252 031c 705F7500 		.ascii "p_u\0"
 1253 0320 06       		.byte	0x6
 1254 0321 B4       		.byte	0xb4
 1255 0322 68050000 		.long	0x568
 1256 0326 24       		.byte	0x24
 1257 0327 06       		.uleb128 0x6
 1258 0328 705F7761 		.ascii "p_waiting\0"
 1258      6974696E 
 1258      6700
 1259 0332 06       		.byte	0x6
 1260 0333 B9       		.byte	0xb9
 1261 0334 F6030000 		.long	0x3f6
 1262 0338 28       		.byte	0x28
 1263 0339 06       		.uleb128 0x6
 1264 033a 705F6D73 		.ascii "p_msgqueue\0"
 1264      67717565 
 1264      756500
 1265 0345 06       		.byte	0x6
 1266 0346 BF       		.byte	0xbf
 1267 0347 CD030000 		.long	0x3cd
 1268 034b 2C       		.byte	0x2c
 1269 034c 06       		.uleb128 0x6
 1270 034d 705F6D73 		.ascii "p_msg\0"
 1270      6700
 1271 0353 06       		.byte	0x6
 1272 0354 C3       		.byte	0xc3
 1273 0355 16020000 		.long	0x216
 1274 0359 34       		.byte	0x34
 1275 035a 06       		.uleb128 0x6
 1276 035b 705F6570 		.ascii "p_epending\0"
 1276      656E6469 
 1276      6E6700
 1277 0366 06       		.byte	0x6
 1278 0367 C9       		.byte	0xc9
 1279 0368 23020000 		.long	0x223
 1280 036c 38       		.byte	0x38
 1281 036d 06       		.uleb128 0x6
GAS LISTING /cygdrive/c/DOCUME~1/andrey/LOCALS~1/Temp/ccMuA7oP.s 			page 27


 1282 036e 705F6D74 		.ascii "p_mtxlist\0"
 1282      786C6973 
 1282      7400
 1283 0378 06       		.byte	0x6
 1284 0379 D0       		.byte	0xd0
 1285 037a BE050000 		.long	0x5be
 1286 037e 3C       		.byte	0x3c
 1287 037f 06       		.uleb128 0x6
 1288 0380 705F7265 		.ascii "p_realprio\0"
 1288      616C7072 
 1288      696F00
 1289 038b 06       		.byte	0x6
 1290 038c D4       		.byte	0xd4
 1291 038d 07020000 		.long	0x207
 1292 0391 40       		.byte	0x40
 1293 0392 06       		.uleb128 0x6
 1294 0393 705F6D70 		.ascii "p_mpool\0"
 1294      6F6F6C00 
 1295 039b 06       		.byte	0x6
 1296 039c DA       		.byte	0xda
 1297 039d 23040000 		.long	0x423
 1298 03a1 44       		.byte	0x44
 1299 03a2 00       		.byte	0
 1300 03a3 07       		.uleb128 0x7
 1301 03a4 08       		.byte	0x8
 1302 03a5 05       		.byte	0x5
 1303 03a6 61       		.byte	0x61
 1304 03a7 C7030000 		.long	0x3c7
 1305 03ab 05       		.uleb128 0x5
 1306 03ac 00000000 		.secrel32	LASF0
 1307 03b0 05       		.byte	0x5
 1308 03b1 62       		.byte	0x62
 1309 03b2 C7030000 		.long	0x3c7
 1310 03b6 00       		.byte	0
 1311 03b7 06       		.uleb128 0x6
 1312 03b8 705F7072 		.ascii "p_prev\0"
 1312      657600
 1313 03bf 05       		.byte	0x5
 1314 03c0 64       		.byte	0x64
 1315 03c1 C7030000 		.long	0x3c7
 1316 03c5 04       		.byte	0x4
 1317 03c6 00       		.byte	0
 1318 03c7 08       		.uleb128 0x8
 1319 03c8 04       		.byte	0x4
 1320 03c9 47020000 		.long	0x247
 1321 03cd 03       		.uleb128 0x3
 1322 03ce 54687265 		.ascii "ThreadsQueue\0"
 1322      61647351 
 1322      75657565 
 1322      00
 1323 03db 05       		.byte	0x5
 1324 03dc 66       		.byte	0x66
 1325 03dd A3030000 		.long	0x3a3
 1326 03e1 07       		.uleb128 0x7
 1327 03e2 04       		.byte	0x4
 1328 03e3 05       		.byte	0x5
 1329 03e4 6B       		.byte	0x6b
GAS LISTING /cygdrive/c/DOCUME~1/andrey/LOCALS~1/Temp/ccMuA7oP.s 			page 28


 1330 03e5 F6030000 		.long	0x3f6
 1331 03e9 05       		.uleb128 0x5
 1332 03ea 00000000 		.secrel32	LASF0
 1333 03ee 05       		.byte	0x5
 1334 03ef 6D       		.byte	0x6d
 1335 03f0 C7030000 		.long	0x3c7
 1336 03f4 00       		.byte	0
 1337 03f5 00       		.byte	0
 1338 03f6 03       		.uleb128 0x3
 1339 03f7 54687265 		.ascii "ThreadsList\0"
 1339      6164734C 
 1339      69737400 
 1340 0403 05       		.byte	0x5
 1341 0404 70       		.byte	0x70
 1342 0405 E1030000 		.long	0x3e1
 1343 0409 02       		.uleb128 0x2
 1344 040a 04       		.byte	0x4
 1345 040b 07       		.byte	0x7
 1346 040c 73697A65 		.ascii "sizetype\0"
 1346      74797065 
 1346      00
 1347 0415 03       		.uleb128 0x3
 1348 0416 72656778 		.ascii "regx86\0"
 1348      383600
 1349 041d 07       		.byte	0x7
 1350 041e 4B       		.byte	0x4b
 1351 041f 23040000 		.long	0x423
 1352 0423 09       		.uleb128 0x9
 1353 0424 04       		.byte	0x4
 1354 0425 04       		.uleb128 0x4
 1355 0426 696E7463 		.ascii "intctx\0"
 1355      747800
 1356 042d 14       		.byte	0x14
 1357 042e 07       		.byte	0x7
 1358 042f 59       		.byte	0x59
 1359 0430 71040000 		.long	0x471
 1360 0434 06       		.uleb128 0x6
 1361 0435 65627800 		.ascii "ebx\0"
 1362 0439 07       		.byte	0x7
 1363 043a 5A       		.byte	0x5a
 1364 043b 15040000 		.long	0x415
 1365 043f 00       		.byte	0
 1366 0440 06       		.uleb128 0x6
 1367 0441 65646900 		.ascii "edi\0"
 1368 0445 07       		.byte	0x7
 1369 0446 5B       		.byte	0x5b
 1370 0447 15040000 		.long	0x415
 1371 044b 04       		.byte	0x4
 1372 044c 06       		.uleb128 0x6
 1373 044d 65736900 		.ascii "esi\0"
 1374 0451 07       		.byte	0x7
 1375 0452 5C       		.byte	0x5c
 1376 0453 15040000 		.long	0x415
 1377 0457 08       		.byte	0x8
 1378 0458 06       		.uleb128 0x6
 1379 0459 65627000 		.ascii "ebp\0"
 1380 045d 07       		.byte	0x7
GAS LISTING /cygdrive/c/DOCUME~1/andrey/LOCALS~1/Temp/ccMuA7oP.s 			page 29


 1381 045e 5D       		.byte	0x5d
 1382 045f 15040000 		.long	0x415
 1383 0463 0C       		.byte	0xc
 1384 0464 06       		.uleb128 0x6
 1385 0465 65697000 		.ascii "eip\0"
 1386 0469 07       		.byte	0x7
 1387 046a 5E       		.byte	0x5e
 1388 046b 15040000 		.long	0x415
 1389 046f 10       		.byte	0x10
 1390 0470 00       		.byte	0
 1391 0471 04       		.uleb128 0x4
 1392 0472 636F6E74 		.ascii "context\0"
 1392      65787400 
 1393 047a 04       		.byte	0x4
 1394 047b 07       		.byte	0x7
 1395 047c 66       		.byte	0x66
 1396 047d 8E040000 		.long	0x48e
 1397 0481 06       		.uleb128 0x6
 1398 0482 65737000 		.ascii "esp\0"
 1399 0486 07       		.byte	0x7
 1400 0487 67       		.byte	0x67
 1401 0488 8E040000 		.long	0x48e
 1402 048c 00       		.byte	0
 1403 048d 00       		.byte	0
 1404 048e 08       		.uleb128 0x8
 1405 048f 04       		.byte	0x4
 1406 0490 94040000 		.long	0x494
 1407 0494 0A       		.uleb128 0xa
 1408 0495 25040000 		.long	0x425
 1409 0499 0A       		.uleb128 0xa
 1410 049a 36020000 		.long	0x236
 1411 049e 07       		.uleb128 0x7
 1412 049f 1C       		.byte	0x1c
 1413 04a0 08       		.byte	0x8
 1414 04a1 5E       		.byte	0x5e
 1415 04a2 06050000 		.long	0x506
 1416 04a6 06       		.uleb128 0x6
 1417 04a7 725F7175 		.ascii "r_queue\0"
 1417      65756500 
 1418 04af 08       		.byte	0x8
 1419 04b0 5F       		.byte	0x5f
 1420 04b1 CD030000 		.long	0x3cd
 1421 04b5 00       		.byte	0
 1422 04b6 06       		.uleb128 0x6
 1423 04b7 725F7072 		.ascii "r_prio\0"
 1423      696F00
 1424 04be 08       		.byte	0x8
 1425 04bf 60       		.byte	0x60
 1426 04c0 07020000 		.long	0x207
 1427 04c4 08       		.byte	0x8
 1428 04c5 06       		.uleb128 0x6
 1429 04c6 725F6374 		.ascii "r_ctx\0"
 1429      7800
 1430 04cc 08       		.byte	0x8
 1431 04cd 62       		.byte	0x62
 1432 04ce 71040000 		.long	0x471
 1433 04d2 0C       		.byte	0xc
GAS LISTING /cygdrive/c/DOCUME~1/andrey/LOCALS~1/Temp/ccMuA7oP.s 			page 30


 1434 04d3 06       		.uleb128 0x6
 1435 04d4 725F6E65 		.ascii "r_newer\0"
 1435      77657200 
 1436 04dc 08       		.byte	0x8
 1437 04dd 65       		.byte	0x65
 1438 04de C7030000 		.long	0x3c7
 1439 04e2 10       		.byte	0x10
 1440 04e3 06       		.uleb128 0x6
 1441 04e4 725F6F6C 		.ascii "r_older\0"
 1441      64657200 
 1442 04ec 08       		.byte	0x8
 1443 04ed 66       		.byte	0x66
 1444 04ee C7030000 		.long	0x3c7
 1445 04f2 14       		.byte	0x14
 1446 04f3 06       		.uleb128 0x6
 1447 04f4 725F6375 		.ascii "r_current\0"
 1447      7272656E 
 1447      7400
 1448 04fe 08       		.byte	0x8
 1449 04ff 69       		.byte	0x69
 1450 0500 C7030000 		.long	0x3c7
 1451 0504 18       		.byte	0x18
 1452 0505 00       		.byte	0
 1453 0506 03       		.uleb128 0x3
 1454 0507 52656164 		.ascii "ReadyList\0"
 1454      794C6973 
 1454      7400
 1455 0511 08       		.byte	0x8
 1456 0512 6B       		.byte	0x6b
 1457 0513 9E040000 		.long	0x49e
 1458 0517 04       		.uleb128 0x4
 1459 0518 4D757465 		.ascii "Mutex\0"
 1459      7800
 1460 051e 10       		.byte	0x10
 1461 051f 09       		.byte	0x9
 1462 0520 2C       		.byte	0x2c
 1463 0521 55050000 		.long	0x555
 1464 0525 06       		.uleb128 0x6
 1465 0526 6D5F7175 		.ascii "m_queue\0"
 1465      65756500 
 1466 052e 09       		.byte	0x9
 1467 052f 2D       		.byte	0x2d
 1468 0530 CD030000 		.long	0x3cd
 1469 0534 00       		.byte	0
 1470 0535 06       		.uleb128 0x6
 1471 0536 6D5F6F77 		.ascii "m_owner\0"
 1471      6E657200 
 1472 053e 09       		.byte	0x9
 1473 053f 2F       		.byte	0x2f
 1474 0540 C7030000 		.long	0x3c7
 1475 0544 08       		.byte	0x8
 1476 0545 06       		.uleb128 0x6
 1477 0546 6D5F6E65 		.ascii "m_next\0"
 1477      787400
 1478 054d 09       		.byte	0x9
 1479 054e 31       		.byte	0x31
 1480 054f 55050000 		.long	0x555
GAS LISTING /cygdrive/c/DOCUME~1/andrey/LOCALS~1/Temp/ccMuA7oP.s 			page 31


 1481 0553 0C       		.byte	0xc
 1482 0554 00       		.byte	0
 1483 0555 08       		.uleb128 0x8
 1484 0556 04       		.byte	0x4
 1485 0557 17050000 		.long	0x517
 1486 055b 03       		.uleb128 0x3
 1487 055c 4D757465 		.ascii "Mutex\0"
 1487      7800
 1488 0562 09       		.byte	0x9
 1489 0563 33       		.byte	0x33
 1490 0564 17050000 		.long	0x517
 1491 0568 0B       		.uleb128 0xb
 1492 0569 04       		.byte	0x4
 1493 056a 06       		.byte	0x6
 1494 056b 96       		.byte	0x96
 1495 056c AB050000 		.long	0x5ab
 1496 0570 0C       		.uleb128 0xc
 1497 0571 7264796D 		.ascii "rdymsg\0"
 1497      736700
 1498 0578 06       		.byte	0x6
 1499 0579 9D       		.byte	0x9d
 1500 057a 16020000 		.long	0x216
 1501 057e 0C       		.uleb128 0xc
 1502 057f 65786974 		.ascii "exitcode\0"
 1502      636F6465 
 1502      00
 1503 0588 06       		.byte	0x6
 1504 0589 A4       		.byte	0xa4
 1505 058a 16020000 		.long	0x216
 1506 058e 0C       		.uleb128 0xc
 1507 058f 77746F62 		.ascii "wtobjp\0"
 1507      6A7000
 1508 0596 06       		.byte	0x6
 1509 0597 AB       		.byte	0xab
 1510 0598 23040000 		.long	0x423
 1511 059c 0C       		.uleb128 0xc
 1512 059d 65776D61 		.ascii "ewmask\0"
 1512      736B00
 1513 05a4 06       		.byte	0x6
 1514 05a5 B2       		.byte	0xb2
 1515 05a6 23020000 		.long	0x223
 1516 05aa 00       		.byte	0
 1517 05ab 08       		.uleb128 0x8
 1518 05ac 04       		.byte	0x4
 1519 05ad B1050000 		.long	0x5b1
 1520 05b1 0D       		.uleb128 0xd
 1521 05b2 B6050000 		.long	0x5b6
 1522 05b6 02       		.uleb128 0x2
 1523 05b7 01       		.byte	0x1
 1524 05b8 06       		.byte	0x6
 1525 05b9 63686172 		.ascii "char\0"
 1525      00
 1526 05be 08       		.uleb128 0x8
 1527 05bf 04       		.byte	0x4
 1528 05c0 5B050000 		.long	0x55b
 1529 05c4 0E       		.uleb128 0xe
 1530 05c5 64657175 		.ascii "dequeue\0"
GAS LISTING /cygdrive/c/DOCUME~1/andrey/LOCALS~1/Temp/ccMuA7oP.s 			page 32


 1530      65756500 
 1531 05cd 02       		.byte	0x2
 1532 05ce 49       		.byte	0x49
 1533 05cf C7030000 		.long	0x3c7
 1534 05d3 03       		.byte	0x3
 1535 05d4 E3050000 		.long	0x5e3
 1536 05d8 0F       		.uleb128 0xf
 1537 05d9 747000   		.ascii "tp\0"
 1538 05dc 02       		.byte	0x2
 1539 05dd 49       		.byte	0x49
 1540 05de C7030000 		.long	0x3c7
 1541 05e2 00       		.byte	0
 1542 05e3 10       		.uleb128 0x10
 1543 05e4 7072696F 		.ascii "prio_insert\0"
 1543      5F696E73 
 1543      65727400 
 1544 05f0 02       		.byte	0x2
 1545 05f1 29       		.byte	0x29
 1546 05f2 03       		.byte	0x3
 1547 05f3 17060000 		.long	0x617
 1548 05f7 0F       		.uleb128 0xf
 1549 05f8 747000   		.ascii "tp\0"
 1550 05fb 02       		.byte	0x2
 1551 05fc 29       		.byte	0x29
 1552 05fd C7030000 		.long	0x3c7
 1553 0601 0F       		.uleb128 0xf
 1554 0602 74717000 		.ascii "tqp\0"
 1555 0606 02       		.byte	0x2
 1556 0607 29       		.byte	0x29
 1557 0608 17060000 		.long	0x617
 1558 060c 11       		.uleb128 0x11
 1559 060d 637000   		.ascii "cp\0"
 1560 0610 02       		.byte	0x2
 1561 0611 2B       		.byte	0x2b
 1562 0612 C7030000 		.long	0x3c7
 1563 0616 00       		.byte	0
 1564 0617 08       		.uleb128 0x8
 1565 0618 04       		.byte	0x4
 1566 0619 CD030000 		.long	0x3cd
 1567 061d 0E       		.uleb128 0xe
 1568 061e 6669666F 		.ascii "fifo_remove\0"
 1568      5F72656D 
 1568      6F766500 
 1569 062a 02       		.byte	0x2
 1570 062b 3B       		.byte	0x3b
 1571 062c C7030000 		.long	0x3c7
 1572 0630 03       		.byte	0x3
 1573 0631 4B060000 		.long	0x64b
 1574 0635 0F       		.uleb128 0xf
 1575 0636 74717000 		.ascii "tqp\0"
 1576 063a 02       		.byte	0x2
 1577 063b 3B       		.byte	0x3b
 1578 063c 17060000 		.long	0x617
 1579 0640 11       		.uleb128 0x11
 1580 0641 747000   		.ascii "tp\0"
 1581 0644 02       		.byte	0x2
 1582 0645 3C       		.byte	0x3c
GAS LISTING /cygdrive/c/DOCUME~1/andrey/LOCALS~1/Temp/ccMuA7oP.s 			page 33


 1583 0646 C7030000 		.long	0x3c7
 1584 064a 00       		.byte	0
 1585 064b 12       		.uleb128 0x12
 1586 064c 63684D74 		.ascii "chMtxInit\0"
 1586      78496E69 
 1586      7400
 1587 0656 01       		.byte	0x1
 1588 0657 56       		.byte	0x56
 1589 0658 00000000 		.long	LFB7
 1590 065c 3E000000 		.long	LFE7-LFB7
 1591 0660 01       		.uleb128 0x1
 1592 0661 9C       		.byte	0x9c
 1593 0662 99060000 		.long	0x699
 1594 0666 13       		.uleb128 0x13
 1595 0667 6D7000   		.ascii "mp\0"
 1596 066a 01       		.byte	0x1
 1597 066b 56       		.byte	0x56
 1598 066c BE050000 		.long	0x5be
 1599 0670 02       		.uleb128 0x2
 1600 0671 91       		.byte	0x91
 1601 0672 00       		.sleb128 0
 1602 0673 14       		.uleb128 0x14
 1603 0674 3C000000 		.long	LVL1
 1604 0678 8E0C0000 		.long	0xc8e
 1605 067c 15       		.uleb128 0x15
 1606 067d 02       		.uleb128 0x2
 1607 067e 74       		.byte	0x74
 1608 067f 00       		.sleb128 0
 1609 0680 05       		.uleb128 0x5
 1610 0681 03       		.byte	0x3
 1611 0682 2A000000 		.long	LC1
 1612 0686 15       		.uleb128 0x15
 1613 0687 02       		.uleb128 0x2
 1614 0688 74       		.byte	0x74
 1615 0689 04       		.sleb128 4
 1616 068a 05       		.uleb128 0x5
 1617 068b 03       		.byte	0x3
 1618 068c 00000000 		.long	LC0
 1619 0690 15       		.uleb128 0x15
 1620 0691 02       		.uleb128 0x2
 1621 0692 74       		.byte	0x74
 1622 0693 08       		.sleb128 8
 1623 0694 02       		.uleb128 0x2
 1624 0695 08       		.byte	0x8
 1625 0696 58       		.byte	0x58
 1626 0697 00       		.byte	0
 1627 0698 00       		.byte	0
 1628 0699 12       		.uleb128 0x12
 1629 069a 63684D74 		.ascii "chMtxLockS\0"
 1629      784C6F63 
 1629      6B5300
 1630 06a5 01       		.byte	0x1
 1631 06a6 79       		.byte	0x79
 1632 06a7 40000000 		.long	LFB9
 1633 06ab 87010000 		.long	LFE9-LFB9
 1634 06af 01       		.uleb128 0x1
 1635 06b0 9C       		.byte	0x9c
GAS LISTING /cygdrive/c/DOCUME~1/andrey/LOCALS~1/Temp/ccMuA7oP.s 			page 34


 1636 06b1 89080000 		.long	0x889
 1637 06b5 13       		.uleb128 0x13
 1638 06b6 6D7000   		.ascii "mp\0"
 1639 06b9 01       		.byte	0x1
 1640 06ba 79       		.byte	0x79
 1641 06bb BE050000 		.long	0x5be
 1642 06bf 02       		.uleb128 0x2
 1643 06c0 91       		.byte	0x91
 1644 06c1 00       		.sleb128 0
 1645 06c2 16       		.uleb128 0x16
 1646 06c3 63747000 		.ascii "ctp\0"
 1647 06c7 01       		.byte	0x1
 1648 06c8 7A       		.byte	0x7a
 1649 06c9 C7030000 		.long	0x3c7
 1650 06cd 00000000 		.secrel32	LLST0
 1651 06d1 17       		.uleb128 0x17
 1652 06d2 00000000 		.secrel32	Ldebug_ranges0+0
 1653 06d6 5A080000 		.long	0x85a
 1654 06da 16       		.uleb128 0x16
 1655 06db 747000   		.ascii "tp\0"
 1656 06de 01       		.byte	0x1
 1657 06df 84       		.byte	0x84
 1658 06e0 C7030000 		.long	0x3c7
 1659 06e4 44000000 		.secrel32	LLST1
 1660 06e8 18       		.uleb128 0x18
 1661 06e9 E3050000 		.long	0x5e3
 1662 06ed 8C000000 		.long	LBB26
 1663 06f1 21000000 		.long	LBE26-LBB26
 1664 06f5 01       		.byte	0x1
 1665 06f6 AD       		.byte	0xad
 1666 06f7 21070000 		.long	0x721
 1667 06fb 19       		.uleb128 0x19
 1668 06fc 01060000 		.long	0x601
 1669 0700 6D000000 		.secrel32	LLST2
 1670 0704 19       		.uleb128 0x19
 1671 0705 F7050000 		.long	0x5f7
 1672 0709 8C000000 		.secrel32	LLST3
 1673 070d 1A       		.uleb128 0x1a
 1674 070e 8C000000 		.long	LBB27
 1675 0712 21000000 		.long	LBE27-LBB27
 1676 0716 1B       		.uleb128 0x1b
 1677 0717 0C060000 		.long	0x60c
 1678 071b 9F000000 		.secrel32	LLST4
 1679 071f 00       		.byte	0
 1680 0720 00       		.byte	0
 1681 0721 1C       		.uleb128 0x1c
 1682 0722 C4050000 		.long	0x5c4
 1683 0726 06010000 		.long	LBB28
 1684 072a 18000000 		.secrel32	Ldebug_ranges0+0x18
 1685 072e 01       		.byte	0x1
 1686 072f A7       		.byte	0xa7
 1687 0730 3E070000 		.long	0x73e
 1688 0734 19       		.uleb128 0x19
 1689 0735 D8050000 		.long	0x5d8
 1690 0739 BD000000 		.secrel32	LLST5
 1691 073d 00       		.byte	0
 1692 073e 1C       		.uleb128 0x1c
GAS LISTING /cygdrive/c/DOCUME~1/andrey/LOCALS~1/Temp/ccMuA7oP.s 			page 35


 1693 073f C4050000 		.long	0x5c4
 1694 0743 23010000 		.long	LBB32
 1695 0747 30000000 		.secrel32	Ldebug_ranges0+0x30
 1696 074b 01       		.byte	0x1
 1697 074c 9E       		.byte	0x9e
 1698 074d 5B070000 		.long	0x75b
 1699 0751 19       		.uleb128 0x19
 1700 0752 D8050000 		.long	0x5d8
 1701 0756 D0000000 		.secrel32	LLST6
 1702 075a 00       		.byte	0
 1703 075b 18       		.uleb128 0x18
 1704 075c E3050000 		.long	0x5e3
 1705 0760 32010000 		.long	LBB36
 1706 0764 21000000 		.long	LBE36-LBB36
 1707 0768 01       		.byte	0x1
 1708 0769 9E       		.byte	0x9e
 1709 076a 94070000 		.long	0x794
 1710 076e 19       		.uleb128 0x19
 1711 076f 01060000 		.long	0x601
 1712 0773 E3000000 		.secrel32	LLST7
 1713 0777 19       		.uleb128 0x19
 1714 0778 F7050000 		.long	0x5f7
 1715 077c F6000000 		.secrel32	LLST8
 1716 0780 1A       		.uleb128 0x1a
 1717 0781 32010000 		.long	LBB37
 1718 0785 21000000 		.long	LBE37-LBB37
 1719 0789 1B       		.uleb128 0x1b
 1720 078a 0C060000 		.long	0x60c
 1721 078e 09010000 		.secrel32	LLST9
 1722 0792 00       		.byte	0
 1723 0793 00       		.byte	0
 1724 0794 1C       		.uleb128 0x1c
 1725 0795 C4050000 		.long	0x5c4
 1726 0799 53010000 		.long	LBB38
 1727 079d 48000000 		.secrel32	Ldebug_ranges0+0x48
 1728 07a1 01       		.byte	0x1
 1729 07a2 8E       		.byte	0x8e
 1730 07a3 B1070000 		.long	0x7b1
 1731 07a7 19       		.uleb128 0x19
 1732 07a8 D8050000 		.long	0x5d8
 1733 07ac 27010000 		.secrel32	LLST10
 1734 07b0 00       		.byte	0
 1735 07b1 18       		.uleb128 0x18
 1736 07b2 E3050000 		.long	0x5e3
 1737 07b6 66010000 		.long	LBB42
 1738 07ba 18000000 		.long	LBE42-LBB42
 1739 07be 01       		.byte	0x1
 1740 07bf 8E       		.byte	0x8e
 1741 07c0 EA070000 		.long	0x7ea
 1742 07c4 19       		.uleb128 0x19
 1743 07c5 01060000 		.long	0x601
 1744 07c9 46010000 		.secrel32	LLST11
 1745 07cd 19       		.uleb128 0x19
 1746 07ce F7050000 		.long	0x5f7
 1747 07d2 59010000 		.secrel32	LLST12
 1748 07d6 1A       		.uleb128 0x1a
 1749 07d7 66010000 		.long	LBB43
GAS LISTING /cygdrive/c/DOCUME~1/andrey/LOCALS~1/Temp/ccMuA7oP.s 			page 36


 1750 07db 18000000 		.long	LBE43-LBB43
 1751 07df 1B       		.uleb128 0x1b
 1752 07e0 0C060000 		.long	0x60c
 1753 07e4 78010000 		.secrel32	LLST13
 1754 07e8 00       		.byte	0
 1755 07e9 00       		.byte	0
 1756 07ea 1D       		.uleb128 0x1d
 1757 07eb BC000000 		.long	LVL9
 1758 07ef B60C0000 		.long	0xcb6
 1759 07f3 FE070000 		.long	0x7fe
 1760 07f7 15       		.uleb128 0x15
 1761 07f8 02       		.uleb128 0x2
 1762 07f9 74       		.byte	0x74
 1763 07fa 00       		.sleb128 0
 1764 07fb 01       		.uleb128 0x1
 1765 07fc 34       		.byte	0x34
 1766 07fd 00       		.byte	0
 1767 07fe 1D       		.uleb128 0x1d
 1768 07ff DD000000 		.long	LVL10
 1769 0803 8E0C0000 		.long	0xc8e
 1770 0807 27080000 		.long	0x827
 1771 080b 15       		.uleb128 0x15
 1772 080c 02       		.uleb128 0x2
 1773 080d 74       		.byte	0x74
 1774 080e 00       		.sleb128 0
 1775 080f 05       		.uleb128 0x5
 1776 0810 03       		.byte	0x3
 1777 0811 47000000 		.long	LC3
 1778 0815 15       		.uleb128 0x15
 1779 0816 02       		.uleb128 0x2
 1780 0817 74       		.byte	0x74
 1781 0818 04       		.sleb128 4
 1782 0819 05       		.uleb128 0x5
 1783 081a 03       		.byte	0x3
 1784 081b 00000000 		.long	LC0
 1785 081f 15       		.uleb128 0x15
 1786 0820 02       		.uleb128 0x2
 1787 0821 74       		.byte	0x74
 1788 0822 08       		.sleb128 8
 1789 0823 02       		.uleb128 0x2
 1790 0824 08       		.byte	0x8
 1791 0825 B2       		.byte	0xb2
 1792 0826 00       		.byte	0
 1793 0827 1D       		.uleb128 0x1d
 1794 0828 FE000000 		.long	LVL11
 1795 082c 8E0C0000 		.long	0xc8e
 1796 0830 50080000 		.long	0x850
 1797 0834 15       		.uleb128 0x15
 1798 0835 02       		.uleb128 0x2
 1799 0836 74       		.byte	0x74
 1800 0837 00       		.sleb128 0
 1801 0838 05       		.uleb128 0x5
 1802 0839 03       		.byte	0x3
 1803 083a 58000000 		.long	LC4
 1804 083e 15       		.uleb128 0x15
 1805 083f 02       		.uleb128 0x2
 1806 0840 74       		.byte	0x74
GAS LISTING /cygdrive/c/DOCUME~1/andrey/LOCALS~1/Temp/ccMuA7oP.s 			page 37


 1807 0841 04       		.sleb128 4
 1808 0842 05       		.uleb128 0x5
 1809 0843 03       		.byte	0x3
 1810 0844 00000000 		.long	LC0
 1811 0848 15       		.uleb128 0x15
 1812 0849 02       		.uleb128 0x2
 1813 084a 74       		.byte	0x74
 1814 084b 08       		.sleb128 8
 1815 084c 02       		.uleb128 0x2
 1816 084d 08       		.byte	0x8
 1817 084e B3       		.byte	0xb3
 1818 084f 00       		.byte	0
 1819 0850 1E       		.uleb128 0x1e
 1820 0851 1E010000 		.long	LVL16
 1821 0855 D10C0000 		.long	0xcd1
 1822 0859 00       		.byte	0
 1823 085a 1E       		.uleb128 0x1e
 1824 085b 56000000 		.long	LVL4
 1825 085f EE0C0000 		.long	0xcee
 1826 0863 14       		.uleb128 0x14
 1827 0864 C2010000 		.long	LVL32
 1828 0868 8E0C0000 		.long	0xc8e
 1829 086c 15       		.uleb128 0x15
 1830 086d 02       		.uleb128 0x2
 1831 086e 74       		.byte	0x74
 1832 086f 00       		.sleb128 0
 1833 0870 05       		.uleb128 0x5
 1834 0871 03       		.byte	0x3
 1835 0872 38000000 		.long	LC2
 1836 0876 15       		.uleb128 0x15
 1837 0877 02       		.uleb128 0x2
 1838 0878 74       		.byte	0x74
 1839 0879 04       		.sleb128 4
 1840 087a 05       		.uleb128 0x5
 1841 087b 03       		.byte	0x3
 1842 087c 00000000 		.long	LC0
 1843 0880 15       		.uleb128 0x15
 1844 0881 02       		.uleb128 0x2
 1845 0882 74       		.byte	0x74
 1846 0883 08       		.sleb128 8
 1847 0884 02       		.uleb128 0x2
 1848 0885 08       		.byte	0x8
 1849 0886 7D       		.byte	0x7d
 1850 0887 00       		.byte	0
 1851 0888 00       		.byte	0
 1852 0889 12       		.uleb128 0x12
 1853 088a 63684D74 		.ascii "chMtxLock\0"
 1853      784C6F63 
 1853      6B00
 1854 0894 01       		.byte	0x1
 1855 0895 67       		.byte	0x67
 1856 0896 D0010000 		.long	LFB8
 1857 089a 1F000000 		.long	LFE8-LFB8
 1858 089e 01       		.uleb128 0x1
 1859 089f 9C       		.byte	0x9c
 1860 08a0 DA080000 		.long	0x8da
 1861 08a4 13       		.uleb128 0x13
GAS LISTING /cygdrive/c/DOCUME~1/andrey/LOCALS~1/Temp/ccMuA7oP.s 			page 38


 1862 08a5 6D7000   		.ascii "mp\0"
 1863 08a8 01       		.byte	0x1
 1864 08a9 67       		.byte	0x67
 1865 08aa BE050000 		.long	0x5be
 1866 08ae 02       		.uleb128 0x2
 1867 08af 91       		.byte	0x91
 1868 08b0 00       		.sleb128 0
 1869 08b1 1E       		.uleb128 0x1e
 1870 08b2 D9010000 		.long	LVL34
 1871 08b6 020D0000 		.long	0xd02
 1872 08ba 1D       		.uleb128 0x1d
 1873 08bb E5010000 		.long	LVL35
 1874 08bf 99060000 		.long	0x699
 1875 08c3 D0080000 		.long	0x8d0
 1876 08c7 15       		.uleb128 0x15
 1877 08c8 02       		.uleb128 0x2
 1878 08c9 74       		.byte	0x74
 1879 08ca 00       		.sleb128 0
 1880 08cb 03       		.uleb128 0x3
 1881 08cc 91       		.byte	0x91
 1882 08cd 00       		.sleb128 0
 1883 08ce 06       		.byte	0x6
 1884 08cf 00       		.byte	0
 1885 08d0 1E       		.uleb128 0x1e
 1886 08d1 EA010000 		.long	LVL36
 1887 08d5 140D0000 		.long	0xd14
 1888 08d9 00       		.byte	0
 1889 08da 1F       		.uleb128 0x1f
 1890 08db 63684D74 		.ascii "chMtxTryLockS\0"
 1890      78547279 
 1890      4C6F636B 
 1890      5300
 1891 08e9 01       		.byte	0x1
 1892 08ea EA       		.byte	0xea
 1893 08eb B1010000 		.long	0x1b1
 1894 08ef F0010000 		.long	LFB11
 1895 08f3 5E000000 		.long	LFE11-LFB11
 1896 08f7 01       		.uleb128 0x1
 1897 08f8 9C       		.byte	0x9c
 1898 08f9 39090000 		.long	0x939
 1899 08fd 13       		.uleb128 0x13
 1900 08fe 6D7000   		.ascii "mp\0"
 1901 0901 01       		.byte	0x1
 1902 0902 EA       		.byte	0xea
 1903 0903 BE050000 		.long	0x5be
 1904 0907 02       		.uleb128 0x2
 1905 0908 91       		.byte	0x91
 1906 0909 00       		.sleb128 0
 1907 090a 1E       		.uleb128 0x1e
 1908 090b FD010000 		.long	LVL38
 1909 090f EE0C0000 		.long	0xcee
 1910 0913 14       		.uleb128 0x14
 1911 0914 4C020000 		.long	LVL39
 1912 0918 8E0C0000 		.long	0xc8e
 1913 091c 15       		.uleb128 0x15
 1914 091d 02       		.uleb128 0x2
 1915 091e 74       		.byte	0x74
GAS LISTING /cygdrive/c/DOCUME~1/andrey/LOCALS~1/Temp/ccMuA7oP.s 			page 39


 1916 091f 00       		.sleb128 0
 1917 0920 05       		.uleb128 0x5
 1918 0921 03       		.byte	0x3
 1919 0922 69000000 		.long	LC5
 1920 0926 15       		.uleb128 0x15
 1921 0927 02       		.uleb128 0x2
 1922 0928 74       		.byte	0x74
 1923 0929 04       		.sleb128 4
 1924 092a 05       		.uleb128 0x5
 1925 092b 03       		.byte	0x3
 1926 092c 00000000 		.long	LC0
 1927 0930 15       		.uleb128 0x15
 1928 0931 02       		.uleb128 0x2
 1929 0932 74       		.byte	0x74
 1930 0933 08       		.sleb128 8
 1931 0934 02       		.uleb128 0x2
 1932 0935 08       		.byte	0x8
 1933 0936 ED       		.byte	0xed
 1934 0937 00       		.byte	0
 1935 0938 00       		.byte	0
 1936 0939 1F       		.uleb128 0x1f
 1937 093a 63684D74 		.ascii "chMtxTryLock\0"
 1937      78547279 
 1937      4C6F636B 
 1937      00
 1938 0947 01       		.byte	0x1
 1939 0948 CE       		.byte	0xce
 1940 0949 B1010000 		.long	0x1b1
 1941 094d 50020000 		.long	LFB10
 1942 0951 25000000 		.long	LFE10-LFB10
 1943 0955 01       		.uleb128 0x1
 1944 0956 9C       		.byte	0x9c
 1945 0957 9E090000 		.long	0x99e
 1946 095b 13       		.uleb128 0x13
 1947 095c 6D7000   		.ascii "mp\0"
 1948 095f 01       		.byte	0x1
 1949 0960 CE       		.byte	0xce
 1950 0961 BE050000 		.long	0x5be
 1951 0965 02       		.uleb128 0x2
 1952 0966 91       		.byte	0x91
 1953 0967 00       		.sleb128 0
 1954 0968 16       		.uleb128 0x16
 1955 0969 6200     		.ascii "b\0"
 1956 096b 01       		.byte	0x1
 1957 096c CF       		.byte	0xcf
 1958 096d B1010000 		.long	0x1b1
 1959 0971 96010000 		.secrel32	LLST14
 1960 0975 1E       		.uleb128 0x1e
 1961 0976 5A020000 		.long	LVL41
 1962 097a 020D0000 		.long	0xd02
 1963 097e 1D       		.uleb128 0x1d
 1964 097f 66020000 		.long	LVL42
 1965 0983 DA080000 		.long	0x8da
 1966 0987 94090000 		.long	0x994
 1967 098b 15       		.uleb128 0x15
 1968 098c 02       		.uleb128 0x2
 1969 098d 74       		.byte	0x74
GAS LISTING /cygdrive/c/DOCUME~1/andrey/LOCALS~1/Temp/ccMuA7oP.s 			page 40


 1970 098e 00       		.sleb128 0
 1971 098f 03       		.uleb128 0x3
 1972 0990 91       		.byte	0x91
 1973 0991 00       		.sleb128 0
 1974 0992 06       		.byte	0x6
 1975 0993 00       		.byte	0
 1976 0994 1E       		.uleb128 0x1e
 1977 0995 6D020000 		.long	LVL44
 1978 0999 140D0000 		.long	0xd14
 1979 099d 00       		.byte	0
 1980 099e 20       		.uleb128 0x20
 1981 099f 63684D74 		.ascii "chMtxUnlock\0"
 1981      78556E6C 
 1981      6F636B00 
 1982 09ab 01       		.byte	0x1
 1983 09ac 0101     		.word	0x101
 1984 09ae BE050000 		.long	0x5be
 1985 09b2 80020000 		.long	LFB12
 1986 09b6 CD000000 		.long	LFE12-LFB12
 1987 09ba 01       		.uleb128 0x1
 1988 09bb 9C       		.byte	0x9c
 1989 09bc BC0A0000 		.long	0xabc
 1990 09c0 21       		.uleb128 0x21
 1991 09c1 63747000 		.ascii "ctp\0"
 1992 09c5 01       		.byte	0x1
 1993 09c6 0201     		.word	0x102
 1994 09c8 C7030000 		.long	0x3c7
 1995 09cc BF010000 		.secrel32	LLST15
 1996 09d0 21       		.uleb128 0x21
 1997 09d1 756D7000 		.ascii "ump\0"
 1998 09d5 01       		.byte	0x1
 1999 09d6 0301     		.word	0x103
 2000 09d8 BE050000 		.long	0x5be
 2001 09dc DD010000 		.secrel32	LLST16
 2002 09e0 21       		.uleb128 0x21
 2003 09e1 6D7000   		.ascii "mp\0"
 2004 09e4 01       		.byte	0x1
 2005 09e5 0301     		.word	0x103
 2006 09e7 BE050000 		.long	0x5be
 2007 09eb 06020000 		.secrel32	LLST17
 2008 09ef 22       		.uleb128 0x22
 2009 09f0 CD020000 		.long	LBB45
 2010 09f4 42000000 		.long	LBE45-LBB45
 2011 09f8 590A0000 		.long	0xa59
 2012 09fc 23       		.uleb128 0x23
 2013 09fd 747000   		.ascii "tp\0"
 2014 0a00 01       		.byte	0x1
 2015 0a01 1201     		.word	0x112
 2016 0a03 C7030000 		.long	0x3c7
 2017 0a07 21       		.uleb128 0x21
 2018 0a08 6E657770 		.ascii "newprio\0"
 2018      72696F00 
 2019 0a10 01       		.byte	0x1
 2020 0a11 1601     		.word	0x116
 2021 0a13 07020000 		.long	0x207
 2022 0a17 19020000 		.secrel32	LLST18
 2023 0a1b 24       		.uleb128 0x24
GAS LISTING /cygdrive/c/DOCUME~1/andrey/LOCALS~1/Temp/ccMuA7oP.s 			page 41


 2024 0a1c 1D060000 		.long	0x61d
 2025 0a20 E9020000 		.long	LBB46
 2026 0a24 60000000 		.secrel32	Ldebug_ranges0+0x60
 2027 0a28 01       		.byte	0x1
 2028 0a29 2501     		.word	0x125
 2029 0a2b 480A0000 		.long	0xa48
 2030 0a2f 19       		.uleb128 0x19
 2031 0a30 35060000 		.long	0x635
 2032 0a34 2C020000 		.secrel32	LLST19
 2033 0a38 25       		.uleb128 0x25
 2034 0a39 60000000 		.secrel32	Ldebug_ranges0+0x60
 2035 0a3d 1B       		.uleb128 0x1b
 2036 0a3e 40060000 		.long	0x640
 2037 0a42 3F020000 		.secrel32	LLST20
 2038 0a46 00       		.byte	0
 2039 0a47 00       		.byte	0
 2040 0a48 14       		.uleb128 0x14
 2041 0a49 0F030000 		.long	LVL55
 2042 0a4d 280D0000 		.long	0xd28
 2043 0a51 15       		.uleb128 0x15
 2044 0a52 02       		.uleb128 0x2
 2045 0a53 74       		.byte	0x74
 2046 0a54 04       		.sleb128 4
 2047 0a55 01       		.uleb128 0x1
 2048 0a56 30       		.byte	0x30
 2049 0a57 00       		.byte	0
 2050 0a58 00       		.byte	0
 2051 0a59 1E       		.uleb128 0x1e
 2052 0a5a 92020000 		.long	LVL47
 2053 0a5e 020D0000 		.long	0xd02
 2054 0a62 1D       		.uleb128 0x1d
 2055 0a63 BE020000 		.long	LVL48
 2056 0a67 8E0C0000 		.long	0xc8e
 2057 0a6b 8C0A0000 		.long	0xa8c
 2058 0a6f 15       		.uleb128 0x15
 2059 0a70 02       		.uleb128 0x2
 2060 0a71 74       		.byte	0x74
 2061 0a72 00       		.sleb128 0
 2062 0a73 05       		.uleb128 0x5
 2063 0a74 03       		.byte	0x3
 2064 0a75 8D000000 		.long	LC7
 2065 0a79 15       		.uleb128 0x15
 2066 0a7a 02       		.uleb128 0x2
 2067 0a7b 74       		.byte	0x74
 2068 0a7c 04       		.sleb128 4
 2069 0a7d 05       		.uleb128 0x5
 2070 0a7e 03       		.byte	0x3
 2071 0a7f 00000000 		.long	LC0
 2072 0a83 15       		.uleb128 0x15
 2073 0a84 02       		.uleb128 0x2
 2074 0a85 74       		.byte	0x74
 2075 0a86 08       		.sleb128 8
 2076 0a87 03       		.uleb128 0x3
 2077 0a88 0A       		.byte	0xa
 2078 0a89 0B01     		.word	0x10b
 2079 0a8b 00       		.byte	0
 2080 0a8c 1E       		.uleb128 0x1e
GAS LISTING /cygdrive/c/DOCUME~1/andrey/LOCALS~1/Temp/ccMuA7oP.s 			page 42


 2081 0a8d 14030000 		.long	LVL56
 2082 0a91 140D0000 		.long	0xd14
 2083 0a95 14       		.uleb128 0x14
 2084 0a96 45030000 		.long	LVL61
 2085 0a9a 8E0C0000 		.long	0xc8e
 2086 0a9e 15       		.uleb128 0x15
 2087 0a9f 02       		.uleb128 0x2
 2088 0aa0 74       		.byte	0x74
 2089 0aa1 00       		.sleb128 0
 2090 0aa2 05       		.uleb128 0x5
 2091 0aa3 03       		.byte	0x3
 2092 0aa4 7B000000 		.long	LC6
 2093 0aa8 15       		.uleb128 0x15
 2094 0aa9 02       		.uleb128 0x2
 2095 0aaa 74       		.byte	0x74
 2096 0aab 04       		.sleb128 4
 2097 0aac 05       		.uleb128 0x5
 2098 0aad 03       		.byte	0x3
 2099 0aae 00000000 		.long	LC0
 2100 0ab2 15       		.uleb128 0x15
 2101 0ab3 02       		.uleb128 0x2
 2102 0ab4 74       		.byte	0x74
 2103 0ab5 08       		.sleb128 8
 2104 0ab6 03       		.uleb128 0x3
 2105 0ab7 0A       		.byte	0xa
 2106 0ab8 0801     		.word	0x108
 2107 0aba 00       		.byte	0
 2108 0abb 00       		.byte	0
 2109 0abc 20       		.uleb128 0x20
 2110 0abd 63684D74 		.ascii "chMtxUnlockS\0"
 2110      78556E6C 
 2110      6F636B53 
 2110      00
 2111 0aca 01       		.byte	0x1
 2112 0acb 3D01     		.word	0x13d
 2113 0acd BE050000 		.long	0x5be
 2114 0ad1 50030000 		.long	LFB13
 2115 0ad5 C4000000 		.long	LFE13-LFB13
 2116 0ad9 01       		.uleb128 0x1
 2117 0ada 9C       		.byte	0x9c
 2118 0adb CB0B0000 		.long	0xbcb
 2119 0adf 21       		.uleb128 0x21
 2120 0ae0 63747000 		.ascii "ctp\0"
 2121 0ae4 01       		.byte	0x1
 2122 0ae5 3E01     		.word	0x13e
 2123 0ae7 C7030000 		.long	0x3c7
 2124 0aeb 52020000 		.secrel32	LLST21
 2125 0aef 21       		.uleb128 0x21
 2126 0af0 756D7000 		.ascii "ump\0"
 2127 0af4 01       		.byte	0x1
 2128 0af5 3F01     		.word	0x13f
 2129 0af7 BE050000 		.long	0x5be
 2130 0afb 7B020000 		.secrel32	LLST22
 2131 0aff 21       		.uleb128 0x21
 2132 0b00 6D7000   		.ascii "mp\0"
 2133 0b03 01       		.byte	0x1
 2134 0b04 3F01     		.word	0x13f
GAS LISTING /cygdrive/c/DOCUME~1/andrey/LOCALS~1/Temp/ccMuA7oP.s 			page 43


 2135 0b06 BE050000 		.long	0x5be
 2136 0b0a AF020000 		.secrel32	LLST23
 2137 0b0e 22       		.uleb128 0x22
 2138 0b0f 9C030000 		.long	LBB50
 2139 0b13 3A000000 		.long	LBE50-LBB50
 2140 0b17 710B0000 		.long	0xb71
 2141 0b1b 23       		.uleb128 0x23
 2142 0b1c 747000   		.ascii "tp\0"
 2143 0b1f 01       		.byte	0x1
 2144 0b20 4F01     		.word	0x14f
 2145 0b22 C7030000 		.long	0x3c7
 2146 0b26 21       		.uleb128 0x21
 2147 0b27 6E657770 		.ascii "newprio\0"
 2147      72696F00 
 2148 0b2f 01       		.byte	0x1
 2149 0b30 5301     		.word	0x153
 2150 0b32 07020000 		.long	0x207
 2151 0b36 C2020000 		.secrel32	LLST24
 2152 0b3a 24       		.uleb128 0x24
 2153 0b3b 1D060000 		.long	0x61d
 2154 0b3f B8030000 		.long	LBB51
 2155 0b43 78000000 		.secrel32	Ldebug_ranges0+0x78
 2156 0b47 01       		.byte	0x1
 2157 0b48 6001     		.word	0x160
 2158 0b4a 670B0000 		.long	0xb67
 2159 0b4e 19       		.uleb128 0x19
 2160 0b4f 35060000 		.long	0x635
 2161 0b53 D5020000 		.secrel32	LLST25
 2162 0b57 25       		.uleb128 0x25
 2163 0b58 78000000 		.secrel32	Ldebug_ranges0+0x78
 2164 0b5c 1B       		.uleb128 0x1b
 2165 0b5d 40060000 		.long	0x640
 2166 0b61 F3020000 		.secrel32	LLST26
 2167 0b65 00       		.byte	0
 2168 0b66 00       		.byte	0
 2169 0b67 1E       		.uleb128 0x1e
 2170 0b68 D6030000 		.long	LVL71
 2171 0b6c D10C0000 		.long	0xcd1
 2172 0b70 00       		.byte	0
 2173 0b71 1E       		.uleb128 0x1e
 2174 0b72 61030000 		.long	LVL63
 2175 0b76 EE0C0000 		.long	0xcee
 2176 0b7a 1D       		.uleb128 0x1d
 2177 0b7b 8D030000 		.long	LVL64
 2178 0b7f 8E0C0000 		.long	0xc8e
 2179 0b83 A40B0000 		.long	0xba4
 2180 0b87 15       		.uleb128 0x15
 2181 0b88 02       		.uleb128 0x2
 2182 0b89 74       		.byte	0x74
 2183 0b8a 00       		.sleb128 0
 2184 0b8b 05       		.uleb128 0x5
 2185 0b8c 03       		.byte	0x3
 2186 0b8d B2000000 		.long	LC9
 2187 0b91 15       		.uleb128 0x15
 2188 0b92 02       		.uleb128 0x2
 2189 0b93 74       		.byte	0x74
 2190 0b94 04       		.sleb128 4
GAS LISTING /cygdrive/c/DOCUME~1/andrey/LOCALS~1/Temp/ccMuA7oP.s 			page 44


 2191 0b95 05       		.uleb128 0x5
 2192 0b96 03       		.byte	0x3
 2193 0b97 00000000 		.long	LC0
 2194 0b9b 15       		.uleb128 0x15
 2195 0b9c 02       		.uleb128 0x2
 2196 0b9d 74       		.byte	0x74
 2197 0b9e 08       		.sleb128 8
 2198 0b9f 03       		.uleb128 0x3
 2199 0ba0 0A       		.byte	0xa
 2200 0ba1 4701     		.word	0x147
 2201 0ba3 00       		.byte	0
 2202 0ba4 14       		.uleb128 0x14
 2203 0ba5 0C040000 		.long	LVL79
 2204 0ba9 8E0C0000 		.long	0xc8e
 2205 0bad 15       		.uleb128 0x15
 2206 0bae 02       		.uleb128 0x2
 2207 0baf 74       		.byte	0x74
 2208 0bb0 00       		.sleb128 0
 2209 0bb1 05       		.uleb128 0x5
 2210 0bb2 03       		.byte	0x3
 2211 0bb3 9F000000 		.long	LC8
 2212 0bb7 15       		.uleb128 0x15
 2213 0bb8 02       		.uleb128 0x2
 2214 0bb9 74       		.byte	0x74
 2215 0bba 04       		.sleb128 4
 2216 0bbb 05       		.uleb128 0x5
 2217 0bbc 03       		.byte	0x3
 2218 0bbd 00000000 		.long	LC0
 2219 0bc1 15       		.uleb128 0x15
 2220 0bc2 02       		.uleb128 0x2
 2221 0bc3 74       		.byte	0x74
 2222 0bc4 08       		.sleb128 8
 2223 0bc5 03       		.uleb128 0x3
 2224 0bc6 0A       		.byte	0xa
 2225 0bc7 4401     		.word	0x144
 2226 0bc9 00       		.byte	0
 2227 0bca 00       		.byte	0
 2228 0bcb 26       		.uleb128 0x26
 2229 0bcc 63684D74 		.ascii "chMtxUnlockAll\0"
 2229      78556E6C 
 2229      6F636B41 
 2229      6C6C00
 2230 0bdb 01       		.byte	0x1
 2231 0bdc 7601     		.word	0x176
 2232 0bde 20040000 		.long	LFB14
 2233 0be2 72000000 		.long	LFE14-LFB14
 2234 0be6 01       		.uleb128 0x1
 2235 0be7 9C       		.byte	0x9c
 2236 0be8 810C0000 		.long	0xc81
 2237 0bec 21       		.uleb128 0x21
 2238 0bed 63747000 		.ascii "ctp\0"
 2239 0bf1 01       		.byte	0x1
 2240 0bf2 7701     		.word	0x177
 2241 0bf4 C7030000 		.long	0x3c7
 2242 0bf8 06030000 		.secrel32	LLST27
 2243 0bfc 17       		.uleb128 0x17
 2244 0bfd 90000000 		.secrel32	Ldebug_ranges0+0x90
GAS LISTING /cygdrive/c/DOCUME~1/andrey/LOCALS~1/Temp/ccMuA7oP.s 			page 45


 2245 0c01 650C0000 		.long	0xc65
 2246 0c05 21       		.uleb128 0x21
 2247 0c06 756D7000 		.ascii "ump\0"
 2248 0c0a 01       		.byte	0x1
 2249 0c0b 7C01     		.word	0x17c
 2250 0c0d BE050000 		.long	0x5be
 2251 0c11 19030000 		.secrel32	LLST28
 2252 0c15 1A       		.uleb128 0x1a
 2253 0c16 40040000 		.long	LBB56
 2254 0c1a 1B000000 		.long	LBE56-LBB56
 2255 0c1e 23       		.uleb128 0x23
 2256 0c1f 747000   		.ascii "tp\0"
 2257 0c22 01       		.byte	0x1
 2258 0c23 7F01     		.word	0x17f
 2259 0c25 C7030000 		.long	0x3c7
 2260 0c29 27       		.uleb128 0x27
 2261 0c2a 1D060000 		.long	0x61d
 2262 0c2e 40040000 		.long	LBB57
 2263 0c32 07000000 		.long	LBE57-LBB57
 2264 0c36 01       		.byte	0x1
 2265 0c37 7F01     		.word	0x17f
 2266 0c39 5A0C0000 		.long	0xc5a
 2267 0c3d 19       		.uleb128 0x19
 2268 0c3e 35060000 		.long	0x635
 2269 0c42 37030000 		.secrel32	LLST29
 2270 0c46 1A       		.uleb128 0x1a
 2271 0c47 40040000 		.long	LBB58
 2272 0c4b 07000000 		.long	LBE58-LBB58
 2273 0c4f 1B       		.uleb128 0x1b
 2274 0c50 40060000 		.long	0x640
 2275 0c54 4A030000 		.secrel32	LLST30
 2276 0c58 00       		.byte	0
 2277 0c59 00       		.byte	0
 2278 0c5a 1E       		.uleb128 0x1e
 2279 0c5b 5B040000 		.long	LVL83
 2280 0c5f D10C0000 		.long	0xcd1
 2281 0c63 00       		.byte	0
 2282 0c64 00       		.byte	0
 2283 0c65 1E       		.uleb128 0x1e
 2284 0c66 30040000 		.long	LVL81
 2285 0c6a 020D0000 		.long	0xd02
 2286 0c6e 1E       		.uleb128 0x1e
 2287 0c6f 87040000 		.long	LVL86
 2288 0c73 470D0000 		.long	0xd47
 2289 0c77 1E       		.uleb128 0x1e
 2290 0c78 8C040000 		.long	LVL87
 2291 0c7c 140D0000 		.long	0xd14
 2292 0c80 00       		.byte	0
 2293 0c81 28       		.uleb128 0x28
 2294 0c82 726C6973 		.ascii "rlist\0"
 2294      7400
 2295 0c88 08       		.byte	0x8
 2296 0c89 6F       		.byte	0x6f
 2297 0c8a 06050000 		.long	0x506
 2298 0c8e 29       		.uleb128 0x29
 2299 0c8f 63684462 		.ascii "chDbgPanic\0"
 2299      6750616E 
GAS LISTING /cygdrive/c/DOCUME~1/andrey/LOCALS~1/Temp/ccMuA7oP.s 			page 46


 2299      696300
 2300 0c9a 0A       		.byte	0xa
 2301 0c9b F6       		.byte	0xf6
 2302 0c9c B00C0000 		.long	0xcb0
 2303 0ca0 2A       		.uleb128 0x2a
 2304 0ca1 AB050000 		.long	0x5ab
 2305 0ca5 2A       		.uleb128 0x2a
 2306 0ca6 B00C0000 		.long	0xcb0
 2307 0caa 2A       		.uleb128 0x2a
 2308 0cab FE000000 		.long	0xfe
 2309 0caf 00       		.byte	0
 2310 0cb0 08       		.uleb128 0x8
 2311 0cb1 04       		.byte	0x4
 2312 0cb2 B6050000 		.long	0x5b6
 2313 0cb6 29       		.uleb128 0x29
 2314 0cb7 63685363 		.ascii "chSchGoSleepS\0"
 2314      68476F53 
 2314      6C656570 
 2314      5300
 2315 0cc5 08       		.byte	0x8
 2316 0cc6 93       		.byte	0x93
 2317 0cc7 D10C0000 		.long	0xcd1
 2318 0ccb 2A       		.uleb128 0x2a
 2319 0ccc D7010000 		.long	0x1d7
 2320 0cd0 00       		.byte	0
 2321 0cd1 2B       		.uleb128 0x2b
 2322 0cd2 63685363 		.ascii "chSchReadyI\0"
 2322      68526561 
 2322      64794900 
 2323 0cde 08       		.byte	0x8
 2324 0cdf 90       		.byte	0x90
 2325 0ce0 C7030000 		.long	0x3c7
 2326 0ce4 EE0C0000 		.long	0xcee
 2327 0ce8 2A       		.uleb128 0x2a
 2328 0ce9 C7030000 		.long	0x3c7
 2329 0ced 00       		.byte	0
 2330 0cee 2C       		.uleb128 0x2c
 2331 0cef 63684462 		.ascii "chDbgCheckClassS\0"
 2331      67436865 
 2331      636B436C 
 2331      61737353 
 2331      00
 2332 0d00 0A       		.byte	0xa
 2333 0d01 EE       		.byte	0xee
 2334 0d02 2C       		.uleb128 0x2c
 2335 0d03 6462675F 		.ascii "dbg_check_lock\0"
 2335      63686563 
 2335      6B5F6C6F 
 2335      636B00
 2336 0d12 0A       		.byte	0xa
 2337 0d13 E7       		.byte	0xe7
 2338 0d14 2C       		.uleb128 0x2c
 2339 0d15 6462675F 		.ascii "dbg_check_unlock\0"
 2339      63686563 
 2339      6B5F756E 
 2339      6C6F636B 
 2339      00
GAS LISTING /cygdrive/c/DOCUME~1/andrey/LOCALS~1/Temp/ccMuA7oP.s 			page 47


 2340 0d26 0A       		.byte	0xa
 2341 0d27 E8       		.byte	0xe8
 2342 0d28 29       		.uleb128 0x29
 2343 0d29 63685363 		.ascii "chSchWakeupS\0"
 2343      6857616B 
 2343      65757053 
 2343      00
 2344 0d36 08       		.byte	0x8
 2345 0d37 99       		.byte	0x99
 2346 0d38 470D0000 		.long	0xd47
 2347 0d3c 2A       		.uleb128 0x2a
 2348 0d3d C7030000 		.long	0x3c7
 2349 0d41 2A       		.uleb128 0x2a
 2350 0d42 16020000 		.long	0x216
 2351 0d46 00       		.byte	0
 2352 0d47 2C       		.uleb128 0x2c
 2353 0d48 63685363 		.ascii "chSchRescheduleS\0"
 2353      68526573 
 2353      63686564 
 2353      756C6553 
 2353      00
 2354 0d59 08       		.byte	0x8
 2355 0d5a 9C       		.byte	0x9c
 2356 0d5b 00       		.byte	0
 2357              		.section	.debug_abbrev,"dr"
 2358              	Ldebug_abbrev0:
 2359 0000 01       		.uleb128 0x1
 2360 0001 11       		.uleb128 0x11
 2361 0002 01       		.byte	0x1
 2362 0003 25       		.uleb128 0x25
 2363 0004 08       		.uleb128 0x8
 2364 0005 13       		.uleb128 0x13
 2365 0006 0B       		.uleb128 0xb
 2366 0007 03       		.uleb128 0x3
 2367 0008 08       		.uleb128 0x8
 2368 0009 1B       		.uleb128 0x1b
 2369 000a 08       		.uleb128 0x8
 2370 000b 11       		.uleb128 0x11
 2371 000c 01       		.uleb128 0x1
 2372 000d 12       		.uleb128 0x12
 2373 000e 06       		.uleb128 0x6
 2374 000f 10       		.uleb128 0x10
 2375 0010 17       		.uleb128 0x17
 2376 0011 00       		.byte	0
 2377 0012 00       		.byte	0
 2378 0013 02       		.uleb128 0x2
 2379 0014 24       		.uleb128 0x24
 2380 0015 00       		.byte	0
 2381 0016 0B       		.uleb128 0xb
 2382 0017 0B       		.uleb128 0xb
 2383 0018 3E       		.uleb128 0x3e
 2384 0019 0B       		.uleb128 0xb
 2385 001a 03       		.uleb128 0x3
 2386 001b 08       		.uleb128 0x8
 2387 001c 00       		.byte	0
 2388 001d 00       		.byte	0
 2389 001e 03       		.uleb128 0x3
GAS LISTING /cygdrive/c/DOCUME~1/andrey/LOCALS~1/Temp/ccMuA7oP.s 			page 48


 2390 001f 16       		.uleb128 0x16
 2391 0020 00       		.byte	0
 2392 0021 03       		.uleb128 0x3
 2393 0022 08       		.uleb128 0x8
 2394 0023 3A       		.uleb128 0x3a
 2395 0024 0B       		.uleb128 0xb
 2396 0025 3B       		.uleb128 0x3b
 2397 0026 0B       		.uleb128 0xb
 2398 0027 49       		.uleb128 0x49
 2399 0028 13       		.uleb128 0x13
 2400 0029 00       		.byte	0
 2401 002a 00       		.byte	0
 2402 002b 04       		.uleb128 0x4
 2403 002c 13       		.uleb128 0x13
 2404 002d 01       		.byte	0x1
 2405 002e 03       		.uleb128 0x3
 2406 002f 08       		.uleb128 0x8
 2407 0030 0B       		.uleb128 0xb
 2408 0031 0B       		.uleb128 0xb
 2409 0032 3A       		.uleb128 0x3a
 2410 0033 0B       		.uleb128 0xb
 2411 0034 3B       		.uleb128 0x3b
 2412 0035 0B       		.uleb128 0xb
 2413 0036 01       		.uleb128 0x1
 2414 0037 13       		.uleb128 0x13
 2415 0038 00       		.byte	0
 2416 0039 00       		.byte	0
 2417 003a 05       		.uleb128 0x5
 2418 003b 0D       		.uleb128 0xd
 2419 003c 00       		.byte	0
 2420 003d 03       		.uleb128 0x3
 2421 003e 0E       		.uleb128 0xe
 2422 003f 3A       		.uleb128 0x3a
 2423 0040 0B       		.uleb128 0xb
 2424 0041 3B       		.uleb128 0x3b
 2425 0042 0B       		.uleb128 0xb
 2426 0043 49       		.uleb128 0x49
 2427 0044 13       		.uleb128 0x13
 2428 0045 38       		.uleb128 0x38
 2429 0046 0B       		.uleb128 0xb
 2430 0047 00       		.byte	0
 2431 0048 00       		.byte	0
 2432 0049 06       		.uleb128 0x6
 2433 004a 0D       		.uleb128 0xd
 2434 004b 00       		.byte	0
 2435 004c 03       		.uleb128 0x3
 2436 004d 08       		.uleb128 0x8
 2437 004e 3A       		.uleb128 0x3a
 2438 004f 0B       		.uleb128 0xb
 2439 0050 3B       		.uleb128 0x3b
 2440 0051 0B       		.uleb128 0xb
 2441 0052 49       		.uleb128 0x49
 2442 0053 13       		.uleb128 0x13
 2443 0054 38       		.uleb128 0x38
 2444 0055 0B       		.uleb128 0xb
 2445 0056 00       		.byte	0
 2446 0057 00       		.byte	0
GAS LISTING /cygdrive/c/DOCUME~1/andrey/LOCALS~1/Temp/ccMuA7oP.s 			page 49


 2447 0058 07       		.uleb128 0x7
 2448 0059 13       		.uleb128 0x13
 2449 005a 01       		.byte	0x1
 2450 005b 0B       		.uleb128 0xb
 2451 005c 0B       		.uleb128 0xb
 2452 005d 3A       		.uleb128 0x3a
 2453 005e 0B       		.uleb128 0xb
 2454 005f 3B       		.uleb128 0x3b
 2455 0060 0B       		.uleb128 0xb
 2456 0061 01       		.uleb128 0x1
 2457 0062 13       		.uleb128 0x13
 2458 0063 00       		.byte	0
 2459 0064 00       		.byte	0
 2460 0065 08       		.uleb128 0x8
 2461 0066 0F       		.uleb128 0xf
 2462 0067 00       		.byte	0
 2463 0068 0B       		.uleb128 0xb
 2464 0069 0B       		.uleb128 0xb
 2465 006a 49       		.uleb128 0x49
 2466 006b 13       		.uleb128 0x13
 2467 006c 00       		.byte	0
 2468 006d 00       		.byte	0
 2469 006e 09       		.uleb128 0x9
 2470 006f 0F       		.uleb128 0xf
 2471 0070 00       		.byte	0
 2472 0071 0B       		.uleb128 0xb
 2473 0072 0B       		.uleb128 0xb
 2474 0073 00       		.byte	0
 2475 0074 00       		.byte	0
 2476 0075 0A       		.uleb128 0xa
 2477 0076 35       		.uleb128 0x35
 2478 0077 00       		.byte	0
 2479 0078 49       		.uleb128 0x49
 2480 0079 13       		.uleb128 0x13
 2481 007a 00       		.byte	0
 2482 007b 00       		.byte	0
 2483 007c 0B       		.uleb128 0xb
 2484 007d 17       		.uleb128 0x17
 2485 007e 01       		.byte	0x1
 2486 007f 0B       		.uleb128 0xb
 2487 0080 0B       		.uleb128 0xb
 2488 0081 3A       		.uleb128 0x3a
 2489 0082 0B       		.uleb128 0xb
 2490 0083 3B       		.uleb128 0x3b
 2491 0084 0B       		.uleb128 0xb
 2492 0085 01       		.uleb128 0x1
 2493 0086 13       		.uleb128 0x13
 2494 0087 00       		.byte	0
 2495 0088 00       		.byte	0
 2496 0089 0C       		.uleb128 0xc
 2497 008a 0D       		.uleb128 0xd
 2498 008b 00       		.byte	0
 2499 008c 03       		.uleb128 0x3
 2500 008d 08       		.uleb128 0x8
 2501 008e 3A       		.uleb128 0x3a
 2502 008f 0B       		.uleb128 0xb
 2503 0090 3B       		.uleb128 0x3b
GAS LISTING /cygdrive/c/DOCUME~1/andrey/LOCALS~1/Temp/ccMuA7oP.s 			page 50


 2504 0091 0B       		.uleb128 0xb
 2505 0092 49       		.uleb128 0x49
 2506 0093 13       		.uleb128 0x13
 2507 0094 00       		.byte	0
 2508 0095 00       		.byte	0
 2509 0096 0D       		.uleb128 0xd
 2510 0097 26       		.uleb128 0x26
 2511 0098 00       		.byte	0
 2512 0099 49       		.uleb128 0x49
 2513 009a 13       		.uleb128 0x13
 2514 009b 00       		.byte	0
 2515 009c 00       		.byte	0
 2516 009d 0E       		.uleb128 0xe
 2517 009e 2E       		.uleb128 0x2e
 2518 009f 01       		.byte	0x1
 2519 00a0 03       		.uleb128 0x3
 2520 00a1 08       		.uleb128 0x8
 2521 00a2 3A       		.uleb128 0x3a
 2522 00a3 0B       		.uleb128 0xb
 2523 00a4 3B       		.uleb128 0x3b
 2524 00a5 0B       		.uleb128 0xb
 2525 00a6 27       		.uleb128 0x27
 2526 00a7 19       		.uleb128 0x19
 2527 00a8 49       		.uleb128 0x49
 2528 00a9 13       		.uleb128 0x13
 2529 00aa 20       		.uleb128 0x20
 2530 00ab 0B       		.uleb128 0xb
 2531 00ac 01       		.uleb128 0x1
 2532 00ad 13       		.uleb128 0x13
 2533 00ae 00       		.byte	0
 2534 00af 00       		.byte	0
 2535 00b0 0F       		.uleb128 0xf
 2536 00b1 05       		.uleb128 0x5
 2537 00b2 00       		.byte	0
 2538 00b3 03       		.uleb128 0x3
 2539 00b4 08       		.uleb128 0x8
 2540 00b5 3A       		.uleb128 0x3a
 2541 00b6 0B       		.uleb128 0xb
 2542 00b7 3B       		.uleb128 0x3b
 2543 00b8 0B       		.uleb128 0xb
 2544 00b9 49       		.uleb128 0x49
 2545 00ba 13       		.uleb128 0x13
 2546 00bb 00       		.byte	0
 2547 00bc 00       		.byte	0
 2548 00bd 10       		.uleb128 0x10
 2549 00be 2E       		.uleb128 0x2e
 2550 00bf 01       		.byte	0x1
 2551 00c0 03       		.uleb128 0x3
 2552 00c1 08       		.uleb128 0x8
 2553 00c2 3A       		.uleb128 0x3a
 2554 00c3 0B       		.uleb128 0xb
 2555 00c4 3B       		.uleb128 0x3b
 2556 00c5 0B       		.uleb128 0xb
 2557 00c6 27       		.uleb128 0x27
 2558 00c7 19       		.uleb128 0x19
 2559 00c8 20       		.uleb128 0x20
 2560 00c9 0B       		.uleb128 0xb
GAS LISTING /cygdrive/c/DOCUME~1/andrey/LOCALS~1/Temp/ccMuA7oP.s 			page 51


 2561 00ca 01       		.uleb128 0x1
 2562 00cb 13       		.uleb128 0x13
 2563 00cc 00       		.byte	0
 2564 00cd 00       		.byte	0
 2565 00ce 11       		.uleb128 0x11
 2566 00cf 34       		.uleb128 0x34
 2567 00d0 00       		.byte	0
 2568 00d1 03       		.uleb128 0x3
 2569 00d2 08       		.uleb128 0x8
 2570 00d3 3A       		.uleb128 0x3a
 2571 00d4 0B       		.uleb128 0xb
 2572 00d5 3B       		.uleb128 0x3b
 2573 00d6 0B       		.uleb128 0xb
 2574 00d7 49       		.uleb128 0x49
 2575 00d8 13       		.uleb128 0x13
 2576 00d9 00       		.byte	0
 2577 00da 00       		.byte	0
 2578 00db 12       		.uleb128 0x12
 2579 00dc 2E       		.uleb128 0x2e
 2580 00dd 01       		.byte	0x1
 2581 00de 3F       		.uleb128 0x3f
 2582 00df 19       		.uleb128 0x19
 2583 00e0 03       		.uleb128 0x3
 2584 00e1 08       		.uleb128 0x8
 2585 00e2 3A       		.uleb128 0x3a
 2586 00e3 0B       		.uleb128 0xb
 2587 00e4 3B       		.uleb128 0x3b
 2588 00e5 0B       		.uleb128 0xb
 2589 00e6 27       		.uleb128 0x27
 2590 00e7 19       		.uleb128 0x19
 2591 00e8 11       		.uleb128 0x11
 2592 00e9 01       		.uleb128 0x1
 2593 00ea 12       		.uleb128 0x12
 2594 00eb 06       		.uleb128 0x6
 2595 00ec 40       		.uleb128 0x40
 2596 00ed 18       		.uleb128 0x18
 2597 00ee 9742     		.uleb128 0x2117
 2598 00f0 19       		.uleb128 0x19
 2599 00f1 01       		.uleb128 0x1
 2600 00f2 13       		.uleb128 0x13
 2601 00f3 00       		.byte	0
 2602 00f4 00       		.byte	0
 2603 00f5 13       		.uleb128 0x13
 2604 00f6 05       		.uleb128 0x5
 2605 00f7 00       		.byte	0
 2606 00f8 03       		.uleb128 0x3
 2607 00f9 08       		.uleb128 0x8
 2608 00fa 3A       		.uleb128 0x3a
 2609 00fb 0B       		.uleb128 0xb
 2610 00fc 3B       		.uleb128 0x3b
 2611 00fd 0B       		.uleb128 0xb
 2612 00fe 49       		.uleb128 0x49
 2613 00ff 13       		.uleb128 0x13
 2614 0100 02       		.uleb128 0x2
 2615 0101 18       		.uleb128 0x18
 2616 0102 00       		.byte	0
 2617 0103 00       		.byte	0
GAS LISTING /cygdrive/c/DOCUME~1/andrey/LOCALS~1/Temp/ccMuA7oP.s 			page 52


 2618 0104 14       		.uleb128 0x14
 2619 0105 898201   		.uleb128 0x4109
 2620 0108 01       		.byte	0x1
 2621 0109 11       		.uleb128 0x11
 2622 010a 01       		.uleb128 0x1
 2623 010b 31       		.uleb128 0x31
 2624 010c 13       		.uleb128 0x13
 2625 010d 00       		.byte	0
 2626 010e 00       		.byte	0
 2627 010f 15       		.uleb128 0x15
 2628 0110 8A8201   		.uleb128 0x410a
 2629 0113 00       		.byte	0
 2630 0114 02       		.uleb128 0x2
 2631 0115 18       		.uleb128 0x18
 2632 0116 9142     		.uleb128 0x2111
 2633 0118 18       		.uleb128 0x18
 2634 0119 00       		.byte	0
 2635 011a 00       		.byte	0
 2636 011b 16       		.uleb128 0x16
 2637 011c 34       		.uleb128 0x34
 2638 011d 00       		.byte	0
 2639 011e 03       		.uleb128 0x3
 2640 011f 08       		.uleb128 0x8
 2641 0120 3A       		.uleb128 0x3a
 2642 0121 0B       		.uleb128 0xb
 2643 0122 3B       		.uleb128 0x3b
 2644 0123 0B       		.uleb128 0xb
 2645 0124 49       		.uleb128 0x49
 2646 0125 13       		.uleb128 0x13
 2647 0126 02       		.uleb128 0x2
 2648 0127 17       		.uleb128 0x17
 2649 0128 00       		.byte	0
 2650 0129 00       		.byte	0
 2651 012a 17       		.uleb128 0x17
 2652 012b 0B       		.uleb128 0xb
 2653 012c 01       		.byte	0x1
 2654 012d 55       		.uleb128 0x55
 2655 012e 17       		.uleb128 0x17
 2656 012f 01       		.uleb128 0x1
 2657 0130 13       		.uleb128 0x13
 2658 0131 00       		.byte	0
 2659 0132 00       		.byte	0
 2660 0133 18       		.uleb128 0x18
 2661 0134 1D       		.uleb128 0x1d
 2662 0135 01       		.byte	0x1
 2663 0136 31       		.uleb128 0x31
 2664 0137 13       		.uleb128 0x13
 2665 0138 11       		.uleb128 0x11
 2666 0139 01       		.uleb128 0x1
 2667 013a 12       		.uleb128 0x12
 2668 013b 06       		.uleb128 0x6
 2669 013c 58       		.uleb128 0x58
 2670 013d 0B       		.uleb128 0xb
 2671 013e 59       		.uleb128 0x59
 2672 013f 0B       		.uleb128 0xb
 2673 0140 01       		.uleb128 0x1
 2674 0141 13       		.uleb128 0x13
GAS LISTING /cygdrive/c/DOCUME~1/andrey/LOCALS~1/Temp/ccMuA7oP.s 			page 53


 2675 0142 00       		.byte	0
 2676 0143 00       		.byte	0
 2677 0144 19       		.uleb128 0x19
 2678 0145 05       		.uleb128 0x5
 2679 0146 00       		.byte	0
 2680 0147 31       		.uleb128 0x31
 2681 0148 13       		.uleb128 0x13
 2682 0149 02       		.uleb128 0x2
 2683 014a 17       		.uleb128 0x17
 2684 014b 00       		.byte	0
 2685 014c 00       		.byte	0
 2686 014d 1A       		.uleb128 0x1a
 2687 014e 0B       		.uleb128 0xb
 2688 014f 01       		.byte	0x1
 2689 0150 11       		.uleb128 0x11
 2690 0151 01       		.uleb128 0x1
 2691 0152 12       		.uleb128 0x12
 2692 0153 06       		.uleb128 0x6
 2693 0154 00       		.byte	0
 2694 0155 00       		.byte	0
 2695 0156 1B       		.uleb128 0x1b
 2696 0157 34       		.uleb128 0x34
 2697 0158 00       		.byte	0
 2698 0159 31       		.uleb128 0x31
 2699 015a 13       		.uleb128 0x13
 2700 015b 02       		.uleb128 0x2
 2701 015c 17       		.uleb128 0x17
 2702 015d 00       		.byte	0
 2703 015e 00       		.byte	0
 2704 015f 1C       		.uleb128 0x1c
 2705 0160 1D       		.uleb128 0x1d
 2706 0161 01       		.byte	0x1
 2707 0162 31       		.uleb128 0x31
 2708 0163 13       		.uleb128 0x13
 2709 0164 52       		.uleb128 0x52
 2710 0165 01       		.uleb128 0x1
 2711 0166 55       		.uleb128 0x55
 2712 0167 17       		.uleb128 0x17
 2713 0168 58       		.uleb128 0x58
 2714 0169 0B       		.uleb128 0xb
 2715 016a 59       		.uleb128 0x59
 2716 016b 0B       		.uleb128 0xb
 2717 016c 01       		.uleb128 0x1
 2718 016d 13       		.uleb128 0x13
 2719 016e 00       		.byte	0
 2720 016f 00       		.byte	0
 2721 0170 1D       		.uleb128 0x1d
 2722 0171 898201   		.uleb128 0x4109
 2723 0174 01       		.byte	0x1
 2724 0175 11       		.uleb128 0x11
 2725 0176 01       		.uleb128 0x1
 2726 0177 31       		.uleb128 0x31
 2727 0178 13       		.uleb128 0x13
 2728 0179 01       		.uleb128 0x1
 2729 017a 13       		.uleb128 0x13
 2730 017b 00       		.byte	0
 2731 017c 00       		.byte	0
GAS LISTING /cygdrive/c/DOCUME~1/andrey/LOCALS~1/Temp/ccMuA7oP.s 			page 54


 2732 017d 1E       		.uleb128 0x1e
 2733 017e 898201   		.uleb128 0x4109
 2734 0181 00       		.byte	0
 2735 0182 11       		.uleb128 0x11
 2736 0183 01       		.uleb128 0x1
 2737 0184 31       		.uleb128 0x31
 2738 0185 13       		.uleb128 0x13
 2739 0186 00       		.byte	0
 2740 0187 00       		.byte	0
 2741 0188 1F       		.uleb128 0x1f
 2742 0189 2E       		.uleb128 0x2e
 2743 018a 01       		.byte	0x1
 2744 018b 3F       		.uleb128 0x3f
 2745 018c 19       		.uleb128 0x19
 2746 018d 03       		.uleb128 0x3
 2747 018e 08       		.uleb128 0x8
 2748 018f 3A       		.uleb128 0x3a
 2749 0190 0B       		.uleb128 0xb
 2750 0191 3B       		.uleb128 0x3b
 2751 0192 0B       		.uleb128 0xb
 2752 0193 27       		.uleb128 0x27
 2753 0194 19       		.uleb128 0x19
 2754 0195 49       		.uleb128 0x49
 2755 0196 13       		.uleb128 0x13
 2756 0197 11       		.uleb128 0x11
 2757 0198 01       		.uleb128 0x1
 2758 0199 12       		.uleb128 0x12
 2759 019a 06       		.uleb128 0x6
 2760 019b 40       		.uleb128 0x40
 2761 019c 18       		.uleb128 0x18
 2762 019d 9742     		.uleb128 0x2117
 2763 019f 19       		.uleb128 0x19
 2764 01a0 01       		.uleb128 0x1
 2765 01a1 13       		.uleb128 0x13
 2766 01a2 00       		.byte	0
 2767 01a3 00       		.byte	0
 2768 01a4 20       		.uleb128 0x20
 2769 01a5 2E       		.uleb128 0x2e
 2770 01a6 01       		.byte	0x1
 2771 01a7 3F       		.uleb128 0x3f
 2772 01a8 19       		.uleb128 0x19
 2773 01a9 03       		.uleb128 0x3
 2774 01aa 08       		.uleb128 0x8
 2775 01ab 3A       		.uleb128 0x3a
 2776 01ac 0B       		.uleb128 0xb
 2777 01ad 3B       		.uleb128 0x3b
 2778 01ae 05       		.uleb128 0x5
 2779 01af 27       		.uleb128 0x27
 2780 01b0 19       		.uleb128 0x19
 2781 01b1 49       		.uleb128 0x49
 2782 01b2 13       		.uleb128 0x13
 2783 01b3 11       		.uleb128 0x11
 2784 01b4 01       		.uleb128 0x1
 2785 01b5 12       		.uleb128 0x12
 2786 01b6 06       		.uleb128 0x6
 2787 01b7 40       		.uleb128 0x40
 2788 01b8 18       		.uleb128 0x18
GAS LISTING /cygdrive/c/DOCUME~1/andrey/LOCALS~1/Temp/ccMuA7oP.s 			page 55


 2789 01b9 9742     		.uleb128 0x2117
 2790 01bb 19       		.uleb128 0x19
 2791 01bc 01       		.uleb128 0x1
 2792 01bd 13       		.uleb128 0x13
 2793 01be 00       		.byte	0
 2794 01bf 00       		.byte	0
 2795 01c0 21       		.uleb128 0x21
 2796 01c1 34       		.uleb128 0x34
 2797 01c2 00       		.byte	0
 2798 01c3 03       		.uleb128 0x3
 2799 01c4 08       		.uleb128 0x8
 2800 01c5 3A       		.uleb128 0x3a
 2801 01c6 0B       		.uleb128 0xb
 2802 01c7 3B       		.uleb128 0x3b
 2803 01c8 05       		.uleb128 0x5
 2804 01c9 49       		.uleb128 0x49
 2805 01ca 13       		.uleb128 0x13
 2806 01cb 02       		.uleb128 0x2
 2807 01cc 17       		.uleb128 0x17
 2808 01cd 00       		.byte	0
 2809 01ce 00       		.byte	0
 2810 01cf 22       		.uleb128 0x22
 2811 01d0 0B       		.uleb128 0xb
 2812 01d1 01       		.byte	0x1
 2813 01d2 11       		.uleb128 0x11
 2814 01d3 01       		.uleb128 0x1
 2815 01d4 12       		.uleb128 0x12
 2816 01d5 06       		.uleb128 0x6
 2817 01d6 01       		.uleb128 0x1
 2818 01d7 13       		.uleb128 0x13
 2819 01d8 00       		.byte	0
 2820 01d9 00       		.byte	0
 2821 01da 23       		.uleb128 0x23
 2822 01db 34       		.uleb128 0x34
 2823 01dc 00       		.byte	0
 2824 01dd 03       		.uleb128 0x3
 2825 01de 08       		.uleb128 0x8
 2826 01df 3A       		.uleb128 0x3a
 2827 01e0 0B       		.uleb128 0xb
 2828 01e1 3B       		.uleb128 0x3b
 2829 01e2 05       		.uleb128 0x5
 2830 01e3 49       		.uleb128 0x49
 2831 01e4 13       		.uleb128 0x13
 2832 01e5 00       		.byte	0
 2833 01e6 00       		.byte	0
 2834 01e7 24       		.uleb128 0x24
 2835 01e8 1D       		.uleb128 0x1d
 2836 01e9 01       		.byte	0x1
 2837 01ea 31       		.uleb128 0x31
 2838 01eb 13       		.uleb128 0x13
 2839 01ec 52       		.uleb128 0x52
 2840 01ed 01       		.uleb128 0x1
 2841 01ee 55       		.uleb128 0x55
 2842 01ef 17       		.uleb128 0x17
 2843 01f0 58       		.uleb128 0x58
 2844 01f1 0B       		.uleb128 0xb
 2845 01f2 59       		.uleb128 0x59
GAS LISTING /cygdrive/c/DOCUME~1/andrey/LOCALS~1/Temp/ccMuA7oP.s 			page 56


 2846 01f3 05       		.uleb128 0x5
 2847 01f4 01       		.uleb128 0x1
 2848 01f5 13       		.uleb128 0x13
 2849 01f6 00       		.byte	0
 2850 01f7 00       		.byte	0
 2851 01f8 25       		.uleb128 0x25
 2852 01f9 0B       		.uleb128 0xb
 2853 01fa 01       		.byte	0x1
 2854 01fb 55       		.uleb128 0x55
 2855 01fc 17       		.uleb128 0x17
 2856 01fd 00       		.byte	0
 2857 01fe 00       		.byte	0
 2858 01ff 26       		.uleb128 0x26
 2859 0200 2E       		.uleb128 0x2e
 2860 0201 01       		.byte	0x1
 2861 0202 3F       		.uleb128 0x3f
 2862 0203 19       		.uleb128 0x19
 2863 0204 03       		.uleb128 0x3
 2864 0205 08       		.uleb128 0x8
 2865 0206 3A       		.uleb128 0x3a
 2866 0207 0B       		.uleb128 0xb
 2867 0208 3B       		.uleb128 0x3b
 2868 0209 05       		.uleb128 0x5
 2869 020a 27       		.uleb128 0x27
 2870 020b 19       		.uleb128 0x19
 2871 020c 11       		.uleb128 0x11
 2872 020d 01       		.uleb128 0x1
 2873 020e 12       		.uleb128 0x12
 2874 020f 06       		.uleb128 0x6
 2875 0210 40       		.uleb128 0x40
 2876 0211 18       		.uleb128 0x18
 2877 0212 9742     		.uleb128 0x2117
 2878 0214 19       		.uleb128 0x19
 2879 0215 01       		.uleb128 0x1
 2880 0216 13       		.uleb128 0x13
 2881 0217 00       		.byte	0
 2882 0218 00       		.byte	0
 2883 0219 27       		.uleb128 0x27
 2884 021a 1D       		.uleb128 0x1d
 2885 021b 01       		.byte	0x1
 2886 021c 31       		.uleb128 0x31
 2887 021d 13       		.uleb128 0x13
 2888 021e 11       		.uleb128 0x11
 2889 021f 01       		.uleb128 0x1
 2890 0220 12       		.uleb128 0x12
 2891 0221 06       		.uleb128 0x6
 2892 0222 58       		.uleb128 0x58
 2893 0223 0B       		.uleb128 0xb
 2894 0224 59       		.uleb128 0x59
 2895 0225 05       		.uleb128 0x5
 2896 0226 01       		.uleb128 0x1
 2897 0227 13       		.uleb128 0x13
 2898 0228 00       		.byte	0
 2899 0229 00       		.byte	0
 2900 022a 28       		.uleb128 0x28
 2901 022b 34       		.uleb128 0x34
 2902 022c 00       		.byte	0
GAS LISTING /cygdrive/c/DOCUME~1/andrey/LOCALS~1/Temp/ccMuA7oP.s 			page 57


 2903 022d 03       		.uleb128 0x3
 2904 022e 08       		.uleb128 0x8
 2905 022f 3A       		.uleb128 0x3a
 2906 0230 0B       		.uleb128 0xb
 2907 0231 3B       		.uleb128 0x3b
 2908 0232 0B       		.uleb128 0xb
 2909 0233 49       		.uleb128 0x49
 2910 0234 13       		.uleb128 0x13
 2911 0235 3F       		.uleb128 0x3f
 2912 0236 19       		.uleb128 0x19
 2913 0237 3C       		.uleb128 0x3c
 2914 0238 19       		.uleb128 0x19
 2915 0239 00       		.byte	0
 2916 023a 00       		.byte	0
 2917 023b 29       		.uleb128 0x29
 2918 023c 2E       		.uleb128 0x2e
 2919 023d 01       		.byte	0x1
 2920 023e 3F       		.uleb128 0x3f
 2921 023f 19       		.uleb128 0x19
 2922 0240 03       		.uleb128 0x3
 2923 0241 08       		.uleb128 0x8
 2924 0242 3A       		.uleb128 0x3a
 2925 0243 0B       		.uleb128 0xb
 2926 0244 3B       		.uleb128 0x3b
 2927 0245 0B       		.uleb128 0xb
 2928 0246 27       		.uleb128 0x27
 2929 0247 19       		.uleb128 0x19
 2930 0248 3C       		.uleb128 0x3c
 2931 0249 19       		.uleb128 0x19
 2932 024a 01       		.uleb128 0x1
 2933 024b 13       		.uleb128 0x13
 2934 024c 00       		.byte	0
 2935 024d 00       		.byte	0
 2936 024e 2A       		.uleb128 0x2a
 2937 024f 05       		.uleb128 0x5
 2938 0250 00       		.byte	0
 2939 0251 49       		.uleb128 0x49
 2940 0252 13       		.uleb128 0x13
 2941 0253 00       		.byte	0
 2942 0254 00       		.byte	0
 2943 0255 2B       		.uleb128 0x2b
 2944 0256 2E       		.uleb128 0x2e
 2945 0257 01       		.byte	0x1
 2946 0258 3F       		.uleb128 0x3f
 2947 0259 19       		.uleb128 0x19
 2948 025a 03       		.uleb128 0x3
 2949 025b 08       		.uleb128 0x8
 2950 025c 3A       		.uleb128 0x3a
 2951 025d 0B       		.uleb128 0xb
 2952 025e 3B       		.uleb128 0x3b
 2953 025f 0B       		.uleb128 0xb
 2954 0260 27       		.uleb128 0x27
 2955 0261 19       		.uleb128 0x19
 2956 0262 49       		.uleb128 0x49
 2957 0263 13       		.uleb128 0x13
 2958 0264 3C       		.uleb128 0x3c
 2959 0265 19       		.uleb128 0x19
GAS LISTING /cygdrive/c/DOCUME~1/andrey/LOCALS~1/Temp/ccMuA7oP.s 			page 58


 2960 0266 01       		.uleb128 0x1
 2961 0267 13       		.uleb128 0x13
 2962 0268 00       		.byte	0
 2963 0269 00       		.byte	0
 2964 026a 2C       		.uleb128 0x2c
 2965 026b 2E       		.uleb128 0x2e
 2966 026c 00       		.byte	0
 2967 026d 3F       		.uleb128 0x3f
 2968 026e 19       		.uleb128 0x19
 2969 026f 03       		.uleb128 0x3
 2970 0270 08       		.uleb128 0x8
 2971 0271 3A       		.uleb128 0x3a
 2972 0272 0B       		.uleb128 0xb
 2973 0273 3B       		.uleb128 0x3b
 2974 0274 0B       		.uleb128 0xb
 2975 0275 27       		.uleb128 0x27
 2976 0276 19       		.uleb128 0x19
 2977 0277 3C       		.uleb128 0x3c
 2978 0278 19       		.uleb128 0x19
 2979 0279 00       		.byte	0
 2980 027a 00       		.byte	0
 2981 027b 00       		.byte	0
 2982              		.section	.debug_loc,"dr"
 2983              	Ldebug_loc0:
 2984              	LLST0:
 2985 0000 4D000000 		.long	LVL3-Ltext0
 2986 0004 02010000 		.long	LVL12-Ltext0
 2987 0008 0100     		.word	0x1
 2988 000a 53       		.byte	0x53
 2989 000b 06010000 		.long	LVL14-Ltext0
 2990 000f A2010000 		.long	LVL29-Ltext0
 2991 0013 0100     		.word	0x1
 2992 0015 53       		.byte	0x53
 2993 0016 A2010000 		.long	LVL29-Ltext0
 2994 001a A3010000 		.long	LVL30-Ltext0
 2995 001e 0200     		.word	0x2
 2996 0020 76       		.byte	0x76
 2997 0021 08       		.sleb128 8
 2998 0022 A3010000 		.long	LVL30-Ltext0
 2999 0026 A6010000 		.long	LVL31-Ltext0
 3000 002a 0500     		.word	0x5
 3001 002c 91       		.byte	0x91
 3002 002d 00       		.sleb128 0
 3003 002e 06       		.byte	0x6
 3004 002f 23       		.byte	0x23
 3005 0030 08       		.uleb128 0x8
 3006 0031 A6010000 		.long	LVL31-Ltext0
 3007 0035 C7010000 		.long	LFE9-Ltext0
 3008 0039 0100     		.word	0x1
 3009 003b 53       		.byte	0x53
 3010 003c 00000000 		.long	0
 3011 0040 00000000 		.long	0
 3012              	LLST1:
 3013 0044 69000000 		.long	LVL5-Ltext0
 3014 0048 8C000000 		.long	LVL6-Ltext0
 3015 004c 0100     		.word	0x1
 3016 004e 52       		.byte	0x52
GAS LISTING /cygdrive/c/DOCUME~1/andrey/LOCALS~1/Temp/ccMuA7oP.s 			page 59


 3017 004f 06010000 		.long	LVL14-Ltext0
 3018 0053 1D010000 		.long	LVL16-1-Ltext0
 3019 0057 0100     		.word	0x1
 3020 0059 52       		.byte	0x52
 3021 005a 23010000 		.long	LVL17-Ltext0
 3022 005e 92010000 		.long	LVL28-Ltext0
 3023 0062 0100     		.word	0x1
 3024 0064 52       		.byte	0x52
 3025 0065 00000000 		.long	0
 3026 0069 00000000 		.long	0
 3027              	LLST2:
 3028 006d 8C000000 		.long	LVL6-Ltext0
 3029 0071 03010000 		.long	LVL13-Ltext0
 3030 0075 0100     		.word	0x1
 3031 0077 56       		.byte	0x56
 3032 0078 03010000 		.long	LVL13-Ltext0
 3033 007c 06010000 		.long	LVL14-Ltext0
 3034 0080 0200     		.word	0x2
 3035 0082 91       		.byte	0x91
 3036 0083 00       		.sleb128 0
 3037 0084 00000000 		.long	0
 3038 0088 00000000 		.long	0
 3039              	LLST3:
 3040 008c 8C000000 		.long	LVL6-Ltext0
 3041 0090 02010000 		.long	LVL12-Ltext0
 3042 0094 0100     		.word	0x1
 3043 0096 53       		.byte	0x53
 3044 0097 00000000 		.long	0
 3045 009b 00000000 		.long	0
 3046              	LLST4:
 3047 009f 8C000000 		.long	LVL6-Ltext0
 3048 00a3 92000000 		.long	LVL7-Ltext0
 3049 00a7 0100     		.word	0x1
 3050 00a9 56       		.byte	0x56
 3051 00aa 92000000 		.long	LVL7-Ltext0
 3052 00ae BB000000 		.long	LVL9-1-Ltext0
 3053 00b2 0100     		.word	0x1
 3054 00b4 50       		.byte	0x50
 3055 00b5 00000000 		.long	0
 3056 00b9 00000000 		.long	0
 3057              	LLST5:
 3058 00bd 0F010000 		.long	LVL15-Ltext0
 3059 00c1 1D010000 		.long	LVL16-1-Ltext0
 3060 00c5 0100     		.word	0x1
 3061 00c7 52       		.byte	0x52
 3062 00c8 00000000 		.long	0
 3063 00cc 00000000 		.long	0
 3064              	LLST6:
 3065 00d0 2B010000 		.long	LVL18-Ltext0
 3066 00d4 53010000 		.long	LVL22-Ltext0
 3067 00d8 0100     		.word	0x1
 3068 00da 52       		.byte	0x52
 3069 00db 00000000 		.long	0
 3070 00df 00000000 		.long	0
 3071              	LLST7:
 3072 00e3 32010000 		.long	LVL19-Ltext0
 3073 00e7 53010000 		.long	LVL22-Ltext0
GAS LISTING /cygdrive/c/DOCUME~1/andrey/LOCALS~1/Temp/ccMuA7oP.s 			page 60


 3074 00eb 0100     		.word	0x1
 3075 00ed 57       		.byte	0x57
 3076 00ee 00000000 		.long	0
 3077 00f2 00000000 		.long	0
 3078              	LLST8:
 3079 00f6 32010000 		.long	LVL19-Ltext0
 3080 00fa 53010000 		.long	LVL22-Ltext0
 3081 00fe 0100     		.word	0x1
 3082 0100 52       		.byte	0x52
 3083 0101 00000000 		.long	0
 3084 0105 00000000 		.long	0
 3085              	LLST9:
 3086 0109 32010000 		.long	LVL19-Ltext0
 3087 010d 36010000 		.long	LVL20-Ltext0
 3088 0111 0100     		.word	0x1
 3089 0113 57       		.byte	0x57
 3090 0114 36010000 		.long	LVL20-Ltext0
 3091 0118 53010000 		.long	LVL22-Ltext0
 3092 011c 0100     		.word	0x1
 3093 011e 50       		.byte	0x50
 3094 011f 00000000 		.long	0
 3095 0123 00000000 		.long	0
 3096              	LLST10:
 3097 0127 5B010000 		.long	LVL23-Ltext0
 3098 012b 81010000 		.long	LVL27-Ltext0
 3099 012f 0100     		.word	0x1
 3100 0131 52       		.byte	0x52
 3101 0132 81010000 		.long	LVL27-Ltext0
 3102 0136 92010000 		.long	LVL28-Ltext0
 3103 013a 0200     		.word	0x2
 3104 013c 70       		.byte	0x70
 3105 013d 04       		.sleb128 4
 3106 013e 00000000 		.long	0
 3107 0142 00000000 		.long	0
 3108              	LLST11:
 3109 0146 62010000 		.long	LVL24-Ltext0
 3110 014a 92010000 		.long	LVL28-Ltext0
 3111 014e 0100     		.word	0x1
 3112 0150 57       		.byte	0x57
 3113 0151 00000000 		.long	0
 3114 0155 00000000 		.long	0
 3115              	LLST12:
 3116 0159 62010000 		.long	LVL24-Ltext0
 3117 015d 81010000 		.long	LVL27-Ltext0
 3118 0161 0100     		.word	0x1
 3119 0163 52       		.byte	0x52
 3120 0164 81010000 		.long	LVL27-Ltext0
 3121 0168 92010000 		.long	LVL28-Ltext0
 3122 016c 0200     		.word	0x2
 3123 016e 70       		.byte	0x70
 3124 016f 04       		.sleb128 4
 3125 0170 00000000 		.long	0
 3126 0174 00000000 		.long	0
 3127              	LLST13:
 3128 0178 62010000 		.long	LVL24-Ltext0
 3129 017c 66010000 		.long	LVL25-Ltext0
 3130 0180 0100     		.word	0x1
GAS LISTING /cygdrive/c/DOCUME~1/andrey/LOCALS~1/Temp/ccMuA7oP.s 			page 61


 3131 0182 57       		.byte	0x57
 3132 0183 66010000 		.long	LVL25-Ltext0
 3133 0187 92010000 		.long	LVL28-Ltext0
 3134 018b 0100     		.word	0x1
 3135 018d 50       		.byte	0x50
 3136 018e 00000000 		.long	0
 3137 0192 00000000 		.long	0
 3138              	LLST14:
 3139 0196 68020000 		.long	LVL43-Ltext0
 3140 019a 6C020000 		.long	LVL44-1-Ltext0
 3141 019e 0100     		.word	0x1
 3142 01a0 50       		.byte	0x50
 3143 01a1 6C020000 		.long	LVL44-1-Ltext0
 3144 01a5 74020000 		.long	LVL45-Ltext0
 3145 01a9 0100     		.word	0x1
 3146 01ab 53       		.byte	0x53
 3147 01ac 74020000 		.long	LVL45-Ltext0
 3148 01b0 75020000 		.long	LFE10-Ltext0
 3149 01b4 0100     		.word	0x1
 3150 01b6 50       		.byte	0x50
 3151 01b7 00000000 		.long	0
 3152 01bb 00000000 		.long	0
 3153              	LLST15:
 3154 01bf 8C020000 		.long	LVL46-Ltext0
 3155 01c3 1D030000 		.long	LVL58-Ltext0
 3156 01c7 0100     		.word	0x1
 3157 01c9 57       		.byte	0x57
 3158 01ca 1E030000 		.long	LVL59-Ltext0
 3159 01ce 4D030000 		.long	LFE12-Ltext0
 3160 01d2 0100     		.word	0x1
 3161 01d4 57       		.byte	0x57
 3162 01d5 00000000 		.long	0
 3163 01d9 00000000 		.long	0
 3164              	LLST16:
 3165 01dd C1020000 		.long	LVL49-Ltext0
 3166 01e1 1C030000 		.long	LVL57-Ltext0
 3167 01e5 0100     		.word	0x1
 3168 01e7 56       		.byte	0x56
 3169 01e8 1C030000 		.long	LVL57-Ltext0
 3170 01ec 1E030000 		.long	LVL59-Ltext0
 3171 01f0 0100     		.word	0x1
 3172 01f2 50       		.byte	0x50
 3173 01f3 1E030000 		.long	LVL59-Ltext0
 3174 01f7 29030000 		.long	LVL60-Ltext0
 3175 01fb 0100     		.word	0x1
 3176 01fd 56       		.byte	0x56
 3177 01fe 00000000 		.long	0
 3178 0202 00000000 		.long	0
 3179              	LLST17:
 3180 0206 D2020000 		.long	LVL50-Ltext0
 3181 020a EB020000 		.long	LVL53-Ltext0
 3182 020e 0100     		.word	0x1
 3183 0210 52       		.byte	0x52
 3184 0211 00000000 		.long	0
 3185 0215 00000000 		.long	0
 3186              	LLST18:
 3187 0219 D2020000 		.long	LVL50-Ltext0
GAS LISTING /cygdrive/c/DOCUME~1/andrey/LOCALS~1/Temp/ccMuA7oP.s 			page 62


 3188 021d 0F030000 		.long	LVL55-Ltext0
 3189 0221 0100     		.word	0x1
 3190 0223 53       		.byte	0x53
 3191 0224 00000000 		.long	0
 3192 0228 00000000 		.long	0
 3193              	LLST19:
 3194 022c EE020000 		.long	LVL54-Ltext0
 3195 0230 0F030000 		.long	LVL55-Ltext0
 3196 0234 0100     		.word	0x1
 3197 0236 56       		.byte	0x56
 3198 0237 00000000 		.long	0
 3199 023b 00000000 		.long	0
 3200              	LLST20:
 3201 023f EE020000 		.long	LVL54-Ltext0
 3202 0243 0E030000 		.long	LVL55-1-Ltext0
 3203 0247 0100     		.word	0x1
 3204 0249 50       		.byte	0x50
 3205 024a 00000000 		.long	0
 3206 024e 00000000 		.long	0
 3207              	LLST21:
 3208 0252 5C030000 		.long	LVL62-Ltext0
 3209 0256 DE030000 		.long	LVL74-Ltext0
 3210 025a 0100     		.word	0x1
 3211 025c 57       		.byte	0x57
 3212 025d DF030000 		.long	LVL75-Ltext0
 3213 0261 EF030000 		.long	LVL77-Ltext0
 3214 0265 0100     		.word	0x1
 3215 0267 57       		.byte	0x57
 3216 0268 F0030000 		.long	LVL78-Ltext0
 3217 026c 14040000 		.long	LFE13-Ltext0
 3218 0270 0100     		.word	0x1
 3219 0272 57       		.byte	0x57
 3220 0273 00000000 		.long	0
 3221 0277 00000000 		.long	0
 3222              	LLST22:
 3223 027b 90030000 		.long	LVL65-Ltext0
 3224 027f DD030000 		.long	LVL73-Ltext0
 3225 0283 0100     		.word	0x1
 3226 0285 56       		.byte	0x56
 3227 0286 DD030000 		.long	LVL73-Ltext0
 3228 028a DF030000 		.long	LVL75-Ltext0
 3229 028e 0100     		.word	0x1
 3230 0290 50       		.byte	0x50
 3231 0291 DF030000 		.long	LVL75-Ltext0
 3232 0295 EE030000 		.long	LVL76-Ltext0
 3233 0299 0100     		.word	0x1
 3234 029b 56       		.byte	0x56
 3235 029c EE030000 		.long	LVL76-Ltext0
 3236 02a0 F0030000 		.long	LVL78-Ltext0
 3237 02a4 0100     		.word	0x1
 3238 02a6 50       		.byte	0x50
 3239 02a7 00000000 		.long	0
 3240 02ab 00000000 		.long	0
 3241              	LLST23:
 3242 02af A1030000 		.long	LVL66-Ltext0
 3243 02b3 BA030000 		.long	LVL69-Ltext0
 3244 02b7 0100     		.word	0x1
GAS LISTING /cygdrive/c/DOCUME~1/andrey/LOCALS~1/Temp/ccMuA7oP.s 			page 63


 3245 02b9 52       		.byte	0x52
 3246 02ba 00000000 		.long	0
 3247 02be 00000000 		.long	0
 3248              	LLST24:
 3249 02c2 A1030000 		.long	LVL66-Ltext0
 3250 02c6 DC030000 		.long	LVL72-Ltext0
 3251 02ca 0100     		.word	0x1
 3252 02cc 53       		.byte	0x53
 3253 02cd 00000000 		.long	0
 3254 02d1 00000000 		.long	0
 3255              	LLST25:
 3256 02d5 BD030000 		.long	LVL70-Ltext0
 3257 02d9 DD030000 		.long	LVL73-Ltext0
 3258 02dd 0100     		.word	0x1
 3259 02df 56       		.byte	0x56
 3260 02e0 DD030000 		.long	LVL73-Ltext0
 3261 02e4 DF030000 		.long	LVL75-Ltext0
 3262 02e8 0100     		.word	0x1
 3263 02ea 50       		.byte	0x50
 3264 02eb 00000000 		.long	0
 3265 02ef 00000000 		.long	0
 3266              	LLST26:
 3267 02f3 BD030000 		.long	LVL70-Ltext0
 3268 02f7 D5030000 		.long	LVL71-1-Ltext0
 3269 02fb 0100     		.word	0x1
 3270 02fd 50       		.byte	0x50
 3271 02fe 00000000 		.long	0
 3272 0302 00000000 		.long	0
 3273              	LLST27:
 3274 0306 2A040000 		.long	LVL80-Ltext0
 3275 030a 91040000 		.long	LVL88-Ltext0
 3276 030e 0100     		.word	0x1
 3277 0310 53       		.byte	0x53
 3278 0311 00000000 		.long	0
 3279 0315 00000000 		.long	0
 3280              	LLST28:
 3281 0319 39040000 		.long	LVL82-Ltext0
 3282 031d 5A040000 		.long	LVL83-1-Ltext0
 3283 0321 0100     		.word	0x1
 3284 0323 50       		.byte	0x50
 3285 0324 62040000 		.long	LVL84-Ltext0
 3286 0328 78040000 		.long	LVL85-Ltext0
 3287 032c 0100     		.word	0x1
 3288 032e 50       		.byte	0x50
 3289 032f 00000000 		.long	0
 3290 0333 00000000 		.long	0
 3291              	LLST29:
 3292 0337 39040000 		.long	LVL82-Ltext0
 3293 033b 5A040000 		.long	LVL83-1-Ltext0
 3294 033f 0100     		.word	0x1
 3295 0341 50       		.byte	0x50
 3296 0342 00000000 		.long	0
 3297 0346 00000000 		.long	0
 3298              	LLST30:
 3299 034a 39040000 		.long	LVL82-Ltext0
 3300 034e 5A040000 		.long	LVL83-1-Ltext0
 3301 0352 0100     		.word	0x1
GAS LISTING /cygdrive/c/DOCUME~1/andrey/LOCALS~1/Temp/ccMuA7oP.s 			page 64


 3302 0354 52       		.byte	0x52
 3303 0355 00000000 		.long	0
 3304 0359 00000000 		.long	0
 3305              		.section	.debug_aranges,"dr"
 3306 0000 1C000000 		.long	0x1c
 3307 0004 0200     		.word	0x2
 3308 0006 00000000 		.secrel32	Ldebug_info0
 3309 000a 04       		.byte	0x4
 3310 000b 00       		.byte	0
 3311 000c 0000     		.word	0
 3312 000e 0000     		.word	0
 3313 0010 00000000 		.long	Ltext0
 3314 0014 92040000 		.long	Letext0-Ltext0
 3315 0018 00000000 		.long	0
 3316 001c 00000000 		.long	0
 3317              		.section	.debug_ranges,"dr"
 3318              	Ldebug_ranges0:
 3319 0000 69000000 		.long	LBB25-Ltext0
 3320 0004 FE000000 		.long	LBE25-Ltext0
 3321 0008 06010000 		.long	LBB44-Ltext0
 3322 000c 92010000 		.long	LBE44-Ltext0
 3323 0010 00000000 		.long	0
 3324 0014 00000000 		.long	0
 3325 0018 06010000 		.long	LBB28-Ltext0
 3326 001c 0B010000 		.long	LBE28-Ltext0
 3327 0020 0F010000 		.long	LBB31-Ltext0
 3328 0024 16010000 		.long	LBE31-Ltext0
 3329 0028 00000000 		.long	0
 3330 002c 00000000 		.long	0
 3331 0030 23010000 		.long	LBB32-Ltext0
 3332 0034 28010000 		.long	LBE32-Ltext0
 3333 0038 2B010000 		.long	LBB35-Ltext0
 3334 003c 32010000 		.long	LBE35-Ltext0
 3335 0040 00000000 		.long	0
 3336 0044 00000000 		.long	0
 3337 0048 53010000 		.long	LBB38-Ltext0
 3338 004c 58010000 		.long	LBE38-Ltext0
 3339 0050 5B010000 		.long	LBB41-Ltext0
 3340 0054 62010000 		.long	LBE41-Ltext0
 3341 0058 00000000 		.long	0
 3342 005c 00000000 		.long	0
 3343 0060 E9020000 		.long	LBB46-Ltext0
 3344 0064 EB020000 		.long	LBE46-Ltext0
 3345 0068 EE020000 		.long	LBB49-Ltext0
 3346 006c F3020000 		.long	LBE49-Ltext0
 3347 0070 00000000 		.long	0
 3348 0074 00000000 		.long	0
 3349 0078 B8030000 		.long	LBB51-Ltext0
 3350 007c BA030000 		.long	LBE51-Ltext0
 3351 0080 BD030000 		.long	LBB54-Ltext0
 3352 0084 C2030000 		.long	LBE54-Ltext0
 3353 0088 00000000 		.long	0
 3354 008c 00000000 		.long	0
 3355 0090 40040000 		.long	LBB55-Ltext0
 3356 0094 5B040000 		.long	LBE55-Ltext0
 3357 0098 62040000 		.long	LBB59-Ltext0
 3358 009c 75040000 		.long	LBE59-Ltext0
GAS LISTING /cygdrive/c/DOCUME~1/andrey/LOCALS~1/Temp/ccMuA7oP.s 			page 65


 3359 00a0 00000000 		.long	0
 3360 00a4 00000000 		.long	0
 3361              		.section	.debug_line,"dr"
 3362              	Ldebug_line0:
 3363 0000 BE020000 		.section	.debug_str,"dr"
 3363      02000F01 
 3363      00000101 
 3363      FB0E0D00 
 3363      01010101 
 3364              	LASF0:
 3365 0000 705F6E65 		.ascii "p_next\0"
 3365      787400
 3366              		.ident	"GCC: (GNU) 4.8.2"
 3367              		.def	_chDbgPanic;	.scl	2;	.type	32;	.endef
 3368              		.def	_chDbgCheckClassS;	.scl	2;	.type	32;	.endef
 3369              		.def	_chSchGoSleepS;	.scl	2;	.type	32;	.endef
 3370              		.def	_chSchReadyI;	.scl	2;	.type	32;	.endef
 3371              		.def	_dbg_check_lock;	.scl	2;	.type	32;	.endef
 3372              		.def	_dbg_check_unlock;	.scl	2;	.type	32;	.endef
 3373              		.def	_chSchWakeupS;	.scl	2;	.type	32;	.endef
 3374              		.def	_chSchRescheduleS;	.scl	2;	.type	32;	.endef
GAS LISTING /cygdrive/c/DOCUME~1/andrey/LOCALS~1/Temp/ccMuA7oP.s 			page 66


DEFINED SYMBOLS
                            *ABS*:00000000 chmtx.c
/cygdrive/c/DOCUME~1/andrey/LOCALS~1/Temp/ccMuA7oP.s:77     .text:00000000 _chMtxInit
/cygdrive/c/DOCUME~1/andrey/LOCALS~1/Temp/ccMuA7oP.s:130    .text:00000040 _chMtxLockS
/cygdrive/c/DOCUME~1/andrey/LOCALS~1/Temp/ccMuA7oP.s:455    .text:000001d0 _chMtxLock
/cygdrive/c/DOCUME~1/andrey/LOCALS~1/Temp/ccMuA7oP.s:496    .text:000001f0 _chMtxTryLockS
/cygdrive/c/DOCUME~1/andrey/LOCALS~1/Temp/ccMuA7oP.s:569    .text:00000250 _chMtxTryLock
/cygdrive/c/DOCUME~1/andrey/LOCALS~1/Temp/ccMuA7oP.s:622    .text:00000280 _chMtxUnlock
/cygdrive/c/DOCUME~1/andrey/LOCALS~1/Temp/ccMuA7oP.s:787    .text:00000350 _chMtxUnlockS
/cygdrive/c/DOCUME~1/andrey/LOCALS~1/Temp/ccMuA7oP.s:949    .text:00000420 _chMtxUnlockAll

UNDEFINED SYMBOLS
_rlist
_chDbgPanic
_chDbgCheckClassS
_chSchGoSleepS
_chSchReadyI
_dbg_check_lock
_dbg_check_unlock
_chSchWakeupS
_chSchRescheduleS
