GAS LISTING /cygdrive/c/DOCUME~1/andrey/LOCALS~1/Temp/cc8DOkPH.s 			page 1


   1              		.file	"chqueues.c"
   2              	 # GNU C (GCC) version 4.8.2 (i686-pc-cygwin)
   3              	 #	compiled by GNU C version 4.8.2, GMP version 5.1.3, MPFR version 3.1.2, MPC version 1.0.1
   4              	 # GGC heuristics: --param ggc-min-expand=100 --param ggc-min-heapsize=131072
   5              	 # options passed:  -I . -I ../firmware/chibios/os/ports/GCC/SIMIA32
   6              	 # -I ../firmware/chibios/os/kernel/include
   7              	 # -I ../firmware/chibios/os/hal/include
   8              	 # -I ../firmware/chibios/os/hal/platforms/Win32
   9              	 # -I ../firmware/chibios/boards/simulator -I ../firmware/util
  10              	 # -I ../firmware/console -I ../firmware/console_util
  11              	 # -I ../firmware/config/engines -I ../firmware/ext_algo
  12              	 # -I ../firmware/controllers/sensors -I ../firmware/controllers/system
  13              	 # -I ../firmware/controllers/algo -I ../firmware/controllers/math
  14              	 # -I ../firmware/controllers/trigger -I ../firmware/chibios/os/various
  15              	 # -MD ../firmware/chibios/os/kernel/src/chqueues.d -MF .dep/chqueues.o.d
  16              	 # -MP -MQ ../firmware/chibios/os/kernel/src/chqueues.o -Dunix
  17              	 # -idirafter /usr/lib/gcc/i686-pc-cygwin/4.8.2/../../../../include/w32api
  18              	 # -idirafter ../../include/w32api -D SIMULATOR -D SHELL_USE_IPRINTF=FALSE
  19              	 # ../firmware/chibios/os/kernel/src/chqueues.c -mtune=generic -march=i686
  20              	 # -auxbase-strip ../firmware/chibios/os/kernel/src/chqueues.o -ggdb -O2
  21              	 # -Wall -Wextra -Wstrict-prototypes -std=gnu99 -fomit-frame-pointer
  22              	 # -fgnu89-inline -fverbose-asm
  23              	 # options enabled:  -faggressive-loop-optimizations
  24              	 # -fasynchronous-unwind-tables -fauto-inc-dec -fbranch-count-reg
  25              	 # -fcaller-saves -fcombine-stack-adjustments -fcommon -fcompare-elim
  26              	 # -fcprop-registers -fcrossjumping -fcse-follow-jumps -fdefer-pop
  27              	 # -fdelete-null-pointer-checks -fdevirtualize -fdwarf2-cfi-asm
  28              	 # -fearly-inlining -feliminate-unused-debug-types
  29              	 # -fexpensive-optimizations -fforward-propagate -ffunction-cse -fgcse
  30              	 # -fgcse-lm -fgnu-runtime -fguess-branch-probability
  31              	 # -fhoist-adjacent-loads -fident -fif-conversion -fif-conversion2
  32              	 # -findirect-inlining -finline -finline-atomics
  33              	 # -finline-functions-called-once -finline-small-functions -fipa-cp
  34              	 # -fipa-profile -fipa-pure-const -fipa-reference -fipa-sra
  35              	 # -fira-hoist-pressure -fira-share-save-slots -fira-share-spill-slots
  36              	 # -fivopts -fkeep-inline-dllexport -fkeep-static-consts
  37              	 # -fleading-underscore -fmath-errno -fmerge-constants
  38              	 # -fmerge-debug-strings -fmove-loop-invariants -fomit-frame-pointer
  39              	 # -foptimize-register-move -foptimize-sibling-calls -foptimize-strlen
  40              	 # -fpartial-inlining -fpeephole -fpeephole2 -fprefetch-loop-arrays -free
  41              	 # -freg-struct-return -fregmove -freorder-blocks -freorder-functions
  42              	 # -frerun-cse-after-loop -fsched-critical-path-heuristic
  43              	 # -fsched-dep-count-heuristic -fsched-group-heuristic -fsched-interblock
  44              	 # -fsched-last-insn-heuristic -fsched-rank-heuristic -fsched-spec
  45              	 # -fsched-spec-insn-heuristic -fsched-stalled-insns-dep -fschedule-insns2
  46              	 # -fset-stack-executable -fshow-column -fshrink-wrap -fsigned-zeros
  47              	 # -fsplit-ivs-in-unroller -fsplit-wide-types -fstrict-aliasing
  48              	 # -fstrict-overflow -fstrict-volatile-bitfields -fsync-libcalls
  49              	 # -fthread-jumps -ftoplevel-reorder -ftrapping-math -ftree-bit-ccp
  50              	 # -ftree-builtin-call-dce -ftree-ccp -ftree-ch -ftree-coalesce-vars
  51              	 # -ftree-copy-prop -ftree-copyrename -ftree-cselim -ftree-dce
  52              	 # -ftree-dominator-opts -ftree-dse -ftree-forwprop -ftree-fre
  53              	 # -ftree-loop-if-convert -ftree-loop-im -ftree-loop-ivcanon
  54              	 # -ftree-loop-optimize -ftree-parallelize-loops= -ftree-phiprop -ftree-pre
  55              	 # -ftree-pta -ftree-reassoc -ftree-scev-cprop -ftree-sink
  56              	 # -ftree-slp-vectorize -ftree-slsr -ftree-sra -ftree-switch-conversion
  57              	 # -ftree-tail-merge -ftree-ter -ftree-vect-loop-version -ftree-vrp
GAS LISTING /cygdrive/c/DOCUME~1/andrey/LOCALS~1/Temp/cc8DOkPH.s 			page 2


  58              	 # -funit-at-a-time -funwind-tables -fvar-tracking
  59              	 # -fvar-tracking-assignments -fverbose-asm -fzero-initialized-in-bss -m32
  60              	 # -m80387 -m96bit-long-double -maccumulate-outgoing-args -malign-double
  61              	 # -malign-stringops -mfancy-math-387 -mfp-ret-in-387 -mieee-fp
  62              	 # -mlong-double-80 -mno-red-zone -mno-sse4 -mpush-args -msahf
  63              	 # -mstack-arg-probe
  64              	
  65              		.text
  66              	Ltext0:
  67              		.p2align 4,,15
  68              		.def	_qwait;	.scl	3;	.type	32;	.endef
  69              	_qwait:
  70              	LFB7:
  71              		.file 1 "../firmware/chibios/os/kernel/src/chqueues.c"
  72              		.loc 1 70 0
  73              		.cfi_startproc
  74              		.loc 1 72 0
  75 0000 85D2     		testl	%edx, %edx	 # time
  76 0002 742F     		je	L3	 #,
  77              		.loc 1 70 0
  78 0004 53       		pushl	%ebx	 #
  79              		.cfi_def_cfa_offset 8
  80              		.cfi_offset 3, -8
  81 0005 83EC18   		subl	$24, %esp	 #,
  82              		.cfi_def_cfa_offset 32
  83              		.loc 1 74 0
  84 0008 8B0D1800 		movl	_rlist+24, %ecx	 # rlist.r_current, D.2311
  84      0000
  85 000e 894124   		movl	%eax, 36(%ecx)	 # qp, _5->p_u.wtobjp
  86              	LBB12:
  87              	LBB13:
  88              		.file 2 "../firmware/chibios/os/kernel/include/chinline.h"
  89              		.loc 2 55 0
  90 0011 8B5804   		movl	4(%eax), %ebx	 # MEM[(struct ThreadsQueue *)qp_6(D)].p_prev, D.2311
  91              		.loc 2 54 0
  92 0014 8901     		movl	%eax, (%ecx)	 # qp, _5->p_next
  93              		.loc 2 55 0
  94 0016 895904   		movl	%ebx, 4(%ecx)	 # D.2311, _5->p_prev
  95              		.loc 2 56 0
  96 0019 894804   		movl	%ecx, 4(%eax)	 # D.2311, MEM[(struct ThreadsQueue *)qp_6(D)].p_prev
  97 001c 890B     		movl	%ecx, (%ebx)	 # D.2311, _12->p_next
  98              	LBE13:
  99              	LBE12:
 100              		.loc 1 76 0
 101 001e 89542404 		movl	%edx, 4(%esp)	 # time,
 102 0022 C704240D 		movl	$13, (%esp)	 #,
 102      000000
 103 0029 E8000000 		call	_chSchGoSleepTimeoutS	 #
 103      00
 104              		.loc 1 77 0
 105 002e 83C418   		addl	$24, %esp	 #,
 106              		.cfi_def_cfa_offset 8
 107 0031 5B       		popl	%ebx	 #
 108              		.cfi_restore 3
 109              		.cfi_def_cfa_offset 4
 110 0032 C3       		ret
 111              		.p2align 4,,7
GAS LISTING /cygdrive/c/DOCUME~1/andrey/LOCALS~1/Temp/cc8DOkPH.s 			page 3


 112              	L3:
 113              		.loc 1 73 0
 114 0033 B8FFFFFF 		movl	$-1, %eax	 #, D.2310
 114      FF
 115 0038 C3       		ret
 116              		.cfi_endproc
 117              	LFE7:
 118 0039 8DB42600 		.p2align 4,,15
 118      000000
 119              		.globl	_chIQInit
 120              		.def	_chIQInit;	.scl	2;	.type	32;	.endef
 121              	_chIQInit:
 122              	LFB8:
 123              		.loc 1 96 0
 124              		.cfi_startproc
 125              	LVL0:
 126              		.loc 1 96 0
 127 0040 8B442404 		movl	4(%esp), %eax	 # iqp, iqp
 128 0044 8B542408 		movl	8(%esp), %edx	 # bp, bp
 129              		.loc 1 98 0
 130 0048 894004   		movl	%eax, 4(%eax)	 # iqp, iqp_1(D)->q_waiting.p_prev
 131              		.loc 1 100 0
 132 004b 895014   		movl	%edx, 20(%eax)	 # bp, iqp_1(D)->q_wrptr
 133 004e 895018   		movl	%edx, 24(%eax)	 # bp, iqp_1(D)->q_rdptr
 134 0051 89500C   		movl	%edx, 12(%eax)	 # bp, iqp_1(D)->q_buffer
 135              		.loc 1 101 0
 136 0054 0354240C 		addl	12(%esp), %edx	 # size, tmp66
 137              		.loc 1 98 0
 138 0058 8900     		movl	%eax, (%eax)	 # iqp, iqp_1(D)->q_waiting.p_next
 139              		.loc 1 99 0
 140 005a C7400800 		movl	$0, 8(%eax)	 #, iqp_1(D)->q_counter
 140      000000
 141              		.loc 1 101 0
 142 0061 895010   		movl	%edx, 16(%eax)	 # tmp66, iqp_1(D)->q_top
 143              		.loc 1 102 0
 144 0064 8B542410 		movl	16(%esp), %edx	 # infy, infy
 145 0068 89501C   		movl	%edx, 28(%eax)	 # infy, iqp_1(D)->q_notify
 146              		.loc 1 103 0
 147 006b 8B542414 		movl	20(%esp), %edx	 # link, link
 148 006f 895020   		movl	%edx, 32(%eax)	 # link, iqp_1(D)->q_link
 149 0072 C3       		ret
 150              		.cfi_endproc
 151              	LFE8:
 152 0073 8DB60000 		.p2align 4,,15
 152      00008DBC 
 152      27000000 
 152      00
 153              		.globl	_chIQResetI
 154              		.def	_chIQResetI;	.scl	2;	.type	32;	.endef
 155              	_chIQResetI:
 156              	LFB9:
 157              		.loc 1 117 0
 158              		.cfi_startproc
 159              	LVL1:
 160 0080 53       		pushl	%ebx	 #
 161              		.cfi_def_cfa_offset 8
 162              		.cfi_offset 3, -8
GAS LISTING /cygdrive/c/DOCUME~1/andrey/LOCALS~1/Temp/cc8DOkPH.s 			page 4


 163 0081 83EC18   		subl	$24, %esp	 #,
 164              		.cfi_def_cfa_offset 32
 165              		.loc 1 117 0
 166 0084 8B5C2420 		movl	32(%esp), %ebx	 # iqp, iqp
 167              		.loc 1 119 0
 168 0088 E8000000 		call	_chDbgCheckClassI	 #
 168      00
 169              	LVL2:
 170              		.loc 1 121 0
 171 008d 8B430C   		movl	12(%ebx), %eax	 # iqp_4(D)->q_buffer, D.2319
 172              		.loc 1 122 0
 173 0090 C7430800 		movl	$0, 8(%ebx)	 #, iqp_4(D)->q_counter
 173      000000
 174              		.loc 1 121 0
 175 0097 894314   		movl	%eax, 20(%ebx)	 # D.2319, iqp_4(D)->q_wrptr
 176 009a 894318   		movl	%eax, 24(%ebx)	 # D.2319, iqp_4(D)->q_rdptr
 177              		.loc 1 123 0
 178 009d 8B03     		movl	(%ebx), %eax	 # iqp_4(D)->q_waiting.p_next, D.2320
 179 009f 39D8     		cmpl	%ebx, %eax	 # iqp, D.2320
 180 00a1 741C     		je	L8	 #,
 181              		.p2align 4,,7
 182              	L12:
 183              	LVL3:
 184              	LBB14:
 185              	LBB15:
 186              		.loc 2 62 0
 187 00a3 8B10     		movl	(%eax), %edx	 # _23->p_next, D.2320
 188 00a5 8913     		movl	%edx, (%ebx)	 # D.2320, MEM[(struct ThreadsQueue *)iqp_4(D)].p_next
 189 00a7 895A04   		movl	%ebx, 4(%edx)	 # iqp, _15->p_prev
 190              	LBE15:
 191              	LBE14:
 192              		.loc 1 124 0
 193 00aa 890424   		movl	%eax, (%esp)	 # D.2320,
 194 00ad E8000000 		call	_chSchReadyI	 #
 194      00
 195              	LVL4:
 196 00b2 C74024FE 		movl	$-2, 36(%eax)	 #, _13->p_u.rdymsg
 196      FFFFFF
 197              		.loc 1 123 0
 198 00b9 8B03     		movl	(%ebx), %eax	 # iqp_4(D)->q_waiting.p_next, D.2320
 199 00bb 39D8     		cmpl	%ebx, %eax	 # iqp, D.2320
 200 00bd 75E4     		jne	L12	 #,
 201              	LVL5:
 202              	L8:
 203              		.loc 1 125 0
 204 00bf 83C418   		addl	$24, %esp	 #,
 205              		.cfi_def_cfa_offset 8
 206 00c2 5B       		popl	%ebx	 #
 207              		.cfi_restore 3
 208              		.cfi_def_cfa_offset 4
 209 00c3 C3       		ret
 210              		.cfi_endproc
 211              	LFE9:
 212 00c4 8DB60000 		.p2align 4,,15
 212      00008DBF 
 212      00000000 
 213              		.globl	_chIQPutI
GAS LISTING /cygdrive/c/DOCUME~1/andrey/LOCALS~1/Temp/cc8DOkPH.s 			page 5


 214              		.def	_chIQPutI;	.scl	2;	.type	32;	.endef
 215              	_chIQPutI:
 216              	LFB10:
 217              		.loc 1 140 0
 218              		.cfi_startproc
 219              	LVL6:
 220 00d0 57       		pushl	%edi	 #
 221              		.cfi_def_cfa_offset 8
 222              		.cfi_offset 7, -8
 223 00d1 56       		pushl	%esi	 #
 224              		.cfi_def_cfa_offset 12
 225              		.cfi_offset 6, -12
 226 00d2 53       		pushl	%ebx	 #
 227              		.cfi_def_cfa_offset 16
 228              		.cfi_offset 3, -16
 229 00d3 83EC10   		subl	$16, %esp	 #,
 230              		.cfi_def_cfa_offset 32
 231              		.loc 1 140 0
 232 00d6 8B5C2420 		movl	32(%esp), %ebx	 # iqp, iqp
 233 00da 8B7C2424 		movl	36(%esp), %edi	 # b, b
 234              		.loc 1 142 0
 235 00de E8000000 		call	_chDbgCheckClassI	 #
 235      00
 236              	LVL7:
 237              		.loc 1 144 0
 238 00e3 8B5314   		movl	20(%ebx), %edx	 # iqp_7(D)->q_wrptr, D.2325
 239 00e6 3B5318   		cmpl	24(%ebx), %edx	 # iqp_7(D)->q_rdptr, D.2325
 240 00e9 744D     		je	L24	 #,
 241 00eb 8B4308   		movl	8(%ebx), %eax	 # iqp_7(D)->q_counter, D.2329
 242              	L17:
 243              		.loc 1 147 0
 244 00ee 83C001   		addl	$1, %eax	 #, tmp79
 245 00f1 894308   		movl	%eax, 8(%ebx)	 # tmp79, iqp_7(D)->q_counter
 246              		.loc 1 148 0
 247 00f4 8D4201   		leal	1(%edx), %eax	 #, tmp80
 248 00f7 894314   		movl	%eax, 20(%ebx)	 # tmp80, iqp_7(D)->q_wrptr
 249 00fa 89F8     		movl	%edi, %eax	 # b, tmp82
 250 00fc 8802     		movb	%al, (%edx)	 # tmp82, *_8
 251              		.loc 1 149 0
 252 00fe 8B4310   		movl	16(%ebx), %eax	 # iqp_7(D)->q_top, tmp83
 253 0101 394314   		cmpl	%eax, 20(%ebx)	 # tmp83, iqp_7(D)->q_wrptr
 254 0104 732A     		jae	L18	 #,
 255              	L19:
 256              		.loc 1 152 0
 257 0106 8B13     		movl	(%ebx), %edx	 # iqp_7(D)->q_waiting.p_next, D.2327
 258              		.loc 1 155 0
 259 0108 31F6     		xorl	%esi, %esi	 # D.2324
 260              		.loc 1 152 0
 261 010a 39DA     		cmpl	%ebx, %edx	 # iqp, D.2327
 262 010c 7416     		je	L22	 #,
 263              	LVL8:
 264              	LBB16:
 265              	LBB17:
 266              		.loc 2 62 0
 267 010e 8B02     		movl	(%edx), %eax	 # _23->p_next, D.2327
 268 0110 8903     		movl	%eax, (%ebx)	 # D.2327, MEM[(struct ThreadsQueue *)iqp_7(D)].p_next
 269 0112 895804   		movl	%ebx, 4(%eax)	 # iqp, _29->p_prev
GAS LISTING /cygdrive/c/DOCUME~1/andrey/LOCALS~1/Temp/cc8DOkPH.s 			page 6


 270              	LBE17:
 271              	LBE16:
 272              		.loc 1 153 0
 273 0115 891424   		movl	%edx, (%esp)	 # D.2327,
 274 0118 E8000000 		call	_chSchReadyI	 #
 274      00
 275              	LVL9:
 276 011d C7402400 		movl	$0, 36(%eax)	 #, _27->p_u.rdymsg
 276      000000
 277              	LVL10:
 278              	L22:
 279              		.loc 1 156 0
 280 0124 83C410   		addl	$16, %esp	 #,
 281              		.cfi_remember_state
 282              		.cfi_def_cfa_offset 16
 283 0127 89F0     		movl	%esi, %eax	 # D.2324,
 284 0129 5B       		popl	%ebx	 #
 285              		.cfi_restore 3
 286              		.cfi_def_cfa_offset 12
 287 012a 5E       		popl	%esi	 #
 288              		.cfi_restore 6
 289              		.cfi_def_cfa_offset 8
 290 012b 5F       		popl	%edi	 #
 291              		.cfi_restore 7
 292              		.cfi_def_cfa_offset 4
 293 012c C3       		ret
 294 012d 8D7600   		.p2align 4,,7
 295              	L18:
 296              		.cfi_restore_state
 297              		.loc 1 150 0
 298 0130 8B430C   		movl	12(%ebx), %eax	 # iqp_7(D)->q_buffer, iqp_7(D)->q_buffer
 299 0133 894314   		movl	%eax, 20(%ebx)	 # iqp_7(D)->q_buffer, iqp_7(D)->q_wrptr
 300 0136 EBCE     		jmp	L19	 #
 301              		.p2align 4,,7
 302              	L24:
 303              		.loc 1 144 0 discriminator 1
 304 0138 8B4308   		movl	8(%ebx), %eax	 # iqp_7(D)->q_counter,
 305              		.loc 1 145 0 discriminator 1
 306 013b BEFCFFFF 		movl	$-4, %esi	 #, D.2324
 306      FF
 307              		.loc 1 144 0 discriminator 1
 308 0140 85C0     		testl	%eax, %eax	 #
 309 0142 75E0     		jne	L22	 #,
 310 0144 31C0     		xorl	%eax, %eax	 # D.2329
 311 0146 EBA6     		jmp	L17	 #
 312              		.cfi_endproc
 313              	LFE10:
 314 0148 908DB426 		.p2align 4,,15
 314      00000000 
 315              		.globl	_chIQGetTimeout
 316              		.def	_chIQGetTimeout;	.scl	2;	.type	32;	.endef
 317              	_chIQGetTimeout:
 318              	LFB11:
 319              		.loc 1 178 0
 320              		.cfi_startproc
 321              	LVL11:
 322 0150 56       		pushl	%esi	 #
GAS LISTING /cygdrive/c/DOCUME~1/andrey/LOCALS~1/Temp/cc8DOkPH.s 			page 7


 323              		.cfi_def_cfa_offset 8
 324              		.cfi_offset 6, -8
 325 0151 53       		pushl	%ebx	 #
 326              		.cfi_def_cfa_offset 12
 327              		.cfi_offset 3, -12
 328 0152 83EC14   		subl	$20, %esp	 #,
 329              		.cfi_def_cfa_offset 32
 330              		.loc 1 178 0
 331 0155 8B5C2420 		movl	32(%esp), %ebx	 # iqp, iqp
 332 0159 8B742424 		movl	36(%esp), %esi	 # time, time
 333              		.loc 1 181 0
 334              	/APP
 335              	 # 181 "../firmware/chibios/os/kernel/src/chqueues.c" 1
 336 015d 90       		nop
 337              	 # 0 "" 2
 338              	/NO_APP
 339 015e E8000000 		call	_dbg_check_lock	 #
 339      00
 340              	LVL12:
 341              		.loc 1 182 0
 342 0163 8B431C   		movl	28(%ebx), %eax	 # iqp_7(D)->q_notify, D.2334
 343 0166 85C0     		testl	%eax, %eax	 # D.2334
 344 0168 7415     		je	L28	 #,
 345              		.loc 1 183 0
 346 016a 891C24   		movl	%ebx, (%esp)	 # iqp,
 347 016d FFD0     		call	*%eax	 # D.2334
 348              	LVL13:
 349 016f 90       		.p2align 4,,3
 350 0170 EB0D     		jmp	L28	 #
 351              		.p2align 4,,7
 352              	L30:
 353              	LBB18:
 354              		.loc 1 187 0
 355 0172 89F2     		movl	%esi, %edx	 # time,
 356 0174 89D8     		movl	%ebx, %eax	 # iqp,
 357 0176 E885FEFF 		call	_qwait	 #
 357      FF
 358              	LVL14:
 359 017b 85C0     		testl	%eax, %eax	 # msg
 360              		.p2align 4,,2
 361 017d 7839     		js	L36	 #,
 362              	LVL15:
 363              	L28:
 364              	LBE18:
 365              		.loc 1 185 0 discriminator 1
 366 017f 8B4308   		movl	8(%ebx), %eax	 # iqp_7(D)->q_counter, D.2335
 367 0182 85C0     		testl	%eax, %eax	 # D.2335
 368 0184 74EC     		je	L30	 #,
 369              		.loc 1 193 0
 370 0186 83E801   		subl	$1, %eax	 #, tmp72
 371 0189 894308   		movl	%eax, 8(%ebx)	 # tmp72, iqp_7(D)->q_counter
 372              		.loc 1 194 0
 373 018c 8B4318   		movl	24(%ebx), %eax	 # iqp_7(D)->q_rdptr, D.2336
 374 018f 8D5001   		leal	1(%eax), %edx	 #, D.2336
 375              		.loc 1 195 0
 376 0192 3B5310   		cmpl	16(%ebx), %edx	 # iqp_7(D)->q_top, D.2336
 377              		.loc 1 194 0
GAS LISTING /cygdrive/c/DOCUME~1/andrey/LOCALS~1/Temp/cc8DOkPH.s 			page 8


 378 0195 895318   		movl	%edx, 24(%ebx)	 # D.2336, iqp_7(D)->q_rdptr
 379 0198 0FB630   		movzbl	(%eax), %esi	 # *_18, b
 380              	LVL16:
 381              		.loc 1 195 0
 382 019b 7313     		jae	L37	 #,
 383              	L31:
 384              		.loc 1 198 0
 385 019d E8000000 		call	_dbg_check_unlock	 #
 385      00
 386              	LVL17:
 387              	/APP
 388              	 # 198 "../firmware/chibios/os/kernel/src/chqueues.c" 1
 389 01a2 90       		nop
 390              	 # 0 "" 2
 391              		.loc 1 199 0
 392              	/NO_APP
 393 01a3 89F0     		movl	%esi, %eax	 # b, b
 394              		.loc 1 200 0
 395 01a5 83C414   		addl	$20, %esp	 #,
 396              		.cfi_remember_state
 397              		.cfi_def_cfa_offset 12
 398              		.loc 1 199 0
 399 01a8 0FB6C0   		movzbl	%al, %eax	 # b, D.2333
 400              		.loc 1 200 0
 401 01ab 5B       		popl	%ebx	 #
 402              		.cfi_restore 3
 403              		.cfi_def_cfa_offset 8
 404 01ac 5E       		popl	%esi	 #
 405              		.cfi_restore 6
 406              		.cfi_def_cfa_offset 4
 407              	LVL18:
 408 01ad C3       		ret
 409              	LVL19:
 410 01ae 6690     		.p2align 4,,7
 411              	L37:
 412              		.cfi_restore_state
 413              		.loc 1 196 0
 414 01b0 8B430C   		movl	12(%ebx), %eax	 # iqp_7(D)->q_buffer, iqp_7(D)->q_buffer
 415 01b3 894318   		movl	%eax, 24(%ebx)	 # iqp_7(D)->q_buffer, iqp_7(D)->q_rdptr
 416 01b6 EBE5     		jmp	L31	 #
 417              	LVL20:
 418              		.p2align 4,,7
 419              	L36:
 420 01b8 8944240C 		movl	%eax, 12(%esp)	 # msg, %sfp
 421              	LBB19:
 422              		.loc 1 188 0
 423 01bc E8000000 		call	_dbg_check_unlock	 #
 423      00
 424              	LVL21:
 425              	/APP
 426              	 # 188 "../firmware/chibios/os/kernel/src/chqueues.c" 1
 427 01c1 90       		nop
 428              	 # 0 "" 2
 429              		.loc 1 187 0
 430              	/NO_APP
 431 01c2 8B44240C 		movl	12(%esp), %eax	 # %sfp, msg
 432              	LBE19:
GAS LISTING /cygdrive/c/DOCUME~1/andrey/LOCALS~1/Temp/cc8DOkPH.s 			page 9


 433              		.loc 1 200 0
 434 01c6 83C414   		addl	$20, %esp	 #,
 435              		.cfi_def_cfa_offset 12
 436 01c9 5B       		popl	%ebx	 #
 437              		.cfi_restore 3
 438              		.cfi_def_cfa_offset 8
 439 01ca 5E       		popl	%esi	 #
 440              		.cfi_restore 6
 441              		.cfi_def_cfa_offset 4
 442 01cb C3       		ret
 443              		.cfi_endproc
 444              	LFE11:
 445              		.section .rdata,"dr"
 446              		.align 4
 447              	LC0:
 448 0000 2E2E2F66 		.ascii "../firmware/chibios/os/kernel/src/chqueues.c\0"
 448      69726D77 
 448      6172652F 
 448      63686962 
 448      696F732F 
 449              	LC1:
 450 002d 22636849 		.ascii "\"chIQReadTimeout\"()\0"
 450      51526561 
 450      6454696D 
 450      656F7574 
 450      22282900 
 451              		.text
 452 01cc 8D742600 		.p2align 4,,15
 453              		.globl	_chIQReadTimeout
 454              		.def	_chIQReadTimeout;	.scl	2;	.type	32;	.endef
 455              	_chIQReadTimeout:
 456              	LFB12:
 457              		.loc 1 227 0
 458              		.cfi_startproc
 459              	LVL22:
 460 01d0 55       		pushl	%ebp	 #
 461              		.cfi_def_cfa_offset 8
 462              		.cfi_offset 5, -8
 463 01d1 57       		pushl	%edi	 #
 464              		.cfi_def_cfa_offset 12
 465              		.cfi_offset 7, -12
 466 01d2 56       		pushl	%esi	 #
 467              		.cfi_def_cfa_offset 16
 468              		.cfi_offset 6, -16
 469 01d3 53       		pushl	%ebx	 #
 470              		.cfi_def_cfa_offset 20
 471              		.cfi_offset 3, -20
 472 01d4 83EC1C   		subl	$28, %esp	 #,
 473              		.cfi_def_cfa_offset 48
 474              		.loc 1 231 0
 475 01d7 8B542438 		movl	56(%esp), %edx	 # n,
 476              		.loc 1 227 0
 477 01db 8B5C2430 		movl	48(%esp), %ebx	 # iqp, iqp
 478 01df 8B74243C 		movl	60(%esp), %esi	 # time, time
 479              		.loc 1 231 0
 480 01e3 85D2     		testl	%edx, %edx	 #
 481              		.loc 1 228 0
GAS LISTING /cygdrive/c/DOCUME~1/andrey/LOCALS~1/Temp/cc8DOkPH.s 			page 10


 482 01e5 8B6B1C   		movl	28(%ebx), %ebp	 # iqp_11(D)->q_notify, nfy
 483              	LVL23:
 484              		.loc 1 231 0
 485 01e8 7478     		je	L53	 #,
 486              	L39:
 487              		.loc 1 233 0
 488              	/APP
 489              	 # 233 "../firmware/chibios/os/kernel/src/chqueues.c" 1
 490 01ea 90       		nop
 491              	 # 0 "" 2
 492              	/NO_APP
 493 01eb E8000000 		call	_dbg_check_lock	 #
 493      00
 494              	LVL24:
 495              		.loc 1 229 0
 496 01f0 31FF     		xorl	%edi, %edi	 # r
 497              	LVL25:
 498              	L46:
 499              		.loc 1 235 0
 500 01f2 85ED     		testl	%ebp, %ebp	 # nfy
 501 01f4 7417     		je	L42	 #,
 502              		.loc 1 236 0
 503 01f6 891C24   		movl	%ebx, (%esp)	 # iqp,
 504 01f9 FFD5     		call	*%ebp	 # nfy
 505              	LVL26:
 506              		.p2align 4,,4
 507 01fb EB10     		jmp	L42	 #
 508 01fd 8D7600   		.p2align 4,,7
 509              	L44:
 510              		.loc 1 239 0
 511 0200 89F2     		movl	%esi, %edx	 # time,
 512 0202 89D8     		movl	%ebx, %eax	 # iqp,
 513 0204 E8F7FDFF 		call	_qwait	 #
 513      FF
 514              	LVL27:
 515 0209 85C0     		testl	%eax, %eax	 # D.2356
 516              		.p2align 4,,2
 517 020b 7545     		jne	L54	 #,
 518              	L42:
 519              		.loc 1 238 0 discriminator 1
 520 020d 8B4308   		movl	8(%ebx), %eax	 # iqp_11(D)->q_counter, D.2355
 521 0210 85C0     		testl	%eax, %eax	 # D.2355
 522 0212 74EC     		je	L44	 #,
 523              		.loc 1 245 0
 524 0214 83E801   		subl	$1, %eax	 #, tmp75
 525              		.loc 1 246 0
 526 0217 8B4C2434 		movl	52(%esp), %ecx	 # bp, tmp89
 527              		.loc 1 245 0
 528 021b 894308   		movl	%eax, 8(%ebx)	 # tmp75, iqp_11(D)->q_counter
 529              	LVL28:
 530              		.loc 1 246 0
 531 021e 8B4318   		movl	24(%ebx), %eax	 # iqp_11(D)->q_rdptr, D.2357
 532 0221 8D5001   		leal	1(%eax), %edx	 #, tmp76
 533 0224 895318   		movl	%edx, 24(%ebx)	 # tmp76, iqp_11(D)->q_rdptr
 534 0227 0FB600   		movzbl	(%eax), %eax	 # *_27, D.2358
 535 022a 880439   		movb	%al, (%ecx,%edi)	 # D.2358, MEM[base: bp_16(D), index: r_3, offset: 0B]
 536              		.loc 1 247 0
GAS LISTING /cygdrive/c/DOCUME~1/andrey/LOCALS~1/Temp/cc8DOkPH.s 			page 11


 537 022d 8B4310   		movl	16(%ebx), %eax	 # iqp_11(D)->q_top, tmp90
 538 0230 394318   		cmpl	%eax, 24(%ebx)	 # tmp90, iqp_11(D)->q_rdptr
 539 0233 7206     		jb	L45	 #,
 540              		.loc 1 248 0
 541 0235 8B430C   		movl	12(%ebx), %eax	 # iqp_11(D)->q_buffer, iqp_11(D)->q_buffer
 542 0238 894318   		movl	%eax, 24(%ebx)	 # iqp_11(D)->q_buffer, iqp_11(D)->q_rdptr
 543              	L45:
 544              		.loc 1 250 0
 545 023b E8000000 		call	_dbg_check_unlock	 #
 545      00
 546              	LVL29:
 547              	/APP
 548              	 # 250 "../firmware/chibios/os/kernel/src/chqueues.c" 1
 549 0240 90       		nop
 550              	 # 0 "" 2
 551              		.loc 1 251 0
 552              	/NO_APP
 553 0241 83C701   		addl	$1, %edi	 #, r
 554              	LVL30:
 555              		.loc 1 252 0
 556 0244 397C2438 		cmpl	%edi, 56(%esp)	 # r, n
 557 0248 740E     		je	L43	 #,
 558              		.loc 1 255 0
 559              	/APP
 560              	 # 255 "../firmware/chibios/os/kernel/src/chqueues.c" 1
 561 024a 90       		nop
 562              	 # 0 "" 2
 563              	/NO_APP
 564 024b E8000000 		call	_dbg_check_lock	 #
 564      00
 565              	LVL31:
 566              		.loc 1 256 0
 567 0250 EBA0     		jmp	L46	 #
 568              		.p2align 4,,7
 569              	L54:
 570              		.loc 1 240 0
 571              		.p2align 4,,8
 572 0252 E8000000 		call	_dbg_check_unlock	 #
 572      00
 573              	LVL32:
 574              	/APP
 575              	 # 240 "../firmware/chibios/os/kernel/src/chqueues.c" 1
 576 0257 90       		nop
 577              	 # 0 "" 2
 578              	LVL33:
 579              	/NO_APP
 580              	L43:
 581              		.loc 1 257 0
 582 0258 83C41C   		addl	$28, %esp	 #,
 583              		.cfi_remember_state
 584              		.cfi_def_cfa_offset 20
 585 025b 89F8     		movl	%edi, %eax	 # r,
 586 025d 5B       		popl	%ebx	 #
 587              		.cfi_restore 3
 588              		.cfi_def_cfa_offset 16
 589 025e 5E       		popl	%esi	 #
 590              		.cfi_restore 6
GAS LISTING /cygdrive/c/DOCUME~1/andrey/LOCALS~1/Temp/cc8DOkPH.s 			page 12


 591              		.cfi_def_cfa_offset 12
 592 025f 5F       		popl	%edi	 #
 593              		.cfi_restore 7
 594              		.cfi_def_cfa_offset 8
 595              	LVL34:
 596 0260 5D       		popl	%ebp	 #
 597              		.cfi_restore 5
 598              		.cfi_def_cfa_offset 4
 599              	LVL35:
 600 0261 C3       		ret
 601              	LVL36:
 602              		.p2align 4,,7
 603              	L53:
 604              		.cfi_restore_state
 605              		.loc 1 231 0 discriminator 1
 606 0262 C7442408 		movl	$231, 8(%esp)	 #,
 606      E7000000 
 607 026a C7442404 		movl	$LC0, 4(%esp)	 #,
 607      00000000 
 608 0272 C704242D 		movl	$LC1, (%esp)	 #,
 608      000000
 609 0279 E8000000 		call	_chDbgPanic	 #
 609      00
 610              	LVL37:
 611 027e E967FFFF 		jmp	L39	 #
 611      FF
 612              		.cfi_endproc
 613              	LFE12:
 614 0283 8DB60000 		.p2align 4,,15
 614      00008DBC 
 614      27000000 
 614      00
 615              		.globl	_chOQInit
 616              		.def	_chOQInit;	.scl	2;	.type	32;	.endef
 617              	_chOQInit:
 618              	LFB13:
 619              		.loc 1 276 0
 620              		.cfi_startproc
 621              	LVL38:
 622              		.loc 1 276 0
 623 0290 8B442404 		movl	4(%esp), %eax	 # oqp, oqp
 624 0294 8B542408 		movl	8(%esp), %edx	 # bp, bp
 625 0298 8B4C240C 		movl	12(%esp), %ecx	 # size, size
 626              		.loc 1 278 0
 627 029c 894004   		movl	%eax, 4(%eax)	 # oqp, oqp_1(D)->q_waiting.p_prev
 628              		.loc 1 280 0
 629 029f 895014   		movl	%edx, 20(%eax)	 # bp, oqp_1(D)->q_wrptr
 630 02a2 895018   		movl	%edx, 24(%eax)	 # bp, oqp_1(D)->q_rdptr
 631 02a5 89500C   		movl	%edx, 12(%eax)	 # bp, oqp_1(D)->q_buffer
 632              		.loc 1 281 0
 633 02a8 01CA     		addl	%ecx, %edx	 # size, tmp66
 634 02aa 895010   		movl	%edx, 16(%eax)	 # tmp66, oqp_1(D)->q_top
 635              		.loc 1 282 0
 636 02ad 8B542410 		movl	16(%esp), %edx	 # onfy, onfy
 637              		.loc 1 278 0
 638 02b1 8900     		movl	%eax, (%eax)	 # oqp, oqp_1(D)->q_waiting.p_next
 639              		.loc 1 279 0
GAS LISTING /cygdrive/c/DOCUME~1/andrey/LOCALS~1/Temp/cc8DOkPH.s 			page 13


 640 02b3 894808   		movl	%ecx, 8(%eax)	 # size, oqp_1(D)->q_counter
 641              		.loc 1 282 0
 642 02b6 89501C   		movl	%edx, 28(%eax)	 # onfy, oqp_1(D)->q_notify
 643              		.loc 1 283 0
 644 02b9 8B542414 		movl	20(%esp), %edx	 # link, link
 645 02bd 895020   		movl	%edx, 32(%eax)	 # link, oqp_1(D)->q_link
 646 02c0 C3       		ret
 647              		.cfi_endproc
 648              	LFE13:
 649 02c1 EB0D9090 		.p2align 4,,15
 649      90909090 
 649      90909090 
 649      909090
 650              		.globl	_chOQResetI
 651              		.def	_chOQResetI;	.scl	2;	.type	32;	.endef
 652              	_chOQResetI:
 653              	LFB14:
 654              		.loc 1 297 0
 655              		.cfi_startproc
 656              	LVL39:
 657 02d0 53       		pushl	%ebx	 #
 658              		.cfi_def_cfa_offset 8
 659              		.cfi_offset 3, -8
 660 02d1 83EC18   		subl	$24, %esp	 #,
 661              		.cfi_def_cfa_offset 32
 662              		.loc 1 297 0
 663 02d4 8B5C2420 		movl	32(%esp), %ebx	 # oqp, oqp
 664              		.loc 1 299 0
 665 02d8 E8000000 		call	_chDbgCheckClassI	 #
 665      00
 666              	LVL40:
 667              		.loc 1 301 0
 668 02dd 8B530C   		movl	12(%ebx), %edx	 # oqp_4(D)->q_buffer, D.2367
 669              		.loc 1 302 0
 670 02e0 8B4310   		movl	16(%ebx), %eax	 # oqp_4(D)->q_top, D.2368
 671              		.loc 1 301 0
 672 02e3 895314   		movl	%edx, 20(%ebx)	 # D.2367, oqp_4(D)->q_wrptr
 673              		.loc 1 302 0
 674 02e6 29D0     		subl	%edx, %eax	 # D.2367, D.2368
 675 02e8 894308   		movl	%eax, 8(%ebx)	 # D.2368, oqp_4(D)->q_counter
 676              		.loc 1 303 0
 677 02eb 8B03     		movl	(%ebx), %eax	 # oqp_4(D)->q_waiting.p_next, D.2370
 678              		.loc 1 301 0
 679 02ed 895318   		movl	%edx, 24(%ebx)	 # D.2367, oqp_4(D)->q_rdptr
 680              		.loc 1 303 0
 681 02f0 39D8     		cmpl	%ebx, %eax	 # oqp, D.2370
 682 02f2 741C     		je	L56	 #,
 683              		.p2align 4,,7
 684              	L60:
 685              	LVL41:
 686              	LBB20:
 687              	LBB21:
 688              		.loc 2 62 0
 689 02f4 8B10     		movl	(%eax), %edx	 # _28->p_next, D.2370
 690 02f6 8913     		movl	%edx, (%ebx)	 # D.2370, MEM[(struct ThreadsQueue *)oqp_4(D)].p_next
 691 02f8 895A04   		movl	%ebx, 4(%edx)	 # oqp, _20->p_prev
 692              	LBE21:
GAS LISTING /cygdrive/c/DOCUME~1/andrey/LOCALS~1/Temp/cc8DOkPH.s 			page 14


 693              	LBE20:
 694              		.loc 1 304 0
 695 02fb 890424   		movl	%eax, (%esp)	 # D.2370,
 696 02fe E8000000 		call	_chSchReadyI	 #
 696      00
 697              	LVL42:
 698 0303 C74024FE 		movl	$-2, 36(%eax)	 #, _18->p_u.rdymsg
 698      FFFFFF
 699              		.loc 1 303 0
 700 030a 8B03     		movl	(%ebx), %eax	 # oqp_4(D)->q_waiting.p_next, D.2370
 701 030c 39D8     		cmpl	%ebx, %eax	 # oqp, D.2370
 702 030e 75E4     		jne	L60	 #,
 703              	LVL43:
 704              	L56:
 705              		.loc 1 305 0
 706 0310 83C418   		addl	$24, %esp	 #,
 707              		.cfi_def_cfa_offset 8
 708 0313 5B       		popl	%ebx	 #
 709              		.cfi_restore 3
 710              		.cfi_def_cfa_offset 4
 711 0314 C3       		ret
 712              		.cfi_endproc
 713              	LFE14:
 714 0315 8D742600 		.p2align 4,,15
 714      8DBC2700 
 714      000000
 715              		.globl	_chOQPutTimeout
 716              		.def	_chOQPutTimeout;	.scl	2;	.type	32;	.endef
 717              	_chOQPutTimeout:
 718              	LFB15:
 719              		.loc 1 329 0
 720              		.cfi_startproc
 721              	LVL44:
 722 0320 57       		pushl	%edi	 #
 723              		.cfi_def_cfa_offset 8
 724              		.cfi_offset 7, -8
 725 0321 56       		pushl	%esi	 #
 726              		.cfi_def_cfa_offset 12
 727              		.cfi_offset 6, -12
 728 0322 53       		pushl	%ebx	 #
 729              		.cfi_def_cfa_offset 16
 730              		.cfi_offset 3, -16
 731 0323 83EC10   		subl	$16, %esp	 #,
 732              		.cfi_def_cfa_offset 32
 733              		.loc 1 329 0
 734 0326 8B5C2420 		movl	32(%esp), %ebx	 # oqp, oqp
 735 032a 8B7C2424 		movl	36(%esp), %edi	 # b, b
 736 032e 8B742428 		movl	40(%esp), %esi	 # time, time
 737              		.loc 1 331 0
 738              	/APP
 739              	 # 331 "../firmware/chibios/os/kernel/src/chqueues.c" 1
 740 0332 90       		nop
 741              	 # 0 "" 2
 742              	/NO_APP
 743 0333 E8000000 		call	_dbg_check_lock	 #
 743      00
 744              	LVL45:
GAS LISTING /cygdrive/c/DOCUME~1/andrey/LOCALS~1/Temp/cc8DOkPH.s 			page 15


 745              		.loc 1 332 0
 746 0338 EB13     		jmp	L63	 #
 747 033a 8DB60000 		.p2align 4,,7
 747      0000
 748              	L66:
 749              	LBB22:
 750              		.loc 1 335 0
 751 0340 89F2     		movl	%esi, %edx	 # time,
 752 0342 89D8     		movl	%ebx, %eax	 # oqp,
 753 0344 E8B7FCFF 		call	_qwait	 #
 753      FF
 754              	LVL46:
 755 0349 85C0     		testl	%eax, %eax	 # msg
 756              		.p2align 4,,2
 757 034b 7843     		js	L73	 #,
 758              	LVL47:
 759              	L63:
 760              	LBE22:
 761              		.loc 1 332 0 discriminator 1
 762 034d 8B4308   		movl	8(%ebx), %eax	 # oqp_8(D)->q_counter, D.2375
 763 0350 85C0     		testl	%eax, %eax	 # D.2375
 764 0352 74EC     		je	L66	 #,
 765              		.loc 1 341 0
 766 0354 83E801   		subl	$1, %eax	 #, tmp74
 767              		.loc 1 342 0
 768 0357 89F9     		movl	%edi, %ecx	 # b, tmp79
 769              		.loc 1 341 0
 770 0359 894308   		movl	%eax, 8(%ebx)	 # tmp74, oqp_8(D)->q_counter
 771              		.loc 1 342 0
 772 035c 8B4314   		movl	20(%ebx), %eax	 # oqp_8(D)->q_wrptr, D.2376
 773 035f 8D5001   		leal	1(%eax), %edx	 #, tmp75
 774 0362 895314   		movl	%edx, 20(%ebx)	 # tmp75, oqp_8(D)->q_wrptr
 775 0365 8808     		movb	%cl, (%eax)	 # tmp79, *_16
 776              		.loc 1 343 0
 777 0367 8B4310   		movl	16(%ebx), %eax	 # oqp_8(D)->q_top, tmp80
 778 036a 394314   		cmpl	%eax, 20(%ebx)	 # tmp80, oqp_8(D)->q_wrptr
 779 036d 7206     		jb	L67	 #,
 780              		.loc 1 344 0
 781 036f 8B430C   		movl	12(%ebx), %eax	 # oqp_8(D)->q_buffer, oqp_8(D)->q_buffer
 782 0372 894314   		movl	%eax, 20(%ebx)	 # oqp_8(D)->q_buffer, oqp_8(D)->q_wrptr
 783              	L67:
 784              		.loc 1 346 0
 785 0375 8B431C   		movl	28(%ebx), %eax	 # oqp_8(D)->q_notify, D.2377
 786 0378 85C0     		testl	%eax, %eax	 # D.2377
 787 037a 7405     		je	L68	 #,
 788              		.loc 1 347 0
 789 037c 891C24   		movl	%ebx, (%esp)	 # oqp,
 790 037f FFD0     		call	*%eax	 # D.2377
 791              	LVL48:
 792              	L68:
 793              		.loc 1 349 0
 794 0381 E8000000 		call	_dbg_check_unlock	 #
 794      00
 795              	LVL49:
 796              	/APP
 797              	 # 349 "../firmware/chibios/os/kernel/src/chqueues.c" 1
 798 0386 90       		nop
GAS LISTING /cygdrive/c/DOCUME~1/andrey/LOCALS~1/Temp/cc8DOkPH.s 			page 16


 799              	 # 0 "" 2
 800              		.loc 1 351 0
 801              	/NO_APP
 802 0387 83C410   		addl	$16, %esp	 #,
 803              		.cfi_remember_state
 804              		.cfi_def_cfa_offset 16
 805              		.loc 1 350 0
 806 038a 31C0     		xorl	%eax, %eax	 # D.2374
 807              		.loc 1 351 0
 808 038c 5B       		popl	%ebx	 #
 809              		.cfi_restore 3
 810              		.cfi_def_cfa_offset 12
 811 038d 5E       		popl	%esi	 #
 812              		.cfi_restore 6
 813              		.cfi_def_cfa_offset 8
 814 038e 5F       		popl	%edi	 #
 815              		.cfi_restore 7
 816              		.cfi_def_cfa_offset 4
 817 038f C3       		ret
 818              	LVL50:
 819              		.p2align 4,,7
 820              	L73:
 821              		.cfi_restore_state
 822 0390 8944240C 		movl	%eax, 12(%esp)	 # msg, %sfp
 823              	LBB23:
 824              		.loc 1 336 0
 825 0394 E8000000 		call	_dbg_check_unlock	 #
 825      00
 826              	LVL51:
 827              	/APP
 828              	 # 336 "../firmware/chibios/os/kernel/src/chqueues.c" 1
 829 0399 90       		nop
 830              	 # 0 "" 2
 831              		.loc 1 335 0
 832              	/NO_APP
 833 039a 8B44240C 		movl	12(%esp), %eax	 # %sfp, msg
 834              	LBE23:
 835              		.loc 1 351 0
 836 039e 83C410   		addl	$16, %esp	 #,
 837              		.cfi_def_cfa_offset 16
 838 03a1 5B       		popl	%ebx	 #
 839              		.cfi_restore 3
 840              		.cfi_def_cfa_offset 12
 841 03a2 5E       		popl	%esi	 #
 842              		.cfi_restore 6
 843              		.cfi_def_cfa_offset 8
 844 03a3 5F       		popl	%edi	 #
 845              		.cfi_restore 7
 846              		.cfi_def_cfa_offset 4
 847 03a4 C3       		ret
 848              		.cfi_endproc
 849              	LFE15:
 850 03a5 8D742600 		.p2align 4,,15
 850      8DBC2700 
 850      000000
 851              		.globl	_chOQGetI
 852              		.def	_chOQGetI;	.scl	2;	.type	32;	.endef
GAS LISTING /cygdrive/c/DOCUME~1/andrey/LOCALS~1/Temp/cc8DOkPH.s 			page 17


 853              	_chOQGetI:
 854              	LFB16:
 855              		.loc 1 363 0
 856              		.cfi_startproc
 857              	LVL52:
 858 03b0 56       		pushl	%esi	 #
 859              		.cfi_def_cfa_offset 8
 860              		.cfi_offset 6, -8
 861 03b1 53       		pushl	%ebx	 #
 862              		.cfi_def_cfa_offset 12
 863              		.cfi_offset 3, -12
 864 03b2 83EC14   		subl	$20, %esp	 #,
 865              		.cfi_def_cfa_offset 32
 866              		.loc 1 363 0
 867 03b5 8B5C2420 		movl	32(%esp), %ebx	 # oqp, oqp
 868              		.loc 1 366 0
 869 03b9 E8000000 		call	_chDbgCheckClassI	 #
 869      00
 870              	LVL53:
 871              		.loc 1 368 0
 872 03be 8B5318   		movl	24(%ebx), %edx	 # oqp_8(D)->q_rdptr, D.2382
 873 03c1 395314   		cmpl	%edx, 20(%ebx)	 # D.2382, oqp_8(D)->q_wrptr
 874 03c4 744A     		je	L84	 #,
 875 03c6 8B4308   		movl	8(%ebx), %eax	 # oqp_8(D)->q_counter, D.2386
 876              	L77:
 877              		.loc 1 371 0
 878 03c9 83C001   		addl	$1, %eax	 #, tmp77
 879              		.loc 1 372 0
 880 03cc 8D4A01   		leal	1(%edx), %ecx	 #, D.2382
 881              		.loc 1 373 0
 882 03cf 3B4B10   		cmpl	16(%ebx), %ecx	 # oqp_8(D)->q_top, D.2382
 883              		.loc 1 371 0
 884 03d2 894308   		movl	%eax, 8(%ebx)	 # tmp77, oqp_8(D)->q_counter
 885              		.loc 1 372 0
 886 03d5 894B18   		movl	%ecx, 24(%ebx)	 # D.2382, oqp_8(D)->q_rdptr
 887 03d8 0FB632   		movzbl	(%edx), %esi	 # *_10, b
 888              	LVL54:
 889              		.loc 1 373 0
 890 03db 7327     		jae	L79	 #,
 891              	L80:
 892              		.loc 1 376 0
 893 03dd 8B13     		movl	(%ebx), %edx	 # oqp_8(D)->q_waiting.p_next, D.2384
 894 03df 39DA     		cmpl	%ebx, %edx	 # oqp, D.2384
 895 03e1 7416     		je	L78	 #,
 896              	LVL55:
 897              	LBB24:
 898              	LBB25:
 899              		.loc 2 62 0
 900 03e3 8B0A     		movl	(%edx), %ecx	 # _22->p_next, D.2384
 901 03e5 890B     		movl	%ecx, (%ebx)	 # D.2384, MEM[(struct ThreadsQueue *)oqp_8(D)].p_next
 902 03e7 895904   		movl	%ebx, 4(%ecx)	 # oqp, _29->p_prev
 903              	LBE25:
 904              	LBE24:
 905              		.loc 1 377 0
 906 03ea 891424   		movl	%edx, (%esp)	 # D.2384,
 907 03ed E8000000 		call	_chSchReadyI	 #
 907      00
GAS LISTING /cygdrive/c/DOCUME~1/andrey/LOCALS~1/Temp/cc8DOkPH.s 			page 18


 908              	LVL56:
 909 03f2 C7402400 		movl	$0, 36(%eax)	 #, _26->p_u.rdymsg
 909      000000
 910              	LVL57:
 911              	L78:
 912              		.loc 1 379 0
 913 03f9 89F0     		movl	%esi, %eax	 # b, b
 914 03fb 0FB6C0   		movzbl	%al, %eax	 # b, D.2381
 915              	LVL58:
 916              	L82:
 917              		.loc 1 380 0
 918 03fe 83C414   		addl	$20, %esp	 #,
 919              		.cfi_remember_state
 920              		.cfi_def_cfa_offset 12
 921 0401 5B       		popl	%ebx	 #
 922              		.cfi_restore 3
 923              		.cfi_def_cfa_offset 8
 924 0402 5E       		popl	%esi	 #
 925              		.cfi_restore 6
 926              		.cfi_def_cfa_offset 4
 927 0403 C3       		ret
 928              	LVL59:
 929              		.p2align 4,,7
 930              	L79:
 931              		.cfi_restore_state
 932              		.loc 1 374 0
 933 0404 8B430C   		movl	12(%ebx), %eax	 # oqp_8(D)->q_buffer, oqp_8(D)->q_buffer
 934 0407 894318   		movl	%eax, 24(%ebx)	 # oqp_8(D)->q_buffer, oqp_8(D)->q_rdptr
 935 040a EBD1     		jmp	L80	 #
 936              	LVL60:
 937 040c 8D742600 		.p2align 4,,7
 938              	L84:
 939              		.loc 1 368 0 discriminator 1
 940 0410 8B4B08   		movl	8(%ebx), %ecx	 # oqp_8(D)->q_counter,
 941              		.loc 1 369 0 discriminator 1
 942 0413 B8FDFFFF 		movl	$-3, %eax	 #, D.2381
 942      FF
 943              		.loc 1 368 0 discriminator 1
 944 0418 85C9     		testl	%ecx, %ecx	 #
 945 041a 75E2     		jne	L82	 #,
 946 041c 31C0     		xorl	%eax, %eax	 # D.2386
 947 041e EBA9     		jmp	L77	 #
 948              		.cfi_endproc
 949              	LFE16:
 950              		.section .rdata,"dr"
 951              	LC2:
 952 0041 2263684F 		.ascii "\"chOQWriteTimeout\"()\0"
 952      51577269 
 952      74655469 
 952      6D656F75 
 952      74222829 
 953 0056 0000     		.text
 954              		.p2align 4,,15
 955              		.globl	_chOQWriteTimeout
 956              		.def	_chOQWriteTimeout;	.scl	2;	.type	32;	.endef
 957              	_chOQWriteTimeout:
 958              	LFB17:
GAS LISTING /cygdrive/c/DOCUME~1/andrey/LOCALS~1/Temp/cc8DOkPH.s 			page 19


 959              		.loc 1 407 0
 960              		.cfi_startproc
 961              	LVL61:
 962 0420 55       		pushl	%ebp	 #
 963              		.cfi_def_cfa_offset 8
 964              		.cfi_offset 5, -8
 965 0421 57       		pushl	%edi	 #
 966              		.cfi_def_cfa_offset 12
 967              		.cfi_offset 7, -12
 968 0422 56       		pushl	%esi	 #
 969              		.cfi_def_cfa_offset 16
 970              		.cfi_offset 6, -16
 971 0423 53       		pushl	%ebx	 #
 972              		.cfi_def_cfa_offset 20
 973              		.cfi_offset 3, -20
 974 0424 83EC1C   		subl	$28, %esp	 #,
 975              		.cfi_def_cfa_offset 48
 976              		.loc 1 411 0
 977 0427 8B742438 		movl	56(%esp), %esi	 # n,
 978              		.loc 1 407 0
 979 042b 8B5C2430 		movl	48(%esp), %ebx	 # oqp, oqp
 980 042f 8B4C2434 		movl	52(%esp), %ecx	 # bp, bp
 981              		.loc 1 411 0
 982 0433 85F6     		testl	%esi, %esi	 #
 983              		.loc 1 408 0
 984 0435 8B6B1C   		movl	28(%ebx), %ebp	 # oqp_11(D)->q_notify, nfy
 985              	LVL62:
 986              		.loc 1 411 0
 987 0438 0F849200 		je	L104	 #,
 987      0000
 988              	L86:
 989 043e 894C240C 		movl	%ecx, 12(%esp)	 # bp, %sfp
 990              		.loc 1 413 0
 991              	/APP
 992              	 # 413 "../firmware/chibios/os/kernel/src/chqueues.c" 1
 993 0442 90       		nop
 994              	 # 0 "" 2
 995              	/NO_APP
 996 0443 E8000000 		call	_dbg_check_lock	 #
 996      00
 997              	LVL63:
 998 0448 8B4C240C 		movl	12(%esp), %ecx	 # %sfp, bp
 999              		.loc 1 409 0
 1000 044c 31F6     		xorl	%esi, %esi	 # w
 1001              	LVL64:
 1002 044e 6690     		.p2align 4,,7
 1003              	L87:
 1004              		.loc 1 415 0 discriminator 1
 1005 0450 8B4308   		movl	8(%ebx), %eax	 # oqp_11(D)->q_counter, D.2389
 1006 0453 85C0     		testl	%eax, %eax	 # D.2389
 1007 0455 744D     		je	L90	 #,
 1008              	L105:
 1009              		.loc 1 421 0
 1010 0457 83E801   		subl	$1, %eax	 #, tmp76
 1011 045a 894308   		movl	%eax, 8(%ebx)	 # tmp76, oqp_11(D)->q_counter
 1012              		.loc 1 422 0
 1013 045d 8B4314   		movl	20(%ebx), %eax	 # oqp_11(D)->q_wrptr, D.2391
GAS LISTING /cygdrive/c/DOCUME~1/andrey/LOCALS~1/Temp/cc8DOkPH.s 			page 20


 1014 0460 8D7901   		leal	1(%ecx), %edi	 #, bp
 1015              	LVL65:
 1016 0463 8D5001   		leal	1(%eax), %edx	 #, tmp77
 1017 0466 895314   		movl	%edx, 20(%ebx)	 # tmp77, oqp_11(D)->q_wrptr
 1018 0469 0FB611   		movzbl	(%ecx), %edx	 # *bp_1, D.2392
 1019 046c 8810     		movb	%dl, (%eax)	 # D.2392, *_26
 1020              		.loc 1 423 0
 1021 046e 8B4310   		movl	16(%ebx), %eax	 # oqp_11(D)->q_top, tmp85
 1022 0471 394314   		cmpl	%eax, 20(%ebx)	 # tmp85, oqp_11(D)->q_wrptr
 1023 0474 7206     		jb	L91	 #,
 1024              		.loc 1 424 0
 1025 0476 8B430C   		movl	12(%ebx), %eax	 # oqp_11(D)->q_buffer, oqp_11(D)->q_buffer
 1026 0479 894314   		movl	%eax, 20(%ebx)	 # oqp_11(D)->q_buffer, oqp_11(D)->q_wrptr
 1027              	L91:
 1028              		.loc 1 426 0
 1029 047c 85ED     		testl	%ebp, %ebp	 # nfy
 1030 047e 7405     		je	L92	 #,
 1031              		.loc 1 427 0
 1032 0480 891C24   		movl	%ebx, (%esp)	 # oqp,
 1033 0483 FFD5     		call	*%ebp	 # nfy
 1034              	LVL66:
 1035              	L92:
 1036              		.loc 1 429 0
 1037 0485 E8000000 		call	_dbg_check_unlock	 #
 1037      00
 1038              	LVL67:
 1039              	/APP
 1040              	 # 429 "../firmware/chibios/os/kernel/src/chqueues.c" 1
 1041 048a 90       		nop
 1042              	 # 0 "" 2
 1043              		.loc 1 430 0
 1044              	/NO_APP
 1045 048b 83C601   		addl	$1, %esi	 #, w
 1046              	LVL68:
 1047              		.loc 1 431 0
 1048 048e 836C2438 		subl	$1, 56(%esp)	 #, n
 1048      01
 1049              	LVL69:
 1050 0493 742C     		je	L89	 #,
 1051              		.loc 1 433 0
 1052              	/APP
 1053              	 # 433 "../firmware/chibios/os/kernel/src/chqueues.c" 1
 1054 0495 90       		nop
 1055              	 # 0 "" 2
 1056              	/NO_APP
 1057 0496 E8000000 		call	_dbg_check_lock	 #
 1057      00
 1058              	LVL70:
 1059              		.loc 1 415 0
 1060 049b 8B4308   		movl	8(%ebx), %eax	 # oqp_11(D)->q_counter, D.2389
 1061              		.loc 1 422 0
 1062 049e 89F9     		movl	%edi, %ecx	 # bp, bp
 1063              	LVL71:
 1064              		.loc 1 415 0
 1065 04a0 85C0     		testl	%eax, %eax	 # D.2389
 1066 04a2 75B3     		jne	L105	 #,
 1067              	L90:
GAS LISTING /cygdrive/c/DOCUME~1/andrey/LOCALS~1/Temp/cc8DOkPH.s 			page 21


 1068              		.loc 1 416 0
 1069 04a4 8B54243C 		movl	60(%esp), %edx	 # time,
 1070 04a8 89D8     		movl	%ebx, %eax	 # oqp,
 1071 04aa 894C240C 		movl	%ecx, 12(%esp)	 # bp, %sfp
 1072 04ae E84DFBFF 		call	_qwait	 #
 1072      FF
 1073              	LVL72:
 1074 04b3 8B4C240C 		movl	12(%esp), %ecx	 # %sfp, bp
 1075 04b7 85C0     		testl	%eax, %eax	 # D.2390
 1076 04b9 7495     		je	L87	 #,
 1077              		.loc 1 417 0
 1078 04bb E8000000 		call	_dbg_check_unlock	 #
 1078      00
 1079              	LVL73:
 1080              	/APP
 1081              	 # 417 "../firmware/chibios/os/kernel/src/chqueues.c" 1
 1082 04c0 90       		nop
 1083              	 # 0 "" 2
 1084              	LVL74:
 1085              	/NO_APP
 1086              	L89:
 1087              		.loc 1 435 0
 1088 04c1 83C41C   		addl	$28, %esp	 #,
 1089              		.cfi_remember_state
 1090              		.cfi_def_cfa_offset 20
 1091 04c4 89F0     		movl	%esi, %eax	 # w,
 1092 04c6 5B       		popl	%ebx	 #
 1093              		.cfi_restore 3
 1094              		.cfi_def_cfa_offset 16
 1095 04c7 5E       		popl	%esi	 #
 1096              		.cfi_restore 6
 1097              		.cfi_def_cfa_offset 12
 1098              	LVL75:
 1099 04c8 5F       		popl	%edi	 #
 1100              		.cfi_restore 7
 1101              		.cfi_def_cfa_offset 8
 1102 04c9 5D       		popl	%ebp	 #
 1103              		.cfi_restore 5
 1104              		.cfi_def_cfa_offset 4
 1105              	LVL76:
 1106 04ca C3       		ret
 1107              	LVL77:
 1108 04cb 908D7426 		.p2align 4,,7
 1108      00
 1109              	L104:
 1110              		.cfi_restore_state
 1111              		.loc 1 411 0 discriminator 1
 1112 04d0 C7442408 		movl	$411, 8(%esp)	 #,
 1112      9B010000 
 1113 04d8 C7442404 		movl	$LC0, 4(%esp)	 #,
 1113      00000000 
 1114 04e0 C7042441 		movl	$LC2, (%esp)	 #,
 1114      000000
 1115 04e7 894C240C 		movl	%ecx, 12(%esp)	 # bp, %sfp
 1116 04eb E8000000 		call	_chDbgPanic	 #
 1116      00
 1117              	LVL78:
GAS LISTING /cygdrive/c/DOCUME~1/andrey/LOCALS~1/Temp/cc8DOkPH.s 			page 22


 1118 04f0 8B4C240C 		movl	12(%esp), %ecx	 # %sfp, bp
 1119 04f4 E945FFFF 		jmp	L86	 #
 1119      FF
 1120              		.cfi_endproc
 1121              	LFE17:
 1122              	Letext0:
 1123              		.file 3 "/usr/lib/gcc/i686-pc-cygwin/4.8.2/include/stddef.h"
 1124              		.file 4 "/usr/include/stdint.h"
 1125              		.file 5 "../firmware/chibios/os/ports/GCC/SIMIA32/chtypes.h"
 1126              		.file 6 "../firmware/chibios/os/kernel/include/chlists.h"
 1127              		.file 7 "../firmware/chibios/os/kernel/include/chthreads.h"
 1128              		.file 8 "../firmware/chibios/os/ports/GCC/SIMIA32/chcore.h"
 1129              		.file 9 "../firmware/chibios/os/kernel/include/chschd.h"
 1130              		.file 10 "../firmware/chibios/os/kernel/include/chmtx.h"
 1131              		.file 11 "../firmware/chibios/os/kernel/include/chqueues.h"
 1132              		.file 12 "../firmware/chibios/os/kernel/include/chdebug.h"
 1133 04f9 90909090 		.section	.debug_info,"dr"
 1133      909090
 1134              	Ldebug_info0:
 1135 0000 020E0000 		.long	0xe02
 1136 0004 0400     		.word	0x4
 1137 0006 00000000 		.secrel32	Ldebug_abbrev0
 1138 000a 04       		.byte	0x4
 1139 000b 01       		.uleb128 0x1
 1140 000c 474E5520 		.ascii "GNU C 4.8.2 -mtune=generic -march=i686 -ggdb -O2 -std=gnu99 -fomit-frame-pointer -fgnu89-i
 1140      4320342E 
 1140      382E3220 
 1140      2D6D7475 
 1140      6E653D67 
 1141 006c 01       		.byte	0x1
 1142 006d 2E2E2F66 		.ascii "../firmware/chibios/os/kernel/src/chqueues.c\0"
 1142      69726D77 
 1142      6172652F 
 1142      63686962 
 1142      696F732F 
 1143 009a 2F637967 		.ascii "/cygdrive/c/Program Files/Jenkins/workspace/runEfi win32 functional/win32_functional_tests
 1143      64726976 
 1143      652F632F 
 1143      50726F67 
 1143      72616D20 
 1144 00f5 00000000 		.long	Ltext0
 1145 00f9 F9040000 		.long	Letext0-Ltext0
 1146 00fd 00000000 		.secrel32	Ldebug_line0
 1147 0101 02       		.uleb128 0x2
 1148 0102 04       		.byte	0x4
 1149 0103 05       		.byte	0x5
 1150 0104 696E7400 		.ascii "int\0"
 1151 0108 03       		.uleb128 0x3
 1152 0109 73697A65 		.ascii "size_t\0"
 1152      5F7400
 1153 0110 03       		.byte	0x3
 1154 0111 D4       		.byte	0xd4
 1155 0112 16010000 		.long	0x116
 1156 0116 02       		.uleb128 0x2
 1157 0117 04       		.byte	0x4
 1158 0118 07       		.byte	0x7
 1159 0119 756E7369 		.ascii "unsigned int\0"
GAS LISTING /cygdrive/c/DOCUME~1/andrey/LOCALS~1/Temp/cc8DOkPH.s 			page 23


 1159      676E6564 
 1159      20696E74 
 1159      00
 1160 0126 02       		.uleb128 0x2
 1161 0127 02       		.byte	0x2
 1162 0128 07       		.byte	0x7
 1163 0129 73686F72 		.ascii "short unsigned int\0"
 1163      7420756E 
 1163      7369676E 
 1163      65642069 
 1163      6E7400
 1164 013c 02       		.uleb128 0x2
 1165 013d 01       		.byte	0x1
 1166 013e 06       		.byte	0x6
 1167 013f 7369676E 		.ascii "signed char\0"
 1167      65642063 
 1167      68617200 
 1168 014b 02       		.uleb128 0x2
 1169 014c 02       		.byte	0x2
 1170 014d 05       		.byte	0x5
 1171 014e 73686F72 		.ascii "short int\0"
 1171      7420696E 
 1171      7400
 1172 0158 03       		.uleb128 0x3
 1173 0159 696E7433 		.ascii "int32_t\0"
 1173      325F7400 
 1174 0161 04       		.byte	0x4
 1175 0162 16       		.byte	0x16
 1176 0163 01010000 		.long	0x101
 1177 0167 02       		.uleb128 0x2
 1178 0168 08       		.byte	0x8
 1179 0169 05       		.byte	0x5
 1180 016a 6C6F6E67 		.ascii "long long int\0"
 1180      206C6F6E 
 1180      6720696E 
 1180      7400
 1181 0178 03       		.uleb128 0x3
 1182 0179 75696E74 		.ascii "uint8_t\0"
 1182      385F7400 
 1183 0181 04       		.byte	0x4
 1184 0182 1E       		.byte	0x1e
 1185 0183 87010000 		.long	0x187
 1186 0187 02       		.uleb128 0x2
 1187 0188 01       		.byte	0x1
 1188 0189 08       		.byte	0x8
 1189 018a 756E7369 		.ascii "unsigned char\0"
 1189      676E6564 
 1189      20636861 
 1189      7200
 1190 0198 03       		.uleb128 0x3
 1191 0199 75696E74 		.ascii "uint32_t\0"
 1191      33325F74 
 1191      00
 1192 01a2 04       		.byte	0x4
 1193 01a3 22       		.byte	0x22
 1194 01a4 16010000 		.long	0x116
 1195 01a8 02       		.uleb128 0x2
GAS LISTING /cygdrive/c/DOCUME~1/andrey/LOCALS~1/Temp/cc8DOkPH.s 			page 24


 1196 01a9 08       		.byte	0x8
 1197 01aa 07       		.byte	0x7
 1198 01ab 6C6F6E67 		.ascii "long long unsigned int\0"
 1198      206C6F6E 
 1198      6720756E 
 1198      7369676E 
 1198      65642069 
 1199 01c2 03       		.uleb128 0x3
 1200 01c3 626F6F6C 		.ascii "bool_t\0"
 1200      5F7400
 1201 01ca 05       		.byte	0x5
 1202 01cb 23       		.byte	0x23
 1203 01cc D0010000 		.long	0x1d0
 1204 01d0 02       		.uleb128 0x2
 1205 01d1 01       		.byte	0x1
 1206 01d2 02       		.byte	0x2
 1207 01d3 5F426F6F 		.ascii "_Bool\0"
 1207      6C00
 1208 01d9 03       		.uleb128 0x3
 1209 01da 746D6F64 		.ascii "tmode_t\0"
 1209      655F7400 
 1210 01e2 05       		.byte	0x5
 1211 01e3 24       		.byte	0x24
 1212 01e4 78010000 		.long	0x178
 1213 01e8 03       		.uleb128 0x3
 1214 01e9 74737461 		.ascii "tstate_t\0"
 1214      74655F74 
 1214      00
 1215 01f2 05       		.byte	0x5
 1216 01f3 25       		.byte	0x25
 1217 01f4 78010000 		.long	0x178
 1218 01f8 03       		.uleb128 0x3
 1219 01f9 74726566 		.ascii "trefs_t\0"
 1219      735F7400 
 1220 0201 05       		.byte	0x5
 1221 0202 26       		.byte	0x26
 1222 0203 78010000 		.long	0x178
 1223 0207 03       		.uleb128 0x3
 1224 0208 74736C69 		.ascii "tslices_t\0"
 1224      6365735F 
 1224      7400
 1225 0212 05       		.byte	0x5
 1226 0213 27       		.byte	0x27
 1227 0214 78010000 		.long	0x178
 1228 0218 03       		.uleb128 0x3
 1229 0219 74707269 		.ascii "tprio_t\0"
 1229      6F5F7400 
 1230 0221 05       		.byte	0x5
 1231 0222 28       		.byte	0x28
 1232 0223 98010000 		.long	0x198
 1233 0227 03       		.uleb128 0x3
 1234 0228 6D73675F 		.ascii "msg_t\0"
 1234      7400
 1235 022e 05       		.byte	0x5
 1236 022f 29       		.byte	0x29
 1237 0230 58010000 		.long	0x158
 1238 0234 03       		.uleb128 0x3
GAS LISTING /cygdrive/c/DOCUME~1/andrey/LOCALS~1/Temp/cc8DOkPH.s 			page 25


 1239 0235 6576656E 		.ascii "eventmask_t\0"
 1239      746D6173 
 1239      6B5F7400 
 1240 0241 05       		.byte	0x5
 1241 0242 2B       		.byte	0x2b
 1242 0243 98010000 		.long	0x198
 1243 0247 03       		.uleb128 0x3
 1244 0248 73797374 		.ascii "systime_t\0"
 1244      696D655F 
 1244      7400
 1245 0252 05       		.byte	0x5
 1246 0253 2D       		.byte	0x2d
 1247 0254 98010000 		.long	0x198
 1248 0258 03       		.uleb128 0x3
 1249 0259 54687265 		.ascii "Thread\0"
 1249      616400
 1250 0260 06       		.byte	0x6
 1251 0261 2A       		.byte	0x2a
 1252 0262 66020000 		.long	0x266
 1253 0266 04       		.uleb128 0x4
 1254 0267 54687265 		.ascii "Thread\0"
 1254      616400
 1255 026e 48       		.byte	0x48
 1256 026f 07       		.byte	0x7
 1257 0270 5E       		.byte	0x5e
 1258 0271 B4030000 		.long	0x3b4
 1259 0275 05       		.uleb128 0x5
 1260 0276 00000000 		.secrel32	LASF0
 1261 027a 07       		.byte	0x7
 1262 027b 5F       		.byte	0x5f
 1263 027c D8030000 		.long	0x3d8
 1264 0280 00       		.byte	0
 1265 0281 06       		.uleb128 0x6
 1266 0282 705F7072 		.ascii "p_prev\0"
 1266      657600
 1267 0289 07       		.byte	0x7
 1268 028a 61       		.byte	0x61
 1269 028b D8030000 		.long	0x3d8
 1270 028f 04       		.byte	0x4
 1271 0290 06       		.uleb128 0x6
 1272 0291 705F7072 		.ascii "p_prio\0"
 1272      696F00
 1273 0298 07       		.byte	0x7
 1274 0299 63       		.byte	0x63
 1275 029a 18020000 		.long	0x218
 1276 029e 08       		.byte	0x8
 1277 029f 06       		.uleb128 0x6
 1278 02a0 705F6374 		.ascii "p_ctx\0"
 1278      7800
 1279 02a6 07       		.byte	0x7
 1280 02a7 64       		.byte	0x64
 1281 02a8 82040000 		.long	0x482
 1282 02ac 0C       		.byte	0xc
 1283 02ad 06       		.uleb128 0x6
 1284 02ae 705F6E65 		.ascii "p_newer\0"
 1284      77657200 
 1285 02b6 07       		.byte	0x7
GAS LISTING /cygdrive/c/DOCUME~1/andrey/LOCALS~1/Temp/cc8DOkPH.s 			page 26


 1286 02b7 66       		.byte	0x66
 1287 02b8 D8030000 		.long	0x3d8
 1288 02bc 10       		.byte	0x10
 1289 02bd 06       		.uleb128 0x6
 1290 02be 705F6F6C 		.ascii "p_older\0"
 1290      64657200 
 1291 02c6 07       		.byte	0x7
 1292 02c7 67       		.byte	0x67
 1293 02c8 D8030000 		.long	0x3d8
 1294 02cc 14       		.byte	0x14
 1295 02cd 06       		.uleb128 0x6
 1296 02ce 705F6E61 		.ascii "p_name\0"
 1296      6D6500
 1297 02d5 07       		.byte	0x7
 1298 02d6 6E       		.byte	0x6e
 1299 02d7 BC050000 		.long	0x5bc
 1300 02db 18       		.byte	0x18
 1301 02dc 06       		.uleb128 0x6
 1302 02dd 705F7374 		.ascii "p_state\0"
 1302      61746500 
 1303 02e5 07       		.byte	0x7
 1304 02e6 79       		.byte	0x79
 1305 02e7 E8010000 		.long	0x1e8
 1306 02eb 1C       		.byte	0x1c
 1307 02ec 06       		.uleb128 0x6
 1308 02ed 705F666C 		.ascii "p_flags\0"
 1308      61677300 
 1309 02f5 07       		.byte	0x7
 1310 02f6 7D       		.byte	0x7d
 1311 02f7 D9010000 		.long	0x1d9
 1312 02fb 1D       		.byte	0x1d
 1313 02fc 06       		.uleb128 0x6
 1314 02fd 705F7265 		.ascii "p_refs\0"
 1314      667300
 1315 0304 07       		.byte	0x7
 1316 0305 82       		.byte	0x82
 1317 0306 F8010000 		.long	0x1f8
 1318 030a 1E       		.byte	0x1e
 1319 030b 06       		.uleb128 0x6
 1320 030c 705F7072 		.ascii "p_preempt\0"
 1320      65656D70 
 1320      7400
 1321 0316 07       		.byte	0x7
 1322 0317 88       		.byte	0x88
 1323 0318 07020000 		.long	0x207
 1324 031c 1F       		.byte	0x1f
 1325 031d 06       		.uleb128 0x6
 1326 031e 705F7469 		.ascii "p_time\0"
 1326      6D6500
 1327 0325 07       		.byte	0x7
 1328 0326 8F       		.byte	0x8f
 1329 0327 AA040000 		.long	0x4aa
 1330 032b 20       		.byte	0x20
 1331 032c 06       		.uleb128 0x6
 1332 032d 705F7500 		.ascii "p_u\0"
 1333 0331 07       		.byte	0x7
 1334 0332 B4       		.byte	0xb4
GAS LISTING /cygdrive/c/DOCUME~1/andrey/LOCALS~1/Temp/cc8DOkPH.s 			page 27


 1335 0333 79050000 		.long	0x579
 1336 0337 24       		.byte	0x24
 1337 0338 06       		.uleb128 0x6
 1338 0339 705F7761 		.ascii "p_waiting\0"
 1338      6974696E 
 1338      6700
 1339 0343 07       		.byte	0x7
 1340 0344 B9       		.byte	0xb9
 1341 0345 07040000 		.long	0x407
 1342 0349 28       		.byte	0x28
 1343 034a 06       		.uleb128 0x6
 1344 034b 705F6D73 		.ascii "p_msgqueue\0"
 1344      67717565 
 1344      756500
 1345 0356 07       		.byte	0x7
 1346 0357 BF       		.byte	0xbf
 1347 0358 DE030000 		.long	0x3de
 1348 035c 2C       		.byte	0x2c
 1349 035d 06       		.uleb128 0x6
 1350 035e 705F6D73 		.ascii "p_msg\0"
 1350      6700
 1351 0364 07       		.byte	0x7
 1352 0365 C3       		.byte	0xc3
 1353 0366 27020000 		.long	0x227
 1354 036a 34       		.byte	0x34
 1355 036b 06       		.uleb128 0x6
 1356 036c 705F6570 		.ascii "p_epending\0"
 1356      656E6469 
 1356      6E6700
 1357 0377 07       		.byte	0x7
 1358 0378 C9       		.byte	0xc9
 1359 0379 34020000 		.long	0x234
 1360 037d 38       		.byte	0x38
 1361 037e 06       		.uleb128 0x6
 1362 037f 705F6D74 		.ascii "p_mtxlist\0"
 1362      786C6973 
 1362      7400
 1363 0389 07       		.byte	0x7
 1364 038a D0       		.byte	0xd0
 1365 038b CF050000 		.long	0x5cf
 1366 038f 3C       		.byte	0x3c
 1367 0390 06       		.uleb128 0x6
 1368 0391 705F7265 		.ascii "p_realprio\0"
 1368      616C7072 
 1368      696F00
 1369 039c 07       		.byte	0x7
 1370 039d D4       		.byte	0xd4
 1371 039e 18020000 		.long	0x218
 1372 03a2 40       		.byte	0x40
 1373 03a3 06       		.uleb128 0x6
 1374 03a4 705F6D70 		.ascii "p_mpool\0"
 1374      6F6F6C00 
 1375 03ac 07       		.byte	0x7
 1376 03ad DA       		.byte	0xda
 1377 03ae 34040000 		.long	0x434
 1378 03b2 44       		.byte	0x44
 1379 03b3 00       		.byte	0
GAS LISTING /cygdrive/c/DOCUME~1/andrey/LOCALS~1/Temp/cc8DOkPH.s 			page 28


 1380 03b4 07       		.uleb128 0x7
 1381 03b5 08       		.byte	0x8
 1382 03b6 06       		.byte	0x6
 1383 03b7 61       		.byte	0x61
 1384 03b8 D8030000 		.long	0x3d8
 1385 03bc 05       		.uleb128 0x5
 1386 03bd 00000000 		.secrel32	LASF0
 1387 03c1 06       		.byte	0x6
 1388 03c2 62       		.byte	0x62
 1389 03c3 D8030000 		.long	0x3d8
 1390 03c7 00       		.byte	0
 1391 03c8 06       		.uleb128 0x6
 1392 03c9 705F7072 		.ascii "p_prev\0"
 1392      657600
 1393 03d0 06       		.byte	0x6
 1394 03d1 64       		.byte	0x64
 1395 03d2 D8030000 		.long	0x3d8
 1396 03d6 04       		.byte	0x4
 1397 03d7 00       		.byte	0
 1398 03d8 08       		.uleb128 0x8
 1399 03d9 04       		.byte	0x4
 1400 03da 58020000 		.long	0x258
 1401 03de 03       		.uleb128 0x3
 1402 03df 54687265 		.ascii "ThreadsQueue\0"
 1402      61647351 
 1402      75657565 
 1402      00
 1403 03ec 06       		.byte	0x6
 1404 03ed 66       		.byte	0x66
 1405 03ee B4030000 		.long	0x3b4
 1406 03f2 07       		.uleb128 0x7
 1407 03f3 04       		.byte	0x4
 1408 03f4 06       		.byte	0x6
 1409 03f5 6B       		.byte	0x6b
 1410 03f6 07040000 		.long	0x407
 1411 03fa 05       		.uleb128 0x5
 1412 03fb 00000000 		.secrel32	LASF0
 1413 03ff 06       		.byte	0x6
 1414 0400 6D       		.byte	0x6d
 1415 0401 D8030000 		.long	0x3d8
 1416 0405 00       		.byte	0
 1417 0406 00       		.byte	0
 1418 0407 03       		.uleb128 0x3
 1419 0408 54687265 		.ascii "ThreadsList\0"
 1419      6164734C 
 1419      69737400 
 1420 0414 06       		.byte	0x6
 1421 0415 70       		.byte	0x70
 1422 0416 F2030000 		.long	0x3f2
 1423 041a 02       		.uleb128 0x2
 1424 041b 04       		.byte	0x4
 1425 041c 07       		.byte	0x7
 1426 041d 73697A65 		.ascii "sizetype\0"
 1426      74797065 
 1426      00
 1427 0426 03       		.uleb128 0x3
 1428 0427 72656778 		.ascii "regx86\0"
GAS LISTING /cygdrive/c/DOCUME~1/andrey/LOCALS~1/Temp/cc8DOkPH.s 			page 29


 1428      383600
 1429 042e 08       		.byte	0x8
 1430 042f 4B       		.byte	0x4b
 1431 0430 34040000 		.long	0x434
 1432 0434 09       		.uleb128 0x9
 1433 0435 04       		.byte	0x4
 1434 0436 04       		.uleb128 0x4
 1435 0437 696E7463 		.ascii "intctx\0"
 1435      747800
 1436 043e 14       		.byte	0x14
 1437 043f 08       		.byte	0x8
 1438 0440 59       		.byte	0x59
 1439 0441 82040000 		.long	0x482
 1440 0445 06       		.uleb128 0x6
 1441 0446 65627800 		.ascii "ebx\0"
 1442 044a 08       		.byte	0x8
 1443 044b 5A       		.byte	0x5a
 1444 044c 26040000 		.long	0x426
 1445 0450 00       		.byte	0
 1446 0451 06       		.uleb128 0x6
 1447 0452 65646900 		.ascii "edi\0"
 1448 0456 08       		.byte	0x8
 1449 0457 5B       		.byte	0x5b
 1450 0458 26040000 		.long	0x426
 1451 045c 04       		.byte	0x4
 1452 045d 06       		.uleb128 0x6
 1453 045e 65736900 		.ascii "esi\0"
 1454 0462 08       		.byte	0x8
 1455 0463 5C       		.byte	0x5c
 1456 0464 26040000 		.long	0x426
 1457 0468 08       		.byte	0x8
 1458 0469 06       		.uleb128 0x6
 1459 046a 65627000 		.ascii "ebp\0"
 1460 046e 08       		.byte	0x8
 1461 046f 5D       		.byte	0x5d
 1462 0470 26040000 		.long	0x426
 1463 0474 0C       		.byte	0xc
 1464 0475 06       		.uleb128 0x6
 1465 0476 65697000 		.ascii "eip\0"
 1466 047a 08       		.byte	0x8
 1467 047b 5E       		.byte	0x5e
 1468 047c 26040000 		.long	0x426
 1469 0480 10       		.byte	0x10
 1470 0481 00       		.byte	0
 1471 0482 04       		.uleb128 0x4
 1472 0483 636F6E74 		.ascii "context\0"
 1472      65787400 
 1473 048b 04       		.byte	0x4
 1474 048c 08       		.byte	0x8
 1475 048d 66       		.byte	0x66
 1476 048e 9F040000 		.long	0x49f
 1477 0492 06       		.uleb128 0x6
 1478 0493 65737000 		.ascii "esp\0"
 1479 0497 08       		.byte	0x8
 1480 0498 67       		.byte	0x67
 1481 0499 9F040000 		.long	0x49f
 1482 049d 00       		.byte	0
GAS LISTING /cygdrive/c/DOCUME~1/andrey/LOCALS~1/Temp/cc8DOkPH.s 			page 30


 1483 049e 00       		.byte	0
 1484 049f 08       		.uleb128 0x8
 1485 04a0 04       		.byte	0x4
 1486 04a1 A5040000 		.long	0x4a5
 1487 04a5 0A       		.uleb128 0xa
 1488 04a6 36040000 		.long	0x436
 1489 04aa 0A       		.uleb128 0xa
 1490 04ab 47020000 		.long	0x247
 1491 04af 07       		.uleb128 0x7
 1492 04b0 1C       		.byte	0x1c
 1493 04b1 09       		.byte	0x9
 1494 04b2 5E       		.byte	0x5e
 1495 04b3 17050000 		.long	0x517
 1496 04b7 06       		.uleb128 0x6
 1497 04b8 725F7175 		.ascii "r_queue\0"
 1497      65756500 
 1498 04c0 09       		.byte	0x9
 1499 04c1 5F       		.byte	0x5f
 1500 04c2 DE030000 		.long	0x3de
 1501 04c6 00       		.byte	0
 1502 04c7 06       		.uleb128 0x6
 1503 04c8 725F7072 		.ascii "r_prio\0"
 1503      696F00
 1504 04cf 09       		.byte	0x9
 1505 04d0 60       		.byte	0x60
 1506 04d1 18020000 		.long	0x218
 1507 04d5 08       		.byte	0x8
 1508 04d6 06       		.uleb128 0x6
 1509 04d7 725F6374 		.ascii "r_ctx\0"
 1509      7800
 1510 04dd 09       		.byte	0x9
 1511 04de 62       		.byte	0x62
 1512 04df 82040000 		.long	0x482
 1513 04e3 0C       		.byte	0xc
 1514 04e4 06       		.uleb128 0x6
 1515 04e5 725F6E65 		.ascii "r_newer\0"
 1515      77657200 
 1516 04ed 09       		.byte	0x9
 1517 04ee 65       		.byte	0x65
 1518 04ef D8030000 		.long	0x3d8
 1519 04f3 10       		.byte	0x10
 1520 04f4 06       		.uleb128 0x6
 1521 04f5 725F6F6C 		.ascii "r_older\0"
 1521      64657200 
 1522 04fd 09       		.byte	0x9
 1523 04fe 66       		.byte	0x66
 1524 04ff D8030000 		.long	0x3d8
 1525 0503 14       		.byte	0x14
 1526 0504 06       		.uleb128 0x6
 1527 0505 725F6375 		.ascii "r_current\0"
 1527      7272656E 
 1527      7400
 1528 050f 09       		.byte	0x9
 1529 0510 69       		.byte	0x69
 1530 0511 D8030000 		.long	0x3d8
 1531 0515 18       		.byte	0x18
 1532 0516 00       		.byte	0
GAS LISTING /cygdrive/c/DOCUME~1/andrey/LOCALS~1/Temp/cc8DOkPH.s 			page 31


 1533 0517 03       		.uleb128 0x3
 1534 0518 52656164 		.ascii "ReadyList\0"
 1534      794C6973 
 1534      7400
 1535 0522 09       		.byte	0x9
 1536 0523 6B       		.byte	0x6b
 1537 0524 AF040000 		.long	0x4af
 1538 0528 04       		.uleb128 0x4
 1539 0529 4D757465 		.ascii "Mutex\0"
 1539      7800
 1540 052f 10       		.byte	0x10
 1541 0530 0A       		.byte	0xa
 1542 0531 2C       		.byte	0x2c
 1543 0532 66050000 		.long	0x566
 1544 0536 06       		.uleb128 0x6
 1545 0537 6D5F7175 		.ascii "m_queue\0"
 1545      65756500 
 1546 053f 0A       		.byte	0xa
 1547 0540 2D       		.byte	0x2d
 1548 0541 DE030000 		.long	0x3de
 1549 0545 00       		.byte	0
 1550 0546 06       		.uleb128 0x6
 1551 0547 6D5F6F77 		.ascii "m_owner\0"
 1551      6E657200 
 1552 054f 0A       		.byte	0xa
 1553 0550 2F       		.byte	0x2f
 1554 0551 D8030000 		.long	0x3d8
 1555 0555 08       		.byte	0x8
 1556 0556 06       		.uleb128 0x6
 1557 0557 6D5F6E65 		.ascii "m_next\0"
 1557      787400
 1558 055e 0A       		.byte	0xa
 1559 055f 31       		.byte	0x31
 1560 0560 66050000 		.long	0x566
 1561 0564 0C       		.byte	0xc
 1562 0565 00       		.byte	0
 1563 0566 08       		.uleb128 0x8
 1564 0567 04       		.byte	0x4
 1565 0568 28050000 		.long	0x528
 1566 056c 03       		.uleb128 0x3
 1567 056d 4D757465 		.ascii "Mutex\0"
 1567      7800
 1568 0573 0A       		.byte	0xa
 1569 0574 33       		.byte	0x33
 1570 0575 28050000 		.long	0x528
 1571 0579 0B       		.uleb128 0xb
 1572 057a 04       		.byte	0x4
 1573 057b 07       		.byte	0x7
 1574 057c 96       		.byte	0x96
 1575 057d BC050000 		.long	0x5bc
 1576 0581 0C       		.uleb128 0xc
 1577 0582 7264796D 		.ascii "rdymsg\0"
 1577      736700
 1578 0589 07       		.byte	0x7
 1579 058a 9D       		.byte	0x9d
 1580 058b 27020000 		.long	0x227
 1581 058f 0C       		.uleb128 0xc
GAS LISTING /cygdrive/c/DOCUME~1/andrey/LOCALS~1/Temp/cc8DOkPH.s 			page 32


 1582 0590 65786974 		.ascii "exitcode\0"
 1582      636F6465 
 1582      00
 1583 0599 07       		.byte	0x7
 1584 059a A4       		.byte	0xa4
 1585 059b 27020000 		.long	0x227
 1586 059f 0C       		.uleb128 0xc
 1587 05a0 77746F62 		.ascii "wtobjp\0"
 1587      6A7000
 1588 05a7 07       		.byte	0x7
 1589 05a8 AB       		.byte	0xab
 1590 05a9 34040000 		.long	0x434
 1591 05ad 0C       		.uleb128 0xc
 1592 05ae 65776D61 		.ascii "ewmask\0"
 1592      736B00
 1593 05b5 07       		.byte	0x7
 1594 05b6 B2       		.byte	0xb2
 1595 05b7 34020000 		.long	0x234
 1596 05bb 00       		.byte	0
 1597 05bc 08       		.uleb128 0x8
 1598 05bd 04       		.byte	0x4
 1599 05be C2050000 		.long	0x5c2
 1600 05c2 0D       		.uleb128 0xd
 1601 05c3 C7050000 		.long	0x5c7
 1602 05c7 02       		.uleb128 0x2
 1603 05c8 01       		.byte	0x1
 1604 05c9 06       		.byte	0x6
 1605 05ca 63686172 		.ascii "char\0"
 1605      00
 1606 05cf 08       		.uleb128 0x8
 1607 05d0 04       		.byte	0x4
 1608 05d1 6C050000 		.long	0x56c
 1609 05d5 0E       		.uleb128 0xe
 1610 05d6 07000000 		.secrel32	LASF1
 1611 05da 0B       		.byte	0xb
 1612 05db 37       		.byte	0x37
 1613 05dc E0050000 		.long	0x5e0
 1614 05e0 0F       		.uleb128 0xf
 1615 05e1 07000000 		.secrel32	LASF1
 1616 05e5 24       		.byte	0x24
 1617 05e6 0B       		.byte	0xb
 1618 05e7 45       		.byte	0x45
 1619 05e8 70060000 		.long	0x670
 1620 05ec 06       		.uleb128 0x6
 1621 05ed 715F7761 		.ascii "q_waiting\0"
 1621      6974696E 
 1621      6700
 1622 05f7 0B       		.byte	0xb
 1623 05f8 46       		.byte	0x46
 1624 05f9 DE030000 		.long	0x3de
 1625 05fd 00       		.byte	0
 1626 05fe 06       		.uleb128 0x6
 1627 05ff 715F636F 		.ascii "q_counter\0"
 1627      756E7465 
 1627      7200
 1628 0609 0B       		.byte	0xb
 1629 060a 47       		.byte	0x47
GAS LISTING /cygdrive/c/DOCUME~1/andrey/LOCALS~1/Temp/cc8DOkPH.s 			page 33


 1630 060b 08010000 		.long	0x108
 1631 060f 08       		.byte	0x8
 1632 0610 06       		.uleb128 0x6
 1633 0611 715F6275 		.ascii "q_buffer\0"
 1633      66666572 
 1633      00
 1634 061a 0B       		.byte	0xb
 1635 061b 48       		.byte	0x48
 1636 061c 98060000 		.long	0x698
 1637 0620 0C       		.byte	0xc
 1638 0621 06       		.uleb128 0x6
 1639 0622 715F746F 		.ascii "q_top\0"
 1639      7000
 1640 0628 0B       		.byte	0xb
 1641 0629 49       		.byte	0x49
 1642 062a 98060000 		.long	0x698
 1643 062e 10       		.byte	0x10
 1644 062f 06       		.uleb128 0x6
 1645 0630 715F7772 		.ascii "q_wrptr\0"
 1645      70747200 
 1646 0638 0B       		.byte	0xb
 1647 0639 4B       		.byte	0x4b
 1648 063a 98060000 		.long	0x698
 1649 063e 14       		.byte	0x14
 1650 063f 06       		.uleb128 0x6
 1651 0640 715F7264 		.ascii "q_rdptr\0"
 1651      70747200 
 1652 0648 0B       		.byte	0xb
 1653 0649 4C       		.byte	0x4c
 1654 064a 98060000 		.long	0x698
 1655 064e 18       		.byte	0x18
 1656 064f 06       		.uleb128 0x6
 1657 0650 715F6E6F 		.ascii "q_notify\0"
 1657      74696679 
 1657      00
 1658 0659 0B       		.byte	0xb
 1659 065a 4D       		.byte	0x4d
 1660 065b 70060000 		.long	0x670
 1661 065f 1C       		.byte	0x1c
 1662 0660 06       		.uleb128 0x6
 1663 0661 715F6C69 		.ascii "q_link\0"
 1663      6E6B00
 1664 0668 0B       		.byte	0xb
 1665 0669 4E       		.byte	0x4e
 1666 066a 34040000 		.long	0x434
 1667 066e 20       		.byte	0x20
 1668 066f 00       		.byte	0
 1669 0670 03       		.uleb128 0x3
 1670 0671 716E6F74 		.ascii "qnotify_t\0"
 1670      6966795F 
 1670      7400
 1671 067b 0B       		.byte	0xb
 1672 067c 3A       		.byte	0x3a
 1673 067d 81060000 		.long	0x681
 1674 0681 08       		.uleb128 0x8
 1675 0682 04       		.byte	0x4
 1676 0683 87060000 		.long	0x687
GAS LISTING /cygdrive/c/DOCUME~1/andrey/LOCALS~1/Temp/cc8DOkPH.s 			page 34


 1677 0687 10       		.uleb128 0x10
 1678 0688 92060000 		.long	0x692
 1679 068c 11       		.uleb128 0x11
 1680 068d 92060000 		.long	0x692
 1681 0691 00       		.byte	0
 1682 0692 08       		.uleb128 0x8
 1683 0693 04       		.byte	0x4
 1684 0694 D5050000 		.long	0x5d5
 1685 0698 08       		.uleb128 0x8
 1686 0699 04       		.byte	0x4
 1687 069a 78010000 		.long	0x178
 1688 069e 03       		.uleb128 0x3
 1689 069f 496E7075 		.ascii "InputQueue\0"
 1689      74517565 
 1689      756500
 1690 06aa 0B       		.byte	0xb
 1691 06ab 82       		.byte	0x82
 1692 06ac D5050000 		.long	0x5d5
 1693 06b0 03       		.uleb128 0x3
 1694 06b1 4F757470 		.ascii "OutputQueue\0"
 1694      75745175 
 1694      65756500 
 1695 06bd 0B       		.byte	0xb
 1696 06be F5       		.byte	0xf5
 1697 06bf D5050000 		.long	0x5d5
 1698 06c3 08       		.uleb128 0x8
 1699 06c4 04       		.byte	0x4
 1700 06c5 C9060000 		.long	0x6c9
 1701 06c9 0D       		.uleb128 0xd
 1702 06ca 78010000 		.long	0x178
 1703 06ce 12       		.uleb128 0x12
 1704 06cf 71756575 		.ascii "queue_insert\0"
 1704      655F696E 
 1704      73657274 
 1704      00
 1705 06dc 02       		.byte	0x2
 1706 06dd 34       		.byte	0x34
 1707 06de 03       		.byte	0x3
 1708 06df F9060000 		.long	0x6f9
 1709 06e3 13       		.uleb128 0x13
 1710 06e4 747000   		.ascii "tp\0"
 1711 06e7 02       		.byte	0x2
 1712 06e8 34       		.byte	0x34
 1713 06e9 D8030000 		.long	0x3d8
 1714 06ed 13       		.uleb128 0x13
 1715 06ee 74717000 		.ascii "tqp\0"
 1716 06f2 02       		.byte	0x2
 1717 06f3 34       		.byte	0x34
 1718 06f4 F9060000 		.long	0x6f9
 1719 06f8 00       		.byte	0
 1720 06f9 08       		.uleb128 0x8
 1721 06fa 04       		.byte	0x4
 1722 06fb DE030000 		.long	0x3de
 1723 06ff 14       		.uleb128 0x14
 1724 0700 6669666F 		.ascii "fifo_remove\0"
 1724      5F72656D 
 1724      6F766500 
GAS LISTING /cygdrive/c/DOCUME~1/andrey/LOCALS~1/Temp/cc8DOkPH.s 			page 35


 1725 070c 02       		.byte	0x2
 1726 070d 3B       		.byte	0x3b
 1727 070e D8030000 		.long	0x3d8
 1728 0712 03       		.byte	0x3
 1729 0713 2D070000 		.long	0x72d
 1730 0717 13       		.uleb128 0x13
 1731 0718 74717000 		.ascii "tqp\0"
 1732 071c 02       		.byte	0x2
 1733 071d 3B       		.byte	0x3b
 1734 071e F9060000 		.long	0x6f9
 1735 0722 15       		.uleb128 0x15
 1736 0723 747000   		.ascii "tp\0"
 1737 0726 02       		.byte	0x2
 1738 0727 3C       		.byte	0x3c
 1739 0728 D8030000 		.long	0x3d8
 1740 072c 00       		.byte	0
 1741 072d 16       		.uleb128 0x16
 1742 072e 71776169 		.ascii "qwait\0"
 1742      7400
 1743 0734 01       		.byte	0x1
 1744 0735 46       		.byte	0x46
 1745 0736 27020000 		.long	0x227
 1746 073a 00000000 		.long	LFB7
 1747 073e 39000000 		.long	LFE7-LFB7
 1748 0742 01       		.uleb128 0x1
 1749 0743 9C       		.byte	0x9c
 1750 0744 7D070000 		.long	0x77d
 1751 0748 17       		.uleb128 0x17
 1752 0749 717000   		.ascii "qp\0"
 1753 074c 01       		.byte	0x1
 1754 074d 46       		.byte	0x46
 1755 074e 92060000 		.long	0x692
 1756 0752 01       		.uleb128 0x1
 1757 0753 50       		.byte	0x50
 1758 0754 17       		.uleb128 0x17
 1759 0755 74696D65 		.ascii "time\0"
 1759      00
 1760 075a 01       		.byte	0x1
 1761 075b 46       		.byte	0x46
 1762 075c 47020000 		.long	0x247
 1763 0760 01       		.uleb128 0x1
 1764 0761 52       		.byte	0x52
 1765 0762 18       		.uleb128 0x18
 1766 0763 CE060000 		.long	0x6ce
 1767 0767 11000000 		.long	LBB12
 1768 076b 0D000000 		.long	LBE12-LBB12
 1769 076f 01       		.byte	0x1
 1770 0770 4B       		.byte	0x4b
 1771 0771 19       		.uleb128 0x19
 1772 0772 ED060000 		.long	0x6ed
 1773 0776 19       		.uleb128 0x19
 1774 0777 E3060000 		.long	0x6e3
 1775 077b 00       		.byte	0
 1776 077c 00       		.byte	0
 1777 077d 1A       		.uleb128 0x1a
 1778 077e 63684951 		.ascii "chIQInit\0"
 1778      496E6974 
GAS LISTING /cygdrive/c/DOCUME~1/andrey/LOCALS~1/Temp/cc8DOkPH.s 			page 36


 1778      00
 1779 0787 01       		.byte	0x1
 1780 0788 5F       		.byte	0x5f
 1781 0789 40000000 		.long	LFB8
 1782 078d 33000000 		.long	LFE8-LFB8
 1783 0791 01       		.uleb128 0x1
 1784 0792 9C       		.byte	0x9c
 1785 0793 E0070000 		.long	0x7e0
 1786 0797 17       		.uleb128 0x17
 1787 0798 69717000 		.ascii "iqp\0"
 1788 079c 01       		.byte	0x1
 1789 079d 5F       		.byte	0x5f
 1790 079e E0070000 		.long	0x7e0
 1791 07a2 02       		.uleb128 0x2
 1792 07a3 91       		.byte	0x91
 1793 07a4 00       		.sleb128 0
 1794 07a5 17       		.uleb128 0x17
 1795 07a6 627000   		.ascii "bp\0"
 1796 07a9 01       		.byte	0x1
 1797 07aa 5F       		.byte	0x5f
 1798 07ab 98060000 		.long	0x698
 1799 07af 02       		.uleb128 0x2
 1800 07b0 91       		.byte	0x91
 1801 07b1 04       		.sleb128 4
 1802 07b2 17       		.uleb128 0x17
 1803 07b3 73697A65 		.ascii "size\0"
 1803      00
 1804 07b8 01       		.byte	0x1
 1805 07b9 5F       		.byte	0x5f
 1806 07ba 08010000 		.long	0x108
 1807 07be 02       		.uleb128 0x2
 1808 07bf 91       		.byte	0x91
 1809 07c0 08       		.sleb128 8
 1810 07c1 17       		.uleb128 0x17
 1811 07c2 696E6679 		.ascii "infy\0"
 1811      00
 1812 07c7 01       		.byte	0x1
 1813 07c8 5F       		.byte	0x5f
 1814 07c9 70060000 		.long	0x670
 1815 07cd 02       		.uleb128 0x2
 1816 07ce 91       		.byte	0x91
 1817 07cf 0C       		.sleb128 12
 1818 07d0 17       		.uleb128 0x17
 1819 07d1 6C696E6B 		.ascii "link\0"
 1819      00
 1820 07d6 01       		.byte	0x1
 1821 07d7 60       		.byte	0x60
 1822 07d8 34040000 		.long	0x434
 1823 07dc 02       		.uleb128 0x2
 1824 07dd 91       		.byte	0x91
 1825 07de 10       		.sleb128 16
 1826 07df 00       		.byte	0
 1827 07e0 08       		.uleb128 0x8
 1828 07e1 04       		.byte	0x4
 1829 07e2 9E060000 		.long	0x69e
 1830 07e6 1A       		.uleb128 0x1a
 1831 07e7 63684951 		.ascii "chIQResetI\0"
GAS LISTING /cygdrive/c/DOCUME~1/andrey/LOCALS~1/Temp/cc8DOkPH.s 			page 37


 1831      52657365 
 1831      744900
 1832 07f2 01       		.byte	0x1
 1833 07f3 75       		.byte	0x75
 1834 07f4 80000000 		.long	LFB9
 1835 07f8 44000000 		.long	LFE9-LFB9
 1836 07fc 01       		.uleb128 0x1
 1837 07fd 9C       		.byte	0x9c
 1838 07fe 53080000 		.long	0x853
 1839 0802 17       		.uleb128 0x17
 1840 0803 69717000 		.ascii "iqp\0"
 1841 0807 01       		.byte	0x1
 1842 0808 75       		.byte	0x75
 1843 0809 E0070000 		.long	0x7e0
 1844 080d 02       		.uleb128 0x2
 1845 080e 91       		.byte	0x91
 1846 080f 00       		.sleb128 0
 1847 0810 1B       		.uleb128 0x1b
 1848 0811 FF060000 		.long	0x6ff
 1849 0815 A3000000 		.long	LBB14
 1850 0819 07000000 		.long	LBE14-LBB14
 1851 081d 01       		.byte	0x1
 1852 081e 7C       		.byte	0x7c
 1853 081f 40080000 		.long	0x840
 1854 0823 1C       		.uleb128 0x1c
 1855 0824 17070000 		.long	0x717
 1856 0828 00000000 		.secrel32	LLST0
 1857 082c 1D       		.uleb128 0x1d
 1858 082d A3000000 		.long	LBB15
 1859 0831 07000000 		.long	LBE15-LBB15
 1860 0835 1E       		.uleb128 0x1e
 1861 0836 22070000 		.long	0x722
 1862 083a 13000000 		.secrel32	LLST1
 1863 083e 00       		.byte	0
 1864 083f 00       		.byte	0
 1865 0840 1F       		.uleb128 0x1f
 1866 0841 8D000000 		.long	LVL2
 1867 0845 860D0000 		.long	0xd86
 1868 0849 1F       		.uleb128 0x1f
 1869 084a B2000000 		.long	LVL4
 1870 084e 9A0D0000 		.long	0xd9a
 1871 0852 00       		.byte	0
 1872 0853 20       		.uleb128 0x20
 1873 0854 63684951 		.ascii "chIQPutI\0"
 1873      50757449 
 1873      00
 1874 085d 01       		.byte	0x1
 1875 085e 8C       		.byte	0x8c
 1876 085f 27020000 		.long	0x227
 1877 0863 D0000000 		.long	LFB10
 1878 0867 78000000 		.long	LFE10-LFB10
 1879 086b 01       		.uleb128 0x1
 1880 086c 9C       		.byte	0x9c
 1881 086d CE080000 		.long	0x8ce
 1882 0871 17       		.uleb128 0x17
 1883 0872 69717000 		.ascii "iqp\0"
 1884 0876 01       		.byte	0x1
GAS LISTING /cygdrive/c/DOCUME~1/andrey/LOCALS~1/Temp/cc8DOkPH.s 			page 38


 1885 0877 8C       		.byte	0x8c
 1886 0878 E0070000 		.long	0x7e0
 1887 087c 02       		.uleb128 0x2
 1888 087d 91       		.byte	0x91
 1889 087e 00       		.sleb128 0
 1890 087f 17       		.uleb128 0x17
 1891 0880 6200     		.ascii "b\0"
 1892 0882 01       		.byte	0x1
 1893 0883 8C       		.byte	0x8c
 1894 0884 78010000 		.long	0x178
 1895 0888 02       		.uleb128 0x2
 1896 0889 91       		.byte	0x91
 1897 088a 04       		.sleb128 4
 1898 088b 1B       		.uleb128 0x1b
 1899 088c FF060000 		.long	0x6ff
 1900 0890 0E010000 		.long	LBB16
 1901 0894 07000000 		.long	LBE16-LBB16
 1902 0898 01       		.byte	0x1
 1903 0899 99       		.byte	0x99
 1904 089a BB080000 		.long	0x8bb
 1905 089e 1C       		.uleb128 0x1c
 1906 089f 17070000 		.long	0x717
 1907 08a3 26000000 		.secrel32	LLST2
 1908 08a7 1D       		.uleb128 0x1d
 1909 08a8 0E010000 		.long	LBB17
 1910 08ac 07000000 		.long	LBE17-LBB17
 1911 08b0 1E       		.uleb128 0x1e
 1912 08b1 22070000 		.long	0x722
 1913 08b5 39000000 		.secrel32	LLST3
 1914 08b9 00       		.byte	0
 1915 08ba 00       		.byte	0
 1916 08bb 1F       		.uleb128 0x1f
 1917 08bc E3000000 		.long	LVL7
 1918 08c0 860D0000 		.long	0xd86
 1919 08c4 1F       		.uleb128 0x1f
 1920 08c5 1D010000 		.long	LVL9
 1921 08c9 9A0D0000 		.long	0xd9a
 1922 08cd 00       		.byte	0
 1923 08ce 20       		.uleb128 0x20
 1924 08cf 63684951 		.ascii "chIQGetTimeout\0"
 1924      47657454 
 1924      696D656F 
 1924      757400
 1925 08de 01       		.byte	0x1
 1926 08df B2       		.byte	0xb2
 1927 08e0 27020000 		.long	0x227
 1928 08e4 50010000 		.long	LFB11
 1929 08e8 7C000000 		.long	LFE11-LFB11
 1930 08ec 01       		.uleb128 0x1
 1931 08ed 9C       		.byte	0x9c
 1932 08ee 7C090000 		.long	0x97c
 1933 08f2 17       		.uleb128 0x17
 1934 08f3 69717000 		.ascii "iqp\0"
 1935 08f7 01       		.byte	0x1
 1936 08f8 B2       		.byte	0xb2
 1937 08f9 E0070000 		.long	0x7e0
 1938 08fd 02       		.uleb128 0x2
GAS LISTING /cygdrive/c/DOCUME~1/andrey/LOCALS~1/Temp/cc8DOkPH.s 			page 39


 1939 08fe 91       		.byte	0x91
 1940 08ff 00       		.sleb128 0
 1941 0900 17       		.uleb128 0x17
 1942 0901 74696D65 		.ascii "time\0"
 1942      00
 1943 0906 01       		.byte	0x1
 1944 0907 B2       		.byte	0xb2
 1945 0908 47020000 		.long	0x247
 1946 090c 02       		.uleb128 0x2
 1947 090d 91       		.byte	0x91
 1948 090e 04       		.sleb128 4
 1949 090f 21       		.uleb128 0x21
 1950 0910 6200     		.ascii "b\0"
 1951 0912 01       		.byte	0x1
 1952 0913 B3       		.byte	0xb3
 1953 0914 78010000 		.long	0x178
 1954 0918 4C000000 		.secrel32	LLST4
 1955 091c 22       		.uleb128 0x22
 1956 091d 00000000 		.secrel32	Ldebug_ranges0+0
 1957 0921 58090000 		.long	0x958
 1958 0925 21       		.uleb128 0x21
 1959 0926 6D736700 		.ascii "msg\0"
 1960 092a 01       		.byte	0x1
 1961 092b BA       		.byte	0xba
 1962 092c 27020000 		.long	0x227
 1963 0930 75000000 		.secrel32	LLST5
 1964 0934 23       		.uleb128 0x23
 1965 0935 7B010000 		.long	LVL14
 1966 0939 2D070000 		.long	0x72d
 1967 093d 4E090000 		.long	0x94e
 1968 0941 24       		.uleb128 0x24
 1969 0942 01       		.uleb128 0x1
 1970 0943 50       		.byte	0x50
 1971 0944 02       		.uleb128 0x2
 1972 0945 73       		.byte	0x73
 1973 0946 00       		.sleb128 0
 1974 0947 24       		.uleb128 0x24
 1975 0948 01       		.uleb128 0x1
 1976 0949 52       		.byte	0x52
 1977 094a 02       		.uleb128 0x2
 1978 094b 76       		.byte	0x76
 1979 094c 00       		.sleb128 0
 1980 094d 00       		.byte	0
 1981 094e 1F       		.uleb128 0x1f
 1982 094f C1010000 		.long	LVL21
 1983 0953 B70D0000 		.long	0xdb7
 1984 0957 00       		.byte	0
 1985 0958 1F       		.uleb128 0x1f
 1986 0959 63010000 		.long	LVL12
 1987 095d CB0D0000 		.long	0xdcb
 1988 0961 25       		.uleb128 0x25
 1989 0962 6F010000 		.long	LVL13
 1990 0966 72090000 		.long	0x972
 1991 096a 24       		.uleb128 0x24
 1992 096b 02       		.uleb128 0x2
 1993 096c 74       		.byte	0x74
 1994 096d 00       		.sleb128 0
GAS LISTING /cygdrive/c/DOCUME~1/andrey/LOCALS~1/Temp/cc8DOkPH.s 			page 40


 1995 096e 02       		.uleb128 0x2
 1996 096f 73       		.byte	0x73
 1997 0970 00       		.sleb128 0
 1998 0971 00       		.byte	0
 1999 0972 1F       		.uleb128 0x1f
 2000 0973 A2010000 		.long	LVL17
 2001 0977 B70D0000 		.long	0xdb7
 2002 097b 00       		.byte	0
 2003 097c 20       		.uleb128 0x20
 2004 097d 63684951 		.ascii "chIQReadTimeout\0"
 2004      52656164 
 2004      54696D65 
 2004      6F757400 
 2005 098d 01       		.byte	0x1
 2006 098e E2       		.byte	0xe2
 2007 098f 08010000 		.long	0x108
 2008 0993 D0010000 		.long	LFB12
 2009 0997 B3000000 		.long	LFE12-LFB12
 2010 099b 01       		.uleb128 0x1
 2011 099c 9C       		.byte	0x9c
 2012 099d 6D0A0000 		.long	0xa6d
 2013 09a1 17       		.uleb128 0x17
 2014 09a2 69717000 		.ascii "iqp\0"
 2015 09a6 01       		.byte	0x1
 2016 09a7 E2       		.byte	0xe2
 2017 09a8 E0070000 		.long	0x7e0
 2018 09ac 02       		.uleb128 0x2
 2019 09ad 91       		.byte	0x91
 2020 09ae 00       		.sleb128 0
 2021 09af 26       		.uleb128 0x26
 2022 09b0 627000   		.ascii "bp\0"
 2023 09b3 01       		.byte	0x1
 2024 09b4 E2       		.byte	0xe2
 2025 09b5 98060000 		.long	0x698
 2026 09b9 9F000000 		.secrel32	LLST6
 2027 09bd 26       		.uleb128 0x26
 2028 09be 6E00     		.ascii "n\0"
 2029 09c0 01       		.byte	0x1
 2030 09c1 E3       		.byte	0xe3
 2031 09c2 08010000 		.long	0x108
 2032 09c6 06010000 		.secrel32	LLST7
 2033 09ca 17       		.uleb128 0x17
 2034 09cb 74696D65 		.ascii "time\0"
 2034      00
 2035 09d0 01       		.byte	0x1
 2036 09d1 E3       		.byte	0xe3
 2037 09d2 47020000 		.long	0x247
 2038 09d6 02       		.uleb128 0x2
 2039 09d7 91       		.byte	0x91
 2040 09d8 0C       		.sleb128 12
 2041 09d9 21       		.uleb128 0x21
 2042 09da 6E667900 		.ascii "nfy\0"
 2043 09de 01       		.byte	0x1
 2044 09df E4       		.byte	0xe4
 2045 09e0 70060000 		.long	0x670
 2046 09e4 37010000 		.secrel32	LLST8
 2047 09e8 21       		.uleb128 0x21
GAS LISTING /cygdrive/c/DOCUME~1/andrey/LOCALS~1/Temp/cc8DOkPH.s 			page 41


 2048 09e9 7200     		.ascii "r\0"
 2049 09eb 01       		.byte	0x1
 2050 09ec E5       		.byte	0xe5
 2051 09ed 08010000 		.long	0x108
 2052 09f1 55010000 		.secrel32	LLST9
 2053 09f5 1F       		.uleb128 0x1f
 2054 09f6 F0010000 		.long	LVL24
 2055 09fa CB0D0000 		.long	0xdcb
 2056 09fe 27       		.uleb128 0x27
 2057 09ff FB010000 		.long	LVL26
 2058 0a03 02       		.uleb128 0x2
 2059 0a04 75       		.byte	0x75
 2060 0a05 00       		.sleb128 0
 2061 0a06 120A0000 		.long	0xa12
 2062 0a0a 24       		.uleb128 0x24
 2063 0a0b 02       		.uleb128 0x2
 2064 0a0c 74       		.byte	0x74
 2065 0a0d 00       		.sleb128 0
 2066 0a0e 02       		.uleb128 0x2
 2067 0a0f 73       		.byte	0x73
 2068 0a10 00       		.sleb128 0
 2069 0a11 00       		.byte	0
 2070 0a12 23       		.uleb128 0x23
 2071 0a13 09020000 		.long	LVL27
 2072 0a17 2D070000 		.long	0x72d
 2073 0a1b 2C0A0000 		.long	0xa2c
 2074 0a1f 24       		.uleb128 0x24
 2075 0a20 01       		.uleb128 0x1
 2076 0a21 50       		.byte	0x50
 2077 0a22 02       		.uleb128 0x2
 2078 0a23 73       		.byte	0x73
 2079 0a24 00       		.sleb128 0
 2080 0a25 24       		.uleb128 0x24
 2081 0a26 01       		.uleb128 0x1
 2082 0a27 52       		.byte	0x52
 2083 0a28 02       		.uleb128 0x2
 2084 0a29 76       		.byte	0x76
 2085 0a2a 00       		.sleb128 0
 2086 0a2b 00       		.byte	0
 2087 0a2c 1F       		.uleb128 0x1f
 2088 0a2d 40020000 		.long	LVL29
 2089 0a31 B70D0000 		.long	0xdb7
 2090 0a35 1F       		.uleb128 0x1f
 2091 0a36 50020000 		.long	LVL31
 2092 0a3a CB0D0000 		.long	0xdcb
 2093 0a3e 1F       		.uleb128 0x1f
 2094 0a3f 57020000 		.long	LVL32
 2095 0a43 B70D0000 		.long	0xdb7
 2096 0a47 28       		.uleb128 0x28
 2097 0a48 7E020000 		.long	LVL37
 2098 0a4c DD0D0000 		.long	0xddd
 2099 0a50 24       		.uleb128 0x24
 2100 0a51 02       		.uleb128 0x2
 2101 0a52 74       		.byte	0x74
 2102 0a53 00       		.sleb128 0
 2103 0a54 05       		.uleb128 0x5
 2104 0a55 03       		.byte	0x3
GAS LISTING /cygdrive/c/DOCUME~1/andrey/LOCALS~1/Temp/cc8DOkPH.s 			page 42


 2105 0a56 2D000000 		.long	LC1
 2106 0a5a 24       		.uleb128 0x24
 2107 0a5b 02       		.uleb128 0x2
 2108 0a5c 74       		.byte	0x74
 2109 0a5d 04       		.sleb128 4
 2110 0a5e 05       		.uleb128 0x5
 2111 0a5f 03       		.byte	0x3
 2112 0a60 00000000 		.long	LC0
 2113 0a64 24       		.uleb128 0x24
 2114 0a65 02       		.uleb128 0x2
 2115 0a66 74       		.byte	0x74
 2116 0a67 08       		.sleb128 8
 2117 0a68 02       		.uleb128 0x2
 2118 0a69 08       		.byte	0x8
 2119 0a6a E7       		.byte	0xe7
 2120 0a6b 00       		.byte	0
 2121 0a6c 00       		.byte	0
 2122 0a6d 29       		.uleb128 0x29
 2123 0a6e 63684F51 		.ascii "chOQInit\0"
 2123      496E6974 
 2123      00
 2124 0a77 01       		.byte	0x1
 2125 0a78 1301     		.word	0x113
 2126 0a7a 90020000 		.long	LFB13
 2127 0a7e 31000000 		.long	LFE13-LFB13
 2128 0a82 01       		.uleb128 0x1
 2129 0a83 9C       		.byte	0x9c
 2130 0a84 D60A0000 		.long	0xad6
 2131 0a88 2A       		.uleb128 0x2a
 2132 0a89 6F717000 		.ascii "oqp\0"
 2133 0a8d 01       		.byte	0x1
 2134 0a8e 1301     		.word	0x113
 2135 0a90 D60A0000 		.long	0xad6
 2136 0a94 02       		.uleb128 0x2
 2137 0a95 91       		.byte	0x91
 2138 0a96 00       		.sleb128 0
 2139 0a97 2A       		.uleb128 0x2a
 2140 0a98 627000   		.ascii "bp\0"
 2141 0a9b 01       		.byte	0x1
 2142 0a9c 1301     		.word	0x113
 2143 0a9e 98060000 		.long	0x698
 2144 0aa2 02       		.uleb128 0x2
 2145 0aa3 91       		.byte	0x91
 2146 0aa4 04       		.sleb128 4
 2147 0aa5 2A       		.uleb128 0x2a
 2148 0aa6 73697A65 		.ascii "size\0"
 2148      00
 2149 0aab 01       		.byte	0x1
 2150 0aac 1301     		.word	0x113
 2151 0aae 08010000 		.long	0x108
 2152 0ab2 02       		.uleb128 0x2
 2153 0ab3 91       		.byte	0x91
 2154 0ab4 08       		.sleb128 8
 2155 0ab5 2A       		.uleb128 0x2a
 2156 0ab6 6F6E6679 		.ascii "onfy\0"
 2156      00
 2157 0abb 01       		.byte	0x1
GAS LISTING /cygdrive/c/DOCUME~1/andrey/LOCALS~1/Temp/cc8DOkPH.s 			page 43


 2158 0abc 1301     		.word	0x113
 2159 0abe 70060000 		.long	0x670
 2160 0ac2 02       		.uleb128 0x2
 2161 0ac3 91       		.byte	0x91
 2162 0ac4 0C       		.sleb128 12
 2163 0ac5 2A       		.uleb128 0x2a
 2164 0ac6 6C696E6B 		.ascii "link\0"
 2164      00
 2165 0acb 01       		.byte	0x1
 2166 0acc 1401     		.word	0x114
 2167 0ace 34040000 		.long	0x434
 2168 0ad2 02       		.uleb128 0x2
 2169 0ad3 91       		.byte	0x91
 2170 0ad4 10       		.sleb128 16
 2171 0ad5 00       		.byte	0
 2172 0ad6 08       		.uleb128 0x8
 2173 0ad7 04       		.byte	0x4
 2174 0ad8 B0060000 		.long	0x6b0
 2175 0adc 29       		.uleb128 0x29
 2176 0add 63684F51 		.ascii "chOQResetI\0"
 2176      52657365 
 2176      744900
 2177 0ae8 01       		.byte	0x1
 2178 0ae9 2901     		.word	0x129
 2179 0aeb D0020000 		.long	LFB14
 2180 0aef 45000000 		.long	LFE14-LFB14
 2181 0af3 01       		.uleb128 0x1
 2182 0af4 9C       		.byte	0x9c
 2183 0af5 4C0B0000 		.long	0xb4c
 2184 0af9 2A       		.uleb128 0x2a
 2185 0afa 6F717000 		.ascii "oqp\0"
 2186 0afe 01       		.byte	0x1
 2187 0aff 2901     		.word	0x129
 2188 0b01 D60A0000 		.long	0xad6
 2189 0b05 02       		.uleb128 0x2
 2190 0b06 91       		.byte	0x91
 2191 0b07 00       		.sleb128 0
 2192 0b08 2B       		.uleb128 0x2b
 2193 0b09 FF060000 		.long	0x6ff
 2194 0b0d F4020000 		.long	LBB20
 2195 0b11 07000000 		.long	LBE20-LBB20
 2196 0b15 01       		.byte	0x1
 2197 0b16 3001     		.word	0x130
 2198 0b18 390B0000 		.long	0xb39
 2199 0b1c 1C       		.uleb128 0x1c
 2200 0b1d 17070000 		.long	0x717
 2201 0b21 8B010000 		.secrel32	LLST10
 2202 0b25 1D       		.uleb128 0x1d
 2203 0b26 F4020000 		.long	LBB21
 2204 0b2a 07000000 		.long	LBE21-LBB21
 2205 0b2e 1E       		.uleb128 0x1e
 2206 0b2f 22070000 		.long	0x722
 2207 0b33 9E010000 		.secrel32	LLST11
 2208 0b37 00       		.byte	0
 2209 0b38 00       		.byte	0
 2210 0b39 1F       		.uleb128 0x1f
 2211 0b3a DD020000 		.long	LVL40
GAS LISTING /cygdrive/c/DOCUME~1/andrey/LOCALS~1/Temp/cc8DOkPH.s 			page 44


 2212 0b3e 860D0000 		.long	0xd86
 2213 0b42 1F       		.uleb128 0x1f
 2214 0b43 03030000 		.long	LVL42
 2215 0b47 9A0D0000 		.long	0xd9a
 2216 0b4b 00       		.byte	0
 2217 0b4c 2C       		.uleb128 0x2c
 2218 0b4d 63684F51 		.ascii "chOQPutTimeout\0"
 2218      50757454 
 2218      696D656F 
 2218      757400
 2219 0b5c 01       		.byte	0x1
 2220 0b5d 4901     		.word	0x149
 2221 0b5f 27020000 		.long	0x227
 2222 0b63 20030000 		.long	LFB15
 2223 0b67 85000000 		.long	LFE15-LFB15
 2224 0b6b 01       		.uleb128 0x1
 2225 0b6c 9C       		.byte	0x9c
 2226 0b6d FE0B0000 		.long	0xbfe
 2227 0b71 2A       		.uleb128 0x2a
 2228 0b72 6F717000 		.ascii "oqp\0"
 2229 0b76 01       		.byte	0x1
 2230 0b77 4901     		.word	0x149
 2231 0b79 D60A0000 		.long	0xad6
 2232 0b7d 02       		.uleb128 0x2
 2233 0b7e 91       		.byte	0x91
 2234 0b7f 00       		.sleb128 0
 2235 0b80 2A       		.uleb128 0x2a
 2236 0b81 6200     		.ascii "b\0"
 2237 0b83 01       		.byte	0x1
 2238 0b84 4901     		.word	0x149
 2239 0b86 78010000 		.long	0x178
 2240 0b8a 02       		.uleb128 0x2
 2241 0b8b 91       		.byte	0x91
 2242 0b8c 04       		.sleb128 4
 2243 0b8d 2A       		.uleb128 0x2a
 2244 0b8e 74696D65 		.ascii "time\0"
 2244      00
 2245 0b93 01       		.byte	0x1
 2246 0b94 4901     		.word	0x149
 2247 0b96 47020000 		.long	0x247
 2248 0b9a 02       		.uleb128 0x2
 2249 0b9b 91       		.byte	0x91
 2250 0b9c 08       		.sleb128 8
 2251 0b9d 22       		.uleb128 0x22
 2252 0b9e 18000000 		.secrel32	Ldebug_ranges0+0x18
 2253 0ba2 DA0B0000 		.long	0xbda
 2254 0ba6 2D       		.uleb128 0x2d
 2255 0ba7 6D736700 		.ascii "msg\0"
 2256 0bab 01       		.byte	0x1
 2257 0bac 4D01     		.word	0x14d
 2258 0bae 27020000 		.long	0x227
 2259 0bb2 B1010000 		.secrel32	LLST12
 2260 0bb6 23       		.uleb128 0x23
 2261 0bb7 49030000 		.long	LVL46
 2262 0bbb 2D070000 		.long	0x72d
 2263 0bbf D00B0000 		.long	0xbd0
 2264 0bc3 24       		.uleb128 0x24
GAS LISTING /cygdrive/c/DOCUME~1/andrey/LOCALS~1/Temp/cc8DOkPH.s 			page 45


 2265 0bc4 01       		.uleb128 0x1
 2266 0bc5 50       		.byte	0x50
 2267 0bc6 02       		.uleb128 0x2
 2268 0bc7 73       		.byte	0x73
 2269 0bc8 00       		.sleb128 0
 2270 0bc9 24       		.uleb128 0x24
 2271 0bca 01       		.uleb128 0x1
 2272 0bcb 52       		.byte	0x52
 2273 0bcc 02       		.uleb128 0x2
 2274 0bcd 76       		.byte	0x76
 2275 0bce 00       		.sleb128 0
 2276 0bcf 00       		.byte	0
 2277 0bd0 1F       		.uleb128 0x1f
 2278 0bd1 99030000 		.long	LVL51
 2279 0bd5 B70D0000 		.long	0xdb7
 2280 0bd9 00       		.byte	0
 2281 0bda 1F       		.uleb128 0x1f
 2282 0bdb 38030000 		.long	LVL45
 2283 0bdf CB0D0000 		.long	0xdcb
 2284 0be3 25       		.uleb128 0x25
 2285 0be4 81030000 		.long	LVL48
 2286 0be8 F40B0000 		.long	0xbf4
 2287 0bec 24       		.uleb128 0x24
 2288 0bed 02       		.uleb128 0x2
 2289 0bee 74       		.byte	0x74
 2290 0bef 00       		.sleb128 0
 2291 0bf0 02       		.uleb128 0x2
 2292 0bf1 73       		.byte	0x73
 2293 0bf2 00       		.sleb128 0
 2294 0bf3 00       		.byte	0
 2295 0bf4 1F       		.uleb128 0x1f
 2296 0bf5 86030000 		.long	LVL49
 2297 0bf9 B70D0000 		.long	0xdb7
 2298 0bfd 00       		.byte	0
 2299 0bfe 2C       		.uleb128 0x2c
 2300 0bff 63684F51 		.ascii "chOQGetI\0"
 2300      47657449 
 2300      00
 2301 0c08 01       		.byte	0x1
 2302 0c09 6B01     		.word	0x16b
 2303 0c0b 27020000 		.long	0x227
 2304 0c0f B0030000 		.long	LFB16
 2305 0c13 70000000 		.long	LFE16-LFB16
 2306 0c17 01       		.uleb128 0x1
 2307 0c18 9C       		.byte	0x9c
 2308 0c19 7E0C0000 		.long	0xc7e
 2309 0c1d 2A       		.uleb128 0x2a
 2310 0c1e 6F717000 		.ascii "oqp\0"
 2311 0c22 01       		.byte	0x1
 2312 0c23 6B01     		.word	0x16b
 2313 0c25 D60A0000 		.long	0xad6
 2314 0c29 02       		.uleb128 0x2
 2315 0c2a 91       		.byte	0x91
 2316 0c2b 00       		.sleb128 0
 2317 0c2c 2D       		.uleb128 0x2d
 2318 0c2d 6200     		.ascii "b\0"
 2319 0c2f 01       		.byte	0x1
GAS LISTING /cygdrive/c/DOCUME~1/andrey/LOCALS~1/Temp/cc8DOkPH.s 			page 46


 2320 0c30 6C01     		.word	0x16c
 2321 0c32 78010000 		.long	0x178
 2322 0c36 DB010000 		.secrel32	LLST13
 2323 0c3a 2B       		.uleb128 0x2b
 2324 0c3b FF060000 		.long	0x6ff
 2325 0c3f E3030000 		.long	LBB24
 2326 0c43 07000000 		.long	LBE24-LBB24
 2327 0c47 01       		.byte	0x1
 2328 0c48 7901     		.word	0x179
 2329 0c4a 6B0C0000 		.long	0xc6b
 2330 0c4e 1C       		.uleb128 0x1c
 2331 0c4f 17070000 		.long	0x717
 2332 0c53 F9010000 		.secrel32	LLST14
 2333 0c57 1D       		.uleb128 0x1d
 2334 0c58 E3030000 		.long	LBB25
 2335 0c5c 07000000 		.long	LBE25-LBB25
 2336 0c60 1E       		.uleb128 0x1e
 2337 0c61 22070000 		.long	0x722
 2338 0c65 0C020000 		.secrel32	LLST15
 2339 0c69 00       		.byte	0
 2340 0c6a 00       		.byte	0
 2341 0c6b 1F       		.uleb128 0x1f
 2342 0c6c BE030000 		.long	LVL53
 2343 0c70 860D0000 		.long	0xd86
 2344 0c74 1F       		.uleb128 0x1f
 2345 0c75 F2030000 		.long	LVL56
 2346 0c79 9A0D0000 		.long	0xd9a
 2347 0c7d 00       		.byte	0
 2348 0c7e 2C       		.uleb128 0x2c
 2349 0c7f 63684F51 		.ascii "chOQWriteTimeout\0"
 2349      57726974 
 2349      6554696D 
 2349      656F7574 
 2349      00
 2350 0c90 01       		.byte	0x1
 2351 0c91 9601     		.word	0x196
 2352 0c93 08010000 		.long	0x108
 2353 0c97 20040000 		.long	LFB17
 2354 0c9b D9000000 		.long	LFE17-LFB17
 2355 0c9f 01       		.uleb128 0x1
 2356 0ca0 9C       		.byte	0x9c
 2357 0ca1 790D0000 		.long	0xd79
 2358 0ca5 2A       		.uleb128 0x2a
 2359 0ca6 6F717000 		.ascii "oqp\0"
 2360 0caa 01       		.byte	0x1
 2361 0cab 9601     		.word	0x196
 2362 0cad D60A0000 		.long	0xad6
 2363 0cb1 02       		.uleb128 0x2
 2364 0cb2 91       		.byte	0x91
 2365 0cb3 00       		.sleb128 0
 2366 0cb4 2E       		.uleb128 0x2e
 2367 0cb5 627000   		.ascii "bp\0"
 2368 0cb8 01       		.byte	0x1
 2369 0cb9 9601     		.word	0x196
 2370 0cbb C3060000 		.long	0x6c3
 2371 0cbf 1F020000 		.secrel32	LLST16
 2372 0cc3 2E       		.uleb128 0x2e
GAS LISTING /cygdrive/c/DOCUME~1/andrey/LOCALS~1/Temp/cc8DOkPH.s 			page 47


 2373 0cc4 6E00     		.ascii "n\0"
 2374 0cc6 01       		.byte	0x1
 2375 0cc7 9701     		.word	0x197
 2376 0cc9 08010000 		.long	0x108
 2377 0ccd 6C020000 		.secrel32	LLST17
 2378 0cd1 2A       		.uleb128 0x2a
 2379 0cd2 74696D65 		.ascii "time\0"
 2379      00
 2380 0cd7 01       		.byte	0x1
 2381 0cd8 9701     		.word	0x197
 2382 0cda 47020000 		.long	0x247
 2383 0cde 02       		.uleb128 0x2
 2384 0cdf 91       		.byte	0x91
 2385 0ce0 0C       		.sleb128 12
 2386 0ce1 2D       		.uleb128 0x2d
 2387 0ce2 6E667900 		.ascii "nfy\0"
 2388 0ce6 01       		.byte	0x1
 2389 0ce7 9801     		.word	0x198
 2390 0ce9 70060000 		.long	0x670
 2391 0ced 9C020000 		.secrel32	LLST18
 2392 0cf1 2D       		.uleb128 0x2d
 2393 0cf2 7700     		.ascii "w\0"
 2394 0cf4 01       		.byte	0x1
 2395 0cf5 9901     		.word	0x199
 2396 0cf7 08010000 		.long	0x108
 2397 0cfb BA020000 		.secrel32	LLST19
 2398 0cff 1F       		.uleb128 0x1f
 2399 0d00 48040000 		.long	LVL63
 2400 0d04 CB0D0000 		.long	0xdcb
 2401 0d08 27       		.uleb128 0x27
 2402 0d09 85040000 		.long	LVL66
 2403 0d0d 02       		.uleb128 0x2
 2404 0d0e 75       		.byte	0x75
 2405 0d0f 00       		.sleb128 0
 2406 0d10 1C0D0000 		.long	0xd1c
 2407 0d14 24       		.uleb128 0x24
 2408 0d15 02       		.uleb128 0x2
 2409 0d16 74       		.byte	0x74
 2410 0d17 00       		.sleb128 0
 2411 0d18 02       		.uleb128 0x2
 2412 0d19 73       		.byte	0x73
 2413 0d1a 00       		.sleb128 0
 2414 0d1b 00       		.byte	0
 2415 0d1c 1F       		.uleb128 0x1f
 2416 0d1d 8A040000 		.long	LVL67
 2417 0d21 B70D0000 		.long	0xdb7
 2418 0d25 1F       		.uleb128 0x1f
 2419 0d26 9B040000 		.long	LVL70
 2420 0d2a CB0D0000 		.long	0xdcb
 2421 0d2e 23       		.uleb128 0x23
 2422 0d2f B3040000 		.long	LVL72
 2423 0d33 2D070000 		.long	0x72d
 2424 0d37 490D0000 		.long	0xd49
 2425 0d3b 24       		.uleb128 0x24
 2426 0d3c 01       		.uleb128 0x1
 2427 0d3d 50       		.byte	0x50
 2428 0d3e 02       		.uleb128 0x2
GAS LISTING /cygdrive/c/DOCUME~1/andrey/LOCALS~1/Temp/cc8DOkPH.s 			page 48


 2429 0d3f 73       		.byte	0x73
 2430 0d40 00       		.sleb128 0
 2431 0d41 24       		.uleb128 0x24
 2432 0d42 01       		.uleb128 0x1
 2433 0d43 52       		.byte	0x52
 2434 0d44 03       		.uleb128 0x3
 2435 0d45 91       		.byte	0x91
 2436 0d46 0C       		.sleb128 12
 2437 0d47 06       		.byte	0x6
 2438 0d48 00       		.byte	0
 2439 0d49 1F       		.uleb128 0x1f
 2440 0d4a C0040000 		.long	LVL73
 2441 0d4e B70D0000 		.long	0xdb7
 2442 0d52 28       		.uleb128 0x28
 2443 0d53 F0040000 		.long	LVL78
 2444 0d57 DD0D0000 		.long	0xddd
 2445 0d5b 24       		.uleb128 0x24
 2446 0d5c 02       		.uleb128 0x2
 2447 0d5d 74       		.byte	0x74
 2448 0d5e 00       		.sleb128 0
 2449 0d5f 05       		.uleb128 0x5
 2450 0d60 03       		.byte	0x3
 2451 0d61 41000000 		.long	LC2
 2452 0d65 24       		.uleb128 0x24
 2453 0d66 02       		.uleb128 0x2
 2454 0d67 74       		.byte	0x74
 2455 0d68 04       		.sleb128 4
 2456 0d69 05       		.uleb128 0x5
 2457 0d6a 03       		.byte	0x3
 2458 0d6b 00000000 		.long	LC0
 2459 0d6f 24       		.uleb128 0x24
 2460 0d70 02       		.uleb128 0x2
 2461 0d71 74       		.byte	0x74
 2462 0d72 08       		.sleb128 8
 2463 0d73 03       		.uleb128 0x3
 2464 0d74 0A       		.byte	0xa
 2465 0d75 9B01     		.word	0x19b
 2466 0d77 00       		.byte	0
 2467 0d78 00       		.byte	0
 2468 0d79 2F       		.uleb128 0x2f
 2469 0d7a 726C6973 		.ascii "rlist\0"
 2469      7400
 2470 0d80 09       		.byte	0x9
 2471 0d81 6F       		.byte	0x6f
 2472 0d82 17050000 		.long	0x517
 2473 0d86 30       		.uleb128 0x30
 2474 0d87 63684462 		.ascii "chDbgCheckClassI\0"
 2474      67436865 
 2474      636B436C 
 2474      61737349 
 2474      00
 2475 0d98 0C       		.byte	0xc
 2476 0d99 ED       		.byte	0xed
 2477 0d9a 31       		.uleb128 0x31
 2478 0d9b 63685363 		.ascii "chSchReadyI\0"
 2478      68526561 
 2478      64794900 
GAS LISTING /cygdrive/c/DOCUME~1/andrey/LOCALS~1/Temp/cc8DOkPH.s 			page 49


 2479 0da7 09       		.byte	0x9
 2480 0da8 90       		.byte	0x90
 2481 0da9 D8030000 		.long	0x3d8
 2482 0dad B70D0000 		.long	0xdb7
 2483 0db1 11       		.uleb128 0x11
 2484 0db2 D8030000 		.long	0x3d8
 2485 0db6 00       		.byte	0
 2486 0db7 30       		.uleb128 0x30
 2487 0db8 6462675F 		.ascii "dbg_check_unlock\0"
 2487      63686563 
 2487      6B5F756E 
 2487      6C6F636B 
 2487      00
 2488 0dc9 0C       		.byte	0xc
 2489 0dca E8       		.byte	0xe8
 2490 0dcb 30       		.uleb128 0x30
 2491 0dcc 6462675F 		.ascii "dbg_check_lock\0"
 2491      63686563 
 2491      6B5F6C6F 
 2491      636B00
 2492 0ddb 0C       		.byte	0xc
 2493 0ddc E7       		.byte	0xe7
 2494 0ddd 32       		.uleb128 0x32
 2495 0dde 63684462 		.ascii "chDbgPanic\0"
 2495      6750616E 
 2495      696300
 2496 0de9 0C       		.byte	0xc
 2497 0dea F6       		.byte	0xf6
 2498 0deb FF0D0000 		.long	0xdff
 2499 0def 11       		.uleb128 0x11
 2500 0df0 BC050000 		.long	0x5bc
 2501 0df4 11       		.uleb128 0x11
 2502 0df5 FF0D0000 		.long	0xdff
 2503 0df9 11       		.uleb128 0x11
 2504 0dfa 01010000 		.long	0x101
 2505 0dfe 00       		.byte	0
 2506 0dff 08       		.uleb128 0x8
 2507 0e00 04       		.byte	0x4
 2508 0e01 C7050000 		.long	0x5c7
 2509 0e05 00       		.byte	0
 2510              		.section	.debug_abbrev,"dr"
 2511              	Ldebug_abbrev0:
 2512 0000 01       		.uleb128 0x1
 2513 0001 11       		.uleb128 0x11
 2514 0002 01       		.byte	0x1
 2515 0003 25       		.uleb128 0x25
 2516 0004 08       		.uleb128 0x8
 2517 0005 13       		.uleb128 0x13
 2518 0006 0B       		.uleb128 0xb
 2519 0007 03       		.uleb128 0x3
 2520 0008 08       		.uleb128 0x8
 2521 0009 1B       		.uleb128 0x1b
 2522 000a 08       		.uleb128 0x8
 2523 000b 11       		.uleb128 0x11
 2524 000c 01       		.uleb128 0x1
 2525 000d 12       		.uleb128 0x12
 2526 000e 06       		.uleb128 0x6
GAS LISTING /cygdrive/c/DOCUME~1/andrey/LOCALS~1/Temp/cc8DOkPH.s 			page 50


 2527 000f 10       		.uleb128 0x10
 2528 0010 17       		.uleb128 0x17
 2529 0011 00       		.byte	0
 2530 0012 00       		.byte	0
 2531 0013 02       		.uleb128 0x2
 2532 0014 24       		.uleb128 0x24
 2533 0015 00       		.byte	0
 2534 0016 0B       		.uleb128 0xb
 2535 0017 0B       		.uleb128 0xb
 2536 0018 3E       		.uleb128 0x3e
 2537 0019 0B       		.uleb128 0xb
 2538 001a 03       		.uleb128 0x3
 2539 001b 08       		.uleb128 0x8
 2540 001c 00       		.byte	0
 2541 001d 00       		.byte	0
 2542 001e 03       		.uleb128 0x3
 2543 001f 16       		.uleb128 0x16
 2544 0020 00       		.byte	0
 2545 0021 03       		.uleb128 0x3
 2546 0022 08       		.uleb128 0x8
 2547 0023 3A       		.uleb128 0x3a
 2548 0024 0B       		.uleb128 0xb
 2549 0025 3B       		.uleb128 0x3b
 2550 0026 0B       		.uleb128 0xb
 2551 0027 49       		.uleb128 0x49
 2552 0028 13       		.uleb128 0x13
 2553 0029 00       		.byte	0
 2554 002a 00       		.byte	0
 2555 002b 04       		.uleb128 0x4
 2556 002c 13       		.uleb128 0x13
 2557 002d 01       		.byte	0x1
 2558 002e 03       		.uleb128 0x3
 2559 002f 08       		.uleb128 0x8
 2560 0030 0B       		.uleb128 0xb
 2561 0031 0B       		.uleb128 0xb
 2562 0032 3A       		.uleb128 0x3a
 2563 0033 0B       		.uleb128 0xb
 2564 0034 3B       		.uleb128 0x3b
 2565 0035 0B       		.uleb128 0xb
 2566 0036 01       		.uleb128 0x1
 2567 0037 13       		.uleb128 0x13
 2568 0038 00       		.byte	0
 2569 0039 00       		.byte	0
 2570 003a 05       		.uleb128 0x5
 2571 003b 0D       		.uleb128 0xd
 2572 003c 00       		.byte	0
 2573 003d 03       		.uleb128 0x3
 2574 003e 0E       		.uleb128 0xe
 2575 003f 3A       		.uleb128 0x3a
 2576 0040 0B       		.uleb128 0xb
 2577 0041 3B       		.uleb128 0x3b
 2578 0042 0B       		.uleb128 0xb
 2579 0043 49       		.uleb128 0x49
 2580 0044 13       		.uleb128 0x13
 2581 0045 38       		.uleb128 0x38
 2582 0046 0B       		.uleb128 0xb
 2583 0047 00       		.byte	0
GAS LISTING /cygdrive/c/DOCUME~1/andrey/LOCALS~1/Temp/cc8DOkPH.s 			page 51


 2584 0048 00       		.byte	0
 2585 0049 06       		.uleb128 0x6
 2586 004a 0D       		.uleb128 0xd
 2587 004b 00       		.byte	0
 2588 004c 03       		.uleb128 0x3
 2589 004d 08       		.uleb128 0x8
 2590 004e 3A       		.uleb128 0x3a
 2591 004f 0B       		.uleb128 0xb
 2592 0050 3B       		.uleb128 0x3b
 2593 0051 0B       		.uleb128 0xb
 2594 0052 49       		.uleb128 0x49
 2595 0053 13       		.uleb128 0x13
 2596 0054 38       		.uleb128 0x38
 2597 0055 0B       		.uleb128 0xb
 2598 0056 00       		.byte	0
 2599 0057 00       		.byte	0
 2600 0058 07       		.uleb128 0x7
 2601 0059 13       		.uleb128 0x13
 2602 005a 01       		.byte	0x1
 2603 005b 0B       		.uleb128 0xb
 2604 005c 0B       		.uleb128 0xb
 2605 005d 3A       		.uleb128 0x3a
 2606 005e 0B       		.uleb128 0xb
 2607 005f 3B       		.uleb128 0x3b
 2608 0060 0B       		.uleb128 0xb
 2609 0061 01       		.uleb128 0x1
 2610 0062 13       		.uleb128 0x13
 2611 0063 00       		.byte	0
 2612 0064 00       		.byte	0
 2613 0065 08       		.uleb128 0x8
 2614 0066 0F       		.uleb128 0xf
 2615 0067 00       		.byte	0
 2616 0068 0B       		.uleb128 0xb
 2617 0069 0B       		.uleb128 0xb
 2618 006a 49       		.uleb128 0x49
 2619 006b 13       		.uleb128 0x13
 2620 006c 00       		.byte	0
 2621 006d 00       		.byte	0
 2622 006e 09       		.uleb128 0x9
 2623 006f 0F       		.uleb128 0xf
 2624 0070 00       		.byte	0
 2625 0071 0B       		.uleb128 0xb
 2626 0072 0B       		.uleb128 0xb
 2627 0073 00       		.byte	0
 2628 0074 00       		.byte	0
 2629 0075 0A       		.uleb128 0xa
 2630 0076 35       		.uleb128 0x35
 2631 0077 00       		.byte	0
 2632 0078 49       		.uleb128 0x49
 2633 0079 13       		.uleb128 0x13
 2634 007a 00       		.byte	0
 2635 007b 00       		.byte	0
 2636 007c 0B       		.uleb128 0xb
 2637 007d 17       		.uleb128 0x17
 2638 007e 01       		.byte	0x1
 2639 007f 0B       		.uleb128 0xb
 2640 0080 0B       		.uleb128 0xb
GAS LISTING /cygdrive/c/DOCUME~1/andrey/LOCALS~1/Temp/cc8DOkPH.s 			page 52


 2641 0081 3A       		.uleb128 0x3a
 2642 0082 0B       		.uleb128 0xb
 2643 0083 3B       		.uleb128 0x3b
 2644 0084 0B       		.uleb128 0xb
 2645 0085 01       		.uleb128 0x1
 2646 0086 13       		.uleb128 0x13
 2647 0087 00       		.byte	0
 2648 0088 00       		.byte	0
 2649 0089 0C       		.uleb128 0xc
 2650 008a 0D       		.uleb128 0xd
 2651 008b 00       		.byte	0
 2652 008c 03       		.uleb128 0x3
 2653 008d 08       		.uleb128 0x8
 2654 008e 3A       		.uleb128 0x3a
 2655 008f 0B       		.uleb128 0xb
 2656 0090 3B       		.uleb128 0x3b
 2657 0091 0B       		.uleb128 0xb
 2658 0092 49       		.uleb128 0x49
 2659 0093 13       		.uleb128 0x13
 2660 0094 00       		.byte	0
 2661 0095 00       		.byte	0
 2662 0096 0D       		.uleb128 0xd
 2663 0097 26       		.uleb128 0x26
 2664 0098 00       		.byte	0
 2665 0099 49       		.uleb128 0x49
 2666 009a 13       		.uleb128 0x13
 2667 009b 00       		.byte	0
 2668 009c 00       		.byte	0
 2669 009d 0E       		.uleb128 0xe
 2670 009e 16       		.uleb128 0x16
 2671 009f 00       		.byte	0
 2672 00a0 03       		.uleb128 0x3
 2673 00a1 0E       		.uleb128 0xe
 2674 00a2 3A       		.uleb128 0x3a
 2675 00a3 0B       		.uleb128 0xb
 2676 00a4 3B       		.uleb128 0x3b
 2677 00a5 0B       		.uleb128 0xb
 2678 00a6 49       		.uleb128 0x49
 2679 00a7 13       		.uleb128 0x13
 2680 00a8 00       		.byte	0
 2681 00a9 00       		.byte	0
 2682 00aa 0F       		.uleb128 0xf
 2683 00ab 13       		.uleb128 0x13
 2684 00ac 01       		.byte	0x1
 2685 00ad 03       		.uleb128 0x3
 2686 00ae 0E       		.uleb128 0xe
 2687 00af 0B       		.uleb128 0xb
 2688 00b0 0B       		.uleb128 0xb
 2689 00b1 3A       		.uleb128 0x3a
 2690 00b2 0B       		.uleb128 0xb
 2691 00b3 3B       		.uleb128 0x3b
 2692 00b4 0B       		.uleb128 0xb
 2693 00b5 01       		.uleb128 0x1
 2694 00b6 13       		.uleb128 0x13
 2695 00b7 00       		.byte	0
 2696 00b8 00       		.byte	0
 2697 00b9 10       		.uleb128 0x10
GAS LISTING /cygdrive/c/DOCUME~1/andrey/LOCALS~1/Temp/cc8DOkPH.s 			page 53


 2698 00ba 15       		.uleb128 0x15
 2699 00bb 01       		.byte	0x1
 2700 00bc 27       		.uleb128 0x27
 2701 00bd 19       		.uleb128 0x19
 2702 00be 01       		.uleb128 0x1
 2703 00bf 13       		.uleb128 0x13
 2704 00c0 00       		.byte	0
 2705 00c1 00       		.byte	0
 2706 00c2 11       		.uleb128 0x11
 2707 00c3 05       		.uleb128 0x5
 2708 00c4 00       		.byte	0
 2709 00c5 49       		.uleb128 0x49
 2710 00c6 13       		.uleb128 0x13
 2711 00c7 00       		.byte	0
 2712 00c8 00       		.byte	0
 2713 00c9 12       		.uleb128 0x12
 2714 00ca 2E       		.uleb128 0x2e
 2715 00cb 01       		.byte	0x1
 2716 00cc 03       		.uleb128 0x3
 2717 00cd 08       		.uleb128 0x8
 2718 00ce 3A       		.uleb128 0x3a
 2719 00cf 0B       		.uleb128 0xb
 2720 00d0 3B       		.uleb128 0x3b
 2721 00d1 0B       		.uleb128 0xb
 2722 00d2 27       		.uleb128 0x27
 2723 00d3 19       		.uleb128 0x19
 2724 00d4 20       		.uleb128 0x20
 2725 00d5 0B       		.uleb128 0xb
 2726 00d6 01       		.uleb128 0x1
 2727 00d7 13       		.uleb128 0x13
 2728 00d8 00       		.byte	0
 2729 00d9 00       		.byte	0
 2730 00da 13       		.uleb128 0x13
 2731 00db 05       		.uleb128 0x5
 2732 00dc 00       		.byte	0
 2733 00dd 03       		.uleb128 0x3
 2734 00de 08       		.uleb128 0x8
 2735 00df 3A       		.uleb128 0x3a
 2736 00e0 0B       		.uleb128 0xb
 2737 00e1 3B       		.uleb128 0x3b
 2738 00e2 0B       		.uleb128 0xb
 2739 00e3 49       		.uleb128 0x49
 2740 00e4 13       		.uleb128 0x13
 2741 00e5 00       		.byte	0
 2742 00e6 00       		.byte	0
 2743 00e7 14       		.uleb128 0x14
 2744 00e8 2E       		.uleb128 0x2e
 2745 00e9 01       		.byte	0x1
 2746 00ea 03       		.uleb128 0x3
 2747 00eb 08       		.uleb128 0x8
 2748 00ec 3A       		.uleb128 0x3a
 2749 00ed 0B       		.uleb128 0xb
 2750 00ee 3B       		.uleb128 0x3b
 2751 00ef 0B       		.uleb128 0xb
 2752 00f0 27       		.uleb128 0x27
 2753 00f1 19       		.uleb128 0x19
 2754 00f2 49       		.uleb128 0x49
GAS LISTING /cygdrive/c/DOCUME~1/andrey/LOCALS~1/Temp/cc8DOkPH.s 			page 54


 2755 00f3 13       		.uleb128 0x13
 2756 00f4 20       		.uleb128 0x20
 2757 00f5 0B       		.uleb128 0xb
 2758 00f6 01       		.uleb128 0x1
 2759 00f7 13       		.uleb128 0x13
 2760 00f8 00       		.byte	0
 2761 00f9 00       		.byte	0
 2762 00fa 15       		.uleb128 0x15
 2763 00fb 34       		.uleb128 0x34
 2764 00fc 00       		.byte	0
 2765 00fd 03       		.uleb128 0x3
 2766 00fe 08       		.uleb128 0x8
 2767 00ff 3A       		.uleb128 0x3a
 2768 0100 0B       		.uleb128 0xb
 2769 0101 3B       		.uleb128 0x3b
 2770 0102 0B       		.uleb128 0xb
 2771 0103 49       		.uleb128 0x49
 2772 0104 13       		.uleb128 0x13
 2773 0105 00       		.byte	0
 2774 0106 00       		.byte	0
 2775 0107 16       		.uleb128 0x16
 2776 0108 2E       		.uleb128 0x2e
 2777 0109 01       		.byte	0x1
 2778 010a 03       		.uleb128 0x3
 2779 010b 08       		.uleb128 0x8
 2780 010c 3A       		.uleb128 0x3a
 2781 010d 0B       		.uleb128 0xb
 2782 010e 3B       		.uleb128 0x3b
 2783 010f 0B       		.uleb128 0xb
 2784 0110 27       		.uleb128 0x27
 2785 0111 19       		.uleb128 0x19
 2786 0112 49       		.uleb128 0x49
 2787 0113 13       		.uleb128 0x13
 2788 0114 11       		.uleb128 0x11
 2789 0115 01       		.uleb128 0x1
 2790 0116 12       		.uleb128 0x12
 2791 0117 06       		.uleb128 0x6
 2792 0118 40       		.uleb128 0x40
 2793 0119 18       		.uleb128 0x18
 2794 011a 9642     		.uleb128 0x2116
 2795 011c 19       		.uleb128 0x19
 2796 011d 01       		.uleb128 0x1
 2797 011e 13       		.uleb128 0x13
 2798 011f 00       		.byte	0
 2799 0120 00       		.byte	0
 2800 0121 17       		.uleb128 0x17
 2801 0122 05       		.uleb128 0x5
 2802 0123 00       		.byte	0
 2803 0124 03       		.uleb128 0x3
 2804 0125 08       		.uleb128 0x8
 2805 0126 3A       		.uleb128 0x3a
 2806 0127 0B       		.uleb128 0xb
 2807 0128 3B       		.uleb128 0x3b
 2808 0129 0B       		.uleb128 0xb
 2809 012a 49       		.uleb128 0x49
 2810 012b 13       		.uleb128 0x13
 2811 012c 02       		.uleb128 0x2
GAS LISTING /cygdrive/c/DOCUME~1/andrey/LOCALS~1/Temp/cc8DOkPH.s 			page 55


 2812 012d 18       		.uleb128 0x18
 2813 012e 00       		.byte	0
 2814 012f 00       		.byte	0
 2815 0130 18       		.uleb128 0x18
 2816 0131 1D       		.uleb128 0x1d
 2817 0132 01       		.byte	0x1
 2818 0133 31       		.uleb128 0x31
 2819 0134 13       		.uleb128 0x13
 2820 0135 11       		.uleb128 0x11
 2821 0136 01       		.uleb128 0x1
 2822 0137 12       		.uleb128 0x12
 2823 0138 06       		.uleb128 0x6
 2824 0139 58       		.uleb128 0x58
 2825 013a 0B       		.uleb128 0xb
 2826 013b 59       		.uleb128 0x59
 2827 013c 0B       		.uleb128 0xb
 2828 013d 00       		.byte	0
 2829 013e 00       		.byte	0
 2830 013f 19       		.uleb128 0x19
 2831 0140 05       		.uleb128 0x5
 2832 0141 00       		.byte	0
 2833 0142 31       		.uleb128 0x31
 2834 0143 13       		.uleb128 0x13
 2835 0144 00       		.byte	0
 2836 0145 00       		.byte	0
 2837 0146 1A       		.uleb128 0x1a
 2838 0147 2E       		.uleb128 0x2e
 2839 0148 01       		.byte	0x1
 2840 0149 3F       		.uleb128 0x3f
 2841 014a 19       		.uleb128 0x19
 2842 014b 03       		.uleb128 0x3
 2843 014c 08       		.uleb128 0x8
 2844 014d 3A       		.uleb128 0x3a
 2845 014e 0B       		.uleb128 0xb
 2846 014f 3B       		.uleb128 0x3b
 2847 0150 0B       		.uleb128 0xb
 2848 0151 27       		.uleb128 0x27
 2849 0152 19       		.uleb128 0x19
 2850 0153 11       		.uleb128 0x11
 2851 0154 01       		.uleb128 0x1
 2852 0155 12       		.uleb128 0x12
 2853 0156 06       		.uleb128 0x6
 2854 0157 40       		.uleb128 0x40
 2855 0158 18       		.uleb128 0x18
 2856 0159 9742     		.uleb128 0x2117
 2857 015b 19       		.uleb128 0x19
 2858 015c 01       		.uleb128 0x1
 2859 015d 13       		.uleb128 0x13
 2860 015e 00       		.byte	0
 2861 015f 00       		.byte	0
 2862 0160 1B       		.uleb128 0x1b
 2863 0161 1D       		.uleb128 0x1d
 2864 0162 01       		.byte	0x1
 2865 0163 31       		.uleb128 0x31
 2866 0164 13       		.uleb128 0x13
 2867 0165 11       		.uleb128 0x11
 2868 0166 01       		.uleb128 0x1
GAS LISTING /cygdrive/c/DOCUME~1/andrey/LOCALS~1/Temp/cc8DOkPH.s 			page 56


 2869 0167 12       		.uleb128 0x12
 2870 0168 06       		.uleb128 0x6
 2871 0169 58       		.uleb128 0x58
 2872 016a 0B       		.uleb128 0xb
 2873 016b 59       		.uleb128 0x59
 2874 016c 0B       		.uleb128 0xb
 2875 016d 01       		.uleb128 0x1
 2876 016e 13       		.uleb128 0x13
 2877 016f 00       		.byte	0
 2878 0170 00       		.byte	0
 2879 0171 1C       		.uleb128 0x1c
 2880 0172 05       		.uleb128 0x5
 2881 0173 00       		.byte	0
 2882 0174 31       		.uleb128 0x31
 2883 0175 13       		.uleb128 0x13
 2884 0176 02       		.uleb128 0x2
 2885 0177 17       		.uleb128 0x17
 2886 0178 00       		.byte	0
 2887 0179 00       		.byte	0
 2888 017a 1D       		.uleb128 0x1d
 2889 017b 0B       		.uleb128 0xb
 2890 017c 01       		.byte	0x1
 2891 017d 11       		.uleb128 0x11
 2892 017e 01       		.uleb128 0x1
 2893 017f 12       		.uleb128 0x12
 2894 0180 06       		.uleb128 0x6
 2895 0181 00       		.byte	0
 2896 0182 00       		.byte	0
 2897 0183 1E       		.uleb128 0x1e
 2898 0184 34       		.uleb128 0x34
 2899 0185 00       		.byte	0
 2900 0186 31       		.uleb128 0x31
 2901 0187 13       		.uleb128 0x13
 2902 0188 02       		.uleb128 0x2
 2903 0189 17       		.uleb128 0x17
 2904 018a 00       		.byte	0
 2905 018b 00       		.byte	0
 2906 018c 1F       		.uleb128 0x1f
 2907 018d 898201   		.uleb128 0x4109
 2908 0190 00       		.byte	0
 2909 0191 11       		.uleb128 0x11
 2910 0192 01       		.uleb128 0x1
 2911 0193 31       		.uleb128 0x31
 2912 0194 13       		.uleb128 0x13
 2913 0195 00       		.byte	0
 2914 0196 00       		.byte	0
 2915 0197 20       		.uleb128 0x20
 2916 0198 2E       		.uleb128 0x2e
 2917 0199 01       		.byte	0x1
 2918 019a 3F       		.uleb128 0x3f
 2919 019b 19       		.uleb128 0x19
 2920 019c 03       		.uleb128 0x3
 2921 019d 08       		.uleb128 0x8
 2922 019e 3A       		.uleb128 0x3a
 2923 019f 0B       		.uleb128 0xb
 2924 01a0 3B       		.uleb128 0x3b
 2925 01a1 0B       		.uleb128 0xb
GAS LISTING /cygdrive/c/DOCUME~1/andrey/LOCALS~1/Temp/cc8DOkPH.s 			page 57


 2926 01a2 27       		.uleb128 0x27
 2927 01a3 19       		.uleb128 0x19
 2928 01a4 49       		.uleb128 0x49
 2929 01a5 13       		.uleb128 0x13
 2930 01a6 11       		.uleb128 0x11
 2931 01a7 01       		.uleb128 0x1
 2932 01a8 12       		.uleb128 0x12
 2933 01a9 06       		.uleb128 0x6
 2934 01aa 40       		.uleb128 0x40
 2935 01ab 18       		.uleb128 0x18
 2936 01ac 9742     		.uleb128 0x2117
 2937 01ae 19       		.uleb128 0x19
 2938 01af 01       		.uleb128 0x1
 2939 01b0 13       		.uleb128 0x13
 2940 01b1 00       		.byte	0
 2941 01b2 00       		.byte	0
 2942 01b3 21       		.uleb128 0x21
 2943 01b4 34       		.uleb128 0x34
 2944 01b5 00       		.byte	0
 2945 01b6 03       		.uleb128 0x3
 2946 01b7 08       		.uleb128 0x8
 2947 01b8 3A       		.uleb128 0x3a
 2948 01b9 0B       		.uleb128 0xb
 2949 01ba 3B       		.uleb128 0x3b
 2950 01bb 0B       		.uleb128 0xb
 2951 01bc 49       		.uleb128 0x49
 2952 01bd 13       		.uleb128 0x13
 2953 01be 02       		.uleb128 0x2
 2954 01bf 17       		.uleb128 0x17
 2955 01c0 00       		.byte	0
 2956 01c1 00       		.byte	0
 2957 01c2 22       		.uleb128 0x22
 2958 01c3 0B       		.uleb128 0xb
 2959 01c4 01       		.byte	0x1
 2960 01c5 55       		.uleb128 0x55
 2961 01c6 17       		.uleb128 0x17
 2962 01c7 01       		.uleb128 0x1
 2963 01c8 13       		.uleb128 0x13
 2964 01c9 00       		.byte	0
 2965 01ca 00       		.byte	0
 2966 01cb 23       		.uleb128 0x23
 2967 01cc 898201   		.uleb128 0x4109
 2968 01cf 01       		.byte	0x1
 2969 01d0 11       		.uleb128 0x11
 2970 01d1 01       		.uleb128 0x1
 2971 01d2 31       		.uleb128 0x31
 2972 01d3 13       		.uleb128 0x13
 2973 01d4 01       		.uleb128 0x1
 2974 01d5 13       		.uleb128 0x13
 2975 01d6 00       		.byte	0
 2976 01d7 00       		.byte	0
 2977 01d8 24       		.uleb128 0x24
 2978 01d9 8A8201   		.uleb128 0x410a
 2979 01dc 00       		.byte	0
 2980 01dd 02       		.uleb128 0x2
 2981 01de 18       		.uleb128 0x18
 2982 01df 9142     		.uleb128 0x2111
GAS LISTING /cygdrive/c/DOCUME~1/andrey/LOCALS~1/Temp/cc8DOkPH.s 			page 58


 2983 01e1 18       		.uleb128 0x18
 2984 01e2 00       		.byte	0
 2985 01e3 00       		.byte	0
 2986 01e4 25       		.uleb128 0x25
 2987 01e5 898201   		.uleb128 0x4109
 2988 01e8 01       		.byte	0x1
 2989 01e9 11       		.uleb128 0x11
 2990 01ea 01       		.uleb128 0x1
 2991 01eb 01       		.uleb128 0x1
 2992 01ec 13       		.uleb128 0x13
 2993 01ed 00       		.byte	0
 2994 01ee 00       		.byte	0
 2995 01ef 26       		.uleb128 0x26
 2996 01f0 05       		.uleb128 0x5
 2997 01f1 00       		.byte	0
 2998 01f2 03       		.uleb128 0x3
 2999 01f3 08       		.uleb128 0x8
 3000 01f4 3A       		.uleb128 0x3a
 3001 01f5 0B       		.uleb128 0xb
 3002 01f6 3B       		.uleb128 0x3b
 3003 01f7 0B       		.uleb128 0xb
 3004 01f8 49       		.uleb128 0x49
 3005 01f9 13       		.uleb128 0x13
 3006 01fa 02       		.uleb128 0x2
 3007 01fb 17       		.uleb128 0x17
 3008 01fc 00       		.byte	0
 3009 01fd 00       		.byte	0
 3010 01fe 27       		.uleb128 0x27
 3011 01ff 898201   		.uleb128 0x4109
 3012 0202 01       		.byte	0x1
 3013 0203 11       		.uleb128 0x11
 3014 0204 01       		.uleb128 0x1
 3015 0205 9342     		.uleb128 0x2113
 3016 0207 18       		.uleb128 0x18
 3017 0208 01       		.uleb128 0x1
 3018 0209 13       		.uleb128 0x13
 3019 020a 00       		.byte	0
 3020 020b 00       		.byte	0
 3021 020c 28       		.uleb128 0x28
 3022 020d 898201   		.uleb128 0x4109
 3023 0210 01       		.byte	0x1
 3024 0211 11       		.uleb128 0x11
 3025 0212 01       		.uleb128 0x1
 3026 0213 31       		.uleb128 0x31
 3027 0214 13       		.uleb128 0x13
 3028 0215 00       		.byte	0
 3029 0216 00       		.byte	0
 3030 0217 29       		.uleb128 0x29
 3031 0218 2E       		.uleb128 0x2e
 3032 0219 01       		.byte	0x1
 3033 021a 3F       		.uleb128 0x3f
 3034 021b 19       		.uleb128 0x19
 3035 021c 03       		.uleb128 0x3
 3036 021d 08       		.uleb128 0x8
 3037 021e 3A       		.uleb128 0x3a
 3038 021f 0B       		.uleb128 0xb
 3039 0220 3B       		.uleb128 0x3b
GAS LISTING /cygdrive/c/DOCUME~1/andrey/LOCALS~1/Temp/cc8DOkPH.s 			page 59


 3040 0221 05       		.uleb128 0x5
 3041 0222 27       		.uleb128 0x27
 3042 0223 19       		.uleb128 0x19
 3043 0224 11       		.uleb128 0x11
 3044 0225 01       		.uleb128 0x1
 3045 0226 12       		.uleb128 0x12
 3046 0227 06       		.uleb128 0x6
 3047 0228 40       		.uleb128 0x40
 3048 0229 18       		.uleb128 0x18
 3049 022a 9742     		.uleb128 0x2117
 3050 022c 19       		.uleb128 0x19
 3051 022d 01       		.uleb128 0x1
 3052 022e 13       		.uleb128 0x13
 3053 022f 00       		.byte	0
 3054 0230 00       		.byte	0
 3055 0231 2A       		.uleb128 0x2a
 3056 0232 05       		.uleb128 0x5
 3057 0233 00       		.byte	0
 3058 0234 03       		.uleb128 0x3
 3059 0235 08       		.uleb128 0x8
 3060 0236 3A       		.uleb128 0x3a
 3061 0237 0B       		.uleb128 0xb
 3062 0238 3B       		.uleb128 0x3b
 3063 0239 05       		.uleb128 0x5
 3064 023a 49       		.uleb128 0x49
 3065 023b 13       		.uleb128 0x13
 3066 023c 02       		.uleb128 0x2
 3067 023d 18       		.uleb128 0x18
 3068 023e 00       		.byte	0
 3069 023f 00       		.byte	0
 3070 0240 2B       		.uleb128 0x2b
 3071 0241 1D       		.uleb128 0x1d
 3072 0242 01       		.byte	0x1
 3073 0243 31       		.uleb128 0x31
 3074 0244 13       		.uleb128 0x13
 3075 0245 11       		.uleb128 0x11
 3076 0246 01       		.uleb128 0x1
 3077 0247 12       		.uleb128 0x12
 3078 0248 06       		.uleb128 0x6
 3079 0249 58       		.uleb128 0x58
 3080 024a 0B       		.uleb128 0xb
 3081 024b 59       		.uleb128 0x59
 3082 024c 05       		.uleb128 0x5
 3083 024d 01       		.uleb128 0x1
 3084 024e 13       		.uleb128 0x13
 3085 024f 00       		.byte	0
 3086 0250 00       		.byte	0
 3087 0251 2C       		.uleb128 0x2c
 3088 0252 2E       		.uleb128 0x2e
 3089 0253 01       		.byte	0x1
 3090 0254 3F       		.uleb128 0x3f
 3091 0255 19       		.uleb128 0x19
 3092 0256 03       		.uleb128 0x3
 3093 0257 08       		.uleb128 0x8
 3094 0258 3A       		.uleb128 0x3a
 3095 0259 0B       		.uleb128 0xb
 3096 025a 3B       		.uleb128 0x3b
GAS LISTING /cygdrive/c/DOCUME~1/andrey/LOCALS~1/Temp/cc8DOkPH.s 			page 60


 3097 025b 05       		.uleb128 0x5
 3098 025c 27       		.uleb128 0x27
 3099 025d 19       		.uleb128 0x19
 3100 025e 49       		.uleb128 0x49
 3101 025f 13       		.uleb128 0x13
 3102 0260 11       		.uleb128 0x11
 3103 0261 01       		.uleb128 0x1
 3104 0262 12       		.uleb128 0x12
 3105 0263 06       		.uleb128 0x6
 3106 0264 40       		.uleb128 0x40
 3107 0265 18       		.uleb128 0x18
 3108 0266 9742     		.uleb128 0x2117
 3109 0268 19       		.uleb128 0x19
 3110 0269 01       		.uleb128 0x1
 3111 026a 13       		.uleb128 0x13
 3112 026b 00       		.byte	0
 3113 026c 00       		.byte	0
 3114 026d 2D       		.uleb128 0x2d
 3115 026e 34       		.uleb128 0x34
 3116 026f 00       		.byte	0
 3117 0270 03       		.uleb128 0x3
 3118 0271 08       		.uleb128 0x8
 3119 0272 3A       		.uleb128 0x3a
 3120 0273 0B       		.uleb128 0xb
 3121 0274 3B       		.uleb128 0x3b
 3122 0275 05       		.uleb128 0x5
 3123 0276 49       		.uleb128 0x49
 3124 0277 13       		.uleb128 0x13
 3125 0278 02       		.uleb128 0x2
 3126 0279 17       		.uleb128 0x17
 3127 027a 00       		.byte	0
 3128 027b 00       		.byte	0
 3129 027c 2E       		.uleb128 0x2e
 3130 027d 05       		.uleb128 0x5
 3131 027e 00       		.byte	0
 3132 027f 03       		.uleb128 0x3
 3133 0280 08       		.uleb128 0x8
 3134 0281 3A       		.uleb128 0x3a
 3135 0282 0B       		.uleb128 0xb
 3136 0283 3B       		.uleb128 0x3b
 3137 0284 05       		.uleb128 0x5
 3138 0285 49       		.uleb128 0x49
 3139 0286 13       		.uleb128 0x13
 3140 0287 02       		.uleb128 0x2
 3141 0288 17       		.uleb128 0x17
 3142 0289 00       		.byte	0
 3143 028a 00       		.byte	0
 3144 028b 2F       		.uleb128 0x2f
 3145 028c 34       		.uleb128 0x34
 3146 028d 00       		.byte	0
 3147 028e 03       		.uleb128 0x3
 3148 028f 08       		.uleb128 0x8
 3149 0290 3A       		.uleb128 0x3a
 3150 0291 0B       		.uleb128 0xb
 3151 0292 3B       		.uleb128 0x3b
 3152 0293 0B       		.uleb128 0xb
 3153 0294 49       		.uleb128 0x49
GAS LISTING /cygdrive/c/DOCUME~1/andrey/LOCALS~1/Temp/cc8DOkPH.s 			page 61


 3154 0295 13       		.uleb128 0x13
 3155 0296 3F       		.uleb128 0x3f
 3156 0297 19       		.uleb128 0x19
 3157 0298 3C       		.uleb128 0x3c
 3158 0299 19       		.uleb128 0x19
 3159 029a 00       		.byte	0
 3160 029b 00       		.byte	0
 3161 029c 30       		.uleb128 0x30
 3162 029d 2E       		.uleb128 0x2e
 3163 029e 00       		.byte	0
 3164 029f 3F       		.uleb128 0x3f
 3165 02a0 19       		.uleb128 0x19
 3166 02a1 03       		.uleb128 0x3
 3167 02a2 08       		.uleb128 0x8
 3168 02a3 3A       		.uleb128 0x3a
 3169 02a4 0B       		.uleb128 0xb
 3170 02a5 3B       		.uleb128 0x3b
 3171 02a6 0B       		.uleb128 0xb
 3172 02a7 27       		.uleb128 0x27
 3173 02a8 19       		.uleb128 0x19
 3174 02a9 3C       		.uleb128 0x3c
 3175 02aa 19       		.uleb128 0x19
 3176 02ab 00       		.byte	0
 3177 02ac 00       		.byte	0
 3178 02ad 31       		.uleb128 0x31
 3179 02ae 2E       		.uleb128 0x2e
 3180 02af 01       		.byte	0x1
 3181 02b0 3F       		.uleb128 0x3f
 3182 02b1 19       		.uleb128 0x19
 3183 02b2 03       		.uleb128 0x3
 3184 02b3 08       		.uleb128 0x8
 3185 02b4 3A       		.uleb128 0x3a
 3186 02b5 0B       		.uleb128 0xb
 3187 02b6 3B       		.uleb128 0x3b
 3188 02b7 0B       		.uleb128 0xb
 3189 02b8 27       		.uleb128 0x27
 3190 02b9 19       		.uleb128 0x19
 3191 02ba 49       		.uleb128 0x49
 3192 02bb 13       		.uleb128 0x13
 3193 02bc 3C       		.uleb128 0x3c
 3194 02bd 19       		.uleb128 0x19
 3195 02be 01       		.uleb128 0x1
 3196 02bf 13       		.uleb128 0x13
 3197 02c0 00       		.byte	0
 3198 02c1 00       		.byte	0
 3199 02c2 32       		.uleb128 0x32
 3200 02c3 2E       		.uleb128 0x2e
 3201 02c4 01       		.byte	0x1
 3202 02c5 3F       		.uleb128 0x3f
 3203 02c6 19       		.uleb128 0x19
 3204 02c7 03       		.uleb128 0x3
 3205 02c8 08       		.uleb128 0x8
 3206 02c9 3A       		.uleb128 0x3a
 3207 02ca 0B       		.uleb128 0xb
 3208 02cb 3B       		.uleb128 0x3b
 3209 02cc 0B       		.uleb128 0xb
 3210 02cd 27       		.uleb128 0x27
GAS LISTING /cygdrive/c/DOCUME~1/andrey/LOCALS~1/Temp/cc8DOkPH.s 			page 62


 3211 02ce 19       		.uleb128 0x19
 3212 02cf 3C       		.uleb128 0x3c
 3213 02d0 19       		.uleb128 0x19
 3214 02d1 01       		.uleb128 0x1
 3215 02d2 13       		.uleb128 0x13
 3216 02d3 00       		.byte	0
 3217 02d4 00       		.byte	0
 3218 02d5 00       		.byte	0
 3219              		.section	.debug_loc,"dr"
 3220              	Ldebug_loc0:
 3221              	LLST0:
 3222 0000 A3000000 		.long	LVL3-Ltext0
 3223 0004 BF000000 		.long	LVL5-Ltext0
 3224 0008 0100     		.word	0x1
 3225 000a 53       		.byte	0x53
 3226 000b 00000000 		.long	0
 3227 000f 00000000 		.long	0
 3228              	LLST1:
 3229 0013 A3000000 		.long	LVL3-Ltext0
 3230 0017 B1000000 		.long	LVL4-1-Ltext0
 3231 001b 0100     		.word	0x1
 3232 001d 50       		.byte	0x50
 3233 001e 00000000 		.long	0
 3234 0022 00000000 		.long	0
 3235              	LLST2:
 3236 0026 0E010000 		.long	LVL8-Ltext0
 3237 002a 24010000 		.long	LVL10-Ltext0
 3238 002e 0100     		.word	0x1
 3239 0030 53       		.byte	0x53
 3240 0031 00000000 		.long	0
 3241 0035 00000000 		.long	0
 3242              	LLST3:
 3243 0039 0E010000 		.long	LVL8-Ltext0
 3244 003d 1C010000 		.long	LVL9-1-Ltext0
 3245 0041 0100     		.word	0x1
 3246 0043 52       		.byte	0x52
 3247 0044 00000000 		.long	0
 3248 0048 00000000 		.long	0
 3249              	LLST4:
 3250 004c 9B010000 		.long	LVL16-Ltext0
 3251 0050 AD010000 		.long	LVL18-Ltext0
 3252 0054 0100     		.word	0x1
 3253 0056 56       		.byte	0x56
 3254 0057 AD010000 		.long	LVL18-Ltext0
 3255 005b AE010000 		.long	LVL19-Ltext0
 3256 005f 0100     		.word	0x1
 3257 0061 50       		.byte	0x50
 3258 0062 AE010000 		.long	LVL19-Ltext0
 3259 0066 B8010000 		.long	LVL20-Ltext0
 3260 006a 0100     		.word	0x1
 3261 006c 56       		.byte	0x56
 3262 006d 00000000 		.long	0
 3263 0071 00000000 		.long	0
 3264              	LLST5:
 3265 0075 7B010000 		.long	LVL14-Ltext0
 3266 0079 7F010000 		.long	LVL15-Ltext0
 3267 007d 0100     		.word	0x1
GAS LISTING /cygdrive/c/DOCUME~1/andrey/LOCALS~1/Temp/cc8DOkPH.s 			page 63


 3268 007f 50       		.byte	0x50
 3269 0080 B8010000 		.long	LVL20-Ltext0
 3270 0084 C0010000 		.long	LVL21-1-Ltext0
 3271 0088 0100     		.word	0x1
 3272 008a 50       		.byte	0x50
 3273 008b C0010000 		.long	LVL21-1-Ltext0
 3274 008f CC010000 		.long	LFE11-Ltext0
 3275 0093 0200     		.word	0x2
 3276 0095 91       		.byte	0x91
 3277 0096 6C       		.sleb128 -20
 3278 0097 00000000 		.long	0
 3279 009b 00000000 		.long	0
 3280              	LLST6:
 3281 009f D0010000 		.long	LVL22-Ltext0
 3282 00a3 F2010000 		.long	LVL25-Ltext0
 3283 00a7 0200     		.word	0x2
 3284 00a9 91       		.byte	0x91
 3285 00aa 04       		.sleb128 4
 3286 00ab F2010000 		.long	LVL25-Ltext0
 3287 00af 1E020000 		.long	LVL28-Ltext0
 3288 00b3 0700     		.word	0x7
 3289 00b5 91       		.byte	0x91
 3290 00b6 04       		.sleb128 4
 3291 00b7 06       		.byte	0x6
 3292 00b8 77       		.byte	0x77
 3293 00b9 00       		.sleb128 0
 3294 00ba 22       		.byte	0x22
 3295 00bb 9F       		.byte	0x9f
 3296 00bc 1E020000 		.long	LVL28-Ltext0
 3297 00c0 3F020000 		.long	LVL29-1-Ltext0
 3298 00c4 0800     		.word	0x8
 3299 00c6 71       		.byte	0x71
 3300 00c7 00       		.sleb128 0
 3301 00c8 77       		.byte	0x77
 3302 00c9 00       		.sleb128 0
 3303 00ca 22       		.byte	0x22
 3304 00cb 23       		.byte	0x23
 3305 00cc 01       		.uleb128 0x1
 3306 00cd 9F       		.byte	0x9f
 3307 00ce 3F020000 		.long	LVL29-1-Ltext0
 3308 00d2 44020000 		.long	LVL30-Ltext0
 3309 00d6 0900     		.word	0x9
 3310 00d8 91       		.byte	0x91
 3311 00d9 04       		.sleb128 4
 3312 00da 06       		.byte	0x6
 3313 00db 77       		.byte	0x77
 3314 00dc 00       		.sleb128 0
 3315 00dd 22       		.byte	0x22
 3316 00de 23       		.byte	0x23
 3317 00df 01       		.uleb128 0x1
 3318 00e0 9F       		.byte	0x9f
 3319 00e1 44020000 		.long	LVL30-Ltext0
 3320 00e5 58020000 		.long	LVL33-Ltext0
 3321 00e9 0700     		.word	0x7
 3322 00eb 91       		.byte	0x91
 3323 00ec 04       		.sleb128 4
 3324 00ed 06       		.byte	0x6
GAS LISTING /cygdrive/c/DOCUME~1/andrey/LOCALS~1/Temp/cc8DOkPH.s 			page 64


 3325 00ee 77       		.byte	0x77
 3326 00ef 00       		.sleb128 0
 3327 00f0 22       		.byte	0x22
 3328 00f1 9F       		.byte	0x9f
 3329 00f2 62020000 		.long	LVL36-Ltext0
 3330 00f6 83020000 		.long	LFE12-Ltext0
 3331 00fa 0200     		.word	0x2
 3332 00fc 91       		.byte	0x91
 3333 00fd 04       		.sleb128 4
 3334 00fe 00000000 		.long	0
 3335 0102 00000000 		.long	0
 3336              	LLST7:
 3337 0106 D0010000 		.long	LVL22-Ltext0
 3338 010a F2010000 		.long	LVL25-Ltext0
 3339 010e 0200     		.word	0x2
 3340 0110 91       		.byte	0x91
 3341 0111 08       		.sleb128 8
 3342 0112 F2010000 		.long	LVL25-Ltext0
 3343 0116 58020000 		.long	LVL33-Ltext0
 3344 011a 0700     		.word	0x7
 3345 011c 91       		.byte	0x91
 3346 011d 08       		.sleb128 8
 3347 011e 06       		.byte	0x6
 3348 011f 77       		.byte	0x77
 3349 0120 00       		.sleb128 0
 3350 0121 1C       		.byte	0x1c
 3351 0122 9F       		.byte	0x9f
 3352 0123 62020000 		.long	LVL36-Ltext0
 3353 0127 83020000 		.long	LFE12-Ltext0
 3354 012b 0200     		.word	0x2
 3355 012d 91       		.byte	0x91
 3356 012e 08       		.sleb128 8
 3357 012f 00000000 		.long	0
 3358 0133 00000000 		.long	0
 3359              	LLST8:
 3360 0137 E8010000 		.long	LVL23-Ltext0
 3361 013b 61020000 		.long	LVL35-Ltext0
 3362 013f 0100     		.word	0x1
 3363 0141 55       		.byte	0x55
 3364 0142 62020000 		.long	LVL36-Ltext0
 3365 0146 83020000 		.long	LFE12-Ltext0
 3366 014a 0100     		.word	0x1
 3367 014c 55       		.byte	0x55
 3368 014d 00000000 		.long	0
 3369 0151 00000000 		.long	0
 3370              	LLST9:
 3371 0155 E8010000 		.long	LVL23-Ltext0
 3372 0159 F2010000 		.long	LVL25-Ltext0
 3373 015d 0200     		.word	0x2
 3374 015f 30       		.byte	0x30
 3375 0160 9F       		.byte	0x9f
 3376 0161 F2010000 		.long	LVL25-Ltext0
 3377 0165 60020000 		.long	LVL34-Ltext0
 3378 0169 0100     		.word	0x1
 3379 016b 57       		.byte	0x57
 3380 016c 60020000 		.long	LVL34-Ltext0
 3381 0170 62020000 		.long	LVL36-Ltext0
GAS LISTING /cygdrive/c/DOCUME~1/andrey/LOCALS~1/Temp/cc8DOkPH.s 			page 65


 3382 0174 0100     		.word	0x1
 3383 0176 50       		.byte	0x50
 3384 0177 62020000 		.long	LVL36-Ltext0
 3385 017b 83020000 		.long	LFE12-Ltext0
 3386 017f 0200     		.word	0x2
 3387 0181 30       		.byte	0x30
 3388 0182 9F       		.byte	0x9f
 3389 0183 00000000 		.long	0
 3390 0187 00000000 		.long	0
 3391              	LLST10:
 3392 018b F4020000 		.long	LVL41-Ltext0
 3393 018f 10030000 		.long	LVL43-Ltext0
 3394 0193 0100     		.word	0x1
 3395 0195 53       		.byte	0x53
 3396 0196 00000000 		.long	0
 3397 019a 00000000 		.long	0
 3398              	LLST11:
 3399 019e F4020000 		.long	LVL41-Ltext0
 3400 01a2 02030000 		.long	LVL42-1-Ltext0
 3401 01a6 0100     		.word	0x1
 3402 01a8 50       		.byte	0x50
 3403 01a9 00000000 		.long	0
 3404 01ad 00000000 		.long	0
 3405              	LLST12:
 3406 01b1 49030000 		.long	LVL46-Ltext0
 3407 01b5 4D030000 		.long	LVL47-Ltext0
 3408 01b9 0100     		.word	0x1
 3409 01bb 50       		.byte	0x50
 3410 01bc 90030000 		.long	LVL50-Ltext0
 3411 01c0 98030000 		.long	LVL51-1-Ltext0
 3412 01c4 0100     		.word	0x1
 3413 01c6 50       		.byte	0x50
 3414 01c7 98030000 		.long	LVL51-1-Ltext0
 3415 01cb A5030000 		.long	LFE15-Ltext0
 3416 01cf 0200     		.word	0x2
 3417 01d1 91       		.byte	0x91
 3418 01d2 6C       		.sleb128 -20
 3419 01d3 00000000 		.long	0
 3420 01d7 00000000 		.long	0
 3421              	LLST13:
 3422 01db DB030000 		.long	LVL54-Ltext0
 3423 01df FE030000 		.long	LVL58-Ltext0
 3424 01e3 0100     		.word	0x1
 3425 01e5 56       		.byte	0x56
 3426 01e6 04040000 		.long	LVL59-Ltext0
 3427 01ea 0C040000 		.long	LVL60-Ltext0
 3428 01ee 0100     		.word	0x1
 3429 01f0 56       		.byte	0x56
 3430 01f1 00000000 		.long	0
 3431 01f5 00000000 		.long	0
 3432              	LLST14:
 3433 01f9 E3030000 		.long	LVL55-Ltext0
 3434 01fd F9030000 		.long	LVL57-Ltext0
 3435 0201 0100     		.word	0x1
 3436 0203 53       		.byte	0x53
 3437 0204 00000000 		.long	0
 3438 0208 00000000 		.long	0
GAS LISTING /cygdrive/c/DOCUME~1/andrey/LOCALS~1/Temp/cc8DOkPH.s 			page 66


 3439              	LLST15:
 3440 020c E3030000 		.long	LVL55-Ltext0
 3441 0210 F1030000 		.long	LVL56-1-Ltext0
 3442 0214 0100     		.word	0x1
 3443 0216 52       		.byte	0x52
 3444 0217 00000000 		.long	0
 3445 021b 00000000 		.long	0
 3446              	LLST16:
 3447 021f 20040000 		.long	LVL61-Ltext0
 3448 0223 4E040000 		.long	LVL64-Ltext0
 3449 0227 0200     		.word	0x2
 3450 0229 91       		.byte	0x91
 3451 022a 04       		.sleb128 4
 3452 022b 4E040000 		.long	LVL64-Ltext0
 3453 022f 63040000 		.long	LVL65-Ltext0
 3454 0233 0100     		.word	0x1
 3455 0235 51       		.byte	0x51
 3456 0236 63040000 		.long	LVL65-Ltext0
 3457 023a A0040000 		.long	LVL71-Ltext0
 3458 023e 0100     		.word	0x1
 3459 0240 57       		.byte	0x57
 3460 0241 A0040000 		.long	LVL71-Ltext0
 3461 0245 B2040000 		.long	LVL72-1-Ltext0
 3462 0249 0100     		.word	0x1
 3463 024b 51       		.byte	0x51
 3464 024c B2040000 		.long	LVL72-1-Ltext0
 3465 0250 C1040000 		.long	LVL74-Ltext0
 3466 0254 0200     		.word	0x2
 3467 0256 91       		.byte	0x91
 3468 0257 5C       		.sleb128 -36
 3469 0258 CB040000 		.long	LVL77-Ltext0
 3470 025c F9040000 		.long	LFE17-Ltext0
 3471 0260 0200     		.word	0x2
 3472 0262 91       		.byte	0x91
 3473 0263 04       		.sleb128 4
 3474 0264 00000000 		.long	0
 3475 0268 00000000 		.long	0
 3476              	LLST17:
 3477 026c 20040000 		.long	LVL61-Ltext0
 3478 0270 8E040000 		.long	LVL68-Ltext0
 3479 0274 0200     		.word	0x2
 3480 0276 91       		.byte	0x91
 3481 0277 08       		.sleb128 8
 3482 0278 8E040000 		.long	LVL68-Ltext0
 3483 027c 93040000 		.long	LVL69-Ltext0
 3484 0280 0600     		.word	0x6
 3485 0282 91       		.byte	0x91
 3486 0283 08       		.sleb128 8
 3487 0284 06       		.byte	0x6
 3488 0285 31       		.byte	0x31
 3489 0286 1C       		.byte	0x1c
 3490 0287 9F       		.byte	0x9f
 3491 0288 93040000 		.long	LVL69-Ltext0
 3492 028c F9040000 		.long	LFE17-Ltext0
 3493 0290 0200     		.word	0x2
 3494 0292 91       		.byte	0x91
 3495 0293 08       		.sleb128 8
GAS LISTING /cygdrive/c/DOCUME~1/andrey/LOCALS~1/Temp/cc8DOkPH.s 			page 67


 3496 0294 00000000 		.long	0
 3497 0298 00000000 		.long	0
 3498              	LLST18:
 3499 029c 38040000 		.long	LVL62-Ltext0
 3500 02a0 CA040000 		.long	LVL76-Ltext0
 3501 02a4 0100     		.word	0x1
 3502 02a6 55       		.byte	0x55
 3503 02a7 CB040000 		.long	LVL77-Ltext0
 3504 02ab F9040000 		.long	LFE17-Ltext0
 3505 02af 0100     		.word	0x1
 3506 02b1 55       		.byte	0x55
 3507 02b2 00000000 		.long	0
 3508 02b6 00000000 		.long	0
 3509              	LLST19:
 3510 02ba 38040000 		.long	LVL62-Ltext0
 3511 02be 4E040000 		.long	LVL64-Ltext0
 3512 02c2 0200     		.word	0x2
 3513 02c4 30       		.byte	0x30
 3514 02c5 9F       		.byte	0x9f
 3515 02c6 4E040000 		.long	LVL64-Ltext0
 3516 02ca C8040000 		.long	LVL75-Ltext0
 3517 02ce 0100     		.word	0x1
 3518 02d0 56       		.byte	0x56
 3519 02d1 C8040000 		.long	LVL75-Ltext0
 3520 02d5 CB040000 		.long	LVL77-Ltext0
 3521 02d9 0100     		.word	0x1
 3522 02db 50       		.byte	0x50
 3523 02dc CB040000 		.long	LVL77-Ltext0
 3524 02e0 F9040000 		.long	LFE17-Ltext0
 3525 02e4 0200     		.word	0x2
 3526 02e6 30       		.byte	0x30
 3527 02e7 9F       		.byte	0x9f
 3528 02e8 00000000 		.long	0
 3529 02ec 00000000 		.long	0
 3530              		.section	.debug_aranges,"dr"
 3531 0000 1C000000 		.long	0x1c
 3532 0004 0200     		.word	0x2
 3533 0006 00000000 		.secrel32	Ldebug_info0
 3534 000a 04       		.byte	0x4
 3535 000b 00       		.byte	0
 3536 000c 0000     		.word	0
 3537 000e 0000     		.word	0
 3538 0010 00000000 		.long	Ltext0
 3539 0014 F9040000 		.long	Letext0-Ltext0
 3540 0018 00000000 		.long	0
 3541 001c 00000000 		.long	0
 3542              		.section	.debug_ranges,"dr"
 3543              	Ldebug_ranges0:
 3544 0000 72010000 		.long	LBB18-Ltext0
 3545 0004 7F010000 		.long	LBE18-Ltext0
 3546 0008 BC010000 		.long	LBB19-Ltext0
 3547 000c C6010000 		.long	LBE19-Ltext0
 3548 0010 00000000 		.long	0
 3549 0014 00000000 		.long	0
 3550 0018 40030000 		.long	LBB22-Ltext0
 3551 001c 4D030000 		.long	LBE22-Ltext0
 3552 0020 94030000 		.long	LBB23-Ltext0
GAS LISTING /cygdrive/c/DOCUME~1/andrey/LOCALS~1/Temp/cc8DOkPH.s 			page 68


 3553 0024 9E030000 		.long	LBE23-Ltext0
 3554 0028 00000000 		.long	0
 3555 002c 00000000 		.long	0
 3556              		.section	.debug_line,"dr"
 3557              	Ldebug_line0:
 3558 0000 BF020000 		.section	.debug_str,"dr"
 3558      02005601 
 3558      00000101 
 3558      FB0E0D00 
 3558      01010101 
 3559              	LASF0:
 3560 0000 705F6E65 		.ascii "p_next\0"
 3560      787400
 3561              	LASF1:
 3562 0007 47656E65 		.ascii "GenericQueue\0"
 3562      72696351 
 3562      75657565 
 3562      00
 3563              		.ident	"GCC: (GNU) 4.8.2"
 3564              		.def	_chSchGoSleepTimeoutS;	.scl	2;	.type	32;	.endef
 3565              		.def	_chDbgCheckClassI;	.scl	2;	.type	32;	.endef
 3566              		.def	_chSchReadyI;	.scl	2;	.type	32;	.endef
 3567              		.def	_dbg_check_lock;	.scl	2;	.type	32;	.endef
 3568              		.def	_dbg_check_unlock;	.scl	2;	.type	32;	.endef
 3569              		.def	_chDbgPanic;	.scl	2;	.type	32;	.endef
GAS LISTING /cygdrive/c/DOCUME~1/andrey/LOCALS~1/Temp/cc8DOkPH.s 			page 69


DEFINED SYMBOLS
                            *ABS*:00000000 chqueues.c
/cygdrive/c/DOCUME~1/andrey/LOCALS~1/Temp/cc8DOkPH.s:69     .text:00000000 _qwait
/cygdrive/c/DOCUME~1/andrey/LOCALS~1/Temp/cc8DOkPH.s:121    .text:00000040 _chIQInit
/cygdrive/c/DOCUME~1/andrey/LOCALS~1/Temp/cc8DOkPH.s:155    .text:00000080 _chIQResetI
/cygdrive/c/DOCUME~1/andrey/LOCALS~1/Temp/cc8DOkPH.s:215    .text:000000d0 _chIQPutI
/cygdrive/c/DOCUME~1/andrey/LOCALS~1/Temp/cc8DOkPH.s:317    .text:00000150 _chIQGetTimeout
/cygdrive/c/DOCUME~1/andrey/LOCALS~1/Temp/cc8DOkPH.s:455    .text:000001d0 _chIQReadTimeout
/cygdrive/c/DOCUME~1/andrey/LOCALS~1/Temp/cc8DOkPH.s:617    .text:00000290 _chOQInit
/cygdrive/c/DOCUME~1/andrey/LOCALS~1/Temp/cc8DOkPH.s:652    .text:000002d0 _chOQResetI
/cygdrive/c/DOCUME~1/andrey/LOCALS~1/Temp/cc8DOkPH.s:717    .text:00000320 _chOQPutTimeout
/cygdrive/c/DOCUME~1/andrey/LOCALS~1/Temp/cc8DOkPH.s:853    .text:000003b0 _chOQGetI
/cygdrive/c/DOCUME~1/andrey/LOCALS~1/Temp/cc8DOkPH.s:957    .text:00000420 _chOQWriteTimeout

UNDEFINED SYMBOLS
_rlist
_chSchGoSleepTimeoutS
_chDbgCheckClassI
_chSchReadyI
_dbg_check_lock
_dbg_check_unlock
_chDbgPanic
