GAS LISTING /cygdrive/c/DOCUME~1/andrey/LOCALS~1/Temp/cc8DOkPH.s 			page 1


   1              		.file	"chqueues.c"
   2              	 # GNU C (GCC) version 4.8.2 (i686-pc-cygwin)
   3              	 #	compiled by GNU C version 4.8.2, GMP version 5.1.3, MPFR version 3.1.2, MPC version 1.0.1
   4              	 # GGC heuristics: --param ggc-min-expand=100 --param ggc-min-heapsize=131072
   5              	 # options passed:  -I . -I ../firmware/chibios/os/ports/GCC/SIMIA32
   6              	 # -I ../firmware/chibios/os/kernel/include
   7              	 # -I ../firmware/chibios/os/hal/include
   8              	 # -I ../firmware/chibios/os/hal/platforms/Win32
   9              	 # -I ../firmware/chibios/boards/simulator -I ../firmware/util
  10              	 # -I ../firmware/console -I ../firmware/console_util
  11              	 # -I ../firmware/config/engines -I ../firmware/ext_algo
  12              	 # -I ../firmware/controllers/sensors -I ../firmware/controllers/system
  13              	 # -I ../firmware/controllers/algo -I ../firmware/controllers/math
  14              	 # -I ../firmware/controllers/trigger -I ../firmware/chibios/os/various
  15              	 # -MD ../firmware/chibios/os/kernel/src/chqueues.d -MF .dep/chqueues.o.d
  16              	 # -MP -MQ ../firmware/chibios/os/kernel/src/chqueues.o -Dunix
  17              	 # -idirafter /usr/lib/gcc/i686-pc-cygwin/4.8.2/../../../../include/w32api
  18              	 # -idirafter ../../include/w32api -D SIMULATOR -D SHELL_USE_IPRINTF=FALSE
  19              	 # ../firmware/chibios/os/kernel/src/chqueues.c -mtune=generic -march=i686
  20              	 # -auxbase-strip ../firmware/chibios/os/kernel/src/chqueues.o -ggdb -O2
  21              	 # -Wall -Wextra -Wstrict-prototypes -std=gnu99 -fomit-frame-pointer
  22              	 # -fgnu89-inline -fverbose-asm
  23              	 # options enabled:  -faggressive-loop-optimizations
  24              	 # -fasynchronous-unwind-tables -fauto-inc-dec -fbranch-count-reg
  25              	 # -fcaller-saves -fcombine-stack-adjustments -fcommon -fcompare-elim
  26              	 # -fcprop-registers -fcrossjumping -fcse-follow-jumps -fdefer-pop
  27              	 # -fdelete-null-pointer-checks -fdevirtualize -fdwarf2-cfi-asm
  28              	 # -fearly-inlining -feliminate-unused-debug-types
  29              	 # -fexpensive-optimizations -fforward-propagate -ffunction-cse -fgcse
  30              	 # -fgcse-lm -fgnu-runtime -fguess-branch-probability
  31              	 # -fhoist-adjacent-loads -fident -fif-conversion -fif-conversion2
  32              	 # -findirect-inlining -finline -finline-atomics
  33              	 # -finline-functions-called-once -finline-small-functions -fipa-cp
  34              	 # -fipa-profile -fipa-pure-const -fipa-reference -fipa-sra
  35              	 # -fira-hoist-pressure -fira-share-save-slots -fira-share-spill-slots
  36              	 # -fivopts -fkeep-inline-dllexport -fkeep-static-consts
  37              	 # -fleading-underscore -fmath-errno -fmerge-constants
  38              	 # -fmerge-debug-strings -fmove-loop-invariants -fomit-frame-pointer
  39              	 # -foptimize-register-move -foptimize-sibling-calls -foptimize-strlen
  40              	 # -fpartial-inlining -fpeephole -fpeephole2 -fprefetch-loop-arrays -free
  41              	 # -freg-struct-return -fregmove -freorder-blocks -freorder-functions
  42              	 # -frerun-cse-after-loop -fsched-critical-path-heuristic
  43              	 # -fsched-dep-count-heuristic -fsched-group-heuristic -fsched-interblock
  44              	 # -fsched-last-insn-heuristic -fsched-rank-heuristic -fsched-spec
  45              	 # -fsched-spec-insn-heuristic -fsched-stalled-insns-dep -fschedule-insns2
  46              	 # -fset-stack-executable -fshow-column -fshrink-wrap -fsigned-zeros
  47              	 # -fsplit-ivs-in-unroller -fsplit-wide-types -fstrict-aliasing
  48              	 # -fstrict-overflow -fstrict-volatile-bitfields -fsync-libcalls
  49              	 # -fthread-jumps -ftoplevel-reorder -ftrapping-math -ftree-bit-ccp
  50              	 # -ftree-builtin-call-dce -ftree-ccp -ftree-ch -ftree-coalesce-vars
  51              	 # -ftree-copy-prop -ftree-copyrename -ftree-cselim -ftree-dce
  52              	 # -ftree-dominator-opts -ftree-dse -ftree-forwprop -ftree-fre
  53              	 # -ftree-loop-if-convert -ftree-loop-im -ftree-loop-ivcanon
  54              	 # -ftree-loop-optimize -ftree-parallelize-loops= -ftree-phiprop -ftree-pre
  55              	 # -ftree-pta -ftree-reassoc -ftree-scev-cprop -ftree-sink
  56              	 # -ftree-slp-vectorize -ftree-slsr -ftree-sra -ftree-switch-conversion
  57              	 # -ftree-tail-merge -ftree-ter -ftree-vect-loop-version -ftree-vrp
GAS LISTING /cygdrive/c/DOCUME~1/andrey/LOCALS~1/Temp/cc8DOkPH.s 			page 2


  58              	 # -funit-at-a-time -funwind-tables -fvar-tracking
  59              	 # -fvar-tracking-assignments -fverbose-asm -fzero-initialized-in-bss -m32
  60              	 # -m80387 -m96bit-long-double -maccumulate-outgoing-args -malign-double
  61              	 # -malign-stringops -mfancy-math-387 -mfp-ret-in-387 -mieee-fp
  62              	 # -mlong-double-80 -mno-red-zone -mno-sse4 -mpush-args -msahf
  63              	 # -mstack-arg-probe
  64              	
  65              		.text
  66              	Ltext0:
  67              		.p2align 4,,15
  68              		.def	_qwait;	.scl	3;	.type	32;	.endef
  69              	_qwait:
  70              	LFB7:
  71              		.file 1 "../firmware/chibios/os/kernel/src/chqueues.c"
  72              		.loc 1 70 0
  73              		.cfi_startproc
  74              		.loc 1 72 0
  75 0000 85D2     		testl	%edx, %edx	 # time
  76 0002 742F     		je	L3	 #,
  77              		.loc 1 70 0
  78 0004 53       		pushl	%ebx	 #
  79              		.cfi_def_cfa_offset 8
  80              		.cfi_offset 3, -8
  81 0005 83EC18   		subl	$24, %esp	 #,
  82              		.cfi_def_cfa_offset 32
  83              		.loc 1 74 0
  84 0008 8B0D1800 		movl	_rlist+24, %ecx	 # rlist.r_current, D.2311
  84      0000
  85 000e 894124   		movl	%eax, 36(%ecx)	 # qp, _5->p_u.wtobjp
  86              	LBB12:
  87              	LBB13:
  88              		.file 2 "../firmware/chibios/os/kernel/include/chinline.h"
  89              		.loc 2 55 0
  90 0011 8B5804   		movl	4(%eax), %ebx	 # MEM[(struct ThreadsQueue *)qp_6(D)].p_prev, D.2311
  91              		.loc 2 54 0
  92 0014 8901     		movl	%eax, (%ecx)	 # qp, _5->p_next
  93              		.loc 2 55 0
  94 0016 895904   		movl	%ebx, 4(%ecx)	 # D.2311, _5->p_prev
  95              		.loc 2 56 0
  96 0019 894804   		movl	%ecx, 4(%eax)	 # D.2311, MEM[(struct ThreadsQueue *)qp_6(D)].p_prev
  97 001c 890B     		movl	%ecx, (%ebx)	 # D.2311, _12->p_next
  98              	LBE13:
  99              	LBE12:
 100              		.loc 1 76 0
 101 001e 89542404 		movl	%edx, 4(%esp)	 # time,
 102 0022 C704240D 		movl	$13, (%esp)	 #,
 102      000000
 103 0029 E8000000 		call	_chSchGoSleepTimeoutS	 #
 103      00
 104              		.loc 1 77 0
 105 002e 83C418   		addl	$24, %esp	 #,
 106              		.cfi_def_cfa_offset 8
 107 0031 5B       		popl	%ebx	 #
 108              		.cfi_restore 3
 109              		.cfi_def_cfa_offset 4
 110 0032 C3       		ret
 111              		.p2align 4,,7
GAS LISTING /cygdrive/c/DOCUME~1/andrey/LOCALS~1/Temp/cc8DOkPH.s 			page 3


 112              	L3:
 113              		.loc 1 73 0
 114 0033 B8FFFFFF 		movl	$-1, %eax	 #, D.2310
 114      FF
 115 0038 C3       		ret
 116              		.cfi_endproc
 117              	LFE7:
 118 0039 8DB42600 		.p2align 4,,15
 118      000000
 119              		.globl	_chIQInit
 120              		.def	_chIQInit;	.scl	2;	.type	32;	.endef
 121              	_chIQInit:
 122              	LFB8:
 123              		.loc 1 96 0
 124              		.cfi_startproc
 125              	LVL0:
 126              		.loc 1 96 0
 127 0040 8B442404 		movl	4(%esp), %eax	 # iqp, iqp
 128 0044 8B542408 		movl	8(%esp), %edx	 # bp, bp
 129              		.loc 1 98 0
 130 0048 894004   		movl	%eax, 4(%eax)	 # iqp, iqp_1(D)->q_waiting.p_prev
 131              		.loc 1 100 0
 132 004b 895014   		movl	%edx, 20(%eax)	 # bp, iqp_1(D)->q_wrptr
 133 004e 895018   		movl	%edx, 24(%eax)	 # bp, iqp_1(D)->q_rdptr
 134 0051 89500C   		movl	%edx, 12(%eax)	 # bp, iqp_1(D)->q_buffer
 135              		.loc 1 101 0
 136 0054 0354240C 		addl	12(%esp), %edx	 # size, tmp66
 137              		.loc 1 98 0
 138 0058 8900     		movl	%eax, (%eax)	 # iqp, iqp_1(D)->q_waiting.p_next
 139              		.loc 1 99 0
 140 005a C7400800 		movl	$0, 8(%eax)	 #, iqp_1(D)->q_counter
 140      000000
 141              		.loc 1 101 0
 142 0061 895010   		movl	%edx, 16(%eax)	 # tmp66, iqp_1(D)->q_top
 143              		.loc 1 102 0
 144 0064 8B542410 		movl	16(%esp), %edx	 # infy, infy
 145 0068 89501C   		movl	%edx, 28(%eax)	 # infy, iqp_1(D)->q_notify
 146              		.loc 1 103 0
 147 006b 8B542414 		movl	20(%esp), %edx	 # link, link
 148 006f 895020   		movl	%edx, 32(%eax)	 # link, iqp_1(D)->q_link
 149 0072 C3       		ret
 150              		.cfi_endproc
 151              	LFE8:
 152 0073 8DB60000 		.p2align 4,,15
 152      00008DBC 
 152      27000000 
 152      00
 153              		.globl	_chIQResetI
 154              		.def	_chIQResetI;	.scl	2;	.type	32;	.endef
 155              	_chIQResetI:
 156              	LFB9:
 157              		.loc 1 117 0
 158              		.cfi_startproc
 159              	LVL1:
 160 0080 53       		pushl	%ebx	 #
 161              		.cfi_def_cfa_offset 8
 162              		.cfi_offset 3, -8
GAS LISTING /cygdrive/c/DOCUME~1/andrey/LOCALS~1/Temp/cc8DOkPH.s 			page 4


 163 0081 83EC18   		subl	$24, %esp	 #,
 164              		.cfi_def_cfa_offset 32
 165              		.loc 1 117 0
 166 0084 8B5C2420 		movl	32(%esp), %ebx	 # iqp, iqp
 167              		.loc 1 119 0
 168 0088 E8000000 		call	_chDbgCheckClassI	 #
 168      00
 169              	LVL2:
 170              		.loc 1 121 0
 171 008d 8B430C   		movl	12(%ebx), %eax	 # iqp_4(D)->q_buffer, D.2319
 172              		.loc 1 122 0
 173 0090 C7430800 		movl	$0, 8(%ebx)	 #, iqp_4(D)->q_counter
 173      000000
 174              		.loc 1 121 0
 175 0097 894314   		movl	%eax, 20(%ebx)	 # D.2319, iqp_4(D)->q_wrptr
 176 009a 894318   		movl	%eax, 24(%ebx)	 # D.2319, iqp_4(D)->q_rdptr
 177              		.loc 1 123 0
 178 009d 8B03     		movl	(%ebx), %eax	 # iqp_4(D)->q_waiting.p_next, D.2320
 179 009f 39D8     		cmpl	%ebx, %eax	 # iqp, D.2320
 180 00a1 741C     		je	L8	 #,
 181              		.p2align 4,,7
 182              	L12:
 183              	LVL3:
 184              	LBB14:
 185              	LBB15:
 186              		.loc 2 62 0
 187 00a3 8B10     		movl	(%eax), %edx	 # _23->p_next, D.2320
 188 00a5 8913     		movl	%edx, (%ebx)	 # D.2320, MEM[(struct ThreadsQueue *)iqp_4(D)].p_next
 189 00a7 895A04   		movl	%ebx, 4(%edx)	 # iqp, _15->p_prev
 190              	LBE15:
 191              	LBE14:
 192              		.loc 1 124 0
 193 00aa 890424   		movl	%eax, (%esp)	 # D.2320,
 194 00ad E8000000 		call	_chSchReadyI	 #
 194      00
 195              	LVL4:
 196 00b2 C74024FE 		movl	$-2, 36(%eax)	 #, _13->p_u.rdymsg
 196      FFFFFF
 197              		.loc 1 123 0
 198 00b9 8B03     		movl	(%ebx), %eax	 # iqp_4(D)->q_waiting.p_next, D.2320
 199 00bb 39D8     		cmpl	%ebx, %eax	 # iqp, D.2320
 200 00bd 75E4     		jne	L12	 #,
 201              	LVL5:
 202              	L8:
 203              		.loc 1 125 0
 204 00bf 83C418   		addl	$24, %esp	 #,
 205              		.cfi_def_cfa_offset 8
 206 00c2 5B       		popl	%ebx	 #
 207              		.cfi_restore 3
 208              		.cfi_def_cfa_offset 4
 209 00c3 C3       		ret
 210              		.cfi_endproc
 211              	LFE9:
 212 00c4 8DB60000 		.p2align 4,,15
 212      00008DBF 
 212      00000000 
 213              		.globl	_chIQPutI
GAS LISTING /cygdrive/c/DOCUME~1/andrey/LOCALS~1/Temp/cc8DOkPH.s 			page 5


 214              		.def	_chIQPutI;	.scl	2;	.type	32;	.endef
 215              	_chIQPutI:
 216              	LFB10:
 217              		.loc 1 140 0
 218              		.cfi_startproc
 219              	LVL6:
 220 00d0 57       		pushl	%edi	 #
 221              		.cfi_def_cfa_offset 8
 222              		.cfi_offset 7, -8
 223 00d1 56       		pushl	%esi	 #
 224              		.cfi_def_cfa_offset 12
 225              		.cfi_offset 6, -12
 226 00d2 53       		pushl	%ebx	 #
 227              		.cfi_def_cfa_offset 16
 228              		.cfi_offset 3, -16
 229 00d3 83EC10   		subl	$16, %esp	 #,
 230              		.cfi_def_cfa_offset 32
 231              		.loc 1 140 0
 232 00d6 8B5C2420 		movl	32(%esp), %ebx	 # iqp, iqp
 233 00da 8B7C2424 		movl	36(%esp), %edi	 # b, b
 234              		.loc 1 142 0
 235 00de E8000000 		call	_chDbgCheckClassI	 #
 235      00
 236              	LVL7:
 237              		.loc 1 144 0
 238 00e3 8B5314   		movl	20(%ebx), %edx	 # iqp_7(D)->q_wrptr, D.2325
 239 00e6 3B5318   		cmpl	24(%ebx), %edx	 # iqp_7(D)->q_rdptr, D.2325
 240 00e9 744D     		je	L24	 #,
 241 00eb 8B4308   		movl	8(%ebx), %eax	 # iqp_7(D)->q_counter, D.2329
 242              	L17:
 243              		.loc 1 147 0
 244 00ee 83C001   		addl	$1, %eax	 #, tmp79
 245 00f1 894308   		movl	%eax, 8(%ebx)	 # tmp79, iqp_7(D)->q_counter
 246              		.loc 1 148 0
 247 00f4 8D4201   		leal	1(%edx), %eax	 #, tmp80
 248 00f7 894314   		movl	%eax, 20(%ebx)	 # tmp80, iqp_7(D)->q_wrptr
 249 00fa 89F8     		movl	%edi, %eax	 # b, tmp82
 250 00fc 8802     		movb	%al, (%edx)	 # tmp82, *_8
 251              		.loc 1 149 0
 252 00fe 8B4310   		movl	16(%ebx), %eax	 # iqp_7(D)->q_top, tmp83
 253 0101 394314   		cmpl	%eax, 20(%ebx)	 # tmp83, iqp_7(D)->q_wrptr
 254 0104 732A     		jae	L18	 #,
 255              	L19:
 256              		.loc 1 152 0
 257 0106 8B13     		movl	(%ebx), %edx	 # iqp_7(D)->q_waiting.p_next, D.2327
 258              		.loc 1 155 0
 259 0108 31F6     		xorl	%esi, %esi	 # D.2324
 260              		.loc 1 152 0
 261 010a 39DA     		cmpl	%ebx, %edx	 # iqp, D.2327
 262 010c 7416     		je	L22	 #,
 263              	LVL8:
 264              	LBB16:
 265              	LBB17:
 266              		.loc 2 62 0
 267 010e 8B02     		movl	(%edx), %eax	 # _23->p_next, D.2327
 268 0110 8903     		movl	%eax, (%ebx)	 # D.2327, MEM[(struct ThreadsQueue *)iqp_7(D)].p_next
 269 0112 895804   		movl	%ebx, 4(%eax)	 # iqp, _29->p_prev
GAS LISTING /cygdrive/c/DOCUME~1/andrey/LOCALS~1/Temp/cc8DOkPH.s 			page 6


 270              	LBE17:
 271              	LBE16:
 272              		.loc 1 153 0
 273 0115 891424   		movl	%edx, (%esp)	 # D.2327,
 274 0118 E8000000 		call	_chSchReadyI	 #
 274      00
 275              	LVL9:
 276 011d C7402400 		movl	$0, 36(%eax)	 #, _27->p_u.rdymsg
 276      000000
 277              	LVL10:
 278              	L22:
 279              		.loc 1 156 0
 280 0124 83C410   		addl	$16, %esp	 #,
 281              		.cfi_remember_state
 282              		.cfi_def_cfa_offset 16
 283 0127 89F0     		movl	%esi, %eax	 # D.2324,
 284 0129 5B       		popl	%ebx	 #
 285              		.cfi_restore 3
 286              		.cfi_def_cfa_offset 12
 287 012a 5E       		popl	%esi	 #
 288              		.cfi_restore 6
 289              		.cfi_def_cfa_offset 8
 290 012b 5F       		popl	%edi	 #
 291              		.cfi_restore 7
 292              		.cfi_def_cfa_offset 4
 293 012c C3       		ret
 294 012d 8D7600   		.p2align 4,,7
 295              	L18:
 296              		.cfi_restore_state
 297              		.loc 1 150 0
 298 0130 8B430C   		movl	12(%ebx), %eax	 # iqp_7(D)->q_buffer, iqp_7(D)->q_buffer
 299 0133 894314   		movl	%eax, 20(%ebx)	 # iqp_7(D)->q_buffer, iqp_7(D)->q_wrptr
 300 0136 EBCE     		jmp	L19	 #
 301              		.p2align 4,,7
 302              	L24:
 303              		.loc 1 144 0 discriminator 1
 304 0138 8B4308   		movl	8(%ebx), %eax	 # iqp_7(D)->q_counter,
 305              		.loc 1 145 0 discriminator 1
 306 013b BEFCFFFF 		movl	$-4, %esi	 #, D.2324
 306      FF
 307              		.loc 1 144 0 discriminator 1
 308 0140 85C0     		testl	%eax, %eax	 #
 309 0142 75E0     		jne	L22	 #,
 310 0144 31C0     		xorl	%eax, %eax	 # D.2329
 311 0146 EBA6     		jmp	L17	 #
 312              		.cfi_endproc
 313              	LFE10:
 314 0148 908DB426 		.p2align 4,,15
 314      00000000 
 315              		.globl	_chIQGetTimeout
 316              		.def	_chIQGetTimeout;	.scl	2;	.type	32;	.endef
 317              	_chIQGetTimeout:
 318              	LFB11:
 319              		.loc 1 178 0
 320              		.cfi_startproc
 321              	LVL11:
 322 0150 56       		pushl	%esi	 #
GAS LISTING /cygdrive/c/DOCUME~1/andrey/LOCALS~1/Temp/cc8DOkPH.s 			page 7


 323              		.cfi_def_cfa_offset 8
 324              		.cfi_offset 6, -8
 325 0151 53       		pushl	%ebx	 #
 326              		.cfi_def_cfa_offset 12
 327              		.cfi_offset 3, -12
 328 0152 83EC14   		subl	$20, %esp	 #,
 329              		.cfi_def_cfa_offset 32
 330              		.loc 1 178 0
 331 0155 8B5C2420 		movl	32(%esp), %ebx	 # iqp, iqp
 332 0159 8B742424 		movl	36(%esp), %esi	 # time, time
 333              		.loc 1 181 0
 334              	/APP
 335              	 # 181 "../firmware/chibios/os/kernel/src/chqueues.c" 1
 336 015d 90       		nop
 337              	 # 0 "" 2
 338              	/NO_APP
 339 015e E8000000 		call	_dbg_check_lock	 #
 339      00
 340              	LVL12:
 341              		.loc 1 182 0
 342 0163 8B431C   		movl	28(%ebx), %eax	 # iqp_7(D)->q_notify, D.2334
 343 0166 85C0     		testl	%eax, %eax	 # D.2334
 344 0168 7415     		je	L28	 #,
 345              		.loc 1 183 0
 346 016a 891C24   		movl	%ebx, (%esp)	 # iqp,
 347 016d FFD0     		call	*%eax	 # D.2334
 348              	LVL13:
 349 016f 90       		.p2align 4,,3
 350 0170 EB0D     		jmp	L28	 #
 351              		.p2align 4,,7
 352              	L30:
 353              	LBB18:
 354              		.loc 1 187 0
 355 0172 89F2     		movl	%esi, %edx	 # time,
 356 0174 89D8     		movl	%ebx, %eax	 # iqp,
 357 0176 E885FEFF 		call	_qwait	 #
 357      FF
 358              	LVL14:
 359 017b 85C0     		testl	%eax, %eax	 # msg
 360              		.p2align 4,,2
 361 017d 7839     		js	L36	 #,
 362              	LVL15:
 363              	L28:
 364              	LBE18:
 365              		.loc 1 185 0 discriminator 1
 366 017f 8B4308   		movl	8(%ebx), %eax	 # iqp_7(D)->q_counter, D.2335
 367 0182 85C0     		testl	%eax, %eax	 # D.2335
 368 0184 74EC     		je	L30	 #,
 369              		.loc 1 193 0
 370 0186 83E801   		subl	$1, %eax	 #, tmp72
 371 0189 894308   		movl	%eax, 8(%ebx)	 # tmp72, iqp_7(D)->q_counter
 372              		.loc 1 194 0
 373 018c 8B4318   		movl	24(%ebx), %eax	 # iqp_7(D)->q_rdptr, D.2336
 374 018f 8D5001   		leal	1(%eax), %edx	 #, D.2336
 375              		.loc 1 195 0
 376 0192 3B5310   		cmpl	16(%ebx), %edx	 # iqp_7(D)->q_top, D.2336
 377              		.loc 1 194 0
GAS LISTING /cygdrive/c/DOCUME~1/andrey/LOCALS~1/Temp/cc8DOkPH.s 			page 8


 378 0195 895318   		movl	%edx, 24(%ebx)	 # D.2336, iqp_7(D)->q_rdptr
 379 0198 0FB630   		movzbl	(%eax), %esi	 # *_18, b
 380              	LVL16:
 381              		.loc 1 195 0
 382 019b 7313     		jae	L37	 #,
 383              	L31:
 384              		.loc 1 198 0
 385 019d E8000000 		call	_dbg_check_unlock	 #
 385      00
 386              	LVL17:
 387              	/APP
 388              	 # 198 "../firmware/chibios/os/kernel/src/chqueues.c" 1
 389 01a2 90       		nop
 390              	 # 0 "" 2
 391              		.loc 1 199 0
 392              	/NO_APP
 393 01a3 89F0     		movl	%esi, %eax	 # b, b
 394              		.loc 1 200 0
 395 01a5 83C414   		addl	$20, %esp	 #,
 396              		.cfi_remember_state
 397              		.cfi_def_cfa_offset 12
 398              		.loc 1 199 0
 399 01a8 0FB6C0   		movzbl	%al, %eax	 # b, D.2333
 400              		.loc 1 200 0
 401 01ab 5B       		popl	%ebx	 #
 402              		.cfi_restore 3
 403              		.cfi_def_cfa_offset 8
 404 01ac 5E       		popl	%esi	 #
 405              		.cfi_restore 6
 406              		.cfi_def_cfa_offset 4
 407              	LVL18:
 408 01ad C3       		ret
 409              	LVL19:
 410 01ae 6690     		.p2align 4,,7
 411              	L37:
 412              		.cfi_restore_state
 413              		.loc 1 196 0
 414 01b0 8B430C   		movl	12(%ebx), %eax	 # iqp_7(D)->q_buffer, iqp_7(D)->q_buffer
 415 01b3 894318   		movl	%eax, 24(%ebx)	 # iqp_7(D)->q_buffer, iqp_7(D)->q_rdptr
 416 01b6 EBE5     		jmp	L31	 #
 417              	LVL20:
 418              		.p2align 4,,7
 419              	L36:
 420 01b8 8944240C 		movl	%eax, 12(%esp)	 # msg, %sfp
 421              	LBB19:
 422              		.loc 1 188 0
 423 01bc E8000000 		call	_dbg_check_unlock	 #
 423      00
 424              	LVL21:
 425              	/APP
 426              	 # 188 "../firmware/chibios/os/kernel/src/chqueues.c" 1
 427 01c1 90       		nop
 428              	 # 0 "" 2
 429              		.loc 1 187 0
 430              	/NO_APP
 431 01c2 8B44240C 		movl	12(%esp), %eax	 # %sfp, msg
 432              	LBE19:
GAS LISTING /cygdrive/c/DOCUME~1/andrey/LOCALS~1/Temp/cc8DOkPH.s 			page 9


 433              		.loc 1 200 0
 434 01c6 83C414   		addl	$20, %esp	 #,
 435              		.cfi_def_cfa_offset 12
 436 01c9 5B       		popl	%ebx	 #
 437              		.cfi_restore 3
 438              		.cfi_def_cfa_offset 8
 439 01ca 5E       		popl	%esi	 #
 440              		.cfi_restore 6
 441              		.cfi_def_cfa_offset 4
 442 01cb C3       		ret
 443              		.cfi_endproc
 444              	LFE11:
 445              		.section .rdata,"dr"
 446              		.align 4
 447              	LC0:
 448 0000 2E2E2F66 		.ascii "../firmware/chibios/os/kernel/src/chqueues.c\0"
 448      69726D77 
 448      6172652F 
 448      63686962 
 448      696F732F 
 449              	LC1:
 450 002d 22636849 		.ascii "\"chIQReadTimeout\"()\0"
 450      51526561 
 450      6454696D 
 450      656F7574 
 450      22282900 
 451              		.text
 452 01cc 8D742600 		.p2align 4,,15
 453              		.globl	_chIQReadTimeout
 454              		.def	_chIQReadTimeout;	.scl	2;	.type	32;	.endef
 455              	_chIQReadTimeout:
 456              	LFB12:
 457              		.loc 1 227 0
 458              		.cfi_startproc
 459              	LVL22:
 460 01d0 55       		pushl	%ebp	 #
 461              		.cfi_def_cfa_offset 8
 462              		.cfi_offset 5, -8
 463 01d1 57       		pushl	%edi	 #
 464              		.cfi_def_cfa_offset 12
 465              		.cfi_offset 7, -12
 466 01d2 56       		pushl	%esi	 #
 467              		.cfi_def_cfa_offset 16
 468              		.cfi_offset 6, -16
 469 01d3 53       		pushl	%ebx	 #
 470              		.cfi_def_cfa_offset 20
 471              		.cfi_offset 3, -20
 472 01d4 83EC1C   		subl	$28, %esp	 #,
 473              		.cfi_def_cfa_offset 48
 474              		.loc 1 231 0
 475 01d7 8B542438 		movl	56(%esp), %edx	 # n,
 476              		.loc 1 227 0
 477 01db 8B5C2430 		movl	48(%esp), %ebx	 # iqp, iqp
 478 01df 8B74243C 		movl	60(%esp), %esi	 # time, time
 479              		.loc 1 231 0
 480 01e3 85D2     		testl	%edx, %edx	 #
 481              		.loc 1 228 0
GAS LISTING /cygdrive/c/DOCUME~1/andrey/LOCALS~1/Temp/cc8DOkPH.s 			page 10


 482 01e5 8B6B1C   		movl	28(%ebx), %ebp	 # iqp_11(D)->q_notify, nfy
 483              	LVL23:
 484              		.loc 1 231 0
 485 01e8 7478     		je	L53	 #,
 486              	L39:
 487              		.loc 1 233 0
 488              	/APP
 489              	 # 233 "../firmware/chibios/os/kernel/src/chqueues.c" 1
 490 01ea 90       		nop
 491              	 # 0 "" 2
 492              	/NO_APP
 493 01eb E8000000 		call	_dbg_check_lock	 #
 493      00
 494              	LVL24:
 495              		.loc 1 229 0
 496 01f0 31FF     		xorl	%edi, %edi	 # r
 497              	LVL25:
 498              	L46:
 499              		.loc 1 235 0
 500 01f2 85ED     		testl	%ebp, %ebp	 # nfy
 501 01f4 7417     		je	L42	 #,
 502              		.loc 1 236 0
 503 01f6 891C24   		movl	%ebx, (%esp)	 # iqp,
 504 01f9 FFD5     		call	*%ebp	 # nfy
 505              	LVL26:
 506              		.p2align 4,,4
 507 01fb EB10     		jmp	L42	 #
 508 01fd 8D7600   		.p2align 4,,7
 509              	L44:
 510              		.loc 1 239 0
 511 0200 89F2     		movl	%esi, %edx	 # time,
 512 0202 89D8     		movl	%ebx, %eax	 # iqp,
 513 0204 E8F7FDFF 		call	_qwait	 #
 513      FF
 514              	LVL27:
 515 0209 85C0     		testl	%eax, %eax	 # D.2356
 516              		.p2align 4,,2
 517 020b 7545     		jne	L54	 #,
 518              	L42:
 519              		.loc 1 238 0 discriminator 1
 520 020d 8B4308   		movl	8(%ebx), %eax	 # iqp_11(D)->q_counter, D.2355
 521 0210 85C0     		testl	%eax, %eax	 # D.2355
 522 0212 74EC     		je	L44	 #,
 523              		.loc 1 245 0
 524 0214 83E801   		subl	$1, %eax	 #, tmp75
 525              		.loc 1 246 0
 526 0217 8B4C2434 		movl	52(%esp), %ecx	 # bp, tmp89
 527              		.loc 1 245 0
 528 021b 894308   		movl	%eax, 8(%ebx)	 # tmp75, iqp_11(D)->q_counter
 529              	LVL28:
 530              		.loc 1 246 0
 531 021e 8B4318   		movl	24(%ebx), %eax	 # iqp_11(D)->q_rdptr, D.2357
 532 0221 8D5001   		leal	1(%eax), %edx	 #, tmp76
 533 0224 895318   		movl	%edx, 24(%ebx)	 # tmp76, iqp_11(D)->q_rdptr
 534 0227 0FB600   		movzbl	(%eax), %eax	 # *_27, D.2358
 535 022a 880439   		movb	%al, (%ecx,%edi)	 # D.2358, MEM[base: bp_16(D), index: r_3, offset: 0B]
 536              		.loc 1 247 0
GAS LISTING /cygdrive/c/DOCUME~1/andrey/LOCALS~1/Temp/cc8DOkPH.s 			page 11


 537 022d 8B4310   		movl	16(%ebx), %eax	 # iqp_11(D)->q_top, tmp90
 538 0230 394318   		cmpl	%eax, 24(%ebx)	 # tmp90, iqp_11(D)->q_rdptr
 539 0233 7206     		jb	L45	 #,
 540              		.loc 1 248 0
 541 0235 8B430C   		movl	12(%ebx), %eax	 # iqp_11(D)->q_buffer, iqp_11(D)->q_buffer
 542 0238 894318   		movl	%eax, 24(%ebx)	 # iqp_11(D)->q_buffer, iqp_11(D)->q_rdptr
 543              	L45:
 544              		.loc 1 250 0
 545 023b E8000000 		call	_dbg_check_unlock	 #
 545      00
 546              	LVL29:
 547              	/APP
 548              	 # 250 "../firmware/chibios/os/kernel/src/chqueues.c" 1
 549 0240 90       		nop
 550              	 # 0 "" 2
 551              		.loc 1 251 0
 552              	/NO_APP
 553 0241 83C701   		addl	$1, %edi	 #, r
 554              	LVL30:
 555              		.loc 1 252 0
 556 0244 397C2438 		cmpl	%edi, 56(%esp)	 # r, n
 557 0248 740E     		je	L43	 #,
 558              		.loc 1 255 0
 559              	/APP
 560              	 # 255 "../firmware/chibios/os/kernel/src/chqueues.c" 1
 561 024a 90       		nop
 562              	 # 0 "" 2
 563              	/NO_APP
 564 024b E8000000 		call	_dbg_check_lock	 #
 564      00
 565              	LVL31:
 566              		.loc 1 256 0
 567 0250 EBA0     		jmp	L46	 #
 568              		.p2align 4,,7
 569              	L54:
 570              		.loc 1 240 0
 571              		.p2align 4,,8
 572 0252 E8000000 		call	_dbg_check_unlock	 #
 572      00
 573              	LVL32:
 574              	/APP
 575              	 # 240 "../firmware/chibios/os/kernel/src/chqueues.c" 1
 576 0257 90       		nop
 577              	 # 0 "" 2
 578              	LVL33:
 579              	/NO_APP
 580              	L43:
 581              		.loc 1 257 0
 582 0258 83C41C   		addl	$28, %esp	 #,
 583              		.cfi_remember_state
 584              		.cfi_def_cfa_offset 20
 585 025b 89F8     		movl	%edi, %eax	 # r,
 586 025d 5B       		popl	%ebx	 #
 587              		.cfi_restore 3
 588              		.cfi_def_cfa_offset 16
 589 025e 5E       		popl	%esi	 #
 590              		.cfi_restore 6
GAS LISTING /cygdrive/c/DOCUME~1/andrey/LOCALS~1/Temp/cc8DOkPH.s 			page 12


 591              		.cfi_def_cfa_offset 12
 592 025f 5F       		popl	%edi	 #
 593              		.cfi_restore 7
 594              		.cfi_def_cfa_offset 8
 595              	LVL34:
 596 0260 5D       		popl	%ebp	 #
 597              		.cfi_restore 5
 598              		.cfi_def_cfa_offset 4
 599              	LVL35:
 600 0261 C3       		ret
 601              	LVL36:
 602              		.p2align 4,,7
 603              	L53:
 604              		.cfi_restore_state
 605              		.loc 1 231 0 discriminator 1
 606 0262 C7442408 		movl	$231, 8(%esp)	 #,
 606      E7000000 
 607 026a C7442404 		movl	$LC0, 4(%esp)	 #,
 607      00000000 
 608 0272 C704242D 		movl	$LC1, (%esp)	 #,
 608      000000
 609 0279 E8000000 		call	_chDbgPanic	 #
 609      00
 610              	LVL37:
 611 027e E967FFFF 		jmp	L39	 #
 611      FF
 612              		.cfi_endproc
 613              	LFE12:
 614 0283 8DB60000 		.p2align 4,,15
 614      00008DBC 
 614      27000000 
 614      00
 615              		.globl	_chOQInit
 616              		.def	_chOQInit;	.scl	2;	.type	32;	.endef
 617              	_chOQInit:
 618              	LFB13:
 619              		.loc 1 276 0
 620              		.cfi_startproc
 621              	LVL38:
 622              		.loc 1 276 0
 623 0290 8B442404 		movl	4(%esp), %eax	 # oqp, oqp
 624 0294 8B542408 		movl	8(%esp), %edx	 # bp, bp
 625 0298 8B4C240C 		movl	12(%esp), %ecx	 # size, size
 626              		.loc 1 278 0
 627 029c 894004   		movl	%eax, 4(%eax)	 # oqp, oqp_1(D)->q_waiting.p_prev
 628              		.loc 1 280 0
 629 029f 895014   		movl	%edx, 20(%eax)	 # bp, oqp_1(D)->q_wrptr
 630 02a2 895018   		movl	%edx, 24(%eax)	 # bp, oqp_1(D)->q_rdptr
 631 02a5 89500C   		movl	%edx, 12(%eax)	 # bp, oqp_1(D)->q_buffer
 632              		.loc 1 281 0
 633 02a8 01CA     		addl	%ecx, %edx	 # size, tmp66
 634 02aa 895010   		movl	%edx, 16(%eax)	 # tmp66, oqp_1(D)->q_top
 635              		.loc 1 282 0
 636 02ad 8B542410 		movl	16(%esp), %edx	 # onfy, onfy
 637              		.loc 1 278 0
 638 02b1 8900     		movl	%eax, (%eax)	 # oqp, oqp_1(D)->q_waiting.p_next
 639              		.loc 1 279 0
GAS LISTING /cygdrive/c/DOCUME~1/andrey/LOCALS~1/Temp/cc8DOkPH.s 			page 13


 640 02b3 894808   		movl	%ecx, 8(%eax)	 # size, oqp_1(D)->q_counter
 641              		.loc 1 282 0
 642 02b6 89501C   		movl	%edx, 28(%eax)	 # onfy, oqp_1(D)->q_notify
 643              		.loc 1 283 0
 644 02b9 8B542414 		movl	20(%esp), %edx	 # link, link
 645 02bd 895020   		movl	%edx, 32(%eax)	 # link, oqp_1(D)->q_link
 646 02c0 C3       		ret
 647              		.cfi_endproc
 648              	LFE13:
 649 02c1 EB0D9090 		.p2align 4,,15
 649      90909090 
 649      90909090 
 649      909090
 650              		.globl	_chOQResetI
 651              		.def	_chOQResetI;	.scl	2;	.type	32;	.endef
 652              	_chOQResetI:
 653              	LFB14:
 654              		.loc 1 297 0
 655              		.cfi_startproc
 656              	LVL39:
 657 02d0 53       		pushl	%ebx	 #
 658              		.cfi_def_cfa_offset 8
 659              		.cfi_offset 3, -8
 660 02d1 83EC18   		subl	$24, %esp	 #,
 661              		.cfi_def_cfa_offset 32
 662              		.loc 1 297 0
 663 02d4 8B5C2420 		movl	32(%esp), %ebx	 # oqp, oqp
 664              		.loc 1 299 0
 665 02d8 E8000000 		call	_chDbgCheckClassI	 #
 665      00
 666              	LVL40:
 667              		.loc 1 301 0
 668 02dd 8B530C   		movl	12(%ebx), %edx	 # oqp_4(D)->q_buffer, D.2367
 669              		.loc 1 302 0
 670 02e0 8B4310   		movl	16(%ebx), %eax	 # oqp_4(D)->q_top, D.2368
 671              		.loc 1 301 0
 672 02e3 895314   		movl	%edx, 20(%ebx)	 # D.2367, oqp_4(D)->q_wrptr
 673              		.loc 1 302 0
 674 02e6 29D0     		subl	%edx, %eax	 # D.2367, D.2368
 675 02e8 894308   		movl	%eax, 8(%ebx)	 # D.2368, oqp_4(D)->q_counter
 676              		.loc 1 303 0
 677 02eb 8B03     		movl	(%ebx), %eax	 # oqp_4(D)->q_waiting.p_next, D.2370
 678              		.loc 1 301 0
 679 02ed 895318   		movl	%edx, 24(%ebx)	 # D.2367, oqp_4(D)->q_rdptr
 680              		.loc 1 303 0
 681 02f0 39D8     		cmpl	%ebx, %eax	 # oqp, D.2370
 682 02f2 741C     		je	L56	 #,
 683              		.p2align 4,,7
 684              	L60:
 685              	LVL41:
 686              	LBB20:
 687              	LBB21:
 688              		.loc 2 62 0
 689 02f4 8B10     		movl	(%eax), %edx	 # _28->p_next, D.2370
 690 02f6 8913     		movl	%edx, (%ebx)	 # D.2370, MEM[(struct ThreadsQueue *)oqp_4(D)].p_next
 691 02f8 895A04   		movl	%ebx, 4(%edx)	 # oqp, _20->p_prev
 692              	LBE21:
GAS LISTING /cygdrive/c/DOCUME~1/andrey/LOCALS~1/Temp/cc8DOkPH.s 			page 14


 693              	LBE20:
 694              		.loc 1 304 0
 695 02fb 890424   		movl	%eax, (%esp)	 # D.2370,
 696 02fe E8000000 		call	_chSchReadyI	 #
 696      00
 697              	LVL42:
 698 0303 C74024FE 		movl	$-2, 36(%eax)	 #, _18->p_u.rdymsg
 698      FFFFFF
 699              		.loc 1 303 0
 700 030a 8B03     		movl	(%ebx), %eax	 # oqp_4(D)->q_waiting.p_next, D.2370
 701 030c 39D8     		cmpl	%ebx, %eax	 # oqp, D.2370
 702 030e 75E4     		jne	L60	 #,
 703              	LVL43:
 704              	L56:
 705              		.loc 1 305 0
 706 0310 83C418   		addl	$24, %esp	 #,
 707              		.cfi_def_cfa_offset 8
 708 0313 5B       		popl	%ebx	 #
 709              		.cfi_restore 3
 710              		.cfi_def_cfa_offset 4
 711 0314 C3       		ret
 712              		.cfi_endproc
 713              	LFE14:
 714 0315 8D742600 		.p2align 4,,15
 714      8DBC2700 
 714      000000
 715              		.globl	_chOQPutTimeout
 716              		.def	_chOQPutTimeout;	.scl	2;	.type	32;	.endef
 717              	_chOQPutTimeout:
 718              	LFB15:
 719              		.loc 1 329 0
 720              		.cfi_startproc
 721              	LVL44:
 722 0320 57       		pushl	%edi	 #
 723              		.cfi_def_cfa_offset 8
 724              		.cfi_offset 7, -8
 725 0321 56       		pushl	%esi	 #
 726              		.cfi_def_cfa_offset 12
 727              		.cfi_offset 6, -12
 728 0322 53       		pushl	%ebx	 #
 729              		.cfi_def_cfa_offset 16
 730              		.cfi_offset 3, -16
 731 0323 83EC10   		subl	$16, %esp	 #,
 732              		.cfi_def_cfa_offset 32
 733              		.loc 1 329 0
 734 0326 8B5C2420 		movl	32(%esp), %ebx	 # oqp, oqp
 735 032a 8B7C2424 		movl	36(%esp), %edi	 # b, b
 736 032e 8B742428 		movl	40(%esp), %esi	 # time, time
 737              		.loc 1 331 0
 738              	/APP
 739              	 # 331 "../firmware/chibios/os/kernel/src/chqueues.c" 1
 740 0332 90       		nop
 741              	 # 0 "" 2
 742              	/NO_APP
 743 0333 E8000000 		call	_dbg_check_lock	 #
 743      00
 744              	LVL45:
GAS LISTING /cygdrive/c/DOCUME~1/andrey/LOCALS~1/Temp/cc8DOkPH.s 			page 15


 745              		.loc 1 332 0
 746 0338 EB13     		jmp	L63	 #
 747 033a 8DB60000 		.p2align 4,,7
 747      0000
 748              	L66:
 749              	LBB22:
 750              		.loc 1 335 0
 751 0340 89F2     		movl	%esi, %edx	 # time,
 752 0342 89D8     		movl	%ebx, %eax	 # oqp,
 753 0344 E8B7FCFF 		call	_qwait	 #
 753      FF
 754              	LVL46:
 755 0349 85C0     		testl	%eax, %eax	 # msg
 756              		.p2align 4,,2
 757 034b 7843     		js	L73	 #,
 758              	LVL47:
 759              	L63:
 760              	LBE22:
 761              		.loc 1 332 0 discriminator 1
 762 034d 8B4308   		movl	8(%ebx), %eax	 # oqp_8(D)->q_counter, D.2375
 763 0350 85C0     		testl	%eax, %eax	 # D.2375
 764 0352 74EC     		je	L66	 #,
 765              		.loc 1 341 0
 766 0354 83E801   		subl	$1, %eax	 #, tmp74
 767              		.loc 1 342 0
 768 0357 89F9     		movl	%edi, %ecx	 # b, tmp79
 769              		.loc 1 341 0
 770 0359 894308   		movl	%eax, 8(%ebx)	 # tmp74, oqp_8(D)->q_counter
 771              		.loc 1 342 0
 772 035c 8B4314   		movl	20(%ebx), %eax	 # oqp_8(D)->q_wrptr, D.2376
 773 035f 8D5001   		leal	1(%eax), %edx	 #, tmp75
 774 0362 895314   		movl	%edx, 20(%ebx)	 # tmp75, oqp_8(D)->q_wrptr
 775 0365 8808     		movb	%cl, (%eax)	 # tmp79, *_16
 776              		.loc 1 343 0
 777 0367 8B4310   		movl	16(%ebx), %eax	 # oqp_8(D)->q_top, tmp80
 778 036a 394314   		cmpl	%eax, 20(%ebx)	 # tmp80, oqp_8(D)->q_wrptr
 779 036d 7206     		jb	L67	 #,
 780              		.loc 1 344 0
 781 036f 8B430C   		movl	12(%ebx), %eax	 # oqp_8(D)->q_buffer, oqp_8(D)->q_buffer
 782 0372 894314   		movl	%eax, 20(%ebx)	 # oqp_8(D)->q_buffer, oqp_8(D)->q_wrptr
 783              	L67:
 784              		.loc 1 346 0
 785 0375 8B431C   		movl	28(%ebx), %eax	 # oqp_8(D)->q_notify, D.2377
 786 0378 85C0     		testl	%eax, %eax	 # D.2377
 787 037a 7405     		je	L68	 #,
 788              		.loc 1 347 0
 789 037c 891C24   		movl	%ebx, (%esp)	 # oqp,
 790 037f FFD0     		call	*%eax	 # D.2377
 791              	LVL48:
 792              	L68:
 793              		.loc 1 349 0
 794 0381 E8000000 		call	_dbg_check_unlock	 #
 794      00
 795              	LVL49:
 796              	/APP
 797              	 # 349 "../firmware/chibios/os/kernel/src/chqueues.c" 1
 798 0386 90       		nop
GAS LISTING /cygdrive/c/DOCUME~1/andrey/LOCALS~1/Temp/cc8DOkPH.s 			page 16


 799              	 # 0 "" 2
 800              		.loc 1 351 0
 801              	/NO_APP
 802 0387 83C410   		addl	$16, %esp	 #,
 803              		.cfi_remember_state
 804              		.cfi_def_cfa_offset 16
 805              		.loc 1 350 0
 806 038a 31C0     		xorl	%eax, %eax	 # D.2374
 807              		.loc 1 351 0
 808 038c 5B       		popl	%ebx	 #
 809              		.cfi_restore 3
 810              		.cfi_def_cfa_offset 12
 811 038d 5E       		popl	%esi	 #
 812              		.cfi_restore 6
 813              		.cfi_def_cfa_offset 8
 814 038e 5F       		popl	%edi	 #
 815              		.cfi_restore 7
 816              		.cfi_def_cfa_offset 4
 817 038f C3       		ret
 818              	LVL50:
 819              		.p2align 4,,7
 820              	L73:
 821              		.cfi_restore_state
 822 0390 8944240C 		movl	%eax, 12(%esp)	 # msg, %sfp
 823              	LBB23:
 824              		.loc 1 336 0
 825 0394 E8000000 		call	_dbg_check_unlock	 #
 825      00
 826              	LVL51:
 827              	/APP
 828              	 # 336 "../firmware/chibios/os/kernel/src/chqueues.c" 1
 829 0399 90       		nop
 830              	 # 0 "" 2
 831              		.loc 1 335 0
 832              	/NO_APP
 833 039a 8B44240C 		movl	12(%esp), %eax	 # %sfp, msg
 834              	LBE23:
 835              		.loc 1 351 0
 836 039e 83C410   		addl	$16, %esp	 #,
 837              		.cfi_def_cfa_offset 16
 838 03a1 5B       		popl	%ebx	 #
 839              		.cfi_restore 3
 840              		.cfi_def_cfa_offset 12
 841 03a2 5E       		popl	%esi	 #
 842              		.cfi_restore 6
 843              		.cfi_def_cfa_offset 8
 844 03a3 5F       		popl	%edi	 #
 845              		.cfi_restore 7
 846              		.cfi_def_cfa_offset 4
 847 03a4 C3       		ret
 848              		.cfi_endproc
 849              	LFE15:
 850 03a5 8D742600 		.p2align 4,,15
 850      8DBC2700 
 850      000000
 851              		.globl	_chOQGetI
 852              		.def	_chOQGetI;	.scl	2;	.type	32;	.endef
GAS LISTING /cygdrive/c/DOCUME~1/andrey/LOCALS~1/Temp/cc8DOkPH.s 			page 17


 853              	_chOQGetI:
 854              	LFB16:
 855              		.loc 1 363 0
 856              		.cfi_startproc
 857              	LVL52:
 858 03b0 56       		pushl	%esi	 #
 859              		.cfi_def_cfa_offset 8
 860              		.cfi_offset 6, -8
 861 03b1 53       		pushl	%ebx	 #
 862              		.cfi_def_cfa_offset 12
 863              		.cfi_offset 3, -12
 864 03b2 83EC14   		subl	$20, %esp	 #,
 865              		.cfi_def_cfa_offset 32
 866              		.loc 1 363 0
 867 03b5 8B5C2420 		movl	32(%esp), %ebx	 # oqp, oqp
 868              		.loc 1 366 0
 869 03b9 E8000000 		call	_chDbgCheckClassI	 #
 869      00
 870              	LVL53:
 871              		.loc 1 368 0
 872 03be 8B5318   		movl	24(%ebx), %edx	 # oqp_8(D)->q_rdptr, D.2382
 873 03c1 395314   		cmpl	%edx, 20(%ebx)	 # D.2382, oqp_8(D)->q_wrptr
 874 03c4 744A     		je	L84	 #,
 875 03c6 8B4308   		movl	8(%ebx), %eax	 # oqp_8(D)->q_counter, D.2386
 876              	L77:
 877              		.loc 1 371 0
 878 03c9 83C001   		addl	$1, %eax	 #, tmp77
 879              		.loc 1 372 0
 880 03cc 8D4A01   		leal	1(%edx), %ecx	 #, D.2382
 881              		.loc 1 373 0
 882 03cf 3B4B10   		cmpl	16(%ebx), %ecx	 # oqp_8(D)->q_top, D.2382
 883              		.loc 1 371 0
 884 03d2 894308   		movl	%eax, 8(%ebx)	 # tmp77, oqp_8(D)->q_counter
 885              		.loc 1 372 0
 886 03d5 894B18   		movl	%ecx, 24(%ebx)	 # D.2382, oqp_8(D)->q_rdptr
 887 03d8 0FB632   		movzbl	(%edx), %esi	 # *_10, b
 888              	LVL54:
 889              		.loc 1 373 0
 890 03db 7327     		jae	L79	 #,
 891              	L80:
 892              		.loc 1 376 0
 893 03dd 8B13     		movl	(%ebx), %edx	 # oqp_8(D)->q_waiting.p_next, D.2384
 894 03df 39DA     		cmpl	%ebx, %edx	 # oqp, D.2384
 895 03e1 7416     		je	L78	 #,
 896              	LVL55:
 897              	LBB24:
 898              	LBB25:
 899              		.loc 2 62 0
 900 03e3 8B0A     		movl	(%edx), %ecx	 # _22->p_next, D.2384
 901 03e5 890B     		movl	%ecx, (%ebx)	 # D.2384, MEM[(struct ThreadsQueue *)oqp_8(D)].p_next
 902 03e7 895904   		movl	%ebx, 4(%ecx)	 # oqp, _29->p_prev
 903              	LBE25:
 904              	LBE24:
 905              		.loc 1 377 0
 906 03ea 891424   		movl	%edx, (%esp)	 # D.2384,
 907 03ed E8000000 		call	_chSchReadyI	 #
 907      00
GAS LISTING /cygdrive/c/DOCUME~1/andrey/LOCALS~1/Temp/cc8DOkPH.s 			page 18


 908              	LVL56:
 909 03f2 C7402400 		movl	$0, 36(%eax)	 #, _26->p_u.rdymsg
 909      000000
 910              	LVL57:
 911              	L78:
 912              		.loc 1 379 0
 913 03f9 89F0     		movl	%esi, %eax	 # b, b
 914 03fb 0FB6C0   		movzbl	%al, %eax	 # b, D.2381
 915              	LVL58:
 916              	L82:
 917              		.loc 1 380 0
 918 03fe 83C414   		addl	$20, %esp	 #,
 919              		.cfi_remember_state
 920              		.cfi_def_cfa_offset 12
 921 0401 5B       		popl	%ebx	 #
 922              		.cfi_restore 3
 923              		.cfi_def_cfa_offset 8
 924 0402 5E       		popl	%esi	 #
 925              		.cfi_restore 6
 926              		.cfi_def_cfa_offset 4
 927 0403 C3       		ret
 928              	LVL59:
 929              		.p2align 4,,7
 930              	L79:
 931              		.cfi_restore_state
 932              		.loc 1 374 0
 933 0404 8B430C   		movl	12(%ebx), %eax	 # oqp_8(D)->q_buffer, oqp_8(D)->q_buffer
 934 0407 894318   		movl	%eax, 24(%ebx)	 # oqp_8(D)->q_buffer, oqp_8(D)->q_rdptr
 935 040a EBD1     		jmp	L80	 #
 936              	LVL60:
 937 040c 8D742600 		.p2align 4,,7
 938              	L84:
 939              		.loc 1 368 0 discriminator 1
 940 0410 8B4B08   		movl	8(%ebx), %ecx	 # oqp_8(D)->q_counter,
 941              		.loc 1 369 0 discriminator 1
 942 0413 B8FDFFFF 		movl	$-3, %eax	 #, D.2381
 942      FF
 943              		.loc 1 368 0 discriminator 1
 944 0418 85C9     		testl	%ecx, %ecx	 #
 945 041a 75E2     		jne	L82	 #,
 946 041c 31C0     		xorl	%eax, %eax	 # D.2386
 947 041e EBA9     		jmp	L77	 #
 948              		.cfi_endproc
 949              	LFE16:
 950              		.section .rdata,"dr"
 951              	LC2:
 952 0041 2263684F 		.ascii "\"chOQWriteTimeout\"()\0"
 952      51577269 
 952      74655469 
 952      6D656F75 
 952      74222829 
 953 0056 0000     		.text
 954              		.p2align 4,,15
 955              		.globl	_chOQWriteTimeout
 956              		.def	_chOQWriteTimeout;	.scl	2;	.type	32;	.endef
 957              	_chOQWriteTimeout:
 958              	LFB17:
GAS LISTING /cygdrive/c/DOCUME~1/andrey/LOCALS~1/Temp/cc8DOkPH.s 			page 19


 959              		.loc 1 407 0
 960              		.cfi_startproc
 961              	LVL61:
 962 0420 55       		pushl	%ebp	 #
 963              		.cfi_def_cfa_offset 8
 964              		.cfi_offset 5, -8
 965 0421 57       		pushl	%edi	 #
 966              		.cfi_def_cfa_offset 12
 967              		.cfi_offset 7, -12
 968 0422 56       		pushl	%esi	 #
 969              		.cfi_def_cfa_offset 16
 970              		.cfi_offset 6, -16
 971 0423 53       		pushl	%ebx	 #
 972              		.cfi_def_cfa_offset 20
 973              		.cfi_offset 3, -20
 974 0424 83EC1C   		subl	$28, %esp	 #,
 975              		.cfi_def_cfa_offset 48
 976              		.loc 1 411 0
 977 0427 8B742438 		movl	56(%esp), %esi	 # n,
 978              		.loc 1 407 0
 979 042b 8B5C2430 		movl	48(%esp), %ebx	 # oqp, oqp
 980 042f 8B4C2434 		movl	52(%esp), %ecx	 # bp, bp
 981              		.loc 1 411 0
 982 0433 85F6     		testl	%esi, %esi	 #
 983              		.loc 1 408 0
 984 0435 8B6B1C   		movl	28(%ebx), %ebp	 # oqp_11(D)->q_notify, nfy
 985              	LVL62:
 986              		.loc 1 411 0
 987 0438 0F849200 		je	L104	 #,
 987      0000
 988              	L86:
 989 043e 894C240C 		movl	%ecx, 12(%esp)	 # bp, %sfp
 990              		.loc 1 413 0
 991              	/APP
 992              	 # 413 "../firmware/chibios/os/kernel/src/chqueues.c" 1
 993 0442 90       		nop
 994              	 # 0 "" 2
 995              	/NO_APP
 996 0443 E8000000 		call	_dbg_check_lock	 #
 996      00
 997              	LVL63:
 998 0448 8B4C240C 		movl	12(%esp), %ecx	 # %sfp, bp
 999              		.loc 1 409 0
 1000 044c 31F6     		xorl	%esi, %esi	 # w
 1001              	LVL64:
 1002 044e 6690     		.p2align 4,,7
 1003              	L87:
 1004              		.loc 1 415 0 discriminator 1
 1005 0450 8B4308   		movl	8(%ebx), %eax	 # oqp_11(D)->q_counter, D.2389
 1006 0453 85C0     		testl	%eax, %eax	 # D.2389
 1007 0455 744D     		je	L90	 #,
 1008              	L105:
 1009              		.loc 1 421 0
 1010 0457 83E801   		subl	$1, %eax	 #, tmp76
 1011 045a 894308   		movl	%eax, 8(%ebx)	 # tmp76, oqp_11(D)->q_counter
 1012              		.loc 1 422 0
 1013 045d 8B4314   		movl	20(%ebx), %eax	 # oqp_11(D)->q_wrptr, D.2391
GAS LISTING /cygdrive/c/DOCUME~1/andrey/LOCALS~1/Temp/cc8DOkPH.s 			page 20


 1014 0460 8D7901   		leal	1(%ecx), %edi	 #, bp
 1015              	LVL65:
 1016 0463 8D5001   		leal	1(%eax), %edx	 #, tmp77
 1017 0466 895314   		movl	%edx, 20(%ebx)	 # tmp77, oqp_11(D)->q_wrptr
 1018 0469 0FB611   		movzbl	(%ecx), %edx	 # *bp_1, D.2392
 1019 046c 8810     		movb	%dl, (%eax)	 # D.2392, *_26
 1020              		.loc 1 423 0
 1021 046e 8B4310   		movl	16(%ebx), %eax	 # oqp_11(D)->q_top, tmp85
 1022 0471 394314   		cmpl	%eax, 20(%ebx)	 # tmp85, oqp_11(D)->q_wrptr
 1023 0474 7206     		jb	L91	 #,
 1024              		.loc 1 424 0
 1025 0476 8B430C   		movl	12(%ebx), %eax	 # oqp_11(D)->q_buffer, oqp_11(D)->q_buffer
 1026 0479 894314   		movl	%eax, 20(%ebx)	 # oqp_11(D)->q_buffer, oqp_11(D)->q_wrptr
 1027              	L91:
 1028              		.loc 1 426 0
 1029 047c 85ED     		testl	%ebp, %ebp	 # nfy
 1030 047e 7405     		je	L92	 #,
 1031              		.loc 1 427 0
 1032 0480 891C24   		movl	%ebx, (%esp)	 # oqp,
 1033 0483 FFD5     		call	*%ebp	 # nfy
 1034              	LVL66:
 1035              	L92:
 1036              		.loc 1 429 0
 1037 0485 E8000000 		call	_dbg_check_unlock	 #
 1037      00
 1038              	LVL67:
 1039              	/APP
 1040              	 # 429 "../firmware/chibios/os/kernel/src/chqueues.c" 1
 1041 048a 90       		nop
 1042              	 # 0 "" 2
 1043              		.loc 1 430 0
 1044              	/NO_APP
 1045 048b 83C601   		addl	$1, %esi	 #, w
 1046              	LVL68:
 1047              		.loc 1 431 0
 1048 048e 836C2438 		subl	$1, 56(%esp)	 #, n
 1048      01
 1049              	LVL69:
 1050 0493 742C     		je	L89	 #,
 1051              		.loc 1 433 0
 1052              	/APP
 1053              	 # 433 "../firmware/chibios/os/kernel/src/chqueues.c" 1
 1054 0495 90       		nop
 1055              	 # 0 "" 2
 1056              	/NO_APP
 1057 0496 E8000000 		call	_dbg_check_lock	 #
 1057      00
 1058              	LVL70:
 1059              		.loc 1 415 0
 1060 049b 8B4308   		movl	8(%ebx), %eax	 # oqp_11(D)->q_counter, D.2389
 1061              		.loc 1 422 0
 1062 049e 89F9     		movl	%edi, %ecx	 # bp, bp
 1063              	LVL71:
 1064              		.loc 1 415 0
 1065 04a0 85C0     		testl	%eax, %eax	 # D.2389
 1066 04a2 75B3     		jne	L105	 #,
 1067              	L90:
GAS LISTING /cygdrive/c/DOCUME~1/andrey/LOCALS~1/Temp/cc8DOkPH.s 			page 21


 1068              		.loc 1 416 0
 1069 04a4 8B54243C 		movl	60(%esp), %edx	 # time,
 1070 04a8 89D8     		movl	%ebx, %eax	 # oqp,
 1071 04aa 894C240C 		movl	%ecx, 12(%esp)	 # bp, %sfp
 1072 04ae E84DFBFF 		call	_qwait	 #
 1072      FF
 1073              	LVL72:
 1074 04b3 8B4C240C 		movl	12(%esp), %ecx	 # %sfp, bp
 1075 04b7 85C0     		testl	%eax, %eax	 # D.2390
 1076 04b9 7495     		je	L87	 #,
 1077              		.loc 1 417 0
 1078 04bb E8000000 		call	_dbg_check_unlock	 #
 1078      00
 1079              	LVL73:
 1080              	/APP
 1081              	 # 417 "../firmware/chibios/os/kernel/src/chqueues.c" 1
 1082 04c0 90       		nop
 1083              	 # 0 "" 2
 1084              	LVL74:
 1085              	/NO_APP
 1086              	L89:
 1087              		.loc 1 435 0
 1088 04c1 83C41C   		addl	$28, %esp	 #,
 1089              		.cfi_remember_state
 1090              		.cfi_def_cfa_offset 20
 1091 04c4 89F0     		movl	%esi, %eax	 # w,
 1092 04c6 5B       		popl	%ebx	 #
 1093              		.cfi_restore 3
 1094              		.cfi_def_cfa_offset 16
 1095 04c7 5E       		popl	%esi	 #
 1096              		.cfi_restore 6
 1097              		.cfi_def_cfa_offset 12
 1098              	LVL75:
 1099 04c8 5F       		popl	%edi	 #
 1100              		.cfi_restore 7
 1101              		.cfi_def_cfa_offset 8
 1102 04c9 5D       		popl	%ebp	 #
 1103              		.cfi_restore 5
 1104              		.cfi_def_cfa_offset 4
 1105              	LVL76:
 1106 04ca C3       		ret
 1107              	LVL77:
 1108 04cb 908D7426 		.p2align 4,,7
 1108      00
 1109              	L104:
 1110              		.cfi_restore_state
 1111              		.loc 1 411 0 discriminator 1
 1112 04d0 C7442408 		movl	$411, 8(%esp)	 #,
 1112      9B010000 
 1113 04d8 C7442404 		movl	$LC0, 4(%esp)	 #,
 1113      00000000 
 1114 04e0 C7042441 		movl	$LC2, (%esp)	 #,
 1114      000000
 1115 04e7 894C240C 		movl	%ecx, 12(%esp)	 # bp, %sfp
 1116 04eb E8000000 		call	_chDbgPanic	 #
 1116      00
 1117              	LVL78:
GAS LISTING /cygdrive/c/DOCUME~1/andrey/LOCALS~1/Temp/cc8DOkPH.s 			page 22


 1118 04f0 8B4C240C 		movl	12(%esp), %ecx	 # %sfp, bp
 1119 04f4 E945FFFF 		jmp	L86	 #
 1119      FF
 1120              		.cfi_endproc
 1121              	LFE17:
 1122              	Letext0:
 1123              		.file 3 "/usr/lib/gcc/i686-pc-cygwin/4.8.2/include/stddef.h"
 1124              		.file 4 "/usr/include/stdint.h"
 1125              		.file 5 "../firmware/chibios/os/ports/GCC/SIMIA32/chtypes.h"
 1126              		.file 6 "../firmware/chibios/os/kernel/include/chlists.h"
 1127              		.file 7 "../firmware/chibios/os/kernel/include/chthreads.h"
 1128              		.file 8 "../firmware/chibios/os/ports/GCC/SIMIA32/chcore.h"
 1129              		.file 9 "../firmware/chibios/os/kernel/include/chschd.h"
 1130              		.file 10 "../firmware/chibios/os/kernel/include/chmtx.h"
 1131              		.file 11 "../firmware/chibios/os/kernel/include/chqueues.h"
 1132              		.file 12 "../firmware/chibios/os/kernel/include/chdebug.h"