GAS LISTING /cygdrive/c/DOCUME~1/andrey/LOCALS~1/Temp/ccRE8DVV.s 			page 1


   1              		.file	"chthreads.c"
   2              	 # GNU C (GCC) version 4.8.2 (i686-pc-cygwin)
   3              	 #	compiled by GNU C version 4.8.2, GMP version 5.1.3, MPFR version 3.1.2, MPC version 1.0.1
   4              	 # GGC heuristics: --param ggc-min-expand=100 --param ggc-min-heapsize=131072
   5              	 # options passed:  -I . -I ../firmware/chibios/os/ports/GCC/SIMIA32
   6              	 # -I ../firmware/chibios/os/kernel/include
   7              	 # -I ../firmware/chibios/os/hal/include
   8              	 # -I ../firmware/chibios/os/hal/platforms/Win32
   9              	 # -I ../firmware/chibios/boards/simulator -I ../firmware/util
  10              	 # -I ../firmware/console -I ../firmware/console_util
  11              	 # -I ../firmware/config/engines -I ../firmware/ext_algo
  12              	 # -I ../firmware/controllers/sensors -I ../firmware/controllers/system
  13              	 # -I ../firmware/controllers/algo -I ../firmware/controllers/math
  14              	 # -I ../firmware/controllers/trigger -I ../firmware/chibios/os/various
  15              	 # -MD ../firmware/chibios/os/kernel/src/chthreads.d -MF .dep/chthreads.o.d
  16              	 # -MP -MQ ../firmware/chibios/os/kernel/src/chthreads.o -Dunix
  17              	 # -idirafter /usr/lib/gcc/i686-pc-cygwin/4.8.2/../../../../include/w32api
  18              	 # -idirafter ../../include/w32api -D SIMULATOR -D SHELL_USE_IPRINTF=FALSE
  19              	 # ../firmware/chibios/os/kernel/src/chthreads.c -mtune=generic -march=i686
  20              	 # -auxbase-strip ../firmware/chibios/os/kernel/src/chthreads.o -ggdb -O2
  21              	 # -Wall -Wextra -Wstrict-prototypes -std=gnu99 -fomit-frame-pointer
  22              	 # -fgnu89-inline -fverbose-asm
  23              	 # options enabled:  -faggressive-loop-optimizations
  24              	 # -fasynchronous-unwind-tables -fauto-inc-dec -fbranch-count-reg
  25              	 # -fcaller-saves -fcombine-stack-adjustments -fcommon -fcompare-elim
  26              	 # -fcprop-registers -fcrossjumping -fcse-follow-jumps -fdefer-pop
  27              	 # -fdelete-null-pointer-checks -fdevirtualize -fdwarf2-cfi-asm
  28              	 # -fearly-inlining -feliminate-unused-debug-types
  29              	 # -fexpensive-optimizations -fforward-propagate -ffunction-cse -fgcse
  30              	 # -fgcse-lm -fgnu-runtime -fguess-branch-probability
  31              	 # -fhoist-adjacent-loads -fident -fif-conversion -fif-conversion2
  32              	 # -findirect-inlining -finline -finline-atomics
  33              	 # -finline-functions-called-once -finline-small-functions -fipa-cp
  34              	 # -fipa-profile -fipa-pure-const -fipa-reference -fipa-sra
  35              	 # -fira-hoist-pressure -fira-share-save-slots -fira-share-spill-slots
  36              	 # -fivopts -fkeep-inline-dllexport -fkeep-static-consts
  37              	 # -fleading-underscore -fmath-errno -fmerge-constants
  38              	 # -fmerge-debug-strings -fmove-loop-invariants -fomit-frame-pointer
  39              	 # -foptimize-register-move -foptimize-sibling-calls -foptimize-strlen
  40              	 # -fpartial-inlining -fpeephole -fpeephole2 -fprefetch-loop-arrays -free
  41              	 # -freg-struct-return -fregmove -freorder-blocks -freorder-functions
  42              	 # -frerun-cse-after-loop -fsched-critical-path-heuristic
  43              	 # -fsched-dep-count-heuristic -fsched-group-heuristic -fsched-interblock
  44              	 # -fsched-last-insn-heuristic -fsched-rank-heuristic -fsched-spec
  45              	 # -fsched-spec-insn-heuristic -fsched-stalled-insns-dep -fschedule-insns2
  46              	 # -fset-stack-executable -fshow-column -fshrink-wrap -fsigned-zeros
  47              	 # -fsplit-ivs-in-unroller -fsplit-wide-types -fstrict-aliasing
  48              	 # -fstrict-overflow -fstrict-volatile-bitfields -fsync-libcalls
  49              	 # -fthread-jumps -ftoplevel-reorder -ftrapping-math -ftree-bit-ccp
  50              	 # -ftree-builtin-call-dce -ftree-ccp -ftree-ch -ftree-coalesce-vars
  51              	 # -ftree-copy-prop -ftree-copyrename -ftree-cselim -ftree-dce
  52              	 # -ftree-dominator-opts -ftree-dse -ftree-forwprop -ftree-fre
  53              	 # -ftree-loop-if-convert -ftree-loop-im -ftree-loop-ivcanon
  54              	 # -ftree-loop-optimize -ftree-parallelize-loops= -ftree-phiprop -ftree-pre
  55              	 # -ftree-pta -ftree-reassoc -ftree-scev-cprop -ftree-sink
  56              	 # -ftree-slp-vectorize -ftree-slsr -ftree-sra -ftree-switch-conversion
  57              	 # -ftree-tail-merge -ftree-ter -ftree-vect-loop-version -ftree-vrp
GAS LISTING /cygdrive/c/DOCUME~1/andrey/LOCALS~1/Temp/ccRE8DVV.s 			page 2


  58              	 # -funit-at-a-time -funwind-tables -fvar-tracking
  59              	 # -fvar-tracking-assignments -fverbose-asm -fzero-initialized-in-bss -m32
  60              	 # -m80387 -m96bit-long-double -maccumulate-outgoing-args -malign-double
  61              	 # -malign-stringops -mfancy-math-387 -mfp-ret-in-387 -mieee-fp
  62              	 # -mlong-double-80 -mno-red-zone -mno-sse4 -mpush-args -msahf
  63              	 # -mstack-arg-probe
  64              	
  65              		.text
  66              	Ltext0:
  67              		.p2align 4,,15
  68              		.globl	__thread_init
  69              		.def	__thread_init;	.scl	2;	.type	32;	.endef
  70              	__thread_init:
  71              	LFB7:
  72              		.file 1 "../firmware/chibios/os/kernel/src/chthreads.c"
  73              		.loc 1 76 0
  74              		.cfi_startproc
  75              	LVL0:
  76              		.loc 1 76 0
  77 0000 8B442404 		movl	4(%esp), %eax	 # tp, tp
  78 0004 8B542408 		movl	8(%esp), %edx	 # prio, prio
  79              		.loc 1 99 0
  80 0008 C7401000 		movl	$_rlist, 16(%eax)	 #, tp_2(D)->p_newer
  80      000000
  81              		.loc 1 78 0
  82 000f 895008   		movl	%edx, 8(%eax)	 # prio, tp_2(D)->p_prio
  83              		.loc 1 85 0
  84 0012 895040   		movl	%edx, 64(%eax)	 # prio, tp_2(D)->p_realprio
  85              		.loc 1 99 0
  86 0015 8B151400 		movl	_rlist+20, %edx	 # rlist.r_older, D.2196
  86      0000
  87              		.loc 1 79 0
  88 001b C6401C02 		movb	$2, 28(%eax)	 #, tp_2(D)->p_state
  89              		.loc 1 80 0
  90 001f C6401D00 		movb	$0, 29(%eax)	 #, tp_2(D)->p_flags
  91              		.loc 1 82 0
  92 0023 C6401F14 		movb	$20, 31(%eax)	 #, tp_2(D)->p_preempt
  93              		.loc 1 99 0
  94 0027 895014   		movl	%edx, 20(%eax)	 # D.2196, tp_2(D)->p_older
  95              		.loc 1 86 0
  96 002a C7403C00 		movl	$0, 60(%eax)	 #, tp_2(D)->p_mtxlist
  96      000000
  97              		.loc 1 89 0
  98 0031 C7403800 		movl	$0, 56(%eax)	 #, tp_2(D)->p_epending
  98      000000
  99              		.loc 1 92 0
 100 0038 C7402000 		movl	$0, 32(%eax)	 #, tp_2(D)->p_time
 100      000000
 101              		.loc 1 95 0
 102 003f C6401E01 		movb	$1, 30(%eax)	 #, tp_2(D)->p_refs
 103              		.loc 1 98 0
 104 0043 C7401800 		movl	$0, 24(%eax)	 #, tp_2(D)->p_name
 104      000000
 105              		.loc 1 99 0
 106 004a A3140000 		movl	%eax, _rlist+20	 # tp, rlist.r_older
 106      00
 107 004f 894210   		movl	%eax, 16(%edx)	 # tp, _15->p_newer
GAS LISTING /cygdrive/c/DOCUME~1/andrey/LOCALS~1/Temp/ccRE8DVV.s 			page 3


 108              		.loc 1 102 0
 109 0052 8D5028   		leal	40(%eax), %edx	 #, tmp67
 110 0055 895028   		movl	%edx, 40(%eax)	 # tmp67, tp_2(D)->p_waiting.p_next
 111              		.loc 1 105 0
 112 0058 8D502C   		leal	44(%eax), %edx	 #, D.2198
 113 005b 895030   		movl	%edx, 48(%eax)	 # D.2198, tp_2(D)->p_msgqueue.p_prev
 114 005e 89502C   		movl	%edx, 44(%eax)	 # D.2198, tp_2(D)->p_msgqueue.p_next
 115              		.loc 1 114 0
 116 0061 C3       		ret
 117              		.cfi_endproc
 118              	LFE7:
 119              		.section .rdata,"dr"
 120              		.align 4
 121              	LC0:
 122 0000 2E2E2F66 		.ascii "../firmware/chibios/os/kernel/src/chthreads.c\0"
 122      69726D77 
 122      6172652F 
 122      63686962 
 122      696F732F 
 123              	LC1:
 124 002e 22636854 		.ascii "\"chThdCreateI\"()\0"
 124      68644372 
 124      65617465 
 124      49222829 
 124      00
 125              		.text
 126 0062 8DB42600 		.p2align 4,,15
 126      0000008D 
 126      BC270000 
 126      0000
 127              		.globl	_chThdCreateI
 128              		.def	_chThdCreateI;	.scl	2;	.type	32;	.endef
 129              	_chThdCreateI:
 130              	LFB8:
 131              		.loc 1 158 0
 132              		.cfi_startproc
 133              	LVL1:
 134 0070 55       		pushl	%ebp	 #
 135              		.cfi_def_cfa_offset 8
 136              		.cfi_offset 5, -8
 137 0071 57       		pushl	%edi	 #
 138              		.cfi_def_cfa_offset 12
 139              		.cfi_offset 7, -12
 140 0072 56       		pushl	%esi	 #
 141              		.cfi_def_cfa_offset 16
 142              		.cfi_offset 6, -16
 143 0073 53       		pushl	%ebx	 #
 144              		.cfi_def_cfa_offset 20
 145              		.cfi_offset 3, -20
 146 0074 83EC1C   		subl	$28, %esp	 #,
 147              		.cfi_def_cfa_offset 48
 148              		.loc 1 158 0
 149 0077 8B5C2430 		movl	48(%esp), %ebx	 # wsp, wsp
 150              	LVL2:
 151 007b 8B6C2434 		movl	52(%esp), %ebp	 # size, size
 152 007f 8B742438 		movl	56(%esp), %esi	 # prio, prio
 153 0083 8B7C243C 		movl	60(%esp), %edi	 # pf, pf
GAS LISTING /cygdrive/c/DOCUME~1/andrey/LOCALS~1/Temp/ccRE8DVV.s 			page 4


 154              		.loc 1 162 0
 155 0087 E8000000 		call	_chDbgCheckClassI	 #
 155      00
 156              	LVL3:
 157              		.loc 1 164 0
 158 008c 85DB     		testl	%ebx, %ebx	 # wsp
 159 008e 7411     		je	L3	 #,
 160 0090 81FD6F40 		cmpl	$16495, %ebp	 #, size
 160      0000
 161 0096 7609     		jbe	L3	 #,
 162              		.loc 1 164 0 is_stmt 0 discriminator 2
 163 0098 83FE7F   		cmpl	$127, %esi	 #, prio
 164 009b 0F86C600 		jbe	L11	 #,
 164      0000
 165              	L3:
 166              		.loc 1 164 0 discriminator 1
 167 00a1 C7442408 		movl	$166, 8(%esp)	 #,
 167      A6000000 
 168 00a9 C7442404 		movl	$LC0, 4(%esp)	 #,
 168      00000000 
 169 00b1 C704242E 		movl	$LC1, (%esp)	 #,
 169      000000
 170 00b8 E8000000 		call	_chDbgPanic	 #
 170      00
 171              	LVL4:
 172              	L4:
 173              	LBB9:
 174              		.loc 1 167 0 is_stmt 1
 175 00bd 8D142B   		leal	(%ebx,%ebp), %edx	 #, esp
 176              	LVL5:
 177 00c0 8B6C2440 		movl	64(%esp), %ebp	 # arg, arg
 178 00c4 C742FC00 		movl	$0, -4(%edx)	 #, MEM[(void * *)esp_15 + 4294967292B]
 178      000000
 179 00cb 8D4AFC   		leal	-4(%edx), %ecx	 #, savebp
 180              	LVL6:
 181 00ce 83EA0C   		subl	$12, %edx	 #, D.2202
 182 00d1 83E2F0   		andl	$-16, %edx	 #, D.2202
 183              	LVL7:
 184 00d4 893A     		movl	%edi, (%edx)	 # pf, MEM[(void * *)esp_22 + 4294967288B]
 185 00d6 83EA18   		subl	$24, %edx	 #, tmp92
 186              	LVL8:
 187 00d9 896A1C   		movl	%ebp, 28(%edx)	 # arg, MEM[(void * *)esp_22 + 4294967292B]
 188              	LVL9:
 189 00dc C7421400 		movl	$0, 20(%edx)	 #, MEM[(void * *)esp_22 + 4294967284B]
 189      000000
 190              	LVL10:
 191              	LBE9:
 192              	LBB10:
 193              	LBB11:
 194              		.loc 1 99 0
 195 00e3 A1140000 		movl	_rlist+20, %eax	 # rlist.r_older, D.2203
 195      00
 196              	LBE11:
 197              	LBE10:
 198              	LBB14:
 199              		.loc 1 167 0
 200 00e8 C7421000 		movl	$__port_thread_start, 16(%edx)	 #, MEM[(struct intctx *)esp_22 + 4294967264B].eip
GAS LISTING /cygdrive/c/DOCUME~1/andrey/LOCALS~1/Temp/ccRE8DVV.s 			page 5


 200      000000
 201 00ef C7020000 		movl	$0, (%edx)	 #, MEM[(struct intctx *)esp_22 + 4294967264B].ebx
 201      0000
 202 00f5 C7420400 		movl	$0, 4(%edx)	 #, MEM[(struct intctx *)esp_22 + 4294967264B].edi
 202      000000
 203 00fc C7420800 		movl	$0, 8(%edx)	 #, MEM[(struct intctx *)esp_22 + 4294967264B].esi
 203      000000
 204 0103 894A0C   		movl	%ecx, 12(%edx)	 # savebp, MEM[(struct intctx *)esp_22 + 4294967264B].ebp
 205              	LBE14:
 206              	LBB15:
 207              	LBB12:
 208              		.loc 1 99 0
 209 0106 894314   		movl	%eax, 20(%ebx)	 # D.2203, MEM[(struct Thread *)wsp_2(D)].p_older
 210              	LBE12:
 211              	LBE15:
 212              	LBB16:
 213              		.loc 1 167 0
 214 0109 89530C   		movl	%edx, 12(%ebx)	 # tmp92, MEM[(struct Thread *)wsp_2(D)].p_ctx.esp
 215              	LVL11:
 216              	LBE16:
 217              	LBB17:
 218              	LBB13:
 219              		.loc 1 78 0
 220 010c 897308   		movl	%esi, 8(%ebx)	 # prio, MEM[(struct Thread *)wsp_2(D)].p_prio
 221              		.loc 1 99 0
 222 010f C7431000 		movl	$_rlist, 16(%ebx)	 #, MEM[(struct Thread *)wsp_2(D)].p_newer
 222      000000
 223              		.loc 1 79 0
 224 0116 C6431C02 		movb	$2, 28(%ebx)	 #, MEM[(struct Thread *)wsp_2(D)].p_state
 225              		.loc 1 80 0
 226 011a C6431D00 		movb	$0, 29(%ebx)	 #, MEM[(struct Thread *)wsp_2(D)].p_flags
 227              		.loc 1 82 0
 228 011e C6431F14 		movb	$20, 31(%ebx)	 #, MEM[(struct Thread *)wsp_2(D)].p_preempt
 229              		.loc 1 85 0
 230 0122 897340   		movl	%esi, 64(%ebx)	 # prio, MEM[(struct Thread *)wsp_2(D)].p_realprio
 231              		.loc 1 86 0
 232 0125 C7433C00 		movl	$0, 60(%ebx)	 #, MEM[(struct Thread *)wsp_2(D)].p_mtxlist
 232      000000
 233              		.loc 1 89 0
 234 012c C7433800 		movl	$0, 56(%ebx)	 #, MEM[(struct Thread *)wsp_2(D)].p_epending
 234      000000
 235              		.loc 1 92 0
 236 0133 C7432000 		movl	$0, 32(%ebx)	 #, MEM[(struct Thread *)wsp_2(D)].p_time
 236      000000
 237              		.loc 1 95 0
 238 013a C6431E01 		movb	$1, 30(%ebx)	 #, MEM[(struct Thread *)wsp_2(D)].p_refs
 239              		.loc 1 98 0
 240 013e C7431800 		movl	$0, 24(%ebx)	 #, MEM[(struct Thread *)wsp_2(D)].p_name
 240      000000
 241              		.loc 1 99 0
 242 0145 891D1400 		movl	%ebx, _rlist+20	 # wsp, rlist.r_older
 242      0000
 243 014b 895810   		movl	%ebx, 16(%eax)	 # wsp, _35->p_newer
 244              		.loc 1 102 0
 245 014e 8D4328   		leal	40(%ebx), %eax	 #, tmp95
 246 0151 894328   		movl	%eax, 40(%ebx)	 # tmp95, MEM[(struct Thread *)wsp_2(D)].p_waiting.p_next
 247              		.loc 1 105 0
GAS LISTING /cygdrive/c/DOCUME~1/andrey/LOCALS~1/Temp/ccRE8DVV.s 			page 6


 248 0154 8D432C   		leal	44(%ebx), %eax	 #, D.2205
 249 0157 894330   		movl	%eax, 48(%ebx)	 # D.2205, MEM[(struct Thread *)wsp_2(D)].p_msgqueue.p_prev
 250 015a 89432C   		movl	%eax, 44(%ebx)	 # D.2205, MEM[(struct Thread *)wsp_2(D)].p_msgqueue.p_next
 251              	LBE13:
 252              	LBE17:
 253              		.loc 1 169 0
 254 015d 83C41C   		addl	$28, %esp	 #,
 255              		.cfi_remember_state
 256              		.cfi_def_cfa_offset 20
 257 0160 89D8     		movl	%ebx, %eax	 # wsp,
 258 0162 5B       		popl	%ebx	 #
 259              		.cfi_restore 3
 260              		.cfi_def_cfa_offset 16
 261              	LVL12:
 262 0163 5E       		popl	%esi	 #
 263              		.cfi_restore 6
 264              		.cfi_def_cfa_offset 12
 265              	LVL13:
 266 0164 5F       		popl	%edi	 #
 267              		.cfi_restore 7
 268              		.cfi_def_cfa_offset 8
 269 0165 5D       		popl	%ebp	 #
 270              		.cfi_restore 5
 271              		.cfi_def_cfa_offset 4
 272 0166 C3       		ret
 273              	LVL14:
 274              		.p2align 4,,7
 275              	L11:
 276              		.cfi_restore_state
 277              		.loc 1 164 0 discriminator 2
 278 0167 85FF     		testl	%edi, %edi	 # pf
 279 0169 0F8432FF 		je	L3	 #,
 279      FFFF
 280 016f E949FFFF 		jmp	L4	 #
 280      FF
 281              		.cfi_endproc
 282              	LFE8:
 283 0174 8DB60000 		.p2align 4,,15
 283      00008DBF 
 283      00000000 
 284              		.globl	_chThdCreateStatic
 285              		.def	_chThdCreateStatic;	.scl	2;	.type	32;	.endef
 286              	_chThdCreateStatic:
 287              	LFB9:
 288              		.loc 1 188 0
 289              		.cfi_startproc
 290              	LVL15:
 291 0180 53       		pushl	%ebx	 #
 292              		.cfi_def_cfa_offset 8
 293              		.cfi_offset 3, -8
 294 0181 83EC28   		subl	$40, %esp	 #,
 295              		.cfi_def_cfa_offset 48
 296              		.loc 1 199 0
 297              	/APP
 298              	 # 199 "../firmware/chibios/os/kernel/src/chthreads.c" 1
 299 0184 90       		nop
 300              	 # 0 "" 2
GAS LISTING /cygdrive/c/DOCUME~1/andrey/LOCALS~1/Temp/ccRE8DVV.s 			page 7


 301              	/NO_APP
 302 0185 E8000000 		call	_dbg_check_lock	 #
 302      00
 303              	LVL16:
 304              		.loc 1 200 0
 305 018a 8B442440 		movl	64(%esp), %eax	 # arg, arg
 306 018e 89442410 		movl	%eax, 16(%esp)	 # arg,
 307 0192 8B44243C 		movl	60(%esp), %eax	 # pf, pf
 308 0196 8944240C 		movl	%eax, 12(%esp)	 # pf,
 309 019a 8B442438 		movl	56(%esp), %eax	 # prio, prio
 310 019e 89442408 		movl	%eax, 8(%esp)	 # prio,
 311 01a2 8B442434 		movl	52(%esp), %eax	 # size, size
 312 01a6 89442404 		movl	%eax, 4(%esp)	 # size,
 313 01aa 8B442430 		movl	48(%esp), %eax	 # wsp, wsp
 314 01ae 890424   		movl	%eax, (%esp)	 # wsp,
 315 01b1 E8BAFEFF 		call	_chThdCreateI	 #
 315      FF
 316              	LVL17:
 317 01b6 C7442404 		movl	$0, 4(%esp)	 #,
 317      00000000 
 318 01be 890424   		movl	%eax, (%esp)	 # tp,
 319 01c1 89C3     		movl	%eax, %ebx	 #, tp
 320              	LVL18:
 321 01c3 E8000000 		call	_chSchWakeupS	 #
 321      00
 322              	LVL19:
 323              		.loc 1 201 0
 324 01c8 E8000000 		call	_dbg_check_unlock	 #
 324      00
 325              	LVL20:
 326              	/APP
 327              	 # 201 "../firmware/chibios/os/kernel/src/chthreads.c" 1
 328 01cd 90       		nop
 329              	 # 0 "" 2
 330              		.loc 1 203 0
 331              	/NO_APP
 332 01ce 83C428   		addl	$40, %esp	 #,
 333              		.cfi_def_cfa_offset 8
 334 01d1 89D8     		movl	%ebx, %eax	 # tp,
 335 01d3 5B       		popl	%ebx	 #
 336              		.cfi_restore 3
 337              		.cfi_def_cfa_offset 4
 338              	LVL21:
 339 01d4 C3       		ret
 340              		.cfi_endproc
 341              	LFE9:
 342              		.section .rdata,"dr"
 343              	LC2:
 344 003f 22636854 		.ascii "\"chThdSetPriority\"()\0"
 344      68645365 
 344      74507269 
 344      6F726974 
 344      79222829 
 345              		.text
 346 01d5 8D742600 		.p2align 4,,15
 346      8DBC2700 
 346      000000
GAS LISTING /cygdrive/c/DOCUME~1/andrey/LOCALS~1/Temp/ccRE8DVV.s 			page 8


 347              		.globl	_chThdSetPriority
 348              		.def	_chThdSetPriority;	.scl	2;	.type	32;	.endef
 349              	_chThdSetPriority:
 350              	LFB10:
 351              		.loc 1 217 0
 352              		.cfi_startproc
 353              	LVL22:
 354 01e0 56       		pushl	%esi	 #
 355              		.cfi_def_cfa_offset 8
 356              		.cfi_offset 6, -8
 357 01e1 53       		pushl	%ebx	 #
 358              		.cfi_def_cfa_offset 12
 359              		.cfi_offset 3, -12
 360 01e2 83EC14   		subl	$20, %esp	 #,
 361              		.cfi_def_cfa_offset 32
 362              		.loc 1 217 0
 363 01e5 8B5C2420 		movl	32(%esp), %ebx	 # newprio, newprio
 364              		.loc 1 220 0
 365 01e9 83FB7F   		cmpl	$127, %ebx	 #, newprio
 366 01ec 7733     		ja	L19	 #,
 367              	L15:
 368              		.loc 1 222 0
 369              	/APP
 370              	 # 222 "../firmware/chibios/os/kernel/src/chthreads.c" 1
 371 01ee 90       		nop
 372              	 # 0 "" 2
 373              	/NO_APP
 374 01ef E8000000 		call	_dbg_check_lock	 #
 374      00
 375              	LVL23:
 376              		.loc 1 224 0
 377 01f4 8B151800 		movl	_rlist+24, %edx	 # rlist.r_current, D.2212
 377      0000
 378 01fa 8B7240   		movl	64(%edx), %esi	 # _7->p_realprio, oldprio
 379              	LVL24:
 380              		.loc 1 225 0
 381 01fd 8B4208   		movl	8(%edx), %eax	 # _7->p_prio, D.2213
 382 0200 39C6     		cmpl	%eax, %esi	 # D.2213, oldprio
 383 0202 7404     		je	L16	 #,
 384              		.loc 1 225 0 is_stmt 0 discriminator 1
 385 0204 39C3     		cmpl	%eax, %ebx	 # D.2213, newprio
 386 0206 7603     		jbe	L17	 #,
 387              	L16:
 388              		.loc 1 226 0 is_stmt 1
 389 0208 895A08   		movl	%ebx, 8(%edx)	 # newprio, _7->p_prio
 390              	L17:
 391              		.loc 1 227 0
 392 020b 895A40   		movl	%ebx, 64(%edx)	 # newprio, _7->p_realprio
 393              		.loc 1 232 0
 394 020e E8000000 		call	_chSchRescheduleS	 #
 394      00
 395              	LVL25:
 396              		.loc 1 233 0
 397 0213 E8000000 		call	_dbg_check_unlock	 #
 397      00
 398              	LVL26:
 399              	/APP
GAS LISTING /cygdrive/c/DOCUME~1/andrey/LOCALS~1/Temp/ccRE8DVV.s 			page 9


 400              	 # 233 "../firmware/chibios/os/kernel/src/chthreads.c" 1
 401 0218 90       		nop
 402              	 # 0 "" 2
 403              		.loc 1 235 0
 404              	/NO_APP
 405 0219 83C414   		addl	$20, %esp	 #,
 406              		.cfi_remember_state
 407              		.cfi_def_cfa_offset 12
 408 021c 89F0     		movl	%esi, %eax	 # oldprio,
 409 021e 5B       		popl	%ebx	 #
 410              		.cfi_restore 3
 411              		.cfi_def_cfa_offset 8
 412 021f 5E       		popl	%esi	 #
 413              		.cfi_restore 6
 414              		.cfi_def_cfa_offset 4
 415              	LVL27:
 416 0220 C3       		ret
 417              	LVL28:
 418              		.p2align 4,,7
 419              	L19:
 420              		.cfi_restore_state
 421              		.loc 1 220 0 discriminator 1
 422 0221 C7442408 		movl	$220, 8(%esp)	 #,
 422      DC000000 
 423 0229 C7442404 		movl	$LC0, 4(%esp)	 #,
 423      00000000 
 424 0231 C704243F 		movl	$LC2, (%esp)	 #,
 424      000000
 425 0238 E8000000 		call	_chDbgPanic	 #
 425      00
 426              	LVL29:
 427 023d EBAF     		jmp	L15	 #
 428              		.cfi_endproc
 429              	LFE10:
 430              		.section .rdata,"dr"
 431              	LC3:
 432 0054 63685468 		.ascii "chThdResume(), #1\0"
 432      64526573 
 432      756D6528 
 432      292C2023 
 432      3100
 433              		.text
 434 023f 90       		.p2align 4,,15
 435              		.globl	_chThdResume
 436              		.def	_chThdResume;	.scl	2;	.type	32;	.endef
 437              	_chThdResume:
 438              	LFB11:
 439              		.loc 1 250 0
 440              		.cfi_startproc
 441              	LVL30:
 442 0240 53       		pushl	%ebx	 #
 443              		.cfi_def_cfa_offset 8
 444              		.cfi_offset 3, -8
 445 0241 83EC18   		subl	$24, %esp	 #,
 446              		.cfi_def_cfa_offset 32
 447              		.loc 1 250 0
 448 0244 8B5C2420 		movl	32(%esp), %ebx	 # tp, tp
GAS LISTING /cygdrive/c/DOCUME~1/andrey/LOCALS~1/Temp/ccRE8DVV.s 			page 10


 449              		.loc 1 252 0
 450              	/APP
 451              	 # 252 "../firmware/chibios/os/kernel/src/chthreads.c" 1
 452 0248 90       		nop
 453              	 # 0 "" 2
 454              	/NO_APP
 455 0249 E8000000 		call	_dbg_check_lock	 #
 455      00
 456              	LVL31:
 457              		.loc 1 253 0
 458 024e 807B1C02 		cmpb	$2, 28(%ebx)	 #, tp_4(D)->p_state
 459 0252 741C     		je	L21	 #,
 460              		.loc 1 253 0 is_stmt 0 discriminator 1
 461 0254 C7442408 		movl	$255, 8(%esp)	 #,
 461      FF000000 
 462 025c C7442404 		movl	$LC0, 4(%esp)	 #,
 462      00000000 
 463 0264 C7042454 		movl	$LC3, (%esp)	 #,
 463      000000
 464 026b E8000000 		call	_chDbgPanic	 #
 464      00
 465              	LVL32:
 466              	L21:
 467              		.loc 1 256 0 is_stmt 1
 468 0270 C7442404 		movl	$0, 4(%esp)	 #,
 468      00000000 
 469 0278 891C24   		movl	%ebx, (%esp)	 # tp,
 470 027b E8000000 		call	_chSchWakeupS	 #
 470      00
 471              	LVL33:
 472              		.loc 1 257 0
 473 0280 E8000000 		call	_dbg_check_unlock	 #
 473      00
 474              	LVL34:
 475              	/APP
 476              	 # 257 "../firmware/chibios/os/kernel/src/chthreads.c" 1
 477 0285 90       		nop
 478              	 # 0 "" 2
 479              		.loc 1 259 0
 480              	/NO_APP
 481 0286 83C418   		addl	$24, %esp	 #,
 482              		.cfi_def_cfa_offset 8
 483 0289 89D8     		movl	%ebx, %eax	 # tp,
 484 028b 5B       		popl	%ebx	 #
 485              		.cfi_restore 3
 486              		.cfi_def_cfa_offset 4
 487 028c C3       		ret
 488              		.cfi_endproc
 489              	LFE11:
 490 028d 8D7600   		.p2align 4,,15
 491              		.globl	_chThdTerminate
 492              		.def	_chThdTerminate;	.scl	2;	.type	32;	.endef
 493              	_chThdTerminate:
 494              	LFB12:
 495              		.loc 1 273 0
 496              		.cfi_startproc
 497              	LVL35:
GAS LISTING /cygdrive/c/DOCUME~1/andrey/LOCALS~1/Temp/ccRE8DVV.s 			page 11


 498 0290 53       		pushl	%ebx	 #
 499              		.cfi_def_cfa_offset 8
 500              		.cfi_offset 3, -8
 501 0291 83EC08   		subl	$8, %esp	 #,
 502              		.cfi_def_cfa_offset 16
 503              		.loc 1 273 0
 504 0294 8B5C2410 		movl	16(%esp), %ebx	 # tp, tp
 505              		.loc 1 275 0
 506              	/APP
 507              	 # 275 "../firmware/chibios/os/kernel/src/chthreads.c" 1
 508 0298 90       		nop
 509              	 # 0 "" 2
 510              	/NO_APP
 511 0299 E8000000 		call	_dbg_check_lock	 #
 511      00
 512              	LVL36:
 513              		.loc 1 276 0
 514 029e 804B1D04 		orb	$4, 29(%ebx)	 #, tp_3(D)->p_flags
 515              		.loc 1 277 0
 516 02a2 E8000000 		call	_dbg_check_unlock	 #
 516      00
 517              	LVL37:
 518              	/APP
 519              	 # 277 "../firmware/chibios/os/kernel/src/chthreads.c" 1
 520 02a7 90       		nop
 521              	 # 0 "" 2
 522              		.loc 1 278 0
 523              	/NO_APP
 524 02a8 83C408   		addl	$8, %esp	 #,
 525              		.cfi_def_cfa_offset 8
 526 02ab 5B       		popl	%ebx	 #
 527              		.cfi_restore 3
 528              		.cfi_def_cfa_offset 4
 529 02ac C3       		ret
 530              		.cfi_endproc
 531              	LFE12:
 532              		.section .rdata,"dr"
 533              	LC4:
 534 0066 22636854 		.ascii "\"chThdSleep\"()\0"
 534      6864536C 
 534      65657022 
 534      282900
 535              		.text
 536 02ad 8D7600   		.p2align 4,,15
 537              		.globl	_chThdSleep
 538              		.def	_chThdSleep;	.scl	2;	.type	32;	.endef
 539              	_chThdSleep:
 540              	LFB13:
 541              		.loc 1 292 0
 542              		.cfi_startproc
 543              	LVL38:
 544 02b0 53       		pushl	%ebx	 #
 545              		.cfi_def_cfa_offset 8
 546              		.cfi_offset 3, -8
 547 02b1 83EC18   		subl	$24, %esp	 #,
 548              		.cfi_def_cfa_offset 32
 549              		.loc 1 292 0
GAS LISTING /cygdrive/c/DOCUME~1/andrey/LOCALS~1/Temp/ccRE8DVV.s 			page 12


 550 02b4 8B5C2420 		movl	32(%esp), %ebx	 # time, time
 551              		.loc 1 294 0
 552 02b8 85DB     		testl	%ebx, %ebx	 # time
 553 02ba 751C     		jne	L26	 #,
 554              		.loc 1 294 0 is_stmt 0 discriminator 1
 555 02bc C7442408 		movl	$294, 8(%esp)	 #,
 555      26010000 
 556 02c4 C7442404 		movl	$LC0, 4(%esp)	 #,
 556      00000000 
 557 02cc C7042466 		movl	$LC4, (%esp)	 #,
 557      000000
 558 02d3 E8000000 		call	_chDbgPanic	 #
 558      00
 559              	LVL39:
 560              	L26:
 561              		.loc 1 296 0 is_stmt 1
 562              	/APP
 563              	 # 296 "../firmware/chibios/os/kernel/src/chthreads.c" 1
 564 02d8 90       		nop
 565              	 # 0 "" 2
 566              	/NO_APP
 567 02d9 E8000000 		call	_dbg_check_lock	 #
 567      00
 568              	LVL40:
 569              		.loc 1 297 0
 570 02de 895C2404 		movl	%ebx, 4(%esp)	 # time,
 571 02e2 C7042406 		movl	$6, (%esp)	 #,
 571      000000
 572 02e9 E8000000 		call	_chSchGoSleepTimeoutS	 #
 572      00
 573              	LVL41:
 574              		.loc 1 298 0
 575 02ee E8000000 		call	_dbg_check_unlock	 #
 575      00
 576              	LVL42:
 577              	/APP
 578              	 # 298 "../firmware/chibios/os/kernel/src/chthreads.c" 1
 579 02f3 90       		nop
 580              	 # 0 "" 2
 581              		.loc 1 299 0
 582              	/NO_APP
 583 02f4 83C418   		addl	$24, %esp	 #,
 584              		.cfi_def_cfa_offset 8
 585 02f7 5B       		popl	%ebx	 #
 586              		.cfi_restore 3
 587              		.cfi_def_cfa_offset 4
 588 02f8 C3       		ret
 589              		.cfi_endproc
 590              	LFE13:
 591 02f9 8DB42600 		.p2align 4,,15
 591      000000
 592              		.globl	_chThdSleepUntil
 593              		.def	_chThdSleepUntil;	.scl	2;	.type	32;	.endef
 594              	_chThdSleepUntil:
 595              	LFB14:
 596              		.loc 1 309 0
 597              		.cfi_startproc
GAS LISTING /cygdrive/c/DOCUME~1/andrey/LOCALS~1/Temp/ccRE8DVV.s 			page 13


 598              	LVL43:
 599 0300 83EC1C   		subl	$28, %esp	 #,
 600              		.cfi_def_cfa_offset 32
 601              		.loc 1 311 0
 602              	/APP
 603              	 # 311 "../firmware/chibios/os/kernel/src/chthreads.c" 1
 604 0303 90       		nop
 605              	 # 0 "" 2
 606              	/NO_APP
 607 0304 E8000000 		call	_dbg_check_lock	 #
 607      00
 608              	LVL44:
 609              		.loc 1 312 0
 610 0309 A10C0000 		movl	_vtlist+12, %eax	 # vtlist.vt_systime, D.2227
 610      00
 611              	LVL45:
 612 030e 8B542420 		movl	32(%esp), %edx	 # time, time
 613 0312 29C2     		subl	%eax, %edx	 # D.2227, time
 614              	LVL46:
 615 0314 7410     		je	L29	 #,
 616              		.loc 1 313 0
 617 0316 89542404 		movl	%edx, 4(%esp)	 # time,
 618 031a C7042406 		movl	$6, (%esp)	 #,
 618      000000
 619 0321 E8000000 		call	_chSchGoSleepTimeoutS	 #
 619      00
 620              	LVL47:
 621              	L29:
 622              		.loc 1 314 0
 623 0326 E8000000 		call	_dbg_check_unlock	 #
 623      00
 624              	LVL48:
 625              	/APP
 626              	 # 314 "../firmware/chibios/os/kernel/src/chthreads.c" 1
 627 032b 90       		nop
 628              	 # 0 "" 2
 629              		.loc 1 315 0
 630              	/NO_APP
 631 032c 83C41C   		addl	$28, %esp	 #,
 632              		.cfi_def_cfa_offset 4
 633 032f C3       		ret
 634              		.cfi_endproc
 635              	LFE14:
 636              		.p2align 4,,15
 637              		.globl	_chThdYield
 638              		.def	_chThdYield;	.scl	2;	.type	32;	.endef
 639              	_chThdYield:
 640              	LFB15:
 641              		.loc 1 324 0
 642              		.cfi_startproc
 643 0330 83EC0C   		subl	$12, %esp	 #,
 644              		.cfi_def_cfa_offset 16
 645              		.loc 1 326 0
 646              	/APP
 647              	 # 326 "../firmware/chibios/os/kernel/src/chthreads.c" 1
 648 0333 90       		nop
 649              	 # 0 "" 2
GAS LISTING /cygdrive/c/DOCUME~1/andrey/LOCALS~1/Temp/ccRE8DVV.s 			page 14


 650              	/NO_APP
 651 0334 E8000000 		call	_dbg_check_lock	 #
 651      00
 652              	LVL49:
 653              		.loc 1 327 0
 654 0339 A1180000 		movl	_rlist+24, %eax	 # rlist.r_current, rlist.r_current
 654      00
 655 033e 8B150000 		movl	_rlist, %edx	 # rlist.r_queue.p_next, rlist.r_queue.p_next
 655      0000
 656 0344 8B4008   		movl	8(%eax), %eax	 # _6->p_prio, tmp66
 657 0347 394208   		cmpl	%eax, 8(%edx)	 # tmp66, _4->p_prio
 658 034a 7205     		jb	L35	 #,
 659              		.loc 1 327 0 is_stmt 0 discriminator 1
 660 034c E8000000 		call	_chSchDoRescheduleBehind	 #
 660      00
 661              	LVL50:
 662              	L35:
 663              		.loc 1 328 0 is_stmt 1
 664 0351 E8000000 		call	_dbg_check_unlock	 #
 664      00
 665              	LVL51:
 666              	/APP
 667              	 # 328 "../firmware/chibios/os/kernel/src/chthreads.c" 1
 668 0356 90       		nop
 669              	 # 0 "" 2
 670              		.loc 1 329 0
 671              	/NO_APP
 672 0357 83C40C   		addl	$12, %esp	 #,
 673              		.cfi_def_cfa_offset 4
 674              		.p2align 4,,2
 675 035a C3       		ret
 676              		.cfi_endproc
 677              	LFE15:
 678              		.section .rdata,"dr"
 679              	LC5:
 680 0075 63685468 		.ascii "chThdExitS(), #1\0"
 680      64457869 
 680      74532829 
 680      2C202331 
 680      00
 681              		.text
 682 035b 908D7426 		.p2align 4,,15
 682      00
 683              		.globl	_chThdExitS
 684              		.def	_chThdExitS;	.scl	2;	.type	32;	.endef
 685              	_chThdExitS:
 686              	LFB17:
 687              		.loc 1 366 0
 688              		.cfi_startproc
 689              	LVL52:
 690 0360 56       		pushl	%esi	 #
 691              		.cfi_def_cfa_offset 8
 692              		.cfi_offset 6, -8
 693 0361 53       		pushl	%ebx	 #
 694              		.cfi_def_cfa_offset 12
 695              		.cfi_offset 3, -12
 696 0362 83EC14   		subl	$20, %esp	 #,
GAS LISTING /cygdrive/c/DOCUME~1/andrey/LOCALS~1/Temp/ccRE8DVV.s 			page 15


 697              		.cfi_def_cfa_offset 32
 698              		.loc 1 367 0
 699 0365 8B1D1800 		movl	_rlist+24, %ebx	 # rlist.r_current, tp
 699      0000
 700              	LVL53:
 701              		.loc 1 369 0
 702 036b 8B442420 		movl	32(%esp), %eax	 # msg, msg
 703              		.loc 1 374 0
 704 036f 8D7328   		leal	40(%ebx), %esi	 #, D.2236
 705              		.loc 1 369 0
 706 0372 894324   		movl	%eax, 36(%ebx)	 # msg, tp_4->p_u.exitcode
 707              		.loc 1 374 0
 708 0375 8B4328   		movl	40(%ebx), %eax	 # tp_4->p_waiting.p_next, D.2234
 709 0378 39F0     		cmpl	%esi, %eax	 # D.2236, D.2234
 710 037a 7418     		je	L41	 #,
 711 037c 8D742600 		.p2align 4,,7
 712              	L43:
 713              	LVL54:
 714              	LBB18:
 715              	LBB19:
 716              		.file 2 "../firmware/chibios/os/kernel/include/chinline.h"
 717              		.loc 2 89 0
 718 0380 8B10     		movl	(%eax), %edx	 # _27->p_next, _27->p_next
 719 0382 895328   		movl	%edx, 40(%ebx)	 # _27->p_next, MEM[(struct ThreadsList *)tp_4 + 40B].p_next
 720              	LBE19:
 721              	LBE18:
 722              		.loc 1 375 0
 723 0385 890424   		movl	%eax, (%esp)	 # D.2234,
 724 0388 E8000000 		call	_chSchReadyI	 #
 724      00
 725              	LVL55:
 726              		.loc 1 374 0
 727 038d 8B4328   		movl	40(%ebx), %eax	 # tp_4->p_waiting.p_next, D.2234
 728 0390 39F0     		cmpl	%esi, %eax	 # D.2236, D.2234
 729 0392 75EC     		jne	L43	 #,
 730              	LVL56:
 731              	L41:
 732              		.loc 1 380 0
 733 0394 F6431D03 		testb	$3, 29(%ebx)	 #, tp_4->p_flags
 734 0398 750F     		jne	L40	 #,
 735              		.loc 1 381 0
 736 039a 8B5310   		movl	16(%ebx), %edx	 # tp_4->p_newer, D.2234
 737 039d 8B4314   		movl	20(%ebx), %eax	 # tp_4->p_older, D.2234
 738 03a0 895010   		movl	%edx, 16(%eax)	 # D.2234, _12->p_newer
 739 03a3 8B5310   		movl	16(%ebx), %edx	 # tp_4->p_newer, tp_4->p_newer
 740 03a6 894214   		movl	%eax, 20(%edx)	 # D.2234, _15->p_older
 741              	L40:
 742              		.loc 1 383 0
 743 03a9 C704240E 		movl	$14, (%esp)	 #,
 743      000000
 744 03b0 E8000000 		call	_chSchGoSleepS	 #
 744      00
 745              	LVL57:
 746              		.loc 1 385 0
 747 03b5 C7442408 		movl	$385, 8(%esp)	 #,
 747      81010000 
 748 03bd C7442404 		movl	$LC0, 4(%esp)	 #,
GAS LISTING /cygdrive/c/DOCUME~1/andrey/LOCALS~1/Temp/ccRE8DVV.s 			page 16


 748      00000000 
 749 03c5 C7042475 		movl	$LC5, (%esp)	 #,
 749      000000
 750 03cc E8000000 		call	_chDbgPanic	 #
 750      00
 751              	LVL58:
 752              		.loc 1 386 0
 753 03d1 83C414   		addl	$20, %esp	 #,
 754              		.cfi_def_cfa_offset 12
 755 03d4 5B       		popl	%ebx	 #
 756              		.cfi_restore 3
 757              		.cfi_def_cfa_offset 8
 758              	LVL59:
 759 03d5 5E       		popl	%esi	 #
 760              		.cfi_restore 6
 761              		.cfi_def_cfa_offset 4
 762              	LVL60:
 763 03d6 C3       		ret
 764              		.cfi_endproc
 765              	LFE17:
 766 03d7 89F68DBC 		.p2align 4,,15
 766      27000000 
 766      00
 767              		.globl	_chThdExit
 768              		.def	_chThdExit;	.scl	2;	.type	32;	.endef
 769              	_chThdExit:
 770              	LFB16:
 771              		.loc 1 345 0
 772              		.cfi_startproc
 773              	LVL61:
 774 03e0 53       		pushl	%ebx	 #
 775              		.cfi_def_cfa_offset 8
 776              		.cfi_offset 3, -8
 777 03e1 83EC08   		subl	$8, %esp	 #,
 778              		.cfi_def_cfa_offset 16
 779              		.loc 1 345 0
 780 03e4 8B5C2410 		movl	16(%esp), %ebx	 # msg, msg
 781              		.loc 1 347 0
 782              	/APP
 783              	 # 347 "../firmware/chibios/os/kernel/src/chthreads.c" 1
 784 03e8 90       		nop
 785              	 # 0 "" 2
 786              	/NO_APP
 787 03e9 E8000000 		call	_dbg_check_lock	 #
 787      00
 788              	LVL62:
 789              		.loc 1 348 0
 790 03ee 895C2410 		movl	%ebx, 16(%esp)	 # msg,
 791              		.loc 1 350 0
 792 03f2 83C408   		addl	$8, %esp	 #,
 793              		.cfi_def_cfa_offset 8
 794 03f5 5B       		popl	%ebx	 #
 795              		.cfi_restore 3
 796              		.cfi_def_cfa_offset 4
 797              		.loc 1 348 0
 798 03f6 E965FFFF 		jmp	_chThdExitS	 #
 798      FF
GAS LISTING /cygdrive/c/DOCUME~1/andrey/LOCALS~1/Temp/ccRE8DVV.s 			page 17


 799              	LVL63:
 800              		.cfi_endproc
 801              	LFE16:
 802              		.section .rdata,"dr"
 803              	LC6:
 804 0086 22636854 		.ascii "\"chThdWait\"()\0"
 804      68645761 
 804      69742228 
 804      2900
 805              	LC7:
 806 0094 63685468 		.ascii "chThdWait(), #1\0"
 806      64576169 
 806      7428292C 
 806      20233100 
 807              	LC8:
 808 00a4 63685468 		.ascii "chThdWait(), #2\0"
 808      64576169 
 808      7428292C 
 808      20233200 
 809              		.text
 810 03fb 908D7426 		.p2align 4,,15
 810      00
 811              		.globl	_chThdWait
 812              		.def	_chThdWait;	.scl	2;	.type	32;	.endef
 813              	_chThdWait:
 814              	LFB18:
 815              		.loc 1 420 0
 816              		.cfi_startproc
 817              	LVL64:
 818 0400 56       		pushl	%esi	 #
 819              		.cfi_def_cfa_offset 8
 820              		.cfi_offset 6, -8
 821 0401 53       		pushl	%ebx	 #
 822              		.cfi_def_cfa_offset 12
 823              		.cfi_offset 3, -12
 824 0402 83EC14   		subl	$20, %esp	 #,
 825              		.cfi_def_cfa_offset 32
 826              		.loc 1 420 0
 827 0405 8B5C2420 		movl	32(%esp), %ebx	 # tp, tp
 828              		.loc 1 423 0
 829 0409 85DB     		testl	%ebx, %ebx	 # tp
 830 040b 0F848F00 		je	L53	 #,
 830      0000
 831              	L48:
 832              		.loc 1 425 0
 833              	/APP
 834              	 # 425 "../firmware/chibios/os/kernel/src/chthreads.c" 1
 835 0411 90       		nop
 836              	 # 0 "" 2
 837              	/NO_APP
 838 0412 E8000000 		call	_dbg_check_lock	 #
 838      00
 839              	LVL65:
 840              		.loc 1 426 0
 841 0417 391D1800 		cmpl	%ebx, _rlist+24	 # tp, rlist.r_current
 841      0000
 842 041d 7461     		je	L54	 #,
GAS LISTING /cygdrive/c/DOCUME~1/andrey/LOCALS~1/Temp/ccRE8DVV.s 			page 18


 843              	L49:
 844              		.loc 1 428 0
 845 041f 807B1E00 		cmpb	$0, 30(%ebx)	 #, tp_5(D)->p_refs
 846 0423 743B     		je	L55	 #,
 847              	L50:
 848              		.loc 1 430 0
 849 0425 807B1C0E 		cmpb	$14, 28(%ebx)	 #, tp_5(D)->p_state
 850 0429 7419     		je	L51	 #,
 851              	LBB20:
 852              	LBB21:
 853              		.loc 2 82 0
 854 042b 8B5328   		movl	40(%ebx), %edx	 # MEM[(struct ThreadsList *)tp_5(D) + 40B].p_next, MEM[(struct ThreadsList *)
 855              	LBE21:
 856              	LBE20:
 857              		.loc 1 431 0
 858 042e A1180000 		movl	_rlist+24, %eax	 # rlist.r_current, D.2242
 858      00
 859              	LVL66:
 860              	LBB23:
 861              	LBB22:
 862              		.loc 2 82 0
 863 0433 8910     		movl	%edx, (%eax)	 # MEM[(struct ThreadsList *)tp_5(D) + 40B].p_next, _14->p_next
 864              		.loc 2 83 0
 865 0435 894328   		movl	%eax, 40(%ebx)	 # D.2242, MEM[(struct ThreadsList *)tp_5(D) + 40B].p_next
 866              	LBE22:
 867              	LBE23:
 868              		.loc 1 432 0
 869 0438 C7042407 		movl	$7, (%esp)	 #,
 869      000000
 870 043f E8000000 		call	_chSchGoSleepS	 #
 870      00
 871              	LVL67:
 872              	L51:
 873              		.loc 1 434 0
 874 0444 8B7324   		movl	36(%ebx), %esi	 # tp_5(D)->p_u.exitcode, msg
 875              	LVL68:
 876              		.loc 1 435 0
 877 0447 E8000000 		call	_dbg_check_unlock	 #
 877      00
 878              	LVL69:
 879              	/APP
 880              	 # 435 "../firmware/chibios/os/kernel/src/chthreads.c" 1
 881 044c 90       		nop
 882              	 # 0 "" 2
 883              		.loc 1 437 0
 884              	/NO_APP
 885 044d 891C24   		movl	%ebx, (%esp)	 # tp,
 886 0450 E8000000 		call	_chThdRelease	 #
 886      00
 887              	LVL70:
 888              		.loc 1 440 0
 889 0455 83C414   		addl	$20, %esp	 #,
 890              		.cfi_remember_state
 891              		.cfi_def_cfa_offset 12
 892 0458 89F0     		movl	%esi, %eax	 # msg,
 893 045a 5B       		popl	%ebx	 #
 894              		.cfi_restore 3
GAS LISTING /cygdrive/c/DOCUME~1/andrey/LOCALS~1/Temp/ccRE8DVV.s 			page 19


 895              		.cfi_def_cfa_offset 8
 896 045b 5E       		popl	%esi	 #
 897              		.cfi_restore 6
 898              		.cfi_def_cfa_offset 4
 899              	LVL71:
 900 045c C3       		ret
 901              	LVL72:
 902 045d 8D7600   		.p2align 4,,7
 903              	L55:
 904              		.cfi_restore_state
 905              		.loc 1 428 0 discriminator 1
 906 0460 C7442408 		movl	$428, 8(%esp)	 #,
 906      AC010000 
 907 0468 C7442404 		movl	$LC0, 4(%esp)	 #,
 907      00000000 
 908 0470 C70424A4 		movl	$LC8, (%esp)	 #,
 908      000000
 909 0477 E8000000 		call	_chDbgPanic	 #
 909      00
 910              	LVL73:
 911 047c EBA7     		jmp	L50	 #
 912 047e 6690     		.p2align 4,,7
 913              	L54:
 914              		.loc 1 426 0 discriminator 1
 915 0480 C7442408 		movl	$426, 8(%esp)	 #,
 915      AA010000 
 916 0488 C7442404 		movl	$LC0, 4(%esp)	 #,
 916      00000000 
 917 0490 C7042494 		movl	$LC7, (%esp)	 #,
 917      000000
 918 0497 E8000000 		call	_chDbgPanic	 #
 918      00
 919              	LVL74:
 920 049c EB81     		jmp	L49	 #
 921 049e 6690     		.p2align 4,,7
 922              	L53:
 923              		.loc 1 423 0 discriminator 1
 924 04a0 C7442408 		movl	$423, 8(%esp)	 #,
 924      A7010000 
 925 04a8 C7442404 		movl	$LC0, 4(%esp)	 #,
 925      00000000 
 926 04b0 C7042486 		movl	$LC6, (%esp)	 #,
 926      000000
 927 04b7 E8000000 		call	_chDbgPanic	 #
 927      00
 928              	LVL75:
 929 04bc E950FFFF 		jmp	L48	 #
 929      FF
 930              		.cfi_endproc
 931              	LFE18:
 932              	Letext0:
 933              		.file 3 "/usr/lib/gcc/i686-pc-cygwin/4.8.2/include/stddef.h"
 934              		.file 4 "/usr/include/stdint.h"
 935              		.file 5 "../firmware/chibios/os/ports/GCC/SIMIA32/chtypes.h"
 936              		.file 6 "../firmware/chibios/os/kernel/include/chlists.h"
 937              		.file 7 "../firmware/chibios/os/kernel/include/chthreads.h"
 938              		.file 8 "../firmware/chibios/os/ports/GCC/SIMIA32/chcore.h"
GAS LISTING /cygdrive/c/DOCUME~1/andrey/LOCALS~1/Temp/ccRE8DVV.s 			page 20


 939              		.file 9 "../firmware/chibios/os/kernel/include/chvt.h"
 940              		.file 10 "../firmware/chibios/os/kernel/include/chschd.h"
 941              		.file 11 "../firmware/chibios/os/kernel/include/chmtx.h"
 942              		.file 12 "../firmware/chibios/os/kernel/include/chdebug.h"
 943              		.file 13 "../firmware/chibios/os/kernel/include/chdynamic.h"