GAS LISTING /cygdrive/c/DOCUME~1/andrey/LOCALS~1/Temp/ccG3kYs1.s 			page 1


   1              		.file	"chvt.c"
   2              	 # GNU C (GCC) version 4.8.2 (i686-pc-cygwin)
   3              	 #	compiled by GNU C version 4.8.2, GMP version 5.1.3, MPFR version 3.1.2, MPC version 1.0.1
   4              	 # GGC heuristics: --param ggc-min-expand=100 --param ggc-min-heapsize=131072
   5              	 # options passed:  -I . -I ../firmware/chibios/os/ports/GCC/SIMIA32
   6              	 # -I ../firmware/chibios/os/kernel/include
   7              	 # -I ../firmware/chibios/os/hal/include
   8              	 # -I ../firmware/chibios/os/hal/platforms/Win32
   9              	 # -I ../firmware/chibios/boards/simulator -I ../firmware/util
  10              	 # -I ../firmware/console -I ../firmware/console_util
  11              	 # -I ../firmware/config/engines -I ../firmware/ext_algo
  12              	 # -I ../firmware/controllers/sensors -I ../firmware/controllers/system
  13              	 # -I ../firmware/controllers/algo -I ../firmware/controllers/math
  14              	 # -I ../firmware/controllers/trigger -I ../firmware/chibios/os/various
  15              	 # -MD ../firmware/chibios/os/kernel/src/chvt.d -MF .dep/chvt.o.d -MP
  16              	 # -MQ ../firmware/chibios/os/kernel/src/chvt.o -Dunix
  17              	 # -idirafter /usr/lib/gcc/i686-pc-cygwin/4.8.2/../../../../include/w32api
  18              	 # -idirafter ../../include/w32api -D SIMULATOR -D SHELL_USE_IPRINTF=FALSE
  19              	 # ../firmware/chibios/os/kernel/src/chvt.c -mtune=generic -march=i686
  20              	 # -auxbase-strip ../firmware/chibios/os/kernel/src/chvt.o -ggdb -O2 -Wall
  21              	 # -Wextra -Wstrict-prototypes -std=gnu99 -fomit-frame-pointer
  22              	 # -fgnu89-inline -fverbose-asm
  23              	 # options enabled:  -faggressive-loop-optimizations
  24              	 # -fasynchronous-unwind-tables -fauto-inc-dec -fbranch-count-reg
  25              	 # -fcaller-saves -fcombine-stack-adjustments -fcommon -fcompare-elim
  26              	 # -fcprop-registers -fcrossjumping -fcse-follow-jumps -fdefer-pop
  27              	 # -fdelete-null-pointer-checks -fdevirtualize -fdwarf2-cfi-asm
  28              	 # -fearly-inlining -feliminate-unused-debug-types
  29              	 # -fexpensive-optimizations -fforward-propagate -ffunction-cse -fgcse
  30              	 # -fgcse-lm -fgnu-runtime -fguess-branch-probability
  31              	 # -fhoist-adjacent-loads -fident -fif-conversion -fif-conversion2
  32              	 # -findirect-inlining -finline -finline-atomics
  33              	 # -finline-functions-called-once -finline-small-functions -fipa-cp
  34              	 # -fipa-profile -fipa-pure-const -fipa-reference -fipa-sra
  35              	 # -fira-hoist-pressure -fira-share-save-slots -fira-share-spill-slots
  36              	 # -fivopts -fkeep-inline-dllexport -fkeep-static-consts
  37              	 # -fleading-underscore -fmath-errno -fmerge-constants
  38              	 # -fmerge-debug-strings -fmove-loop-invariants -fomit-frame-pointer
  39              	 # -foptimize-register-move -foptimize-sibling-calls -foptimize-strlen
  40              	 # -fpartial-inlining -fpeephole -fpeephole2 -fprefetch-loop-arrays -free
  41              	 # -freg-struct-return -fregmove -freorder-blocks -freorder-functions
  42              	 # -frerun-cse-after-loop -fsched-critical-path-heuristic
  43              	 # -fsched-dep-count-heuristic -fsched-group-heuristic -fsched-interblock
  44              	 # -fsched-last-insn-heuristic -fsched-rank-heuristic -fsched-spec
  45              	 # -fsched-spec-insn-heuristic -fsched-stalled-insns-dep -fschedule-insns2
  46              	 # -fset-stack-executable -fshow-column -fshrink-wrap -fsigned-zeros
  47              	 # -fsplit-ivs-in-unroller -fsplit-wide-types -fstrict-aliasing
  48              	 # -fstrict-overflow -fstrict-volatile-bitfields -fsync-libcalls
  49              	 # -fthread-jumps -ftoplevel-reorder -ftrapping-math -ftree-bit-ccp
  50              	 # -ftree-builtin-call-dce -ftree-ccp -ftree-ch -ftree-coalesce-vars
  51              	 # -ftree-copy-prop -ftree-copyrename -ftree-cselim -ftree-dce
  52              	 # -ftree-dominator-opts -ftree-dse -ftree-forwprop -ftree-fre
  53              	 # -ftree-loop-if-convert -ftree-loop-im -ftree-loop-ivcanon
  54              	 # -ftree-loop-optimize -ftree-parallelize-loops= -ftree-phiprop -ftree-pre
  55              	 # -ftree-pta -ftree-reassoc -ftree-scev-cprop -ftree-sink
  56              	 # -ftree-slp-vectorize -ftree-slsr -ftree-sra -ftree-switch-conversion
  57              	 # -ftree-tail-merge -ftree-ter -ftree-vect-loop-version -ftree-vrp
GAS LISTING /cygdrive/c/DOCUME~1/andrey/LOCALS~1/Temp/ccG3kYs1.s 			page 2


  58              	 # -funit-at-a-time -funwind-tables -fvar-tracking
  59              	 # -fvar-tracking-assignments -fverbose-asm -fzero-initialized-in-bss -m32
  60              	 # -m80387 -m96bit-long-double -maccumulate-outgoing-args -malign-double
  61              	 # -malign-stringops -mfancy-math-387 -mfp-ret-in-387 -mieee-fp
  62              	 # -mlong-double-80 -mno-red-zone -mno-sse4 -mpush-args -msahf
  63              	 # -mstack-arg-probe
  64              	
  65              		.text
  66              	Ltext0:
  67              		.p2align 4,,15
  68              		.globl	__vt_init
  69              		.def	__vt_init;	.scl	2;	.type	32;	.endef
  70              	__vt_init:
  71              	LFB7:
  72              		.file 1 "../firmware/chibios/os/kernel/src/chvt.c"
  73              		.loc 1 50 0
  74              		.cfi_startproc
  75              		.loc 1 52 0
  76 0000 C7050400 		movl	$_vtlist, _vtlist+4	 #, vtlist.vt_prev
  76      00000000 
  76      0000
  77 000a C7050000 		movl	$_vtlist, _vtlist	 #, vtlist.vt_next
  77      00000000 
  77      0000
  78              		.loc 1 53 0
  79 0014 C7050800 		movl	$-1, _vtlist+8	 #, vtlist.vt_time
  79      0000FFFF 
  79      FFFF
  80              		.loc 1 54 0
  81 001e C7050C00 		movl	$0, _vtlist+12	 #, vtlist.vt_systime
  81      00000000 
  81      0000
  82 0028 C3       		ret
  83              		.cfi_endproc
  84              	LFE7:
  85              		.section .rdata,"dr"
  86              		.align 4
  87              	LC0:
  88 0000 2E2E2F66 		.ascii "../firmware/chibios/os/kernel/src/chvt.c\0"
  88      69726D77 
  88      6172652F 
  88      63686962 
  88      696F732F 
  89              	LC1:
  90 0029 22636856 		.ascii "\"chVTSetI\"()\0"
  90      54536574 
  90      49222829 
  90      00
  91              		.text
  92 0029 8DB42600 		.p2align 4,,15
  92      000000
  93              		.globl	_chVTSetI
  94              		.def	_chVTSetI;	.scl	2;	.type	32;	.endef
  95              	_chVTSetI:
  96              	LFB8:
  97              		.loc 1 76 0
  98              		.cfi_startproc
GAS LISTING /cygdrive/c/DOCUME~1/andrey/LOCALS~1/Temp/ccG3kYs1.s 			page 3


  99              	LVL0:
 100 0030 57       		pushl	%edi	 #
 101              		.cfi_def_cfa_offset 8
 102              		.cfi_offset 7, -8
 103 0031 56       		pushl	%esi	 #
 104              		.cfi_def_cfa_offset 12
 105              		.cfi_offset 6, -12
 106 0032 53       		pushl	%ebx	 #
 107              		.cfi_def_cfa_offset 16
 108              		.cfi_offset 3, -16
 109 0033 83EC10   		subl	$16, %esp	 #,
 110              		.cfi_def_cfa_offset 32
 111              		.loc 1 76 0
 112 0036 8B742420 		movl	32(%esp), %esi	 # vtp, vtp
 113 003a 8B5C2424 		movl	36(%esp), %ebx	 # time, time
 114 003e 8B7C2428 		movl	40(%esp), %edi	 # vtfunc, vtfunc
 115              		.loc 1 79 0
 116 0042 E8000000 		call	_chDbgCheckClassI	 #
 116      00
 117              	LVL1:
 118              		.loc 1 80 0
 119 0047 85F6     		testl	%esi, %esi	 # vtp
 120 0049 7455     		je	L3	 #,
 121 004b 85FF     		testl	%edi, %edi	 # vtfunc
 122 004d 7451     		je	L3	 #,
 123              		.loc 1 80 0 is_stmt 0 discriminator 2
 124 004f 85DB     		testl	%ebx, %ebx	 # time
 125              		.p2align 4,,5
 126 0051 744D     		je	L3	 #,
 127              	L4:
 128              		.loc 1 83 0 is_stmt 1
 129 0053 8B44242C 		movl	44(%esp), %eax	 # par, par
 130              		.loc 1 84 0
 131 0057 897E0C   		movl	%edi, 12(%esi)	 # vtfunc, vtp_7(D)->vt_func
 132              		.loc 1 83 0
 133 005a 894610   		movl	%eax, 16(%esi)	 # par, vtp_7(D)->vt_par
 134              		.loc 1 85 0
 135 005d A1000000 		movl	_vtlist, %eax	 # vtlist.vt_next, p
 135      00
 136              	LVL2:
 137              		.loc 1 86 0
 138 0062 8B5008   		movl	8(%eax), %edx	 # p_17->vt_time, D.2095
 139 0065 39D3     		cmpl	%edx, %ebx	 # D.2095, time
 140 0067 7612     		jbe	L5	 #,
 141 0069 8DB42600 		.p2align 4,,7
 141      000000
 142              	L6:
 143              		.loc 1 88 0
 144 0070 8B00     		movl	(%eax), %eax	 # p_40->vt_next, p
 145              	LVL3:
 146              		.loc 1 87 0
 147 0072 29D3     		subl	%edx, %ebx	 # D.2095, time
 148              	LVL4:
 149              		.loc 1 86 0
 150 0074 8B5008   		movl	8(%eax), %edx	 # p_20->vt_time, D.2095
 151 0077 39DA     		cmpl	%ebx, %edx	 # time, D.2095
 152 0079 72F5     		jb	L6	 #,
GAS LISTING /cygdrive/c/DOCUME~1/andrey/LOCALS~1/Temp/ccG3kYs1.s 			page 4


 153              	L5:
 154              		.loc 1 91 0
 155 007b 8B5004   		movl	4(%eax), %edx	 # p_31->vt_prev, D.2096
 156              		.loc 1 94 0
 157 007e 3D000000 		cmpl	$_vtlist, %eax	 #, p
 157      00
 158              		.loc 1 91 0
 159 0083 8906     		movl	%eax, (%esi)	 # p, vtp_7(D)->vt_next
 160 0085 895604   		movl	%edx, 4(%esi)	 # D.2096, vtp_7(D)->vt_prev
 161              		.loc 1 92 0
 162 0088 897004   		movl	%esi, 4(%eax)	 # vtp, p_31->vt_prev
 163 008b 8932     		movl	%esi, (%edx)	 # vtp, _22->vt_next
 164              		.loc 1 93 0
 165 008d 895E08   		movl	%ebx, 8(%esi)	 # time, vtp_7(D)->vt_time
 166              		.loc 1 94 0
 167 0090 7403     		je	L2	 #,
 168              		.loc 1 95 0
 169 0092 295808   		subl	%ebx, 8(%eax)	 # time, p_31->vt_time
 170              	L2:
 171              		.loc 1 96 0
 172 0095 83C410   		addl	$16, %esp	 #,
 173              		.cfi_remember_state
 174              		.cfi_def_cfa_offset 16
 175 0098 5B       		popl	%ebx	 #
 176              		.cfi_restore 3
 177              		.cfi_def_cfa_offset 12
 178              	LVL5:
 179 0099 5E       		popl	%esi	 #
 180              		.cfi_restore 6
 181              		.cfi_def_cfa_offset 8
 182 009a 5F       		popl	%edi	 #
 183              		.cfi_restore 7
 184              		.cfi_def_cfa_offset 4
 185 009b C3       		ret
 186              	LVL6:
 187 009c 8D742600 		.p2align 4,,7
 188              	L3:
 189              		.cfi_restore_state
 190              		.loc 1 80 0 discriminator 1
 191 00a0 C7442408 		movl	$81, 8(%esp)	 #,
 191      51000000 
 192 00a8 C7442404 		movl	$LC0, 4(%esp)	 #,
 192      00000000 
 193 00b0 C7042429 		movl	$LC1, (%esp)	 #,
 193      000000
 194 00b7 E8000000 		call	_chDbgPanic	 #
 194      00
 195              	LVL7:
 196 00bc EB95     		jmp	L4	 #
 197              		.cfi_endproc
 198              	LFE8:
 199              		.section .rdata,"dr"
 200              	LC2:
 201 0036 22636856 		.ascii "\"chVTResetI\"()\0"
 201      54526573 
 201      65744922 
 201      282900
GAS LISTING /cygdrive/c/DOCUME~1/andrey/LOCALS~1/Temp/ccG3kYs1.s 			page 5


 202              	LC3:
 203 0045 63685654 		.ascii "chVTResetI(), #1\0"
 203      52657365 
 203      74492829 
 203      2C202331 
 203      00
 204 0056 0000     		.text
 205 00be 6690     		.p2align 4,,15
 206              		.globl	_chVTResetI
 207              		.def	_chVTResetI;	.scl	2;	.type	32;	.endef
 208              	_chVTResetI:
 209              	LFB9:
 210              		.loc 1 106 0
 211              		.cfi_startproc
 212              	LVL8:
 213 00c0 53       		pushl	%ebx	 #
 214              		.cfi_def_cfa_offset 8
 215              		.cfi_offset 3, -8
 216 00c1 83EC18   		subl	$24, %esp	 #,
 217              		.cfi_def_cfa_offset 32
 218              		.loc 1 106 0
 219 00c4 8B5C2420 		movl	32(%esp), %ebx	 # vtp, vtp
 220              		.loc 1 108 0
 221 00c8 E8000000 		call	_chDbgCheckClassI	 #
 221      00
 222              	LVL9:
 223              		.loc 1 109 0
 224 00cd 85DB     		testl	%ebx, %ebx	 # vtp
 225 00cf 742F     		je	L21	 #,
 226              	L14:
 227              		.loc 1 110 0
 228 00d1 8B430C   		movl	12(%ebx), %eax	 # vtp_6(D)->vt_func,
 229 00d4 85C0     		testl	%eax, %eax	 #
 230 00d6 7448     		je	L22	 #,
 231              	L15:
 232              		.loc 1 114 0
 233 00d8 8B03     		movl	(%ebx), %eax	 # vtp_6(D)->vt_next, D.2102
 234 00da 3D000000 		cmpl	$_vtlist, %eax	 #, D.2102
 234      00
 235 00df 7406     		je	L16	 #,
 236              		.loc 1 115 0
 237 00e1 8B5308   		movl	8(%ebx), %edx	 # vtp_6(D)->vt_time, vtp_6(D)->vt_time
 238 00e4 015008   		addl	%edx, 8(%eax)	 # vtp_6(D)->vt_time, _10->vt_time
 239              	L16:
 240              		.loc 1 116 0
 241 00e7 8B5304   		movl	4(%ebx), %edx	 # vtp_6(D)->vt_prev, D.2102
 242 00ea 8902     		movl	%eax, (%edx)	 # D.2102, _15->vt_next
 243              		.loc 1 117 0
 244 00ec 8B03     		movl	(%ebx), %eax	 # vtp_6(D)->vt_next, vtp_6(D)->vt_next
 245 00ee 895004   		movl	%edx, 4(%eax)	 # D.2102, _17->vt_prev
 246              		.loc 1 118 0
 247 00f1 C7430C00 		movl	$0, 12(%ebx)	 #, vtp_6(D)->vt_func
 247      000000
 248              		.loc 1 119 0
 249 00f8 83C418   		addl	$24, %esp	 #,
 250              		.cfi_remember_state
 251              		.cfi_def_cfa_offset 8
GAS LISTING /cygdrive/c/DOCUME~1/andrey/LOCALS~1/Temp/ccG3kYs1.s 			page 6


 252 00fb 5B       		popl	%ebx	 #
 253              		.cfi_restore 3
 254              		.cfi_def_cfa_offset 4
 255 00fc C3       		ret
 256 00fd 8D7600   		.p2align 4,,7
 257              	L21:
 258              		.cfi_restore_state
 259              		.loc 1 109 0 discriminator 1
 260 0100 C7442408 		movl	$109, 8(%esp)	 #,
 260      6D000000 
 261 0108 C7442404 		movl	$LC0, 4(%esp)	 #,
 261      00000000 
 262 0110 C7042436 		movl	$LC2, (%esp)	 #,
 262      000000
 263 0117 E8000000 		call	_chDbgPanic	 #
 263      00
 264              	LVL10:
 265 011c EBB3     		jmp	L14	 #
 266 011e 6690     		.p2align 4,,7
 267              	L22:
 268              		.loc 1 110 0 discriminator 1
 269 0120 C7442408 		movl	$112, 8(%esp)	 #,
 269      70000000 
 270 0128 C7442404 		movl	$LC0, 4(%esp)	 #,
 270      00000000 
 271 0130 C7042445 		movl	$LC3, (%esp)	 #,
 271      000000
 272 0137 E8000000 		call	_chDbgPanic	 #
 272      00
 273              	LVL11:
 274 013c EB9A     		jmp	L15	 #
 275              		.cfi_endproc
 276              	LFE9:
 277 013e 6690     		.p2align 4,,15
 278              		.globl	_chTimeIsWithin
 279              		.def	_chTimeIsWithin;	.scl	2;	.type	32;	.endef
 280              	_chTimeIsWithin:
 281              	LFB10:
 282              		.loc 1 134 0
 283              		.cfi_startproc
 284              	LVL12:
 285              		.loc 1 134 0
 286 0140 8B542404 		movl	4(%esp), %edx	 # start, start
 287 0144 8B442408 		movl	8(%esp), %eax	 # end, end
 288              		.loc 1 136 0
 289 0148 8B0D0C00 		movl	_vtlist+12, %ecx	 # vtlist.vt_systime, time
 289      0000
 290              	LVL13:
 291              		.loc 1 137 0
 292 014e 39D0     		cmpl	%edx, %eax	 # start, end
 293 0150 770E     		ja	L26	 #,
 294              		.loc 1 138 0 discriminator 2
 295 0152 39C1     		cmpl	%eax, %ecx	 # end, time
 296 0154 0F92C0   		setb	%al	 #, iftmp.0
 297 0157 39D1     		cmpl	%edx, %ecx	 # start, time
 298 0159 0F93C2   		setae	%dl	 #, D.2108
 299              		.loc 1 137 0 discriminator 2
GAS LISTING /cygdrive/c/DOCUME~1/andrey/LOCALS~1/Temp/ccG3kYs1.s 			page 7


 300 015c 09D0     		orl	%edx, %eax	 # D.2108, iftmp.0
 301              		.loc 1 139 0 discriminator 2
 302 015e C3       		ret
 303              	LVL14:
 304 015f 90       		.p2align 4,,7
 305              	L26:
 306              		.loc 1 137 0 discriminator 1
 307 0160 39C1     		cmpl	%eax, %ecx	 # end, time
 308 0162 0F92C0   		setb	%al	 #, iftmp.0
 309              	LVL15:
 310 0165 39D1     		cmpl	%edx, %ecx	 # start, time
 311 0167 0F93C2   		setae	%dl	 #, D.2108
 312              	LVL16:
 313 016a 21D0     		andl	%edx, %eax	 # D.2108, iftmp.0
 314 016c C3       		ret
 315              		.cfi_endproc
 316              	LFE10:
 317              		.comm	_vtlist, 16, 2
 318              	Letext0:
 319              		.file 2 "/usr/include/stdint.h"
 320              		.file 3 "../firmware/chibios/os/ports/GCC/SIMIA32/chtypes.h"
 321              		.file 4 "../firmware/chibios/os/kernel/include/chvt.h"
 322              		.file 5 "../firmware/chibios/os/kernel/include/chdebug.h"