GAS LISTING /cygdrive/c/DOCUME~1/andrey/LOCALS~1/Temp/ccXxP69K.s 			page 1


   1              		.file	"chcore.c"
   2              	 # GNU C (GCC) version 4.8.2 (i686-pc-cygwin)
   3              	 #	compiled by GNU C version 4.8.2, GMP version 5.1.3, MPFR version 3.1.2, MPC version 1.0.1
   4              	 # GGC heuristics: --param ggc-min-expand=100 --param ggc-min-heapsize=131072
   5              	 # options passed:  -I . -I ../firmware/chibios/os/ports/GCC/SIMIA32
   6              	 # -I ../firmware/chibios/os/kernel/include
   7              	 # -I ../firmware/chibios/os/hal/include
   8              	 # -I ../firmware/chibios/os/hal/platforms/Win32
   9              	 # -I ../firmware/chibios/boards/simulator -I ../firmware/util
  10              	 # -I ../firmware/console -I ../firmware/console_util
  11              	 # -I ../firmware/config/engines -I ../firmware/ext_algo
  12              	 # -I ../firmware/controllers/sensors -I ../firmware/controllers/system
  13              	 # -I ../firmware/controllers/algo -I ../firmware/controllers/math
  14              	 # -I ../firmware/controllers/trigger -I ../firmware/chibios/os/various
  15              	 # -MD ../firmware/chibios/os/ports/GCC/SIMIA32/chcore.d
  16              	 # -MF .dep/chcore.o.d -MP
  17              	 # -MQ ../firmware/chibios/os/ports/GCC/SIMIA32/chcore.o -Dunix
  18              	 # -idirafter /usr/lib/gcc/i686-pc-cygwin/4.8.2/../../../../include/w32api
  19              	 # -idirafter ../../include/w32api -D SIMULATOR -D SHELL_USE_IPRINTF=FALSE
  20              	 # ../firmware/chibios/os/ports/GCC/SIMIA32/chcore.c -mtune=generic
  21              	 # -march=i686
  22              	 # -auxbase-strip ../firmware/chibios/os/ports/GCC/SIMIA32/chcore.o -ggdb
  23              	 # -O2 -Wall -Wextra -Wstrict-prototypes -std=gnu99 -fomit-frame-pointer
  24              	 # -fgnu89-inline -fverbose-asm
  25              	 # options enabled:  -faggressive-loop-optimizations
  26              	 # -fasynchronous-unwind-tables -fauto-inc-dec -fbranch-count-reg
  27              	 # -fcaller-saves -fcombine-stack-adjustments -fcommon -fcompare-elim
  28              	 # -fcprop-registers -fcrossjumping -fcse-follow-jumps -fdefer-pop
  29              	 # -fdelete-null-pointer-checks -fdevirtualize -fdwarf2-cfi-asm
  30              	 # -fearly-inlining -feliminate-unused-debug-types
  31              	 # -fexpensive-optimizations -fforward-propagate -ffunction-cse -fgcse
  32              	 # -fgcse-lm -fgnu-runtime -fguess-branch-probability
  33              	 # -fhoist-adjacent-loads -fident -fif-conversion -fif-conversion2
  34              	 # -findirect-inlining -finline -finline-atomics
  35              	 # -finline-functions-called-once -finline-small-functions -fipa-cp
  36              	 # -fipa-profile -fipa-pure-const -fipa-reference -fipa-sra
  37              	 # -fira-hoist-pressure -fira-share-save-slots -fira-share-spill-slots
  38              	 # -fivopts -fkeep-inline-dllexport -fkeep-static-consts
  39              	 # -fleading-underscore -fmath-errno -fmerge-constants
  40              	 # -fmerge-debug-strings -fmove-loop-invariants -fomit-frame-pointer
  41              	 # -foptimize-register-move -foptimize-sibling-calls -foptimize-strlen
  42              	 # -fpartial-inlining -fpeephole -fpeephole2 -fprefetch-loop-arrays -free
  43              	 # -freg-struct-return -fregmove -freorder-blocks -freorder-functions
  44              	 # -frerun-cse-after-loop -fsched-critical-path-heuristic
  45              	 # -fsched-dep-count-heuristic -fsched-group-heuristic -fsched-interblock
  46              	 # -fsched-last-insn-heuristic -fsched-rank-heuristic -fsched-spec
  47              	 # -fsched-spec-insn-heuristic -fsched-stalled-insns-dep -fschedule-insns2
  48              	 # -fset-stack-executable -fshow-column -fshrink-wrap -fsigned-zeros
  49              	 # -fsplit-ivs-in-unroller -fsplit-wide-types -fstrict-aliasing
  50              	 # -fstrict-overflow -fstrict-volatile-bitfields -fsync-libcalls
  51              	 # -fthread-jumps -ftoplevel-reorder -ftrapping-math -ftree-bit-ccp
  52              	 # -ftree-builtin-call-dce -ftree-ccp -ftree-ch -ftree-coalesce-vars
  53              	 # -ftree-copy-prop -ftree-copyrename -ftree-cselim -ftree-dce
  54              	 # -ftree-dominator-opts -ftree-dse -ftree-forwprop -ftree-fre
  55              	 # -ftree-loop-if-convert -ftree-loop-im -ftree-loop-ivcanon
  56              	 # -ftree-loop-optimize -ftree-parallelize-loops= -ftree-phiprop -ftree-pre
  57              	 # -ftree-pta -ftree-reassoc -ftree-scev-cprop -ftree-sink
GAS LISTING /cygdrive/c/DOCUME~1/andrey/LOCALS~1/Temp/ccXxP69K.s 			page 2


  58              	 # -ftree-slp-vectorize -ftree-slsr -ftree-sra -ftree-switch-conversion
  59              	 # -ftree-tail-merge -ftree-ter -ftree-vect-loop-version -ftree-vrp
  60              	 # -funit-at-a-time -funwind-tables -fvar-tracking
  61              	 # -fvar-tracking-assignments -fverbose-asm -fzero-initialized-in-bss -m32
  62              	 # -m80387 -m96bit-long-double -maccumulate-outgoing-args -malign-double
  63              	 # -malign-stringops -mfancy-math-387 -mfp-ret-in-387 -mieee-fp
  64              	 # -mlong-double-80 -mno-red-zone -mno-sse4 -mpush-args -msahf
  65              	 # -mstack-arg-probe
  66              	
  67              		.text
  68              	Ltext0:
  69              		.p2align 4,,15
  70              		.def	___dummy;	.scl	3;	.type	32;	.endef
  71              	___dummy:
  72              	LFB86:
  73              		.file 1 "../firmware/chibios/os/ports/GCC/SIMIA32/chcore.c"
  74              		.loc 1 44 0
  75              		.cfi_startproc
  76              	LVL0:
  77              		.loc 1 47 0
  78              	/APP
  79              	 # 47 "../firmware/chibios/os/ports/GCC/SIMIA32/chcore.c" 1
  80              		.globl @port_switch@8                          
  81 0000 55       		@port_switch@8:push    %ebp                                   
  82 0001 56       		push    %esi                                   
  83 0002 57       		push    %edi                                   
  84 0003 53       		push    %ebx                                   
  85 0004 89620C   		movl    %esp, 12(%edx)                         
  86 0007 8B610C   		movl    12(%ecx), %esp                         
  87 000a 5B       		pop     %ebx                                   
  88 000b 5F       		pop     %edi                                   
  89 000c 5E       		pop     %esi                                   
  90 000d 5D       		pop     %ebp                                   
  91 000e C3       		ret
  92              	 # 0 "" 2
  93              	/NO_APP
  94 000f C3       		ret
  95              		.cfi_endproc
  96              	LFE86:
  97              		.p2align 4,,15
  98              		.globl	@port_halt@0
  99              		.def	@port_halt@0;	.scl	2;	.type	32;	.endef
 100              	@port_halt@0:
 101              	LFB87:
 102              		.loc 1 75 0
 103              		.cfi_startproc
 104 0010 83EC1C   		subl	$28, %esp	 #,
 105              		.cfi_def_cfa_offset 32
 106              		.loc 1 77 0
 107 0013 C7042402 		movl	$2, (%esp)	 #,
 107      000000
 108 001a E8000000 		call	_exit	 #
 108      00
 109              	LVL1:
 110              		.cfi_endproc
 111              	LFE87:
 112 001f 90       		.p2align 4,,15
GAS LISTING /cygdrive/c/DOCUME~1/andrey/LOCALS~1/Temp/ccXxP69K.s 			page 3


 113              		.globl	__port_thread_start
 114              		.def	__port_thread_start;	.scl	2;	.type	32;	.endef
 115              	__port_thread_start:
 116              	LFB88:
 117              		.loc 1 86 0
 118              		.cfi_startproc
 119              	LVL2:
 120 0020 83EC1C   		subl	$28, %esp	 #,
 121              		.cfi_def_cfa_offset 32
 122              		.loc 1 88 0
 123 0023 E8000000 		call	_dbg_check_unlock	 #
 123      00
 124              	LVL3:
 125              	/APP
 126              	 # 88 "../firmware/chibios/os/ports/GCC/SIMIA32/chcore.c" 1
 127 0028 90       		nop
 128              	 # 0 "" 2
 129              		.loc 1 89 0
 130              	/NO_APP
 131 0029 8B442424 		movl	36(%esp), %eax	 # p, p
 132 002d 890424   		movl	%eax, (%esp)	 # p,
 133 0030 FF542420 		call	*32(%esp)	 # pf
 134              	LVL4:
 135 0034 890424   		movl	%eax, (%esp)	 # D.60245,
 136 0037 E8000000 		call	_chThdExit	 #
 136      00
 137              	LVL5:
 138              	L5:
 139 003c EBFE     		jmp	L5	 #
 140              		.cfi_endproc
 141              	LFE88:
 142              	Letext0:
 143              		.file 2 "/usr/include/stdint.h"
 144              		.file 3 "../firmware/chibios/os/ports/GCC/SIMIA32/chtypes.h"
 145              		.file 4 "../firmware/chibios/os/kernel/include/chlists.h"
 146              		.file 5 "../firmware/chibios/os/kernel/include/chthreads.h"
 147              		.file 6 "../firmware/chibios/os/ports/GCC/SIMIA32/chcore.h"
 148              		.file 7 "../firmware/chibios/os/kernel/include/chmtx.h"
 149              		.file 8 "/usr/include/stdlib.h"
 150              		.file 9 "../firmware/chibios/os/kernel/include/chdebug.h"
 151 003e 9090     		.section	.debug_info,"dr"
 152              	Ldebug_info0:
 153 0000 96060000 		.long	0x696
 154 0004 0400     		.word	0x4
 155 0006 00000000 		.secrel32	Ldebug_abbrev0
 156 000a 04       		.byte	0x4
 157 000b 01       		.uleb128 0x1
 158 000c 474E5520 		.ascii "GNU C 4.8.2 -mtune=generic -march=i686 -ggdb -O2 -std=gnu99 -fomit-frame-pointer -fgnu89-i
 158      4320342E 
 158      382E3220 
 158      2D6D7475 
 158      6E653D67 
 159 006c 01       		.byte	0x1
 160 006d 2E2E2F66 		.ascii "../firmware/chibios/os/ports/GCC/SIMIA32/chcore.c\0"
 160      69726D77 
 160      6172652F 
 160      63686962 
GAS LISTING /cygdrive/c/DOCUME~1/andrey/LOCALS~1/Temp/ccXxP69K.s 			page 4


 160      696F732F 
 161 009f 2F637967 		.ascii "/cygdrive/c/Program Files/Jenkins/workspace/runEfi win32 functional/win32_functional_tests
 161      64726976 
 161      652F632F 
 161      50726F67 
 161      72616D20 
 162 00fa 00000000 		.long	Ltext0
 163 00fe 3E000000 		.long	Letext0-Ltext0
 164 0102 00000000 		.secrel32	Ldebug_line0
 165 0106 02       		.uleb128 0x2
 166 0107 04       		.byte	0x4
 167 0108 07       		.byte	0x7
 168 0109 756E7369 		.ascii "unsigned int\0"
 168      676E6564 
 168      20696E74 
 168      00
 169 0116 02       		.uleb128 0x2
 170 0117 02       		.byte	0x2
 171 0118 07       		.byte	0x7
 172 0119 73686F72 		.ascii "short unsigned int\0"
 172      7420756E 
 172      7369676E 
 172      65642069 
 172      6E7400
 173 012c 02       		.uleb128 0x2
 174 012d 04       		.byte	0x4
 175 012e 05       		.byte	0x5
 176 012f 696E7400 		.ascii "int\0"
 177 0133 02       		.uleb128 0x2
 178 0134 01       		.byte	0x1
 179 0135 06       		.byte	0x6
 180 0136 7369676E 		.ascii "signed char\0"
 180      65642063 
 180      68617200 
 181 0142 02       		.uleb128 0x2
 182 0143 01       		.byte	0x1
 183 0144 08       		.byte	0x8
 184 0145 756E7369 		.ascii "unsigned char\0"
 184      676E6564 
 184      20636861 
 184      7200
 185 0153 02       		.uleb128 0x2
 186 0154 02       		.byte	0x2
 187 0155 05       		.byte	0x5
 188 0156 73686F72 		.ascii "short int\0"
 188      7420696E 
 188      7400
 189 0160 02       		.uleb128 0x2
 190 0161 08       		.byte	0x8
 191 0162 05       		.byte	0x5
 192 0163 6C6F6E67 		.ascii "long long int\0"
 192      206C6F6E 
 192      6720696E 
 192      7400
 193 0171 02       		.uleb128 0x2
 194 0172 08       		.byte	0x8
 195 0173 07       		.byte	0x7
GAS LISTING /cygdrive/c/DOCUME~1/andrey/LOCALS~1/Temp/ccXxP69K.s 			page 5


 196 0174 6C6F6E67 		.ascii "long long unsigned int\0"
 196      206C6F6E 
 196      6720756E 
 196      7369676E 
 196      65642069 
 197 018b 03       		.uleb128 0x3
 198 018c 04       		.byte	0x4
 199 018d 02       		.uleb128 0x2
 200 018e 04       		.byte	0x4
 201 018f 05       		.byte	0x5
 202 0190 6C6F6E67 		.ascii "long int\0"
 202      20696E74 
 202      00
 203 0199 02       		.uleb128 0x2
 204 019a 04       		.byte	0x4
 205 019b 07       		.byte	0x7
 206 019c 73697A65 		.ascii "sizetype\0"
 206      74797065 
 206      00
 207 01a5 02       		.uleb128 0x2
 208 01a6 04       		.byte	0x4
 209 01a7 07       		.byte	0x7
 210 01a8 6C6F6E67 		.ascii "long unsigned int\0"
 210      20756E73 
 210      69676E65 
 210      6420696E 
 210      7400
 211 01ba 02       		.uleb128 0x2
 212 01bb 01       		.byte	0x1
 213 01bc 06       		.byte	0x6
 214 01bd 63686172 		.ascii "char\0"
 214      00
 215 01c2 04       		.uleb128 0x4
 216 01c3 04       		.byte	0x4
 217 01c4 C8010000 		.long	0x1c8
 218 01c8 05       		.uleb128 0x5
 219 01c9 BA010000 		.long	0x1ba
 220 01cd 06       		.uleb128 0x6
 221 01ce 696E7433 		.ascii "int32_t\0"
 221      325F7400 
 222 01d6 02       		.byte	0x2
 223 01d7 16       		.byte	0x16
 224 01d8 2C010000 		.long	0x12c
 225 01dc 06       		.uleb128 0x6
 226 01dd 75696E74 		.ascii "uint8_t\0"
 226      385F7400 
 227 01e5 02       		.byte	0x2
 228 01e6 1E       		.byte	0x1e
 229 01e7 42010000 		.long	0x142
 230 01eb 06       		.uleb128 0x6
 231 01ec 75696E74 		.ascii "uint32_t\0"
 231      33325F74 
 231      00
 232 01f5 02       		.byte	0x2
 233 01f6 22       		.byte	0x22
 234 01f7 06010000 		.long	0x106
 235 01fb 02       		.uleb128 0x2
GAS LISTING /cygdrive/c/DOCUME~1/andrey/LOCALS~1/Temp/ccXxP69K.s 			page 6


 236 01fc 01       		.byte	0x1
 237 01fd 02       		.byte	0x2
 238 01fe 5F426F6F 		.ascii "_Bool\0"
 238      6C00
 239 0204 06       		.uleb128 0x6
 240 0205 746D6F64 		.ascii "tmode_t\0"
 240      655F7400 
 241 020d 03       		.byte	0x3
 242 020e 24       		.byte	0x24
 243 020f DC010000 		.long	0x1dc
 244 0213 06       		.uleb128 0x6
 245 0214 74737461 		.ascii "tstate_t\0"
 245      74655F74 
 245      00
 246 021d 03       		.byte	0x3
 247 021e 25       		.byte	0x25
 248 021f DC010000 		.long	0x1dc
 249 0223 06       		.uleb128 0x6
 250 0224 74726566 		.ascii "trefs_t\0"
 250      735F7400 
 251 022c 03       		.byte	0x3
 252 022d 26       		.byte	0x26
 253 022e DC010000 		.long	0x1dc
 254 0232 06       		.uleb128 0x6
 255 0233 74736C69 		.ascii "tslices_t\0"
 255      6365735F 
 255      7400
 256 023d 03       		.byte	0x3
 257 023e 27       		.byte	0x27
 258 023f DC010000 		.long	0x1dc
 259 0243 06       		.uleb128 0x6
 260 0244 74707269 		.ascii "tprio_t\0"
 260      6F5F7400 
 261 024c 03       		.byte	0x3
 262 024d 28       		.byte	0x28
 263 024e EB010000 		.long	0x1eb
 264 0252 06       		.uleb128 0x6
 265 0253 6D73675F 		.ascii "msg_t\0"
 265      7400
 266 0259 03       		.byte	0x3
 267 025a 29       		.byte	0x29
 268 025b CD010000 		.long	0x1cd
 269 025f 06       		.uleb128 0x6
 270 0260 6576656E 		.ascii "eventmask_t\0"
 270      746D6173 
 270      6B5F7400 
 271 026c 03       		.byte	0x3
 272 026d 2B       		.byte	0x2b
 273 026e EB010000 		.long	0x1eb
 274 0272 06       		.uleb128 0x6
 275 0273 73797374 		.ascii "systime_t\0"
 275      696D655F 
 275      7400
 276 027d 03       		.byte	0x3
 277 027e 2D       		.byte	0x2d
 278 027f EB010000 		.long	0x1eb
 279 0283 06       		.uleb128 0x6
GAS LISTING /cygdrive/c/DOCUME~1/andrey/LOCALS~1/Temp/ccXxP69K.s 			page 7


 280 0284 54687265 		.ascii "Thread\0"
 280      616400
 281 028b 04       		.byte	0x4
 282 028c 2A       		.byte	0x2a
 283 028d 91020000 		.long	0x291
 284 0291 07       		.uleb128 0x7
 285 0292 54687265 		.ascii "Thread\0"
 285      616400
 286 0299 48       		.byte	0x48
 287 029a 05       		.byte	0x5
 288 029b 5E       		.byte	0x5e
 289 029c DF030000 		.long	0x3df
 290 02a0 08       		.uleb128 0x8
 291 02a1 00000000 		.secrel32	LASF0
 292 02a5 05       		.byte	0x5
 293 02a6 5F       		.byte	0x5f
 294 02a7 03040000 		.long	0x403
 295 02ab 00       		.byte	0
 296 02ac 09       		.uleb128 0x9
 297 02ad 705F7072 		.ascii "p_prev\0"
 297      657600
 298 02b4 05       		.byte	0x5
 299 02b5 61       		.byte	0x61
 300 02b6 03040000 		.long	0x403
 301 02ba 04       		.byte	0x4
 302 02bb 09       		.uleb128 0x9
 303 02bc 705F7072 		.ascii "p_prio\0"
 303      696F00
 304 02c3 05       		.byte	0x5
 305 02c4 63       		.byte	0x63
 306 02c5 43020000 		.long	0x243
 307 02c9 08       		.byte	0x8
 308 02ca 09       		.uleb128 0x9
 309 02cb 705F6374 		.ascii "p_ctx\0"
 309      7800
 310 02d1 05       		.byte	0x5
 311 02d2 64       		.byte	0x64
 312 02d3 9F040000 		.long	0x49f
 313 02d7 0C       		.byte	0xc
 314 02d8 09       		.uleb128 0x9
 315 02d9 705F6E65 		.ascii "p_newer\0"
 315      77657200 
 316 02e1 05       		.byte	0x5
 317 02e2 66       		.byte	0x66
 318 02e3 03040000 		.long	0x403
 319 02e7 10       		.byte	0x10
 320 02e8 09       		.uleb128 0x9
 321 02e9 705F6F6C 		.ascii "p_older\0"
 321      64657200 
 322 02f1 05       		.byte	0x5
 323 02f2 67       		.byte	0x67
 324 02f3 03040000 		.long	0x403
 325 02f7 14       		.byte	0x14
 326 02f8 09       		.uleb128 0x9
 327 02f9 705F6E61 		.ascii "p_name\0"
 327      6D6500
 328 0300 05       		.byte	0x5
GAS LISTING /cygdrive/c/DOCUME~1/andrey/LOCALS~1/Temp/ccXxP69K.s 			page 8


 329 0301 6E       		.byte	0x6e
 330 0302 C2010000 		.long	0x1c2
 331 0306 18       		.byte	0x18
 332 0307 09       		.uleb128 0x9
 333 0308 705F7374 		.ascii "p_state\0"
 333      61746500 
 334 0310 05       		.byte	0x5
 335 0311 79       		.byte	0x79
 336 0312 13020000 		.long	0x213
 337 0316 1C       		.byte	0x1c
 338 0317 09       		.uleb128 0x9
 339 0318 705F666C 		.ascii "p_flags\0"
 339      61677300 
 340 0320 05       		.byte	0x5
 341 0321 7D       		.byte	0x7d
 342 0322 04020000 		.long	0x204
 343 0326 1D       		.byte	0x1d
 344 0327 09       		.uleb128 0x9
 345 0328 705F7265 		.ascii "p_refs\0"
 345      667300
 346 032f 05       		.byte	0x5
 347 0330 82       		.byte	0x82
 348 0331 23020000 		.long	0x223
 349 0335 1E       		.byte	0x1e
 350 0336 09       		.uleb128 0x9
 351 0337 705F7072 		.ascii "p_preempt\0"
 351      65656D70 
 351      7400
 352 0341 05       		.byte	0x5
 353 0342 88       		.byte	0x88
 354 0343 32020000 		.long	0x232
 355 0347 1F       		.byte	0x1f
 356 0348 09       		.uleb128 0x9
 357 0349 705F7469 		.ascii "p_time\0"
 357      6D6500
 358 0350 05       		.byte	0x5
 359 0351 8F       		.byte	0x8f
 360 0352 C7040000 		.long	0x4c7
 361 0356 20       		.byte	0x20
 362 0357 09       		.uleb128 0x9
 363 0358 705F7500 		.ascii "p_u\0"
 364 035c 05       		.byte	0x5
 365 035d B4       		.byte	0xb4
 366 035e 1D050000 		.long	0x51d
 367 0362 24       		.byte	0x24
 368 0363 09       		.uleb128 0x9
 369 0364 705F7761 		.ascii "p_waiting\0"
 369      6974696E 
 369      6700
 370 036e 05       		.byte	0x5
 371 036f B9       		.byte	0xb9
 372 0370 32040000 		.long	0x432
 373 0374 28       		.byte	0x28
 374 0375 09       		.uleb128 0x9
 375 0376 705F6D73 		.ascii "p_msgqueue\0"
 375      67717565 
 375      756500
GAS LISTING /cygdrive/c/DOCUME~1/andrey/LOCALS~1/Temp/ccXxP69K.s 			page 9


 376 0381 05       		.byte	0x5
 377 0382 BF       		.byte	0xbf
 378 0383 09040000 		.long	0x409
 379 0387 2C       		.byte	0x2c
 380 0388 09       		.uleb128 0x9
 381 0389 705F6D73 		.ascii "p_msg\0"
 381      6700
 382 038f 05       		.byte	0x5
 383 0390 C3       		.byte	0xc3
 384 0391 52020000 		.long	0x252
 385 0395 34       		.byte	0x34
 386 0396 09       		.uleb128 0x9
 387 0397 705F6570 		.ascii "p_epending\0"
 387      656E6469 
 387      6E6700
 388 03a2 05       		.byte	0x5
 389 03a3 C9       		.byte	0xc9
 390 03a4 5F020000 		.long	0x25f
 391 03a8 38       		.byte	0x38
 392 03a9 09       		.uleb128 0x9
 393 03aa 705F6D74 		.ascii "p_mtxlist\0"
 393      786C6973 
 393      7400
 394 03b4 05       		.byte	0x5
 395 03b5 D0       		.byte	0xd0
 396 03b6 60050000 		.long	0x560
 397 03ba 3C       		.byte	0x3c
 398 03bb 09       		.uleb128 0x9
 399 03bc 705F7265 		.ascii "p_realprio\0"
 399      616C7072 
 399      696F00
 400 03c7 05       		.byte	0x5
 401 03c8 D4       		.byte	0xd4
 402 03c9 43020000 		.long	0x243
 403 03cd 40       		.byte	0x40
 404 03ce 09       		.uleb128 0x9
 405 03cf 705F6D70 		.ascii "p_mpool\0"
 405      6F6F6C00 
 406 03d7 05       		.byte	0x5
 407 03d8 DA       		.byte	0xda
 408 03d9 8B010000 		.long	0x18b
 409 03dd 44       		.byte	0x44
 410 03de 00       		.byte	0
 411 03df 0A       		.uleb128 0xa
 412 03e0 08       		.byte	0x8
 413 03e1 04       		.byte	0x4
 414 03e2 61       		.byte	0x61
 415 03e3 03040000 		.long	0x403
 416 03e7 08       		.uleb128 0x8
 417 03e8 00000000 		.secrel32	LASF0
 418 03ec 04       		.byte	0x4
 419 03ed 62       		.byte	0x62
 420 03ee 03040000 		.long	0x403
 421 03f2 00       		.byte	0
 422 03f3 09       		.uleb128 0x9
 423 03f4 705F7072 		.ascii "p_prev\0"
 423      657600
GAS LISTING /cygdrive/c/DOCUME~1/andrey/LOCALS~1/Temp/ccXxP69K.s 			page 10


 424 03fb 04       		.byte	0x4
 425 03fc 64       		.byte	0x64
 426 03fd 03040000 		.long	0x403
 427 0401 04       		.byte	0x4
 428 0402 00       		.byte	0
 429 0403 04       		.uleb128 0x4
 430 0404 04       		.byte	0x4
 431 0405 83020000 		.long	0x283
 432 0409 06       		.uleb128 0x6
 433 040a 54687265 		.ascii "ThreadsQueue\0"
 433      61647351 
 433      75657565 
 433      00
 434 0417 04       		.byte	0x4
 435 0418 66       		.byte	0x66
 436 0419 DF030000 		.long	0x3df
 437 041d 0A       		.uleb128 0xa
 438 041e 04       		.byte	0x4
 439 041f 04       		.byte	0x4
 440 0420 6B       		.byte	0x6b
 441 0421 32040000 		.long	0x432
 442 0425 08       		.uleb128 0x8
 443 0426 00000000 		.secrel32	LASF0
 444 042a 04       		.byte	0x4
 445 042b 6D       		.byte	0x6d
 446 042c 03040000 		.long	0x403
 447 0430 00       		.byte	0
 448 0431 00       		.byte	0
 449 0432 06       		.uleb128 0x6
 450 0433 54687265 		.ascii "ThreadsList\0"
 450      6164734C 
 450      69737400 
 451 043f 04       		.byte	0x4
 452 0440 70       		.byte	0x70
 453 0441 1D040000 		.long	0x41d
 454 0445 06       		.uleb128 0x6
 455 0446 72656778 		.ascii "regx86\0"
 455      383600
 456 044d 06       		.byte	0x6
 457 044e 4B       		.byte	0x4b
 458 044f 8B010000 		.long	0x18b
 459 0453 07       		.uleb128 0x7
 460 0454 696E7463 		.ascii "intctx\0"
 460      747800
 461 045b 14       		.byte	0x14
 462 045c 06       		.byte	0x6
 463 045d 59       		.byte	0x59
 464 045e 9F040000 		.long	0x49f
 465 0462 09       		.uleb128 0x9
 466 0463 65627800 		.ascii "ebx\0"
 467 0467 06       		.byte	0x6
 468 0468 5A       		.byte	0x5a
 469 0469 45040000 		.long	0x445
 470 046d 00       		.byte	0
 471 046e 09       		.uleb128 0x9
 472 046f 65646900 		.ascii "edi\0"
 473 0473 06       		.byte	0x6
GAS LISTING /cygdrive/c/DOCUME~1/andrey/LOCALS~1/Temp/ccXxP69K.s 			page 11


 474 0474 5B       		.byte	0x5b
 475 0475 45040000 		.long	0x445
 476 0479 04       		.byte	0x4
 477 047a 09       		.uleb128 0x9
 478 047b 65736900 		.ascii "esi\0"
 479 047f 06       		.byte	0x6
 480 0480 5C       		.byte	0x5c
 481 0481 45040000 		.long	0x445
 482 0485 08       		.byte	0x8
 483 0486 09       		.uleb128 0x9
 484 0487 65627000 		.ascii "ebp\0"
 485 048b 06       		.byte	0x6
 486 048c 5D       		.byte	0x5d
 487 048d 45040000 		.long	0x445
 488 0491 0C       		.byte	0xc
 489 0492 09       		.uleb128 0x9
 490 0493 65697000 		.ascii "eip\0"
 491 0497 06       		.byte	0x6
 492 0498 5E       		.byte	0x5e
 493 0499 45040000 		.long	0x445
 494 049d 10       		.byte	0x10
 495 049e 00       		.byte	0
 496 049f 07       		.uleb128 0x7
 497 04a0 636F6E74 		.ascii "context\0"
 497      65787400 
 498 04a8 04       		.byte	0x4
 499 04a9 06       		.byte	0x6
 500 04aa 66       		.byte	0x66
 501 04ab BC040000 		.long	0x4bc
 502 04af 09       		.uleb128 0x9
 503 04b0 65737000 		.ascii "esp\0"
 504 04b4 06       		.byte	0x6
 505 04b5 67       		.byte	0x67
 506 04b6 BC040000 		.long	0x4bc
 507 04ba 00       		.byte	0
 508 04bb 00       		.byte	0
 509 04bc 04       		.uleb128 0x4
 510 04bd 04       		.byte	0x4
 511 04be C2040000 		.long	0x4c2
 512 04c2 0B       		.uleb128 0xb
 513 04c3 53040000 		.long	0x453
 514 04c7 0B       		.uleb128 0xb
 515 04c8 72020000 		.long	0x272
 516 04cc 07       		.uleb128 0x7
 517 04cd 4D757465 		.ascii "Mutex\0"
 517      7800
 518 04d3 10       		.byte	0x10
 519 04d4 07       		.byte	0x7
 520 04d5 2C       		.byte	0x2c
 521 04d6 0A050000 		.long	0x50a
 522 04da 09       		.uleb128 0x9
 523 04db 6D5F7175 		.ascii "m_queue\0"
 523      65756500 
 524 04e3 07       		.byte	0x7
 525 04e4 2D       		.byte	0x2d
 526 04e5 09040000 		.long	0x409
 527 04e9 00       		.byte	0
GAS LISTING /cygdrive/c/DOCUME~1/andrey/LOCALS~1/Temp/ccXxP69K.s 			page 12


 528 04ea 09       		.uleb128 0x9
 529 04eb 6D5F6F77 		.ascii "m_owner\0"
 529      6E657200 
 530 04f3 07       		.byte	0x7
 531 04f4 2F       		.byte	0x2f
 532 04f5 03040000 		.long	0x403
 533 04f9 08       		.byte	0x8
 534 04fa 09       		.uleb128 0x9
 535 04fb 6D5F6E65 		.ascii "m_next\0"
 535      787400
 536 0502 07       		.byte	0x7
 537 0503 31       		.byte	0x31
 538 0504 0A050000 		.long	0x50a
 539 0508 0C       		.byte	0xc
 540 0509 00       		.byte	0
 541 050a 04       		.uleb128 0x4
 542 050b 04       		.byte	0x4
 543 050c CC040000 		.long	0x4cc
 544 0510 06       		.uleb128 0x6
 545 0511 4D757465 		.ascii "Mutex\0"
 545      7800
 546 0517 07       		.byte	0x7
 547 0518 33       		.byte	0x33
 548 0519 CC040000 		.long	0x4cc
 549 051d 0C       		.uleb128 0xc
 550 051e 04       		.byte	0x4
 551 051f 05       		.byte	0x5
 552 0520 96       		.byte	0x96
 553 0521 60050000 		.long	0x560
 554 0525 0D       		.uleb128 0xd
 555 0526 7264796D 		.ascii "rdymsg\0"
 555      736700
 556 052d 05       		.byte	0x5
 557 052e 9D       		.byte	0x9d
 558 052f 52020000 		.long	0x252
 559 0533 0D       		.uleb128 0xd
 560 0534 65786974 		.ascii "exitcode\0"
 560      636F6465 
 560      00
 561 053d 05       		.byte	0x5
 562 053e A4       		.byte	0xa4
 563 053f 52020000 		.long	0x252
 564 0543 0D       		.uleb128 0xd
 565 0544 77746F62 		.ascii "wtobjp\0"
 565      6A7000
 566 054b 05       		.byte	0x5
 567 054c AB       		.byte	0xab
 568 054d 8B010000 		.long	0x18b
 569 0551 0D       		.uleb128 0xd
 570 0552 65776D61 		.ascii "ewmask\0"
 570      736B00
 571 0559 05       		.byte	0x5
 572 055a B2       		.byte	0xb2
 573 055b 5F020000 		.long	0x25f
 574 055f 00       		.byte	0
 575 0560 04       		.uleb128 0x4
 576 0561 04       		.byte	0x4
GAS LISTING /cygdrive/c/DOCUME~1/andrey/LOCALS~1/Temp/ccXxP69K.s 			page 13


 577 0562 10050000 		.long	0x510
 578 0566 04       		.uleb128 0x4
 579 0567 04       		.byte	0x4
 580 0568 6C050000 		.long	0x56c
 581 056c 0E       		.uleb128 0xe
 582 056d 52020000 		.long	0x252
 583 0571 7B050000 		.long	0x57b
 584 0575 0F       		.uleb128 0xf
 585 0576 8B010000 		.long	0x18b
 586 057a 00       		.byte	0
 587 057b 02       		.uleb128 0x2
 588 057c 04       		.byte	0x4
 589 057d 04       		.byte	0x4
 590 057e 666C6F61 		.ascii "float\0"
 590      7400
 591 0584 02       		.uleb128 0x2
 592 0585 08       		.byte	0x8
 593 0586 04       		.byte	0x4
 594 0587 646F7562 		.ascii "double\0"
 594      6C6500
 595 058e 10       		.uleb128 0x10
 596 058f 5F5F6475 		.ascii "__dummy\0"
 596      6D6D7900 
 597 0597 01       		.byte	0x1
 598 0598 2C       		.byte	0x2c
 599 0599 00000000 		.long	LFB86
 600 059d 10000000 		.long	LFE86-LFB86
 601 05a1 01       		.uleb128 0x1
 602 05a2 9C       		.byte	0x9c
 603 05a3 C4050000 		.long	0x5c4
 604 05a7 11       		.uleb128 0x11
 605 05a8 6E747000 		.ascii "ntp\0"
 606 05ac 01       		.byte	0x1
 607 05ad 2C       		.byte	0x2c
 608 05ae 03040000 		.long	0x403
 609 05b2 02       		.uleb128 0x2
 610 05b3 91       		.byte	0x91
 611 05b4 00       		.sleb128 0
 612 05b5 11       		.uleb128 0x11
 613 05b6 6F747000 		.ascii "otp\0"
 614 05ba 01       		.byte	0x1
 615 05bb 2C       		.byte	0x2c
 616 05bc 03040000 		.long	0x403
 617 05c0 02       		.uleb128 0x2
 618 05c1 91       		.byte	0x91
 619 05c2 04       		.sleb128 4
 620 05c3 00       		.byte	0
 621 05c4 12       		.uleb128 0x12
 622 05c5 706F7274 		.ascii "port_halt\0"
 622      5F68616C 
 622      7400
 623 05cf 01       		.byte	0x1
 624 05d0 4B       		.byte	0x4b
 625 05d1 40706F72 		.ascii "@port_halt@0\0"
 625      745F6861 
 625      6C744030 
 625      00
GAS LISTING /cygdrive/c/DOCUME~1/andrey/LOCALS~1/Temp/ccXxP69K.s 			page 14


 626 05de 10000000 		.long	LFB87
 627 05e2 0F000000 		.long	LFE87-LFB87
 628 05e6 01       		.uleb128 0x1
 629 05e7 9C       		.byte	0x9c
 630 05e8 FD050000 		.long	0x5fd
 631 05ec 13       		.uleb128 0x13
 632 05ed 1F000000 		.long	LVL1
 633 05f1 5F060000 		.long	0x65f
 634 05f5 14       		.uleb128 0x14
 635 05f6 02       		.uleb128 0x2
 636 05f7 74       		.byte	0x74
 637 05f8 00       		.sleb128 0
 638 05f9 01       		.uleb128 0x1
 639 05fa 32       		.byte	0x32
 640 05fb 00       		.byte	0
 641 05fc 00       		.byte	0
 642 05fd 15       		.uleb128 0x15
 643 05fe 5F706F72 		.ascii "_port_thread_start\0"
 643      745F7468 
 643      72656164 
 643      5F737461 
 643      727400
 644 0611 01       		.byte	0x1
 645 0612 56       		.byte	0x56
 646 0613 20000000 		.long	LFB88
 647 0617 1E000000 		.long	LFE88-LFB88
 648 061b 01       		.uleb128 0x1
 649 061c 9C       		.byte	0x9c
 650 061d 5F060000 		.long	0x65f
 651 0621 11       		.uleb128 0x11
 652 0622 706600   		.ascii "pf\0"
 653 0625 01       		.byte	0x1
 654 0626 56       		.byte	0x56
 655 0627 66050000 		.long	0x566
 656 062b 02       		.uleb128 0x2
 657 062c 91       		.byte	0x91
 658 062d 00       		.sleb128 0
 659 062e 11       		.uleb128 0x11
 660 062f 7000     		.ascii "p\0"
 661 0631 01       		.byte	0x1
 662 0632 56       		.byte	0x56
 663 0633 8B010000 		.long	0x18b
 664 0637 02       		.uleb128 0x2
 665 0638 91       		.byte	0x91
 666 0639 04       		.sleb128 4
 667 063a 16       		.uleb128 0x16
 668 063b 28000000 		.long	LVL3
 669 063f 71060000 		.long	0x671
 670 0643 17       		.uleb128 0x17
 671 0644 34000000 		.long	LVL4
 672 0648 55060000 		.long	0x655
 673 064c 14       		.uleb128 0x14
 674 064d 02       		.uleb128 0x2
 675 064e 74       		.byte	0x74
 676 064f 00       		.sleb128 0
 677 0650 03       		.uleb128 0x3
 678 0651 91       		.byte	0x91
GAS LISTING /cygdrive/c/DOCUME~1/andrey/LOCALS~1/Temp/ccXxP69K.s 			page 15


 679 0652 04       		.sleb128 4
 680 0653 06       		.byte	0x6
 681 0654 00       		.byte	0
 682 0655 16       		.uleb128 0x16
 683 0656 3C000000 		.long	LVL5
 684 065a 85060000 		.long	0x685
 685 065e 00       		.byte	0
 686 065f 18       		.uleb128 0x18
 687 0660 65786974 		.ascii "exit\0"
 687      00
 688 0665 08       		.byte	0x8
 689 0666 54       		.byte	0x54
 690 0667 71060000 		.long	0x671
 691 066b 0F       		.uleb128 0xf
 692 066c 2C010000 		.long	0x12c
 693 0670 00       		.byte	0
 694 0671 19       		.uleb128 0x19
 695 0672 6462675F 		.ascii "dbg_check_unlock\0"
 695      63686563 
 695      6B5F756E 
 695      6C6F636B 
 695      00
 696 0683 09       		.byte	0x9
 697 0684 E8       		.byte	0xe8
 698 0685 1A       		.uleb128 0x1a
 699 0686 63685468 		.ascii "chThdExit\0"
 699      64457869 
 699      7400
 700 0690 05       		.byte	0x5
 701 0691 7801     		.word	0x178
 702 0693 0F       		.uleb128 0xf
 703 0694 52020000 		.long	0x252
 704 0698 00       		.byte	0
 705 0699 00       		.byte	0
 706              		.section	.debug_abbrev,"dr"
 707              	Ldebug_abbrev0:
 708 0000 01       		.uleb128 0x1
 709 0001 11       		.uleb128 0x11
 710 0002 01       		.byte	0x1
 711 0003 25       		.uleb128 0x25
 712 0004 08       		.uleb128 0x8
 713 0005 13       		.uleb128 0x13
 714 0006 0B       		.uleb128 0xb
 715 0007 03       		.uleb128 0x3
 716 0008 08       		.uleb128 0x8
 717 0009 1B       		.uleb128 0x1b
 718 000a 08       		.uleb128 0x8
 719 000b 11       		.uleb128 0x11
 720 000c 01       		.uleb128 0x1
 721 000d 12       		.uleb128 0x12
 722 000e 06       		.uleb128 0x6
 723 000f 10       		.uleb128 0x10
 724 0010 17       		.uleb128 0x17
 725 0011 00       		.byte	0
 726 0012 00       		.byte	0
 727 0013 02       		.uleb128 0x2
 728 0014 24       		.uleb128 0x24
GAS LISTING /cygdrive/c/DOCUME~1/andrey/LOCALS~1/Temp/ccXxP69K.s 			page 16


 729 0015 00       		.byte	0
 730 0016 0B       		.uleb128 0xb
 731 0017 0B       		.uleb128 0xb
 732 0018 3E       		.uleb128 0x3e
 733 0019 0B       		.uleb128 0xb
 734 001a 03       		.uleb128 0x3
 735 001b 08       		.uleb128 0x8
 736 001c 00       		.byte	0
 737 001d 00       		.byte	0
 738 001e 03       		.uleb128 0x3
 739 001f 0F       		.uleb128 0xf
 740 0020 00       		.byte	0
 741 0021 0B       		.uleb128 0xb
 742 0022 0B       		.uleb128 0xb
 743 0023 00       		.byte	0
 744 0024 00       		.byte	0
 745 0025 04       		.uleb128 0x4
 746 0026 0F       		.uleb128 0xf
 747 0027 00       		.byte	0
 748 0028 0B       		.uleb128 0xb
 749 0029 0B       		.uleb128 0xb
 750 002a 49       		.uleb128 0x49
 751 002b 13       		.uleb128 0x13
 752 002c 00       		.byte	0
 753 002d 00       		.byte	0
 754 002e 05       		.uleb128 0x5
 755 002f 26       		.uleb128 0x26
 756 0030 00       		.byte	0
 757 0031 49       		.uleb128 0x49
 758 0032 13       		.uleb128 0x13
 759 0033 00       		.byte	0
 760 0034 00       		.byte	0
 761 0035 06       		.uleb128 0x6
 762 0036 16       		.uleb128 0x16
 763 0037 00       		.byte	0
 764 0038 03       		.uleb128 0x3
 765 0039 08       		.uleb128 0x8
 766 003a 3A       		.uleb128 0x3a
 767 003b 0B       		.uleb128 0xb
 768 003c 3B       		.uleb128 0x3b
 769 003d 0B       		.uleb128 0xb
 770 003e 49       		.uleb128 0x49
 771 003f 13       		.uleb128 0x13
 772 0040 00       		.byte	0
 773 0041 00       		.byte	0
 774 0042 07       		.uleb128 0x7
 775 0043 13       		.uleb128 0x13
 776 0044 01       		.byte	0x1
 777 0045 03       		.uleb128 0x3
 778 0046 08       		.uleb128 0x8
 779 0047 0B       		.uleb128 0xb
 780 0048 0B       		.uleb128 0xb
 781 0049 3A       		.uleb128 0x3a
 782 004a 0B       		.uleb128 0xb
 783 004b 3B       		.uleb128 0x3b
 784 004c 0B       		.uleb128 0xb
 785 004d 01       		.uleb128 0x1
GAS LISTING /cygdrive/c/DOCUME~1/andrey/LOCALS~1/Temp/ccXxP69K.s 			page 17


 786 004e 13       		.uleb128 0x13
 787 004f 00       		.byte	0
 788 0050 00       		.byte	0
 789 0051 08       		.uleb128 0x8
 790 0052 0D       		.uleb128 0xd
 791 0053 00       		.byte	0
 792 0054 03       		.uleb128 0x3
 793 0055 0E       		.uleb128 0xe
 794 0056 3A       		.uleb128 0x3a
 795 0057 0B       		.uleb128 0xb
 796 0058 3B       		.uleb128 0x3b
 797 0059 0B       		.uleb128 0xb
 798 005a 49       		.uleb128 0x49
 799 005b 13       		.uleb128 0x13
 800 005c 38       		.uleb128 0x38
 801 005d 0B       		.uleb128 0xb
 802 005e 00       		.byte	0
 803 005f 00       		.byte	0
 804 0060 09       		.uleb128 0x9
 805 0061 0D       		.uleb128 0xd
 806 0062 00       		.byte	0
 807 0063 03       		.uleb128 0x3
 808 0064 08       		.uleb128 0x8
 809 0065 3A       		.uleb128 0x3a
 810 0066 0B       		.uleb128 0xb
 811 0067 3B       		.uleb128 0x3b
 812 0068 0B       		.uleb128 0xb
 813 0069 49       		.uleb128 0x49
 814 006a 13       		.uleb128 0x13
 815 006b 38       		.uleb128 0x38
 816 006c 0B       		.uleb128 0xb
 817 006d 00       		.byte	0
 818 006e 00       		.byte	0
 819 006f 0A       		.uleb128 0xa
 820 0070 13       		.uleb128 0x13
 821 0071 01       		.byte	0x1
 822 0072 0B       		.uleb128 0xb
 823 0073 0B       		.uleb128 0xb
 824 0074 3A       		.uleb128 0x3a
 825 0075 0B       		.uleb128 0xb
 826 0076 3B       		.uleb128 0x3b
 827 0077 0B       		.uleb128 0xb
 828 0078 01       		.uleb128 0x1
 829 0079 13       		.uleb128 0x13
 830 007a 00       		.byte	0
 831 007b 00       		.byte	0
 832 007c 0B       		.uleb128 0xb
 833 007d 35       		.uleb128 0x35
 834 007e 00       		.byte	0
 835 007f 49       		.uleb128 0x49
 836 0080 13       		.uleb128 0x13
 837 0081 00       		.byte	0
 838 0082 00       		.byte	0
 839 0083 0C       		.uleb128 0xc
 840 0084 17       		.uleb128 0x17
 841 0085 01       		.byte	0x1
 842 0086 0B       		.uleb128 0xb
GAS LISTING /cygdrive/c/DOCUME~1/andrey/LOCALS~1/Temp/ccXxP69K.s 			page 18


 843 0087 0B       		.uleb128 0xb
 844 0088 3A       		.uleb128 0x3a
 845 0089 0B       		.uleb128 0xb
 846 008a 3B       		.uleb128 0x3b
 847 008b 0B       		.uleb128 0xb
 848 008c 01       		.uleb128 0x1
 849 008d 13       		.uleb128 0x13
 850 008e 00       		.byte	0
 851 008f 00       		.byte	0
 852 0090 0D       		.uleb128 0xd
 853 0091 0D       		.uleb128 0xd
 854 0092 00       		.byte	0
 855 0093 03       		.uleb128 0x3
 856 0094 08       		.uleb128 0x8
 857 0095 3A       		.uleb128 0x3a
 858 0096 0B       		.uleb128 0xb
 859 0097 3B       		.uleb128 0x3b
 860 0098 0B       		.uleb128 0xb
 861 0099 49       		.uleb128 0x49
 862 009a 13       		.uleb128 0x13
 863 009b 00       		.byte	0
 864 009c 00       		.byte	0
 865 009d 0E       		.uleb128 0xe
 866 009e 15       		.uleb128 0x15
 867 009f 01       		.byte	0x1
 868 00a0 27       		.uleb128 0x27
 869 00a1 19       		.uleb128 0x19
 870 00a2 49       		.uleb128 0x49
 871 00a3 13       		.uleb128 0x13
 872 00a4 01       		.uleb128 0x1
 873 00a5 13       		.uleb128 0x13
 874 00a6 00       		.byte	0
 875 00a7 00       		.byte	0
 876 00a8 0F       		.uleb128 0xf
 877 00a9 05       		.uleb128 0x5
 878 00aa 00       		.byte	0
 879 00ab 49       		.uleb128 0x49
 880 00ac 13       		.uleb128 0x13
 881 00ad 00       		.byte	0
 882 00ae 00       		.byte	0
 883 00af 10       		.uleb128 0x10
 884 00b0 2E       		.uleb128 0x2e
 885 00b1 01       		.byte	0x1
 886 00b2 03       		.uleb128 0x3
 887 00b3 08       		.uleb128 0x8
 888 00b4 3A       		.uleb128 0x3a
 889 00b5 0B       		.uleb128 0xb
 890 00b6 3B       		.uleb128 0x3b
 891 00b7 0B       		.uleb128 0xb
 892 00b8 27       		.uleb128 0x27
 893 00b9 19       		.uleb128 0x19
 894 00ba 11       		.uleb128 0x11
 895 00bb 01       		.uleb128 0x1
 896 00bc 12       		.uleb128 0x12
 897 00bd 06       		.uleb128 0x6
 898 00be 40       		.uleb128 0x40
 899 00bf 18       		.uleb128 0x18
GAS LISTING /cygdrive/c/DOCUME~1/andrey/LOCALS~1/Temp/ccXxP69K.s 			page 19


 900 00c0 9742     		.uleb128 0x2117
 901 00c2 19       		.uleb128 0x19
 902 00c3 01       		.uleb128 0x1
 903 00c4 13       		.uleb128 0x13
 904 00c5 00       		.byte	0
 905 00c6 00       		.byte	0
 906 00c7 11       		.uleb128 0x11
 907 00c8 05       		.uleb128 0x5
 908 00c9 00       		.byte	0
 909 00ca 03       		.uleb128 0x3
 910 00cb 08       		.uleb128 0x8
 911 00cc 3A       		.uleb128 0x3a
 912 00cd 0B       		.uleb128 0xb
 913 00ce 3B       		.uleb128 0x3b
 914 00cf 0B       		.uleb128 0xb
 915 00d0 49       		.uleb128 0x49
 916 00d1 13       		.uleb128 0x13
 917 00d2 02       		.uleb128 0x2
 918 00d3 18       		.uleb128 0x18
 919 00d4 00       		.byte	0
 920 00d5 00       		.byte	0
 921 00d6 12       		.uleb128 0x12
 922 00d7 2E       		.uleb128 0x2e
 923 00d8 01       		.byte	0x1
 924 00d9 3F       		.uleb128 0x3f
 925 00da 19       		.uleb128 0x19
 926 00db 03       		.uleb128 0x3
 927 00dc 08       		.uleb128 0x8
 928 00dd 3A       		.uleb128 0x3a
 929 00de 0B       		.uleb128 0xb
 930 00df 3B       		.uleb128 0x3b
 931 00e0 0B       		.uleb128 0xb
 932 00e1 6E       		.uleb128 0x6e
 933 00e2 08       		.uleb128 0x8
 934 00e3 27       		.uleb128 0x27
 935 00e4 19       		.uleb128 0x19
 936 00e5 11       		.uleb128 0x11
 937 00e6 01       		.uleb128 0x1
 938 00e7 12       		.uleb128 0x12
 939 00e8 06       		.uleb128 0x6
 940 00e9 40       		.uleb128 0x40
 941 00ea 18       		.uleb128 0x18
 942 00eb 9742     		.uleb128 0x2117
 943 00ed 19       		.uleb128 0x19
 944 00ee 01       		.uleb128 0x1
 945 00ef 13       		.uleb128 0x13
 946 00f0 00       		.byte	0
 947 00f1 00       		.byte	0
 948 00f2 13       		.uleb128 0x13
 949 00f3 898201   		.uleb128 0x4109
 950 00f6 01       		.byte	0x1
 951 00f7 11       		.uleb128 0x11
 952 00f8 01       		.uleb128 0x1
 953 00f9 31       		.uleb128 0x31
 954 00fa 13       		.uleb128 0x13
 955 00fb 00       		.byte	0
 956 00fc 00       		.byte	0
GAS LISTING /cygdrive/c/DOCUME~1/andrey/LOCALS~1/Temp/ccXxP69K.s 			page 20


 957 00fd 14       		.uleb128 0x14
 958 00fe 8A8201   		.uleb128 0x410a
 959 0101 00       		.byte	0
 960 0102 02       		.uleb128 0x2
 961 0103 18       		.uleb128 0x18
 962 0104 9142     		.uleb128 0x2111
 963 0106 18       		.uleb128 0x18
 964 0107 00       		.byte	0
 965 0108 00       		.byte	0
 966 0109 15       		.uleb128 0x15
 967 010a 2E       		.uleb128 0x2e
 968 010b 01       		.byte	0x1
 969 010c 3F       		.uleb128 0x3f
 970 010d 19       		.uleb128 0x19
 971 010e 03       		.uleb128 0x3
 972 010f 08       		.uleb128 0x8
 973 0110 3A       		.uleb128 0x3a
 974 0111 0B       		.uleb128 0xb
 975 0112 3B       		.uleb128 0x3b
 976 0113 0B       		.uleb128 0xb
 977 0114 27       		.uleb128 0x27
 978 0115 19       		.uleb128 0x19
 979 0116 11       		.uleb128 0x11
 980 0117 01       		.uleb128 0x1
 981 0118 12       		.uleb128 0x12
 982 0119 06       		.uleb128 0x6
 983 011a 40       		.uleb128 0x40
 984 011b 18       		.uleb128 0x18
 985 011c 9742     		.uleb128 0x2117
 986 011e 19       		.uleb128 0x19
 987 011f 01       		.uleb128 0x1
 988 0120 13       		.uleb128 0x13
 989 0121 00       		.byte	0
 990 0122 00       		.byte	0
 991 0123 16       		.uleb128 0x16
 992 0124 898201   		.uleb128 0x4109
 993 0127 00       		.byte	0
 994 0128 11       		.uleb128 0x11
 995 0129 01       		.uleb128 0x1
 996 012a 31       		.uleb128 0x31
 997 012b 13       		.uleb128 0x13
 998 012c 00       		.byte	0
 999 012d 00       		.byte	0
 1000 012e 17       		.uleb128 0x17
 1001 012f 898201   		.uleb128 0x4109
 1002 0132 01       		.byte	0x1
 1003 0133 11       		.uleb128 0x11
 1004 0134 01       		.uleb128 0x1
 1005 0135 01       		.uleb128 0x1
 1006 0136 13       		.uleb128 0x13
 1007 0137 00       		.byte	0
 1008 0138 00       		.byte	0
 1009 0139 18       		.uleb128 0x18
 1010 013a 2E       		.uleb128 0x2e
 1011 013b 01       		.byte	0x1
 1012 013c 3F       		.uleb128 0x3f
 1013 013d 19       		.uleb128 0x19
GAS LISTING /cygdrive/c/DOCUME~1/andrey/LOCALS~1/Temp/ccXxP69K.s 			page 21


 1014 013e 03       		.uleb128 0x3
 1015 013f 08       		.uleb128 0x8
 1016 0140 3A       		.uleb128 0x3a
 1017 0141 0B       		.uleb128 0xb
 1018 0142 3B       		.uleb128 0x3b
 1019 0143 0B       		.uleb128 0xb
 1020 0144 27       		.uleb128 0x27
 1021 0145 19       		.uleb128 0x19
 1022 0146 3C       		.uleb128 0x3c
 1023 0147 19       		.uleb128 0x19
 1024 0148 01       		.uleb128 0x1
 1025 0149 13       		.uleb128 0x13
 1026 014a 00       		.byte	0
 1027 014b 00       		.byte	0
 1028 014c 19       		.uleb128 0x19
 1029 014d 2E       		.uleb128 0x2e
 1030 014e 00       		.byte	0
 1031 014f 3F       		.uleb128 0x3f
 1032 0150 19       		.uleb128 0x19
 1033 0151 03       		.uleb128 0x3
 1034 0152 08       		.uleb128 0x8
 1035 0153 3A       		.uleb128 0x3a
 1036 0154 0B       		.uleb128 0xb
 1037 0155 3B       		.uleb128 0x3b
 1038 0156 0B       		.uleb128 0xb
 1039 0157 27       		.uleb128 0x27
 1040 0158 19       		.uleb128 0x19
 1041 0159 3C       		.uleb128 0x3c
 1042 015a 19       		.uleb128 0x19
 1043 015b 00       		.byte	0
 1044 015c 00       		.byte	0
 1045 015d 1A       		.uleb128 0x1a
 1046 015e 2E       		.uleb128 0x2e
 1047 015f 01       		.byte	0x1
 1048 0160 3F       		.uleb128 0x3f
 1049 0161 19       		.uleb128 0x19
 1050 0162 03       		.uleb128 0x3
 1051 0163 08       		.uleb128 0x8
 1052 0164 3A       		.uleb128 0x3a
 1053 0165 0B       		.uleb128 0xb
 1054 0166 3B       		.uleb128 0x3b
 1055 0167 05       		.uleb128 0x5
 1056 0168 27       		.uleb128 0x27
 1057 0169 19       		.uleb128 0x19
 1058 016a 3C       		.uleb128 0x3c
 1059 016b 19       		.uleb128 0x19
 1060 016c 00       		.byte	0
 1061 016d 00       		.byte	0
 1062 016e 00       		.byte	0
 1063              		.section	.debug_aranges,"dr"
 1064 0000 1C000000 		.long	0x1c
 1065 0004 0200     		.word	0x2
 1066 0006 00000000 		.secrel32	Ldebug_info0
 1067 000a 04       		.byte	0x4
 1068 000b 00       		.byte	0
 1069 000c 0000     		.word	0
 1070 000e 0000     		.word	0
GAS LISTING /cygdrive/c/DOCUME~1/andrey/LOCALS~1/Temp/ccXxP69K.s 			page 22


 1071 0010 00000000 		.long	Ltext0
 1072 0014 3E000000 		.long	Letext0-Ltext0
 1073 0018 00000000 		.long	0
 1074 001c 00000000 		.long	0
 1075              		.section	.debug_line,"dr"
 1076              	Ldebug_line0:
 1077 0000 FF000000 		.section	.debug_str,"dr"
 1077      0200E000 
 1077      00000101 
 1077      FB0E0D00 
 1077      01010101 
 1078              	LASF0:
 1079 0000 705F6E65 		.ascii "p_next\0"
 1079      787400
 1080              		.ident	"GCC: (GNU) 4.8.2"
 1081              		.def	_exit;	.scl	2;	.type	32;	.endef
 1082              		.def	_dbg_check_unlock;	.scl	2;	.type	32;	.endef
 1083              		.def	_chThdExit;	.scl	2;	.type	32;	.endef
GAS LISTING /cygdrive/c/DOCUME~1/andrey/LOCALS~1/Temp/ccXxP69K.s 			page 23


DEFINED SYMBOLS
                            *ABS*:00000000 chcore.c
/cygdrive/c/DOCUME~1/andrey/LOCALS~1/Temp/ccXxP69K.s:71     .text:00000000 ___dummy
/cygdrive/c/DOCUME~1/andrey/LOCALS~1/Temp/ccXxP69K.s:81     .text:00000000 @port_switch@8
/cygdrive/c/DOCUME~1/andrey/LOCALS~1/Temp/ccXxP69K.s:100    .text:00000010 @port_halt@0
/cygdrive/c/DOCUME~1/andrey/LOCALS~1/Temp/ccXxP69K.s:115    .text:00000020 __port_thread_start

UNDEFINED SYMBOLS
_exit
_dbg_check_unlock
_chThdExit
