GAS LISTING /cygdrive/c/Users/pc/AppData/Local/Temp/ccLVwai1.s 			page 1


   1              		.file	"advance_map.cpp"
   2              		.section	.text$_Z16isStep1Conditioni,"x"
   3              		.p2align 4,,15
   4              		.globl	__Z16isStep1Conditioni
   5              		.def	__Z16isStep1Conditioni;	.scl	2;	.type	32;	.endef
   6              	__Z16isStep1Conditioni:
   7              	LFB85:
   8              		.cfi_startproc
   9 0000 8B150000 		movl	_boardConfiguration, %edx
   9      0000
  10 0006 31C0     		xorl	%eax, %eax
  11 0008 F6828101 		testb	$4, 385(%edx)
  11      000004
  12 000f 7412     		je	L2
  13 0011 A1000000 		movl	_engineConfiguration, %eax
  13      00
  14 0016 8B542404 		movl	4(%esp), %edx
  15 001a 39904001 		cmpl	%edx, 320(%eax)
  15      0000
  16 0020 0F9EC0   		setle	%al
  17              	L2:
  18 0023 F3       		rep
  19 0024 C3       		ret
  20              		.cfi_endproc
  21              	LFE85:
  22 0025 90909090 		.section	.text$_Z29setDefaultIatTimingCorrectionv,"x"
  22      90909090 
  22      909090
  23              		.p2align 4,,15
  24              		.globl	__Z29setDefaultIatTimingCorrectionv
  25              		.def	__Z29setDefaultIatTimingCorrectionv;	.scl	2;	.type	32;	.endef
  26              	__Z29setDefaultIatTimingCorrectionv:
  27              	LFB88:
  28              		.cfi_startproc
  29 0000 83EC2C   		subl	$44, %esp
  30              		.cfi_def_cfa_offset 48
  31 0003 A1000000 		movl	_config, %eax
  31      00
  32 0008 C7442410 		movl	$0x3f800000, 16(%esp)
  32      0000803F 
  33 0010 C744240C 		movl	$0x42dc0000, 12(%esp)
  33      0000DC42 
  34 0018 C7442408 		movl	$0xc2200000, 8(%esp)
  34      000020C2 
  35 0020 05B82400 		addl	$9400, %eax
  35      00
  36 0025 890424   		movl	%eax, (%esp)
  37 0028 C7442404 		movl	$16, 4(%esp)
  37      10000000 
  38 0030 E8000000 		call	__Z12setTableBin2Pfifff
  38      00
  39 0035 A1000000 		movl	_config, %eax
  39      00
  40 003a 8B150000 		movl	__ZL16iatTimingRpmBins, %edx
  40      0000
  41 0040 8990F824 		movl	%edx, 9464(%eax)
  41      0000
GAS LISTING /cygdrive/c/Users/pc/AppData/Local/Temp/ccLVwai1.s 			page 2


  42 0046 8B150400 		movl	__ZL16iatTimingRpmBins+4, %edx
  42      0000
  43 004c 8990FC24 		movl	%edx, 9468(%eax)
  43      0000
  44 0052 8B150800 		movl	__ZL16iatTimingRpmBins+8, %edx
  44      0000
  45 0058 89900025 		movl	%edx, 9472(%eax)
  45      0000
  46 005e 8B150C00 		movl	__ZL16iatTimingRpmBins+12, %edx
  46      0000
  47 0064 89900425 		movl	%edx, 9476(%eax)
  47      0000
  48 006a 8B151000 		movl	__ZL16iatTimingRpmBins+16, %edx
  48      0000
  49 0070 89900825 		movl	%edx, 9480(%eax)
  49      0000
  50 0076 8B151400 		movl	__ZL16iatTimingRpmBins+20, %edx
  50      0000
  51 007c 89900C25 		movl	%edx, 9484(%eax)
  51      0000
  52 0082 8B151800 		movl	__ZL16iatTimingRpmBins+24, %edx
  52      0000
  53 0088 89901025 		movl	%edx, 9488(%eax)
  53      0000
  54 008e 8B151C00 		movl	__ZL16iatTimingRpmBins+28, %edx
  54      0000
  55 0094 89901425 		movl	%edx, 9492(%eax)
  55      0000
  56 009a 8B152000 		movl	__ZL16iatTimingRpmBins+32, %edx
  56      0000
  57 00a0 89901825 		movl	%edx, 9496(%eax)
  57      0000
  58 00a6 8B152400 		movl	__ZL16iatTimingRpmBins+36, %edx
  58      0000
  59 00ac 89901C25 		movl	%edx, 9500(%eax)
  59      0000
  60 00b2 8B152800 		movl	__ZL16iatTimingRpmBins+40, %edx
  60      0000
  61 00b8 89902025 		movl	%edx, 9504(%eax)
  61      0000
  62 00be 8B152C00 		movl	__ZL16iatTimingRpmBins+44, %edx
  62      0000
  63 00c4 89902425 		movl	%edx, 9508(%eax)
  63      0000
  64 00ca 8B153000 		movl	__ZL16iatTimingRpmBins+48, %edx
  64      0000
  65 00d0 89902825 		movl	%edx, 9512(%eax)
  65      0000
  66 00d6 8B153400 		movl	__ZL16iatTimingRpmBins+52, %edx
  66      0000
  67 00dc 89902C25 		movl	%edx, 9516(%eax)
  67      0000
  68 00e2 8B153800 		movl	__ZL16iatTimingRpmBins+56, %edx
  68      0000
  69 00e8 89903025 		movl	%edx, 9520(%eax)
  69      0000
  70 00ee 8B153C00 		movl	__ZL16iatTimingRpmBins+60, %edx
GAS LISTING /cygdrive/c/Users/pc/AppData/Local/Temp/ccLVwai1.s 			page 3


  70      0000
  71 00f4 89903425 		movl	%edx, 9524(%eax)
  71      0000
  72 00fa 05B82000 		addl	$8376, %eax
  72      00
  73 00ff 89442404 		movl	%eax, 4(%esp)
  74 0103 C7042400 		movl	$__ZL16defaultIatTiming, (%esp)
  74      000000
  75 010a E8000000 		call	__Z15copyTimingTablePA16_KfPA16_f
  75      00
  76 010f 83C42C   		addl	$44, %esp
  77              		.cfi_def_cfa_offset 4
  78 0112 C3       		ret
  79              		.cfi_endproc
  80              	LFE88:
  81 0113 90909090 		.section	.text$_Z16prepareTimingMapv,"x"
  81      90909090 
  81      90909090 
  81      90
  82              		.p2align 4,,15
  83              		.globl	__Z16prepareTimingMapv
  84              		.def	__Z16prepareTimingMapv;	.scl	2;	.type	32;	.endef
  85              	__Z16prepareTimingMapv:
  86              	LFB89:
  87              		.cfi_startproc
  88 0000 8B150000 		movl	_config, %edx
  88      0000
  89 0006 31C0     		xorl	%eax, %eax
  90 0008 56       		pushl	%esi
  91              		.cfi_def_cfa_offset 8
  92              		.cfi_offset 6, -8
  93 0009 53       		pushl	%ebx
  94              		.cfi_def_cfa_offset 12
  95              		.cfi_offset 3, -12
  96 000a 8DB23832 		leal	12856(%edx), %esi
  96      0000
  97 0010 8D9A7832 		leal	12920(%edx), %ebx
  97      0000
  98              		.p2align 4,,7
  99              	L9:
 100 0016 89C1     		movl	%eax, %ecx
 101 0018 C1E106   		sall	$6, %ecx
 102 001b 8D8C0A38 		leal	11832(%edx,%ecx), %ecx
 102      2E0000
 103 0022 890C8500 		movl	%ecx, __ZL10advanceMap(,%eax,4)
 103      000000
 104 0029 83C001   		addl	$1, %eax
 105 002c 83F810   		cmpl	$16, %eax
 106 002f 75E5     		jne	L9
 107 0031 89354000 		movl	%esi, __ZL10advanceMap+64
 107      0000
 108 0037 30C0     		xorb	%al, %al
 109 0039 891D4400 		movl	%ebx, __ZL10advanceMap+68
 109      0000
 110 003f 8DB2B824 		leal	9400(%edx), %esi
 110      0000
 111 0045 C7054800 		movl	$153351512, __ZL10advanceMap+72
GAS LISTING /cygdrive/c/Users/pc/AppData/Local/Temp/ccLVwai1.s 			page 4


 111      000058F5 
 111      2309
 112 004f 8D9AF824 		leal	9464(%edx), %ebx
 112      0000
 113              		.p2align 4,,7
 114              	L10:
 115 0055 89C1     		movl	%eax, %ecx
 116 0057 C1E106   		sall	$6, %ecx
 117 005a 8D8C0AB8 		leal	8376(%edx,%ecx), %ecx
 117      200000
 118 0061 890C8500 		movl	%ecx, __ZL23iatAdvanceCorrectionMap(,%eax,4)
 118      000000
 119 0068 83C001   		addl	$1, %eax
 120 006b 83F810   		cmpl	$16, %eax
 121 006e 75E5     		jne	L10
 122 0070 89354000 		movl	%esi, __ZL23iatAdvanceCorrectionMap+64
 122      0000
 123 0076 891D4400 		movl	%ebx, __ZL23iatAdvanceCorrectionMap+68
 123      0000
 124 007c C7054800 		movl	$153351512, __ZL23iatAdvanceCorrectionMap+72
 124      000058F5 
 124      2309
 125 0086 5B       		popl	%ebx
 126              		.cfi_restore 3
 127              		.cfi_def_cfa_offset 8
 128 0087 5E       		popl	%esi
 129              		.cfi_restore 6
 130              		.cfi_def_cfa_offset 4
 131 0088 C3       		ret
 132              		.cfi_endproc
 133              	LFE89:
 134 0089 90909090 		.section .rdata,"dr"
 134      909090
 135              	LC4:
 136 0000 6D617020 		.ascii "map not initialized\0"
 136      6E6F7420 
 136      696E6974 
 136      69616C69 
 136      7A656400 
 137              		.section	.text$_ZN5Map3DILi16ELi16EE8getValueEff,"x"
 138              		.linkonce discard
 139              		.align 2
 140              		.p2align 4,,15
 141              		.globl	__ZN5Map3DILi16ELi16EE8getValueEff
 142              		.def	__ZN5Map3DILi16ELi16EE8getValueEff;	.scl	2;	.type	32;	.endef
 143              	__ZN5Map3DILi16ELi16EE8getValueEff:
 144              	LFB93:
 145              		.cfi_startproc
 146 0000 83EC2C   		subl	$44, %esp
 147              		.cfi_def_cfa_offset 48
 148 0003 81794858 		cmpl	$153351512, 72(%ecx)
 148      F52309
 149 000a 7418     		je	L15
 150 000c C7042400 		movl	$LC4, (%esp)
 150      000000
 151 0013 E8000000 		call	_firmwareError
 151      00
GAS LISTING /cygdrive/c/Users/pc/AppData/Local/Temp/ccLVwai1.s 			page 5


 152 0018 D9053800 		flds	LC3
 152      0000
 153 001e 83C42C   		addl	$44, %esp
 154              		.cfi_remember_state
 155              		.cfi_def_cfa_offset 4
 156 0021 C20800   		ret	$8
 157              		.p2align 4,,7
 158              	L15:
 159              		.cfi_restore_state
 160 0024 8B4144   		movl	68(%ecx), %eax
 161 0027 D9442434 		flds	52(%esp)
 162 002b D95C240C 		fstps	12(%esp)
 163 002f D9442430 		flds	48(%esp)
 164 0033 89442410 		movl	%eax, 16(%esp)
 165 0037 8B4140   		movl	64(%ecx), %eax
 166 003a D91C24   		fstps	(%esp)
 167 003d 894C2418 		movl	%ecx, 24(%esp)
 168 0041 C7442414 		movl	$16, 20(%esp)
 168      10000000 
 169 0049 C7442408 		movl	$16, 8(%esp)
 169      10000000 
 170 0051 89442404 		movl	%eax, 4(%esp)
 171 0055 E8000000 		call	__Z13interpolate3dfPfifS_iPS_
 171      00
 172 005a 83C42C   		addl	$44, %esp
 173              		.cfi_def_cfa_offset 4
 174 005d C20800   		ret	$8
 175              		.cfi_endproc
 176              	LFE93:
 177              		.section .rdata,"dr"
 178              	LC5:
 179 0014 4E614E20 		.ascii "NaN engine load\0"
 179      656E6769 
 179      6E65206C 
 179      6F616400 
 180              	LC6:
 181 0024 7A65726F 		.ascii "zero engineCycle\0"
 181      20656E67 
 181      696E6543 
 181      79636C65 
 181      00
 182              		.section	.text$_Z10getAdvanceif,"x"
 183              		.p2align 4,,15
 184              		.globl	__Z10getAdvanceif
 185              		.def	__Z10getAdvanceif;	.scl	2;	.type	32;	.endef
 186              	__Z10getAdvanceif:
 187              	LFB87:
 188              		.cfi_startproc
 189 0000 83EC3C   		subl	$60, %esp
 190              		.cfi_def_cfa_offset 64
 191 0003 8B442440 		movl	64(%esp), %eax
 192 0007 85C0     		testl	%eax, %eax
 193 0009 7E69     		jle	L19
 194 000b 0FBF1568 		movswl	_persistentState+104, %edx
 194      000000
 195 0012 39D0     		cmpl	%edx, %eax
 196 0014 7D5E     		jge	L19
GAS LISTING /cygdrive/c/Users/pc/AppData/Local/Temp/ccLVwai1.s 			page 6


 197 0016 8B150000 		movl	_engineConfiguration, %edx
 197      0000
 198 001c D982B801 		flds	440(%edx)
 198      0000
 199              	L20:
 200 0022 A1A80100 		movl	_persistentState+424, %eax
 200      00
 201 0027 D8A2C001 		fsubs	448(%edx)
 201      0000
 202 002d 85C0     		testl	%eax, %eax
 203 002f 0F84AB00 		je	L40
 203      0000
 204              	L25:
 205 0035 D9EE     		fldz
 206 0037 8944242C 		movl	%eax, 44(%esp)
 207 003b DBE9     		fucomi	%st(1), %st
 208 003d DB44242C 		fildl	44(%esp)
 209 0041 7704     		ja	L28
 210 0043 EB10     		jmp	L42
 211              		.p2align 4,,7
 212              	L43:
 213 0045 D9C9     		fxch	%st(1)
 214              	L28:
 215 0047 DCC2     		fadd	%st, %st(2)
 216 0049 D9C9     		fxch	%st(1)
 217 004b DBEA     		fucomi	%st(2), %st
 218 004d 77F6     		ja	L43
 219 004f DDD8     		fstp	%st(0)
 220 0051 D9C9     		fxch	%st(1)
 221 0053 EB0B     		jmp	L27
 222              	L42:
 223 0055 DDD9     		fstp	%st(1)
 224 0057 D9C9     		fxch	%st(1)
 225 0059 8DB42600 		.p2align 4,,7
 225      000000
 226              	L27:
 227 0060 DBE9     		fucomi	%st(1), %st
 228 0062 720A     		jb	L44
 229              		.p2align 4,,7
 230              	L34:
 231 0064 D8E1     		fsub	%st(1), %st
 232 0066 DBE9     		fucomi	%st(1), %st
 233 0068 73FA     		jae	L34
 234 006a DDD9     		fstp	%st(1)
 235 006c EB02     		jmp	L38
 236              	L44:
 237 006e DDD9     		fstp	%st(1)
 238              		.p2align 4,,7
 239              	L38:
 240 0070 83C43C   		addl	$60, %esp
 241              		.cfi_remember_state
 242              		.cfi_def_cfa_offset 4
 243 0073 C3       		ret
 244              		.p2align 4,,7
 245              	L19:
 246              		.cfi_restore_state
 247 0074 8B0D0000 		movl	_engine, %ecx
GAS LISTING /cygdrive/c/Users/pc/AppData/Local/Temp/ccLVwai1.s 			page 7


 247      0000
 248 007a 817C2444 		cmpl	$2143289344, 68(%esp)
 248      0000C07F 
 249 0082 C781E823 		movl	$0, 9192(%ecx)
 249      00000000 
 249      0000
 250 008c 0F84D700 		je	L41
 250      0000
 251 0092 8B150000 		movl	_boardConfiguration, %edx
 251      0000
 252 0098 C781E023 		movl	$0, 9184(%ecx)
 252      00000000 
 252      0000
 253 00a2 C781E423 		movl	$0, 9188(%ecx)
 253      00000000 
 253      0000
 254 00ac F6828101 		testb	$4, 385(%edx)
 254      000004
 255 00b3 744B     		je	L23
 256 00b5 8B150000 		movl	_engineConfiguration, %edx
 256      0000
 257 00bb 3B824001 		cmpl	320(%edx), %eax
 257      0000
 258 00c1 7C3D     		jl	L23
 259 00c3 A1A80100 		movl	_persistentState+424, %eax
 259      00
 260 00c8 DB824401 		fildl	324(%edx)
 260      0000
 261 00ce D8A2C001 		fsubs	448(%edx)
 261      0000
 262 00d4 85C0     		testl	%eax, %eax
 263 00d6 0F8559FF 		jne	L25
 263      FFFF
 264 00dc 8D742600 		.p2align 4,,7
 265              	L40:
 266 00e0 C7042424 		movl	$LC6, (%esp)
 266      000000
 267 00e7 D95C2410 		fstps	16(%esp)
 268 00eb E8000000 		call	_firmwareError
 268      00
 269 00f0 A1A80100 		movl	_persistentState+424, %eax
 269      00
 270 00f5 D9442410 		flds	16(%esp)
 271 00f9 E937FFFF 		jmp	L25
 271      FF
 272 00fe 6690     		.p2align 4,,7
 273              	L23:
 274 0100 8944242C 		movl	%eax, 44(%esp)
 275 0104 DB44242C 		fildl	44(%esp)
 276 0108 D9542404 		fsts	4(%esp)
 277 010c D981541E 		flds	7764(%ecx)
 277      0000
 278 0112 B9000000 		movl	$__ZL23iatAdvanceCorrectionMap, %ecx
 278      00
 279 0117 D91C24   		fstps	(%esp)
 280 011a D95C2410 		fstps	16(%esp)
 281 011e E8000000 		call	__ZN5Map3DILi16ELi16EE8getValueEff
GAS LISTING /cygdrive/c/Users/pc/AppData/Local/Temp/ccLVwai1.s 			page 8


 281      00
 282              		.cfi_def_cfa_offset 56
 283 0123 B9000000 		movl	$__ZL10advanceMap, %ecx
 283      00
 284 0128 83EC08   		subl	$8, %esp
 285              		.cfi_def_cfa_offset 64
 286 012b D95C2428 		fstps	40(%esp)
 287 012f D9442410 		flds	16(%esp)
 288 0133 D95C2404 		fstps	4(%esp)
 289 0137 D9442444 		flds	68(%esp)
 290 013b D91C24   		fstps	(%esp)
 291 013e E8000000 		call	__ZN5Map3DILi16ELi16EE8getValueEff
 291      00
 292              		.cfi_def_cfa_offset 56
 293 0143 8B150000 		movl	_engine, %edx
 293      0000
 294 0149 8B82E823 		movl	9192(%edx), %eax
 294      0000
 295 014f 83EC08   		subl	$8, %esp
 296              		.cfi_def_cfa_offset 64
 297 0152 D8442428 		fadds	40(%esp)
 298 0156 F7D8     		negl	%eax
 299 0158 8982EC23 		movl	%eax, 9196(%edx)
 299      0000
 300 015e 8B150000 		movl	_engineConfiguration, %edx
 300      0000
 301 0164 E9B9FEFF 		jmp	L20
 301      FF
 302              	L41:
 303 0169 C7442404 		movl	$LC5, 4(%esp)
 303      14000000 
 304 0171 C704245E 		movl	$606, (%esp)
 304      020000
 305 0178 E8000000 		call	_warning
 305      00
 306 017d 8B150000 		movl	_engineConfiguration, %edx
 306      0000
 307 0183 D9053800 		flds	LC3
 307      0000
 308 0189 E994FEFF 		jmp	L20
 308      FF
 309              		.cfi_endproc
 310              	LFE87:
 311 018e 9090     		.section	.text.startup._GLOBAL__sub_I__Z16isStep1Conditioni,"x"
 312              		.p2align 4,,15
 313              		.def	__GLOBAL__sub_I__Z16isStep1Conditioni;	.scl	3;	.type	32;	.endef
 314              	__GLOBAL__sub_I__Z16isStep1Conditioni:
 315              	LFB96:
 316              		.cfi_startproc
 317 0000 BA000000 		movl	$__ZL10advanceMap, %edx
 317      00
 318 0005 31C0     		xorl	%eax, %eax
 319 0007 57       		pushl	%edi
 320              		.cfi_def_cfa_offset 8
 321              		.cfi_offset 7, -8
 322 0008 B9100000 		movl	$16, %ecx
 322      00
GAS LISTING /cygdrive/c/Users/pc/AppData/Local/Temp/ccLVwai1.s 			page 9


 323 000d 89D7     		movl	%edx, %edi
 324 000f BA000000 		movl	$__ZL23iatAdvanceCorrectionMap, %edx
 324      00
 325 0014 F3AB     		rep stosl
 326 0016 C7054800 		movl	$0, __ZL10advanceMap+72
 326      00000000 
 326      0000
 327 0020 C7054400 		movl	$0, __ZL10advanceMap+68
 327      00000000 
 327      0000
 328 002a C7054800 		movl	$0, __ZL23iatAdvanceCorrectionMap+72
 328      00000000 
 328      0000
 329 0034 C7054400 		movl	$0, __ZL23iatAdvanceCorrectionMap+68
 329      00000000 
 329      0000
 330 003e C7070000 		movl	$0, (%edi)
 330      0000
 331 0044 B110     		movb	$16, %cl
 332 0046 89D7     		movl	%edx, %edi
 333 0048 F3AB     		rep stosl
 334 004a C7070000 		movl	$0, (%edi)
 334      0000
 335 0050 5F       		popl	%edi
 336              		.cfi_restore 7
 337              		.cfi_def_cfa_offset 4
 338 0051 C3       		ret
 339              		.cfi_endproc
 340              	LFE96:
 341 0052 90909090 		.section	.ctors,"w"
 341      90909090 
 341      90909090 
 341      9090
 342              		.align 4
 343 0000 00000000 		.long	__GLOBAL__sub_I__Z16isStep1Conditioni
 344              		.section	.data$_ZL23iatAdvanceCorrectionMap,"w"
 345              		.align 32
 346              	__ZL23iatAdvanceCorrectionMap:
 347 0000 00000000 		.space 76
 347      00000000 
 347      00000000 
 347      00000000 
 347      00000000 
 348 004c 00000000 		.section	.data$_ZL10advanceMap,"w"
 348      00000000 
 348      00000000 
 348      00000000 
 348      00000000 
 349              		.align 32
 350              	__ZL10advanceMap:
 351 0000 00000000 		.space 76
 351      00000000 
 351      00000000 
 351      00000000 
 351      00000000 
 352 004c 00000000 		.section	.rdata$_ZL16iatTimingRpmBins,"dr"
 352      00000000 
GAS LISTING /cygdrive/c/Users/pc/AppData/Local/Temp/ccLVwai1.s 			page 10


 352      00000000 
 352      00000000 
 352      00000000 
 353              		.align 32
 354              	__ZL16iatTimingRpmBins:
 355 0000 00005C44 		.long	1146880000
 356 0004 00809D44 		.long	1151172608
 357 0008 0000CD44 		.long	1154285568
 358 000c 0080FC44 		.long	1157398528
 359 0010 00001645 		.long	1159069696
 360 0014 00C02D45 		.long	1160626176
 361 0018 00803B45 		.long	1161527296
 362 001c 00405345 		.long	1163083776
 363 0020 00006B45 		.long	1164640256
 364 0024 00608145 		.long	1166106624
 365 0028 00408D45 		.long	1166884864
 366 002c 00409C45 		.long	1167867904
 367 0030 0020B245 		.long	1169301504
 368 0034 0020CB45 		.long	1170939904
 369 0038 0000E145 		.long	1172373504
 370 003c 0000FA45 		.long	1174011904
 371              		.section	.rdata$_ZL16defaultIatTiming,"dr"
 372              		.align 32
 373              	__ZL16defaultIatTiming:
 374 0000 00008040 		.long	1082130432
 375 0004 00008040 		.long	1082130432
 376 0008 00008040 		.long	1082130432
 377 000c 00008040 		.long	1082130432
 378 0010 00008040 		.long	1082130432
 379 0014 00008040 		.long	1082130432
 380 0018 00008040 		.long	1082130432
 381 001c 00008040 		.long	1082130432
 382 0020 00008040 		.long	1082130432
 383 0024 00008040 		.long	1082130432
 384 0028 00008040 		.long	1082130432
 385 002c 00000040 		.long	1073741824
 386 0030 00000040 		.long	1073741824
 387 0034 00000040 		.long	1073741824
 388 0038 00000040 		.long	1073741824
 389 003c 00000040 		.long	1073741824
 390 0040 00008040 		.long	1082130432
 391 0044 00008040 		.long	1082130432
 392 0048 00008040 		.long	1082130432
 393 004c 00008040 		.long	1082130432
 394 0050 00008040 		.long	1082130432
 395 0054 00008040 		.long	1082130432
 396 0058 00008040 		.long	1082130432
 397 005c 00008040 		.long	1082130432
 398 0060 00008040 		.long	1082130432
 399 0064 00008040 		.long	1082130432
 400 0068 00008040 		.long	1082130432
 401 006c 00000040 		.long	1073741824
 402 0070 00000040 		.long	1073741824
 403 0074 00000040 		.long	1073741824
 404 0078 00000040 		.long	1073741824
 405 007c 00000040 		.long	1073741824
 406 0080 00008040 		.long	1082130432
GAS LISTING /cygdrive/c/Users/pc/AppData/Local/Temp/ccLVwai1.s 			page 11


 407 0084 00008040 		.long	1082130432
 408 0088 00008040 		.long	1082130432
 409 008c 00008040 		.long	1082130432
 410 0090 00008040 		.long	1082130432
 411 0094 00008040 		.long	1082130432
 412 0098 00008040 		.long	1082130432
 413 009c 00008040 		.long	1082130432
 414 00a0 00008040 		.long	1082130432
 415 00a4 00008040 		.long	1082130432
 416 00a8 00008040 		.long	1082130432
 417 00ac 00000040 		.long	1073741824
 418 00b0 00000040 		.long	1073741824
 419 00b4 00000040 		.long	1073741824
 420 00b8 00000040 		.long	1073741824
 421 00bc 00000040 		.long	1073741824
 422 00c0 00008040 		.long	1082130432
 423 00c4 00008040 		.long	1082130432
 424 00c8 00008040 		.long	1082130432
 425 00cc 00008040 		.long	1082130432
 426 00d0 00008040 		.long	1082130432
 427 00d4 00008040 		.long	1082130432
 428 00d8 00008040 		.long	1082130432
 429 00dc 00008040 		.long	1082130432
 430 00e0 00008040 		.long	1082130432
 431 00e4 00008040 		.long	1082130432
 432 00e8 00008040 		.long	1082130432
 433 00ec 00000040 		.long	1073741824
 434 00f0 00000040 		.long	1073741824
 435 00f4 00000040 		.long	1073741824
 436 00f8 00000040 		.long	1073741824
 437 00fc 00000040 		.long	1073741824
 438 0100 00006040 		.long	1080033280
 439 0104 00006040 		.long	1080033280
 440 0108 00006040 		.long	1080033280
 441 010c 00006040 		.long	1080033280
 442 0110 00006040 		.long	1080033280
 443 0114 00006040 		.long	1080033280
 444 0118 00006040 		.long	1080033280
 445 011c 00006040 		.long	1080033280
 446 0120 00006040 		.long	1080033280
 447 0124 00006040 		.long	1080033280
 448 0128 00006040 		.long	1080033280
 449 012c 00000040 		.long	1073741824
 450 0130 00000040 		.long	1073741824
 451 0134 00000040 		.long	1073741824
 452 0138 00000040 		.long	1073741824
 453 013c 00000040 		.long	1073741824
 454 0140 00004040 		.long	1077936128
 455 0144 00004040 		.long	1077936128
 456 0148 00004040 		.long	1077936128
 457 014c 00004040 		.long	1077936128
 458 0150 00004040 		.long	1077936128
 459 0154 00004040 		.long	1077936128
 460 0158 00004040 		.long	1077936128
 461 015c 00004040 		.long	1077936128
 462 0160 00004040 		.long	1077936128
 463 0164 00004040 		.long	1077936128
GAS LISTING /cygdrive/c/Users/pc/AppData/Local/Temp/ccLVwai1.s 			page 12


 464 0168 00004040 		.long	1077936128
 465 016c 00000040 		.long	1073741824
 466 0170 00000040 		.long	1073741824
 467 0174 00000040 		.long	1073741824
 468 0178 00000040 		.long	1073741824
 469 017c 00000040 		.long	1073741824
 470 0180 00000040 		.long	1073741824
 471 0184 00000040 		.long	1073741824
 472 0188 00000040 		.long	1073741824
 473 018c 00000040 		.long	1073741824
 474 0190 00000040 		.long	1073741824
 475 0194 00000040 		.long	1073741824
 476 0198 00000040 		.long	1073741824
 477 019c 00000040 		.long	1073741824
 478 01a0 00000040 		.long	1073741824
 479 01a4 00000040 		.long	1073741824
 480 01a8 00000040 		.long	1073741824
 481 01ac 00000000 		.long	0
 482 01b0 00000000 		.long	0
 483 01b4 00000000 		.long	0
 484 01b8 00000000 		.long	0
 485 01bc 00000000 		.long	0
 486 01c0 00000000 		.long	0
 487 01c4 00000000 		.long	0
 488 01c8 00000000 		.long	0
 489 01cc 00000000 		.long	0
 490 01d0 00000000 		.long	0
 491 01d4 00000000 		.long	0
 492 01d8 00000000 		.long	0
 493 01dc 00000000 		.long	0
 494 01e0 00000000 		.long	0
 495 01e4 00000000 		.long	0
 496 01e8 00000000 		.long	0
 497 01ec 00000000 		.long	0
 498 01f0 00000000 		.long	0
 499 01f4 00000000 		.long	0
 500 01f8 00000000 		.long	0
 501 01fc 00000000 		.long	0
 502 0200 00000000 		.long	0
 503 0204 00000000 		.long	0
 504 0208 00000000 		.long	0
 505 020c 00000000 		.long	0
 506 0210 00000000 		.long	0
 507 0214 00000000 		.long	0
 508 0218 00000000 		.long	0
 509 021c 00000000 		.long	0
 510 0220 00000000 		.long	0
 511 0224 00000000 		.long	0
 512 0228 00000000 		.long	0
 513 022c 00000000 		.long	0
 514 0230 00000000 		.long	0
 515 0234 00000000 		.long	0
 516 0238 00000000 		.long	0
 517 023c 00000000 		.long	0
 518 0240 00000000 		.long	0
 519 0244 00000000 		.long	0
 520 0248 666666BF 		.long	-1083808154
GAS LISTING /cygdrive/c/Users/pc/AppData/Local/Temp/ccLVwai1.s 			page 13


 521 024c 666666BF 		.long	-1083808154
 522 0250 666666BF 		.long	-1083808154
 523 0254 666666BF 		.long	-1083808154
 524 0258 666666BF 		.long	-1083808154
 525 025c 666666BF 		.long	-1083808154
 526 0260 666666BF 		.long	-1083808154
 527 0264 666666BF 		.long	-1083808154
 528 0268 666666BF 		.long	-1083808154
 529 026c 666666BF 		.long	-1083808154
 530 0270 666666BF 		.long	-1083808154
 531 0274 666666BF 		.long	-1083808154
 532 0278 666666BF 		.long	-1083808154
 533 027c 666666BF 		.long	-1083808154
 534 0280 333353C0 		.long	-1068289229
 535 0284 9A9959C0 		.long	-1067869798
 536 0288 CDCC9CC0 		.long	-1063465779
 537 028c CDCC9CC0 		.long	-1063465779
 538 0290 CDCC9CC0 		.long	-1063465779
 539 0294 CDCC9CC0 		.long	-1063465779
 540 0298 CDCC8CC0 		.long	-1064514355
 541 029c CDCC8CC0 		.long	-1064514355
 542 02a0 CDCC8CC0 		.long	-1064514355
 543 02a4 CDCC8CC0 		.long	-1064514355
 544 02a8 CDCC8CC0 		.long	-1064514355
 545 02ac 666666BF 		.long	-1083808154
 546 02b0 666666BF 		.long	-1083808154
 547 02b4 666666BF 		.long	-1083808154
 548 02b8 666666BF 		.long	-1083808154
 549 02bc 666666BF 		.long	-1083808154
 550 02c0 CDCC8CC0 		.long	-1064514355
 551 02c4 CDCC9CC0 		.long	-1063465779
 552 02c8 CDCCBCC0 		.long	-1061368627
 553 02cc CDCCBCC0 		.long	-1061368627
 554 02d0 CDCCBCC0 		.long	-1061368627
 555 02d4 CDCCBCC0 		.long	-1061368627
 556 02d8 CDCC9CC0 		.long	-1063465779
 557 02dc CDCC9CC0 		.long	-1063465779
 558 02e0 CDCC9CC0 		.long	-1063465779
 559 02e4 CDCC9CC0 		.long	-1063465779
 560 02e8 CDCC9CC0 		.long	-1063465779
 561 02ec 9A9919C0 		.long	-1072064102
 562 02f0 9A9919C0 		.long	-1072064102
 563 02f4 9A9919C0 		.long	-1072064102
 564 02f8 9A9919C0 		.long	-1072064102
 565 02fc 9A9919C0 		.long	-1072064102
 566 0300 CDCC8CC0 		.long	-1064514355
 567 0304 CDCC9CC0 		.long	-1063465779
 568 0308 CDCCBCC0 		.long	-1061368627
 569 030c CDCCBCC0 		.long	-1061368627
 570 0310 CDCCBCC0 		.long	-1061368627
 571 0314 CDCCBCC0 		.long	-1061368627
 572 0318 CDCC9CC0 		.long	-1063465779
 573 031c CDCC9CC0 		.long	-1063465779
 574 0320 CDCC9CC0 		.long	-1063465779
 575 0324 CDCC9CC0 		.long	-1063465779
 576 0328 CDCC9CC0 		.long	-1063465779
 577 032c 9A9939C0 		.long	-1069966950
GAS LISTING /cygdrive/c/Users/pc/AppData/Local/Temp/ccLVwai1.s 			page 14


 578 0330 9A9939C0 		.long	-1069966950
 579 0334 9A9939C0 		.long	-1069966950
 580 0338 9A9939C0 		.long	-1069966950
 581 033c 9A9939C0 		.long	-1069966950
 582 0340 CDCC8CC0 		.long	-1064514355
 583 0344 CDCC9CC0 		.long	-1063465779
 584 0348 CDCCBCC0 		.long	-1061368627
 585 034c CDCCBCC0 		.long	-1061368627
 586 0350 CDCCBCC0 		.long	-1061368627
 587 0354 CDCCBCC0 		.long	-1061368627
 588 0358 CDCC9CC0 		.long	-1063465779
 589 035c CDCC9CC0 		.long	-1063465779
 590 0360 CDCC9CC0 		.long	-1063465779
 591 0364 CDCC9CC0 		.long	-1063465779
 592 0368 CDCC9CC0 		.long	-1063465779
 593 036c 9A9979C0 		.long	-1065772646
 594 0370 9A9979C0 		.long	-1065772646
 595 0374 9A9979C0 		.long	-1065772646
 596 0378 9A9979C0 		.long	-1065772646
 597 037c 9A9979C0 		.long	-1065772646
 598 0380 CDCC8CC0 		.long	-1064514355
 599 0384 CDCC9CC0 		.long	-1063465779
 600 0388 CDCCBCC0 		.long	-1061368627
 601 038c CDCCBCC0 		.long	-1061368627
 602 0390 CDCCBCC0 		.long	-1061368627
 603 0394 CDCCBCC0 		.long	-1061368627
 604 0398 CDCC9CC0 		.long	-1063465779
 605 039c CDCC9CC0 		.long	-1063465779
 606 03a0 CDCC9CC0 		.long	-1063465779
 607 03a4 CDCC9CC0 		.long	-1063465779
 608 03a8 CDCC9CC0 		.long	-1063465779
 609 03ac 9A9979C0 		.long	-1065772646
 610 03b0 9A9979C0 		.long	-1065772646
 611 03b4 9A9979C0 		.long	-1065772646
 612 03b8 9A9979C0 		.long	-1065772646
 613 03bc 9A9979C0 		.long	-1065772646
 614 03c0 CDCC8CC0 		.long	-1064514355
 615 03c4 CDCC9CC0 		.long	-1063465779
 616 03c8 CDCCBCC0 		.long	-1061368627
 617 03cc CDCCBCC0 		.long	-1061368627
 618 03d0 CDCCBCC0 		.long	-1061368627
 619 03d4 CDCCBCC0 		.long	-1061368627
 620 03d8 CDCC9CC0 		.long	-1063465779
 621 03dc CDCC9CC0 		.long	-1063465779
 622 03e0 CDCC9CC0 		.long	-1063465779
 623 03e4 CDCC9CC0 		.long	-1063465779
 624 03e8 CDCC9CC0 		.long	-1063465779
 625 03ec 9A9979C0 		.long	-1065772646
 626 03f0 9A9979C0 		.long	-1065772646
 627 03f4 9A9979C0 		.long	-1065772646
 628 03f8 9A9979C0 		.long	-1065772646
 629 03fc 9A9979C0 		.long	-1065772646
 630              		.section .rdata,"dr"
 631 0035 000000   		.align 4
 632              	LC3:
 633 0038 0000C07F 		.long	2143289344
 634              		.def	__Z12setTableBin2Pfifff;	.scl	2;	.type	32;	.endef
GAS LISTING /cygdrive/c/Users/pc/AppData/Local/Temp/ccLVwai1.s 			page 15


 635              		.def	__Z15copyTimingTablePA16_KfPA16_f;	.scl	2;	.type	32;	.endef
 636              		.def	_firmwareError;	.scl	2;	.type	32;	.endef
 637              		.def	__Z13interpolate3dfPfifS_iPS_;	.scl	2;	.type	32;	.endef
 638              		.def	_warning;	.scl	2;	.type	32;	.endef
GAS LISTING /cygdrive/c/Users/pc/AppData/Local/Temp/ccLVwai1.s 			page 16


DEFINED SYMBOLS
                            *ABS*:00000000 advance_map.cpp
/cygdrive/c/Users/pc/AppData/Local/Temp/ccLVwai1.s:6      .text$_Z16isStep1Conditioni:00000000 __Z16isStep1Conditioni
/cygdrive/c/Users/pc/AppData/Local/Temp/ccLVwai1.s:26     .text$_Z29setDefaultIatTimingCorrectionv:00000000 __Z29setDefaultIatTimingCorrectionv
/cygdrive/c/Users/pc/AppData/Local/Temp/ccLVwai1.s:354    .rdata$_ZL16iatTimingRpmBins:00000000 __ZL16iatTimingRpmBins
/cygdrive/c/Users/pc/AppData/Local/Temp/ccLVwai1.s:373    .rdata$_ZL16defaultIatTiming:00000000 __ZL16defaultIatTiming
/cygdrive/c/Users/pc/AppData/Local/Temp/ccLVwai1.s:85     .text$_Z16prepareTimingMapv:00000000 __Z16prepareTimingMapv
/cygdrive/c/Users/pc/AppData/Local/Temp/ccLVwai1.s:350    .data$_ZL10advanceMap:00000000 __ZL10advanceMap
/cygdrive/c/Users/pc/AppData/Local/Temp/ccLVwai1.s:346    .data$_ZL23iatAdvanceCorrectionMap:00000000 __ZL23iatAdvanceCorrectionMap
/cygdrive/c/Users/pc/AppData/Local/Temp/ccLVwai1.s:143    .text$_ZN5Map3DILi16ELi16EE8getValueEff:00000000 __ZN5Map3DILi16ELi16EE8getValueEff
/cygdrive/c/Users/pc/AppData/Local/Temp/ccLVwai1.s:186    .text$_Z10getAdvanceif:00000000 __Z10getAdvanceif
/cygdrive/c/Users/pc/AppData/Local/Temp/ccLVwai1.s:314    .text.startup._GLOBAL__sub_I__Z16isStep1Conditioni:00000000 __GLOBAL__sub_I__Z16isStep1Conditioni

UNDEFINED SYMBOLS
_boardConfiguration
_engineConfiguration
_config
_persistentState
_engine
__Z12setTableBin2Pfifff
__Z15copyTimingTablePA16_KfPA16_f
_firmwareError
__Z13interpolate3dfPfifS_iPS_
_warning
