GAS LISTING /cygdrive/c/Users/pc/AppData/Local/Temp/ccWVOdKN.s 			page 1


   1              		.file	"bmw_e34.cpp"
   2              		.section	.text$_Z9setBmwE34v,"x"
   3              		.p2align 4,,15
   4              		.globl	__Z9setBmwE34v
   5              		.def	__Z9setBmwE34v;	.scl	2;	.type	32;	.endef
   6              	__Z9setBmwE34v:
   7              	LFB85:
   8              		.cfi_startproc
   9 0000 53       		pushl	%ebx
  10              		.cfi_def_cfa_offset 8
  11              		.cfi_offset 3, -8
  12 0001 81EC8800 		subl	$136, %esp
  12      0000
  13              		.cfi_def_cfa_offset 144
  14 0007 A1000000 		movl	_engineConfiguration, %eax
  14      00
  15 000c 0FB690E5 		movzbl	1509(%eax), %edx
  15      050000
  16 0013 C780E805 		movl	$450, 1512(%eax)
  16      0000C201 
  16      0000
  17 001d C7809401 		movl	$6, 404(%eax)
  17      00000600 
  17      0000
  18 0027 C7809001 		movl	$0x403a3d71, 400(%eax)
  18      0000713D 
  18      3A40
  19 0031 83CA60   		orl	$96, %edx
  20 0034 8890E505 		movb	%dl, 1509(%eax)
  20      0000
  21 003a C7809801 		movl	$4, 408(%eax)
  21      00000400 
  21      0000
  22 0044 C780B001 		movl	$2, 432(%eax)
  22      00000200 
  22      0000
  23 004e C780BC01 		movl	$2, 444(%eax)
  23      00000200 
  23      0000
  24 0058 890424   		movl	%eax, (%esp)
  25 005b C7442404 		movl	$1, 4(%esp)
  25      01000000 
  26 0063 E8000000 		call	__Z16setOperationModeP22engine_configuration_s16operation_mode_e
  26      00
  27 0068 A1000000 		movl	_engineConfiguration, %eax
  27      00
  28 006d 8B150000 		movl	_boardConfiguration, %edx
  28      0000
  29 0073 C780CC01 		movl	$0x42a80000, 460(%eax)
  29      00000000 
  29      A842
  30 007d C7801802 		movl	$0, 536(%eax)
  30      00000000 
  30      0000
  31 0087 C7802002 		movl	$30, 544(%eax)
  31      00001E00 
  31      0000
GAS LISTING /cygdrive/c/Users/pc/AppData/Local/Temp/ccWVOdKN.s 			page 2


  32 0091 C7802402 		movl	$1, 548(%eax)
  32      00000100 
  32      0000
  33 009b C7400C33 		movl	$0x3f933333, 12(%eax)
  33      33933F
  34 00a2 C7400800 		movl	$0x443b8000, 8(%eax)
  34      803B44
  35 00a9 C7824C01 		movl	$57600, 332(%edx)
  35      000000E1 
  35      0000
  36 00b3 C780A401 		movl	$7000, 420(%eax)
  36      0000581B 
  36      0000
  37 00bd C7042403 		movl	$3, (%esp)
  37      000000
  38 00c4 E8000000 		call	__Z12setAlgorithm18engine_load_mode_e
  38      00
  39 00c9 8B150000 		movl	_engineConfiguration, %edx
  39      0000
  40 00cf A1000000 		movl	_boardConfiguration, %eax
  40      00
  41 00d4 C7801003 		movl	$0, 784(%eax)
  41      00000000 
  41      0000
  42 00de 0FB682E4 		movzbl	1508(%edx), %eax
  42      050000
  43 00e5 80A2D805 		andb	$-33, 1496(%edx)
  43      0000DF
  44 00ec 83E0FB   		andl	$-5, %eax
  45 00ef 83C803   		orl	$3, %eax
  46 00f2 8882E405 		movb	%al, 1508(%edx)
  46      0000
  47 00f8 C7042400 		movl	$0x40400000, (%esp)
  47      004040
  48 00ff E8000000 		call	__Z16setConstantDwellf
  48      00
  49 0104 A1000000 		movl	_engineConfiguration, %eax
  49      00
  50 0109 8088D805 		orb	$16, 1496(%eax)
  50      000010
  51 0110 C780F405 		movl	$14, 1524(%eax)
  51      00000E00 
  51      0000
  52 011a C7807006 		movl	$6, 1648(%eax)
  52      00000600 
  52      0000
  53 0124 66C74060 		movw	$600, 96(%eax)
  53      5802
  54 012a C780AC01 		movl	$2, 428(%eax)
  54      00000200 
  54      0000
  55 0134 C7405C00 		movl	$0x40e00000, 92(%eax)
  55      00E040
  56 013b C7406800 		movl	$0x40c00000, 104(%eax)
  56      00C040
  57 0142 C780D001 		movl	$0x3fc28f5c, 464(%eax)
  57      00005C8F 
GAS LISTING /cygdrive/c/Users/pc/AppData/Local/Temp/ccWVOdKN.s 			page 3


  57      C23F
  58 014c C780D401 		movl	$0x40aa8f5c, 468(%eax)
  58      00005C8F 
  58      AA40
  59 0156 C780D801 		movl	$15, 472(%eax)
  59      00000F00 
  59      0000
  60 0160 C7800C02 		movl	$3, 524(%eax)
  60      00000300 
  60      0000
  61 016a A1000000 		movl	_boardConfiguration, %eax
  61      00
  62 016f C7802801 		movl	$5, 296(%eax)
  62      00000500 
  62      0000
  63 0179 C7802C01 		movl	$80, 300(%eax)
  63      00005000 
  63      0000
  64 0183 C7042400 		movl	$0x41c80000, (%esp)
  64      00C841
  65 018a E8000000 		call	__Z19setWholeTimingTablef
  65      00
  66 018f 8B1D0000 		movl	_engineConfiguration, %ebx
  66      0000
  67 0195 A1000000 		movl	_boardConfiguration, %eax
  67      00
  68 019a C783F802 		movl	$80, 760(%ebx)
  68      00005000 
  68      0000
  69 01a4 C783C002 		movl	$1, 704(%ebx)
  69      00000100 
  69      0000
  70 01ae D9050000 		flds	LC11
  70      0000
  71 01b4 C7839002 		movl	$24, 656(%ebx)
  71      00001800 
  71      0000
  72 01be C7839402 		movl	$66, 660(%ebx)
  72      00004200 
  72      0000
  73 01c8 C7839802 		movl	$67, 664(%ebx)
  73      00004300 
  73      0000
  74 01d2 C7839C02 		movl	$68, 668(%ebx)
  74      00004400 
  74      0000
  75 01dc C783A002 		movl	$69, 672(%ebx)
  75      00004500 
  75      0000
  76 01e6 C783A402 		movl	$70, 676(%ebx)
  76      00004600 
  76      0000
  77 01f0 C783F402 		movl	$1, 756(%ebx)
  77      00000100 
  77      0000
  78 01fa C783C402 		movl	$21, 708(%ebx)
  78      00001500 
GAS LISTING /cygdrive/c/Users/pc/AppData/Local/Temp/ccWVOdKN.s 			page 4


  78      0000
  79 0204 C783CC02 		movl	$22, 716(%ebx)
  79      00001600 
  79      0000
  80 020e C783D402 		movl	$23, 724(%ebx)
  80      00001700 
  80      0000
  81 0218 C783C804 		movl	$80, 1224(%ebx)
  81      00005000 
  81      0000
  82 0222 80A08001 		andb	$-7, 384(%eax)
  82      0000F9
  83 0229 C7801C03 		movl	$51, 796(%eax)
  83      00003300 
  83      0000
  84 0233 C7802003 		movl	$1, 800(%eax)
  84      00000100 
  84      0000
  85 023d C7401834 		movl	$52, 24(%eax)
  85      000000
  86 0244 C7002E00 		movl	$46, (%eax)
  86      0000
  87 024a C7400401 		movl	$1, 4(%eax)
  87      000000
  88 0251 C740082C 		movl	$300, 8(%eax)
  88      010000
  89 0258 C7401400 		movl	$0x42480000, 20(%eax)
  89      004842
  90 025f C7804401 		movl	$80, 324(%eax)
  90      00005000 
  90      0000
  91 0269 C780C001 		movl	$0, 448(%eax)
  91      00000000 
  91      0000
  92 0273 8D830001 		leal	256(%ebx), %eax
  92      0000
  93 0279 C7834003 		movl	$200, 832(%ebx)
  93      0000C800 
  93      0000
  94 0283 C783F800 		movl	$2, 248(%ebx)
  94      00000200 
  94      0000
  95 028d 808BD805 		orb	$-126, 1496(%ebx)
  95      000082
  96 0294 D9542418 		fsts	24(%esp)
  97 0298 D9050400 		flds	LC12
  97      0000
  98 029e D9542414 		fsts	20(%esp)
  99 02a2 D9050800 		flds	LC13
  99      0000
 100 02a8 D9542410 		fsts	16(%esp)
 101 02ac D9050C00 		flds	LC14
 101      0000
 102 02b2 D954240C 		fsts	12(%esp)
 103 02b6 D9051000 		flds	LC15
 103      0000
 104 02bc D9542408 		fsts	8(%esp)
GAS LISTING /cygdrive/c/Users/pc/AppData/Local/Temp/ccWVOdKN.s 			page 5


 105 02c0 D9051400 		flds	LC16
 105      0000
 106 02c6 D9542404 		fsts	4(%esp)
 107 02ca D95C2420 		fstps	32(%esp)
 108 02ce D95C2430 		fstps	48(%esp)
 109 02d2 D95C2440 		fstps	64(%esp)
 110 02d6 D95C2450 		fstps	80(%esp)
 111 02da D95C2460 		fstps	96(%esp)
 112 02de 890424   		movl	%eax, (%esp)
 113 02e1 D95C2470 		fstps	112(%esp)
 114 02e5 E8000000 		call	__Z26setThermistorConfigurationP14ThermistorConfffffff
 114      00
 115 02ea A1000000 		movl	_engineConfiguration, %eax
 115      00
 116 02ef D9051800 		flds	LC17
 116      0000
 117 02f5 D9903801 		fsts	312(%eax)
 117      0000
 118 02fb 05200100 		addl	$288, %eax
 118      00
 119 0300 D9442470 		flds	112(%esp)
 120 0304 D95C2418 		fstps	24(%esp)
 121 0308 D9442460 		flds	96(%esp)
 122 030c D95C2414 		fstps	20(%esp)
 123 0310 D9442450 		flds	80(%esp)
 124 0314 D95C2410 		fstps	16(%esp)
 125 0318 D9442440 		flds	64(%esp)
 126 031c D95C240C 		fstps	12(%esp)
 127 0320 D9442430 		flds	48(%esp)
 128 0324 D95C2408 		fstps	8(%esp)
 129 0328 D9442420 		flds	32(%esp)
 130 032c D95C2404 		fstps	4(%esp)
 131 0330 890424   		movl	%eax, (%esp)
 132 0333 D95C2470 		fstps	112(%esp)
 133 0337 E8000000 		call	__Z26setThermistorConfigurationP14ThermistorConfffffff
 133      00
 134 033c A1000000 		movl	_engineConfiguration, %eax
 134      00
 135 0341 D9442470 		flds	112(%esp)
 136 0345 D9981801 		fstps	280(%eax)
 136      0000
 137 034b A1000000 		movl	_boardConfiguration, %eax
 137      00
 138 0350 C7806001 		movl	$49, 352(%eax)
 138      00003100 
 138      0000
 139 035a C7806401 		movl	$50, 356(%eax)
 139      00003200 
 139      0000
 140 0364 C783D803 		movl	$80, 984(%ebx)
 140      00005000 
 140      0000
 141 036e 81C48800 		addl	$136, %esp
 141      0000
 142              		.cfi_def_cfa_offset 8
 143 0374 5B       		popl	%ebx
 144              		.cfi_restore 3
GAS LISTING /cygdrive/c/Users/pc/AppData/Local/Temp/ccWVOdKN.s 			page 6


 145              		.cfi_def_cfa_offset 4
 146 0375 C3       		ret
 147              		.cfi_endproc
 148              	LFE85:
 149 0376 90909090 		.section .rdata,"dr"
 149      90909090 
 149      9090
 150              		.align 4
 151              	LC11:
 152 0000 0080A743 		.long	1135050752
 153              		.align 4
 154              	LC12:
 155 0004 0000A042 		.long	1117782016
 156              		.align 4
 157              	LC13:
 158 0008 00401C45 		.long	1159479296
 159              		.align 4
 160              	LC14:
 161 000c 0000A041 		.long	1101004800
 162              		.align 4
 163              	LC15:
 164 0010 00501146 		.long	1175539712
 165              		.align 4
 166              	LC16:
 167 0014 000020C1 		.long	-1054867456
 168              		.align 4
 169              	LC17:
 170 0018 00800945 		.long	1158250496
 171              		.def	__Z16setOperationModeP22engine_configuration_s16operation_mode_e;	.scl	2;	.type	32;	.endef
 172              		.def	__Z12setAlgorithm18engine_load_mode_e;	.scl	2;	.type	32;	.endef
 173              		.def	__Z16setConstantDwellf;	.scl	2;	.type	32;	.endef
 174              		.def	__Z19setWholeTimingTablef;	.scl	2;	.type	32;	.endef
 175              		.def	__Z26setThermistorConfigurationP14ThermistorConfffffff;	.scl	2;	.type	32;	.endef
GAS LISTING /cygdrive/c/Users/pc/AppData/Local/Temp/ccWVOdKN.s 			page 7

