GAS LISTING /cygdrive/c/Users/pc/AppData/Local/Temp/cc26O7bB.s 			page 1


   1              		.file	"chcond.c"
   2              		.section .rdata,"dr"
   3              	LC0:
   4 0000 22636843 		.ascii "\"chCondInit\"()\0"
   4      6F6E6449 
   4      6E697422 
   4      282900
   5              		.section	.text$chCondInit,"x"
   6              		.p2align 4,,15
   7              		.globl	_chCondInit
   8              		.def	_chCondInit;	.scl	2;	.type	32;	.endef
   9              	_chCondInit:
  10              	LFB7:
  11              		.cfi_startproc
  12 0000 53       		pushl	%ebx
  13              		.cfi_def_cfa_offset 8
  14              		.cfi_offset 3, -8
  15 0001 83EC18   		subl	$24, %esp
  16              		.cfi_def_cfa_offset 32
  17 0004 8B5C2420 		movl	32(%esp), %ebx
  18 0008 85DB     		testl	%ebx, %ebx
  19 000a 740A     		je	L5
  20 000c 895B04   		movl	%ebx, 4(%ebx)
  21 000f 891B     		movl	%ebx, (%ebx)
  22 0011 83C418   		addl	$24, %esp
  23              		.cfi_remember_state
  24              		.cfi_def_cfa_offset 8
  25 0014 5B       		popl	%ebx
  26              		.cfi_restore 3
  27              		.cfi_def_cfa_offset 4
  28 0015 C3       		ret
  29              		.p2align 4,,7
  30              	L5:
  31              		.cfi_restore_state
  32 0016 C7042400 		movl	$LC0, (%esp)
  32      000000
  33 001d E8000000 		call	_chDbgPanic
  33      00
  34 0022 895B04   		movl	%ebx, 4(%ebx)
  35 0025 891B     		movl	%ebx, (%ebx)
  36 0027 83C418   		addl	$24, %esp
  37              		.cfi_def_cfa_offset 8
  38 002a 5B       		popl	%ebx
  39              		.cfi_restore 3
  40              		.cfi_def_cfa_offset 4
  41 002b C3       		ret
  42              		.cfi_endproc
  43              	LFE7:
  44 002c 90909090 		.section .rdata,"dr"
  45              	LC1:
  46 000f 22636843 		.ascii "\"chCondSignal\"()\0"
  46      6F6E6453 
  46      69676E61 
  46      6C222829 
  46      00
  47              		.section	.text$chCondSignal,"x"
  48              		.p2align 4,,15
GAS LISTING /cygdrive/c/Users/pc/AppData/Local/Temp/cc26O7bB.s 			page 2


  49              		.globl	_chCondSignal
  50              		.def	_chCondSignal;	.scl	2;	.type	32;	.endef
  51              	_chCondSignal:
  52              	LFB8:
  53              		.cfi_startproc
  54 0000 53       		pushl	%ebx
  55              		.cfi_def_cfa_offset 8
  56              		.cfi_offset 3, -8
  57 0001 83EC18   		subl	$24, %esp
  58              		.cfi_def_cfa_offset 32
  59 0004 8B5C2420 		movl	32(%esp), %ebx
  60 0008 85DB     		testl	%ebx, %ebx
  61 000a 7434     		je	L10
  62              	L7:
  63              	/APP
  64              	 # 77 "../firmware/chibios/os/kernel/src/chcond.c" 1
  65 000c 90       		nop
  66              	 # 0 "" 2
  67              	/NO_APP
  68 000d E8000000 		call	_dbg_check_lock
  68      00
  69 0012 8B03     		movl	(%ebx), %eax
  70 0014 39D8     		cmpl	%ebx, %eax
  71 0016 7417     		je	L8
  72 0018 8B10     		movl	(%eax), %edx
  73 001a 8913     		movl	%edx, (%ebx)
  74 001c 895A04   		movl	%ebx, 4(%edx)
  75 001f C7442404 		movl	$0, 4(%esp)
  75      00000000 
  76 0027 890424   		movl	%eax, (%esp)
  77 002a E8000000 		call	_chSchWakeupS
  77      00
  78              	L8:
  79 002f E8000000 		call	_dbg_check_unlock
  79      00
  80              	/APP
  81              	 # 80 "../firmware/chibios/os/kernel/src/chcond.c" 1
  82 0034 90       		nop
  83              	 # 0 "" 2
  84              	/NO_APP
  85 0035 83C418   		addl	$24, %esp
  86              		.cfi_remember_state
  87              		.cfi_def_cfa_offset 8
  88 0038 5B       		popl	%ebx
  89              		.cfi_restore 3
  90              		.cfi_def_cfa_offset 4
  91 0039 C3       		ret
  92 003a 8DB60000 		.p2align 4,,7
  92      0000
  93              	L10:
  94              		.cfi_restore_state
  95 0040 C704240F 		movl	$LC1, (%esp)
  95      000000
  96 0047 E8000000 		call	_chDbgPanic
  96      00
  97 004c EBBE     		jmp	L7
  98              		.cfi_endproc
GAS LISTING /cygdrive/c/Users/pc/AppData/Local/Temp/cc26O7bB.s 			page 3


  99              	LFE8:
 100 004e 9090     		.section .rdata,"dr"
 101              	LC2:
 102 0020 22636843 		.ascii "\"chCondSignalI\"()\0"
 102      6F6E6453 
 102      69676E61 
 102      6C492228 
 102      2900
 103              		.section	.text$chCondSignalI,"x"
 104              		.p2align 4,,15
 105              		.globl	_chCondSignalI
 106              		.def	_chCondSignalI;	.scl	2;	.type	32;	.endef
 107              	_chCondSignalI:
 108              	LFB9:
 109              		.cfi_startproc
 110 0000 53       		pushl	%ebx
 111              		.cfi_def_cfa_offset 8
 112              		.cfi_offset 3, -8
 113 0001 83EC18   		subl	$24, %esp
 114              		.cfi_def_cfa_offset 32
 115 0004 8B5C2420 		movl	32(%esp), %ebx
 116 0008 E8000000 		call	_chDbgCheckClassI
 116      00
 117 000d 85DB     		testl	%ebx, %ebx
 118 000f 7421     		je	L15
 119              	L12:
 120 0011 8B03     		movl	(%ebx), %eax
 121 0013 39D8     		cmpl	%ebx, %eax
 122 0015 7416     		je	L11
 123 0017 8B10     		movl	(%eax), %edx
 124 0019 8913     		movl	%edx, (%ebx)
 125 001b 895A04   		movl	%ebx, 4(%edx)
 126 001e 890424   		movl	%eax, (%esp)
 127 0021 E8000000 		call	_chSchReadyI
 127      00
 128 0026 C7402400 		movl	$0, 36(%eax)
 128      000000
 129              	L11:
 130 002d 83C418   		addl	$24, %esp
 131              		.cfi_remember_state
 132              		.cfi_def_cfa_offset 8
 133 0030 5B       		popl	%ebx
 134              		.cfi_restore 3
 135              		.cfi_def_cfa_offset 4
 136 0031 C3       		ret
 137              		.p2align 4,,7
 138              	L15:
 139              		.cfi_restore_state
 140 0032 C7042420 		movl	$LC2, (%esp)
 140      000000
 141 0039 E8000000 		call	_chDbgPanic
 141      00
 142 003e EBD1     		jmp	L12
 143              		.cfi_endproc
 144              	LFE9:
 145              		.section .rdata,"dr"
 146              	LC3:
GAS LISTING /cygdrive/c/Users/pc/AppData/Local/Temp/cc26O7bB.s 			page 4


 147 0032 22636843 		.ascii "\"chCondBroadcastI\"()\0"
 147      6F6E6442 
 147      726F6164 
 147      63617374 
 147      49222829 
 148              		.section	.text$chCondBroadcastI,"x"
 149              		.p2align 4,,15
 150              		.globl	_chCondBroadcastI
 151              		.def	_chCondBroadcastI;	.scl	2;	.type	32;	.endef
 152              	_chCondBroadcastI:
 153              	LFB11:
 154              		.cfi_startproc
 155 0000 53       		pushl	%ebx
 156              		.cfi_def_cfa_offset 8
 157              		.cfi_offset 3, -8
 158 0001 83EC18   		subl	$24, %esp
 159              		.cfi_def_cfa_offset 32
 160 0004 8B5C2420 		movl	32(%esp), %ebx
 161 0008 E8000000 		call	_chDbgCheckClassI
 161      00
 162 000d 85DB     		testl	%ebx, %ebx
 163 000f 7518     		jne	L24
 164 0011 EB21     		jmp	L26
 165              		.p2align 4,,7
 166              	L21:
 167 0013 8B10     		movl	(%eax), %edx
 168 0015 8913     		movl	%edx, (%ebx)
 169 0017 895A04   		movl	%ebx, 4(%edx)
 170 001a 890424   		movl	%eax, (%esp)
 171 001d E8000000 		call	_chSchReadyI
 171      00
 172 0022 C74024FE 		movl	$-2, 36(%eax)
 172      FFFFFF
 173              	L24:
 174 0029 8B03     		movl	(%ebx), %eax
 175 002b 39D8     		cmpl	%ebx, %eax
 176 002d 75E4     		jne	L21
 177 002f 83C418   		addl	$24, %esp
 178              		.cfi_remember_state
 179              		.cfi_def_cfa_offset 8
 180 0032 5B       		popl	%ebx
 181              		.cfi_restore 3
 182              		.cfi_def_cfa_offset 4
 183 0033 C3       		ret
 184              	L26:
 185              		.cfi_restore_state
 186 0034 C7042432 		movl	$LC3, (%esp)
 186      000000
 187 003b E8000000 		call	_chDbgPanic
 187      00
 188 0040 EBE7     		jmp	L24
 189              		.cfi_endproc
 190              	LFE11:
 191 0042 90909090 		.section	.text$chCondBroadcast,"x"
 191      90909090 
 191      90909090 
 191      9090
GAS LISTING /cygdrive/c/Users/pc/AppData/Local/Temp/cc26O7bB.s 			page 5


 192              		.p2align 4,,15
 193              		.globl	_chCondBroadcast
 194              		.def	_chCondBroadcast;	.scl	2;	.type	32;	.endef
 195              	_chCondBroadcast:
 196              	LFB10:
 197              		.cfi_startproc
 198 0000 83EC1C   		subl	$28, %esp
 199              		.cfi_def_cfa_offset 32
 200              	/APP
 201              	 # 112 "../firmware/chibios/os/kernel/src/chcond.c" 1
 202 0003 90       		nop
 203              	 # 0 "" 2
 204              	/NO_APP
 205 0004 E8000000 		call	_dbg_check_lock
 205      00
 206 0009 8B442420 		movl	32(%esp), %eax
 207 000d 890424   		movl	%eax, (%esp)
 208 0010 E8000000 		call	_chCondBroadcastI
 208      00
 209 0015 E8000000 		call	_chSchRescheduleS
 209      00
 210 001a E8000000 		call	_dbg_check_unlock
 210      00
 211              	/APP
 212              	 # 115 "../firmware/chibios/os/kernel/src/chcond.c" 1
 213 001f 90       		nop
 214              	 # 0 "" 2
 215              	/NO_APP
 216 0020 83C41C   		addl	$28, %esp
 217              		.cfi_def_cfa_offset 4
 218              		.p2align 4,,2
 219 0023 C3       		ret
 220              		.cfi_endproc
 221              	LFE10:
 222 0024 90909090 		.section .rdata,"dr"
 222      90909090 
 222      90909090 
 223              	LC4:
 224 0047 22636843 		.ascii "\"chCondWaitS\"()\0"
 224      6F6E6457 
 224      61697453 
 224      22282900 
 225              	LC5:
 226 0057 6368436F 		.ascii "chCondWaitS(), #1\0"
 226      6E645761 
 226      69745328 
 226      292C2023 
 226      3100
 227              		.section	.text$chCondWaitS,"x"
 228              		.p2align 4,,15
 229              		.globl	_chCondWaitS
 230              		.def	_chCondWaitS;	.scl	2;	.type	32;	.endef
 231              	_chCondWaitS:
 232              	LFB13:
 233              		.cfi_startproc
 234 0000 57       		pushl	%edi
 235              		.cfi_def_cfa_offset 8
GAS LISTING /cygdrive/c/Users/pc/AppData/Local/Temp/cc26O7bB.s 			page 6


 236              		.cfi_offset 7, -8
 237 0001 56       		pushl	%esi
 238              		.cfi_def_cfa_offset 12
 239              		.cfi_offset 6, -12
 240 0002 53       		pushl	%ebx
 241              		.cfi_def_cfa_offset 16
 242              		.cfi_offset 3, -16
 243 0003 83EC10   		subl	$16, %esp
 244              		.cfi_def_cfa_offset 32
 245 0006 8B1D1800 		movl	_rlist+24, %ebx
 245      0000
 246 000c 8B742420 		movl	32(%esp), %esi
 247 0010 E8000000 		call	_chDbgCheckClassS
 247      00
 248 0015 85F6     		testl	%esi, %esi
 249 0017 7469     		je	L38
 250              	L30:
 251 0019 8B433C   		movl	60(%ebx), %eax
 252 001c 85C0     		testl	%eax, %eax
 253 001e 7454     		je	L39
 254              	L31:
 255 0020 E8000000 		call	_chMtxUnlockS
 255      00
 256 0025 89F1     		movl	%esi, %ecx
 257 0027 89F2     		movl	%esi, %edx
 258 0029 897324   		movl	%esi, 36(%ebx)
 259 002c 89C7     		movl	%eax, %edi
 260 002e EB08     		jmp	L33
 261              		.p2align 4,,7
 262              	L41:
 263 0030 8B4308   		movl	8(%ebx), %eax
 264 0033 394208   		cmpl	%eax, 8(%edx)
 265 0036 7238     		jb	L40
 266              	L33:
 267 0038 8B12     		movl	(%edx), %edx
 268 003a 39D6     		cmpl	%edx, %esi
 269 003c 75F2     		jne	L41
 270              	L34:
 271 003e 8B5104   		movl	4(%ecx), %edx
 272 0041 890B     		movl	%ecx, (%ebx)
 273 0043 895304   		movl	%edx, 4(%ebx)
 274 0046 891A     		movl	%ebx, (%edx)
 275 0048 895904   		movl	%ebx, 4(%ecx)
 276 004b C7042405 		movl	$5, (%esp)
 276      000000
 277 0052 E8000000 		call	_chSchGoSleepS
 277      00
 278 0057 8B5B24   		movl	36(%ebx), %ebx
 279 005a 893C24   		movl	%edi, (%esp)
 280 005d E8000000 		call	_chMtxLockS
 280      00
 281 0062 83C410   		addl	$16, %esp
 282              		.cfi_remember_state
 283              		.cfi_def_cfa_offset 16
 284 0065 89D8     		movl	%ebx, %eax
 285 0067 5B       		popl	%ebx
 286              		.cfi_restore 3
GAS LISTING /cygdrive/c/Users/pc/AppData/Local/Temp/cc26O7bB.s 			page 7


 287              		.cfi_def_cfa_offset 12
 288 0068 5E       		popl	%esi
 289              		.cfi_restore 6
 290              		.cfi_def_cfa_offset 8
 291 0069 5F       		popl	%edi
 292              		.cfi_restore 7
 293              		.cfi_def_cfa_offset 4
 294 006a C3       		ret
 295 006b 908D7426 		.p2align 4,,7
 295      00
 296              	L40:
 297              		.cfi_restore_state
 298 0070 89D1     		movl	%edx, %ecx
 299 0072 EBCA     		jmp	L34
 300              	L39:
 301 0074 C7042457 		movl	$LC5, (%esp)
 301      000000
 302 007b E8000000 		call	_chDbgPanic
 302      00
 303 0080 EB9E     		jmp	L31
 304              	L38:
 305 0082 C7042447 		movl	$LC4, (%esp)
 305      000000
 306 0089 E8000000 		call	_chDbgPanic
 306      00
 307 008e EB89     		jmp	L30
 308              		.cfi_endproc
 309              	LFE13:
 310              		.section	.text$chCondWait,"x"
 311              		.p2align 4,,15
 312              		.globl	_chCondWait
 313              		.def	_chCondWait;	.scl	2;	.type	32;	.endef
 314              	_chCondWait:
 315              	LFB12:
 316              		.cfi_startproc
 317 0000 53       		pushl	%ebx
 318              		.cfi_def_cfa_offset 8
 319              		.cfi_offset 3, -8
 320 0001 83EC18   		subl	$24, %esp
 321              		.cfi_def_cfa_offset 32
 322              	/APP
 323              	 # 161 "../firmware/chibios/os/kernel/src/chcond.c" 1
 324 0004 90       		nop
 325              	 # 0 "" 2
 326              	/NO_APP
 327 0005 E8000000 		call	_dbg_check_lock
 327      00
 328 000a 8B442420 		movl	32(%esp), %eax
 329 000e 890424   		movl	%eax, (%esp)
 330 0011 E8000000 		call	_chCondWaitS
 330      00
 331 0016 89C3     		movl	%eax, %ebx
 332 0018 E8000000 		call	_dbg_check_unlock
 332      00
 333              	/APP
 334              	 # 163 "../firmware/chibios/os/kernel/src/chcond.c" 1
 335 001d 90       		nop
GAS LISTING /cygdrive/c/Users/pc/AppData/Local/Temp/cc26O7bB.s 			page 8


 336              	 # 0 "" 2
 337              	/NO_APP
 338 001e 83C418   		addl	$24, %esp
 339              		.cfi_def_cfa_offset 8
 340 0021 89D8     		movl	%ebx, %eax
 341 0023 5B       		popl	%ebx
 342              		.cfi_restore 3
 343              		.cfi_def_cfa_offset 4
 344 0024 C3       		ret
 345              		.cfi_endproc
 346              	LFE12:
 347 0025 90909090 		.section .rdata,"dr"
 347      90909090 
 347      909090
 348              	LC6:
 349 0069 22636843 		.ascii "\"chCondWaitTimeoutS\"()\0"
 349      6F6E6457 
 349      61697454 
 349      696D656F 
 349      75745322 
 350              	LC7:
 351 0080 6368436F 		.ascii "chCondWaitTimeoutS(), #1\0"
 351      6E645761 
 351      69745469 
 351      6D656F75 
 351      74532829 
 352 0099 000000   		.section	.text$chCondWaitTimeoutS,"x"
 353              		.p2align 4,,15
 354              		.globl	_chCondWaitTimeoutS
 355              		.def	_chCondWaitTimeoutS;	.scl	2;	.type	32;	.endef
 356              	_chCondWaitTimeoutS:
 357              	LFB15:
 358              		.cfi_startproc
 359 0000 57       		pushl	%edi
 360              		.cfi_def_cfa_offset 8
 361              		.cfi_offset 7, -8
 362 0001 56       		pushl	%esi
 363              		.cfi_def_cfa_offset 12
 364              		.cfi_offset 6, -12
 365 0002 53       		pushl	%ebx
 366              		.cfi_def_cfa_offset 16
 367              		.cfi_offset 3, -16
 368 0003 83EC20   		subl	$32, %esp
 369              		.cfi_def_cfa_offset 48
 370 0006 8B5C2434 		movl	52(%esp), %ebx
 371 000a 8B7C2430 		movl	48(%esp), %edi
 372 000e E8000000 		call	_chDbgCheckClassS
 372      00
 373 0013 85DB     		testl	%ebx, %ebx
 374 0015 7470     		je	L53
 375 0017 85FF     		testl	%edi, %edi
 376 0019 746C     		je	L53
 377              	L45:
 378 001b A1180000 		movl	_rlist+24, %eax
 378      00
 379 0020 8B503C   		movl	60(%eax), %edx
 380 0023 85D2     		testl	%edx, %edx
GAS LISTING /cygdrive/c/Users/pc/AppData/Local/Temp/cc26O7bB.s 			page 9


 381 0025 746E     		je	L59
 382              	L47:
 383 0027 E8000000 		call	_chMtxUnlockS
 383      00
 384 002c 8B0D1800 		movl	_rlist+24, %ecx
 384      0000
 385 0032 89FA     		movl	%edi, %edx
 386 0034 897924   		movl	%edi, 36(%ecx)
 387 0037 89C6     		movl	%eax, %esi
 388 0039 8DB42600 		.p2align 4,,7
 388      000000
 389              	L51:
 390 0040 8B12     		movl	(%edx), %edx
 391 0042 39D7     		cmpl	%edx, %edi
 392 0044 7408     		je	L52
 393 0046 8B4108   		movl	8(%ecx), %eax
 394 0049 394208   		cmpl	%eax, 8(%edx)
 395 004c 73F2     		jae	L51
 396              	L52:
 397 004e 8B4204   		movl	4(%edx), %eax
 398 0051 8911     		movl	%edx, (%ecx)
 399 0053 894104   		movl	%eax, 4(%ecx)
 400 0056 8908     		movl	%ecx, (%eax)
 401 0058 894A04   		movl	%ecx, 4(%edx)
 402 005b 895C2404 		movl	%ebx, 4(%esp)
 403 005f C7042405 		movl	$5, (%esp)
 403      000000
 404 0066 E8000000 		call	_chSchGoSleepTimeoutS
 404      00
 405 006b 83F8FF   		cmpl	$-1, %eax
 406 006e 7410     		je	L50
 407 0070 893424   		movl	%esi, (%esp)
 408 0073 8944241C 		movl	%eax, 28(%esp)
 409 0077 E8000000 		call	_chMtxLockS
 409      00
 410 007c 8B44241C 		movl	28(%esp), %eax
 411              	L50:
 412 0080 83C420   		addl	$32, %esp
 413              		.cfi_remember_state
 414              		.cfi_def_cfa_offset 16
 415 0083 5B       		popl	%ebx
 416              		.cfi_restore 3
 417              		.cfi_def_cfa_offset 12
 418 0084 5E       		popl	%esi
 419              		.cfi_restore 6
 420              		.cfi_def_cfa_offset 8
 421 0085 5F       		popl	%edi
 422              		.cfi_restore 7
 423              		.cfi_def_cfa_offset 4
 424 0086 C3       		ret
 425              		.p2align 4,,7
 426              	L53:
 427              		.cfi_restore_state
 428 0087 C7042469 		movl	$LC6, (%esp)
 428      000000
 429 008e E8000000 		call	_chDbgPanic
 429      00
GAS LISTING /cygdrive/c/Users/pc/AppData/Local/Temp/cc26O7bB.s 			page 10


 430 0093 EB86     		jmp	L45
 431              		.p2align 4,,7
 432              	L59:
 433 0095 C7042480 		movl	$LC7, (%esp)
 433      000000
 434 009c E8000000 		call	_chDbgPanic
 434      00
 435 00a1 EB84     		jmp	L47
 436              		.cfi_endproc
 437              	LFE15:
 438 00a3 90909090 		.section	.text$chCondWaitTimeout,"x"
 438      90909090 
 438      90909090 
 438      90
 439              		.p2align 4,,15
 440              		.globl	_chCondWaitTimeout
 441              		.def	_chCondWaitTimeout;	.scl	2;	.type	32;	.endef
 442              	_chCondWaitTimeout:
 443              	LFB14:
 444              		.cfi_startproc
 445 0000 53       		pushl	%ebx
 446              		.cfi_def_cfa_offset 8
 447              		.cfi_offset 3, -8
 448 0001 83EC18   		subl	$24, %esp
 449              		.cfi_def_cfa_offset 32
 450              	/APP
 451              	 # 236 "../firmware/chibios/os/kernel/src/chcond.c" 1
 452 0004 90       		nop
 453              	 # 0 "" 2
 454              	/NO_APP
 455 0005 E8000000 		call	_dbg_check_lock
 455      00
 456 000a 8B442424 		movl	36(%esp), %eax
 457 000e 89442404 		movl	%eax, 4(%esp)
 458 0012 8B442420 		movl	32(%esp), %eax
 459 0016 890424   		movl	%eax, (%esp)
 460 0019 E8000000 		call	_chCondWaitTimeoutS
 460      00
 461 001e 89C3     		movl	%eax, %ebx
 462 0020 E8000000 		call	_dbg_check_unlock
 462      00
 463              	/APP
 464              	 # 238 "../firmware/chibios/os/kernel/src/chcond.c" 1
 465 0025 90       		nop
 466              	 # 0 "" 2
 467              	/NO_APP
 468 0026 83C418   		addl	$24, %esp
 469              		.cfi_def_cfa_offset 8
 470 0029 89D8     		movl	%ebx, %eax
 471 002b 5B       		popl	%ebx
 472              		.cfi_restore 3
 473              		.cfi_def_cfa_offset 4
 474 002c C3       		ret
 475              		.cfi_endproc
 476              	LFE14:
 477              		.def	_chDbgPanic;	.scl	2;	.type	32;	.endef
 478              		.def	_dbg_check_lock;	.scl	2;	.type	32;	.endef
GAS LISTING /cygdrive/c/Users/pc/AppData/Local/Temp/cc26O7bB.s 			page 11


 479              		.def	_chSchWakeupS;	.scl	2;	.type	32;	.endef
 480              		.def	_dbg_check_unlock;	.scl	2;	.type	32;	.endef
 481              		.def	_chDbgCheckClassI;	.scl	2;	.type	32;	.endef
 482              		.def	_chSchReadyI;	.scl	2;	.type	32;	.endef
 483              		.def	_chSchRescheduleS;	.scl	2;	.type	32;	.endef
 484              		.def	_chDbgCheckClassS;	.scl	2;	.type	32;	.endef
 485              		.def	_chMtxUnlockS;	.scl	2;	.type	32;	.endef
 486              		.def	_chSchGoSleepS;	.scl	2;	.type	32;	.endef
 487              		.def	_chMtxLockS;	.scl	2;	.type	32;	.endef
 488 002d 909090   		.def	_chSchGoSleepTimeoutS;	.scl	2;	.type	32;	.endef
GAS LISTING /cygdrive/c/Users/pc/AppData/Local/Temp/cc26O7bB.s 			page 12


DEFINED SYMBOLS
                            *ABS*:00000000 chcond.c
/cygdrive/c/Users/pc/AppData/Local/Temp/cc26O7bB.s:9      .text$chCondInit:00000000 _chCondInit
/cygdrive/c/Users/pc/AppData/Local/Temp/cc26O7bB.s:51     .text$chCondSignal:00000000 _chCondSignal
/cygdrive/c/Users/pc/AppData/Local/Temp/cc26O7bB.s:107    .text$chCondSignalI:00000000 _chCondSignalI
/cygdrive/c/Users/pc/AppData/Local/Temp/cc26O7bB.s:152    .text$chCondBroadcastI:00000000 _chCondBroadcastI
/cygdrive/c/Users/pc/AppData/Local/Temp/cc26O7bB.s:195    .text$chCondBroadcast:00000000 _chCondBroadcast
/cygdrive/c/Users/pc/AppData/Local/Temp/cc26O7bB.s:231    .text$chCondWaitS:00000000 _chCondWaitS
/cygdrive/c/Users/pc/AppData/Local/Temp/cc26O7bB.s:314    .text$chCondWait:00000000 _chCondWait
/cygdrive/c/Users/pc/AppData/Local/Temp/cc26O7bB.s:356    .text$chCondWaitTimeoutS:00000000 _chCondWaitTimeoutS
/cygdrive/c/Users/pc/AppData/Local/Temp/cc26O7bB.s:442    .text$chCondWaitTimeout:00000000 _chCondWaitTimeout

UNDEFINED SYMBOLS
_rlist
_chDbgPanic
_dbg_check_lock
_chSchWakeupS
_dbg_check_unlock
_chDbgCheckClassI
_chSchReadyI
_chSchRescheduleS
_chDbgCheckClassS
_chMtxUnlockS
_chSchGoSleepS
_chMtxLockS
_chSchGoSleepTimeoutS
