GAS LISTING /cygdrive/c/Users/pc/AppData/Local/Temp/cczew4Tl.s 			page 1


   1              		.file	"chmemcore.c"
   2              		.section	.text$_core_init,"x"
   3              		.p2align 4,,15
   4              		.globl	__core_init
   5              		.def	__core_init;	.scl	2;	.type	32;	.endef
   6              	__core_init:
   7              	LFB7:
   8              		.cfi_startproc
   9 0000 C7050000 		movl	$_buffer.2027, _nextmem
   9      00000000 
   9      0000
  10 000a C7050000 		movl	$_buffer.2027+131072, _endmem
  10      00000000 
  10      0200
  11 0014 C3       		ret
  12              		.cfi_endproc
  13              	LFE7:
  14 0015 90909090 		.section	.text$chCoreAllocI,"x"
  14      90909090 
  14      909090
  15              		.p2align 4,,15
  16              		.globl	_chCoreAllocI
  17              		.def	_chCoreAllocI;	.scl	2;	.type	32;	.endef
  18              	_chCoreAllocI:
  19              	LFB9:
  20              		.cfi_startproc
  21 0000 83EC0C   		subl	$12, %esp
  22              		.cfi_def_cfa_offset 16
  23 0003 E8000000 		call	_chDbgCheckClassI
  23      00
  24 0008 8B542410 		movl	16(%esp), %edx
  25 000c A1000000 		movl	_nextmem, %eax
  25      00
  26 0011 8B0D0000 		movl	_endmem, %ecx
  26      0000
  27 0017 83C20F   		addl	$15, %edx
  28 001a 83E2F0   		andl	$-16, %edx
  29 001d 29C1     		subl	%eax, %ecx
  30 001f 39CA     		cmpl	%ecx, %edx
  31 0021 770D     		ja	L4
  32 0023 01C2     		addl	%eax, %edx
  33 0025 89150000 		movl	%edx, _nextmem
  33      0000
  34 002b 83C40C   		addl	$12, %esp
  35              		.cfi_remember_state
  36              		.cfi_def_cfa_offset 4
  37 002e C3       		ret
  38 002f 90       		.p2align 4,,7
  39              	L4:
  40              		.cfi_restore_state
  41 0030 31C0     		xorl	%eax, %eax
  42 0032 83C40C   		addl	$12, %esp
  43              		.cfi_def_cfa_offset 4
  44 0035 C3       		ret
  45              		.cfi_endproc
  46              	LFE9:
  47 0036 90909090 		.section	.text$chCoreAlloc,"x"
GAS LISTING /cygdrive/c/Users/pc/AppData/Local/Temp/cczew4Tl.s 			page 2


  47      90909090 
  47      9090
  48              		.p2align 4,,15
  49              		.globl	_chCoreAlloc
  50              		.def	_chCoreAlloc;	.scl	2;	.type	32;	.endef
  51              	_chCoreAlloc:
  52              	LFB8:
  53              		.cfi_startproc
  54 0000 53       		pushl	%ebx
  55              		.cfi_def_cfa_offset 8
  56              		.cfi_offset 3, -8
  57 0001 83EC18   		subl	$24, %esp
  58              		.cfi_def_cfa_offset 32
  59              	/APP
  60              	 # 94 "../firmware/chibios/os/kernel/src/chmemcore.c" 1
  61 0004 90       		nop
  62              	 # 0 "" 2
  63              	/NO_APP
  64 0005 E8000000 		call	_dbg_check_lock
  64      00
  65 000a 8B442420 		movl	32(%esp), %eax
  66 000e 890424   		movl	%eax, (%esp)
  67 0011 E8000000 		call	_chCoreAllocI
  67      00
  68 0016 89C3     		movl	%eax, %ebx
  69 0018 E8000000 		call	_dbg_check_unlock
  69      00
  70              	/APP
  71              	 # 96 "../firmware/chibios/os/kernel/src/chmemcore.c" 1
  72 001d 90       		nop
  73              	 # 0 "" 2
  74              	/NO_APP
  75 001e 83C418   		addl	$24, %esp
  76              		.cfi_def_cfa_offset 8
  77 0021 89D8     		movl	%ebx, %eax
  78 0023 5B       		popl	%ebx
  79              		.cfi_restore 3
  80              		.cfi_def_cfa_offset 4
  81 0024 C3       		ret
  82              		.cfi_endproc
  83              	LFE8:
  84 0025 90909090 		.section	.text$chCoreStatus,"x"
  84      90909090 
  84      909090
  85              		.p2align 4,,15
  86              		.globl	_chCoreStatus
  87              		.def	_chCoreStatus;	.scl	2;	.type	32;	.endef
  88              	_chCoreStatus:
  89              	LFB10:
  90              		.cfi_startproc
  91 0000 A1000000 		movl	_endmem, %eax
  91      00
  92 0005 2B050000 		subl	_nextmem, %eax
  92      0000
  93 000b C3       		ret
  94              		.cfi_endproc
  95              	LFE10:
GAS LISTING /cygdrive/c/Users/pc/AppData/Local/Temp/cczew4Tl.s 			page 3


  96 000c 90909090 		.section	.data$nextmem,"w"
  97              		.align 4
  98              	_nextmem:
  99 0000 00000000 		.space 4
 100              		.section	.data$buffer.2027,"w"
 101              		.align 32
 102              	_buffer.2027:
 103 0000 00000000 		.space 131072
 103      00000000 
 103      00000000 
 103      00000000 
 103      00000000 
 104              		.section	.data$endmem,"w"
 105              		.align 4
 106              	_endmem:
 107 0000 00000000 		.space 4
 108              		.def	_chDbgCheckClassI;	.scl	2;	.type	32;	.endef
 109              		.def	_dbg_check_lock;	.scl	2;	.type	32;	.endef
 110              		.def	_dbg_check_unlock;	.scl	2;	.type	32;	.endef
GAS LISTING /cygdrive/c/Users/pc/AppData/Local/Temp/cczew4Tl.s 			page 4

