GAS LISTING /cygdrive/c/Users/pc/AppData/Local/Temp/cc3cTZe8.s 			page 1


   1              		.file	"chqueues.c"
   2              		.section	.text$qwait,"x"
   3              		.p2align 4,,15
   4              		.def	_qwait;	.scl	3;	.type	32;	.endef
   5              	_qwait:
   6              	LFB7:
   7              		.cfi_startproc
   8 0000 85D2     		testl	%edx, %edx
   9 0002 742F     		je	L3
  10 0004 53       		pushl	%ebx
  11              		.cfi_def_cfa_offset 8
  12              		.cfi_offset 3, -8
  13 0005 83EC18   		subl	$24, %esp
  14              		.cfi_def_cfa_offset 32
  15 0008 8B0D1800 		movl	_rlist+24, %ecx
  15      0000
  16 000e 894124   		movl	%eax, 36(%ecx)
  17 0011 8B5804   		movl	4(%eax), %ebx
  18 0014 8901     		movl	%eax, (%ecx)
  19 0016 895904   		movl	%ebx, 4(%ecx)
  20 0019 894804   		movl	%ecx, 4(%eax)
  21 001c 890B     		movl	%ecx, (%ebx)
  22 001e 89542404 		movl	%edx, 4(%esp)
  23 0022 C704240D 		movl	$13, (%esp)
  23      000000
  24 0029 E8000000 		call	_chSchGoSleepTimeoutS
  24      00
  25 002e 83C418   		addl	$24, %esp
  26              		.cfi_def_cfa_offset 8
  27 0031 5B       		popl	%ebx
  28              		.cfi_restore 3
  29              		.cfi_def_cfa_offset 4
  30 0032 C3       		ret
  31              		.p2align 4,,7
  32              	L3:
  33 0033 B8FFFFFF 		movl	$-1, %eax
  33      FF
  34 0038 C3       		ret
  35              		.cfi_endproc
  36              	LFE7:
  37 0039 90909090 		.section	.text$chIQInit,"x"
  37      909090
  38              		.p2align 4,,15
  39              		.globl	_chIQInit
  40              		.def	_chIQInit;	.scl	2;	.type	32;	.endef
  41              	_chIQInit:
  42              	LFB8:
  43              		.cfi_startproc
  44 0000 8B442404 		movl	4(%esp), %eax
  45 0004 8B542408 		movl	8(%esp), %edx
  46 0008 894004   		movl	%eax, 4(%eax)
  47 000b 895014   		movl	%edx, 20(%eax)
  48 000e 895018   		movl	%edx, 24(%eax)
  49 0011 89500C   		movl	%edx, 12(%eax)
  50 0014 0354240C 		addl	12(%esp), %edx
  51 0018 8900     		movl	%eax, (%eax)
  52 001a C7400800 		movl	$0, 8(%eax)
GAS LISTING /cygdrive/c/Users/pc/AppData/Local/Temp/cc3cTZe8.s 			page 2


  52      000000
  53 0021 895010   		movl	%edx, 16(%eax)
  54 0024 8B542410 		movl	16(%esp), %edx
  55 0028 89501C   		movl	%edx, 28(%eax)
  56 002b 8B542414 		movl	20(%esp), %edx
  57 002f 895020   		movl	%edx, 32(%eax)
  58 0032 C3       		ret
  59              		.cfi_endproc
  60              	LFE8:
  61 0033 90909090 		.section	.text$chIQResetI,"x"
  61      90909090 
  61      90909090 
  61      90
  62              		.p2align 4,,15
  63              		.globl	_chIQResetI
  64              		.def	_chIQResetI;	.scl	2;	.type	32;	.endef
  65              	_chIQResetI:
  66              	LFB9:
  67              		.cfi_startproc
  68 0000 53       		pushl	%ebx
  69              		.cfi_def_cfa_offset 8
  70              		.cfi_offset 3, -8
  71 0001 83EC18   		subl	$24, %esp
  72              		.cfi_def_cfa_offset 32
  73 0004 8B5C2420 		movl	32(%esp), %ebx
  74 0008 E8000000 		call	_chDbgCheckClassI
  74      00
  75 000d 8B430C   		movl	12(%ebx), %eax
  76 0010 C7430800 		movl	$0, 8(%ebx)
  76      000000
  77 0017 894314   		movl	%eax, 20(%ebx)
  78 001a 894318   		movl	%eax, 24(%ebx)
  79 001d 8B03     		movl	(%ebx), %eax
  80 001f 39D8     		cmpl	%ebx, %eax
  81 0021 741C     		je	L8
  82              		.p2align 4,,7
  83              	L12:
  84 0023 8B10     		movl	(%eax), %edx
  85 0025 8913     		movl	%edx, (%ebx)
  86 0027 895A04   		movl	%ebx, 4(%edx)
  87 002a 890424   		movl	%eax, (%esp)
  88 002d E8000000 		call	_chSchReadyI
  88      00
  89 0032 C74024FE 		movl	$-2, 36(%eax)
  89      FFFFFF
  90 0039 8B03     		movl	(%ebx), %eax
  91 003b 39D8     		cmpl	%ebx, %eax
  92 003d 75E4     		jne	L12
  93              	L8:
  94 003f 83C418   		addl	$24, %esp
  95              		.cfi_def_cfa_offset 8
  96 0042 5B       		popl	%ebx
  97              		.cfi_restore 3
  98              		.cfi_def_cfa_offset 4
  99 0043 C3       		ret
 100              		.cfi_endproc
 101              	LFE9:
GAS LISTING /cygdrive/c/Users/pc/AppData/Local/Temp/cc3cTZe8.s 			page 3


 102 0044 90909090 		.section	.text$chIQPutI,"x"
 102      90909090 
 102      90909090 
 103              		.p2align 4,,15
 104              		.globl	_chIQPutI
 105              		.def	_chIQPutI;	.scl	2;	.type	32;	.endef
 106              	_chIQPutI:
 107              	LFB10:
 108              		.cfi_startproc
 109 0000 83EC1C   		subl	$28, %esp
 110              		.cfi_def_cfa_offset 32
 111 0003 895C2410 		movl	%ebx, 16(%esp)
 112              		.cfi_offset 3, -16
 113 0007 8B5C2420 		movl	32(%esp), %ebx
 114 000b 897C2418 		movl	%edi, 24(%esp)
 115              		.cfi_offset 7, -8
 116 000f 0FB67C24 		movzbl	36(%esp), %edi
 116      24
 117 0014 89742414 		movl	%esi, 20(%esp)
 118              		.cfi_offset 6, -12
 119 0018 E8000000 		call	_chDbgCheckClassI
 119      00
 120 001d 8B5314   		movl	20(%ebx), %edx
 121 0020 3B5318   		cmpl	24(%ebx), %edx
 122 0023 7453     		je	L25
 123 0025 8B4308   		movl	8(%ebx), %eax
 124              	L18:
 125 0028 83C001   		addl	$1, %eax
 126 002b 894308   		movl	%eax, 8(%ebx)
 127 002e 89F8     		movl	%edi, %eax
 128 0030 8802     		movb	%al, (%edx)
 129 0032 83C201   		addl	$1, %edx
 130 0035 3B5310   		cmpl	16(%ebx), %edx
 131 0038 895314   		movl	%edx, 20(%ebx)
 132 003b 7333     		jae	L19
 133              	L20:
 134 003d 8B13     		movl	(%ebx), %edx
 135 003f 31F6     		xorl	%esi, %esi
 136 0041 39DA     		cmpl	%ebx, %edx
 137 0043 7416     		je	L23
 138 0045 8B02     		movl	(%edx), %eax
 139 0047 8903     		movl	%eax, (%ebx)
 140 0049 895804   		movl	%ebx, 4(%eax)
 141 004c 891424   		movl	%edx, (%esp)
 142 004f E8000000 		call	_chSchReadyI
 142      00
 143 0054 C7402400 		movl	$0, 36(%eax)
 143      000000
 144              	L23:
 145 005b 89F0     		movl	%esi, %eax
 146 005d 8B5C2410 		movl	16(%esp), %ebx
 147 0061 8B742414 		movl	20(%esp), %esi
 148 0065 8B7C2418 		movl	24(%esp), %edi
 149 0069 83C41C   		addl	$28, %esp
 150              		.cfi_remember_state
 151              		.cfi_restore 7
 152              		.cfi_restore 6
GAS LISTING /cygdrive/c/Users/pc/AppData/Local/Temp/cc3cTZe8.s 			page 4


 153              		.cfi_restore 3
 154              		.cfi_def_cfa_offset 4
 155 006c C3       		ret
 156 006d 8D7600   		.p2align 4,,7
 157              	L19:
 158              		.cfi_restore_state
 159 0070 8B430C   		movl	12(%ebx), %eax
 160 0073 894314   		movl	%eax, 20(%ebx)
 161 0076 EBC5     		jmp	L20
 162              		.p2align 4,,7
 163              	L25:
 164 0078 8B4308   		movl	8(%ebx), %eax
 165 007b BEFCFFFF 		movl	$-4, %esi
 165      FF
 166 0080 85C0     		testl	%eax, %eax
 167 0082 75D7     		jne	L23
 168 0084 31C0     		xorl	%eax, %eax
 169 0086 EBA0     		jmp	L18
 170              		.cfi_endproc
 171              	LFE10:
 172 0088 90909090 		.section	.text$chIQGetTimeout,"x"
 172      90909090 
 173              		.p2align 4,,15
 174              		.globl	_chIQGetTimeout
 175              		.def	_chIQGetTimeout;	.scl	2;	.type	32;	.endef
 176              	_chIQGetTimeout:
 177              	LFB11:
 178              		.cfi_startproc
 179 0000 56       		pushl	%esi
 180              		.cfi_def_cfa_offset 8
 181              		.cfi_offset 6, -8
 182 0001 53       		pushl	%ebx
 183              		.cfi_def_cfa_offset 12
 184              		.cfi_offset 3, -12
 185 0002 83EC24   		subl	$36, %esp
 186              		.cfi_def_cfa_offset 48
 187 0005 8B5C2430 		movl	48(%esp), %ebx
 188 0009 8B742434 		movl	52(%esp), %esi
 189              	/APP
 190              	 # 181 "../firmware/chibios/os/kernel/src/chqueues.c" 1
 191 000d 90       		nop
 192              	 # 0 "" 2
 193              	/NO_APP
 194 000e E8000000 		call	_dbg_check_lock
 194      00
 195 0013 8B431C   		movl	28(%ebx), %eax
 196 0016 85C0     		testl	%eax, %eax
 197 0018 7406     		je	L34
 198 001a 891C24   		movl	%ebx, (%esp)
 199 001d FFD0     		call	*%eax
 200 001f 90       		.p2align 4,,7
 201              	L34:
 202 0020 8B4308   		movl	8(%ebx), %eax
 203 0023 85C0     		testl	%eax, %eax
 204 0025 7521     		jne	L38
 205 0027 89F2     		movl	%esi, %edx
 206 0029 89D8     		movl	%ebx, %eax
GAS LISTING /cygdrive/c/Users/pc/AppData/Local/Temp/cc3cTZe8.s 			page 5


 207 002b E8000000 		call	_qwait
 207      00
 208 0030 85C0     		testl	%eax, %eax
 209 0032 79EC     		jns	L34
 210 0034 8944241C 		movl	%eax, 28(%esp)
 211 0038 E8000000 		call	_dbg_check_unlock
 211      00
 212              	/APP
 213              	 # 188 "../firmware/chibios/os/kernel/src/chqueues.c" 1
 214 003d 90       		nop
 215              	 # 0 "" 2
 216              	/NO_APP
 217 003e 8B44241C 		movl	28(%esp), %eax
 218 0042 83C424   		addl	$36, %esp
 219              		.cfi_remember_state
 220              		.cfi_def_cfa_offset 12
 221 0045 5B       		popl	%ebx
 222              		.cfi_restore 3
 223              		.cfi_def_cfa_offset 8
 224 0046 5E       		popl	%esi
 225              		.cfi_restore 6
 226              		.cfi_def_cfa_offset 4
 227 0047 C3       		ret
 228              		.p2align 4,,7
 229              	L38:
 230              		.cfi_restore_state
 231 0048 8B5318   		movl	24(%ebx), %edx
 232 004b 83E801   		subl	$1, %eax
 233 004e 894308   		movl	%eax, 8(%ebx)
 234 0051 0FB632   		movzbl	(%edx), %esi
 235 0054 83C201   		addl	$1, %edx
 236 0057 3B5310   		cmpl	16(%ebx), %edx
 237 005a 895318   		movl	%edx, 24(%ebx)
 238 005d 7206     		jb	L31
 239 005f 8B430C   		movl	12(%ebx), %eax
 240 0062 894318   		movl	%eax, 24(%ebx)
 241              	L31:
 242 0065 E8000000 		call	_dbg_check_unlock
 242      00
 243              	/APP
 244              	 # 198 "../firmware/chibios/os/kernel/src/chqueues.c" 1
 245 006a 90       		nop
 246              	 # 0 "" 2
 247              	/NO_APP
 248 006b 89F2     		movl	%esi, %edx
 249 006d 83C424   		addl	$36, %esp
 250              		.cfi_def_cfa_offset 12
 251 0070 0FB6C2   		movzbl	%dl, %eax
 252 0073 5B       		popl	%ebx
 253              		.cfi_restore 3
 254              		.cfi_def_cfa_offset 8
 255 0074 5E       		popl	%esi
 256              		.cfi_restore 6
 257              		.cfi_def_cfa_offset 4
 258 0075 C3       		ret
 259              		.cfi_endproc
 260              	LFE11:
GAS LISTING /cygdrive/c/Users/pc/AppData/Local/Temp/cc3cTZe8.s 			page 6


 261 0076 90909090 		.section .rdata,"dr"
 261      90909090 
 261      9090
 262              	LC0:
 263 0000 22636849 		.ascii "\"chIQReadTimeout\"()\0"
 263      51526561 
 263      6454696D 
 263      656F7574 
 263      22282900 
 264              		.section	.text$chIQReadTimeout,"x"
 265              		.p2align 4,,15
 266              		.globl	_chIQReadTimeout
 267              		.def	_chIQReadTimeout;	.scl	2;	.type	32;	.endef
 268              	_chIQReadTimeout:
 269              	LFB12:
 270              		.cfi_startproc
 271 0000 55       		pushl	%ebp
 272              		.cfi_def_cfa_offset 8
 273              		.cfi_offset 5, -8
 274 0001 57       		pushl	%edi
 275              		.cfi_def_cfa_offset 12
 276              		.cfi_offset 7, -12
 277 0002 56       		pushl	%esi
 278              		.cfi_def_cfa_offset 16
 279              		.cfi_offset 6, -16
 280 0003 53       		pushl	%ebx
 281              		.cfi_def_cfa_offset 20
 282              		.cfi_offset 3, -20
 283 0004 83EC1C   		subl	$28, %esp
 284              		.cfi_def_cfa_offset 48
 285 0007 8B542438 		movl	56(%esp), %edx
 286 000b 8B5C2430 		movl	48(%esp), %ebx
 287 000f 8B74243C 		movl	60(%esp), %esi
 288 0013 85D2     		testl	%edx, %edx
 289 0015 8B6B1C   		movl	28(%ebx), %ebp
 290 0018 7476     		je	L56
 291              	L40:
 292              	/APP
 293              	 # 233 "../firmware/chibios/os/kernel/src/chqueues.c" 1
 294 001a 90       		nop
 295              	 # 0 "" 2
 296              	/NO_APP
 297 001b E8000000 		call	_dbg_check_lock
 297      00
 298 0020 31FF     		xorl	%edi, %edi
 299              	L46:
 300 0022 85ED     		testl	%ebp, %ebp
 301 0024 740A     		je	L51
 302 0026 891C24   		movl	%ebx, (%esp)
 303 0029 FFD5     		call	*%ebp
 304 002b 908D7426 		.p2align 4,,7
 304      00
 305              	L51:
 306 0030 8B4308   		movl	8(%ebx), %eax
 307 0033 85C0     		testl	%eax, %eax
 308 0035 751D     		jne	L57
 309 0037 89F2     		movl	%esi, %edx
GAS LISTING /cygdrive/c/Users/pc/AppData/Local/Temp/cc3cTZe8.s 			page 7


 310 0039 89D8     		movl	%ebx, %eax
 311 003b E8000000 		call	_qwait
 311      00
 312 0040 85C0     		testl	%eax, %eax
 313 0042 74EC     		je	L51
 314 0044 E8000000 		call	_dbg_check_unlock
 314      00
 315              	/APP
 316              	 # 240 "../firmware/chibios/os/kernel/src/chqueues.c" 1
 317 0049 90       		nop
 318              	 # 0 "" 2
 319              	/NO_APP
 320              	L43:
 321 004a 83C41C   		addl	$28, %esp
 322              		.cfi_remember_state
 323              		.cfi_def_cfa_offset 20
 324 004d 89F8     		movl	%edi, %eax
 325 004f 5B       		popl	%ebx
 326              		.cfi_restore 3
 327              		.cfi_def_cfa_offset 16
 328 0050 5E       		popl	%esi
 329              		.cfi_restore 6
 330              		.cfi_def_cfa_offset 12
 331 0051 5F       		popl	%edi
 332              		.cfi_restore 7
 333              		.cfi_def_cfa_offset 8
 334 0052 5D       		popl	%ebp
 335              		.cfi_restore 5
 336              		.cfi_def_cfa_offset 4
 337 0053 C3       		ret
 338              		.p2align 4,,7
 339              	L57:
 340              		.cfi_restore_state
 341 0054 83E801   		subl	$1, %eax
 342 0057 8B4C2434 		movl	52(%esp), %ecx
 343 005b 894308   		movl	%eax, 8(%ebx)
 344 005e 8B4318   		movl	24(%ebx), %eax
 345 0061 0FB610   		movzbl	(%eax), %edx
 346 0064 83C001   		addl	$1, %eax
 347 0067 881439   		movb	%dl, (%ecx,%edi)
 348 006a 3B4310   		cmpl	16(%ebx), %eax
 349 006d 894318   		movl	%eax, 24(%ebx)
 350 0070 732F     		jae	L58
 351              	L45:
 352 0072 E8000000 		call	_dbg_check_unlock
 352      00
 353              	/APP
 354              	 # 250 "../firmware/chibios/os/kernel/src/chqueues.c" 1
 355 0077 90       		nop
 356              	 # 0 "" 2
 357              	/NO_APP
 358 0078 83C701   		addl	$1, %edi
 359 007b 397C2438 		cmpl	%edi, 56(%esp)
 360 007f 74C9     		je	L43
 361              	/APP
 362              	 # 255 "../firmware/chibios/os/kernel/src/chqueues.c" 1
 363 0081 90       		nop
GAS LISTING /cygdrive/c/Users/pc/AppData/Local/Temp/cc3cTZe8.s 			page 8


 364              	 # 0 "" 2
 365              	/NO_APP
 366 0082 E8000000 		call	_dbg_check_lock
 366      00
 367 0087 EB99     		jmp	L46
 368 0089 8DB42600 		.p2align 4,,7
 368      000000
 369              	L56:
 370 0090 C7042400 		movl	$LC0, (%esp)
 370      000000
 371 0097 E8000000 		call	_chDbgPanic
 371      00
 372 009c E979FFFF 		jmp	L40
 372      FF
 373              		.p2align 4,,7
 374              	L58:
 375 00a1 8B430C   		movl	12(%ebx), %eax
 376 00a4 894318   		movl	%eax, 24(%ebx)
 377 00a7 EBC9     		jmp	L45
 378              		.cfi_endproc
 379              	LFE12:
 380 00a9 90909090 		.section	.text$chOQInit,"x"
 380      909090
 381              		.p2align 4,,15
 382              		.globl	_chOQInit
 383              		.def	_chOQInit;	.scl	2;	.type	32;	.endef
 384              	_chOQInit:
 385              	LFB13:
 386              		.cfi_startproc
 387 0000 8B442404 		movl	4(%esp), %eax
 388 0004 8B542408 		movl	8(%esp), %edx
 389 0008 8B4C240C 		movl	12(%esp), %ecx
 390 000c 894004   		movl	%eax, 4(%eax)
 391 000f 895014   		movl	%edx, 20(%eax)
 392 0012 895018   		movl	%edx, 24(%eax)
 393 0015 89500C   		movl	%edx, 12(%eax)
 394 0018 01CA     		addl	%ecx, %edx
 395 001a 895010   		movl	%edx, 16(%eax)
 396 001d 8B542410 		movl	16(%esp), %edx
 397 0021 8900     		movl	%eax, (%eax)
 398 0023 894808   		movl	%ecx, 8(%eax)
 399 0026 89501C   		movl	%edx, 28(%eax)
 400 0029 8B542414 		movl	20(%esp), %edx
 401 002d 895020   		movl	%edx, 32(%eax)
 402 0030 C3       		ret
 403              		.cfi_endproc
 404              	LFE13:
 405 0031 90909090 		.section	.text$chOQResetI,"x"
 405      90909090 
 405      90909090 
 405      909090
 406              		.p2align 4,,15
 407              		.globl	_chOQResetI
 408              		.def	_chOQResetI;	.scl	2;	.type	32;	.endef
 409              	_chOQResetI:
 410              	LFB14:
 411              		.cfi_startproc
GAS LISTING /cygdrive/c/Users/pc/AppData/Local/Temp/cc3cTZe8.s 			page 9


 412 0000 53       		pushl	%ebx
 413              		.cfi_def_cfa_offset 8
 414              		.cfi_offset 3, -8
 415 0001 83EC18   		subl	$24, %esp
 416              		.cfi_def_cfa_offset 32
 417 0004 8B5C2420 		movl	32(%esp), %ebx
 418 0008 E8000000 		call	_chDbgCheckClassI
 418      00
 419 000d 8B530C   		movl	12(%ebx), %edx
 420 0010 8B4310   		movl	16(%ebx), %eax
 421 0013 895314   		movl	%edx, 20(%ebx)
 422 0016 29D0     		subl	%edx, %eax
 423 0018 894308   		movl	%eax, 8(%ebx)
 424 001b 8B03     		movl	(%ebx), %eax
 425 001d 895318   		movl	%edx, 24(%ebx)
 426 0020 39D8     		cmpl	%ebx, %eax
 427 0022 741C     		je	L60
 428              		.p2align 4,,7
 429              	L64:
 430 0024 8B10     		movl	(%eax), %edx
 431 0026 8913     		movl	%edx, (%ebx)
 432 0028 895A04   		movl	%ebx, 4(%edx)
 433 002b 890424   		movl	%eax, (%esp)
 434 002e E8000000 		call	_chSchReadyI
 434      00
 435 0033 C74024FE 		movl	$-2, 36(%eax)
 435      FFFFFF
 436 003a 8B03     		movl	(%ebx), %eax
 437 003c 39D8     		cmpl	%ebx, %eax
 438 003e 75E4     		jne	L64
 439              	L60:
 440 0040 83C418   		addl	$24, %esp
 441              		.cfi_def_cfa_offset 8
 442 0043 5B       		popl	%ebx
 443              		.cfi_restore 3
 444              		.cfi_def_cfa_offset 4
 445 0044 C3       		ret
 446              		.cfi_endproc
 447              	LFE14:
 448 0045 90909090 		.section	.text$chOQPutTimeout,"x"
 448      90909090 
 448      909090
 449              		.p2align 4,,15
 450              		.globl	_chOQPutTimeout
 451              		.def	_chOQPutTimeout;	.scl	2;	.type	32;	.endef
 452              	_chOQPutTimeout:
 453              	LFB15:
 454              		.cfi_startproc
 455 0000 57       		pushl	%edi
 456              		.cfi_def_cfa_offset 8
 457              		.cfi_offset 7, -8
 458 0001 56       		pushl	%esi
 459              		.cfi_def_cfa_offset 12
 460              		.cfi_offset 6, -12
 461 0002 53       		pushl	%ebx
 462              		.cfi_def_cfa_offset 16
 463              		.cfi_offset 3, -16
GAS LISTING /cygdrive/c/Users/pc/AppData/Local/Temp/cc3cTZe8.s 			page 10


 464 0003 83EC20   		subl	$32, %esp
 465              		.cfi_def_cfa_offset 48
 466 0006 8B5C2430 		movl	48(%esp), %ebx
 467 000a 8B742438 		movl	56(%esp), %esi
 468 000e 0FB67C24 		movzbl	52(%esp), %edi
 468      34
 469              	/APP
 470              	 # 331 "../firmware/chibios/os/kernel/src/chqueues.c" 1
 471 0013 90       		nop
 472              	 # 0 "" 2
 473              	/NO_APP
 474 0014 E8000000 		call	_dbg_check_lock
 474      00
 475 0019 8DB42600 		.p2align 4,,7
 475      000000
 476              	L68:
 477 0020 8B4308   		movl	8(%ebx), %eax
 478 0023 85C0     		testl	%eax, %eax
 479 0025 7529     		jne	L78
 480 0027 89F2     		movl	%esi, %edx
 481 0029 89D8     		movl	%ebx, %eax
 482 002b E8000000 		call	_qwait
 482      00
 483 0030 85C0     		testl	%eax, %eax
 484 0032 79EC     		jns	L68
 485 0034 8944241C 		movl	%eax, 28(%esp)
 486 0038 E8000000 		call	_dbg_check_unlock
 486      00
 487              	/APP
 488              	 # 336 "../firmware/chibios/os/kernel/src/chqueues.c" 1
 489 003d 90       		nop
 490              	 # 0 "" 2
 491              	/NO_APP
 492 003e 8B44241C 		movl	28(%esp), %eax
 493 0042 83C420   		addl	$32, %esp
 494              		.cfi_remember_state
 495              		.cfi_def_cfa_offset 16
 496 0045 5B       		popl	%ebx
 497              		.cfi_restore 3
 498              		.cfi_def_cfa_offset 12
 499 0046 5E       		popl	%esi
 500              		.cfi_restore 6
 501              		.cfi_def_cfa_offset 8
 502 0047 5F       		popl	%edi
 503              		.cfi_restore 7
 504              		.cfi_def_cfa_offset 4
 505 0048 C3       		ret
 506 0049 8DB42600 		.p2align 4,,7
 506      000000
 507              	L78:
 508              		.cfi_restore_state
 509 0050 83E801   		subl	$1, %eax
 510 0053 89FA     		movl	%edi, %edx
 511 0055 894308   		movl	%eax, 8(%ebx)
 512 0058 8B4314   		movl	20(%ebx), %eax
 513 005b 8810     		movb	%dl, (%eax)
 514 005d 83C001   		addl	$1, %eax
GAS LISTING /cygdrive/c/Users/pc/AppData/Local/Temp/cc3cTZe8.s 			page 11


 515 0060 3B4310   		cmpl	16(%ebx), %eax
 516 0063 894314   		movl	%eax, 20(%ebx)
 517 0066 7206     		jb	L71
 518 0068 8B430C   		movl	12(%ebx), %eax
 519 006b 894314   		movl	%eax, 20(%ebx)
 520              	L71:
 521 006e 8B431C   		movl	28(%ebx), %eax
 522 0071 85C0     		testl	%eax, %eax
 523 0073 7405     		je	L72
 524 0075 891C24   		movl	%ebx, (%esp)
 525 0078 FFD0     		call	*%eax
 526              	L72:
 527 007a E8000000 		call	_dbg_check_unlock
 527      00
 528              	/APP
 529              	 # 349 "../firmware/chibios/os/kernel/src/chqueues.c" 1
 530 007f 90       		nop
 531              	 # 0 "" 2
 532              	/NO_APP
 533 0080 83C420   		addl	$32, %esp
 534              		.cfi_def_cfa_offset 16
 535 0083 31C0     		xorl	%eax, %eax
 536 0085 5B       		popl	%ebx
 537              		.cfi_restore 3
 538              		.cfi_def_cfa_offset 12
 539 0086 5E       		popl	%esi
 540              		.cfi_restore 6
 541              		.cfi_def_cfa_offset 8
 542 0087 5F       		popl	%edi
 543              		.cfi_restore 7
 544              		.cfi_def_cfa_offset 4
 545 0088 C3       		ret
 546              		.cfi_endproc
 547              	LFE15:
 548 0089 90909090 		.section	.text$chOQGetI,"x"
 548      909090
 549              		.p2align 4,,15
 550              		.globl	_chOQGetI
 551              		.def	_chOQGetI;	.scl	2;	.type	32;	.endef
 552              	_chOQGetI:
 553              	LFB16:
 554              		.cfi_startproc
 555 0000 56       		pushl	%esi
 556              		.cfi_def_cfa_offset 8
 557              		.cfi_offset 6, -8
 558 0001 53       		pushl	%ebx
 559              		.cfi_def_cfa_offset 12
 560              		.cfi_offset 3, -12
 561 0002 83EC14   		subl	$20, %esp
 562              		.cfi_def_cfa_offset 32
 563 0005 8B5C2420 		movl	32(%esp), %ebx
 564 0009 E8000000 		call	_chDbgCheckClassI
 564      00
 565 000e 8B5318   		movl	24(%ebx), %edx
 566 0011 395314   		cmpl	%edx, 20(%ebx)
 567 0014 744A     		je	L89
 568 0016 8B4308   		movl	8(%ebx), %eax
GAS LISTING /cygdrive/c/Users/pc/AppData/Local/Temp/cc3cTZe8.s 			page 12


 569              	L82:
 570 0019 83C001   		addl	$1, %eax
 571 001c 894308   		movl	%eax, 8(%ebx)
 572 001f 0FB632   		movzbl	(%edx), %esi
 573 0022 83C201   		addl	$1, %edx
 574 0025 3B5310   		cmpl	16(%ebx), %edx
 575 0028 895318   		movl	%edx, 24(%ebx)
 576 002b 7327     		jae	L84
 577              	L85:
 578 002d 8B13     		movl	(%ebx), %edx
 579 002f 39DA     		cmpl	%ebx, %edx
 580 0031 7416     		je	L83
 581 0033 8B0A     		movl	(%edx), %ecx
 582 0035 890B     		movl	%ecx, (%ebx)
 583 0037 895904   		movl	%ebx, 4(%ecx)
 584 003a 891424   		movl	%edx, (%esp)
 585 003d E8000000 		call	_chSchReadyI
 585      00
 586 0042 C7402400 		movl	$0, 36(%eax)
 586      000000
 587              	L83:
 588 0049 89F2     		movl	%esi, %edx
 589 004b 0FB6C2   		movzbl	%dl, %eax
 590              	L87:
 591 004e 83C414   		addl	$20, %esp
 592              		.cfi_remember_state
 593              		.cfi_def_cfa_offset 12
 594 0051 5B       		popl	%ebx
 595              		.cfi_restore 3
 596              		.cfi_def_cfa_offset 8
 597 0052 5E       		popl	%esi
 598              		.cfi_restore 6
 599              		.cfi_def_cfa_offset 4
 600 0053 C3       		ret
 601              		.p2align 4,,7
 602              	L84:
 603              		.cfi_restore_state
 604 0054 8B430C   		movl	12(%ebx), %eax
 605 0057 894318   		movl	%eax, 24(%ebx)
 606 005a EBD1     		jmp	L85
 607 005c 8D742600 		.p2align 4,,7
 608              	L89:
 609 0060 8B4B08   		movl	8(%ebx), %ecx
 610 0063 B8FDFFFF 		movl	$-3, %eax
 610      FF
 611 0068 85C9     		testl	%ecx, %ecx
 612 006a 75E2     		jne	L87
 613 006c 31C0     		xorl	%eax, %eax
 614 006e EBA9     		jmp	L82
 615              		.cfi_endproc
 616              	LFE16:
 617              		.section .rdata,"dr"
 618              	LC1:
 619 0014 2263684F 		.ascii "\"chOQWriteTimeout\"()\0"
 619      51577269 
 619      74655469 
 619      6D656F75 
GAS LISTING /cygdrive/c/Users/pc/AppData/Local/Temp/cc3cTZe8.s 			page 13


 619      74222829 
 620 0029 000000   		.section	.text$chOQWriteTimeout,"x"
 621              		.p2align 4,,15
 622              		.globl	_chOQWriteTimeout
 623              		.def	_chOQWriteTimeout;	.scl	2;	.type	32;	.endef
 624              	_chOQWriteTimeout:
 625              	LFB17:
 626              		.cfi_startproc
 627 0000 55       		pushl	%ebp
 628              		.cfi_def_cfa_offset 8
 629              		.cfi_offset 5, -8
 630 0001 57       		pushl	%edi
 631              		.cfi_def_cfa_offset 12
 632              		.cfi_offset 7, -12
 633 0002 56       		pushl	%esi
 634              		.cfi_def_cfa_offset 16
 635              		.cfi_offset 6, -16
 636 0003 53       		pushl	%ebx
 637              		.cfi_def_cfa_offset 20
 638              		.cfi_offset 3, -20
 639 0004 83EC1C   		subl	$28, %esp
 640              		.cfi_def_cfa_offset 48
 641 0007 8B7C2438 		movl	56(%esp), %edi
 642 000b 8B5C2430 		movl	48(%esp), %ebx
 643 000f 8B742434 		movl	52(%esp), %esi
 644 0013 85FF     		testl	%edi, %edi
 645 0015 8B6B1C   		movl	28(%ebx), %ebp
 646 0018 7476     		je	L112
 647              	L91:
 648              	/APP
 649              	 # 413 "../firmware/chibios/os/kernel/src/chqueues.c" 1
 650 001a 90       		nop
 651              	 # 0 "" 2
 652              	/NO_APP
 653 001b E8000000 		call	_dbg_check_lock
 653      00
 654 0020 31FF     		xorl	%edi, %edi
 655              		.p2align 4,,7
 656              	L109:
 657 0022 8B4308   		movl	8(%ebx), %eax
 658 0025 85C0     		testl	%eax, %eax
 659 0027 7448     		je	L95
 660              	L113:
 661 0029 83E801   		subl	$1, %eax
 662 002c 894308   		movl	%eax, 8(%ebx)
 663 002f 8B4314   		movl	20(%ebx), %eax
 664 0032 0FB616   		movzbl	(%esi), %edx
 665 0035 83C601   		addl	$1, %esi
 666 0038 8810     		movb	%dl, (%eax)
 667 003a 83C001   		addl	$1, %eax
 668 003d 3B4310   		cmpl	16(%ebx), %eax
 669 0040 894314   		movl	%eax, 20(%ebx)
 670 0043 7206     		jb	L96
 671 0045 8B430C   		movl	12(%ebx), %eax
 672 0048 894314   		movl	%eax, 20(%ebx)
 673              	L96:
 674 004b 85ED     		testl	%ebp, %ebp
GAS LISTING /cygdrive/c/Users/pc/AppData/Local/Temp/cc3cTZe8.s 			page 14


 675 004d 7405     		je	L97
 676 004f 891C24   		movl	%ebx, (%esp)
 677 0052 FFD5     		call	*%ebp
 678              	L97:
 679 0054 E8000000 		call	_dbg_check_unlock
 679      00
 680              	/APP
 681              	 # 429 "../firmware/chibios/os/kernel/src/chqueues.c" 1
 682 0059 90       		nop
 683              	 # 0 "" 2
 684              	/NO_APP
 685 005a 83C701   		addl	$1, %edi
 686 005d 836C2438 		subl	$1, 56(%esp)
 686      01
 687 0062 7422     		je	L94
 688              	/APP
 689              	 # 433 "../firmware/chibios/os/kernel/src/chqueues.c" 1
 690 0064 90       		nop
 691              	 # 0 "" 2
 692              	/NO_APP
 693 0065 E8000000 		call	_dbg_check_lock
 693      00
 694 006a 8B4308   		movl	8(%ebx), %eax
 695 006d 85C0     		testl	%eax, %eax
 696 006f 75B8     		jne	L113
 697              	L95:
 698 0071 8B54243C 		movl	60(%esp), %edx
 699 0075 89D8     		movl	%ebx, %eax
 700 0077 E8000000 		call	_qwait
 700      00
 701 007c 85C0     		testl	%eax, %eax
 702 007e 74A2     		je	L109
 703 0080 E8000000 		call	_dbg_check_unlock
 703      00
 704              	/APP
 705              	 # 417 "../firmware/chibios/os/kernel/src/chqueues.c" 1
 706 0085 90       		nop
 707              	 # 0 "" 2
 708              	/NO_APP
 709              	L94:
 710 0086 83C41C   		addl	$28, %esp
 711              		.cfi_remember_state
 712              		.cfi_def_cfa_offset 20
 713 0089 89F8     		movl	%edi, %eax
 714 008b 5B       		popl	%ebx
 715              		.cfi_restore 3
 716              		.cfi_def_cfa_offset 16
 717 008c 5E       		popl	%esi
 718              		.cfi_restore 6
 719              		.cfi_def_cfa_offset 12
 720 008d 5F       		popl	%edi
 721              		.cfi_restore 7
 722              		.cfi_def_cfa_offset 8
 723 008e 5D       		popl	%ebp
 724              		.cfi_restore 5
 725              		.cfi_def_cfa_offset 4
 726 008f C3       		ret
GAS LISTING /cygdrive/c/Users/pc/AppData/Local/Temp/cc3cTZe8.s 			page 15


 727              		.p2align 4,,7
 728              	L112:
 729              		.cfi_restore_state
 730 0090 C7042414 		movl	$LC1, (%esp)
 730      000000
 731 0097 E8000000 		call	_chDbgPanic
 731      00
 732 009c E979FFFF 		jmp	L91
 732      FF
 733              		.cfi_endproc
 734              	LFE17:
 735              		.def	_chSchGoSleepTimeoutS;	.scl	2;	.type	32;	.endef
 736              		.def	_chDbgCheckClassI;	.scl	2;	.type	32;	.endef
 737              		.def	_chSchReadyI;	.scl	2;	.type	32;	.endef
 738              		.def	_dbg_check_lock;	.scl	2;	.type	32;	.endef
 739              		.def	_dbg_check_unlock;	.scl	2;	.type	32;	.endef
 740 00a1 90909090 		.def	_chDbgPanic;	.scl	2;	.type	32;	.endef
 740      90909090 
 740      90909090 
 740      909090
GAS LISTING /cygdrive/c/Users/pc/AppData/Local/Temp/cc3cTZe8.s 			page 16


DEFINED SYMBOLS
                            *ABS*:00000000 chqueues.c
/cygdrive/c/Users/pc/AppData/Local/Temp/cc3cTZe8.s:5      .text$qwait:00000000 _qwait
/cygdrive/c/Users/pc/AppData/Local/Temp/cc3cTZe8.s:41     .text$chIQInit:00000000 _chIQInit
/cygdrive/c/Users/pc/AppData/Local/Temp/cc3cTZe8.s:65     .text$chIQResetI:00000000 _chIQResetI
/cygdrive/c/Users/pc/AppData/Local/Temp/cc3cTZe8.s:106    .text$chIQPutI:00000000 _chIQPutI
/cygdrive/c/Users/pc/AppData/Local/Temp/cc3cTZe8.s:176    .text$chIQGetTimeout:00000000 _chIQGetTimeout
/cygdrive/c/Users/pc/AppData/Local/Temp/cc3cTZe8.s:268    .text$chIQReadTimeout:00000000 _chIQReadTimeout
/cygdrive/c/Users/pc/AppData/Local/Temp/cc3cTZe8.s:384    .text$chOQInit:00000000 _chOQInit
/cygdrive/c/Users/pc/AppData/Local/Temp/cc3cTZe8.s:409    .text$chOQResetI:00000000 _chOQResetI
/cygdrive/c/Users/pc/AppData/Local/Temp/cc3cTZe8.s:452    .text$chOQPutTimeout:00000000 _chOQPutTimeout
/cygdrive/c/Users/pc/AppData/Local/Temp/cc3cTZe8.s:552    .text$chOQGetI:00000000 _chOQGetI
/cygdrive/c/Users/pc/AppData/Local/Temp/cc3cTZe8.s:624    .text$chOQWriteTimeout:00000000 _chOQWriteTimeout

UNDEFINED SYMBOLS
_rlist
_chSchGoSleepTimeoutS
_chDbgCheckClassI
_chSchReadyI
_dbg_check_lock
_dbg_check_unlock
_chDbgPanic
