GAS LISTING /cygdrive/c/Users/pc/AppData/Local/Temp/cctM659Z.s 			page 1


   1              		.file	"chschd.c"
   2              		.section	.text$_scheduler_init,"x"
   3              		.p2align 4,,15
   4              		.globl	__scheduler_init
   5              		.def	__scheduler_init;	.scl	2;	.type	32;	.endef
   6              	__scheduler_init:
   7              	LFB7:
   8              		.cfi_startproc
   9 0000 C7050400 		movl	$_rlist, _rlist+4
   9      00000000 
   9      0000
  10 000a C7050000 		movl	$_rlist, _rlist
  10      00000000 
  10      0000
  11 0014 C7050800 		movl	$0, _rlist+8
  11      00000000 
  11      0000
  12 001e C7051400 		movl	$_rlist, _rlist+20
  12      00000000 
  12      0000
  13 0028 C7051000 		movl	$_rlist, _rlist+16
  13      00000000 
  13      0000
  14 0032 C3       		ret
  15              		.cfi_endproc
  16              	LFE7:
  17 0033 90909090 		.section .rdata,"dr"
  17      90909090 
  17      90909090 
  17      90
  18              	LC0:
  19 0000 63685363 		.ascii "chSchReadyI(), #1\0"
  19      68526561 
  19      64794928 
  19      292C2023 
  19      3100
  20 0012 0000     		.section	.text$chSchReadyI,"x"
  21              		.p2align 4,,15
  22              		.globl	_chSchReadyI
  23              		.def	_chSchReadyI;	.scl	2;	.type	32;	.endef
  24              	_chSchReadyI:
  25              	LFB8:
  26              		.cfi_startproc
  27 0000 53       		pushl	%ebx
  28              		.cfi_def_cfa_offset 8
  29              		.cfi_offset 3, -8
  30 0001 83EC18   		subl	$24, %esp
  31              		.cfi_def_cfa_offset 32
  32 0004 8B5C2420 		movl	32(%esp), %ebx
  33 0008 E8000000 		call	_chDbgCheckClassI
  33      00
  34 000d 0FB6431C 		movzbl	28(%ebx), %eax
  35 0011 3C0E     		cmpb	$14, %al
  36 0013 742B     		je	L6
  37 0015 84C0     		testb	%al, %al
  38 0017 7427     		je	L6
  39              	L3:
GAS LISTING /cygdrive/c/Users/pc/AppData/Local/Temp/cctM659Z.s 			page 2


  40 0019 8B4B08   		movl	8(%ebx), %ecx
  41 001c BA000000 		movl	$_rlist, %edx
  41      00
  42 0021 C6431C00 		movb	$0, 28(%ebx)
  43              		.p2align 4,,7
  44              	L5:
  45 0025 8B12     		movl	(%edx), %edx
  46 0027 394A08   		cmpl	%ecx, 8(%edx)
  47 002a 73F9     		jae	L5
  48 002c 8B4204   		movl	4(%edx), %eax
  49 002f 8913     		movl	%edx, (%ebx)
  50 0031 894304   		movl	%eax, 4(%ebx)
  51 0034 8918     		movl	%ebx, (%eax)
  52 0036 89D8     		movl	%ebx, %eax
  53 0038 895A04   		movl	%ebx, 4(%edx)
  54 003b 83C418   		addl	$24, %esp
  55              		.cfi_remember_state
  56              		.cfi_def_cfa_offset 8
  57 003e 5B       		popl	%ebx
  58              		.cfi_restore 3
  59              		.cfi_def_cfa_offset 4
  60 003f C3       		ret
  61              		.p2align 4,,7
  62              	L6:
  63              		.cfi_restore_state
  64 0040 C7042400 		movl	$LC0, (%esp)
  64      000000
  65 0047 E8000000 		call	_chDbgPanic
  65      00
  66 004c EBCB     		jmp	L3
  67              		.cfi_endproc
  68              	LFE8:
  69 004e 9090     		.section	.text$wakeup,"x"
  70              		.p2align 4,,15
  71              		.def	_wakeup;	.scl	3;	.type	32;	.endef
  72              	_wakeup:
  73              	LFB10:
  74              		.cfi_startproc
  75 0000 53       		pushl	%ebx
  76              		.cfi_def_cfa_offset 8
  77              		.cfi_offset 3, -8
  78 0001 83EC18   		subl	$24, %esp
  79              		.cfi_def_cfa_offset 32
  80 0004 8B5C2420 		movl	32(%esp), %ebx
  81 0008 E8000000 		call	_dbg_check_lock_from_isr
  81      00
  82 000d 0FB6431C 		movzbl	28(%ebx), %eax
  83 0011 3C03     		cmpb	$3, %al
  84 0013 743B     		je	L16
  85 0015 7629     		jbe	L28
  86 0017 3C05     		cmpb	$5, %al
  87              		.p2align 4,,3
  88 0019 743C     		je	L17
  89 001b 3C0D     		cmpb	$13, %al
  90 001d 8D7600   		.p2align 4,,7
  91 0020 7435     		je	L17
  92              	L14:
GAS LISTING /cygdrive/c/Users/pc/AppData/Local/Temp/cctM659Z.s 			page 3


  93 0022 C74324FF 		movl	$-1, 36(%ebx)
  93      FFFFFF
  94 0029 891C24   		movl	%ebx, (%esp)
  95 002c E8000000 		call	_chSchReadyI
  95      00
  96              	L26:
  97 0031 83C418   		addl	$24, %esp
  98              		.cfi_remember_state
  99              		.cfi_def_cfa_offset 8
 100 0034 5B       		popl	%ebx
 101              		.cfi_restore 3
 102              		.cfi_def_cfa_offset 4
 103 0035 E9000000 		jmp	_dbg_check_unlock_from_isr
 103      00
 104 003a 8DB60000 		.p2align 4,,7
 104      0000
 105              	L28:
 106              		.cfi_restore_state
 107 0040 84C0     		testb	%al, %al
 108 0042 75DE     		jne	L14
 109 0044 83C418   		addl	$24, %esp
 110              		.cfi_remember_state
 111              		.cfi_def_cfa_offset 8
 112 0047 5B       		popl	%ebx
 113              		.cfi_restore 3
 114              		.cfi_def_cfa_offset 4
 115 0048 E9000000 		jmp	_dbg_check_unlock_from_isr
 115      00
 116 004d 8D7600   		.p2align 4,,7
 117              	L16:
 118              		.cfi_restore_state
 119 0050 8B4324   		movl	36(%ebx), %eax
 120 0053 83400801 		addl	$1, 8(%eax)
 121              	L17:
 122 0057 8B4304   		movl	4(%ebx), %eax
 123 005a 8B13     		movl	(%ebx), %edx
 124 005c C74324FF 		movl	$-1, 36(%ebx)
 124      FFFFFF
 125 0063 8910     		movl	%edx, (%eax)
 126 0065 8B13     		movl	(%ebx), %edx
 127 0067 894204   		movl	%eax, 4(%edx)
 128 006a 891C24   		movl	%ebx, (%esp)
 129 006d E8000000 		call	_chSchReadyI
 129      00
 130 0072 EBBD     		jmp	L26
 131              		.cfi_endproc
 132              	LFE10:
 133 0074 90909090 		.section	.text$chSchGoSleepS,"x"
 133      90909090 
 133      90909090 
 134              		.p2align 4,,15
 135              		.globl	_chSchGoSleepS
 136              		.def	_chSchGoSleepS;	.scl	2;	.type	32;	.endef
 137              	_chSchGoSleepS:
 138              	LFB9:
 139              		.cfi_startproc
 140 0000 53       		pushl	%ebx
GAS LISTING /cygdrive/c/Users/pc/AppData/Local/Temp/cctM659Z.s 			page 4


 141              		.cfi_def_cfa_offset 8
 142              		.cfi_offset 3, -8
 143 0001 83EC08   		subl	$8, %esp
 144              		.cfi_def_cfa_offset 16
 145 0004 8B5C2410 		movl	16(%esp), %ebx
 146 0008 E8000000 		call	_chDbgCheckClassS
 146      00
 147 000d 8B0D0000 		movl	_rlist, %ecx
 147      0000
 148 0013 8B151800 		movl	_rlist+24, %edx
 148      0000
 149 0019 8B01     		movl	(%ecx), %eax
 150 001b 885A1C   		movb	%bl, 28(%edx)
 151 001e C6421F14 		movb	$20, 31(%edx)
 152 0022 C6411C01 		movb	$1, 28(%ecx)
 153 0026 C7400400 		movl	$_rlist, 4(%eax)
 153      000000
 154 002d A3000000 		movl	%eax, _rlist
 154      00
 155 0032 890D1800 		movl	%ecx, _rlist+24
 155      0000
 156 0038 83C408   		addl	$8, %esp
 157              		.cfi_def_cfa_offset 8
 158 003b 5B       		popl	%ebx
 159              		.cfi_restore 3
 160              		.cfi_def_cfa_offset 4
 161 003c E9000000 		jmp	@port_switch@8
 161      00
 162              		.cfi_endproc
 163              	LFE9:
 164 0041 90909090 		.section	.text$chSchGoSleepTimeoutS,"x"
 164      90909090 
 164      90909090 
 164      909090
 165              		.p2align 4,,15
 166              		.globl	_chSchGoSleepTimeoutS
 167              		.def	_chSchGoSleepTimeoutS;	.scl	2;	.type	32;	.endef
 168              	_chSchGoSleepTimeoutS:
 169              	LFB11:
 170              		.cfi_startproc
 171 0000 56       		pushl	%esi
 172              		.cfi_def_cfa_offset 8
 173              		.cfi_offset 6, -8
 174 0001 53       		pushl	%ebx
 175              		.cfi_def_cfa_offset 12
 176              		.cfi_offset 3, -12
 177 0002 83EC34   		subl	$52, %esp
 178              		.cfi_def_cfa_offset 64
 179 0005 8B5C2444 		movl	68(%esp), %ebx
 180 0009 0FB67424 		movzbl	64(%esp), %esi
 180      40
 181 000e E8000000 		call	_chDbgCheckClassS
 181      00
 182 0013 83FBFF   		cmpl	$-1, %ebx
 183 0016 744D     		je	L32
 184 0018 A1180000 		movl	_rlist+24, %eax
 184      00
GAS LISTING /cygdrive/c/Users/pc/AppData/Local/Temp/cctM659Z.s 			page 5


 185 001d 81E6FF00 		andl	$255, %esi
 185      0000
 186 0023 895C2404 		movl	%ebx, 4(%esp)
 187 0027 8D5C241C 		leal	28(%esp), %ebx
 188 002b C7442408 		movl	$_wakeup, 8(%esp)
 188      00000000 
 189 0033 891C24   		movl	%ebx, (%esp)
 190 0036 8944240C 		movl	%eax, 12(%esp)
 191 003a E8000000 		call	_chVTSetI
 191      00
 192 003f 893424   		movl	%esi, (%esp)
 193 0042 E8000000 		call	_chSchGoSleepS
 193      00
 194 0047 8B442428 		movl	40(%esp), %eax
 195 004b 85C0     		testl	%eax, %eax
 196 004d 7408     		je	L34
 197 004f 891C24   		movl	%ebx, (%esp)
 198 0052 E8000000 		call	_chVTResetI
 198      00
 199              	L34:
 200 0057 A1180000 		movl	_rlist+24, %eax
 200      00
 201 005c 8B4024   		movl	36(%eax), %eax
 202 005f 83C434   		addl	$52, %esp
 203              		.cfi_remember_state
 204              		.cfi_def_cfa_offset 12
 205 0062 5B       		popl	%ebx
 206              		.cfi_restore 3
 207              		.cfi_def_cfa_offset 8
 208 0063 5E       		popl	%esi
 209              		.cfi_restore 6
 210              		.cfi_def_cfa_offset 4
 211 0064 C3       		ret
 212              		.p2align 4,,7
 213              	L32:
 214              		.cfi_restore_state
 215 0065 81E6FF00 		andl	$255, %esi
 215      0000
 216 006b 893424   		movl	%esi, (%esp)
 217 006e E8000000 		call	_chSchGoSleepS
 217      00
 218 0073 A1180000 		movl	_rlist+24, %eax
 218      00
 219 0078 8B4024   		movl	36(%eax), %eax
 220 007b 83C434   		addl	$52, %esp
 221              		.cfi_def_cfa_offset 12
 222 007e 5B       		popl	%ebx
 223              		.cfi_restore 3
 224              		.cfi_def_cfa_offset 8
 225 007f 5E       		popl	%esi
 226              		.cfi_restore 6
 227              		.cfi_def_cfa_offset 4
 228 0080 C3       		ret
 229              		.cfi_endproc
 230              	LFE11:
 231 0081 90909090 		.section	.text$chSchWakeupS,"x"
 231      90909090 
GAS LISTING /cygdrive/c/Users/pc/AppData/Local/Temp/cctM659Z.s 			page 6


 231      90909090 
 231      909090
 232              		.p2align 4,,15
 233              		.globl	_chSchWakeupS
 234              		.def	_chSchWakeupS;	.scl	2;	.type	32;	.endef
 235              	_chSchWakeupS:
 236              	LFB12:
 237              		.cfi_startproc
 238 0000 83EC1C   		subl	$28, %esp
 239              		.cfi_def_cfa_offset 32
 240 0003 895C2414 		movl	%ebx, 20(%esp)
 241              		.cfi_offset 3, -12
 242 0007 8B5C2420 		movl	32(%esp), %ebx
 243 000b 89742418 		movl	%esi, 24(%esp)
 244              		.cfi_offset 6, -8
 245 000f 8B742424 		movl	36(%esp), %esi
 246 0013 E8000000 		call	_chDbgCheckClassS
 246      00
 247 0018 A1180000 		movl	_rlist+24, %eax
 247      00
 248 001d 897324   		movl	%esi, 36(%ebx)
 249 0020 8B5008   		movl	8(%eax), %edx
 250 0023 395308   		cmpl	%edx, 8(%ebx)
 251 0026 7628     		jbe	L39
 252 0028 890424   		movl	%eax, (%esp)
 253 002b E8000000 		call	_chSchReadyI
 253      00
 254 0030 89D9     		movl	%ebx, %ecx
 255 0032 C6431C01 		movb	$1, 28(%ebx)
 256 0036 8B742418 		movl	24(%esp), %esi
 257 003a 891D1800 		movl	%ebx, _rlist+24
 257      0000
 258 0040 8B5C2414 		movl	20(%esp), %ebx
 259 0044 83C41C   		addl	$28, %esp
 260              		.cfi_remember_state
 261              		.cfi_restore 6
 262              		.cfi_restore 3
 263              		.cfi_def_cfa_offset 4
 264 0047 89C2     		movl	%eax, %edx
 265 0049 E9000000 		jmp	@port_switch@8
 265      00
 266 004e 6690     		.p2align 4,,7
 267              	L39:
 268              		.cfi_restore_state
 269 0050 895C2420 		movl	%ebx, 32(%esp)
 270 0054 8B742418 		movl	24(%esp), %esi
 271 0058 8B5C2414 		movl	20(%esp), %ebx
 272 005c 83C41C   		addl	$28, %esp
 273              		.cfi_restore 6
 274              		.cfi_restore 3
 275              		.cfi_def_cfa_offset 4
 276 005f E9000000 		jmp	_chSchReadyI
 276      00
 277              		.cfi_endproc
 278              	LFE12:
 279 0064 90909090 		.section	.text$chSchIsPreemptionRequired,"x"
 279      90909090 
GAS LISTING /cygdrive/c/Users/pc/AppData/Local/Temp/cctM659Z.s 			page 7


 279      90909090 
 280              		.p2align 4,,15
 281              		.globl	_chSchIsPreemptionRequired
 282              		.def	_chSchIsPreemptionRequired;	.scl	2;	.type	32;	.endef
 283              	_chSchIsPreemptionRequired:
 284              	LFB14:
 285              		.cfi_startproc
 286 0000 A1000000 		movl	_rlist, %eax
 286      00
 287 0005 8B151800 		movl	_rlist+24, %edx
 287      0000
 288 000b 53       		pushl	%ebx
 289              		.cfi_def_cfa_offset 8
 290              		.cfi_offset 3, -8
 291 000c 8B5808   		movl	8(%eax), %ebx
 292 000f 8B4A08   		movl	8(%edx), %ecx
 293 0012 39CB     		cmpl	%ecx, %ebx
 294 0014 0F93C0   		setae	%al
 295 0017 807A1F00 		cmpb	$0, 31(%edx)
 296 001b 7503     		jne	L44
 297 001d 5B       		popl	%ebx
 298              		.cfi_remember_state
 299              		.cfi_restore 3
 300              		.cfi_def_cfa_offset 4
 301 001e C3       		ret
 302 001f 90       		.p2align 4,,7
 303              	L44:
 304              		.cfi_restore_state
 305 0020 39CB     		cmpl	%ecx, %ebx
 306 0022 0F97C0   		seta	%al
 307 0025 5B       		popl	%ebx
 308              		.cfi_restore 3
 309              		.cfi_def_cfa_offset 4
 310 0026 C3       		ret
 311              		.cfi_endproc
 312              	LFE14:
 313 0027 90909090 		.section	.text$chSchDoRescheduleBehind,"x"
 313      90909090 
 313      90
 314              		.p2align 4,,15
 315              		.globl	_chSchDoRescheduleBehind
 316              		.def	_chSchDoRescheduleBehind;	.scl	2;	.type	32;	.endef
 317              	_chSchDoRescheduleBehind:
 318              	LFB15:
 319              		.cfi_startproc
 320 0000 53       		pushl	%ebx
 321              		.cfi_def_cfa_offset 8
 322              		.cfi_offset 3, -8
 323 0001 83EC18   		subl	$24, %esp
 324              		.cfi_def_cfa_offset 32
 325 0004 A1000000 		movl	_rlist, %eax
 325      00
 326 0009 8B1D1800 		movl	_rlist+24, %ebx
 326      0000
 327 000f 8B10     		movl	(%eax), %edx
 328 0011 C6431F14 		movb	$20, 31(%ebx)
 329 0015 C6401C01 		movb	$1, 28(%eax)
GAS LISTING /cygdrive/c/Users/pc/AppData/Local/Temp/cctM659Z.s 			page 8


 330 0019 C7420400 		movl	$_rlist, 4(%edx)
 330      000000
 331 0020 891C24   		movl	%ebx, (%esp)
 332 0023 89150000 		movl	%edx, _rlist
 332      0000
 333 0029 A3180000 		movl	%eax, _rlist+24
 333      00
 334 002e E8000000 		call	_chSchReadyI
 334      00
 335 0033 8B0D1800 		movl	_rlist+24, %ecx
 335      0000
 336 0039 83C418   		addl	$24, %esp
 337              		.cfi_def_cfa_offset 8
 338 003c 89DA     		movl	%ebx, %edx
 339 003e 5B       		popl	%ebx
 340              		.cfi_restore 3
 341              		.cfi_def_cfa_offset 4
 342 003f E9000000 		jmp	@port_switch@8
 342      00
 343              		.cfi_endproc
 344              	LFE15:
 345 0044 90909090 		.section	.text$chSchDoRescheduleAhead,"x"
 345      90909090 
 345      90909090 
 346              		.p2align 4,,15
 347              		.globl	_chSchDoRescheduleAhead
 348              		.def	_chSchDoRescheduleAhead;	.scl	2;	.type	32;	.endef
 349              	_chSchDoRescheduleAhead:
 350              	LFB16:
 351              		.cfi_startproc
 352 0000 8B0D0000 		movl	_rlist, %ecx
 352      0000
 353 0006 53       		pushl	%ebx
 354              		.cfi_def_cfa_offset 8
 355              		.cfi_offset 3, -8
 356 0007 8B151800 		movl	_rlist+24, %edx
 356      0000
 357 000d 8B01     		movl	(%ecx), %eax
 358 000f C6411C01 		movb	$1, 28(%ecx)
 359 0013 8B5A08   		movl	8(%edx), %ebx
 360 0016 C6421C00 		movb	$0, 28(%edx)
 361 001a C7400400 		movl	$_rlist, 4(%eax)
 361      000000
 362 0021 A3000000 		movl	%eax, _rlist
 362      00
 363 0026 89C8     		movl	%ecx, %eax
 364 0028 890D1800 		movl	%ecx, _rlist+24
 364      0000
 365 002e EB02     		jmp	L49
 366              		.p2align 4,,7
 367              	L51:
 368 0030 8B00     		movl	(%eax), %eax
 369              	L49:
 370 0032 395808   		cmpl	%ebx, 8(%eax)
 371 0035 77F9     		ja	L51
 372 0037 8B5804   		movl	4(%eax), %ebx
 373 003a 8902     		movl	%eax, (%edx)
GAS LISTING /cygdrive/c/Users/pc/AppData/Local/Temp/cctM659Z.s 			page 9


 374 003c 895A04   		movl	%ebx, 4(%edx)
 375 003f 8913     		movl	%edx, (%ebx)
 376 0041 895004   		movl	%edx, 4(%eax)
 377 0044 5B       		popl	%ebx
 378              		.cfi_restore 3
 379              		.cfi_def_cfa_offset 4
 380 0045 E9000000 		jmp	@port_switch@8
 380      00
 381              		.cfi_endproc
 382              	LFE16:
 383 004a 90909090 		.section	.text$chSchRescheduleS,"x"
 383      9090
 384              		.p2align 4,,15
 385              		.globl	_chSchRescheduleS
 386              		.def	_chSchRescheduleS;	.scl	2;	.type	32;	.endef
 387              	_chSchRescheduleS:
 388              	LFB13:
 389              		.cfi_startproc
 390 0000 83EC0C   		subl	$12, %esp
 391              		.cfi_def_cfa_offset 16
 392 0003 E8000000 		call	_chDbgCheckClassS
 392      00
 393 0008 A1180000 		movl	_rlist+24, %eax
 393      00
 394 000d 8B150000 		movl	_rlist, %edx
 394      0000
 395 0013 8B4808   		movl	8(%eax), %ecx
 396 0016 394A08   		cmpl	%ecx, 8(%edx)
 397 0019 7705     		ja	L55
 398 001b 83C40C   		addl	$12, %esp
 399              		.cfi_remember_state
 400              		.cfi_def_cfa_offset 4
 401 001e C3       		ret
 402 001f 90       		.p2align 4,,7
 403              	L55:
 404              		.cfi_restore_state
 405 0020 83C40C   		addl	$12, %esp
 406              		.cfi_def_cfa_offset 4
 407 0023 E9000000 		jmp	_chSchDoRescheduleAhead
 407      00
 408              		.cfi_endproc
 409              	LFE13:
 410 0028 90909090 		.section	.text$chSchDoReschedule,"x"
 410      90909090 
 411              		.p2align 4,,15
 412              		.globl	_chSchDoReschedule
 413              		.def	_chSchDoReschedule;	.scl	2;	.type	32;	.endef
 414              	_chSchDoReschedule:
 415              	LFB17:
 416              		.cfi_startproc
 417 0000 A1180000 		movl	_rlist+24, %eax
 417      00
 418 0005 80781F00 		cmpb	$0, 31(%eax)
 419 0009 7405     		je	L58
 420 000b E9000000 		jmp	_chSchDoRescheduleAhead
 420      00
 421              		.p2align 4,,7
GAS LISTING /cygdrive/c/Users/pc/AppData/Local/Temp/cctM659Z.s 			page 10


 422              	L58:
 423 0010 E9000000 		jmp	_chSchDoRescheduleBehind
 423      00
 424              		.cfi_endproc
 425              	LFE17:
 426              		.globl	_rlist
 427 0015 90909090 		.section	.data$rlist,"w"
 427      90909090 
 427      909090
 428              		.align 4
 429              	_rlist:
 430 0000 00000000 		.space 28
 430      00000000 
 430      00000000 
 430      00000000 
 430      00000000 
 431              		.def	_chDbgCheckClassI;	.scl	2;	.type	32;	.endef
 432              		.def	_chDbgPanic;	.scl	2;	.type	32;	.endef
 433              		.def	_dbg_check_lock_from_isr;	.scl	2;	.type	32;	.endef
 434              		.def	_dbg_check_unlock_from_isr;	.scl	2;	.type	32;	.endef
 435              		.def	_chDbgCheckClassS;	.scl	2;	.type	32;	.endef
 436              		.def	@port_switch@8;	.scl	2;	.type	32;	.endef
 437              		.def	_chVTSetI;	.scl	2;	.type	32;	.endef
 438              		.def	_chVTResetI;	.scl	2;	.type	32;	.endef
GAS LISTING /cygdrive/c/Users/pc/AppData/Local/Temp/cctM659Z.s 			page 11

