GAS LISTING /cygdrive/c/Users/pc/AppData/Local/Temp/ccL7cvon.s 			page 1


   1              		.file	"citroenBerlingoTU3JP.cpp"
   2              		.section	.text$_Z6setLCDP21board_configuration_s,"x"
   3              		.p2align 4,,15
   4              		.globl	__Z6setLCDP21board_configuration_s
   5              		.def	__Z6setLCDP21board_configuration_s;	.scl	2;	.type	32;	.endef
   6              	__Z6setLCDP21board_configuration_s:
   7              	LFB85:
   8              		.cfi_startproc
   9 0000 8B442404 		movl	4(%esp), %eax
  10 0004 C780B000 		movl	$71, 176(%eax)
  10      00004700 
  10      0000
  11 000e C780B400 		movl	$73, 180(%eax)
  11      00004900 
  11      0000
  12 0018 C780B800 		movl	$75, 184(%eax)
  12      00004B00 
  12      0000
  13 0022 C780BC00 		movl	$77, 188(%eax)
  13      00004D00 
  13      0000
  14 002c C780C000 		movl	$79, 192(%eax)
  14      00004F00 
  14      0000
  15 0036 C780C400 		movl	$26, 196(%eax)
  15      00001A00 
  15      0000
  16 0040 C3       		ret
  17              		.cfi_endproc
  18              	LFE85:
  19 0041 90909090 		.section	.text$_Z36setCitroenBerlingoTU3JPConfigurationv,"x"
  19      90909090 
  19      90909090 
  19      909090
  20              		.p2align 4,,15
  21              		.globl	__Z36setCitroenBerlingoTU3JPConfigurationv
  22              		.def	__Z36setCitroenBerlingoTU3JPConfigurationv;	.scl	2;	.type	32;	.endef
  23              	__Z36setCitroenBerlingoTU3JPConfigurationv:
  24              	LFB86:
  25              		.cfi_startproc
  26 0000 83EC5C   		subl	$92, %esp
  27              		.cfi_def_cfa_offset 96
  28 0003 A1000000 		movl	_engineConfiguration, %eax
  28      00
  29 0008 C7000F00 		movl	$15, (%eax)
  29      0000
  30 000e 890424   		movl	%eax, (%esp)
  31 0011 C7442404 		movl	$1, 4(%esp)
  31      01000000 
  32 0019 E8000000 		call	__Z16setOperationModeP22engine_configuration_s16operation_mode_e
  32      00
  33 001e A1000000 		movl	_engineConfiguration, %eax
  33      00
  34 0023 C7801802 		movl	$8, 536(%eax)
  34      00000800 
  34      0000
  35 002d C780CC01 		movl	$0x42e40000, 460(%eax)
GAS LISTING /cygdrive/c/Users/pc/AppData/Local/Temp/ccL7cvon.s 			page 2


  35      00000000 
  35      E442
  36 0037 C7809401 		movl	$4, 404(%eax)
  36      00000400 
  36      0000
  37 0041 C7809001 		movl	$0x3fae147b, 400(%eax)
  37      00007B14 
  37      AE3F
  38 004b C7809801 		movl	$1, 408(%eax)
  38      00000100 
  38      0000
  39 0055 C780BC01 		movl	$2, 444(%eax)
  39      00000200 
  39      0000
  40 005f C780B001 		movl	$2, 432(%eax)
  40      00000200 
  40      0000
  41 0069 C780AC01 		movl	$0, 428(%eax)
  41      00000000 
  41      0000
  42 0073 C780A401 		movl	$5000, 420(%eax)
  42      00008813 
  42      0000
  43 007d 66C74060 		movw	$600, 96(%eax)
  43      5802
  44 0083 C7405C00 		movl	$0x41700000, 92(%eax)
  44      007041
  45 008a C7042401 		movl	$1, (%esp)
  45      000000
  46 0091 E8000000 		call	__Z12setAlgorithm18engine_load_mode_e
  46      00
  47 0096 C7042400 		movl	$0x00000000, (%esp)
  47      000000
  48 009d D9050000 		flds	LC3
  48      0000
  49 00a3 D9542404 		fsts	4(%esp)
  50 00a7 D95C2420 		fstps	32(%esp)
  51 00ab E8000000 		call	__Z14setFuelLoadBinff
  51      00
  52 00b0 D9050400 		flds	LC5
  52      0000
  53 00b6 D9542404 		fsts	4(%esp)
  54 00ba D9050800 		flds	LC6
  54      0000
  55 00c0 D91424   		fsts	(%esp)
  56 00c3 D95C2430 		fstps	48(%esp)
  57 00c7 D95C2440 		fstps	64(%esp)
  58 00cb E8000000 		call	__Z13setFuelRpmBinff
  58      00
  59 00d0 D9442440 		flds	64(%esp)
  60 00d4 D95C2404 		fstps	4(%esp)
  61 00d8 D9442430 		flds	48(%esp)
  62 00dc D91C24   		fstps	(%esp)
  63 00df E8000000 		call	__Z15setTimingRpmBinff
  63      00
  64 00e4 A1000000 		movl	_boardConfiguration, %eax
  64      00
GAS LISTING /cygdrive/c/Users/pc/AppData/Local/Temp/ccL7cvon.s 			page 3


  65 00e9 8B150000 		movl	_engineConfiguration, %edx
  65      0000
  66 00ef C740542E 		movl	$46, 84(%eax)
  66      000000
  67 00f6 C7405850 		movl	$80, 88(%eax)
  67      000000
  68 00fd C7405C2F 		movl	$47, 92(%eax)
  68      000000
  69 0104 C7406050 		movl	$80, 96(%eax)
  69      000000
  70 010b C7420800 		movl	$0x43090000, 8(%edx)
  70      000943
  71 0112 C7402046 		movl	$70, 32(%eax)
  71      000000
  72 0119 C740242D 		movl	$45, 36(%eax)
  72      000000
  73 0120 C7402850 		movl	$80, 40(%eax)
  73      000000
  74 0127 C7402C50 		movl	$80, 44(%eax)
  74      000000
  75 012e C7809000 		movl	$64, 144(%eax)
  75      00004000 
  75      0000
  76 0138 C7809400 		movl	$0, 148(%eax)
  76      00000000 
  76      0000
  77 0142 C7808800 		movl	$65, 136(%eax)
  77      00004100 
  77      0000
  78 014c C7808C00 		movl	$0, 140(%eax)
  78      00000000 
  78      0000
  79 0156 C7803401 		movl	$24, 308(%eax)
  79      00001800 
  79      0000
  80 0160 C7401819 		movl	$25, 24(%eax)
  80      000000
  81 0167 C7401C00 		movl	$0, 28(%eax)
  81      000000
  82 016e C780B000 		movl	$71, 176(%eax)
  82      00004700 
  82      0000
  83 0178 C780B400 		movl	$73, 180(%eax)
  83      00004900 
  83      0000
  84 0182 C780B800 		movl	$75, 184(%eax)
  84      00004B00 
  84      0000
  85 018c C780BC00 		movl	$77, 188(%eax)
  85      00004D00 
  85      0000
  86 0196 C780C000 		movl	$79, 192(%eax)
  86      00004F00 
  86      0000
  87 01a0 C780C400 		movl	$26, 196(%eax)
  87      00001A00 
  87      0000
GAS LISTING /cygdrive/c/Users/pc/AppData/Local/Temp/ccL7cvon.s 			page 4


  88 01aa C782FC00 		movl	$1, 252(%edx)
  88      00000100 
  88      0000
  89 01b4 C782F800 		movl	$0, 248(%edx)
  89      00000000 
  89      0000
  90 01be C782F000 		movl	$0x41200000, 240(%edx)
  90      00000000 
  90      2041
  91 01c8 C782F400 		movl	$0x42dc0000, 244(%edx)
  91      00000000 
  91      DC42
  92 01d2 C7820C02 		movl	$3, 524(%edx)
  92      00000300 
  92      0000
  93 01dc 66C74252 		movw	$108, 82(%edx)
  93      6C00
  94 01e2 66C74254 		movw	$812, 84(%edx)
  94      2C03
  95 01e8 C7823C01 		movl	$13, 316(%edx)
  95      00000D00 
  95      0000
  96 01f2 81C22001 		addl	$288, %edx
  96      0000
  97 01f8 C7442418 		movl	$0x43700000, 24(%esp)
  97      00007043 
  98 0200 C7442414 		movl	$0x42b80000, 20(%esp)
  98      0000B842 
  99 0208 D9050C00 		flds	LC15
  99      0000
 100 020e D9542404 		fsts	4(%esp)
 101 0212 891424   		movl	%edx, (%esp)
 102 0215 D95C2440 		fstps	64(%esp)
 103 0219 C7442410 		movl	$0x450ca000, 16(%esp)
 103      00A00C45 
 104 0221 C744240C 		movl	$0x41b80000, 12(%esp)
 104      0000B841 
 105 0229 C7442408 		movl	$0x4673c000, 8(%esp)
 105      00C07346 
 106 0231 E8000000 		call	__Z26setThermistorConfigurationP14ThermistorConfffffff
 106      00
 107 0236 A1000000 		movl	_engineConfiguration, %eax
 107      00
 108 023b C7801C01 		movl	$11, 284(%eax)
 108      00000B00 
 108      0000
 109 0245 D9051000 		flds	LC16
 109      0000
 110 024b D9903801 		fsts	312(%eax)
 110      0000
 111 0251 05000100 		addl	$256, %eax
 111      00
 112 0256 D9442420 		flds	32(%esp)
 113 025a D95C2414 		fstps	20(%esp)
 114 025e D9442440 		flds	64(%esp)
 115 0262 D95C2404 		fstps	4(%esp)
 116 0266 890424   		movl	%eax, (%esp)
GAS LISTING /cygdrive/c/Users/pc/AppData/Local/Temp/ccL7cvon.s 			page 5


 117 0269 D95C2430 		fstps	48(%esp)
 118 026d C7442418 		movl	$0x43310000, 24(%esp)
 118      00003143 
 119 0275 C7442410 		movl	$0x452ec000, 16(%esp)
 119      00C02E45 
 120 027d C744240C 		movl	$0x41c80000, 12(%esp)
 120      0000C841 
 121 0285 C7442408 		movl	$0x46e01000, 8(%esp)
 121      0010E046 
 122 028d E8000000 		call	__Z26setThermistorConfigurationP14ThermistorConfffffff
 122      00
 123 0292 A1000000 		movl	_engineConfiguration, %eax
 123      00
 124 0297 8B150000 		movl	_boardConfiguration, %edx
 124      0000
 125 029d D9442430 		flds	48(%esp)
 126 02a1 D9983801 		fstps	312(%eax)
 126      0000
 127 02a7 C780D801 		movl	$0, 472(%eax)
 127      00000000 
 127      0000
 128 02b1 C780D401 		movl	$0x411c4ec5, 468(%eax)
 128      0000C54E 
 128      1C41
 129 02bb C7804802 		movl	$12, 584(%eax)
 129      00000C00 
 129      0000
 130 02c5 C7821803 		movl	$8, 792(%edx)
 130      00000800 
 130      0000
 131 02cf 8088D905 		orb	$4, 1497(%eax)
 131      000004
 132 02d6 A1000000 		movl	_config, %eax
 132      00
 133 02db C7042400 		movl	$__ZL14tps_fuel_table, (%esp)
 133      000000
 134 02e2 05B82900 		addl	$10680, %eax
 134      00
 135 02e7 89442404 		movl	%eax, 4(%esp)
 136 02eb E8000000 		call	__Z13copyFuelTablePA16_KfPA16_f
 136      00
 137 02f0 A1000000 		movl	_config, %eax
 137      00
 138 02f5 C7042400 		movl	$__ZL17tps_advance_table, (%esp)
 138      000000
 139 02fc 05382E00 		addl	$11832, %eax
 139      00
 140 0301 89442404 		movl	%eax, 4(%esp)
 141 0305 E8000000 		call	__Z15copyTimingTablePA16_KfPA16_f
 141      00
 142 030a 83C45C   		addl	$92, %esp
 143              		.cfi_def_cfa_offset 4
 144 030d C3       		ret
 145              		.cfi_endproc
 146              	LFE86:
 147 030e 9090     		.section	.rdata$_ZL14tps_fuel_table,"dr"
 148              		.align 32
GAS LISTING /cygdrive/c/Users/pc/AppData/Local/Temp/ccL7cvon.s 			page 6


 149              	__ZL14tps_fuel_table:
 150 0000 00008040 		.long	1082130432
 151 0004 00008040 		.long	1082130432
 152 0008 00008040 		.long	1082130432
 153 000c 00008040 		.long	1082130432
 154 0010 00008040 		.long	1082130432
 155 0014 00008040 		.long	1082130432
 156 0018 00008040 		.long	1082130432
 157 001c 00008040 		.long	1082130432
 158 0020 00008040 		.long	1082130432
 159 0024 00008040 		.long	1082130432
 160 0028 00008040 		.long	1082130432
 161 002c 00008040 		.long	1082130432
 162 0030 00008040 		.long	1082130432
 163 0034 00008040 		.long	1082130432
 164 0038 00008040 		.long	1082130432
 165 003c 00008040 		.long	1082130432
 166 0040 713DA240 		.long	1084374385
 167 0044 713DA240 		.long	1084374385
 168 0048 713DA240 		.long	1084374385
 169 004c 713DA240 		.long	1084374385
 170 0050 713DA240 		.long	1084374385
 171 0054 713DA240 		.long	1084374385
 172 0058 713DA240 		.long	1084374385
 173 005c 713DA240 		.long	1084374385
 174 0060 713DA240 		.long	1084374385
 175 0064 713DA240 		.long	1084374385
 176 0068 713DA240 		.long	1084374385
 177 006c 713DA240 		.long	1084374385
 178 0070 713DA240 		.long	1084374385
 179 0074 713DA240 		.long	1084374385
 180 0078 713DA240 		.long	1084374385
 181 007c 713DA240 		.long	1084374385
 182 0080 F628C440 		.long	1086597366
 183 0084 F628C440 		.long	1086597366
 184 0088 F628C440 		.long	1086597366
 185 008c F628C440 		.long	1086597366
 186 0090 F628C440 		.long	1086597366
 187 0094 F628C440 		.long	1086597366
 188 0098 F628C440 		.long	1086597366
 189 009c F628C440 		.long	1086597366
 190 00a0 F628C440 		.long	1086597366
 191 00a4 F628C440 		.long	1086597366
 192 00a8 F628C440 		.long	1086597366
 193 00ac F628C440 		.long	1086597366
 194 00b0 F628C440 		.long	1086597366
 195 00b4 F628C440 		.long	1086597366
 196 00b8 F628C440 		.long	1086597366
 197 00bc F628C440 		.long	1086597366
 198 00c0 6666E640 		.long	1088841318
 199 00c4 6666E640 		.long	1088841318
 200 00c8 6666E640 		.long	1088841318
 201 00cc 6666E640 		.long	1088841318
 202 00d0 6666E640 		.long	1088841318
 203 00d4 6666E640 		.long	1088841318
 204 00d8 6666E640 		.long	1088841318
 205 00dc 6666E640 		.long	1088841318
GAS LISTING /cygdrive/c/Users/pc/AppData/Local/Temp/ccL7cvon.s 			page 7


 206 00e0 6666E640 		.long	1088841318
 207 00e4 6666E640 		.long	1088841318
 208 00e8 6666E640 		.long	1088841318
 209 00ec 6666E640 		.long	1088841318
 210 00f0 6666E640 		.long	1088841318
 211 00f4 6666E640 		.long	1088841318
 212 00f8 6666E640 		.long	1088841318
 213 00fc 6666E640 		.long	1088841318
 214 0100 EC510441 		.long	1090802156
 215 0104 EC510441 		.long	1090802156
 216 0108 EC510441 		.long	1090802156
 217 010c EC510441 		.long	1090802156
 218 0110 EC510441 		.long	1090802156
 219 0114 EC510441 		.long	1090802156
 220 0118 EC510441 		.long	1090802156
 221 011c EC510441 		.long	1090802156
 222 0120 EC510441 		.long	1090802156
 223 0124 EC510441 		.long	1090802156
 224 0128 EC510441 		.long	1090802156
 225 012c EC510441 		.long	1090802156
 226 0130 EC510441 		.long	1090802156
 227 0134 EC510441 		.long	1090802156
 228 0138 EC510441 		.long	1090802156
 229 013c EC510441 		.long	1090802156
 230 0140 AE471541 		.long	1091913646
 231 0144 AE471541 		.long	1091913646
 232 0148 AE471541 		.long	1091913646
 233 014c AE471541 		.long	1091913646
 234 0150 AE471541 		.long	1091913646
 235 0154 AE471541 		.long	1091913646
 236 0158 AE471541 		.long	1091913646
 237 015c AE471541 		.long	1091913646
 238 0160 AE471541 		.long	1091913646
 239 0164 AE471541 		.long	1091913646
 240 0168 AE471541 		.long	1091913646
 241 016c AE471541 		.long	1091913646
 242 0170 AE471541 		.long	1091913646
 243 0174 AE471541 		.long	1091913646
 244 0178 AE471541 		.long	1091913646
 245 017c AE471541 		.long	1091913646
 246 0180 66662641 		.long	1093035622
 247 0184 66662641 		.long	1093035622
 248 0188 66662641 		.long	1093035622
 249 018c 66662641 		.long	1093035622
 250 0190 66662641 		.long	1093035622
 251 0194 66662641 		.long	1093035622
 252 0198 66662641 		.long	1093035622
 253 019c 66662641 		.long	1093035622
 254 01a0 66662641 		.long	1093035622
 255 01a4 66662641 		.long	1093035622
 256 01a8 66662641 		.long	1093035622
 257 01ac 66662641 		.long	1093035622
 258 01b0 66662641 		.long	1093035622
 259 01b4 66662641 		.long	1093035622
 260 01b8 66662641 		.long	1093035622
 261 01bc 66662641 		.long	1093035622
 262 01c0 1F853741 		.long	1094157599
GAS LISTING /cygdrive/c/Users/pc/AppData/Local/Temp/ccL7cvon.s 			page 8


 263 01c4 1F853741 		.long	1094157599
 264 01c8 1F853741 		.long	1094157599
 265 01cc 1F853741 		.long	1094157599
 266 01d0 1F853741 		.long	1094157599
 267 01d4 1F853741 		.long	1094157599
 268 01d8 1F853741 		.long	1094157599
 269 01dc 1F853741 		.long	1094157599
 270 01e0 1F853741 		.long	1094157599
 271 01e4 1F853741 		.long	1094157599
 272 01e8 1F853741 		.long	1094157599
 273 01ec 1F853741 		.long	1094157599
 274 01f0 1F853741 		.long	1094157599
 275 01f4 1F853741 		.long	1094157599
 276 01f8 1F853741 		.long	1094157599
 277 01fc 1F853741 		.long	1094157599
 278 0200 E17A4841 		.long	1095269089
 279 0204 E17A4841 		.long	1095269089
 280 0208 E17A4841 		.long	1095269089
 281 020c E17A4841 		.long	1095269089
 282 0210 E17A4841 		.long	1095269089
 283 0214 E17A4841 		.long	1095269089
 284 0218 E17A4841 		.long	1095269089
 285 021c E17A4841 		.long	1095269089
 286 0220 E17A4841 		.long	1095269089
 287 0224 E17A4841 		.long	1095269089
 288 0228 E17A4841 		.long	1095269089
 289 022c E17A4841 		.long	1095269089
 290 0230 E17A4841 		.long	1095269089
 291 0234 E17A4841 		.long	1095269089
 292 0238 E17A4841 		.long	1095269089
 293 023c E17A4841 		.long	1095269089
 294 0240 9A994941 		.long	1095342490
 295 0244 9A995941 		.long	1096391066
 296 0248 9A995941 		.long	1096391066
 297 024c 9A995941 		.long	1096391066
 298 0250 9A995941 		.long	1096391066
 299 0254 9A995941 		.long	1096391066
 300 0258 9A995941 		.long	1096391066
 301 025c 9A995941 		.long	1096391066
 302 0260 9A995941 		.long	1096391066
 303 0264 9A995941 		.long	1096391066
 304 0268 9A995941 		.long	1096391066
 305 026c 9A995941 		.long	1096391066
 306 0270 9A995941 		.long	1096391066
 307 0274 9A995941 		.long	1096391066
 308 0278 9A995941 		.long	1096391066
 309 027c 9A995941 		.long	1096391066
 310 0280 52B86A41 		.long	1097513042
 311 0284 52B86A41 		.long	1097513042
 312 0288 52B86A41 		.long	1097513042
 313 028c 52B86A41 		.long	1097513042
 314 0290 52B86A41 		.long	1097513042
 315 0294 52B86A41 		.long	1097513042
 316 0298 52B86A41 		.long	1097513042
 317 029c 52B86A41 		.long	1097513042
 318 02a0 52B86A41 		.long	1097513042
 319 02a4 52B86A41 		.long	1097513042
GAS LISTING /cygdrive/c/Users/pc/AppData/Local/Temp/ccL7cvon.s 			page 9


 320 02a8 52B86A41 		.long	1097513042
 321 02ac 52B86A41 		.long	1097513042
 322 02b0 52B86A41 		.long	1097513042
 323 02b4 52B86A41 		.long	1097513042
 324 02b8 52B86A41 		.long	1097513042
 325 02bc 52B86A41 		.long	1097513042
 326 02c0 14AE7B41 		.long	1098624532
 327 02c4 14AE7B41 		.long	1098624532
 328 02c8 14AE7B41 		.long	1098624532
 329 02cc 14AE7B41 		.long	1098624532
 330 02d0 14AE7B41 		.long	1098624532
 331 02d4 14AE7B41 		.long	1098624532
 332 02d8 14AE7B41 		.long	1098624532
 333 02dc 14AE7B41 		.long	1098624532
 334 02e0 14AE7B41 		.long	1098624532
 335 02e4 14AE7B41 		.long	1098624532
 336 02e8 14AE7B41 		.long	1098624532
 337 02ec 14AE7B41 		.long	1098624532
 338 02f0 14AE7B41 		.long	1098624532
 339 02f4 14AE7B41 		.long	1098624532
 340 02f8 14AE7B41 		.long	1098624532
 341 02fc 14AE7B41 		.long	1098624532
 342 0300 66668641 		.long	1099327078
 343 0304 66668641 		.long	1099327078
 344 0308 66668641 		.long	1099327078
 345 030c 66668641 		.long	1099327078
 346 0310 66668641 		.long	1099327078
 347 0314 66668641 		.long	1099327078
 348 0318 66668641 		.long	1099327078
 349 031c 66668641 		.long	1099327078
 350 0320 66668641 		.long	1099327078
 351 0324 66668641 		.long	1099327078
 352 0328 66668641 		.long	1099327078
 353 032c 66668641 		.long	1099327078
 354 0330 66668641 		.long	1099327078
 355 0334 66668641 		.long	1099327078
 356 0338 66668641 		.long	1099327078
 357 033c 66668641 		.long	1099327078
 358 0340 C3F58E41 		.long	1099888067
 359 0344 C3F58E41 		.long	1099888067
 360 0348 C3F58E41 		.long	1099888067
 361 034c C3F58E41 		.long	1099888067
 362 0350 C3F58E41 		.long	1099888067
 363 0354 C3F58E41 		.long	1099888067
 364 0358 C3F58E41 		.long	1099888067
 365 035c C3F58E41 		.long	1099888067
 366 0360 C3F58E41 		.long	1099888067
 367 0364 C3F58E41 		.long	1099888067
 368 0368 C3F58E41 		.long	1099888067
 369 036c C3F58E41 		.long	1099888067
 370 0370 C3F58E41 		.long	1099888067
 371 0374 C3F58E41 		.long	1099888067
 372 0378 C3F58E41 		.long	1099888067
 373 037c C3F58E41 		.long	1099888067
 374 0380 A4709741 		.long	1100443812
 375 0384 A4709741 		.long	1100443812
 376 0388 A4709741 		.long	1100443812
GAS LISTING /cygdrive/c/Users/pc/AppData/Local/Temp/ccL7cvon.s 			page 10


 377 038c A4709741 		.long	1100443812
 378 0390 A4709741 		.long	1100443812
 379 0394 A4709741 		.long	1100443812
 380 0398 A4709741 		.long	1100443812
 381 039c A4709741 		.long	1100443812
 382 03a0 A4709741 		.long	1100443812
 383 03a4 A4709741 		.long	1100443812
 384 03a8 A4709741 		.long	1100443812
 385 03ac A4709741 		.long	1100443812
 386 03b0 A4709741 		.long	1100443812
 387 03b4 A4709741 		.long	1100443812
 388 03b8 A4709741 		.long	1100443812
 389 03bc A4709741 		.long	1100443812
 390 03c0 0000A041 		.long	1101004800
 391 03c4 0000A041 		.long	1101004800
 392 03c8 0000A041 		.long	1101004800
 393 03cc 0000A041 		.long	1101004800
 394 03d0 0000A041 		.long	1101004800
 395 03d4 0000A041 		.long	1101004800
 396 03d8 0000A041 		.long	1101004800
 397 03dc 0000A041 		.long	1101004800
 398 03e0 0000A041 		.long	1101004800
 399 03e4 0000A041 		.long	1101004800
 400 03e8 0000A041 		.long	1101004800
 401 03ec 0000A041 		.long	1101004800
 402 03f0 0000A041 		.long	1101004800
 403 03f4 0000A041 		.long	1101004800
 404 03f8 0000A041 		.long	1101004800
 405 03fc 0000A041 		.long	1101004800
 406              		.section	.rdata$_ZL17tps_advance_table,"dr"
 407              		.align 32
 408              	__ZL17tps_advance_table:
 409 0000 00007041 		.long	1097859072
 410 0004 D7A38241 		.long	1099080663
 411 0008 295C8D41 		.long	1099783209
 412 000c 00009841 		.long	1100480512
 413 0010 D7A3A241 		.long	1101177815
 414 0014 295CAD41 		.long	1101880361
 415 0018 0000B841 		.long	1102577664
 416 001c D7A3C241 		.long	1103274967
 417 0020 295CCD41 		.long	1103977513
 418 0024 0000D841 		.long	1104674816
 419 0028 D7A3E241 		.long	1105372119
 420 002c 295CED41 		.long	1106074665
 421 0030 0000F841 		.long	1106771968
 422 0034 EC510142 		.long	1107382764
 423 0038 14AE0642 		.long	1107734036
 424 003c 00000C42 		.long	1108082688
 425 0040 CDCC6C41 		.long	1097649357
 426 0044 C3F58041 		.long	1098970563
 427 0048 9A998B41 		.long	1099667866
 428 004c F6289641 		.long	1100359926
 429 0050 CDCCA041 		.long	1101057229
 430 0054 295CAB41 		.long	1101749289
 431 0058 0000B641 		.long	1102446592
 432 005c 5C8FC041 		.long	1103138652
 433 0060 3333CB41 		.long	1103835955
GAS LISTING /cygdrive/c/Users/pc/AppData/Local/Temp/ccL7cvon.s 			page 11


 434 0064 8FC2D541 		.long	1104528015
 435 0068 EC51E041 		.long	1105220076
 436 006c C3F5EA41 		.long	1105917379
 437 0070 1F85F541 		.long	1106609439
 438 0074 7B140042 		.long	1107301499
 439 0078 295C0542 		.long	1107647529
 440 007c 14AE0A42 		.long	1107996180
 441 0080 9A996941 		.long	1097439642
 442 0084 52B87E41 		.long	1098823762
 443 0088 0AD78941 		.long	1099552522
 444 008c 66669441 		.long	1100244582
 445 0090 48E19E41 		.long	1100931400
 446 0094 A470A941 		.long	1101623460
 447 0098 85EBB341 		.long	1102310277
 448 009c E17ABE41 		.long	1103002337
 449 00a0 C3F5C841 		.long	1103689155
 450 00a4 1F85D341 		.long	1104381215
 451 00a8 7B14DE41 		.long	1105073275
 452 00ac 5C8FE841 		.long	1105760092
 453 00b0 B81EF341 		.long	1106452152
 454 00b4 9A99FD41 		.long	1107138970
 455 00b8 7B140442 		.long	1107563643
 456 00bc EC510942 		.long	1107907052
 457 00c0 66666641 		.long	1097229926
 458 00c4 295C7B41 		.long	1098603561
 459 00c8 7B148841 		.long	1099437179
 460 00cc 5C8F9241 		.long	1100123996
 461 00d0 3D0A9D41 		.long	1100810813
 462 00d4 A470A741 		.long	1101492388
 463 00d8 85EBB141 		.long	1102179205
 464 00dc 6666BC41 		.long	1102866022
 465 00e0 CDCCC641 		.long	1103547597
 466 00e4 AE47D141 		.long	1104234414
 467 00e8 8FC2DB41 		.long	1104921231
 468 00ec F628E641 		.long	1105602806
 469 00f0 D7A3F041 		.long	1106289623
 470 00f4 B81EFB41 		.long	1106976440
 471 00f8 8FC20242 		.long	1107477135
 472 00fc 00000842 		.long	1107820544
 473 0100 33336341 		.long	1097020211
 474 0104 00007841 		.long	1098383360
 475 0108 66668641 		.long	1099327078
 476 010c 52B89041 		.long	1100003410
 477 0110 B81E9B41 		.long	1100684984
 478 0114 1F85A541 		.long	1101366559
 479 0118 85EBAF41 		.long	1102048133
 480 011c 713DBA41 		.long	1102724465
 481 0120 D7A3C441 		.long	1103406039
 482 0124 3D0ACF41 		.long	1104087613
 483 0128 A470D941 		.long	1104769188
 484 012c 0AD7E341 		.long	1105450762
 485 0130 F628EE41 		.long	1106127094
 486 0134 5C8FF841 		.long	1106808668
 487 0138 E17A0142 		.long	1107393249
 488 013c 14AE0642 		.long	1107734036
 489 0140 00006041 		.long	1096810496
 490 0144 D7A37441 		.long	1098163159
GAS LISTING /cygdrive/c/Users/pc/AppData/Local/Temp/ccL7cvon.s 			page 12


 491 0148 D7A38441 		.long	1099211735
 492 014c C3F58E41 		.long	1099888067
 493 0150 AE479941 		.long	1100564398
 494 0154 1F85A341 		.long	1101235487
 495 0158 0AD7AD41 		.long	1101911818
 496 015c F628B841 		.long	1102588150
 497 0160 E17AC241 		.long	1103264481
 498 0164 CDCCCC41 		.long	1103940813
 499 0168 B81ED741 		.long	1104617144
 500 016c A470E141 		.long	1105293476
 501 0170 8FC2EB41 		.long	1105969807
 502 0174 7B14F641 		.long	1106646139
 503 0178 F6280042 		.long	1107306742
 504 017c EC510542 		.long	1107644908
 505 0180 CDCC5C41 		.long	1096600781
 506 0184 AE477141 		.long	1097942958
 507 0188 48E18241 		.long	1099096392
 508 018c B81E8D41 		.long	1099767480
 509 0190 295C9741 		.long	1100438569
 510 0194 9A99A141 		.long	1101109658
 511 0198 0AD7AB41 		.long	1101780746
 512 019c 7B14B641 		.long	1102451835
 513 01a0 EC51C041 		.long	1103122924
 514 01a4 5C8FCA41 		.long	1103794012
 515 01a8 CDCCD441 		.long	1104465101
 516 01ac 3D0ADF41 		.long	1105136189
 517 01b0 AE47E941 		.long	1105807278
 518 01b4 1F85F341 		.long	1106478367
 519 01b8 8FC2FD41 		.long	1107149455
 520 01bc 00000442 		.long	1107558400
 521 01c0 9A995941 		.long	1096391066
 522 01c4 85EB6D41 		.long	1097722757
 523 01c8 B81E8141 		.long	1098981048
 524 01cc AE478B41 		.long	1099646894
 525 01d0 A4709541 		.long	1100312740
 526 01d4 14AE9F41 		.long	1100983828
 527 01d8 0AD7A941 		.long	1101649674
 528 01dc 0000B441 		.long	1102315520
 529 01e0 F628BE41 		.long	1102981366
 530 01e4 EC51C841 		.long	1103647212
 531 01e8 E17AD241 		.long	1104313057
 532 01ec D7A3DC41 		.long	1104978903
 533 01f0 CDCCE641 		.long	1105644749
 534 01f4 C3F5F041 		.long	1106310595
 535 01f8 3333FB41 		.long	1106981683
 536 01fc 14AE0242 		.long	1107471892
 537 0200 66665641 		.long	1096181350
 538 0204 5C8F6A41 		.long	1097502556
 539 0208 52B87E41 		.long	1098823762
 540 020c 1F858941 		.long	1099531551
 541 0210 9A999341 		.long	1100192154
 542 0214 14AE9D41 		.long	1100852756
 543 0218 8FC2A741 		.long	1101513359
 544 021c 85EBB141 		.long	1102179205
 545 0220 0000BC41 		.long	1102839808
 546 0224 7B14C641 		.long	1103500411
 547 0228 F628D041 		.long	1104161014
GAS LISTING /cygdrive/c/Users/pc/AppData/Local/Temp/ccL7cvon.s 			page 13


 548 022c 713DDA41 		.long	1104821617
 549 0230 6666E441 		.long	1105487462
 550 0234 E17AEE41 		.long	1106148065
 551 0238 5C8FF841 		.long	1106808668
 552 023c EC510142 		.long	1107382764
 553 0240 33335341 		.long	1095971635
 554 0244 33336741 		.long	1097282355
 555 0248 295C7B41 		.long	1098603561
 556 024c 14AE8741 		.long	1099410964
 557 0250 14AE9141 		.long	1100066324
 558 0254 8FC29B41 		.long	1100726927
 559 0258 8FC2A541 		.long	1101382287
 560 025c 8FC2AF41 		.long	1102037647
 561 0260 0AD7B941 		.long	1102698250
 562 0264 0AD7C341 		.long	1103353610
 563 0268 0AD7CD41 		.long	1104008970
 564 026c 85EBD741 		.long	1104669573
 565 0270 85EBE141 		.long	1105324933
 566 0274 85EBEB41 		.long	1105980293
 567 0278 0000F641 		.long	1106640896
 568 027c 00000042 		.long	1107296256
 569 0280 00005041 		.long	1095761920
 570 0284 0AD76341 		.long	1097062154
 571 0288 0AD77741 		.long	1098372874
 572 028c 0AD78541 		.long	1099290378
 573 0290 0AD78F41 		.long	1099945738
 574 0294 8FC29941 		.long	1100595855
 575 0298 8FC2A341 		.long	1101251215
 576 029c 14AEAD41 		.long	1101901332
 577 02a0 14AEB741 		.long	1102556692
 578 02a4 9A99C141 		.long	1103206810
 579 02a8 1F85CB41 		.long	1103856927
 580 02ac 1F85D541 		.long	1104512287
 581 02b0 A470DF41 		.long	1105162404
 582 02b4 A470E941 		.long	1105817764
 583 02b8 295CF341 		.long	1106467881
 584 02bc 295CFD41 		.long	1107123241
 585 02c0 CDCC4C41 		.long	1095552205
 586 02c4 D7A36041 		.long	1096852439
 587 02c8 EC517441 		.long	1098142188
 588 02cc 7B148441 		.long	1099175035
 589 02d0 85EB8D41 		.long	1099819909
 590 02d4 0AD79741 		.long	1100470026
 591 02d8 14AEA141 		.long	1101114900
 592 02dc 9A99AB41 		.long	1101765018
 593 02e0 A470B541 		.long	1102409892
 594 02e4 295CBF41 		.long	1103060009
 595 02e8 AE47C941 		.long	1103710126
 596 02ec B81ED341 		.long	1104355000
 597 02f0 3D0ADD41 		.long	1105005117
 598 02f4 48E1E641 		.long	1105649992
 599 02f8 CDCCF041 		.long	1106300109
 600 02fc D7A3FA41 		.long	1106944983
 601 0300 9A994941 		.long	1095342490
 602 0304 AE475D41 		.long	1096632238
 603 0308 CDCC7041 		.long	1097911501
 604 030c 713D8241 		.long	1099054449
GAS LISTING /cygdrive/c/Users/pc/AppData/Local/Temp/ccL7cvon.s 			page 14


 605 0310 7B148C41 		.long	1099699323
 606 0314 0AD79541 		.long	1100338954
 607 0318 14AE9F41 		.long	1100983828
 608 031c 1F85A941 		.long	1101628703
 609 0320 AE47B341 		.long	1102268334
 610 0324 B81EBD41 		.long	1102913208
 611 0328 C3F5C641 		.long	1103558083
 612 032c 52B8D041 		.long	1104197714
 613 0330 5C8FDA41 		.long	1104842588
 614 0334 6666E441 		.long	1105487462
 615 0338 F628EE41 		.long	1106127094
 616 033c 0000F841 		.long	1106771968
 617 0340 66664641 		.long	1095132774
 618 0344 85EB5941 		.long	1096412037
 619 0348 A4706D41 		.long	1097691300
 620 034c 66668041 		.long	1098933862
 621 0350 F6288A41 		.long	1099573494
 622 0354 85EB9341 		.long	1100213125
 623 0358 14AE9D41 		.long	1100852756
 624 035c 295CA741 		.long	1101487145
 625 0360 B81EB141 		.long	1102126776
 626 0364 48E1BA41 		.long	1102766408
 627 0368 D7A3C441 		.long	1103406039
 628 036c 6666CE41 		.long	1104045670
 629 0370 7B14D841 		.long	1104680059
 630 0374 0AD7E141 		.long	1105319690
 631 0378 9A99EB41 		.long	1105959322
 632 037c 295CF541 		.long	1106598953
 633 0380 33334341 		.long	1094923059
 634 0384 5C8F5641 		.long	1096191836
 635 0388 85EB6941 		.long	1097460613
 636 038c AE477D41 		.long	1098729390
 637 0390 EC518841 		.long	1099452908
 638 0394 85EB9141 		.long	1100082053
 639 0398 9A999B41 		.long	1100716442
 640 039c AE47A541 		.long	1101350830
 641 03a0 C3F5AE41 		.long	1101985219
 642 03a4 D7A3B841 		.long	1102619607
 643 03a8 EC51C241 		.long	1103253996
 644 03ac 0000CC41 		.long	1103888384
 645 03b0 14AED541 		.long	1104522772
 646 03b4 295CDF41 		.long	1105157161
 647 03b8 C3F5E841 		.long	1105786307
 648 03bc D7A3F241 		.long	1106420695
 649 03c0 00004041 		.long	1094713344
 650 03c4 33335341 		.long	1095971635
 651 03c8 66666641 		.long	1097229926
 652 03cc 9A997941 		.long	1098488218
 653 03d0 66668641 		.long	1099327078
 654 03d4 00009041 		.long	1099956224
 655 03d8 9A999941 		.long	1100585370
 656 03dc 3333A341 		.long	1101214515
 657 03e0 CDCCAC41 		.long	1101843661
 658 03e4 6666B641 		.long	1102472806
 659 03e8 0000C041 		.long	1103101952
 660 03ec 9A99C941 		.long	1103731098
 661 03f0 3333D341 		.long	1104360243
GAS LISTING /cygdrive/c/Users/pc/AppData/Local/Temp/ccL7cvon.s 			page 15


 662 03f4 CDCCDC41 		.long	1104989389
 663 03f8 6666E641 		.long	1105618534
 664 03fc 0000F041 		.long	1106247680
 665              		.section .rdata,"dr"
 666              		.align 4
 667              	LC3:
 668 0000 0000C842 		.long	1120403456
 669              		.align 4
 670              	LC5:
 671 0004 00C0DA45 		.long	1171963904
 672              		.align 4
 673              	LC6:
 674 0008 00004844 		.long	1145569280
 675              		.align 4
 676              	LC15:
 677 000c 0000A0C1 		.long	-1046478848
 678              		.align 4
 679              	LC16:
 680 0010 00402645 		.long	1160134656
 681              		.def	__Z16setOperationModeP22engine_configuration_s16operation_mode_e;	.scl	2;	.type	32;	.endef
 682              		.def	__Z12setAlgorithm18engine_load_mode_e;	.scl	2;	.type	32;	.endef
 683              		.def	__Z14setFuelLoadBinff;	.scl	2;	.type	32;	.endef
 684              		.def	__Z13setFuelRpmBinff;	.scl	2;	.type	32;	.endef
 685              		.def	__Z15setTimingRpmBinff;	.scl	2;	.type	32;	.endef
 686              		.def	__Z26setThermistorConfigurationP14ThermistorConfffffff;	.scl	2;	.type	32;	.endef
 687              		.def	__Z13copyFuelTablePA16_KfPA16_f;	.scl	2;	.type	32;	.endef
 688              		.def	__Z15copyTimingTablePA16_KfPA16_f;	.scl	2;	.type	32;	.endef
GAS LISTING /cygdrive/c/Users/pc/AppData/Local/Temp/ccL7cvon.s 			page 16


DEFINED SYMBOLS
                            *ABS*:00000000 citroenBerlingoTU3JP.cpp
/cygdrive/c/Users/pc/AppData/Local/Temp/ccL7cvon.s:6      .text$_Z6setLCDP21board_configuration_s:00000000 __Z6setLCDP21board_configuration_s
/cygdrive/c/Users/pc/AppData/Local/Temp/ccL7cvon.s:23     .text$_Z36setCitroenBerlingoTU3JPConfigurationv:00000000 __Z36setCitroenBerlingoTU3JPConfigurationv
/cygdrive/c/Users/pc/AppData/Local/Temp/ccL7cvon.s:149    .rdata$_ZL14tps_fuel_table:00000000 __ZL14tps_fuel_table
/cygdrive/c/Users/pc/AppData/Local/Temp/ccL7cvon.s:408    .rdata$_ZL17tps_advance_table:00000000 __ZL17tps_advance_table

UNDEFINED SYMBOLS
_engineConfiguration
_boardConfiguration
_config
__Z16setOperationModeP22engine_configuration_s16operation_mode_e
__Z12setAlgorithm18engine_load_mode_e
__Z14setFuelLoadBinff
__Z13setFuelRpmBinff
__Z15setTimingRpmBinff
__Z26setThermistorConfigurationP14ThermistorConfffffff
__Z13copyFuelTablePA16_KfPA16_f
__Z15copyTimingTablePA16_KfPA16_f
