GAS LISTING /cygdrive/c/Users/pc/AppData/Local/Temp/ccLvDKVi.s 			page 1


   1              		.file	"console_io.cpp"
   2              		.section .rdata,"dr"
   3              	LC0:
   4 0000 73776974 		.ascii "switching to binary protocol\0"
   4      6368696E 
   4      6720746F 
   4      2062696E 
   4      61727920 
   5              		.section	.text$_ZL22switchToBinaryProtocolv,"x"
   6              		.p2align 4,,15
   7              		.def	__ZL22switchToBinaryProtocolv;	.scl	3;	.type	32;	.endef
   8              	__ZL22switchToBinaryProtocolv:
   9              	LFB90:
  10              		.cfi_startproc
  11 0000 83EC1C   		subl	$28, %esp
  12              		.cfi_def_cfa_offset 32
  13 0003 A1000000 		movl	__ZL6logger, %eax
  13      00
  14 0008 C7442404 		movl	$LC0, 4(%esp)
  14      00000000 
  15 0010 890424   		movl	%eax, (%esp)
  16 0013 E8000000 		call	__Z11scheduleMsgP7LoggingPKcz
  16      00
  17 0018 C6050000 		movb	$1, _consoleInBinaryMode
  17      000001
  18 001f 83C41C   		addl	$28, %esp
  19              		.cfi_def_cfa_offset 4
  20 0022 C3       		ret
  21              		.cfi_endproc
  22              	LFE90:
  23 0023 90909090 		.section	.text$_Z16isSerialOverUartv,"x"
  23      90909090 
  23      90909090 
  23      90
  24              		.p2align 4,,15
  25              		.globl	__Z16isSerialOverUartv
  26              		.def	__Z16isSerialOverUartv;	.scl	2;	.type	32;	.endef
  27              	__Z16isSerialOverUartv:
  28              	LFB86:
  29              		.cfi_startproc
  30 0000 0FB60500 		movzbl	__ZL19is_serial_over_uart, %eax
  30      000000
  31 0007 C3       		ret
  32              		.cfi_endproc
  33              	LFE86:
  34 0008 90909090 		.section	.text$_Z14consolePutChari,"x"
  34      90909090 
  35              		.p2align 4,,15
  36              		.globl	__Z14consolePutChari
  37              		.def	__Z14consolePutChari;	.scl	2;	.type	32;	.endef
  38              	__Z14consolePutChari:
  39              	LFB88:
  40              		.cfi_startproc
  41 0000 53       		pushl	%ebx
  42              		.cfi_def_cfa_offset 8
  43              		.cfi_offset 3, -8
  44 0001 83EC18   		subl	$24, %esp
GAS LISTING /cygdrive/c/Users/pc/AppData/Local/Temp/ccLvDKVi.s 			page 2


  45              		.cfi_def_cfa_offset 32
  46 0004 E8000000 		call	__Z17getConsoleChannelv
  46      00
  47 0009 8B00     		movl	(%eax), %eax
  48 000b 8B5808   		movl	8(%eax), %ebx
  49 000e E8000000 		call	__Z17getConsoleChannelv
  49      00
  50 0013 0FB65424 		movzbl	32(%esp), %edx
  50      20
  51 0018 89542404 		movl	%edx, 4(%esp)
  52 001c 890424   		movl	%eax, (%esp)
  53 001f FFD3     		call	*%ebx
  54 0021 83C418   		addl	$24, %esp
  55              		.cfi_def_cfa_offset 8
  56 0024 5B       		popl	%ebx
  57              		.cfi_restore 3
  58              		.cfi_def_cfa_offset 4
  59 0025 C3       		ret
  60              		.cfi_endproc
  61              	LFE88:
  62 0026 90909090 		.section .rdata,"dr"
  62      90909090 
  62      9090
  63              	LC1:
  64 001d 636F6E73 		.ascii "console thread\0"
  64      6F6C6520 
  64      74687265 
  64      616400
  65              	LC2:
  66 002c 6C6F7773 		.ascii "lowstck#9e\0"
  66      74636B23 
  66      396500
  67              		.section	.text$_ZL29consoleThreadThreadEntryPointPv,"x"
  68              		.p2align 4,,15
  69              		.def	__ZL29consoleThreadThreadEntryPointPv;	.scl	3;	.type	32;	.endef
  70              	__ZL29consoleThreadThreadEntryPointPv:
  71              	LFB87:
  72              		.cfi_startproc
  73 0000 55       		pushl	%ebp
  74              		.cfi_def_cfa_offset 8
  75              		.cfi_offset 5, -8
  76 0001 57       		pushl	%edi
  77              		.cfi_def_cfa_offset 12
  78              		.cfi_offset 7, -12
  79 0002 56       		pushl	%esi
  80              		.cfi_def_cfa_offset 16
  81              		.cfi_offset 6, -16
  82 0003 53       		pushl	%ebx
  83              		.cfi_def_cfa_offset 20
  84              		.cfi_offset 3, -20
  85 0004 83EC1C   		subl	$28, %esp
  86              		.cfi_def_cfa_offset 48
  87 0007 A1180000 		movl	_rlist+24, %eax
  87      00
  88 000c C740181D 		movl	$LC1, 24(%eax)
  88      000000
  89 0013 E8000000 		call	__Z17getConsoleChannelv
GAS LISTING /cygdrive/c/Users/pc/AppData/Local/Temp/ccLvDKVi.s 			page 3


  89      00
  90 0018 C7050400 		movl	$_buffer, _binaryConsole+4
  90      00000000 
  90      0000
  91 0022 A3000000 		movl	%eax, _binaryConsole
  91      00
  92              		.p2align 4,,7
  93              	L27:
  94 0027 A1180000 		movl	_rlist+24, %eax
  94      00
  95 002c 890424   		movl	%eax, (%esp)
  96 002f E8000000 		call	_getRemainingStack
  96      00
  97 0034 3D000100 		cmpl	$256, %eax
  97      00
  98 0039 0F8E5801 		jle	L30
  98      0000
  99 003f E8000000 		call	__Z17getConsoleChannelv
  99      00
 100 0044 BF000000 		movl	$__ZL12consoleInput, %edi
 100      00
 101 0049 89C6     		movl	%eax, %esi
 102 004b 908D7426 		.p2align 4,,7
 102      00
 103              	L28:
 104 0050 E8000000 		call	__Z14isConsoleReadyv
 104      00
 105 0055 84C0     		testb	%al, %al
 106 0057 746C     		je	L33
 107              	L9:
 108 0059 8B06     		movl	(%esi), %eax
 109 005b 893424   		movl	%esi, (%esp)
 110 005e FF500C   		call	*12(%eax)
 111 0061 803D0000 		cmpb	$0, __ZL19is_serial_over_uart
 111      000000
 112 0068 89C5     		movl	%eax, %ebp
 113 006a 89C3     		movl	%eax, %ebx
 114 006c 7568     		jne	L34
 115              	L11:
 116 006e 6683FB04 		cmpw	$4, %bx
 117 0072 74B3     		je	L27
 118 0074 89D8     		movl	%ebx, %eax
 119 0076 66C1E80F 		shrw	$15, %ax
 120 007a 84C0     		testb	%al, %al
 121 007c 75A9     		jne	L27
 122 007e 6683FB08 		cmpw	$8, %bx
 123 0082 746F     		je	L35
 124 0084 6683FB0D 		cmpw	$13, %bx
 125 0088 0F84A200 		je	L36
 125      0000
 126 008e 6683FB0A 		cmpw	$10, %bx
 127 0092 0F84EE00 		je	L37
 127      0000
 128 0098 6683FB1F 		cmpw	$31, %bx
 129 009c 7EB2     		jle	L28
 130 009e 81FF4E00 		cmpl	$__ZL12consoleInput+78, %edi
 130      0000
GAS LISTING /cygdrive/c/Users/pc/AppData/Local/Temp/ccLvDKVi.s 			page 4


 131 00a4 73AA     		jae	L28
 132 00a6 89E8     		movl	%ebp, %eax
 133 00a8 25FF0000 		andl	$255, %eax
 133      00
 134 00ad 890424   		movl	%eax, (%esp)
 135 00b0 E8000000 		call	__Z14consolePutChari
 135      00
 136 00b5 89E8     		movl	%ebp, %eax
 137 00b7 8807     		movb	%al, (%edi)
 138 00b9 83C701   		addl	$1, %edi
 139 00bc E8000000 		call	__Z14isConsoleReadyv
 139      00
 140 00c1 84C0     		testb	%al, %al
 141 00c3 7594     		jne	L9
 142              		.p2align 4,,7
 143              	L33:
 144 00c5 C70424E8 		movl	$1000, (%esp)
 144      030000
 145 00cc E8000000 		call	_chThdSleep
 145      00
 146 00d1 E97AFFFF 		jmp	L28
 146      FF
 147              		.p2align 4,,7
 148              	L34:
 149              	/APP
 150              	 # 63 "../firmware/console/console_io.cpp" 1
 151 00d6 90       		nop
 152              	 # 0 "" 2
 153              	/NO_APP
 154 00d7 E8000000 		call	_dbg_check_lock
 154      00
 155 00dc C7042400 		movl	$__ZL20consoleEventListener, (%esp)
 155      000000
 156 00e3 E8000000 		call	_chEvtGetAndClearFlagsI
 156      00
 157 00e8 E8000000 		call	_dbg_check_unlock
 157      00
 158              	/APP
 159              	 # 67 "../firmware/console/console_io.cpp" 1
 160 00ed 90       		nop
 161              	 # 0 "" 2
 162              	/NO_APP
 163 00ee E97BFFFF 		jmp	L11
 163      FF
 164              		.p2align 4,,7
 165              	L35:
 166 00f3 81FF0000 		cmpl	$__ZL12consoleInput, %edi
 166      0000
 167              		.p2align 4,,2
 168 00f9 0F8451FF 		je	L28
 168      FFFF
 169 00ff 81E5FF00 		andl	$255, %ebp
 169      0000
 170 0105 83EF01   		subl	$1, %edi
 171 0108 892C24   		movl	%ebp, (%esp)
 172 010b E8000000 		call	__Z14consolePutChari
 172      00
GAS LISTING /cygdrive/c/Users/pc/AppData/Local/Temp/ccLvDKVi.s 			page 5


 173 0110 C7042420 		movl	$32, (%esp)
 173      000000
 174 0117 E8000000 		call	__Z14consolePutChari
 174      00
 175 011c 892C24   		movl	%ebp, (%esp)
 176 011f E8000000 		call	__Z14consolePutChari
 176      00
 177 0124 E927FFFF 		jmp	L28
 177      FF
 178 0129 8DB42600 		.p2align 4,,7
 178      000000
 179              	L36:
 180 0130 C704240D 		movl	$13, (%esp)
 180      000000
 181 0137 E8000000 		call	__Z14consolePutChari
 181      00
 182 013c C704240A 		movl	$10, (%esp)
 182      000000
 183 0143 E8000000 		call	__Z14consolePutChari
 183      00
 184 0148 C60700   		movb	$0, (%edi)
 185              	L15:
 186 014b C7042400 		movl	$__ZL12consoleInput, (%esp)
 186      000000
 187 0152 E8000000 		call	_efiTrim
 187      00
 188 0157 890424   		movl	%eax, (%esp)
 189 015a FF150000 		call	*_console_line_callback
 189      0000
 190 0160 803D0000 		cmpb	$0, _consoleInBinaryMode
 190      000000
 191 0167 0F84BAFE 		je	L27
 191      FFFF
 192 016d C7442404 		movl	$1, 4(%esp)
 192      01000000 
 193 0175 C7042400 		movl	$_binaryConsole, (%esp)
 193      000000
 194 017c E8000000 		call	__Z21runBinaryProtocolLoopP12ts_channel_sb
 194      00
 195 0181 E9A1FEFF 		jmp	L27
 195      FF
 196              		.p2align 4,,7
 197              	L37:
 198 0186 C704240A 		movl	$10, (%esp)
 198      000000
 199 018d E8000000 		call	__Z14consolePutChari
 199      00
 200 0192 C60700   		movb	$0, (%edi)
 201 0195 EBB4     		jmp	L15
 202              	L30:
 203 0197 C704242C 		movl	$LC2, (%esp)
 203      000000
 204 019e E8000000 		call	_firmwareError
 204      00
 205 01a3 83C41C   		addl	$28, %esp
 206              		.cfi_def_cfa_offset 20
 207 01a6 31C0     		xorl	%eax, %eax
GAS LISTING /cygdrive/c/Users/pc/AppData/Local/Temp/ccLvDKVi.s 			page 6


 208 01a8 5B       		popl	%ebx
 209              		.cfi_restore 3
 210              		.cfi_def_cfa_offset 16
 211 01a9 5E       		popl	%esi
 212              		.cfi_restore 6
 213              		.cfi_def_cfa_offset 12
 214 01aa 5F       		popl	%edi
 215              		.cfi_restore 7
 216              		.cfi_def_cfa_offset 8
 217 01ab 5D       		popl	%ebp
 218              		.cfi_restore 5
 219              		.cfi_def_cfa_offset 4
 220 01ac C3       		ret
 221              		.cfi_endproc
 222              	LFE87:
 223 01ad 909090   		.section	.text$_Z19consoleOutputBufferPKhi,"x"
 224              		.p2align 4,,15
 225              		.globl	__Z19consoleOutputBufferPKhi
 226              		.def	__Z19consoleOutputBufferPKhi;	.scl	2;	.type	32;	.endef
 227              	__Z19consoleOutputBufferPKhi:
 228              	LFB89:
 229              		.cfi_startproc
 230 0000 83EC1C   		subl	$28, %esp
 231              		.cfi_def_cfa_offset 32
 232 0003 895C2414 		movl	%ebx, 20(%esp)
 233              		.cfi_offset 3, -12
 234 0007 8B5C2424 		movl	36(%esp), %ebx
 235 000b 89742418 		movl	%esi, 24(%esp)
 236              		.cfi_offset 6, -8
 237 000f 891D0000 		movl	%ebx, _lastWriteSize
 237      0000
 238 0015 E8000000 		call	__Z17getConsoleChannelv
 238      00
 239 001a 8B00     		movl	(%eax), %eax
 240 001c 8B7018   		movl	24(%eax), %esi
 241 001f E8000000 		call	__Z17getConsoleChannelv
 241      00
 242 0024 8B542420 		movl	32(%esp), %edx
 243 0028 895C2408 		movl	%ebx, 8(%esp)
 244 002c C744240C 		movl	$10000, 12(%esp)
 244      10270000 
 245 0034 89542404 		movl	%edx, 4(%esp)
 246 0038 890424   		movl	%eax, (%esp)
 247 003b FFD6     		call	*%esi
 248 003d 8B5C2414 		movl	20(%esp), %ebx
 249 0041 8B742418 		movl	24(%esp), %esi
 250 0045 A3000000 		movl	%eax, _lastWriteActual
 250      00
 251 004a 83C41C   		addl	$28, %esp
 252              		.cfi_restore 6
 253              		.cfi_restore 3
 254              		.cfi_def_cfa_offset 4
 255 004d C3       		ret
 256              		.cfi_endproc
 257              	LFE89:
 258 004e 9090     		.section .rdata,"dr"
 259              	LC3:
GAS LISTING /cygdrive/c/Users/pc/AppData/Local/Temp/ccLvDKVi.s 			page 7


 260 0037 7E00     		.ascii "~\0"
 261 0039 000000   		.section	.text$_Z12startConsoleP7LoggingPFvPcE,"x"
 262              		.p2align 4,,15
 263              		.globl	__Z12startConsoleP7LoggingPFvPcE
 264              		.def	__Z12startConsoleP7LoggingPFvPcE;	.scl	2;	.type	32;	.endef
 265              	__Z12startConsoleP7LoggingPFvPcE:
 266              	LFB91:
 267              		.cfi_startproc
 268 0000 83EC2C   		subl	$44, %esp
 269              		.cfi_def_cfa_offset 48
 270 0003 8B442430 		movl	48(%esp), %eax
 271 0007 C7442410 		movl	$0, 16(%esp)
 271      00000000 
 272 000f C744240C 		movl	$__ZL29consoleThreadThreadEntryPointPv, 12(%esp)
 272      00000000 
 273 0017 C7442408 		movl	$64, 8(%esp)
 273      40000000 
 274 001f A3000000 		movl	%eax, __ZL6logger
 274      00
 275 0024 8B442434 		movl	52(%esp), %eax
 276 0028 C7442404 		movl	$19264, 4(%esp)
 276      404B0000 
 277 0030 C7042400 		movl	$__ZL18consoleThreadStack, (%esp)
 277      000000
 278 0037 C6050000 		movb	$0, __ZL19is_serial_over_uart
 278      000000
 279 003e A3000000 		movl	%eax, _console_line_callback
 279      00
 280 0043 E8000000 		call	_chThdCreateStatic
 280      00
 281 0048 C7442434 		movl	$__ZL22switchToBinaryProtocolv, 52(%esp)
 281      00000000 
 282 0050 C7442430 		movl	$LC3, 48(%esp)
 282      37000000 
 283 0058 83C42C   		addl	$44, %esp
 284              		.cfi_def_cfa_offset 4
 285 005b E9000000 		jmp	_addConsoleAction
 285      00
 286              		.cfi_endproc
 287              	LFE91:
 288              		.section	.text$lockAnyContext,"x"
 289              		.p2align 4,,15
 290              		.globl	_lockAnyContext
 291              		.def	_lockAnyContext;	.scl	2;	.type	32;	.endef
 292              	_lockAnyContext:
 293              	LFB92:
 294              		.cfi_startproc
 295 0000 8B150000 		movl	_dbg_lock_cnt, %edx
 295      0000
 296 0006 B8010000 		movl	$1, %eax
 296      00
 297 000b 85D2     		testl	%edx, %edx
 298 000d 7E01     		jle	L49
 299 000f C3       		ret
 300              		.p2align 4,,7
 301              	L49:
 302 0010 83EC0C   		subl	$12, %esp
GAS LISTING /cygdrive/c/Users/pc/AppData/Local/Temp/ccLvDKVi.s 			page 8


 303              		.cfi_def_cfa_offset 16
 304 0013 A1000000 		movl	_dbg_isr_cnt, %eax
 304      00
 305 0018 85C0     		testl	%eax, %eax
 306 001a 7E0B     		jle	L44
 307 001c E8000000 		call	_dbg_check_lock_from_isr
 307      00
 308 0021 31C0     		xorl	%eax, %eax
 309              	L43:
 310 0023 83C40C   		addl	$12, %esp
 311              		.cfi_remember_state
 312              		.cfi_def_cfa_offset 4
 313 0026 C3       		ret
 314              		.p2align 4,,7
 315              	L44:
 316              		.cfi_restore_state
 317              	/APP
 318              	 # 271 "../firmware/console/console_io.cpp" 1
 319 0027 90       		nop
 320              	 # 0 "" 2
 321              	/NO_APP
 322 0028 E8000000 		call	_dbg_check_lock
 322      00
 323 002d 31C0     		xorl	%eax, %eax
 324 002f 90       		.p2align 4,,2
 325 0030 EBF1     		jmp	L43
 326              		.cfi_endproc
 327              	LFE92:
 328 0032 90909090 		.section	.text$lockOutputBuffer,"x"
 328      90909090 
 328      90909090 
 328      9090
 329              		.p2align 4,,15
 330              		.globl	_lockOutputBuffer
 331              		.def	_lockOutputBuffer;	.scl	2;	.type	32;	.endef
 332              	_lockOutputBuffer:
 333              	LFB93:
 334              		.cfi_startproc
 335 0000 E9000000 		jmp	_lockAnyContext
 335      00
 336              		.cfi_endproc
 337              	LFE93:
 338 0005 90909090 		.section	.text$unlockAnyContext,"x"
 338      90909090 
 338      909090
 339              		.p2align 4,,15
 340              		.globl	_unlockAnyContext
 341              		.def	_unlockAnyContext;	.scl	2;	.type	32;	.endef
 342              	_unlockAnyContext:
 343              	LFB94:
 344              		.cfi_startproc
 345 0000 8B0D0000 		movl	_dbg_isr_cnt, %ecx
 345      0000
 346 0006 85C9     		testl	%ecx, %ecx
 347 0008 7E06     		jle	L52
 348 000a E9000000 		jmp	_dbg_check_unlock_from_isr
 348      00
GAS LISTING /cygdrive/c/Users/pc/AppData/Local/Temp/ccLvDKVi.s 			page 9


 349 000f 90       		.p2align 4,,7
 350              	L52:
 351 0010 83EC0C   		subl	$12, %esp
 352              		.cfi_def_cfa_offset 16
 353 0013 E8000000 		call	_dbg_check_unlock
 353      00
 354              	/APP
 355              	 # 286 "../firmware/console/console_io.cpp" 1
 356 0018 90       		nop
 357              	 # 0 "" 2
 358              	/NO_APP
 359 0019 83C40C   		addl	$12, %esp
 360              		.cfi_def_cfa_offset 4
 361 001c C3       		ret
 362              		.cfi_endproc
 363              	LFE94:
 364 001d 909090   		.section	.text$unlockOutputBuffer,"x"
 365              		.p2align 4,,15
 366              		.globl	_unlockOutputBuffer
 367              		.def	_unlockOutputBuffer;	.scl	2;	.type	32;	.endef
 368              	_unlockOutputBuffer:
 369              	LFB95:
 370              		.cfi_startproc
 371 0000 E9000000 		jmp	_unlockAnyContext
 371      00
 372              		.cfi_endproc
 373              	LFE95:
 374              		.globl	_buffer
 375 0005 90909090 		.section	.data$buffer,"w"
 375      90909090 
 375      909090
 376              		.align 32
 377              	_buffer:
 378 0000 00000000 		.space 9000
 378      00000000 
 378      00000000 
 378      00000000 
 378      00000000 
 379              		.globl	_binaryConsole
 380 2328 00000000 		.section	.data$binaryConsole,"w"
 380      00000000 
 380      00000000 
 380      00000000 
 380      00000000 
 381              		.align 32
 382              	_binaryConsole:
 383 0000 00000000 		.space 308
 383      00000000 
 383      00000000 
 383      00000000 
 383      00000000 
 384              		.globl	_consoleInBinaryMode
 385 0134 00000000 		.section	.data$consoleInBinaryMode,"w"
 385      00000000 
 385      00000000 
 386              	_consoleInBinaryMode:
 387 0000 00       		.space 1
GAS LISTING /cygdrive/c/Users/pc/AppData/Local/Temp/ccLvDKVi.s 			page 10


 388              		.globl	_console_line_callback
 389 0001 000000   		.section	.data$console_line_callback,"w"
 390              		.align 4
 391              	_console_line_callback:
 392 0000 00000000 		.space 4
 393              		.globl	_lastWriteActual
 394              		.section	.data$lastWriteActual,"w"
 395              		.align 4
 396              	_lastWriteActual:
 397 0000 00000000 		.space 4
 398              		.globl	_lastWriteSize
 399              		.section	.data$lastWriteSize,"w"
 400              		.align 4
 401              	_lastWriteSize:
 402 0000 00000000 		.space 4
 403              		.section	.data$_ZL19is_serial_over_uart,"w"
 404              	__ZL19is_serial_over_uart:
 405 0000 00       		.space 1
 406 0001 000000   		.section	.data$_ZL6logger,"w"
 407              		.align 4
 408              	__ZL6logger:
 409 0000 00000000 		.space 4
 410              		.section	.data$_ZL18consoleThreadStack,"w"
 411              		.align 32
 412              	__ZL18consoleThreadStack:
 413 0000 00000000 		.space 19264
 413      00000000 
 413      00000000 
 413      00000000 
 413      00000000 
 414              		.section	.data$_ZL12consoleInput,"w"
 415              		.align 32
 416              	__ZL12consoleInput:
 417 0000 20202020 		.ascii "                                                                              \0"
 417      20202020 
 417      20202020 
 417      20202020 
 417      20202020 
 418 004f 00000000 		.section	.data$_ZL20consoleEventListener,"w"
 418      00000000 
 418      00000000 
 418      00000000 
 418      00
 419              		.align 4
 420              	__ZL20consoleEventListener:
 421 0000 00000000 		.space 16
 421      00000000 
 421      00000000 
 421      00000000 
 422              		.def	__Z11scheduleMsgP7LoggingPKcz;	.scl	2;	.type	32;	.endef
 423              		.def	__Z17getConsoleChannelv;	.scl	2;	.type	32;	.endef
 424              		.def	_getRemainingStack;	.scl	2;	.type	32;	.endef
 425              		.def	__Z14isConsoleReadyv;	.scl	2;	.type	32;	.endef
 426              		.def	_chThdSleep;	.scl	2;	.type	32;	.endef
 427              		.def	_dbg_check_lock;	.scl	2;	.type	32;	.endef
 428              		.def	_chEvtGetAndClearFlagsI;	.scl	2;	.type	32;	.endef
 429              		.def	_dbg_check_unlock;	.scl	2;	.type	32;	.endef
GAS LISTING /cygdrive/c/Users/pc/AppData/Local/Temp/ccLvDKVi.s 			page 11


 430              		.def	_efiTrim;	.scl	2;	.type	32;	.endef
 431              		.def	__Z21runBinaryProtocolLoopP12ts_channel_sb;	.scl	2;	.type	32;	.endef
 432              		.def	_firmwareError;	.scl	2;	.type	32;	.endef
 433              		.def	_chThdCreateStatic;	.scl	2;	.type	32;	.endef
 434              		.def	_addConsoleAction;	.scl	2;	.type	32;	.endef
 435              		.def	_dbg_check_lock_from_isr;	.scl	2;	.type	32;	.endef
 436              		.def	_dbg_check_unlock_from_isr;	.scl	2;	.type	32;	.endef
GAS LISTING /cygdrive/c/Users/pc/AppData/Local/Temp/ccLvDKVi.s 			page 12

