GAS LISTING /cygdrive/c/Users/pc/AppData/Local/Temp/ccOADDMp.s 			page 1


   1              		.file	"custom_engine.cpp"
   2              		.section	.text$_Z28setCustomEngineConfigurationv,"x"
   3              		.p2align 4,,15
   4              		.globl	__Z28setCustomEngineConfigurationv
   5              		.def	__Z28setCustomEngineConfigurationv;	.scl	2;	.type	32;	.endef
   6              	__Z28setCustomEngineConfigurationv:
   7              	LFB85:
   8              		.cfi_startproc
   9 0000 83EC2C   		subl	$44, %esp
  10              		.cfi_def_cfa_offset 48
  11 0003 A1000000 		movl	_engineConfiguration, %eax
  11      00
  12 0008 C7801802 		movl	$16, 536(%eax)
  12      00001000 
  12      0000
  13 0012 A1000000 		movl	_boardConfiguration, %eax
  13      00
  14 0017 890424   		movl	%eax, (%esp)
  15 001a E8000000 		call	__Z19setFrankenso_01_LCDP21board_configuration_s
  15      00
  16 001f A1000000 		movl	_engineConfiguration, %eax
  16      00
  17 0024 890424   		movl	%eax, (%esp)
  18 0027 E8000000 		call	__Z24setFrankenso0_1_joystickP22engine_configuration_s
  18      00
  19 002c A1000000 		movl	_engineConfiguration, %eax
  19      00
  20 0031 C7800C02 		movl	$2, 524(%eax)
  20      00000200 
  20      0000
  21 003b C780FC00 		movl	$0, 252(%eax)
  21      00000000 
  21      0000
  22 0045 C7801C01 		movl	$12, 284(%eax)
  22      00000C00 
  22      0000
  23 004f C7803C01 		movl	$11, 316(%eax)
  23      00000B00 
  23      0000
  24 0059 C7804802 		movl	$13, 584(%eax)
  24      00000D00 
  24      0000
  25 0063 05000100 		addl	$256, %eax
  25      00
  26 0068 890424   		movl	%eax, (%esp)
  27 006b E8000000 		call	__Z18setCommonNTCSensorP14ThermistorConf
  27      00
  28 0070 A1000000 		movl	_engineConfiguration, %eax
  28      00
  29 0075 D9050000 		flds	LC0
  29      0000
  30 007b D9901801 		fsts	280(%eax)
  30      0000
  31 0081 05200100 		addl	$288, %eax
  31      00
  32 0086 890424   		movl	%eax, (%esp)
  33 0089 D95C2410 		fstps	16(%esp)
GAS LISTING /cygdrive/c/Users/pc/AppData/Local/Temp/ccOADDMp.s 			page 2


  34 008d E8000000 		call	__Z18setCommonNTCSensorP14ThermistorConf
  34      00
  35 0092 A1000000 		movl	_boardConfiguration, %eax
  35      00
  36 0097 8B150000 		movl	_engineConfiguration, %edx
  36      0000
  37 009d D9442410 		flds	16(%esp)
  38 00a1 D99A3801 		fstps	312(%edx)
  38      0000
  39 00a7 C7401844 		movl	$68, 24(%eax)
  39      000000
  40 00ae C7803401 		movl	$55, 308(%eax)
  40      00003700 
  40      0000
  41 00b8 C7002D00 		movl	$45, (%eax)
  41      0000
  42 00be C7809000 		movl	$69, 144(%eax)
  42      00004500 
  42      0000
  43 00c8 C7402019 		movl	$25, 32(%eax)
  43      000000
  44 00cf C7402442 		movl	$66, 36(%eax)
  44      000000
  45 00d6 C7402818 		movl	$24, 40(%eax)
  45      000000
  46 00dd C7402C17 		movl	$23, 44(%eax)
  46      000000
  47 00e4 C7403050 		movl	$80, 48(%eax)
  47      000000
  48 00eb C7403450 		movl	$80, 52(%eax)
  48      000000
  49 00f2 C7403850 		movl	$80, 56(%eax)
  49      000000
  50 00f9 C7403C50 		movl	$80, 60(%eax)
  50      000000
  51 0100 C7404050 		movl	$80, 64(%eax)
  51      000000
  52 0107 C7404450 		movl	$80, 68(%eax)
  52      000000
  53 010e C7404850 		movl	$80, 72(%eax)
  53      000000
  54 0115 C7404C50 		movl	$80, 76(%eax)
  54      000000
  55 011c C740544E 		movl	$78, 84(%eax)
  55      000000
  56 0123 C7405850 		movl	$80, 88(%eax)
  56      000000
  57 012a C7405C27 		movl	$39, 92(%eax)
  57      000000
  58 0131 C7406050 		movl	$80, 96(%eax)
  58      000000
  59 0138 C782D401 		movl	$0x4109999a, 468(%edx)
  59      00009A99 
  59      0941
  60 0142 83C42C   		addl	$44, %esp
  61              		.cfi_def_cfa_offset 4
  62 0145 C3       		ret
GAS LISTING /cygdrive/c/Users/pc/AppData/Local/Temp/ccOADDMp.s 			page 3


  63              		.cfi_endproc
  64              	LFE85:
  65 0146 90909090 		.section .rdata,"dr"
  65      90909090 
  65      9090
  66              		.align 4
  67              	LC0:
  68 0000 00C02845 		.long	1160298496
  69              		.def	__Z19setFrankenso_01_LCDP21board_configuration_s;	.scl	2;	.type	32;	.endef
  70              		.def	__Z24setFrankenso0_1_joystickP22engine_configuration_s;	.scl	2;	.type	32;	.endef
  71              		.def	__Z18setCommonNTCSensorP14ThermistorConf;	.scl	2;	.type	32;	.endef
GAS LISTING /cygdrive/c/Users/pc/AppData/Local/Temp/ccOADDMp.s 			page 4


DEFINED SYMBOLS
                            *ABS*:00000000 custom_engine.cpp
/cygdrive/c/Users/pc/AppData/Local/Temp/ccOADDMp.s:6      .text$_Z28setCustomEngineConfigurationv:00000000 __Z28setCustomEngineConfigurationv

UNDEFINED SYMBOLS
_engineConfiguration
_boardConfiguration
__Z19setFrankenso_01_LCDP21board_configuration_s
__Z24setFrankenso0_1_joystickP22engine_configuration_s
__Z18setCommonNTCSensorP14ThermistorConf
