GAS LISTING /cygdrive/c/Users/pc/AppData/Local/Temp/ccGArBTx.s 			page 1


   1              		.file	"datalogging.cpp"
   2              		.section .rdata,"dr"
   3              	LC0:
   4 0000 61707065 		.ascii "append NULL\0"
   4      6E64204E 
   4      554C4C00 
   5              	LC1:
   6 000c 4C6F6767 		.ascii "Logging not initialized: %s\0"
   6      696E6720 
   6      6E6F7420 
   6      696E6974 
   6      69616C69 
   7              		.section	.text$append,"x"
   8              		.p2align 4,,15
   9              		.globl	_append
  10              		.def	_append;	.scl	2;	.type	32;	.endef
  11              	_append:
  12              	LFB56:
  13              		.cfi_startproc
  14 0000 83EC1C   		subl	$28, %esp
  15              		.cfi_def_cfa_offset 32
  16 0003 89742414 		movl	%esi, 20(%esp)
  17              		.cfi_offset 6, -12
  18 0007 8B742424 		movl	36(%esp), %esi
  19 000b 895C2410 		movl	%ebx, 16(%esp)
  20              		.cfi_offset 3, -16
  21 000f 8B5C2420 		movl	32(%esp), %ebx
  22 0013 897C2418 		movl	%edi, 24(%esp)
  23              		.cfi_offset 7, -8
  24 0017 85F6     		testl	%esi, %esi
  25 0019 7445     		je	L9
  26 001b 893424   		movl	%esi, (%esp)
  27 001e E8000000 		call	_efiStrlen
  27      00
  28 0023 8B532C   		movl	44(%ebx), %edx
  29 0026 85D2     		testl	%edx, %edx
  30 0028 89C7     		movl	%eax, %edi
  31 002a 7454     		je	L10
  32 002c 8B4330   		movl	48(%ebx), %eax
  33 002f 8D4F01   		leal	1(%edi), %ecx
  34 0032 29C2     		subl	%eax, %edx
  35 0034 035334   		addl	52(%ebx), %edx
  36 0037 39CA     		cmpl	%ecx, %edx
  37 0039 720F     		jb	L1
  38 003b 89742404 		movl	%esi, 4(%esp)
  39 003f 890424   		movl	%eax, (%esp)
  40 0042 E8000000 		call	_strcpy
  40      00
  41 0047 017B30   		addl	%edi, 48(%ebx)
  42              	L1:
  43 004a 8B5C2410 		movl	16(%esp), %ebx
  44 004e 8B742414 		movl	20(%esp), %esi
  45 0052 8B7C2418 		movl	24(%esp), %edi
  46 0056 83C41C   		addl	$28, %esp
  47              		.cfi_remember_state
  48              		.cfi_restore 7
  49              		.cfi_restore 6
GAS LISTING /cygdrive/c/Users/pc/AppData/Local/Temp/ccGArBTx.s 			page 2


  50              		.cfi_restore 3
  51              		.cfi_def_cfa_offset 4
  52 0059 C3       		ret
  53 005a 8DB60000 		.p2align 4,,7
  53      0000
  54              	L9:
  55              		.cfi_restore_state
  56 0060 8B5C2410 		movl	16(%esp), %ebx
  57 0064 8B742414 		movl	20(%esp), %esi
  58 0068 8B7C2418 		movl	24(%esp), %edi
  59 006c C7442420 		movl	$LC0, 32(%esp)
  59      00000000 
  60 0074 83C41C   		addl	$28, %esp
  61              		.cfi_remember_state
  62              		.cfi_restore 7
  63              		.cfi_restore 6
  64              		.cfi_restore 3
  65              		.cfi_def_cfa_offset 4
  66 0077 E9000000 		jmp	_firmwareError
  66      00
  67 007c 8D742600 		.p2align 4,,7
  68              	L10:
  69              		.cfi_restore_state
  70 0080 8B03     		movl	(%ebx), %eax
  71 0082 8B742414 		movl	20(%esp), %esi
  72 0086 8B5C2410 		movl	16(%esp), %ebx
  73 008a 8B7C2418 		movl	24(%esp), %edi
  74 008e 89442424 		movl	%eax, 36(%esp)
  75 0092 C7442420 		movl	$LC1, 32(%esp)
  75      0C000000 
  76 009a 83C41C   		addl	$28, %esp
  77              		.cfi_restore 7
  78              		.cfi_restore 6
  79              		.cfi_restore 3
  80              		.cfi_def_cfa_offset 4
  81 009d E9000000 		jmp	_firmwareError
  81      00
  82              		.cfi_endproc
  83              	LFE56:
  84 00a2 90909090 		.section	.text$appendFast,"x"
  84      90909090 
  84      90909090 
  84      9090
  85              		.p2align 4,,15
  86              		.globl	_appendFast
  87              		.def	_appendFast;	.scl	2;	.type	32;	.endef
  88              	_appendFast:
  89              	LFB57:
  90              		.cfi_startproc
  91 0000 56       		pushl	%esi
  92              		.cfi_def_cfa_offset 8
  93              		.cfi_offset 6, -8
  94 0001 53       		pushl	%ebx
  95              		.cfi_def_cfa_offset 12
  96              		.cfi_offset 3, -12
  97 0002 8B542410 		movl	16(%esp), %edx
  98 0006 8B74240C 		movl	12(%esp), %esi
GAS LISTING /cygdrive/c/Users/pc/AppData/Local/Temp/ccGArBTx.s 			page 3


  99 000a 0FB61A   		movzbl	(%edx), %ebx
 100 000d 84DB     		testb	%bl, %bl
 101 000f 7426     		je	L16
 102 0011 89D0     		movl	%edx, %eax
 103              		.p2align 4,,7
 104              	L13:
 105 0013 83C001   		addl	$1, %eax
 106 0016 803800   		cmpb	$0, (%eax)
 107 0019 75F8     		jne	L13
 108 001b 29D0     		subl	%edx, %eax
 109              	L12:
 110 001d 8B4E30   		movl	48(%esi), %ecx
 111 0020 EB03     		jmp	L15
 112              		.p2align 4,,7
 113              	L19:
 114 0022 0FB61A   		movzbl	(%edx), %ebx
 115              	L15:
 116 0025 8819     		movb	%bl, (%ecx)
 117 0027 83C201   		addl	$1, %edx
 118 002a 83C101   		addl	$1, %ecx
 119 002d 84DB     		testb	%bl, %bl
 120 002f 75F1     		jne	L19
 121 0031 014630   		addl	%eax, 48(%esi)
 122 0034 5B       		popl	%ebx
 123              		.cfi_remember_state
 124              		.cfi_restore 3
 125              		.cfi_def_cfa_offset 8
 126 0035 5E       		popl	%esi
 127              		.cfi_restore 6
 128              		.cfi_def_cfa_offset 4
 129 0036 C3       		ret
 130              	L16:
 131              		.cfi_restore_state
 132 0037 31C0     		xorl	%eax, %eax
 133 0039 EBE2     		jmp	L12
 134              		.cfi_endproc
 135              	LFE57:
 136 003b 90909090 		.section .rdata,"dr"
 136      90
 137              	LC2:
 138 0028 6C6F7773 		.ascii "lowstck#5b\0"
 138      74636B23 
 138      356200
 139 0033 00       		.align 4
 140              	LC3:
 141 0034 696E7465 		.ascii "intermediateLoggingBufferInited not inited!\0"
 141      726D6564 
 141      69617465 
 141      4C6F6767 
 141      696E6742 
 142              	LC4:
 143 0060 6C6F7773 		.ascii "lowstck#1b\0"
 143      74636B23 
 143      316200
 144              		.section	.text$vappendPrintf,"x"
 145              		.p2align 4,,15
 146              		.globl	_vappendPrintf
GAS LISTING /cygdrive/c/Users/pc/AppData/Local/Temp/ccGArBTx.s 			page 4


 147              		.def	_vappendPrintf;	.scl	2;	.type	32;	.endef
 148              	_vappendPrintf:
 149              	LFB59:
 150              		.cfi_startproc
 151 0000 83EC2C   		subl	$44, %esp
 152              		.cfi_def_cfa_offset 48
 153 0003 A1180000 		movl	_rlist+24, %eax
 153      00
 154 0008 895C241C 		movl	%ebx, 28(%esp)
 155              		.cfi_offset 3, -20
 156 000c 8B5C2430 		movl	48(%esp), %ebx
 157 0010 89742420 		movl	%esi, 32(%esp)
 158              		.cfi_offset 6, -16
 159 0014 8B742434 		movl	52(%esp), %esi
 160 0018 897C2424 		movl	%edi, 36(%esp)
 161              		.cfi_offset 7, -12
 162 001c 8B7C2438 		movl	56(%esp), %edi
 163 0020 890424   		movl	%eax, (%esp)
 164 0023 896C2428 		movl	%ebp, 40(%esp)
 165              		.cfi_offset 5, -8
 166 0027 E8000000 		call	_getRemainingStack
 166      00
 167 002c 83C080   		addl	$-128, %eax
 168 002f 0F8E9B00 		jle	L28
 168      0000
 169 0035 803D0000 		cmpb	$0, __ZL31intermediateLoggingBufferInited
 169      000000
 170 003c 7472     		je	L29
 171 003e E8000000 		call	_lockAnyContext
 171      00
 172 0043 C7050C00 		movl	$0, __ZL25intermediateLoggingBuffer+12
 172      00000000 
 172      0000
 173 004d 89C5     		movl	%eax, %ebp
 174 004f A1180000 		movl	_rlist+24, %eax
 174      00
 175 0054 890424   		movl	%eax, (%esp)
 176 0057 E8000000 		call	_getRemainingStack
 176      00
 177 005c 83C080   		addl	$-128, %eax
 178 005f 7E7F     		jle	L30
 179 0061 897C2408 		movl	%edi, 8(%esp)
 180 0065 89742404 		movl	%esi, 4(%esp)
 181 0069 C7042400 		movl	$__ZL25intermediateLoggingBuffer, (%esp)
 181      000000
 182 0070 E8000000 		call	_chvprintf
 182      00
 183 0075 A10C0000 		movl	__ZL25intermediateLoggingBuffer+12, %eax
 183      00
 184 007a 8B150400 		movl	__ZL25intermediateLoggingBuffer+4, %edx
 184      0000
 185 0080 C6040200 		movb	$0, (%edx,%eax)
 186 0084 C7442404 		movl	$__ZL29intermediateLoggingBufferData, 4(%esp)
 186      00000000 
 187 008c 891C24   		movl	%ebx, (%esp)
 188 008f E8000000 		call	_append
 188      00
GAS LISTING /cygdrive/c/Users/pc/AppData/Local/Temp/ccGArBTx.s 			page 5


 189 0094 89E8     		movl	%ebp, %eax
 190 0096 84C0     		testb	%al, %al
 191 0098 7458     		je	L31
 192              	L20:
 193 009a 8B5C241C 		movl	28(%esp), %ebx
 194 009e 8B742420 		movl	32(%esp), %esi
 195 00a2 8B7C2424 		movl	36(%esp), %edi
 196 00a6 8B6C2428 		movl	40(%esp), %ebp
 197 00aa 83C42C   		addl	$44, %esp
 198              		.cfi_remember_state
 199              		.cfi_restore 5
 200              		.cfi_restore 7
 201              		.cfi_restore 6
 202              		.cfi_restore 3
 203              		.cfi_def_cfa_offset 4
 204 00ad C3       		ret
 205 00ae 6690     		.p2align 4,,7
 206              	L29:
 207              		.cfi_restore_state
 208 00b0 C7442430 		movl	$LC3, 48(%esp)
 208      34000000 
 209              	L27:
 210 00b8 8B5C241C 		movl	28(%esp), %ebx
 211 00bc 8B742420 		movl	32(%esp), %esi
 212 00c0 8B7C2424 		movl	36(%esp), %edi
 213 00c4 8B6C2428 		movl	40(%esp), %ebp
 214 00c8 83C42C   		addl	$44, %esp
 215              		.cfi_remember_state
 216              		.cfi_restore 5
 217              		.cfi_restore 7
 218              		.cfi_restore 6
 219              		.cfi_restore 3
 220              		.cfi_def_cfa_offset 4
 221 00cb E9000000 		jmp	_firmwareError
 221      00
 222              		.p2align 4,,7
 223              	L28:
 224              		.cfi_restore_state
 225 00d0 C7442430 		movl	$LC2, 48(%esp)
 225      28000000 
 226 00d8 EBDE     		jmp	L27
 227 00da 8DB60000 		.p2align 4,,7
 227      0000
 228              	L30:
 229 00e0 C7042460 		movl	$LC4, (%esp)
 229      000000
 230 00e7 E8000000 		call	_firmwareError
 230      00
 231 00ec 89E8     		movl	%ebp, %eax
 232 00ee 84C0     		testb	%al, %al
 233 00f0 75A8     		jne	L20
 234              	L31:
 235 00f2 8B5C241C 		movl	28(%esp), %ebx
 236 00f6 8B742420 		movl	32(%esp), %esi
 237 00fa 8B7C2424 		movl	36(%esp), %edi
 238 00fe 8B6C2428 		movl	40(%esp), %ebp
 239 0102 83C42C   		addl	$44, %esp
GAS LISTING /cygdrive/c/Users/pc/AppData/Local/Temp/ccGArBTx.s 			page 6


 240              		.cfi_restore 5
 241              		.cfi_restore 7
 242              		.cfi_restore 6
 243              		.cfi_restore 3
 244              		.cfi_def_cfa_offset 4
 245 0105 E9000000 		jmp	_unlockAnyContext
 245      00
 246              		.cfi_endproc
 247              	LFE59:
 248 010a 90909090 		.section .rdata,"dr"
 248      9090
 249              	LC5:
 250 006b 6C6F7773 		.ascii "lowstck#4\0"
 250      74636B23 
 250      3400
 251              		.section	.text$appendPrintf,"x"
 252              		.p2align 4,,15
 253              		.globl	_appendPrintf
 254              		.def	_appendPrintf;	.scl	2;	.type	32;	.endef
 255              	_appendPrintf:
 256              	LFB60:
 257              		.cfi_startproc
 258 0000 83EC1C   		subl	$28, %esp
 259              		.cfi_def_cfa_offset 32
 260 0003 A1180000 		movl	_rlist+24, %eax
 260      00
 261 0008 890424   		movl	%eax, (%esp)
 262 000b E8000000 		call	_getRemainingStack
 262      00
 263 0010 83C080   		addl	$-128, %eax
 264 0013 7E20     		jle	L36
 265 0015 8D442428 		leal	40(%esp), %eax
 266 0019 89442408 		movl	%eax, 8(%esp)
 267 001d 8B442424 		movl	36(%esp), %eax
 268 0021 89442404 		movl	%eax, 4(%esp)
 269 0025 8B442420 		movl	32(%esp), %eax
 270 0029 890424   		movl	%eax, (%esp)
 271 002c E8000000 		call	_vappendPrintf
 271      00
 272 0031 83C41C   		addl	$28, %esp
 273              		.cfi_remember_state
 274              		.cfi_def_cfa_offset 4
 275 0034 C3       		ret
 276              		.p2align 4,,7
 277              	L36:
 278              		.cfi_restore_state
 279 0035 C704246B 		movl	$LC5, (%esp)
 279      000000
 280 003c E8000000 		call	_firmwareError
 280      00
 281 0041 83C41C   		addl	$28, %esp
 282              		.cfi_def_cfa_offset 4
 283 0044 C3       		ret
 284              		.cfi_endproc
 285              	LFE60:
 286 0045 90909090 		.section	.text$_Z13isInitializedP7Logging,"x"
 286      90909090 
GAS LISTING /cygdrive/c/Users/pc/AppData/Local/Temp/ccGArBTx.s 			page 7


 286      909090
 287              		.p2align 4,,15
 288              		.globl	__Z13isInitializedP7Logging
 289              		.def	__Z13isInitializedP7Logging;	.scl	2;	.type	32;	.endef
 290              	__Z13isInitializedP7Logging:
 291              	LFB62:
 292              		.cfi_startproc
 293 0000 8B442404 		movl	4(%esp), %eax
 294 0004 8B4038   		movl	56(%eax), %eax
 295 0007 3D0939B2 		cmpl	$45234441, %eax
 295      02
 296 000c 0F94C0   		sete	%al
 297 000f 0FB6C0   		movzbl	%al, %eax
 298 0012 C3       		ret
 299              		.cfi_endproc
 300              	LFE62:
 301 0013 90909090 		.section .rdata,"dr"
 301      90909090 
 301      90909090 
 301      90
 302              	LC6:
 303 0075 2C00     		.ascii ",\0"
 304              	LC7:
 305 0077 25642573 		.ascii "%d%s\0"
 305      00
 306              		.section	.text$_Z8debugIntP7LoggingPKci,"x"
 307              		.p2align 4,,15
 308              		.globl	__Z8debugIntP7LoggingPKci
 309              		.def	__Z8debugIntP7LoggingPKci;	.scl	2;	.type	32;	.endef
 310              	__Z8debugIntP7LoggingPKci:
 311              	LFB63:
 312              		.cfi_startproc
 313 0000 53       		pushl	%ebx
 314              		.cfi_def_cfa_offset 8
 315              		.cfi_offset 3, -8
 316 0001 83EC18   		subl	$24, %esp
 317              		.cfi_def_cfa_offset 32
 318 0004 8B5C2420 		movl	32(%esp), %ebx
 319 0008 8B442424 		movl	36(%esp), %eax
 320 000c 891C24   		movl	%ebx, (%esp)
 321 000f 89442404 		movl	%eax, 4(%esp)
 322 0013 E8000000 		call	_append
 322      00
 323 0018 891C24   		movl	%ebx, (%esp)
 324 001b C7442404 		movl	$LC6, 4(%esp)
 324      75000000 
 325 0023 E8000000 		call	_append
 325      00
 326 0028 8B442428 		movl	40(%esp), %eax
 327 002c 891C24   		movl	%ebx, (%esp)
 328 002f C744240C 		movl	$LC6, 12(%esp)
 328      75000000 
 329 0037 C7442404 		movl	$LC7, 4(%esp)
 329      77000000 
 330 003f 89442408 		movl	%eax, 8(%esp)
 331 0043 E8000000 		call	_appendPrintf
 331      00
GAS LISTING /cygdrive/c/Users/pc/AppData/Local/Temp/ccGArBTx.s 			page 8


 332 0048 83C418   		addl	$24, %esp
 333              		.cfi_def_cfa_offset 8
 334 004b 5B       		popl	%ebx
 335              		.cfi_restore 3
 336              		.cfi_def_cfa_offset 4
 337 004c C3       		ret
 338              		.cfi_endproc
 339              	LFE63:
 340 004d 909090   		.section .rdata,"dr"
 341              	LC8:
 342 007c 252E2E31 		.ascii "%..10f\0"
 342      306600
 343              	LC9:
 344 0083 252E2E31 		.ascii "%..100f\0"
 344      30306600 
 345              	LC10:
 346 008b 252E2E31 		.ascii "%..1000f\0"
 346      30303066 
 346      00
 347              	LC11:
 348 0094 252E2E31 		.ascii "%..10000f\0"
 348      30303030 
 348      6600
 349              	LC12:
 350 009e 252E2E31 		.ascii "%..100000f\0"
 350      30303030 
 350      306600
 351              	LC13:
 352 00a9 252E2E31 		.ascii "%..1000000f\0"
 352      30303030 
 352      30306600 
 353              	LC14:
 354 00b5 256600   		.ascii "%f\0"
 355              		.section	.text$_Z11appendFloatP7Loggingfi,"x"
 356              		.p2align 4,,15
 357              		.globl	__Z11appendFloatP7Loggingfi
 358              		.def	__Z11appendFloatP7Loggingfi;	.scl	2;	.type	32;	.endef
 359              	__Z11appendFloatP7Loggingfi:
 360              	LFB64:
 361              		.cfi_startproc
 362 0000 83EC1C   		subl	$28, %esp
 363              		.cfi_def_cfa_offset 32
 364 0003 8B442428 		movl	40(%esp), %eax
 365 0007 D9442424 		flds	36(%esp)
 366 000b DD5C2408 		fstpl	8(%esp)
 367 000f 83F806   		cmpl	$6, %eax
 368 0012 761C     		jbe	L51
 369              	L41:
 370 0014 8B442420 		movl	32(%esp), %eax
 371 0018 C7442404 		movl	$LC14, 4(%esp)
 371      B5000000 
 372 0020 890424   		movl	%eax, (%esp)
 373 0023 E8000000 		call	_appendPrintf
 373      00
 374 0028 83C41C   		addl	$28, %esp
 375              		.cfi_remember_state
 376              		.cfi_def_cfa_offset 4
GAS LISTING /cygdrive/c/Users/pc/AppData/Local/Temp/ccGArBTx.s 			page 9


 377 002b C3       		ret
 378 002c 8D742600 		.p2align 4,,7
 379              	L51:
 380              		.cfi_restore_state
 381 0030 FF2485B8 		jmp	*L48(,%eax,4)
 381      000000
 382              		.section .rdata,"dr"
 383              		.align 4
 384              	L48:
 385 00b8 14000000 		.long	L41
 386 00bc 50000000 		.long	L42
 387 00c0 68000000 		.long	L43
 388 00c4 80000000 		.long	L44
 389 00c8 98000000 		.long	L45
 390 00cc B0000000 		.long	L46
 391 00d0 37000000 		.long	L47
 392              		.section	.text$_Z11appendFloatP7Loggingfi,"x"
 393              		.p2align 4,,7
 394              	L47:
 395 0037 8B442420 		movl	32(%esp), %eax
 396 003b C7442404 		movl	$LC13, 4(%esp)
 396      A9000000 
 397 0043 890424   		movl	%eax, (%esp)
 398 0046 E8000000 		call	_appendPrintf
 398      00
 399 004b 83C41C   		addl	$28, %esp
 400              		.cfi_remember_state
 401              		.cfi_def_cfa_offset 4
 402 004e C3       		ret
 403 004f 90       		.p2align 4,,7
 404              	L42:
 405              		.cfi_restore_state
 406 0050 8B442420 		movl	32(%esp), %eax
 407 0054 C7442404 		movl	$LC8, 4(%esp)
 407      7C000000 
 408 005c 890424   		movl	%eax, (%esp)
 409 005f E8000000 		call	_appendPrintf
 409      00
 410 0064 83C41C   		addl	$28, %esp
 411              		.cfi_remember_state
 412              		.cfi_def_cfa_offset 4
 413 0067 C3       		ret
 414              		.p2align 4,,7
 415              	L43:
 416              		.cfi_restore_state
 417 0068 8B442420 		movl	32(%esp), %eax
 418 006c C7442404 		movl	$LC9, 4(%esp)
 418      83000000 
 419 0074 890424   		movl	%eax, (%esp)
 420 0077 E8000000 		call	_appendPrintf
 420      00
 421 007c 83C41C   		addl	$28, %esp
 422              		.cfi_remember_state
 423              		.cfi_def_cfa_offset 4
 424 007f C3       		ret
 425              		.p2align 4,,7
 426              	L44:
GAS LISTING /cygdrive/c/Users/pc/AppData/Local/Temp/ccGArBTx.s 			page 10


 427              		.cfi_restore_state
 428 0080 8B442420 		movl	32(%esp), %eax
 429 0084 C7442404 		movl	$LC10, 4(%esp)
 429      8B000000 
 430 008c 890424   		movl	%eax, (%esp)
 431 008f E8000000 		call	_appendPrintf
 431      00
 432 0094 83C41C   		addl	$28, %esp
 433              		.cfi_remember_state
 434              		.cfi_def_cfa_offset 4
 435 0097 C3       		ret
 436              		.p2align 4,,7
 437              	L45:
 438              		.cfi_restore_state
 439 0098 8B442420 		movl	32(%esp), %eax
 440 009c C7442404 		movl	$LC11, 4(%esp)
 440      94000000 
 441 00a4 890424   		movl	%eax, (%esp)
 442 00a7 E8000000 		call	_appendPrintf
 442      00
 443 00ac 83C41C   		addl	$28, %esp
 444              		.cfi_remember_state
 445              		.cfi_def_cfa_offset 4
 446 00af C3       		ret
 447              		.p2align 4,,7
 448              	L46:
 449              		.cfi_restore_state
 450 00b0 8B442420 		movl	32(%esp), %eax
 451 00b4 C7442404 		movl	$LC12, 4(%esp)
 451      9E000000 
 452 00bc 890424   		movl	%eax, (%esp)
 453 00bf E8000000 		call	_appendPrintf
 453      00
 454 00c4 83C41C   		addl	$28, %esp
 455              		.cfi_def_cfa_offset 4
 456 00c7 C3       		ret
 457              		.cfi_endproc
 458              	LFE64:
 459 00c8 90909090 		.section	.text$_Z10debugFloatP7LoggingPKcfi,"x"
 459      90909090 
 460              		.p2align 4,,15
 461              		.globl	__Z10debugFloatP7LoggingPKcfi
 462              		.def	__Z10debugFloatP7LoggingPKcfi;	.scl	2;	.type	32;	.endef
 463              	__Z10debugFloatP7LoggingPKcfi:
 464              	LFB65:
 465              		.cfi_startproc
 466 0000 83EC2C   		subl	$44, %esp
 467              		.cfi_def_cfa_offset 48
 468 0003 8B442434 		movl	52(%esp), %eax
 469 0007 895C2424 		movl	%ebx, 36(%esp)
 470              		.cfi_offset 3, -12
 471 000b 8B5C2430 		movl	48(%esp), %ebx
 472 000f D9442438 		flds	56(%esp)
 473 0013 D95C2410 		fstps	16(%esp)
 474 0017 89442404 		movl	%eax, 4(%esp)
 475 001b 891C24   		movl	%ebx, (%esp)
 476 001e 89742428 		movl	%esi, 40(%esp)
GAS LISTING /cygdrive/c/Users/pc/AppData/Local/Temp/ccGArBTx.s 			page 11


 477              		.cfi_offset 6, -8
 478 0022 8B74243C 		movl	60(%esp), %esi
 479 0026 E8000000 		call	_append
 479      00
 480 002b 891C24   		movl	%ebx, (%esp)
 481 002e C7442404 		movl	$LC6, 4(%esp)
 481      75000000 
 482 0036 E8000000 		call	_append
 482      00
 483 003b 89742408 		movl	%esi, 8(%esp)
 484 003f 891C24   		movl	%ebx, (%esp)
 485 0042 D9442410 		flds	16(%esp)
 486 0046 D95C2404 		fstps	4(%esp)
 487 004a E8000000 		call	__Z11appendFloatP7Loggingfi
 487      00
 488 004f 8B742428 		movl	40(%esp), %esi
 489 0053 895C2430 		movl	%ebx, 48(%esp)
 490 0057 8B5C2424 		movl	36(%esp), %ebx
 491 005b C7442434 		movl	$LC6, 52(%esp)
 491      75000000 
 492 0063 83C42C   		addl	$44, %esp
 493              		.cfi_restore 6
 494              		.cfi_restore 3
 495              		.cfi_def_cfa_offset 4
 496 0066 E9000000 		jmp	_append
 496      00
 497              		.cfi_endproc
 498              	LFE65:
 499 006b 90909090 		.section	.text$_Z15printWithLengthPc,"x"
 499      90
 500              		.p2align 4,,15
 501              		.globl	__Z15printWithLengthPc
 502              		.def	__Z15printWithLengthPc;	.scl	2;	.type	32;	.endef
 503              	__Z15printWithLengthPc:
 504              	LFB66:
 505              		.cfi_startproc
 506 0000 56       		pushl	%esi
 507              		.cfi_def_cfa_offset 8
 508              		.cfi_offset 6, -8
 509 0001 53       		pushl	%ebx
 510              		.cfi_def_cfa_offset 12
 511              		.cfi_offset 3, -12
 512 0002 83EC14   		subl	$20, %esp
 513              		.cfi_def_cfa_offset 32
 514 0005 8B5C2420 		movl	32(%esp), %ebx
 515 0009 891C24   		movl	%ebx, (%esp)
 516 000c E8000000 		call	_efiStrlen
 516      00
 517 0011 C7042400 		movl	$__ZL6header, (%esp)
 517      000000
 518 0018 C7050000 		movl	$1701734764, __ZL6header
 518      00006C69 
 518      6E65
 519 0022 66C70504 		movw	$58, __ZL6header+4
 519      0000003A 
 519      00
 520 002b 89C6     		movl	%eax, %esi
GAS LISTING /cygdrive/c/Users/pc/AppData/Local/Temp/ccGArBTx.s 			page 12


 521 002d E8000000 		call	_efiStrlen
 521      00
 522 0032 89742404 		movl	%esi, 4(%esp)
 523 0036 01DE     		addl	%ebx, %esi
 524 0038 05000000 		addl	$__ZL6header, %eax
 524      00
 525 003d 890424   		movl	%eax, (%esp)
 526 0040 E8000000 		call	_itoa10
 526      00
 527 0045 C6003A   		movb	$58, (%eax)
 528 0048 C6400100 		movb	$0, 1(%eax)
 529 004c C6060D   		movb	$13, (%esi)
 530 004f C646010A 		movb	$10, 1(%esi)
 531 0053 E8000000 		call	__Z14isConsoleReadyv
 531      00
 532 0058 84C0     		testb	%al, %al
 533 005a 742D     		je	L54
 534 005c C7042400 		movl	$__ZL6header, (%esp)
 534      000000
 535 0063 83C602   		addl	$2, %esi
 536 0066 E8000000 		call	_strlen
 536      00
 537 006b 29DE     		subl	%ebx, %esi
 538 006d C7042400 		movl	$__ZL6header, (%esp)
 538      000000
 539 0074 89442404 		movl	%eax, 4(%esp)
 540 0078 E8000000 		call	__Z19consoleOutputBufferPKhi
 540      00
 541 007d 89742404 		movl	%esi, 4(%esp)
 542 0081 891C24   		movl	%ebx, (%esp)
 543 0084 E8000000 		call	__Z19consoleOutputBufferPKhi
 543      00
 544              	L54:
 545 0089 83C414   		addl	$20, %esp
 546              		.cfi_def_cfa_offset 12
 547 008c 5B       		popl	%ebx
 548              		.cfi_restore 3
 549              		.cfi_def_cfa_offset 8
 550 008d 5E       		popl	%esi
 551              		.cfi_restore 6
 552              		.cfi_def_cfa_offset 4
 553 008e C3       		ret
 554              		.cfi_endproc
 555              	LFE66:
 556 008f 90       		.section .rdata,"dr"
 557              	LC16:
 558 00d4 6D73672C 		.ascii "msg,\0"
 558      00
 559              		.section	.text$_Z15appendMsgPrefixP7Logging,"x"
 560              		.p2align 4,,15
 561              		.globl	__Z15appendMsgPrefixP7Logging
 562              		.def	__Z15appendMsgPrefixP7Logging;	.scl	2;	.type	32;	.endef
 563              	__Z15appendMsgPrefixP7Logging:
 564              	LFB68:
 565              		.cfi_startproc
 566 0000 83EC1C   		subl	$28, %esp
 567              		.cfi_def_cfa_offset 32
GAS LISTING /cygdrive/c/Users/pc/AppData/Local/Temp/ccGArBTx.s 			page 13


 568 0003 8B442420 		movl	32(%esp), %eax
 569 0007 C7442404 		movl	$LC16, 4(%esp)
 569      D4000000 
 570 000f 890424   		movl	%eax, (%esp)
 571 0012 E8000000 		call	_append
 571      00
 572 0017 83C41C   		addl	$28, %esp
 573              		.cfi_def_cfa_offset 4
 574 001a C3       		ret
 575              		.cfi_endproc
 576              	LFE68:
 577 001b 90909090 		.section	.text$_Z16appendMsgPostfixP7Logging,"x"
 577      90
 578              		.p2align 4,,15
 579              		.globl	__Z16appendMsgPostfixP7Logging
 580              		.def	__Z16appendMsgPostfixP7Logging;	.scl	2;	.type	32;	.endef
 581              	__Z16appendMsgPostfixP7Logging:
 582              	LFB69:
 583              		.cfi_startproc
 584 0000 83EC1C   		subl	$28, %esp
 585              		.cfi_def_cfa_offset 32
 586 0003 8B442420 		movl	32(%esp), %eax
 587 0007 C7442404 		movl	$LC6, 4(%esp)
 587      75000000 
 588 000f 890424   		movl	%eax, (%esp)
 589 0012 E8000000 		call	_append
 589      00
 590 0017 83C41C   		addl	$28, %esp
 591              		.cfi_def_cfa_offset 4
 592 001a C3       		ret
 593              		.cfi_endproc
 594              	LFE69:
 595 001b 90909090 		.section .rdata,"dr"
 595      90
 596              	LC17:
 597 00d9 4E756C6C 		.ascii "Null buffer: %s\0"
 597      20627566 
 597      6665723A 
 597      20257300 
 598              		.section	.text$_Z12resetLoggingP7Logging,"x"
 599              		.p2align 4,,15
 600              		.globl	__Z12resetLoggingP7Logging
 601              		.def	__Z12resetLoggingP7Logging;	.scl	2;	.type	32;	.endef
 602              	__Z12resetLoggingP7Logging:
 603              	LFB70:
 604              		.cfi_startproc
 605 0000 83EC1C   		subl	$28, %esp
 606              		.cfi_def_cfa_offset 32
 607 0003 8B542420 		movl	32(%esp), %edx
 608 0007 8B422C   		movl	44(%edx), %eax
 609 000a 85C0     		testl	%eax, %eax
 610 000c 740A     		je	L68
 611 000e 894230   		movl	%eax, 48(%edx)
 612 0011 C60000   		movb	$0, (%eax)
 613              	L64:
 614 0014 83C41C   		addl	$28, %esp
 615              		.cfi_remember_state
GAS LISTING /cygdrive/c/Users/pc/AppData/Local/Temp/ccGArBTx.s 			page 14


 616              		.cfi_def_cfa_offset 4
 617 0017 C3       		ret
 618              		.p2align 4,,7
 619              	L68:
 620              		.cfi_restore_state
 621 0018 8B02     		movl	(%edx), %eax
 622 001a C70424D9 		movl	$LC17, (%esp)
 622      000000
 623 0021 89442404 		movl	%eax, 4(%esp)
 624 0025 E8000000 		call	_firmwareError
 624      00
 625 002a EBE8     		jmp	L64
 626              		.cfi_endproc
 627              	LFE70:
 628 002c 90909090 		.section	.text$_Z9printLineP7Logging,"x"
 629              		.p2align 4,,15
 630              		.globl	__Z9printLineP7Logging
 631              		.def	__Z9printLineP7Logging;	.scl	2;	.type	32;	.endef
 632              	__Z9printLineP7Logging:
 633              	LFB67:
 634              		.cfi_startproc
 635 0000 53       		pushl	%ebx
 636              		.cfi_def_cfa_offset 8
 637              		.cfi_offset 3, -8
 638 0001 83EC18   		subl	$24, %esp
 639              		.cfi_def_cfa_offset 32
 640 0004 8B5C2420 		movl	32(%esp), %ebx
 641 0008 8B432C   		movl	44(%ebx), %eax
 642 000b 890424   		movl	%eax, (%esp)
 643 000e E8000000 		call	__Z15printWithLengthPc
 643      00
 644 0013 895C2420 		movl	%ebx, 32(%esp)
 645 0017 83C418   		addl	$24, %esp
 646              		.cfi_def_cfa_offset 8
 647 001a 5B       		popl	%ebx
 648              		.cfi_restore 3
 649              		.cfi_def_cfa_offset 4
 650 001b E9000000 		jmp	__Z12resetLoggingP7Logging
 650      00
 651              		.cfi_endproc
 652              	LFE67:
 653              		.section	.text$_Z14initLoggingExtP7LoggingPKcPci,"x"
 654              		.p2align 4,,15
 655              		.globl	__Z14initLoggingExtP7LoggingPKcPci
 656              		.def	__Z14initLoggingExtP7LoggingPKcPci;	.scl	2;	.type	32;	.endef
 657              	__Z14initLoggingExtP7LoggingPKcPci:
 658              	LFB61:
 659              		.cfi_startproc
 660 0000 53       		pushl	%ebx
 661              		.cfi_def_cfa_offset 8
 662              		.cfi_offset 3, -8
 663 0001 83EC18   		subl	$24, %esp
 664              		.cfi_def_cfa_offset 32
 665 0004 8B5C2420 		movl	32(%esp), %ebx
 666 0008 8B442424 		movl	36(%esp), %eax
 667 000c 8903     		movl	%eax, (%ebx)
 668 000e 8B442428 		movl	40(%esp), %eax
GAS LISTING /cygdrive/c/Users/pc/AppData/Local/Temp/ccGArBTx.s 			page 15


 669 0012 89432C   		movl	%eax, 44(%ebx)
 670 0015 8B44242C 		movl	44(%esp), %eax
 671 0019 894334   		movl	%eax, 52(%ebx)
 672 001c 891C24   		movl	%ebx, (%esp)
 673 001f E8000000 		call	__Z12resetLoggingP7Logging
 673      00
 674 0024 C7433809 		movl	$45234441, 56(%ebx)
 674      39B202
 675 002b 83C418   		addl	$24, %esp
 676              		.cfi_def_cfa_offset 8
 677 002e 5B       		popl	%ebx
 678              		.cfi_restore 3
 679              		.cfi_def_cfa_offset 4
 680 002f C3       		ret
 681              		.cfi_endproc
 682              	LFE61:
 683              		.section .rdata,"dr"
 684              	LC18:
 685 00e9 6C6F7773 		.ascii "lowstck#5o\0"
 685      74636B23 
 685      356F00
 686              		.section	.text$printMsg,"x"
 687              		.p2align 4,,15
 688              		.globl	_printMsg
 689              		.def	_printMsg;	.scl	2;	.type	32;	.endef
 690              	_printMsg:
 691              	LFB71:
 692              		.cfi_startproc
 693 0000 53       		pushl	%ebx
 694              		.cfi_def_cfa_offset 8
 695              		.cfi_offset 3, -8
 696 0001 83EC18   		subl	$24, %esp
 697              		.cfi_def_cfa_offset 32
 698 0004 A1180000 		movl	_rlist+24, %eax
 698      00
 699 0009 8B5C2420 		movl	32(%esp), %ebx
 700 000d 890424   		movl	%eax, (%esp)
 701 0010 E8000000 		call	_getRemainingStack
 701      00
 702 0015 83C080   		addl	$-128, %eax
 703 0018 7E3D     		jle	L77
 704 001a 891C24   		movl	%ebx, (%esp)
 705 001d E8000000 		call	__Z15appendMsgPrefixP7Logging
 705      00
 706 0022 8D442428 		leal	40(%esp), %eax
 707 0026 89442408 		movl	%eax, 8(%esp)
 708 002a 8B442424 		movl	36(%esp), %eax
 709 002e 891C24   		movl	%ebx, (%esp)
 710 0031 89442404 		movl	%eax, 4(%esp)
 711 0035 E8000000 		call	_vappendPrintf
 711      00
 712 003a 891C24   		movl	%ebx, (%esp)
 713 003d C7442404 		movl	$LC6, 4(%esp)
 713      75000000 
 714 0045 E8000000 		call	_append
 714      00
 715 004a 891C24   		movl	%ebx, (%esp)
GAS LISTING /cygdrive/c/Users/pc/AppData/Local/Temp/ccGArBTx.s 			page 16


 716 004d E8000000 		call	__Z9printLineP7Logging
 716      00
 717 0052 83C418   		addl	$24, %esp
 718              		.cfi_remember_state
 719              		.cfi_def_cfa_offset 8
 720 0055 5B       		popl	%ebx
 721              		.cfi_restore 3
 722              		.cfi_def_cfa_offset 4
 723 0056 C3       		ret
 724              		.p2align 4,,7
 725              	L77:
 726              		.cfi_restore_state
 727 0057 C70424E9 		movl	$LC18, (%esp)
 727      000000
 728 005e E8000000 		call	_firmwareError
 728      00
 729 0063 83C418   		addl	$24, %esp
 730              		.cfi_def_cfa_offset 8
 731 0066 5B       		popl	%ebx
 732              		.cfi_restore 3
 733              		.cfi_def_cfa_offset 4
 734 0067 C3       		ret
 735              		.cfi_endproc
 736              	LFE71:
 737 0068 90909090 		.section .rdata,"dr"
 737      90909090 
 738              	LC19:
 739 00f4 6C6F6767 		.ascii "logging NULL\0"
 739      696E6720 
 739      4E554C4C 
 739      00
 740 0101 000000   		.section	.text$_Z11scheduleMsgP7LoggingPKcz,"x"
 741              		.p2align 4,,15
 742              		.globl	__Z11scheduleMsgP7LoggingPKcz
 743              		.def	__Z11scheduleMsgP7LoggingPKcz;	.scl	2;	.type	32;	.endef
 744              	__Z11scheduleMsgP7LoggingPKcz:
 745              	LFB72:
 746              		.cfi_startproc
 747 0000 83EC1C   		subl	$28, %esp
 748              		.cfi_def_cfa_offset 32
 749 0003 895C2414 		movl	%ebx, 20(%esp)
 750              		.cfi_offset 3, -12
 751 0007 8B5C2420 		movl	32(%esp), %ebx
 752 000b 89742418 		movl	%esi, 24(%esp)
 753              		.cfi_offset 6, -8
 754 000f 85DB     		testl	%ebx, %ebx
 755 0011 7462     		je	L83
 756 0013 E8000000 		call	_lockAnyContext
 756      00
 757 0018 891C24   		movl	%ebx, (%esp)
 758 001b 89C6     		movl	%eax, %esi
 759 001d E8000000 		call	__Z12resetLoggingP7Logging
 759      00
 760 0022 891C24   		movl	%ebx, (%esp)
 761 0025 E8000000 		call	__Z15appendMsgPrefixP7Logging
 761      00
 762 002a 8D442428 		leal	40(%esp), %eax
GAS LISTING /cygdrive/c/Users/pc/AppData/Local/Temp/ccGArBTx.s 			page 17


 763 002e 89442408 		movl	%eax, 8(%esp)
 764 0032 8B442424 		movl	36(%esp), %eax
 765 0036 891C24   		movl	%ebx, (%esp)
 766 0039 89442404 		movl	%eax, 4(%esp)
 767 003d E8000000 		call	_vappendPrintf
 767      00
 768 0042 891C24   		movl	%ebx, (%esp)
 769 0045 E8000000 		call	__Z16appendMsgPostfixP7Logging
 769      00
 770 004a 891C24   		movl	%ebx, (%esp)
 771 004d E8000000 		call	_scheduleLogging
 771      00
 772 0052 89F0     		movl	%esi, %eax
 773 0054 84C0     		testb	%al, %al
 774 0056 740C     		je	L84
 775 0058 8B5C2414 		movl	20(%esp), %ebx
 776 005c 8B742418 		movl	24(%esp), %esi
 777 0060 83C41C   		addl	$28, %esp
 778              		.cfi_remember_state
 779              		.cfi_restore 6
 780              		.cfi_restore 3
 781              		.cfi_def_cfa_offset 4
 782 0063 C3       		ret
 783              		.p2align 4,,7
 784              	L84:
 785              		.cfi_restore_state
 786 0064 E8000000 		call	_unlockAnyContext
 786      00
 787 0069 8B5C2414 		movl	20(%esp), %ebx
 788 006d 8B742418 		movl	24(%esp), %esi
 789 0071 83C41C   		addl	$28, %esp
 790              		.cfi_remember_state
 791              		.cfi_restore 3
 792              		.cfi_restore 6
 793              		.cfi_def_cfa_offset 4
 794 0074 C3       		ret
 795              		.p2align 4,,7
 796              	L83:
 797              		.cfi_restore_state
 798 0075 C70424F4 		movl	$LC19, (%esp)
 798      000000
 799 007c E8000000 		call	_firmwareError
 799      00
 800 0081 8B5C2414 		movl	20(%esp), %ebx
 801 0085 8B742418 		movl	24(%esp), %esi
 802 0089 83C41C   		addl	$28, %esp
 803              		.cfi_restore 3
 804              		.cfi_restore 6
 805              		.cfi_def_cfa_offset 4
 806 008c C3       		ret
 807              		.cfi_endproc
 808              	LFE72:
 809 008d 909090   		.section	.text$remainingSize,"x"
 810              		.p2align 4,,15
 811              		.globl	_remainingSize
 812              		.def	_remainingSize;	.scl	2;	.type	32;	.endef
 813              	_remainingSize:
GAS LISTING /cygdrive/c/Users/pc/AppData/Local/Temp/ccGArBTx.s 			page 18


 814              	LFB73:
 815              		.cfi_startproc
 816 0000 8B542404 		movl	4(%esp), %edx
 817 0004 8B422C   		movl	44(%edx), %eax
 818 0007 2B4230   		subl	48(%edx), %eax
 819 000a 034234   		addl	52(%edx), %eax
 820 000d C3       		ret
 821              		.cfi_endproc
 822              	LFE73:
 823 000e 9090     		.section	.text$_Z29initIntermediateLoggingBufferv,"x"
 824              		.p2align 4,,15
 825              		.globl	__Z29initIntermediateLoggingBufferv
 826              		.def	__Z29initIntermediateLoggingBufferv;	.scl	2;	.type	32;	.endef
 827              	__Z29initIntermediateLoggingBufferv:
 828              	LFB74:
 829              		.cfi_startproc
 830 0000 83EC1C   		subl	$28, %esp
 831              		.cfi_def_cfa_offset 32
 832 0003 E8000000 		call	__Z18initLoggingCentralv
 832      00
 833 0008 C744240C 		movl	$0, 12(%esp)
 833      00000000 
 834 0010 C7442408 		movl	$2000, 8(%esp)
 834      D0070000 
 835 0018 C7442404 		movl	$__ZL29intermediateLoggingBufferData, 4(%esp)
 835      00000000 
 836 0020 C7042400 		movl	$__ZL25intermediateLoggingBuffer, (%esp)
 836      000000
 837 0027 E8000000 		call	_msObjectInit
 837      00
 838 002c C6050000 		movb	$1, __ZL31intermediateLoggingBufferInited
 838      000001
 839 0033 83C41C   		addl	$28, %esp
 840              		.cfi_def_cfa_offset 4
 841 0036 C3       		ret
 842              		.cfi_endproc
 843              	LFE74:
 844 0037 90909090 		.section	.text$_ZN7Logging15baseConstructorEv,"x"
 844      90909090 
 844      90
 845              		.align 2
 846              		.p2align 4,,15
 847              		.globl	__ZN7Logging15baseConstructorEv
 848              		.def	__ZN7Logging15baseConstructorEv;	.scl	2;	.type	32;	.endef
 849              	__ZN7Logging15baseConstructorEv:
 850              	LFB75:
 851              		.cfi_startproc
 852 0000 C7010000 		movl	$0, (%ecx)
 852      0000
 853 0006 C7412C00 		movl	$0, 44(%ecx)
 853      000000
 854 000d C7413000 		movl	$0, 48(%ecx)
 854      000000
 855 0014 C7413400 		movl	$0, 52(%ecx)
 855      000000
 856 001b C7413800 		movl	$0, 56(%ecx)
 856      000000
GAS LISTING /cygdrive/c/Users/pc/AppData/Local/Temp/ccGArBTx.s 			page 19


 857 0022 C3       		ret
 858              		.cfi_endproc
 859              	LFE75:
 860 0023 90909090 		.section	.text$_ZN7LoggingC2Ev,"x"
 860      90909090 
 860      90909090 
 860      90
 861              		.align 2
 862              		.p2align 4,,15
 863              		.globl	__ZN7LoggingC2Ev
 864              		.def	__ZN7LoggingC2Ev;	.scl	2;	.type	32;	.endef
 865              	__ZN7LoggingC2Ev:
 866              	LFB77:
 867              		.cfi_startproc
 868 0000 C7010000 		movl	$0, (%ecx)
 868      0000
 869 0006 C7412C00 		movl	$0, 44(%ecx)
 869      000000
 870 000d C7413000 		movl	$0, 48(%ecx)
 870      000000
 871 0014 C7413400 		movl	$0, 52(%ecx)
 871      000000
 872 001b C7413800 		movl	$0, 56(%ecx)
 872      000000
 873 0022 C3       		ret
 874              		.cfi_endproc
 875              	LFE77:
 876              		.globl	__ZN7LoggingC1Ev
 877              		.def	__ZN7LoggingC1Ev;	.scl	2;	.type	32;	.endef
 878              		.set	__ZN7LoggingC1Ev,__ZN7LoggingC2Ev
 879 0023 90909090 		.section	.text$_ZN7LoggingC2EPKcPci,"x"
 879      90909090 
 879      90909090 
 879      90
 880              		.align 2
 881              		.p2align 4,,15
 882              		.globl	__ZN7LoggingC2EPKcPci
 883              		.def	__ZN7LoggingC2EPKcPci;	.scl	2;	.type	32;	.endef
 884              	__ZN7LoggingC2EPKcPci:
 885              	LFB80:
 886              		.cfi_startproc
 887 0000 53       		pushl	%ebx
 888              		.cfi_def_cfa_offset 8
 889              		.cfi_offset 3, -8
 890 0001 89CB     		movl	%ecx, %ebx
 891 0003 83EC18   		subl	$24, %esp
 892              		.cfi_def_cfa_offset 32
 893 0006 8B442420 		movl	32(%esp), %eax
 894 000a 890C24   		movl	%ecx, (%esp)
 895 000d C7413000 		movl	$0, 48(%ecx)
 895      000000
 896 0014 C7413800 		movl	$0, 56(%ecx)
 896      000000
 897 001b 8901     		movl	%eax, (%ecx)
 898 001d 8B442424 		movl	36(%esp), %eax
 899 0021 89412C   		movl	%eax, 44(%ecx)
 900 0024 8B442428 		movl	40(%esp), %eax
GAS LISTING /cygdrive/c/Users/pc/AppData/Local/Temp/ccGArBTx.s 			page 20


 901 0028 894134   		movl	%eax, 52(%ecx)
 902 002b E8000000 		call	__Z12resetLoggingP7Logging
 902      00
 903 0030 C7433809 		movl	$45234441, 56(%ebx)
 903      39B202
 904 0037 83C418   		addl	$24, %esp
 905              		.cfi_def_cfa_offset 8
 906 003a 5B       		popl	%ebx
 907              		.cfi_restore 3
 908              		.cfi_def_cfa_offset 4
 909 003b C20C00   		ret	$12
 910              		.cfi_endproc
 911              	LFE80:
 912              		.globl	__ZN7LoggingC1EPKcPci
 913              		.def	__ZN7LoggingC1EPKcPci;	.scl	2;	.type	32;	.endef
 914              		.set	__ZN7LoggingC1EPKcPci,__ZN7LoggingC2EPKcPci
 915 003e 9090     		.section	.text$_ZN18LoggingWithStorageC2EPKc,"x"
 916              		.align 2
 917              		.p2align 4,,15
 918              		.globl	__ZN18LoggingWithStorageC2EPKc
 919              		.def	__ZN18LoggingWithStorageC2EPKc;	.scl	2;	.type	32;	.endef
 920              	__ZN18LoggingWithStorageC2EPKc:
 921              	LFB83:
 922              		.cfi_startproc
 923 0000 83EC1C   		subl	$28, %esp
 924              		.cfi_def_cfa_offset 32
 925 0003 8D413C   		leal	60(%ecx), %eax
 926 0006 89442404 		movl	%eax, 4(%esp)
 927 000a 8B442420 		movl	32(%esp), %eax
 928 000e C7442408 		movl	$200, 8(%esp)
 928      C8000000 
 929 0016 890424   		movl	%eax, (%esp)
 930 0019 E8000000 		call	__ZN7LoggingC2EPKcPci
 930      00
 931              		.cfi_def_cfa_offset 20
 932 001e 83EC0C   		subl	$12, %esp
 933              		.cfi_def_cfa_offset 32
 934 0021 83C41C   		addl	$28, %esp
 935              		.cfi_def_cfa_offset 4
 936 0024 C20400   		ret	$4
 937              		.cfi_endproc
 938              	LFE83:
 939              		.globl	__ZN18LoggingWithStorageC1EPKc
 940              		.def	__ZN18LoggingWithStorageC1EPKc;	.scl	2;	.type	32;	.endef
 941              		.set	__ZN18LoggingWithStorageC1EPKc,__ZN18LoggingWithStorageC2EPKc
 942 0027 90909090 		.section	.data$_ZL31intermediateLoggingBufferInited,"w"
 942      90909090 
 942      90
 943              	__ZL31intermediateLoggingBufferInited:
 944 0000 00       		.space 1
 945 0001 000000   		.section	.data$_ZL25intermediateLoggingBuffer,"w"
 946              		.align 4
 947              	__ZL25intermediateLoggingBuffer:
 948 0000 00000000 		.space 20
 948      00000000 
 948      00000000 
 948      00000000 
GAS LISTING /cygdrive/c/Users/pc/AppData/Local/Temp/ccGArBTx.s 			page 21


 948      00000000 
 949              		.section	.data$_ZL29intermediateLoggingBufferData,"w"
 950              		.align 32
 951              	__ZL29intermediateLoggingBufferData:
 952 0000 00000000 		.space 2000
 952      00000000 
 952      00000000 
 952      00000000 
 952      00000000 
 953 07d0 00000000 		.section	.data$_ZL6header,"w"
 953      00000000 
 953      00000000 
 953      00000000 
 954              	__ZL6header:
 955 0000 00000000 		.space 16
 955      00000000 
 955      00000000 
 955      00000000 
 956              		.def	_efiStrlen;	.scl	2;	.type	32;	.endef
 957              		.def	_strcpy;	.scl	2;	.type	32;	.endef
 958              		.def	_firmwareError;	.scl	2;	.type	32;	.endef
 959              		.def	_getRemainingStack;	.scl	2;	.type	32;	.endef
 960              		.def	_lockAnyContext;	.scl	2;	.type	32;	.endef
 961              		.def	_chvprintf;	.scl	2;	.type	32;	.endef
 962              		.def	_unlockAnyContext;	.scl	2;	.type	32;	.endef
 963              		.def	_itoa10;	.scl	2;	.type	32;	.endef
 964              		.def	__Z14isConsoleReadyv;	.scl	2;	.type	32;	.endef
 965              		.def	_strlen;	.scl	2;	.type	32;	.endef
 966              		.def	__Z19consoleOutputBufferPKhi;	.scl	2;	.type	32;	.endef
 967              		.def	_scheduleLogging;	.scl	2;	.type	32;	.endef
 968              		.def	__Z18initLoggingCentralv;	.scl	2;	.type	32;	.endef
 969              		.def	_msObjectInit;	.scl	2;	.type	32;	.endef
GAS LISTING /cygdrive/c/Users/pc/AppData/Local/Temp/ccGArBTx.s 			page 22


DEFINED SYMBOLS
                            *ABS*:00000000 datalogging.cpp
/cygdrive/c/Users/pc/AppData/Local/Temp/ccGArBTx.s:11     .text$append:00000000 _append
/cygdrive/c/Users/pc/AppData/Local/Temp/ccGArBTx.s:88     .text$appendFast:00000000 _appendFast
/cygdrive/c/Users/pc/AppData/Local/Temp/ccGArBTx.s:148    .text$vappendPrintf:00000000 _vappendPrintf
/cygdrive/c/Users/pc/AppData/Local/Temp/ccGArBTx.s:943    .data$_ZL31intermediateLoggingBufferInited:00000000 __ZL31intermediateLoggingBufferInited
/cygdrive/c/Users/pc/AppData/Local/Temp/ccGArBTx.s:947    .data$_ZL25intermediateLoggingBuffer:00000000 __ZL25intermediateLoggingBuffer
/cygdrive/c/Users/pc/AppData/Local/Temp/ccGArBTx.s:951    .data$_ZL29intermediateLoggingBufferData:00000000 __ZL29intermediateLoggingBufferData
/cygdrive/c/Users/pc/AppData/Local/Temp/ccGArBTx.s:255    .text$appendPrintf:00000000 _appendPrintf
/cygdrive/c/Users/pc/AppData/Local/Temp/ccGArBTx.s:290    .text$_Z13isInitializedP7Logging:00000000 __Z13isInitializedP7Logging
/cygdrive/c/Users/pc/AppData/Local/Temp/ccGArBTx.s:310    .text$_Z8debugIntP7LoggingPKci:00000000 __Z8debugIntP7LoggingPKci
/cygdrive/c/Users/pc/AppData/Local/Temp/ccGArBTx.s:359    .text$_Z11appendFloatP7Loggingfi:00000000 __Z11appendFloatP7Loggingfi
/cygdrive/c/Users/pc/AppData/Local/Temp/ccGArBTx.s:463    .text$_Z10debugFloatP7LoggingPKcfi:00000000 __Z10debugFloatP7LoggingPKcfi
/cygdrive/c/Users/pc/AppData/Local/Temp/ccGArBTx.s:503    .text$_Z15printWithLengthPc:00000000 __Z15printWithLengthPc
/cygdrive/c/Users/pc/AppData/Local/Temp/ccGArBTx.s:954    .data$_ZL6header:00000000 __ZL6header
/cygdrive/c/Users/pc/AppData/Local/Temp/ccGArBTx.s:563    .text$_Z15appendMsgPrefixP7Logging:00000000 __Z15appendMsgPrefixP7Logging
/cygdrive/c/Users/pc/AppData/Local/Temp/ccGArBTx.s:581    .text$_Z16appendMsgPostfixP7Logging:00000000 __Z16appendMsgPostfixP7Logging
/cygdrive/c/Users/pc/AppData/Local/Temp/ccGArBTx.s:602    .text$_Z12resetLoggingP7Logging:00000000 __Z12resetLoggingP7Logging
/cygdrive/c/Users/pc/AppData/Local/Temp/ccGArBTx.s:632    .text$_Z9printLineP7Logging:00000000 __Z9printLineP7Logging
/cygdrive/c/Users/pc/AppData/Local/Temp/ccGArBTx.s:657    .text$_Z14initLoggingExtP7LoggingPKcPci:00000000 __Z14initLoggingExtP7LoggingPKcPci
/cygdrive/c/Users/pc/AppData/Local/Temp/ccGArBTx.s:690    .text$printMsg:00000000 _printMsg
/cygdrive/c/Users/pc/AppData/Local/Temp/ccGArBTx.s:744    .text$_Z11scheduleMsgP7LoggingPKcz:00000000 __Z11scheduleMsgP7LoggingPKcz
/cygdrive/c/Users/pc/AppData/Local/Temp/ccGArBTx.s:813    .text$remainingSize:00000000 _remainingSize
/cygdrive/c/Users/pc/AppData/Local/Temp/ccGArBTx.s:827    .text$_Z29initIntermediateLoggingBufferv:00000000 __Z29initIntermediateLoggingBufferv
/cygdrive/c/Users/pc/AppData/Local/Temp/ccGArBTx.s:849    .text$_ZN7Logging15baseConstructorEv:00000000 __ZN7Logging15baseConstructorEv
/cygdrive/c/Users/pc/AppData/Local/Temp/ccGArBTx.s:865    .text$_ZN7LoggingC2Ev:00000000 __ZN7LoggingC2Ev
/cygdrive/c/Users/pc/AppData/Local/Temp/ccGArBTx.s:865    .text$_ZN7LoggingC2Ev:00000000 __ZN7LoggingC1Ev
/cygdrive/c/Users/pc/AppData/Local/Temp/ccGArBTx.s:884    .text$_ZN7LoggingC2EPKcPci:00000000 __ZN7LoggingC2EPKcPci
/cygdrive/c/Users/pc/AppData/Local/Temp/ccGArBTx.s:884    .text$_ZN7LoggingC2EPKcPci:00000000 __ZN7LoggingC1EPKcPci
/cygdrive/c/Users/pc/AppData/Local/Temp/ccGArBTx.s:920    .text$_ZN18LoggingWithStorageC2EPKc:00000000 __ZN18LoggingWithStorageC2EPKc
/cygdrive/c/Users/pc/AppData/Local/Temp/ccGArBTx.s:920    .text$_ZN18LoggingWithStorageC2EPKc:00000000 __ZN18LoggingWithStorageC1EPKc

UNDEFINED SYMBOLS
_rlist
_efiStrlen
_strcpy
_firmwareError
_getRemainingStack
_lockAnyContext
_chvprintf
_unlockAnyContext
_itoa10
__Z14isConsoleReadyv
_strlen
__Z19consoleOutputBufferPKhi
_scheduleLogging
__Z18initLoggingCentralv
_msObjectInit
