GAS LISTING /cygdrive/c/Users/pc/AppData/Local/Temp/ccR13xfv.s 			page 1


   1              		.file	"dodge_ram.cpp"
   2              		.section	.text$_Z15setDodgeRam1996v,"x"
   3              		.p2align 4,,15
   4              		.globl	__Z15setDodgeRam1996v
   5              		.def	__Z15setDodgeRam1996v;	.scl	2;	.type	32;	.endef
   6              	__Z15setDodgeRam1996v:
   7              	LFB85:
   8              		.cfi_startproc
   9 0000 83EC2C   		subl	$44, %esp
  10              		.cfi_def_cfa_offset 48
  11 0003 E8000000 		call	__Z28setCustomEngineConfigurationv
  11      00
  12 0008 A1000000 		movl	_engineConfiguration, %eax
  12      00
  13 000d C7442404 		movl	$2, 4(%esp)
  13      02000000 
  14 0015 890424   		movl	%eax, (%esp)
  15 0018 E8000000 		call	__Z16setOperationModeP22engine_configuration_s16operation_mode_e
  15      00
  16 001d A1000000 		movl	_engineConfiguration, %eax
  16      00
  17 0022 C7801802 		movl	$19, 536(%eax)
  17      00001300 
  17      0000
  18 002c C740089A 		movl	$0x4373999a, 8(%eax)
  18      997343
  19 0033 C780F800 		movl	$4, 248(%eax)
  19      00000400 
  19      0000
  20 003d C780A801 		movl	$3, 424(%eax)
  20      00000300 
  20      0000
  21 0047 C7406C00 		movl	$0x41f00000, 108(%eax)
  21      00F041
  22 004e C7042400 		movl	$0x40c00000, (%esp)
  22      00C040
  23 0055 E8000000 		call	__Z15setWholeFuelMapf
  23      00
  24 005a A1000000 		movl	_boardConfiguration, %eax
  24      00
  25 005f 8B150000 		movl	_engineConfiguration, %edx
  25      0000
  26 0065 C7829401 		movl	$8, 404(%edx)
  26      00000800 
  26      0000
  27 006f C7829801 		movl	$5, 408(%edx)
  27      00000500 
  27      0000
  28 0079 C7829001 		movl	$0x40a66666, 400(%edx)
  28      00006666 
  28      A640
  29 0083 C7802801 		movl	$38, 296(%eax)
  29      00002600 
  29      0000
  30 008d C7802C01 		movl	$5, 300(%eax)
  30      00000500 
  30      0000
GAS LISTING /cygdrive/c/Users/pc/AppData/Local/Temp/ccR13xfv.s 			page 2


  31 0097 C7402042 		movl	$66, 32(%eax)
  31      000000
  32 009e C7402419 		movl	$25, 36(%eax)
  32      000000
  33 00a5 C7402835 		movl	$53, 40(%eax)
  33      000000
  34 00ac C7402C18 		movl	$24, 44(%eax)
  34      000000
  35 00b3 C7403017 		movl	$23, 48(%eax)
  35      000000
  36 00ba C7403443 		movl	$67, 52(%eax)
  36      000000
  37 00c1 C7403844 		movl	$68, 56(%eax)
  37      000000
  38 00c8 C7403C33 		movl	$51, 60(%eax)
  38      000000
  39 00cf C7405429 		movl	$41, 84(%eax)
  39      000000
  40 00d6 C7405850 		movl	$80, 88(%eax)
  40      000000
  41 00dd C7405C50 		movl	$80, 92(%eax)
  41      000000
  42 00e4 C7406050 		movl	$80, 96(%eax)
  42      000000
  43 00eb C7803401 		movl	$69, 308(%eax)
  43      00004500 
  43      0000
  44 00f5 C7401846 		movl	$70, 24(%eax)
  44      000000
  45 00fc C7809000 		movl	$80, 144(%eax)
  45      00005000 
  45      0000
  46 0106 C782E805 		movl	$450, 1512(%edx)
  46      0000C201 
  46      0000
  47 0110 C7425C00 		movl	$0x40e00000, 92(%edx)
  47      00E040
  48 0117 C782CC01 		movl	$0xc2480000, 460(%edx)
  48      00000000 
  48      48C2
  49 0121 C7042400 		movl	$0x41200000, (%esp)
  49      002041
  50 0128 E8000000 		call	__Z19setWholeTimingTablef
  50      00
  51 012d A1000000 		movl	_engineConfiguration, %eax
  51      00
  52 0132 8B150000 		movl	_boardConfiguration, %edx
  52      0000
  53 0138 C782A800 		movl	$55, 168(%edx)
  53      00003700 
  53      0000
  54 0142 C7807C08 		movl	$0x41b00000, 2172(%eax)
  54      00000000 
  54      B041
  55 014c C7022D00 		movl	$45, (%edx)
  55      0000
  56 0152 C742082C 		movl	$300, 8(%edx)
GAS LISTING /cygdrive/c/Users/pc/AppData/Local/Temp/ccR13xfv.s 			page 3


  56      010000
  57 0159 C780D801 		movl	$14, 472(%eax)
  57      00000E00 
  57      0000
  58 0163 C780D401 		movl	$0x4119999a, 468(%eax)
  58      00009A99 
  58      1941
  59 016d 05000100 		addl	$256, %eax
  59      00
  60 0172 890424   		movl	%eax, (%esp)
  61 0175 E8000000 		call	__Z14setDodgeSensorP14ThermistorConf
  61      00
  62 017a A1000000 		movl	_engineConfiguration, %eax
  62      00
  63 017f D9050000 		flds	LC9
  63      0000
  64 0185 D9901801 		fsts	280(%eax)
  64      0000
  65 018b 05200100 		addl	$288, %eax
  65      00
  66 0190 890424   		movl	%eax, (%esp)
  67 0193 D95C2410 		fstps	16(%esp)
  68 0197 E8000000 		call	__Z14setDodgeSensorP14ThermistorConf
  68      00
  69 019c A1000000 		movl	_engineConfiguration, %eax
  69      00
  70 01a1 D9442410 		flds	16(%esp)
  71 01a5 D9983801 		fstps	312(%eax)
  71      0000
  72 01ab A1000000 		movl	_boardConfiguration, %eax
  72      00
  73 01b0 80888101 		orb	$2, 385(%eax)
  73      000002
  74 01b7 83C42C   		addl	$44, %esp
  75              		.cfi_def_cfa_offset 4
  76 01ba C3       		ret
  77              		.cfi_endproc
  78              	LFE85:
  79 01bb 90909090 		.section .rdata,"dr"
  79      90
  80              		.align 4
  81              	LC9:
  82 0000 00C02845 		.long	1160298496
  83              		.def	__Z28setCustomEngineConfigurationv;	.scl	2;	.type	32;	.endef
  84              		.def	__Z16setOperationModeP22engine_configuration_s16operation_mode_e;	.scl	2;	.type	32;	.endef
  85              		.def	__Z15setWholeFuelMapf;	.scl	2;	.type	32;	.endef
  86              		.def	__Z19setWholeTimingTablef;	.scl	2;	.type	32;	.endef
  87              		.def	__Z14setDodgeSensorP14ThermistorConf;	.scl	2;	.type	32;	.endef
GAS LISTING /cygdrive/c/Users/pc/AppData/Local/Temp/ccR13xfv.s 			page 4


DEFINED SYMBOLS
                            *ABS*:00000000 dodge_ram.cpp
/cygdrive/c/Users/pc/AppData/Local/Temp/ccR13xfv.s:6      .text$_Z15setDodgeRam1996v:00000000 __Z15setDodgeRam1996v

UNDEFINED SYMBOLS
_engineConfiguration
_boardConfiguration
__Z28setCustomEngineConfigurationv
__Z16setOperationModeP22engine_configuration_s16operation_mode_e
__Z15setWholeFuelMapf
__Z19setWholeTimingTablef
__Z14setDodgeSensorP14ThermistorConf
