GAS LISTING /cygdrive/c/Users/pc/AppData/Local/Temp/cctmoLY0.s 			page 1


   1              		.file	"efilib2.cpp"
   2              		.section	.text$_ZN17Overflow64CounterC2Ev,"x"
   3              		.align 2
   4              		.p2align 4,,15
   5              		.globl	__ZN17Overflow64CounterC2Ev
   6              		.def	__ZN17Overflow64CounterC2Ev;	.scl	2;	.type	32;	.endef
   7              	__ZN17Overflow64CounterC2Ev:
   8              	LFB55:
   9              		.cfi_startproc
  10 0000 C7010000 		movl	$0, (%ecx)
  10      0000
  11 0006 C7410400 		movl	$0, 4(%ecx)
  11      000000
  12 000d C7410800 		movl	$0, 8(%ecx)
  12      000000
  13 0014 C3       		ret
  14              		.cfi_endproc
  15              	LFE55:
  16              		.globl	__ZN17Overflow64CounterC1Ev
  17              		.def	__ZN17Overflow64CounterC1Ev;	.scl	2;	.type	32;	.endef
  18              		.set	__ZN17Overflow64CounterC1Ev,__ZN17Overflow64CounterC2Ev
  19 0015 90909090 		.section	.text$_Z12updateAndSetP7State64j,"x"
  19      90909090 
  19      909090
  20              		.p2align 4,,15
  21              		.globl	__Z12updateAndSetP7State64j
  22              		.def	__Z12updateAndSetP7State64j;	.scl	2;	.type	32;	.endef
  23              	__Z12updateAndSetP7State64j:
  24              	LFB57:
  25              		.cfi_startproc
  26 0000 53       		pushl	%ebx
  27              		.cfi_def_cfa_offset 8
  28              		.cfi_offset 3, -8
  29 0001 8B4C2408 		movl	8(%esp), %ecx
  30 0005 8B5C240C 		movl	12(%esp), %ebx
  31 0009 8B4108   		movl	8(%ecx), %eax
  32 000c 39D8     		cmpl	%ebx, %eax
  33 000e 7610     		jbe	L3
  34 0010 8B01     		movl	(%ecx), %eax
  35 0012 8B5104   		movl	4(%ecx), %edx
  36 0015 83C000   		addl	$0, %eax
  37 0018 83D201   		adcl	$1, %edx
  38 001b 8901     		movl	%eax, (%ecx)
  39 001d 895104   		movl	%edx, 4(%ecx)
  40              	L3:
  41 0020 895908   		movl	%ebx, 8(%ecx)
  42 0023 5B       		popl	%ebx
  43              		.cfi_restore 3
  44              		.cfi_def_cfa_offset 4
  45 0024 C3       		ret
  46              		.cfi_endproc
  47              	LFE57:
  48 0025 90909090 		.section	.text$_ZN17Overflow64Counter3getEv,"x"
  48      90909090 
  48      909090
  49              		.align 2
  50              		.p2align 4,,15
GAS LISTING /cygdrive/c/Users/pc/AppData/Local/Temp/cctmoLY0.s 			page 2


  51              		.globl	__ZN17Overflow64Counter3getEv
  52              		.def	__ZN17Overflow64Counter3getEv;	.scl	2;	.type	32;	.endef
  53              	__ZN17Overflow64Counter3getEv:
  54              	LFB58:
  55              		.cfi_startproc
  56 0000 57       		pushl	%edi
  57              		.cfi_def_cfa_offset 8
  58              		.cfi_offset 7, -8
  59 0001 56       		pushl	%esi
  60              		.cfi_def_cfa_offset 12
  61              		.cfi_offset 6, -12
  62 0002 53       		pushl	%ebx
  63              		.cfi_def_cfa_offset 16
  64              		.cfi_offset 3, -16
  65              		.p2align 4,,7
  66              	L7:
  67 0003 8B01     		movl	(%ecx), %eax
  68 0005 8B5104   		movl	4(%ecx), %edx
  69 0008 8B5908   		movl	8(%ecx), %ebx
  70 000b 8B31     		movl	(%ecx), %esi
  71 000d 8B7904   		movl	4(%ecx), %edi
  72 0010 31C6     		xorl	%eax, %esi
  73 0012 31D7     		xorl	%edx, %edi
  74 0014 09F7     		orl	%esi, %edi
  75 0016 75EB     		jne	L7
  76 0018 85DB     		testl	%ebx, %ebx
  77 001a 7406     		je	L8
  78 001c 83C000   		addl	$0, %eax
  79 001f 83D201   		adcl	$1, %edx
  80              	L8:
  81 0022 5B       		popl	%ebx
  82              		.cfi_restore 3
  83              		.cfi_def_cfa_offset 12
  84 0023 5E       		popl	%esi
  85              		.cfi_restore 6
  86              		.cfi_def_cfa_offset 8
  87 0024 5F       		popl	%edi
  88              		.cfi_restore 7
  89              		.cfi_def_cfa_offset 4
  90 0025 C3       		ret
  91              		.cfi_endproc
  92 0026 90909090 	LFE58:
  92      90909090 
  92      9090
GAS LISTING /cygdrive/c/Users/pc/AppData/Local/Temp/cctmoLY0.s 			page 3


DEFINED SYMBOLS
                            *ABS*:00000000 efilib2.cpp
/cygdrive/c/Users/pc/AppData/Local/Temp/cctmoLY0.s:7      .text$_ZN17Overflow64CounterC2Ev:00000000 __ZN17Overflow64CounterC2Ev
/cygdrive/c/Users/pc/AppData/Local/Temp/cctmoLY0.s:7      .text$_ZN17Overflow64CounterC2Ev:00000000 __ZN17Overflow64CounterC1Ev
/cygdrive/c/Users/pc/AppData/Local/Temp/cctmoLY0.s:23     .text$_Z12updateAndSetP7State64j:00000000 __Z12updateAndSetP7State64j
/cygdrive/c/Users/pc/AppData/Local/Temp/cctmoLY0.s:53     .text$_ZN17Overflow64Counter3getEv:00000000 __ZN17Overflow64Counter3getEv

NO UNDEFINED SYMBOLS
