GAS LISTING /cygdrive/c/Users/pc/AppData/Local/Temp/cc4ViH1f.s 			page 1


   1              		.file	"ego.cpp"
   2              		.section .rdata,"dr"
   3              	LC0:
   4 0000 65676F00 		.ascii "ego\0"
   5              		.section	.text$_Z6getAfrv,"x"
   6              		.p2align 4,,15
   7              		.globl	__Z6getAfrv
   8              		.def	__Z6getAfrv;	.scl	2;	.type	32;	.endef
   9              	__Z6getAfrv:
  10              	LFB85:
  11              		.cfi_startproc
  12 0000 53       		pushl	%ebx
  13              		.cfi_def_cfa_offset 8
  14              		.cfi_offset 3, -8
  15 0001 83EC38   		subl	$56, %esp
  16              		.cfi_def_cfa_offset 64
  17 0004 8B1D0000 		movl	_engineConfiguration, %ebx
  17      0000
  18 000a 8B834802 		movl	584(%ebx), %eax
  18      0000
  19 0010 C7042400 		movl	$LC0, (%esp)
  19      000000
  20 0017 89442404 		movl	%eax, 4(%esp)
  21 001b E8000000 		call	__Z11getAdcValuePKci
  21      00
  22 0020 8944242C 		movl	%eax, 44(%esp)
  23 0024 A1000000 		movl	_engineConfiguration, %eax
  23      00
  24 0029 DB44242C 		fildl	44(%esp)
  25 002d D80D2C00 		fmuls	LC1
  25      0000
  26 0033 D888D001 		fmuls	464(%eax)
  26      0000
  27 0039 D95C2410 		fstps	16(%esp)
  28 003d D9835802 		flds	600(%ebx)
  28      0000
  29 0043 D95C240C 		fstps	12(%esp)
  30 0047 D9835402 		flds	596(%ebx)
  30      0000
  31 004d D95C2408 		fstps	8(%esp)
  32 0051 D9835002 		flds	592(%ebx)
  32      0000
  33 0057 D95C2404 		fstps	4(%esp)
  34 005b D9834C02 		flds	588(%ebx)
  34      0000
  35 0061 D91C24   		fstps	(%esp)
  36 0064 E8000000 		call	__Z11interpolatefffff
  36      00
  37 0069 83C438   		addl	$56, %esp
  38              		.cfi_def_cfa_offset 8
  39 006c 5B       		popl	%ebx
  40              		.cfi_restore 3
  41              		.cfi_def_cfa_offset 4
  42 006d C3       		ret
  43              		.cfi_endproc
  44              	LFE85:
  45 006e 9090     		.section .rdata,"dr"
GAS LISTING /cygdrive/c/Users/pc/AppData/Local/Temp/cc4ViH1f.s 			page 2


  46              	LC17:
  47 0004 556E6578 		.ascii "Unexpected EGO %d\0"
  47      70656374 
  47      65642045 
  47      474F2025 
  47      6400
  48              		.section	.text$_Z12setEgoSensor12ego_sensor_e,"x"
  49              		.p2align 4,,15
  50              		.globl	__Z12setEgoSensor12ego_sensor_e
  51              		.def	__Z12setEgoSensor12ego_sensor_e;	.scl	2;	.type	32;	.endef
  52              	__Z12setEgoSensor12ego_sensor_e:
  53              	LFB87:
  54              		.cfi_startproc
  55 0000 83EC1C   		subl	$28, %esp
  56              		.cfi_def_cfa_offset 32
  57 0003 A1000000 		movl	_boardConfiguration, %eax
  57      00
  58 0008 8B542420 		movl	32(%esp), %edx
  59 000c 83FA04   		cmpl	$4, %edx
  60 000f 89901401 		movl	%edx, 276(%eax)
  60      0000
  61 0015 A1000000 		movl	_engineConfiguration, %eax
  61      00
  62 001a 7614     		jbe	L14
  63 001c 89542404 		movl	%edx, 4(%esp)
  64 0020 C7042404 		movl	$LC17, (%esp)
  64      000000
  65 0027 E8000000 		call	_firmwareError
  65      00
  66 002c 83C41C   		addl	$28, %esp
  67              		.cfi_remember_state
  68              		.cfi_def_cfa_offset 4
  69 002f C3       		ret
  70              		.p2align 4,,7
  71              	L14:
  72              		.cfi_restore_state
  73 0030 FF249518 		jmp	*L10(,%edx,4)
  73      000000
  74              		.section .rdata,"dr"
  75 0016 0000     		.align 4
  76              	L10:
  77 0018 90000000 		.long	L5
  78 001c C0000000 		.long	L6
  79 0020 F0000000 		.long	L7
  80 0024 37000000 		.long	L8
  81 0028 63000000 		.long	L9
  82              		.section	.text$_Z12setEgoSensor12ego_sensor_e,"x"
  83              		.p2align 4,,7
  84              	L8:
  85 0037 C7804C02 		movl	$0x3dcccccd, 588(%eax)
  85      0000CDCC 
  85      CC3D
  86 0041 C7805002 		movl	$0x41700000, 592(%eax)
  86      00000000 
  86      7041
  87 004b C7805402 		movl	$0x3f666666, 596(%eax)
  87      00006666 
GAS LISTING /cygdrive/c/Users/pc/AppData/Local/Temp/cc4ViH1f.s 			page 3


  87      663F
  88 0055 C7805802 		movl	$0x41600000, 600(%eax)
  88      00000000 
  88      6041
  89 005f 83C41C   		addl	$28, %esp
  90              		.cfi_remember_state
  91              		.cfi_def_cfa_offset 4
  92 0062 C3       		ret
  93              		.p2align 4,,7
  94              	L9:
  95              		.cfi_restore_state
  96 0063 C7804C02 		movl	$0x00000000, 588(%eax)
  96      00000000 
  96      0000
  97 006d C7805002 		movl	$0x41200000, 592(%eax)
  97      00000000 
  97      2041
  98 0077 C7805402 		movl	$0x40a00000, 596(%eax)
  98      00000000 
  98      A040
  99 0081 C7805802 		movl	$0x41a00000, 600(%eax)
  99      00000000 
  99      A041
 100 008b 83C41C   		addl	$28, %esp
 101              		.cfi_remember_state
 102              		.cfi_def_cfa_offset 4
 103 008e C3       		ret
 104 008f 90       		.p2align 4,,7
 105              	L5:
 106              		.cfi_restore_state
 107 0090 C7804C02 		movl	$0x00000000, 588(%eax)
 107      00000000 
 107      0000
 108 009a C7805002 		movl	$0x41100000, 592(%eax)
 108      00000000 
 108      1041
 109 00a4 C7805402 		movl	$0x40a00000, 596(%eax)
 109      00000000 
 109      A040
 110 00ae C7805802 		movl	$0x41980000, 600(%eax)
 110      00000000 
 110      9841
 111 00b8 83C41C   		addl	$28, %esp
 112              		.cfi_remember_state
 113              		.cfi_def_cfa_offset 4
 114 00bb C3       		ret
 115 00bc 8D742600 		.p2align 4,,7
 116              	L6:
 117              		.cfi_restore_state
 118 00c0 C7804C02 		movl	$0x00000000, 588(%eax)
 118      00000000 
 118      0000
 119 00ca C7805002 		movl	$0x40eb3333, 592(%eax)
 119      00003333 
 119      EB40
 120 00d4 C7805402 		movl	$0x40a00000, 596(%eax)
 120      00000000 
GAS LISTING /cygdrive/c/Users/pc/AppData/Local/Temp/cc4ViH1f.s 			page 4


 120      A040
 121 00de C7805802 		movl	$0x41b31eb8, 600(%eax)
 121      0000B81E 
 121      B341
 122 00e8 83C41C   		addl	$28, %esp
 123              		.cfi_remember_state
 124              		.cfi_def_cfa_offset 4
 125 00eb C3       		ret
 126 00ec 8D742600 		.p2align 4,,7
 127              	L7:
 128              		.cfi_restore_state
 129 00f0 C7804C02 		movl	$0x00000000, 588(%eax)
 129      00000000 
 129      0000
 130 00fa C7805002 		movl	$0x411fef9e, 592(%eax)
 130      00009EEF 
 130      1F41
 131 0104 C7805402 		movl	$0x40a00000, 596(%eax)
 131      00000000 
 131      A040
 132 010e C7805802 		movl	$0x419fef9e, 600(%eax)
 132      00009EEF 
 132      9F41
 133 0118 83C41C   		addl	$28, %esp
 134              		.cfi_def_cfa_offset 4
 135 011b C3       		ret
 136              		.cfi_endproc
 137              	LFE87:
 138 011c 90909090 		.section .rdata,"dr"
 139              		.align 4
 140              	LC1:
 141 002c 010C403A 		.long	977275905
 142              		.def	__Z11getAdcValuePKci;	.scl	2;	.type	32;	.endef
 143              		.def	__Z11interpolatefffff;	.scl	2;	.type	32;	.endef
 144              		.def	_firmwareError;	.scl	2;	.type	32;	.endef
GAS LISTING /cygdrive/c/Users/pc/AppData/Local/Temp/cc4ViH1f.s 			page 5

