GAS LISTING /cygdrive/c/Users/pc/AppData/Local/Temp/cczYkTw5.s 			page 1


   1              		.file	"engine_math.cpp"
   2              		.section	.text$_Z29getCrankshaftRevolutionTimeMsi,"x"
   3              		.p2align 4,,15
   4              		.globl	__Z29getCrankshaftRevolutionTimeMsi
   5              		.def	__Z29getCrankshaftRevolutionTimeMsi;	.scl	2;	.type	32;	.endef
   6              	__Z29getCrankshaftRevolutionTimeMsi:
   7              	LFB85:
   8              		.cfi_startproc
   9 0000 DB442404 		fildl	4(%esp)
  10 0004 D83D0002 		fdivrs	LC0
  10      0000
  11 000a D80D0402 		fmuls	LC1
  11      0000
  12 0010 C3       		ret
  13              		.cfi_endproc
  14              	LFE85:
  15 0011 90909090 		.section .rdata,"dr"
  15      90909090 
  15      90909090 
  15      909090
  16              	LC4:
  17 0000 656E6769 		.ascii "engine 2NULL\0"
  17      6E652032 
  17      4E554C4C 
  17      00
  18              	LC5:
  19 000d 656E6769 		.ascii "engineConfiguration 2NULL\0"
  19      6E65436F 
  19      6E666967 
  19      75726174 
  19      696F6E20 
  20 0027 00       		.align 4
  21              	LC6:
  22 0028 4D414620 		.ascii "MAF sensor needed for current fuel algorithm\0"
  22      73656E73 
  22      6F72206E 
  22      65656465 
  22      6420666F 
  23              	LC7:
  24 0055 6D616600 		.ascii "maf\0"
  25 0059 000000   		.align 4
  26              	LC9:
  27 005c 556E6578 		.ascii "Unexpected engine load parameter: %d\0"
  27      70656374 
  27      65642065 
  27      6E67696E 
  27      65206C6F 
  28              		.section	.text$_Z14getEngineLoadTv,"x"
  29              		.p2align 4,,15
  30              		.globl	__Z14getEngineLoadTv
  31              		.def	__Z14getEngineLoadTv;	.scl	2;	.type	32;	.endef
  32              	__Z14getEngineLoadTv:
  33              	LFB86:
  34              		.cfi_startproc
  35 0000 83EC2C   		subl	$44, %esp
  36              		.cfi_def_cfa_offset 48
  37 0003 A1000000 		movl	_engine, %eax
GAS LISTING /cygdrive/c/Users/pc/AppData/Local/Temp/cczYkTw5.s 			page 2


  37      00
  38 0008 85C0     		testl	%eax, %eax
  39 000a 0F84C000 		je	L15
  39      0000
  40 0010 A1000000 		movl	_engineConfiguration, %eax
  40      00
  41 0015 85C0     		testl	%eax, %eax
  42 0017 0F84CA00 		je	L16
  42      0000
  43 001d 8B80A801 		movl	424(%eax), %eax
  43      0000
  44 0023 83F804   		cmpl	$4, %eax
  45 0026 7620     		jbe	L17
  46 0028 89442408 		movl	%eax, 8(%esp)
  47 002c C7442404 		movl	$LC9, 4(%esp)
  47      5C000000 
  48 0034 C704245E 		movl	$606, (%esp)
  48      020000
  49 003b E8000000 		call	_warning
  49      00
  50 0040 D9E8     		fld1
  51 0042 D9E0     		fchs
  52              	L4:
  53 0044 83C42C   		addl	$44, %esp
  54              		.cfi_remember_state
  55              		.cfi_def_cfa_offset 4
  56 0047 C3       		ret
  57              		.p2align 4,,7
  58              	L17:
  59              		.cfi_restore_state
  60 0048 FF248584 		jmp	*L11(,%eax,4)
  60      000000
  61              		.section .rdata,"dr"
  62 0081 000000   		.align 4
  63              	L11:
  64 0084 60000000 		.long	L7
  65 0088 58000000 		.long	L8
  66 008c 50000000 		.long	L9
  67 0090 50000000 		.long	L9
  68 0094 85000000 		.long	L10
  69              		.section	.text$_Z14getEngineLoadTv,"x"
  70 004f 90       		.p2align 4,,7
  71              	L9:
  72 0050 83C42C   		addl	$44, %esp
  73              		.cfi_remember_state
  74              		.cfi_def_cfa_offset 4
  75 0053 E9000000 		jmp	__Z6getMapv
  75      00
  76              		.p2align 4,,7
  77              	L8:
  78              		.cfi_restore_state
  79 0058 83C42C   		addl	$44, %esp
  80              		.cfi_remember_state
  81              		.cfi_def_cfa_offset 4
  82 005b E9000000 		jmp	__Z6getTPSv
  82      00
  83              		.p2align 4,,7
GAS LISTING /cygdrive/c/Users/pc/AppData/Local/Temp/cczYkTw5.s 			page 3


  84              	L7:
  85              		.cfi_restore_state
  86 0060 E8000000 		call	__Z12hasMafSensorv
  86      00
  87 0065 84C0     		testb	%al, %al
  88 0067 7527     		jne	L12
  89 0069 C7442404 		movl	$LC6, 4(%esp)
  89      28000000 
  90 0071 C704245E 		movl	$606, (%esp)
  90      020000
  91 0078 E8000000 		call	_warning
  91      00
  92 007d D9050802 		flds	LC2
  92      0000
  93 0083 EBBF     		jmp	L4
  94              		.p2align 4,,7
  95              	L10:
  96 0085 83C42C   		addl	$44, %esp
  97              		.cfi_remember_state
  98              		.cfi_def_cfa_offset 4
  99 0088 E9000000 		jmp	__Z10getRealMafv
  99      00
 100 008d 8D7600   		.p2align 4,,7
 101              	L12:
 102              		.cfi_restore_state
 103 0090 A1000000 		movl	_engineConfiguration, %eax
 103      00
 104 0095 8B804402 		movl	580(%eax), %eax
 104      0000
 105 009b C7042455 		movl	$LC7, (%esp)
 105      000000
 106 00a2 89442404 		movl	%eax, 4(%esp)
 107 00a6 E8000000 		call	__Z11getAdcValuePKci
 107      00
 108 00ab 8944241C 		movl	%eax, 28(%esp)
 109 00af A1000000 		movl	_engineConfiguration, %eax
 109      00
 110 00b4 DB44241C 		fildl	28(%esp)
 111 00b8 D80D0C02 		fmuls	LC8
 111      0000
 112 00be D888D001 		fmuls	464(%eax)
 112      0000
 113 00c4 E97BFFFF 		jmp	L4
 113      FF
 114 00c9 8DB42600 		.p2align 4,,7
 114      000000
 115              	L15:
 116 00d0 C7042400 		movl	$LC4, (%esp)
 116      000000
 117 00d7 E8000000 		call	_firmwareError
 117      00
 118 00dc D9050802 		flds	LC2
 118      0000
 119 00e2 E95DFFFF 		jmp	L4
 119      FF
 120              		.p2align 4,,7
 121              	L16:
GAS LISTING /cygdrive/c/Users/pc/AppData/Local/Temp/cczYkTw5.s 			page 4


 122 00e7 C704240D 		movl	$LC5, (%esp)
 122      000000
 123 00ee E8000000 		call	_firmwareError
 123      00
 124 00f3 D9050802 		flds	LC2
 124      0000
 125 00f9 E946FFFF 		jmp	L4
 125      FF
 126              		.cfi_endproc
 127              	LFE86:
 128 00fe 9090     		.section	.text$_Z18setSingleCoilDwellP22engine_configuration_s,"x"
 129              		.p2align 4,,15
 130              		.globl	__Z18setSingleCoilDwellP22engine_configuration_s
 131              		.def	__Z18setSingleCoilDwellP22engine_configuration_s;	.scl	2;	.type	32;	.endef
 132              	__Z18setSingleCoilDwellP22engine_configuration_s:
 133              	LFB87:
 134              		.cfi_startproc
 135 0000 83EC04   		subl	$4, %esp
 136              		.cfi_def_cfa_offset 8
 137 0003 B8F6FFFF 		movl	$-10, %eax
 137      FF
 138 0008 8B542408 		movl	8(%esp), %edx
 139 000c 8D742600 		.p2align 4,,7
 140              	L19:
 141 0010 890424   		movl	%eax, (%esp)
 142 0013 DB0424   		fildl	(%esp)
 143 0016 D99C8278 		fstps	376(%edx,%eax,4)
 143      010000
 144 001d C7848298 		movl	$0xbf800000, 408(%edx,%eax,4)
 144      01000000 
 144      0080BF
 145 0028 83C001   		addl	$1, %eax
 146 002b 83F8FE   		cmpl	$-2, %eax
 147 002e 75E0     		jne	L19
 148 0030 C7826401 		movl	$0x3f800000, 356(%edx)
 148      00000000 
 148      803F
 149 003a C7828401 		movl	$0x40800000, 388(%edx)
 149      00000000 
 149      8040
 150 0044 C7826801 		movl	$0x458ca000, 360(%edx)
 150      000000A0 
 150      8C45
 151 004e C7828801 		movl	$0x40800000, 392(%edx)
 151      00000000 
 151      8040
 152 0058 C7826C01 		movl	$0x46435000, 364(%edx)
 152      00000050 
 152      4346
 153 0062 C7828C01 		movl	$0x00000000, 396(%edx)
 153      00000000 
 153      0000
 154 006c 83C404   		addl	$4, %esp
 155              		.cfi_def_cfa_offset 4
 156 006f C3       		ret
 157              		.cfi_endproc
 158              	LFE87:
GAS LISTING /cygdrive/c/Users/pc/AppData/Local/Temp/cczYkTw5.s 			page 5


 159              		.section	.text$_ZN12FuelSchedule5clearEv,"x"
 160              		.align 2
 161              		.p2align 4,,15
 162              		.globl	__ZN12FuelSchedule5clearEv
 163              		.def	__ZN12FuelSchedule5clearEv;	.scl	2;	.type	32;	.endef
 164              	__ZN12FuelSchedule5clearEv:
 165              	LFB93:
 166              		.cfi_startproc
 167 0000 83EC08   		subl	$8, %esp
 168              		.cfi_def_cfa_offset 12
 169 0003 BAFC0000 		movl	$252, %edx
 169      00
 170 0008 897C2404 		movl	%edi, 4(%esp)
 171              		.cfi_offset 7, -8
 172 000c 8DB96827 		leal	10088(%ecx), %edi
 172      0000
 173 0012 F7C70100 		testl	$1, %edi
 173      0000
 174 0018 891C24   		movl	%ebx, (%esp)
 175              		.cfi_offset 3, -12
 176 001b 89CB     		movl	%ecx, %ebx
 177 001d 7541     		jne	L40
 178 001f F7C70200 		testl	$2, %edi
 178      0000
 179 0025 7550     		jne	L41
 180              	L24:
 181 0027 89D1     		movl	%edx, %ecx
 182 0029 31C0     		xorl	%eax, %eax
 183 002b C1E902   		shrl	$2, %ecx
 184 002e F6C202   		testb	$2, %dl
 185 0031 F3AB     		rep stosl
 186 0033 7408     		je	L25
 187 0035 66C70700 		movw	$0, (%edi)
 187      00
 188 003a 83C702   		addl	$2, %edi
 189              	L25:
 190 003d 83E201   		andl	$1, %edx
 191 0040 7403     		je	L26
 192 0042 C60700   		movb	$0, (%edi)
 193              	L26:
 194 0045 C7836428 		movl	$0, 10340(%ebx)
 194      00000000 
 194      0000
 195 004f 8B7C2404 		movl	4(%esp), %edi
 196 0053 8B1C24   		movl	(%esp), %ebx
 197 0056 83C408   		addl	$8, %esp
 198              		.cfi_remember_state
 199              		.cfi_restore 7
 200              		.cfi_restore 3
 201              		.cfi_def_cfa_offset 4
 202 0059 C3       		ret
 203 005a 8DB60000 		.p2align 4,,7
 203      0000
 204              	L40:
 205              		.cfi_restore_state
 206 0060 8DB96927 		leal	10089(%ecx), %edi
 206      0000
GAS LISTING /cygdrive/c/Users/pc/AppData/Local/Temp/cczYkTw5.s 			page 6


 207 0066 B2FB     		movb	$-5, %dl
 208 0068 F7C70200 		testl	$2, %edi
 208      0000
 209 006e C6816827 		movb	$0, 10088(%ecx)
 209      000000
 210 0075 74B0     		je	L24
 211              		.p2align 4,,7
 212              	L41:
 213 0077 66C70700 		movw	$0, (%edi)
 213      00
 214 007c 83EA02   		subl	$2, %edx
 215 007f 83C702   		addl	$2, %edi
 216 0082 EBA3     		jmp	L24
 217              		.cfi_endproc
 218              	LFE93:
 219 0084 90909090 		.section	.text$_ZN12FuelScheduleC2Ev,"x"
 219      90909090 
 219      90909090 
 220              		.align 2
 221              		.p2align 4,,15
 222              		.globl	__ZN12FuelScheduleC2Ev
 223              		.def	__ZN12FuelScheduleC2Ev;	.scl	2;	.type	32;	.endef
 224              	__ZN12FuelScheduleC2Ev:
 225              	LFB91:
 226              		.cfi_startproc
 227 0000 55       		pushl	%ebp
 228              		.cfi_def_cfa_offset 8
 229              		.cfi_offset 5, -8
 230 0001 57       		pushl	%edi
 231              		.cfi_def_cfa_offset 12
 232              		.cfi_offset 7, -12
 233 0002 89CF     		movl	%ecx, %edi
 234 0004 56       		pushl	%esi
 235              		.cfi_def_cfa_offset 16
 236              		.cfi_offset 6, -16
 237 0005 53       		pushl	%ebx
 238              		.cfi_def_cfa_offset 20
 239              		.cfi_offset 3, -20
 240 0006 8D6908   		leal	8(%ecx), %ebp
 241 0009 83EC1C   		subl	$28, %esp
 242              		.cfi_def_cfa_offset 48
 243 000c 89EB     		movl	%ebp, %ebx
 244 000e 8DB16827 		leal	10088(%ecx), %esi
 244      0000
 245              		.p2align 4,,7
 246              	L43:
 247 0014 89D9     		movl	%ebx, %ecx
 248 0016 81C3E000 		addl	$224, %ebx
 248      0000
 249 001c E8000000 		call	__ZN14InjectionEventC1Ev
 249      00
 250 0021 39F3     		cmpl	%esi, %ebx
 251 0023 75EF     		jne	L43
 252 0025 892C24   		movl	%ebp, (%esp)
 253 0028 C7442408 		movl	$10080, 8(%esp)
 253      60270000 
 254 0030 C7442404 		movl	$0, 4(%esp)
GAS LISTING /cygdrive/c/Users/pc/AppData/Local/Temp/cczYkTw5.s 			page 7


 254      00000000 
 255 0038 E8000000 		call	_memset
 255      00
 256 003d 89F9     		movl	%edi, %ecx
 257 003f C7070000 		movl	$0, (%edi)
 257      0000
 258 0045 83C41C   		addl	$28, %esp
 259              		.cfi_def_cfa_offset 20
 260 0048 5B       		popl	%ebx
 261              		.cfi_restore 3
 262              		.cfi_def_cfa_offset 16
 263 0049 5E       		popl	%esi
 264              		.cfi_restore 6
 265              		.cfi_def_cfa_offset 12
 266 004a 5F       		popl	%edi
 267              		.cfi_restore 7
 268              		.cfi_def_cfa_offset 8
 269 004b 5D       		popl	%ebp
 270              		.cfi_restore 5
 271              		.cfi_def_cfa_offset 4
 272 004c E9000000 		jmp	__ZN12FuelSchedule5clearEv
 272      00
 273              		.cfi_endproc
 274              	LFE91:
 275              		.globl	__ZN12FuelScheduleC1Ev
 276              		.def	__ZN12FuelScheduleC1Ev;	.scl	2;	.type	32;	.endef
 277              		.set	__ZN12FuelScheduleC1Ev,__ZN12FuelScheduleC2Ev
 278 0051 90909090 		.section .rdata,"dr"
 278      90909090 
 278      90909090 
 278      909090
 279              	LC15:
 280 0098 696E7661 		.ascii "invalid rpm\0"
 280      6C696420 
 280      72706D00 
 281              		.section	.text$_Z16getSparkDwellMsTi,"x"
 282              		.p2align 4,,15
 283              		.globl	__Z16getSparkDwellMsTi
 284              		.def	__Z16getSparkDwellMsTi;	.scl	2;	.type	32;	.endef
 285              	__Z16getSparkDwellMsTi:
 286              	LFB95:
 287              		.cfi_startproc
 288 0000 83EC2C   		subl	$44, %esp
 289              		.cfi_def_cfa_offset 48
 290 0003 8B442430 		movl	48(%esp), %eax
 291 0007 85C0     		testl	%eax, %eax
 292 0009 7E2C     		jle	L47
 293 000b 0FBF1568 		movswl	_persistentState+104, %edx
 293      000000
 294 0012 39C2     		cmpl	%eax, %edx
 295 0014 7E1A     		jle	L48
 296 0016 8B150000 		movl	_engineConfiguration, %edx
 296      0000
 297 001c F682D805 		testb	$16, 1496(%edx)
 297      000010
 298 0023 744B     		je	L49
 299 0025 D94268   		flds	104(%edx)
GAS LISTING /cygdrive/c/Users/pc/AppData/Local/Temp/cczYkTw5.s 			page 8


 300 0028 83C42C   		addl	$44, %esp
 301              		.cfi_remember_state
 302              		.cfi_def_cfa_offset 4
 303 002b C3       		ret
 304 002c 8D742600 		.p2align 4,,7
 305              	L48:
 306              		.cfi_restore_state
 307 0030 3D0000C0 		cmpl	$2143289344, %eax
 307      7F
 308 0035 744E     		je	L52
 309              	L47:
 310 0037 8B150000 		movl	_engineConfiguration, %edx
 310      0000
 311 003d 8944241C 		movl	%eax, 28(%esp)
 312 0041 DB44241C 		fildl	28(%esp)
 313 0045 C744240C 		movl	$8, 12(%esp)
 313      08000000 
 314 004d D91C24   		fstps	(%esp)
 315 0050 8D8A7001 		leal	368(%edx), %ecx
 315      0000
 316 0056 81C25001 		addl	$336, %edx
 316      0000
 317 005c 894C2408 		movl	%ecx, 8(%esp)
 318 0060 89542404 		movl	%edx, 4(%esp)
 319 0064 E8000000 		call	__Z13interpolate2dfPfS_i
 319      00
 320 0069 83C42C   		addl	$44, %esp
 321              		.cfi_remember_state
 322              		.cfi_def_cfa_offset 4
 323 006c C3       		ret
 324 006d 8D7600   		.p2align 4,,7
 325              	L49:
 326              		.cfi_restore_state
 327 0070 8944241C 		movl	%eax, 28(%esp)
 328 0074 DB44241C 		fildl	28(%esp)
 329 0078 D83D0002 		fdivrs	LC0
 329      0000
 330 007e D84A6C   		fmuls	108(%edx)
 331 0081 83C42C   		addl	$44, %esp
 332              		.cfi_remember_state
 333              		.cfi_def_cfa_offset 4
 334 0084 C3       		ret
 335              		.p2align 4,,7
 336              	L52:
 337              		.cfi_restore_state
 338 0085 C7042498 		movl	$LC15, (%esp)
 338      000000
 339 008c E8000000 		call	_firmwareError
 339      00
 340 0091 D9050802 		flds	LC2
 340      0000
 341 0097 83C42C   		addl	$44, %esp
 342              		.cfi_def_cfa_offset 4
 343 009a C3       		ret
 344              		.cfi_endproc
 345              	LFE95:
 346 009b 90909090 		.section .rdata,"dr"
GAS LISTING /cygdrive/c/Users/pc/AppData/Local/Temp/cczYkTw5.s 			page 9


 346      90
 347              	LC16:
 348 00a4 7A65726F 		.ascii "zero engineCycle\0"
 348      20656E67 
 348      696E6543 
 348      79636C65 
 348      00
 349 00b5 000000   		.align 4
 350              	LC17:
 351 00b8 616E676C 		.ascii "angle constraint violation in findTriggerPosition(): %f/%f\0"
 351      6520636F 
 351      6E737472 
 351      61696E74 
 351      2076696F 
 352              		.section	.text$_Z19findTriggerPositionP24event_trigger_position_sf,"x"
 353              		.p2align 4,,15
 354              		.globl	__Z19findTriggerPositionP24event_trigger_position_sf
 355              		.def	__Z19findTriggerPositionP24event_trigger_position_sf;	.scl	2;	.type	32;	.endef
 356              	__Z19findTriggerPositionP24event_trigger_position_sf:
 357              	LFB97:
 358              		.cfi_startproc
 359 0000 53       		pushl	%ebx
 360              		.cfi_def_cfa_offset 8
 361              		.cfi_offset 3, -8
 362 0001 83EC48   		subl	$72, %esp
 363              		.cfi_def_cfa_offset 80
 364 0004 A1000000 		movl	_engine, %eax
 364      00
 365 0009 8B15A801 		movl	_persistentState+424, %edx
 365      0000
 366 000f 8B5C2450 		movl	80(%esp), %ebx
 367 0013 D980E40D 		flds	3556(%eax)
 367      0000
 368 0019 D805D401 		fadds	_persistentState+468
 368      0000
 369 001f 85D2     		testl	%edx, %edx
 370 0021 D8442454 		fadds	84(%esp)
 371 0025 747C     		je	L71
 372              	L54:
 373 0027 D9EE     		fldz
 374 0029 89542438 		movl	%edx, 56(%esp)
 375 002d DBE9     		fucomi	%st(1), %st
 376 002f DB442438 		fildl	56(%esp)
 377 0033 7704     		ja	L57
 378 0035 EB1D     		jmp	L74
 379              		.p2align 4,,7
 380              	L75:
 381 0037 D9C9     		fxch	%st(1)
 382              	L57:
 383 0039 DCC2     		fadd	%st, %st(2)
 384 003b D9C9     		fxch	%st(1)
 385 003d DBEA     		fucomi	%st(2), %st
 386 003f 77F6     		ja	L75
 387 0041 DDD8     		fstp	%st(0)
 388 0043 D9C9     		fxch	%st(1)
 389 0045 DBE9     		fucomi	%st(1), %st
 390 0047 7217     		jb	L76
GAS LISTING /cygdrive/c/Users/pc/AppData/Local/Temp/cczYkTw5.s 			page 10


 391 0049 8DB42600 		.p2align 4,,7
 391      000000
 392              	L65:
 393 0050 D8E1     		fsub	%st(1), %st
 394 0052 EB04     		jmp	L70
 395              	L74:
 396 0054 DDD9     		fstp	%st(1)
 397 0056 D9C9     		fxch	%st(1)
 398              		.p2align 4,,7
 399              	L70:
 400 0058 DBE9     		fucomi	%st(1), %st
 401 005a 73F4     		jae	L65
 402 005c DDD9     		fstp	%st(1)
 403 005e EB02     		jmp	L72
 404              	L76:
 405 0060 DDD9     		fstp	%st(1)
 406              		.p2align 4,,7
 407              	L72:
 408 0062 D97C243E 		fnstcw	62(%esp)
 409 0066 0FB75424 		movzwl	62(%esp), %edx
 409      3E
 410 006b B60C     		movb	$12, %dh
 411 006d 66895424 		movw	%dx, 60(%esp)
 411      3C
 412 0072 D96C243C 		fldcw	60(%esp)
 413 0076 DB542438 		fistl	56(%esp)
 414 007a D96C243E 		fldcw	62(%esp)
 415 007e 8B542438 		movl	56(%esp), %edx
 416 0082 8B94909C 		movl	668(%eax,%edx,4), %edx
 416      020000
 417 0089 D9849010 		flds	3600(%eax,%edx,4)
 417      0E0000
 418 0090 DBE9     		fucomi	%st(1), %st
 419 0092 7733     		ja	L73
 420 0094 D95304   		fsts	4(%ebx)
 421 0097 DEE9     		fsubrp	%st, %st(1)
 422 0099 8913     		movl	%edx, (%ebx)
 423 009b D95B08   		fstps	8(%ebx)
 424 009e 83C448   		addl	$72, %esp
 425              		.cfi_remember_state
 426              		.cfi_def_cfa_offset 8
 427 00a1 5B       		popl	%ebx
 428              		.cfi_restore 3
 429              		.cfi_def_cfa_offset 4
 430 00a2 C3       		ret
 431              		.p2align 4,,7
 432              	L71:
 433              		.cfi_restore_state
 434 00a3 C70424A4 		movl	$LC16, (%esp)
 434      000000
 435 00aa D95C2420 		fstps	32(%esp)
 436 00ae E8000000 		call	_firmwareError
 436      00
 437 00b3 8B15A801 		movl	_persistentState+424, %edx
 437      0000
 438 00b9 A1000000 		movl	_engine, %eax
 438      00
GAS LISTING /cygdrive/c/Users/pc/AppData/Local/Temp/cczYkTw5.s 			page 11


 439 00be D9442420 		flds	32(%esp)
 440 00c2 E960FFFF 		jmp	L54
 440      FF
 441              		.p2align 4,,7
 442              	L73:
 443 00c7 DD5C2410 		fstpl	16(%esp)
 444 00cb C7442404 		movl	$LC17, 4(%esp)
 444      B8000000 
 445 00d3 DD5C2408 		fstpl	8(%esp)
 446 00d7 C704245E 		movl	$606, (%esp)
 446      020000
 447 00de E8000000 		call	_warning
 447      00
 448 00e3 83C448   		addl	$72, %esp
 449              		.cfi_def_cfa_offset 8
 450 00e6 5B       		popl	%ebx
 451              		.cfi_restore 3
 452              		.cfi_def_cfa_offset 4
 453 00e7 C3       		ret
 454              		.cfi_endproc
 455              	LFE97:
 456 00e8 90909090 		.section .rdata,"dr"
 456      90909090 
 457              	LC18:
 458 00f3 63796C69 		.ascii "cylindersCount\0"
 458      6E646572 
 458      73436F75 
 458      6E7400
 459              	LC19:
 460 0102 61646428 		.ascii "add() too many elements\0"
 460      2920746F 
 460      6F206D61 
 460      6E792065 
 460      6C656D65 
 461              		.section	.text$_Z25initializeIgnitionActionsffP9ArrayListI13IgnitionEventLi80EE,"x"
 462              		.p2align 4,,15
 463              		.globl	__Z25initializeIgnitionActionsffP9ArrayListI13IgnitionEventLi80EE
 464              		.def	__Z25initializeIgnitionActionsffP9ArrayListI13IgnitionEventLi80EE;	.scl	2;	.type	32;	.endef
 465              	__Z25initializeIgnitionActionsffP9ArrayListI13IgnitionEventLi80EE:
 466              	LFB88:
 467              		.cfi_startproc
 468 0000 57       		pushl	%edi
 469              		.cfi_def_cfa_offset 8
 470              		.cfi_offset 7, -8
 471 0001 56       		pushl	%esi
 472              		.cfi_def_cfa_offset 12
 473              		.cfi_offset 6, -12
 474 0002 53       		pushl	%ebx
 475              		.cfi_def_cfa_offset 16
 476              		.cfi_offset 3, -16
 477 0003 83EC30   		subl	$48, %esp
 478              		.cfi_def_cfa_offset 64
 479 0006 A1000000 		movl	_engineConfiguration, %eax
 479      00
 480 000b D9442440 		flds	64(%esp)
 481 000f D95C2428 		fstps	40(%esp)
 482 0013 8B742448 		movl	72(%esp), %esi
GAS LISTING /cygdrive/c/Users/pc/AppData/Local/Temp/cczYkTw5.s 			page 12


 483 0017 D9442444 		flds	68(%esp)
 484 001b 8B889401 		movl	404(%eax), %ecx
 484      0000
 485 0021 D95C242C 		fstps	44(%esp)
 486 0025 85C9     		testl	%ecx, %ecx
 487 0027 0F8E8B00 		jle	L87
 487      0000
 488 002d 8B159C01 		movl	_persistentState+412, %edx
 488      0000
 489 0033 31C0     		xorl	%eax, %eax
 490 0035 31DB     		xorl	%ebx, %ebx
 491 0037 C7060000 		movl	$0, (%esi)
 491      0000
 492 003d 85D2     		testl	%edx, %edx
 493 003f 7F04     		jg	L85
 494 0041 EB51     		jmp	L77
 495              		.p2align 4,,7
 496              	L89:
 497 0043 8B06     		movl	(%esi), %eax
 498              	L85:
 499 0045 8B150000 		movl	_engine, %edx
 499      0000
 500 004b 83F84F   		cmpl	$79, %eax
 501 004e D9442428 		flds	40(%esp)
 502 0052 D8849AF0 		fadds	7664(%edx,%ebx,4)
 502      1D0000
 503 0059 8BBC9A20 		movl	7712(%edx,%ebx,4), %edi
 503      1E0000
 504 0060 7F3E     		jg	L88
 505 0062 8D14C0   		leal	(%eax,%eax,8), %edx
 506 0065 83C001   		addl	$1, %eax
 507 0068 C1E204   		sall	$4, %edx
 508 006b 8D541608 		leal	8(%esi,%edx), %edx
 509 006f 8906     		movl	%eax, (%esi)
 510              	L82:
 511 0071 D95268   		fsts	104(%edx)
 512 0074 83C301   		addl	$1, %ebx
 513 0077 D864242C 		fsubs	44(%esp)
 514 007b 893A     		movl	%edi, (%edx)
 515 007d 83C26C   		addl	$108, %edx
 516 0080 891424   		movl	%edx, (%esp)
 517 0083 D95C2404 		fstps	4(%esp)
 518 0087 E8000000 		call	__Z19findTriggerPositionP24event_trigger_position_sf
 518      00
 519 008c 391D9C01 		cmpl	%ebx, _persistentState+412
 519      0000
 520 0092 7FAF     		jg	L89
 521              	L77:
 522 0094 83C430   		addl	$48, %esp
 523              		.cfi_remember_state
 524              		.cfi_def_cfa_offset 16
 525 0097 5B       		popl	%ebx
 526              		.cfi_restore 3
 527              		.cfi_def_cfa_offset 12
 528 0098 5E       		popl	%esi
 529              		.cfi_restore 6
 530              		.cfi_def_cfa_offset 8
GAS LISTING /cygdrive/c/Users/pc/AppData/Local/Temp/cczYkTw5.s 			page 13


 531 0099 5F       		popl	%edi
 532              		.cfi_restore 7
 533              		.cfi_def_cfa_offset 4
 534 009a C3       		ret
 535 009b 908D7426 		.p2align 4,,7
 535      00
 536              	L88:
 537              		.cfi_restore_state
 538 00a0 C7042402 		movl	$LC19, (%esp)
 538      010000
 539 00a7 D95C2410 		fstps	16(%esp)
 540 00ab E8000000 		call	_firmwareError
 540      00
 541 00b0 31D2     		xorl	%edx, %edx
 542 00b2 D9442410 		flds	16(%esp)
 543 00b6 EBB9     		jmp	L82
 544              	L87:
 545 00b8 C7442440 		movl	$LC18, 64(%esp)
 545      F3000000 
 546 00c0 83C430   		addl	$48, %esp
 547              		.cfi_def_cfa_offset 16
 548 00c3 5B       		popl	%ebx
 549              		.cfi_restore 3
 550              		.cfi_def_cfa_offset 12
 551 00c4 5E       		popl	%esi
 552              		.cfi_restore 6
 553              		.cfi_def_cfa_offset 8
 554 00c5 5F       		popl	%edi
 555              		.cfi_restore 7
 556              		.cfi_def_cfa_offset 4
 557 00c6 E9000000 		jmp	_firmwareError
 557      00
 558              		.cfi_endproc
 559              	LFE88:
 560 00cb 90909090 		.section .rdata,"dr"
 560      90
 561              	LC20:
 562 011a 756E696E 		.ascii "uninitialized TriggerShape\0"
 562      69746961 
 562      6C697A65 
 562      64205472 
 562      69676765 
 563              		.section	.text$_ZN12FuelSchedule22registerInjectionEventEP14NamedOutputPinfb,"x"
 564              		.align 2
 565              		.p2align 4,,15
 566              		.globl	__ZN12FuelSchedule22registerInjectionEventEP14NamedOutputPinfb
 567              		.def	__ZN12FuelSchedule22registerInjectionEventEP14NamedOutputPinfb;	.scl	2;	.type	32;	.endef
 568              	__ZN12FuelSchedule22registerInjectionEventEP14NamedOutputPinfb:
 569              	LFB89:
 570              		.cfi_startproc
 571 0000 83EC1C   		subl	$28, %esp
 572              		.cfi_def_cfa_offset 32
 573 0003 8B01     		movl	(%ecx), %eax
 574 0005 895C2410 		movl	%ebx, 16(%esp)
 575 0009 8B542428 		movl	40(%esp), %edx
 576              		.cfi_offset 3, -16
 577 000d 89CB     		movl	%ecx, %ebx
GAS LISTING /cygdrive/c/Users/pc/AppData/Local/Temp/cczYkTw5.s 			page 14


 578 000f 89742414 		movl	%esi, 20(%esp)
 579 0013 897C2418 		movl	%edi, 24(%esp)
 580              		.cfi_offset 6, -12
 581              		.cfi_offset 7, -8
 582 0017 83F82C   		cmpl	$44, %eax
 583 001a 0F8F8000 		jg	L95
 583      0000
 584 0020 69F8E000 		imull	$224, %eax, %edi
 584      0000
 585 0026 83C001   		addl	$1, %eax
 586 0029 8901     		movl	%eax, (%ecx)
 587 002b 8B442420 		movl	32(%esp), %eax
 588 002f 01CF     		addl	%ecx, %edi
 589 0031 8B0D0000 		movl	_engine, %ecx
 589      0000
 590 0037 8D7708   		leal	8(%edi), %esi
 591 003a 894610   		movl	%eax, 16(%esi)
 592 003d 8896D800 		movb	%dl, 216(%esi)
 592      0000
 593 0043 81C18402 		addl	$644, %ecx
 593      0000
 594 0049 E8000000 		call	__ZNK12TriggerShape7getSizeEv
 594      00
 595 004e 85C0     		testl	%eax, %eax
 596 0050 7E3E     		jle	L96
 597 0052 D9442424 		flds	36(%esp)
 598 0056 D95C2404 		fstps	4(%esp)
 599 005a 893424   		movl	%esi, (%esp)
 600 005d E8000000 		call	__Z19findTriggerPositionP24event_trigger_position_sf
 600      00
 601 0062 8B4708   		movl	8(%edi), %eax
 602 0065 80BC0368 		cmpb	$0, 10088(%ebx,%eax)
 602      27000000 
 603 006d 750F     		jne	L90
 604 006f 83836428 		addl	$1, 10340(%ebx)
 604      000001
 605 0076 C6840368 		movb	$1, 10088(%ebx,%eax)
 605      27000001 
 606              	L90:
 607 007e 8B5C2410 		movl	16(%esp), %ebx
 608 0082 8B742414 		movl	20(%esp), %esi
 609 0086 8B7C2418 		movl	24(%esp), %edi
 610 008a 83C41C   		addl	$28, %esp
 611              		.cfi_remember_state
 612              		.cfi_restore 7
 613              		.cfi_restore 6
 614              		.cfi_restore 3
 615              		.cfi_def_cfa_offset 4
 616 008d C20C00   		ret	$12
 617              		.p2align 4,,7
 618              	L96:
 619              		.cfi_restore_state
 620 0090 C704241A 		movl	$LC20, (%esp)
 620      010000
 621 0097 E8000000 		call	_firmwareError
 621      00
 622 009c EBE0     		jmp	L90
GAS LISTING /cygdrive/c/Users/pc/AppData/Local/Temp/cczYkTw5.s 			page 15


 623 009e 6690     		.p2align 4,,7
 624              	L95:
 625 00a0 C7042402 		movl	$LC19, (%esp)
 625      010000
 626 00a7 E8000000 		call	_firmwareError
 626      00
 627 00ac EBD0     		jmp	L90
 628              		.cfi_endproc
 629              	LFE89:
 630 00ae 9090     		.section .rdata,"dr"
 631 0135 000000   		.align 4
 632              	LC21:
 633 0138 67657443 		.ascii "getCylinderId not supported for %d\0"
 633      796C696E 
 633      64657249 
 633      64206E6F 
 633      74207375 
 634              		.section	.text$_Z13getCylinderId14firing_order_ei,"x"
 635              		.p2align 4,,15
 636              		.globl	__Z13getCylinderId14firing_order_ei
 637              		.def	__Z13getCylinderId14firing_order_ei;	.scl	2;	.type	32;	.endef
 638              	__Z13getCylinderId14firing_order_ei:
 639              	LFB98:
 640              		.cfi_startproc
 641 0000 83EC1C   		subl	$28, %esp
 642              		.cfi_def_cfa_offset 32
 643 0003 8B442420 		movl	32(%esp), %eax
 644 0007 83F808   		cmpl	$8, %eax
 645 000a 7624     		jbe	L111
 646 000c 89442408 		movl	%eax, 8(%esp)
 647 0010 C7442404 		movl	$LC21, 4(%esp)
 647      38010000 
 648 0018 C704245E 		movl	$606, (%esp)
 648      020000
 649 001f E8000000 		call	_warning
 649      00
 650 0024 B8010000 		movl	$1, %eax
 650      00
 651 0029 83C41C   		addl	$28, %esp
 652              		.cfi_remember_state
 653              		.cfi_def_cfa_offset 4
 654 002c C3       		ret
 655 002d 8D7600   		.p2align 4,,7
 656              	L111:
 657              		.cfi_restore_state
 658 0030 FF24855C 		jmp	*L108(,%eax,4)
 658      010000
 659              		.section .rdata,"dr"
 660 015b 00       		.align 4
 661              	L108:
 662 015c 55000000 		.long	L109
 663 0160 60000000 		.long	L100
 664 0164 70000000 		.long	L101
 665 0168 80000000 		.long	L102
 666 016c 90000000 		.long	L103
 667 0170 A0000000 		.long	L104
 668 0174 B0000000 		.long	L105
GAS LISTING /cygdrive/c/Users/pc/AppData/Local/Temp/cczYkTw5.s 			page 16


 669 0178 37000000 		.long	L106
 670 017c 46000000 		.long	L107
 671              		.section	.text$_Z13getCylinderId14firing_order_ei,"x"
 672              		.p2align 4,,7
 673              	L106:
 674 0037 8B542424 		movl	36(%esp), %edx
 675 003b 8B049500 		movl	__ZL42order_1_THEN_4_THEN_2_THEN_5_THEN_3_THEN_6(,%edx,4), %eax
 675      000000
 676 0042 83C41C   		addl	$28, %esp
 677              		.cfi_remember_state
 678              		.cfi_def_cfa_offset 4
 679 0045 C3       		ret
 680              		.p2align 4,,7
 681              	L107:
 682              		.cfi_restore_state
 683 0046 8B542424 		movl	36(%esp), %edx
 684 004a 8B049500 		movl	__ZL9order_1_2(,%edx,4), %eax
 684      000000
 685 0051 83C41C   		addl	$28, %esp
 686              		.cfi_remember_state
 687              		.cfi_def_cfa_offset 4
 688 0054 C3       		ret
 689              		.p2align 4,,7
 690              	L109:
 691              		.cfi_restore_state
 692 0055 B8010000 		movl	$1, %eax
 692      00
 693 005a 83C41C   		addl	$28, %esp
 694              		.cfi_remember_state
 695              		.cfi_def_cfa_offset 4
 696 005d C3       		ret
 697 005e 6690     		.p2align 4,,7
 698              	L100:
 699              		.cfi_restore_state
 700 0060 8B542424 		movl	36(%esp), %edx
 701 0064 8B049500 		movl	__ZL27order_1_THEN_3_THEN_4_THEN2(,%edx,4), %eax
 701      000000
 702 006b 83C41C   		addl	$28, %esp
 703              		.cfi_remember_state
 704              		.cfi_def_cfa_offset 4
 705 006e C3       		ret
 706 006f 90       		.p2align 4,,7
 707              	L101:
 708              		.cfi_restore_state
 709 0070 8B542424 		movl	36(%esp), %edx
 710 0074 8B049500 		movl	__ZL27order_1_THEN_2_THEN_4_THEN3(,%edx,4), %eax
 710      000000
 711 007b 83C41C   		addl	$28, %esp
 712              		.cfi_remember_state
 713              		.cfi_def_cfa_offset 4
 714 007e C3       		ret
 715 007f 90       		.p2align 4,,7
 716              	L102:
 717              		.cfi_restore_state
 718 0080 8B542424 		movl	36(%esp), %edx
 719 0084 8B049500 		movl	__ZL27order_1_THEN_3_THEN_2_THEN4(,%edx,4), %eax
 719      000000
GAS LISTING /cygdrive/c/Users/pc/AppData/Local/Temp/cczYkTw5.s 			page 17


 720 008b 83C41C   		addl	$28, %esp
 721              		.cfi_remember_state
 722              		.cfi_def_cfa_offset 4
 723 008e C3       		ret
 724 008f 90       		.p2align 4,,7
 725              	L103:
 726              		.cfi_restore_state
 727 0090 8B542424 		movl	36(%esp), %edx
 728 0094 8B049500 		movl	__ZL42order_1_THEN_5_THEN_3_THEN_6_THEN_2_THEN_4(,%edx,4), %eax
 728      000000
 729 009b 83C41C   		addl	$28, %esp
 730              		.cfi_remember_state
 731              		.cfi_def_cfa_offset 4
 732 009e C3       		ret
 733 009f 90       		.p2align 4,,7
 734              	L104:
 735              		.cfi_restore_state
 736 00a0 8B542424 		movl	36(%esp), %edx
 737 00a4 8B049500 		movl	__ZL21order_1_8_4_3_6_5_7_2(,%edx,4), %eax
 737      000000
 738 00ab 83C41C   		addl	$28, %esp
 739              		.cfi_remember_state
 740              		.cfi_def_cfa_offset 4
 741 00ae C3       		ret
 742 00af 90       		.p2align 4,,7
 743              	L105:
 744              		.cfi_restore_state
 745 00b0 8B542424 		movl	36(%esp), %edx
 746 00b4 8B049500 		movl	__ZL15order_1_2_4_5_3(,%edx,4), %eax
 746      000000
 747 00bb 83C41C   		addl	$28, %esp
 748              		.cfi_def_cfa_offset 4
 749 00be C3       		ret
 750              		.cfi_endproc
 751              	LFE98:
 752 00bf 90       		.section .rdata,"dr"
 753              	LC22:
 754 0180 656E6769 		.ascii "engine is NULL\0"
 754      6E652069 
 754      73204E55 
 754      4C4C00
 755              	LC24:
 756 018f 556E6578 		.ascii "Unexpected injection mode %d\0"
 756      70656374 
 756      65642069 
 756      6E6A6563 
 756      74696F6E 
 757              		.section	.text$_ZN12FuelSchedule13addFuelEventsE16injection_mode_e,"x"
 758              		.align 2
 759              		.p2align 4,,15
 760              		.globl	__ZN12FuelSchedule13addFuelEventsE16injection_mode_e
 761              		.def	__ZN12FuelSchedule13addFuelEventsE16injection_mode_e;	.scl	2;	.type	32;	.endef
 762              	__ZN12FuelSchedule13addFuelEventsE16injection_mode_e:
 763              	LFB94:
 764              		.cfi_startproc
 765 0000 55       		pushl	%ebp
 766              		.cfi_def_cfa_offset 8
GAS LISTING /cygdrive/c/Users/pc/AppData/Local/Temp/cczYkTw5.s 			page 18


 767              		.cfi_offset 5, -8
 768 0001 57       		pushl	%edi
 769              		.cfi_def_cfa_offset 12
 770              		.cfi_offset 7, -12
 771 0002 89CF     		movl	%ecx, %edi
 772 0004 56       		pushl	%esi
 773              		.cfi_def_cfa_offset 16
 774              		.cfi_offset 6, -16
 775 0005 53       		pushl	%ebx
 776              		.cfi_def_cfa_offset 20
 777              		.cfi_offset 3, -20
 778 0006 83EC3C   		subl	$60, %esp
 779              		.cfi_def_cfa_offset 80
 780 0009 8B5C2450 		movl	80(%esp), %ebx
 781 000d E8000000 		call	__ZN12FuelSchedule5clearEv
 781      00
 782 0012 A1000000 		movl	_engine, %eax
 782      00
 783 0017 C7070000 		movl	$0, (%edi)
 783      0000
 784 001d 85C0     		testl	%eax, %eax
 785 001f 0F841F02 		je	L139
 785      0000
 786 0025 81780C00 		cmpl	$2143289344, 12(%eax)
 786      00C07F
 787 002c 0F849500 		je	L112
 787      0000
 788 0032 D9400C   		flds	12(%eax)
 789 0035 83FB01   		cmpl	$1, %ebx
 790 0038 D980E41E 		flds	7908(%eax)
 790      0000
 791 003e D805BC01 		fadds	_persistentState+444
 791      0000
 792 0044 D95C2428 		fstps	40(%esp)
 793 0048 D9051002 		flds	LC23
 793      0000
 794 004e D8886002 		fmuls	608(%eax)
 794      0000
 795 0054 DEF1     		fdivp	%st, %st(1)
 796 0056 D86C2428 		fsubrs	40(%esp)
 797 005a D95C2428 		fstps	40(%esp)
 798 005e 7471     		je	L118
 799 0060 83FB02   		cmpl	$2, %ebx
 800 0063 0F840901 		je	L119
 800      0000
 801 0069 85DB     		testl	%ebx, %ebx
 802 006b 0F85DF00 		jne	L140
 802      0000
 803 0071 A19C0100 		movl	_persistentState+412, %eax
 803      00
 804 0076 31DB     		xorl	%ebx, %ebx
 805 0078 85C0     		testl	%eax, %eax
 806 007a 7E4B     		jle	L112
 807 007c 8D742600 		.p2align 4,,7
 808              	L132:
 809 0080 895C242C 		movl	%ebx, 44(%esp)
 810 0084 DB05A801 		fildl	_persistentState+424
GAS LISTING /cygdrive/c/Users/pc/AppData/Local/Temp/cczYkTw5.s 			page 19


 810      0000
 811 008a 89F9     		movl	%edi, %ecx
 812 008c DB44242C 		fildl	44(%esp)
 813 0090 83C301   		addl	$1, %ebx
 814 0093 DEC9     		fmulp	%st, %st(1)
 815 0095 8944242C 		movl	%eax, 44(%esp)
 816 0099 C7442408 		movl	$1, 8(%esp)
 816      01000000 
 817 00a1 C7042400 		movl	$0, (%esp)
 817      000000
 818 00a8 DB44242C 		fildl	44(%esp)
 819 00ac DEF9     		fdivrp	%st, %st(1)
 820 00ae D8442428 		fadds	40(%esp)
 821 00b2 D95C2404 		fstps	4(%esp)
 822 00b6 E8000000 		call	__ZN12FuelSchedule22registerInjectionEventEP14NamedOutputPinfb
 822      00
 823              		.cfi_def_cfa_offset 68
 824 00bb A19C0100 		movl	_persistentState+412, %eax
 824      00
 825 00c0 83EC0C   		subl	$12, %esp
 826              		.cfi_def_cfa_offset 80
 827 00c3 39D8     		cmpl	%ebx, %eax
 828 00c5 7FB9     		jg	L132
 829              	L112:
 830 00c7 83C43C   		addl	$60, %esp
 831              		.cfi_remember_state
 832              		.cfi_def_cfa_offset 20
 833 00ca 5B       		popl	%ebx
 834              		.cfi_restore 3
 835              		.cfi_def_cfa_offset 16
 836 00cb 5E       		popl	%esi
 837              		.cfi_restore 6
 838              		.cfi_def_cfa_offset 12
 839 00cc 5F       		popl	%edi
 840              		.cfi_restore 7
 841              		.cfi_def_cfa_offset 8
 842 00cd 5D       		popl	%ebp
 843              		.cfi_restore 5
 844              		.cfi_def_cfa_offset 4
 845 00ce C20400   		ret	$4
 846              		.p2align 4,,7
 847              	L118:
 848              		.cfi_restore_state
 849 00d1 8B359C01 		movl	_persistentState+412, %esi
 849      0000
 850 00d7 31DB     		xorl	%ebx, %ebx
 851 00d9 85F6     		testl	%esi, %esi
 852 00db 7EEA     		jle	L112
 853 00dd 8D7600   		.p2align 4,,7
 854              	L130:
 855 00e0 A1000000 		movl	_engineConfiguration, %eax
 855      00
 856 00e5 895C2404 		movl	%ebx, 4(%esp)
 857 00e9 8B809801 		movl	408(%eax), %eax
 857      0000
 858 00ef 890424   		movl	%eax, (%esp)
 859 00f2 E8000000 		call	__Z13getCylinderId14firing_order_ei
GAS LISTING /cygdrive/c/Users/pc/AppData/Local/Temp/cczYkTw5.s 			page 20


 859      00
 860 00f7 89F9     		movl	%edi, %ecx
 861 00f9 895C242C 		movl	%ebx, 44(%esp)
 862 00fd 83C301   		addl	$1, %ebx
 863 0100 C7442408 		movl	$0, 8(%esp)
 863      00000000 
 864 0108 DB05A801 		fildl	_persistentState+424
 864      0000
 865 010e 8D4440FD 		leal	-3(%eax,%eax,2), %eax
 866 0112 DB44242C 		fildl	44(%esp)
 867 0116 8D048530 		leal	_enginePins+48(,%eax,4), %eax
 867      000000
 868 011d DEC9     		fmulp	%st, %st(1)
 869 011f 890424   		movl	%eax, (%esp)
 870 0122 DB059C01 		fildl	_persistentState+412
 870      0000
 871 0128 DEF9     		fdivrp	%st, %st(1)
 872 012a D8442428 		fadds	40(%esp)
 873 012e D95C2404 		fstps	4(%esp)
 874 0132 E8000000 		call	__ZN12FuelSchedule22registerInjectionEventEP14NamedOutputPinfb
 874      00
 875              		.cfi_def_cfa_offset 68
 876 0137 83EC0C   		subl	$12, %esp
 877              		.cfi_def_cfa_offset 80
 878 013a 391D9C01 		cmpl	%ebx, _persistentState+412
 878      0000
 879 0140 7F9E     		jg	L130
 880 0142 83C43C   		addl	$60, %esp
 881              		.cfi_remember_state
 882              		.cfi_def_cfa_offset 20
 883 0145 5B       		popl	%ebx
 884              		.cfi_restore 3
 885              		.cfi_def_cfa_offset 16
 886 0146 5E       		popl	%esi
 887              		.cfi_restore 6
 888              		.cfi_def_cfa_offset 12
 889 0147 5F       		popl	%edi
 890              		.cfi_restore 7
 891              		.cfi_def_cfa_offset 8
 892 0148 5D       		popl	%ebp
 893              		.cfi_restore 5
 894              		.cfi_def_cfa_offset 4
 895 0149 C20400   		ret	$4
 896 014c 8D742600 		.p2align 4,,7
 897              	L140:
 898              		.cfi_restore_state
 899 0150 895C2408 		movl	%ebx, 8(%esp)
 900 0154 C7442404 		movl	$LC24, 4(%esp)
 900      8F010000 
 901 015c C704245E 		movl	$606, (%esp)
 901      020000
 902 0163 E8000000 		call	_warning
 902      00
 903 0168 83C43C   		addl	$60, %esp
 904              		.cfi_remember_state
 905              		.cfi_def_cfa_offset 20
 906 016b 5B       		popl	%ebx
GAS LISTING /cygdrive/c/Users/pc/AppData/Local/Temp/cczYkTw5.s 			page 21


 907              		.cfi_restore 3
 908              		.cfi_def_cfa_offset 16
 909 016c 5E       		popl	%esi
 910              		.cfi_restore 6
 911              		.cfi_def_cfa_offset 12
 912 016d 5F       		popl	%edi
 913              		.cfi_restore 7
 914              		.cfi_def_cfa_offset 8
 915 016e 5D       		popl	%ebp
 916              		.cfi_restore 5
 917              		.cfi_def_cfa_offset 4
 918 016f C20400   		ret	$4
 919              		.p2align 4,,7
 920              	L119:
 921              		.cfi_restore_state
 922 0172 8B0D9C01 		movl	_persistentState+412, %ecx
 922      0000
 923 0178 31DB     		xorl	%ebx, %ebx
 924 017a 85C9     		testl	%ecx, %ecx
 925 017c 7F18     		jg	L131
 926 017e E944FFFF 		jmp	L112
 926      FF
 927              		.p2align 4,,7
 928              	L141:
 929 0183 DDD8     		fstp	%st(0)
 930              	L124:
 931 0185 8B0D9C01 		movl	_persistentState+412, %ecx
 931      0000
 932 018b 83C301   		addl	$1, %ebx
 933 018e 39D9     		cmpl	%ebx, %ecx
 934 0190 0F8E31FF 		jle	L112
 934      FFFF
 935              	L131:
 936 0196 A1000000 		movl	_engineConfiguration, %eax
 936      00
 937 019b 89DA     		movl	%ebx, %edx
 938 019d C1FA1F   		sarl	$31, %edx
 939 01a0 8B809401 		movl	404(%eax), %eax
 939      0000
 940 01a6 895C242C 		movl	%ebx, 44(%esp)
 941 01aa DB44242C 		fildl	44(%esp)
 942 01ae DB05A801 		fildl	_persistentState+424
 942      0000
 943 01b4 89C6     		movl	%eax, %esi
 944 01b6 C1EE1F   		shrl	$31, %esi
 945 01b9 01C6     		addl	%eax, %esi
 946 01bb 89D8     		movl	%ebx, %eax
 947 01bd D1FE     		sarl	%esi
 948 01bf F7FE     		idivl	%esi
 949 01c1 894C242C 		movl	%ecx, 44(%esp)
 950 01c5 89F9     		movl	%edi, %ecx
 951 01c7 C7442408 		movl	$0, 8(%esp)
 951      00000000 
 952 01cf DEC9     		fmulp	%st, %st(1)
 953 01d1 DB44242C 		fildl	44(%esp)
 954 01d5 DEF9     		fdivrp	%st, %st(1)
 955 01d7 D8442428 		fadds	40(%esp)
GAS LISTING /cygdrive/c/Users/pc/AppData/Local/Temp/cczYkTw5.s 			page 22


 956 01db D9542404 		fsts	4(%esp)
 957 01df D95C2410 		fstps	16(%esp)
 958 01e3 8D0452   		leal	(%edx,%edx,2), %eax
 959 01e6 89D5     		movl	%edx, %ebp
 960 01e8 8D048530 		leal	_enginePins+48(,%eax,4), %eax
 960      000000
 961 01ef 890424   		movl	%eax, (%esp)
 962 01f2 E8000000 		call	__ZN12FuelSchedule22registerInjectionEventEP14NamedOutputPinfb
 962      00
 963              		.cfi_def_cfa_offset 68
 964 01f7 83EC0C   		subl	$12, %esp
 965              		.cfi_def_cfa_offset 80
 966 01fa F605ED05 		testb	$32, _persistentState+1517
 966      000020
 967 0201 D9442410 		flds	16(%esp)
 968 0205 0F8478FF 		je	L141
 968      FFFF
 969 020b A19C0100 		movl	_persistentState+412, %eax
 969      00
 970 0210 D95C2404 		fstps	4(%esp)
 971 0214 89F9     		movl	%edi, %ecx
 972 0216 C7442408 		movl	$0, 8(%esp)
 972      00000000 
 973 021e 89C2     		movl	%eax, %edx
 974 0220 C1EA1F   		shrl	$31, %edx
 975 0223 01D0     		addl	%edx, %eax
 976 0225 D1F8     		sarl	%eax
 977 0227 01C5     		addl	%eax, %ebp
 978 0229 8D446D00 		leal	0(%ebp,%ebp,2), %eax
 979 022d 8D048530 		leal	_enginePins+48(,%eax,4), %eax
 979      000000
 980 0234 890424   		movl	%eax, (%esp)
 981 0237 E8000000 		call	__ZN12FuelSchedule22registerInjectionEventEP14NamedOutputPinfb
 981      00
 982              		.cfi_def_cfa_offset 68
 983 023c 83EC0C   		subl	$12, %esp
 984              		.cfi_def_cfa_offset 80
 985 023f E941FFFF 		jmp	L124
 985      FF
 986              		.p2align 4,,7
 987              	L139:
 988 0244 C7042480 		movl	$LC22, (%esp)
 988      010000
 989 024b E8000000 		call	_firmwareError
 989      00
 990 0250 E972FEFF 		jmp	L112
 990      FF
 991              		.cfi_endproc
 992              	LFE94:
 993 0255 90909090 		.section .rdata,"dr"
 993      90909090 
 993      909090
 994              		.align 4
 995              	LC25:
 996 01ac 756E7375 		.ascii "unsupported ignitionMode %d in initializeIgnitionActions()\0"
 996      70706F72 
 996      74656420 
GAS LISTING /cygdrive/c/Users/pc/AppData/Local/Temp/cczYkTw5.s 			page 23


 996      69676E69 
 996      74696F6E 
 997              	LC26:
 998 01e7 656E6769 		.ascii "engineCycleEventCount\0"
 998      6E654379 
 998      636C6545 
 998      76656E74 
 998      436F756E 
 999              		.section	.text$_Z20prepareOutputSignalsv,"x"
 1000              		.p2align 4,,15
 1001              		.globl	__Z20prepareOutputSignalsv
 1002              		.def	__Z20prepareOutputSignalsv;	.scl	2;	.type	32;	.endef
 1003              	__Z20prepareOutputSignalsv:
 1004              	LFB100:
 1005              		.cfi_startproc
 1006 0000 55       		pushl	%ebp
 1007              		.cfi_def_cfa_offset 8
 1008              		.cfi_offset 5, -8
 1009 0001 57       		pushl	%edi
 1010              		.cfi_def_cfa_offset 12
 1011              		.cfi_offset 7, -12
 1012 0002 56       		pushl	%esi
 1013              		.cfi_def_cfa_offset 16
 1014              		.cfi_offset 6, -16
 1015 0003 31F6     		xorl	%esi, %esi
 1016 0005 53       		pushl	%ebx
 1017              		.cfi_def_cfa_offset 20
 1018              		.cfi_offset 3, -20
 1019 0006 83EC2C   		subl	$44, %esp
 1020              		.cfi_def_cfa_offset 64
 1021 0009 A19C0100 		movl	_persistentState+412, %eax
 1021      00
 1022 000e 8B3D0000 		movl	_engine, %edi
 1022      0000
 1023 0014 8B0DA801 		movl	_persistentState+424, %ecx
 1023      0000
 1024 001a 85C0     		testl	%eax, %eax
 1025 001c 8B5F28   		movl	40(%edi), %ebx
 1026 001f 7F59     		jg	L167
 1027 0021 E9BB0000 		jmp	L144
 1027      00
 1028              		.p2align 4,,7
 1029              	L174:
 1030 0026 83FA02   		cmpl	$2, %edx
 1031 0029 0F846E01 		je	L148
 1031      0000
 1032 002f 85D2     		testl	%edx, %edx
 1033 0031 BDC00000 		movl	$_enginePins+192, %ebp
 1033      00
 1034 0036 742E     		je	L146
 1035 0038 A1000000 		movl	_engineConfiguration, %eax
 1035      00
 1036 003d 8B80BC01 		movl	444(%eax), %eax
 1036      0000
 1037 0043 C7442404 		movl	$LC25, 4(%esp)
 1037      AC010000 
 1038 004b C704245E 		movl	$606, (%esp)
GAS LISTING /cygdrive/c/Users/pc/AppData/Local/Temp/cczYkTw5.s 			page 24


 1038      020000
 1039 0052 89442408 		movl	%eax, 8(%esp)
 1040 0056 E8000000 		call	_warning
 1040      00
 1041 005b 8B0DA801 		movl	_persistentState+424, %ecx
 1041      0000
 1042 0061 A19C0100 		movl	_persistentState+412, %eax
 1042      00
 1043              	L146:
 1044 0066 89ACB720 		movl	%ebp, 7712(%edi,%esi,4)
 1044      1E0000
 1045 006d 83C601   		addl	$1, %esi
 1046 0070 39F0     		cmpl	%esi, %eax
 1047 0072 7E6D     		jle	L144
 1048              	L175:
 1049 0074 8B3D0000 		movl	_engine, %edi
 1049      0000
 1050              	L167:
 1051 007a 894C241C 		movl	%ecx, 28(%esp)
 1052 007e 8B15C401 		movl	_persistentState+452, %edx
 1052      0000
 1053 0084 DB44241C 		fildl	28(%esp)
 1054 0088 8974241C 		movl	%esi, 28(%esp)
 1055 008c DB44241C 		fildl	28(%esp)
 1056 0090 DEC9     		fmulp	%st, %st(1)
 1057 0092 83FA01   		cmpl	$1, %edx
 1058 0095 8944241C 		movl	%eax, 28(%esp)
 1059 0099 DB44241C 		fildl	28(%esp)
 1060 009d DEF9     		fdivrp	%st, %st(1)
 1061 009f D99CB7F0 		fstps	7664(%edi,%esi,4)
 1061      1D0000
 1062 00a6 0F857AFF 		jne	L174
 1062      FFFF
 1063 00ac 89742404 		movl	%esi, 4(%esp)
 1064              	L173:
 1065 00b0 A1A00100 		movl	_persistentState+416, %eax
 1065      00
 1066 00b5 890424   		movl	%eax, (%esp)
 1067 00b8 E8000000 		call	__Z13getCylinderId14firing_order_ei
 1067      00
 1068 00bd 8B0DA801 		movl	_persistentState+424, %ecx
 1068      0000
 1069 00c3 8D4440FD 		leal	-3(%eax,%eax,2), %eax
 1070 00c7 8D2C85C0 		leal	_enginePins+192(,%eax,4), %ebp
 1070      000000
 1071 00ce A19C0100 		movl	_persistentState+412, %eax
 1071      00
 1072 00d3 89ACB720 		movl	%ebp, 7712(%edi,%esi,4)
 1072      1E0000
 1073 00da 83C601   		addl	$1, %esi
 1074 00dd 39F0     		cmpl	%esi, %eax
 1075 00df 7F93     		jg	L175
 1076              	L144:
 1077 00e1 85C9     		testl	%ecx, %ecx
 1078 00e3 0F8EE400 		jle	L176
 1078      0000
 1079 00e9 8B350000 		movl	_engine, %esi
GAS LISTING /cygdrive/c/Users/pc/AppData/Local/Temp/cczYkTw5.s 			page 25


 1079      0000
 1080 00ef 31FF     		xorl	%edi, %edi
 1081              		.p2align 4,,7
 1082              	L158:
 1083 00f1 897C241C 		movl	%edi, 28(%esp)
 1084 00f5 8B86FC1E 		movl	7932(%esi), %eax
 1084      0000
 1085 00fb 31D2     		xorl	%edx, %edx
 1086 00fd DB44241C 		fildl	28(%esp)
 1087 0101 85C0     		testl	%eax, %eax
 1088 0103 8D48FF   		leal	-1(%eax), %ecx
 1089 0106 7F24     		jg	L170
 1090 0108 DDD8     		fstp	%st(0)
 1091 010a C70424E7 		movl	$LC26, (%esp)
 1091      010000
 1092 0111 E8000000 		call	_firmwareError
 1092      00
 1093 0116 8B350000 		movl	_engine, %esi
 1093      0000
 1094 011c 31D2     		xorl	%edx, %edx
 1095 011e EB20     		jmp	L153
 1096              		.p2align 4,,7
 1097              	L179:
 1098 0120 DBE9     		fucomi	%st(1), %st
 1099 0122 0F869000 		jbe	L178
 1099      0000
 1100 0128 DDD8     		fstp	%st(0)
 1101 012a 89C1     		movl	%eax, %ecx
 1102              	L170:
 1103 012c 8D0411   		leal	(%ecx,%edx), %eax
 1104 012f D1E8     		shrl	%eax
 1105 0131 39D0     		cmpl	%edx, %eax
 1106 0133 D9848610 		flds	3600(%esi,%eax,4)
 1106      0E0000
 1107 013a 75E4     		jne	L179
 1108 013c DDD8     		fstp	%st(0)
 1109 013e DDD8     		fstp	%st(0)
 1110              	L153:
 1111 0140 A1000000 		movl	_engineConfiguration, %eax
 1111      00
 1112 0145 89D1     		movl	%edx, %ecx
 1113 0147 83E1FE   		andl	$-2, %ecx
 1114 014a F680E505 		testb	$64, 1509(%eax)
 1114      000040
 1115 0151 0F45D1   		cmovne	%ecx, %edx
 1116 0154 8994BE9C 		movl	%edx, 668(%esi,%edi,4)
 1116      020000
 1117 015b 83C701   		addl	$1, %edi
 1118 015e 393DA801 		cmpl	%edi, _persistentState+424
 1118      0000
 1119 0164 7F8B     		jg	L158
 1120              	L151:
 1121 0166 8B80AC01 		movl	428(%eax), %eax
 1121      0000
 1122 016c 89D9     		movl	%ebx, %ecx
 1123 016e 890424   		movl	%eax, (%esp)
 1124 0171 E8000000 		call	__ZN12FuelSchedule13addFuelEventsE16injection_mode_e
GAS LISTING /cygdrive/c/Users/pc/AppData/Local/Temp/cczYkTw5.s 			page 26


 1124      00
 1125              		.cfi_def_cfa_offset 60
 1126 0176 A1000000 		movl	_engineConfiguration, %eax
 1126      00
 1127 017b 8D8B6828 		leal	10344(%ebx), %ecx
 1127      0000
 1128 0181 8B80B001 		movl	432(%eax), %eax
 1128      0000
 1129 0187 83EC04   		subl	$4, %esp
 1130              		.cfi_def_cfa_offset 64
 1131 018a 890424   		movl	%eax, (%esp)
 1132 018d E8000000 		call	__ZN12FuelSchedule13addFuelEventsE16injection_mode_e
 1132      00
 1133              		.cfi_def_cfa_offset 60
 1134 0192 83EC04   		subl	$4, %esp
 1135              		.cfi_def_cfa_offset 64
 1136 0195 83C42C   		addl	$44, %esp
 1137              		.cfi_remember_state
 1138              		.cfi_def_cfa_offset 20
 1139 0198 5B       		popl	%ebx
 1140              		.cfi_restore 3
 1141              		.cfi_def_cfa_offset 16
 1142 0199 5E       		popl	%esi
 1143              		.cfi_restore 6
 1144              		.cfi_def_cfa_offset 12
 1145 019a 5F       		popl	%edi
 1146              		.cfi_restore 7
 1147              		.cfi_def_cfa_offset 8
 1148 019b 5D       		popl	%ebp
 1149              		.cfi_restore 5
 1150              		.cfi_def_cfa_offset 4
 1151 019c C3       		ret
 1152              	L148:
 1153              		.cfi_restore_state
 1154 019d 89C1     		movl	%eax, %ecx
 1155 019f 89F2     		movl	%esi, %edx
 1156 01a1 C1E91F   		shrl	$31, %ecx
 1157 01a4 01C1     		addl	%eax, %ecx
 1158 01a6 89F0     		movl	%esi, %eax
 1159 01a8 D1F9     		sarl	%ecx
 1160 01aa C1FA1F   		sarl	$31, %edx
 1161 01ad F7F9     		idivl	%ecx
 1162 01af 89542404 		movl	%edx, 4(%esp)
 1163 01b3 E9F8FEFF 		jmp	L173
 1163      FF
 1164              		.p2align 4,,7
 1165              	L178:
 1166 01b8 D9C9     		fxch	%st(1)
 1167 01ba DBE9     		fucomi	%st(1), %st
 1168 01bc DDD9     		fstp	%st(1)
 1169 01be 89C2     		movl	%eax, %edx
 1170 01c0 0F8766FF 		ja	L170
 1170      FFFF
 1171 01c6 DDD8     		fstp	%st(0)
 1172 01c8 E973FFFF 		jmp	L153
 1172      FF
 1173              	L176:
GAS LISTING /cygdrive/c/Users/pc/AppData/Local/Temp/cczYkTw5.s 			page 27


 1174 01cd A1000000 		movl	_engineConfiguration, %eax
 1174      00
 1175 01d2 EB92     		jmp	L151
 1176              		.cfi_endproc
 1177              	LFE100:
 1178 01d4 90909090 		.section	.text$_Z13setFuelRpmBinff,"x"
 1178      90909090 
 1178      90909090 
 1179              		.p2align 4,,15
 1180              		.globl	__Z13setFuelRpmBinff
 1181              		.def	__Z13setFuelRpmBinff;	.scl	2;	.type	32;	.endef
 1182              	__Z13setFuelRpmBinff:
 1183              	LFB101:
 1184              		.cfi_startproc
 1185 0000 83EC1C   		subl	$28, %esp
 1186              		.cfi_def_cfa_offset 32
 1187 0003 A1000000 		movl	_config, %eax
 1187      00
 1188 0008 D9442424 		flds	36(%esp)
 1189 000c D95C240C 		fstps	12(%esp)
 1190 0010 D9442420 		flds	32(%esp)
 1191 0014 05F82D00 		addl	$11768, %eax
 1191      00
 1192 0019 D95C2408 		fstps	8(%esp)
 1193 001d C7442404 		movl	$16, 4(%esp)
 1193      10000000 
 1194 0025 890424   		movl	%eax, (%esp)
 1195 0028 E8000000 		call	__Z11setTableBinPfiff
 1195      00
 1196 002d 83C41C   		addl	$28, %esp
 1197              		.cfi_def_cfa_offset 4
 1198 0030 C3       		ret
 1199              		.cfi_endproc
 1200              	LFE101:
 1201 0031 90909090 		.section	.text$_Z14setFuelLoadBinff,"x"
 1201      90909090 
 1201      90909090 
 1201      909090
 1202              		.p2align 4,,15
 1203              		.globl	__Z14setFuelLoadBinff
 1204              		.def	__Z14setFuelLoadBinff;	.scl	2;	.type	32;	.endef
 1205              	__Z14setFuelLoadBinff:
 1206              	LFB102:
 1207              		.cfi_startproc
 1208 0000 83EC1C   		subl	$28, %esp
 1209              		.cfi_def_cfa_offset 32
 1210 0003 A1000000 		movl	_config, %eax
 1210      00
 1211 0008 D9442424 		flds	36(%esp)
 1212 000c D95C240C 		fstps	12(%esp)
 1213 0010 D9442420 		flds	32(%esp)
 1214 0014 05B82D00 		addl	$11704, %eax
 1214      00
 1215 0019 D95C2408 		fstps	8(%esp)
 1216 001d C7442404 		movl	$16, 4(%esp)
 1216      10000000 
 1217 0025 890424   		movl	%eax, (%esp)
GAS LISTING /cygdrive/c/Users/pc/AppData/Local/Temp/cczYkTw5.s 			page 28


 1218 0028 E8000000 		call	__Z11setTableBinPfiff
 1218      00
 1219 002d 83C41C   		addl	$28, %esp
 1220              		.cfi_def_cfa_offset 4
 1221 0030 C3       		ret
 1222              		.cfi_endproc
 1223              	LFE102:
 1224 0031 90909090 		.section	.text$_Z15setTimingRpmBinff,"x"
 1224      90909090 
 1224      90909090 
 1224      909090
 1225              		.p2align 4,,15
 1226              		.globl	__Z15setTimingRpmBinff
 1227              		.def	__Z15setTimingRpmBinff;	.scl	2;	.type	32;	.endef
 1228              	__Z15setTimingRpmBinff:
 1229              	LFB103:
 1230              		.cfi_startproc
 1231 0000 83EC1C   		subl	$28, %esp
 1232              		.cfi_def_cfa_offset 32
 1233 0003 A1000000 		movl	_config, %eax
 1233      00
 1234 0008 D9442424 		flds	36(%esp)
 1235 000c D95C240C 		fstps	12(%esp)
 1236 0010 D9442420 		flds	32(%esp)
 1237 0014 05783200 		addl	$12920, %eax
 1237      00
 1238 0019 D95C2408 		fstps	8(%esp)
 1239 001d C7442404 		movl	$16, 4(%esp)
 1239      10000000 
 1240 0025 890424   		movl	%eax, (%esp)
 1241 0028 E8000000 		call	__Z11setTableBinPfiff
 1241      00
 1242 002d 83C41C   		addl	$28, %esp
 1243              		.cfi_def_cfa_offset 4
 1244 0030 C3       		ret
 1245              		.cfi_endproc
 1246              	LFE103:
 1247 0031 90909090 		.section	.text$_Z16setTimingLoadBinff,"x"
 1247      90909090 
 1247      90909090 
 1247      909090
 1248              		.p2align 4,,15
 1249              		.globl	__Z16setTimingLoadBinff
 1250              		.def	__Z16setTimingLoadBinff;	.scl	2;	.type	32;	.endef
 1251              	__Z16setTimingLoadBinff:
 1252              	LFB104:
 1253              		.cfi_startproc
 1254 0000 83EC1C   		subl	$28, %esp
 1255              		.cfi_def_cfa_offset 32
 1256 0003 A1000000 		movl	_config, %eax
 1256      00
 1257 0008 D9442424 		flds	36(%esp)
 1258 000c D95C240C 		fstps	12(%esp)
 1259 0010 D9442420 		flds	32(%esp)
 1260 0014 05383200 		addl	$12856, %eax
 1260      00
 1261 0019 D95C2408 		fstps	8(%esp)
GAS LISTING /cygdrive/c/Users/pc/AppData/Local/Temp/cczYkTw5.s 			page 29


 1262 001d C7442404 		movl	$16, 4(%esp)
 1262      10000000 
 1263 0025 890424   		movl	%eax, (%esp)
 1264 0028 E8000000 		call	__Z11setTableBinPfiff
 1264      00
 1265 002d 83C41C   		addl	$28, %esp
 1266              		.cfi_def_cfa_offset 4
 1267 0030 C3       		ret
 1268              		.cfi_endproc
 1269              	LFE104:
 1270 0031 90909090 		.section	.text$_Z18isInjectionEnabledP22engine_configuration_s,"x"
 1270      90909090 
 1270      90909090 
 1270      909090
 1271              		.p2align 4,,15
 1272              		.globl	__Z18isInjectionEnabledP22engine_configuration_s
 1273              		.def	__Z18isInjectionEnabledP22engine_configuration_s;	.scl	2;	.type	32;	.endef
 1274              	__Z18isInjectionEnabledP22engine_configuration_s:
 1275              	LFB105:
 1276              		.cfi_startproc
 1277 0000 8B442404 		movl	4(%esp), %eax
 1278 0004 0FB680E4 		movzbl	1508(%eax), %eax
 1278      050000
 1279 000b 83E001   		andl	$1, %eax
 1280 000e C3       		ret
 1281              		.cfi_endproc
 1282              	LFE105:
 1283 000f 90       		.section	.text$_Z12setAlgorithm18engine_load_mode_e,"x"
 1284              		.p2align 4,,15
 1285              		.globl	__Z12setAlgorithm18engine_load_mode_e
 1286              		.def	__Z12setAlgorithm18engine_load_mode_e;	.scl	2;	.type	32;	.endef
 1287              	__Z12setAlgorithm18engine_load_mode_e:
 1288              	LFB106:
 1289              		.cfi_startproc
 1290 0000 83EC1C   		subl	$28, %esp
 1291              		.cfi_def_cfa_offset 32
 1292 0003 8B150000 		movl	_engineConfiguration, %edx
 1292      0000
 1293 0009 8B442420 		movl	32(%esp), %eax
 1294 000d 83F801   		cmpl	$1, %eax
 1295 0010 8982A801 		movl	%eax, 424(%edx)
 1295      0000
 1296 0016 7428     		je	L193
 1297 0018 83F803   		cmpl	$3, %eax
 1298 001b 7404     		je	L194
 1299              	L189:
 1300 001d 83C41C   		addl	$28, %esp
 1301              		.cfi_remember_state
 1302              		.cfi_def_cfa_offset 4
 1303 0020 C3       		ret
 1304              		.p2align 4,,7
 1305              	L194:
 1306              		.cfi_restore_state
 1307 0021 C7442404 		movl	$0x43200000, 4(%esp)
 1307      00002043 
 1308 0029 C7042400 		movl	$0x00000000, (%esp)
 1308      000000
GAS LISTING /cygdrive/c/Users/pc/AppData/Local/Temp/cczYkTw5.s 			page 30


 1309 0030 E8000000 		call	__Z16setTimingLoadBinff
 1309      00
 1310 0035 83C41C   		addl	$28, %esp
 1311              		.cfi_remember_state
 1312              		.cfi_def_cfa_offset 4
 1313 0038 C3       		ret
 1314 0039 8DB42600 		.p2align 4,,7
 1314      000000
 1315              	L193:
 1316              		.cfi_restore_state
 1317 0040 C7442404 		movl	$0x42c80000, 4(%esp)
 1317      0000C842 
 1318 0048 C7042400 		movl	$0x00000000, (%esp)
 1318      000000
 1319 004f E8000000 		call	__Z16setTimingLoadBinff
 1319      00
 1320 0054 EBC7     		jmp	L189
 1321              		.cfi_endproc
 1322              	LFE106:
 1323 0056 90909090 		.section	.rdata$_ZL9order_1_2,"dr"
 1323      90909090 
 1323      9090
 1324              		.align 4
 1325              	__ZL9order_1_2:
 1326 0000 01000000 		.long	1
 1327 0004 02000000 		.long	2
 1328              		.section	.rdata$_ZL27order_1_THEN_3_THEN_4_THEN2,"dr"
 1329              		.align 4
 1330              	__ZL27order_1_THEN_3_THEN_4_THEN2:
 1331 0000 01000000 		.long	1
 1332 0004 03000000 		.long	3
 1333 0008 04000000 		.long	4
 1334 000c 02000000 		.long	2
 1335              		.section	.rdata$_ZL27order_1_THEN_2_THEN_4_THEN3,"dr"
 1336              		.align 4
 1337              	__ZL27order_1_THEN_2_THEN_4_THEN3:
 1338 0000 01000000 		.long	1
 1339 0004 02000000 		.long	2
 1340 0008 04000000 		.long	4
 1341 000c 03000000 		.long	3
 1342              		.section	.rdata$_ZL27order_1_THEN_3_THEN_2_THEN4,"dr"
 1343              		.align 4
 1344              	__ZL27order_1_THEN_3_THEN_2_THEN4:
 1345 0000 01000000 		.long	1
 1346 0004 03000000 		.long	3
 1347 0008 02000000 		.long	2
 1348 000c 04000000 		.long	4
 1349              		.section	.rdata$_ZL15order_1_2_4_5_3,"dr"
 1350              		.align 4
 1351              	__ZL15order_1_2_4_5_3:
 1352 0000 01000000 		.long	1
 1353 0004 02000000 		.long	2
 1354 0008 04000000 		.long	4
 1355 000c 05000000 		.long	5
 1356 0010 03000000 		.long	3
 1357              		.section	.rdata$_ZL42order_1_THEN_5_THEN_3_THEN_6_THEN_2_THEN_4,"dr"
 1358              		.align 4
GAS LISTING /cygdrive/c/Users/pc/AppData/Local/Temp/cczYkTw5.s 			page 31


 1359              	__ZL42order_1_THEN_5_THEN_3_THEN_6_THEN_2_THEN_4:
 1360 0000 01000000 		.long	1
 1361 0004 05000000 		.long	5
 1362 0008 03000000 		.long	3
 1363 000c 06000000 		.long	6
 1364 0010 02000000 		.long	2
 1365 0014 04000000 		.long	4
 1366              		.section	.rdata$_ZL42order_1_THEN_4_THEN_2_THEN_5_THEN_3_THEN_6,"dr"
 1367              		.align 4
 1368              	__ZL42order_1_THEN_4_THEN_2_THEN_5_THEN_3_THEN_6:
 1369 0000 01000000 		.long	1
 1370 0004 04000000 		.long	4
 1371 0008 02000000 		.long	2
 1372 000c 05000000 		.long	5
 1373 0010 03000000 		.long	3
 1374 0014 06000000 		.long	6
 1375              		.section	.rdata$_ZL21order_1_8_4_3_6_5_7_2,"dr"
 1376              		.align 32
 1377              	__ZL21order_1_8_4_3_6_5_7_2:
 1378 0000 01000000 		.long	1
 1379 0004 08000000 		.long	8
 1380 0008 04000000 		.long	4
 1381 000c 03000000 		.long	3
 1382 0010 06000000 		.long	6
 1383 0014 05000000 		.long	5
 1384 0018 07000000 		.long	7
 1385 001c 02000000 		.long	2
 1386              		.section .rdata,"dr"
 1387 01fd 000000   		.align 4
 1388              	LC0:
 1389 0200 ABAA2643 		.long	1126607531
 1390              		.align 4
 1391              	LC1:
 1392 0204 0000B443 		.long	1135869952
 1393              		.align 4
 1394              	LC2:
 1395 0208 0000C07F 		.long	2143289344
 1396              		.align 4
 1397              	LC8:
 1398 020c 010C403A 		.long	977275905
 1399              		.align 4
 1400              	LC23:
 1401 0210 00007A44 		.long	1148846080
 1402              		.def	_warning;	.scl	2;	.type	32;	.endef
 1403              		.def	__Z6getMapv;	.scl	2;	.type	32;	.endef
 1404              		.def	__Z6getTPSv;	.scl	2;	.type	32;	.endef
 1405              		.def	__Z12hasMafSensorv;	.scl	2;	.type	32;	.endef
 1406              		.def	__Z10getRealMafv;	.scl	2;	.type	32;	.endef
 1407              		.def	__Z11getAdcValuePKci;	.scl	2;	.type	32;	.endef
 1408              		.def	_firmwareError;	.scl	2;	.type	32;	.endef
 1409              		.def	_memset;	.scl	2;	.type	32;	.endef
 1410              		.def	__ZN14InjectionEventC1Ev;	.scl	2;	.type	32;	.endef
 1411              		.def	__Z13interpolate2dfPfS_i;	.scl	2;	.type	32;	.endef
 1412              		.def	__ZNK12TriggerShape7getSizeEv;	.scl	2;	.type	32;	.endef
 1413              		.def	__Z11setTableBinPfiff;	.scl	2;	.type	32;	.endef
GAS LISTING /cygdrive/c/Users/pc/AppData/Local/Temp/cczYkTw5.s 			page 32

