GAS LISTING /cygdrive/c/Users/pc/AppData/Local/Temp/ccfC9QkH.s 			page 1


   1              		.file	"engine_controller.cpp"
   2              		.section .rdata,"dr"
   3              	LC0:
   4 0000 62697420 		.ascii "bit @%d/%d is %d\0"
   4      4025642F 
   4      25642069 
   4      73202564 
   4      00
   5              		.section	.text$_ZL6getBitii,"x"
   6              		.p2align 4,,15
   7              		.def	__ZL6getBitii;	.scl	3;	.type	32;	.endef
   8              	__ZL6getBitii:
   9              	LFB99:
  10              		.cfi_startproc
  11 0000 83EC2C   		subl	$44, %esp
  12              		.cfi_def_cfa_offset 48
  13 0003 8B442430 		movl	48(%esp), %eax
  14 0007 3DA70800 		cmpl	$2215, %eax
  14      00
  15 000c 7737     		ja	L1
  16 000e 8B150000 		movl	_engineConfiguration, %edx
  16      0000
  17 0014 0FB64C24 		movzbl	52(%esp), %ecx
  17      34
  18 0019 8B1402   		movl	(%edx,%eax), %edx
  19 001c 89442408 		movl	%eax, 8(%esp)
  20 0020 C7442404 		movl	$LC0, 4(%esp)
  20      00000000 
  21 0028 C7042400 		movl	$__ZL6logger, (%esp)
  21      000000
  22 002f D3FA     		sarl	%cl, %edx
  23 0031 83E201   		andl	$1, %edx
  24 0034 89542410 		movl	%edx, 16(%esp)
  25 0038 8B542434 		movl	52(%esp), %edx
  26 003c 8954240C 		movl	%edx, 12(%esp)
  27 0040 E8000000 		call	__Z11scheduleMsgP7LoggingPKcz
  27      00
  28              	L1:
  29 0045 83C42C   		addl	$44, %esp
  30              		.cfi_def_cfa_offset 4
  31 0048 C3       		ret
  32              		.cfi_endproc
  33              	LFE99:
  34 0049 90909090 		.section .rdata,"dr"
  34      909090
  35              	LC1:
  36 0011 73686F72 		.ascii "short @%d is %d\0"
  36      74204025 
  36      64206973 
  36      20256400 
  37              		.section	.text$_ZL8getShorti,"x"
  38              		.p2align 4,,15
  39              		.def	__ZL8getShorti;	.scl	3;	.type	32;	.endef
  40              	__ZL8getShorti:
  41              	LFB96:
  42              		.cfi_startproc
  43 0000 83EC1C   		subl	$28, %esp
GAS LISTING /cygdrive/c/Users/pc/AppData/Local/Temp/ccfC9QkH.s 			page 2


  44              		.cfi_def_cfa_offset 32
  45 0003 8B442420 		movl	32(%esp), %eax
  46 0007 3DA70800 		cmpl	$2215, %eax
  46      00
  47 000c 7726     		ja	L5
  48 000e 8B150000 		movl	_engineConfiguration, %edx
  48      0000
  49 0014 0FB71402 		movzwl	(%edx,%eax), %edx
  50 0018 89442408 		movl	%eax, 8(%esp)
  51 001c C7442404 		movl	$LC1, 4(%esp)
  51      11000000 
  52 0024 C7042400 		movl	$__ZL6logger, (%esp)
  52      000000
  53 002b 8954240C 		movl	%edx, 12(%esp)
  54 002f E8000000 		call	__Z11scheduleMsgP7LoggingPKcz
  54      00
  55              	L5:
  56 0034 83C41C   		addl	$28, %esp
  57              		.cfi_def_cfa_offset 4
  58 0037 C3       		ret
  59              		.cfi_endproc
  60              	LFE96:
  61 0038 90909090 		.section .rdata,"dr"
  61      90909090 
  62              	LC2:
  63 0021 696E7420 		.ascii "int @%d is %d\0"
  63      40256420 
  63      69732025 
  63      6400
  64              		.section	.text$_ZL6getInti,"x"
  65              		.p2align 4,,15
  66              		.def	__ZL6getInti;	.scl	3;	.type	32;	.endef
  67              	__ZL6getInti:
  68              	LFB100:
  69              		.cfi_startproc
  70 0000 83EC1C   		subl	$28, %esp
  71              		.cfi_def_cfa_offset 32
  72 0003 8B442420 		movl	32(%esp), %eax
  73 0007 3DA70800 		cmpl	$2215, %eax
  73      00
  74 000c 7725     		ja	L8
  75 000e 8B150000 		movl	_engineConfiguration, %edx
  75      0000
  76 0014 8B1402   		movl	(%edx,%eax), %edx
  77 0017 89442408 		movl	%eax, 8(%esp)
  78 001b C7442404 		movl	$LC2, 4(%esp)
  78      21000000 
  79 0023 C7042400 		movl	$__ZL6logger, (%esp)
  79      000000
  80 002a 8954240C 		movl	%edx, 12(%esp)
  81 002e E8000000 		call	__Z11scheduleMsgP7LoggingPKcz
  81      00
  82              	L8:
  83 0033 83C41C   		addl	$28, %esp
  84              		.cfi_def_cfa_offset 4
  85 0036 C3       		ret
  86              		.cfi_endproc
GAS LISTING /cygdrive/c/Users/pc/AppData/Local/Temp/ccfC9QkH.s 			page 3


  87              	LFE100:
  88 0037 90909090 		.section .rdata,"dr"
  88      90909090 
  88      90
  89              	LC3:
  90 002f 666C6F61 		.ascii "float @%d is %..100000f\0"
  90      74204025 
  90      64206973 
  90      20252E2E 
  90      31303030 
  91              		.section	.text$_ZL8getFloati,"x"
  92              		.p2align 4,,15
  93              		.def	__ZL8getFloati;	.scl	3;	.type	32;	.endef
  94              	__ZL8getFloati:
  95              	LFB102:
  96              		.cfi_startproc
  97 0000 83EC2C   		subl	$44, %esp
  98              		.cfi_def_cfa_offset 48
  99 0003 8B442430 		movl	48(%esp), %eax
 100 0007 3DA70800 		cmpl	$2215, %eax
 100      00
 101 000c 7725     		ja	L11
 102 000e 8B150000 		movl	_engineConfiguration, %edx
 102      0000
 103 0014 D90402   		flds	(%edx,%eax)
 104 0017 DD5C240C 		fstpl	12(%esp)
 105 001b 89442408 		movl	%eax, 8(%esp)
 106 001f C7442404 		movl	$LC3, 4(%esp)
 106      2F000000 
 107 0027 C7042400 		movl	$__ZL6logger, (%esp)
 107      000000
 108 002e E8000000 		call	__Z11scheduleMsgP7LoggingPKcz
 108      00
 109              	L11:
 110 0033 83C42C   		addl	$44, %esp
 111              		.cfi_def_cfa_offset 4
 112 0036 C3       		ret
 113              		.cfi_endproc
 114              	LFE102:
 115 0037 90909090 		.section .rdata,"dr"
 115      90909090 
 115      90
 116              	LC5:
 117 0047 73746174 		.ascii "status\0"
 117      757300
 118              		.section	.text$_ZL8csThreadv,"x"
 119              		.p2align 4,,15
 120              		.def	__ZL8csThreadv;	.scl	3;	.type	32;	.endef
 121              	__ZL8csThreadv:
 122              	LFB85:
 123              		.cfi_startproc
 124 0000 83EC1C   		subl	$28, %esp
 125              		.cfi_def_cfa_offset 32
 126 0003 A1180000 		movl	_rlist+24, %eax
 126      00
 127 0008 C7401847 		movl	$LC5, 24(%eax)
 127      000000
GAS LISTING /cygdrive/c/Users/pc/AppData/Local/Temp/ccfC9QkH.s 			page 4


 128 000f 90       		.p2align 4,,7
 129              	L20:
 130 0010 8B0D0000 		movl	_engine, %ecx
 130      0000
 131 0016 E8000000 		call	__ZN13RpmCalculator3rpmEv
 131      00
 132 001b 85C0     		testl	%eax, %eax
 133 001d 7E3B     		jle	L19
 134              	L22:
 135 001f 0FBF1568 		movswl	_persistentState+104, %edx
 135      000000
 136 0026 39D0     		cmpl	%edx, %eax
 137 0028 7D36     		jge	L17
 138 002a B8010000 		movl	$1, %eax
 138      00
 139              	L16:
 140 002f 890424   		movl	%eax, (%esp)
 141 0032 B9000000 		movl	$_runningPin, %ecx
 141      00
 142 0037 E8000000 		call	__ZN9OutputPin8setValueEi
 142      00
 143              		.cfi_def_cfa_offset 28
 144 003c 83EC04   		subl	$4, %esp
 145              		.cfi_def_cfa_offset 32
 146 003f C7042410 		movl	$10000, (%esp)
 146      270000
 147 0046 E8000000 		call	_chThdSleep
 147      00
 148 004b 8B0D0000 		movl	_engine, %ecx
 148      0000
 149 0051 E8000000 		call	__ZN13RpmCalculator3rpmEv
 149      00
 150 0056 85C0     		testl	%eax, %eax
 151 0058 7FC5     		jg	L22
 152              	L19:
 153 005a 31C0     		xorl	%eax, %eax
 154 005c EBD1     		jmp	L16
 155 005e 6690     		.p2align 4,,7
 156              	L17:
 157 0060 B9000000 		movl	$_runningPin, %ecx
 157      00
 158 0065 C7042400 		movl	$0, (%esp)
 158      000000
 159 006c E8000000 		call	__ZN9OutputPin8setValueEi
 159      00
 160              		.cfi_def_cfa_offset 28
 161 0071 83EC04   		subl	$4, %esp
 162              		.cfi_def_cfa_offset 32
 163 0074 C7042488 		movl	$5000, (%esp)
 163      130000
 164 007b E8000000 		call	_chThdSleep
 164      00
 165 0080 B9000000 		movl	$_runningPin, %ecx
 165      00
 166 0085 C7042401 		movl	$1, (%esp)
 166      000000
 167 008c E8000000 		call	__ZN9OutputPin8setValueEi
GAS LISTING /cygdrive/c/Users/pc/AppData/Local/Temp/ccfC9QkH.s 			page 5


 167      00
 168              		.cfi_def_cfa_offset 28
 169 0091 83EC04   		subl	$4, %esp
 170              		.cfi_def_cfa_offset 32
 171 0094 C7042488 		movl	$5000, (%esp)
 171      130000
 172 009b E8000000 		call	_chThdSleep
 172      00
 173 00a0 E96BFFFF 		jmp	L20
 173      FF
 174              		.cfi_endproc
 175              	LFE85:
 176 00a5 90909090 		.section .rdata,"dr"
 176      90909090 
 176      909090
 177 004e 0000     		.align 4
 178              	LC6:
 179 0050 616E616C 		.ascii "analogInputDividerCoefficient: %f\0"
 179      6F67496E 
 179      70757444 
 179      69766964 
 179      6572436F 
 180              	LC7:
 181 0072 76626174 		.ascii "vbatt\0"
 181      7400
 182              		.section	.text$_ZL15printAnalogInfov,"x"
 183              		.p2align 4,,15
 184              		.def	__ZL15printAnalogInfov;	.scl	3;	.type	32;	.endef
 185              	__ZL15printAnalogInfov:
 186              	LFB95:
 187              		.cfi_startproc
 188 0000 83EC1C   		subl	$28, %esp
 189              		.cfi_def_cfa_offset 32
 190 0003 A1000000 		movl	_engineConfiguration, %eax
 190      00
 191 0008 D980D001 		flds	464(%eax)
 191      0000
 192 000e DD5C2408 		fstpl	8(%esp)
 193 0012 C7442404 		movl	$LC6, 4(%esp)
 193      50000000 
 194 001a C7042400 		movl	$__ZL6logger, (%esp)
 194      000000
 195 0021 E8000000 		call	__Z11scheduleMsgP7LoggingPKcz
 195      00
 196 0026 E8000000 		call	__Z12hasMafSensorv
 196      00
 197 002b E8000000 		call	__Z13hasBaroSensorv
 197      00
 198 0030 A1000000 		movl	_engineConfiguration, %eax
 198      00
 199 0035 8B80D801 		movl	472(%eax), %eax
 199      0000
 200 003b C7042472 		movl	$LC7, (%esp)
 200      000000
 201 0042 89442404 		movl	%eax, 4(%esp)
 202 0046 E8000000 		call	__Z11getAdcValuePKci
 202      00
GAS LISTING /cygdrive/c/Users/pc/AppData/Local/Temp/ccfC9QkH.s 			page 6


 203 004b 83C41C   		addl	$28, %esp
 204              		.cfi_def_cfa_offset 4
 205 004e C3       		ret
 206              		.cfi_endproc
 207              	LFE95:
 208 004f 90       		.section .rdata,"dr"
 209              	LC8:
 210 0078 696E7661 		.ascii "invalid offset [%s]\0"
 210      6C696420 
 210      6F666673 
 210      6574205B 
 210      25735D00 
 211              	LC9:
 212 008c 696E7661 		.ascii "invalid bit [%s]\0"
 212      6C696420 
 212      62697420 
 212      5B25735D 
 212      00
 213              	LC10:
 214 009d 696E7661 		.ascii "invalid value [%s]\0"
 214      6C696420 
 214      76616C75 
 214      65205B25 
 214      735D00
 215              		.section	.text$_ZL6setBitPKcS0_S0_,"x"
 216              		.p2align 4,,15
 217              		.def	__ZL6setBitPKcS0_S0_;	.scl	3;	.type	32;	.endef
 218              	__ZL6setBitPKcS0_S0_:
 219              	LFB97:
 220              		.cfi_startproc
 221 0000 83EC4C   		subl	$76, %esp
 222              		.cfi_def_cfa_offset 80
 223 0003 897C2444 		movl	%edi, 68(%esp)
 224              		.cfi_offset 7, -12
 225 0007 8B7C2450 		movl	80(%esp), %edi
 226 000b 8B4C2458 		movl	88(%esp), %ecx
 227 000f 895C243C 		movl	%ebx, 60(%esp)
 228 0013 89742440 		movl	%esi, 64(%esp)
 229              		.cfi_offset 3, -20
 230              		.cfi_offset 6, -16
 231 0017 8B742454 		movl	84(%esp), %esi
 232 001b 893C24   		movl	%edi, (%esp)
 233 001e 894C2428 		movl	%ecx, 40(%esp)
 234 0022 896C2448 		movl	%ebp, 72(%esp)
 235              		.cfi_offset 5, -8
 236 0026 E8000000 		call	_atoi
 236      00
 237 002b 890424   		movl	%eax, (%esp)
 238 002e 89C3     		movl	%eax, %ebx
 239 0030 E8000000 		call	_absI
 239      00
 240 0035 C7042430 		movl	$311223344, (%esp)
 240      E48C12
 241 003c 89C5     		movl	%eax, %ebp
 242 003e E8000000 		call	_absI
 242      00
 243 0043 39C5     		cmpl	%eax, %ebp
GAS LISTING /cygdrive/c/Users/pc/AppData/Local/Temp/ccfC9QkH.s 			page 7


 244 0045 0F84D500 		je	L32
 244      0000
 245 004b 81FBA708 		cmpl	$2215, %ebx
 245      0000
 246 0051 7614     		jbe	L33
 247 0053 8B5C243C 		movl	60(%esp), %ebx
 248 0057 8B742440 		movl	64(%esp), %esi
 249 005b 8B7C2444 		movl	68(%esp), %edi
 250 005f 8B6C2448 		movl	72(%esp), %ebp
 251 0063 83C44C   		addl	$76, %esp
 252              		.cfi_remember_state
 253              		.cfi_restore 5
 254              		.cfi_restore 7
 255              		.cfi_restore 6
 256              		.cfi_restore 3
 257              		.cfi_def_cfa_offset 4
 258 0066 C3       		ret
 259              		.p2align 4,,7
 260              	L33:
 261              		.cfi_restore_state
 262 0067 893424   		movl	%esi, (%esp)
 263 006a E8000000 		call	_atoi
 263      00
 264 006f 890424   		movl	%eax, (%esp)
 265 0072 89C5     		movl	%eax, %ebp
 266 0074 E8000000 		call	_absI
 266      00
 267 0079 C7042430 		movl	$311223344, (%esp)
 267      E48C12
 268 0080 8944242C 		movl	%eax, 44(%esp)
 269 0084 E8000000 		call	_absI
 269      00
 270 0089 3944242C 		cmpl	%eax, 44(%esp)
 271 008d 0F84BD00 		je	L34
 271      0000
 272 0093 8B4C2428 		movl	40(%esp), %ecx
 273 0097 890C24   		movl	%ecx, (%esp)
 274 009a E8000000 		call	_atoi
 274      00
 275 009f 890424   		movl	%eax, (%esp)
 276 00a2 89442424 		movl	%eax, 36(%esp)
 277 00a6 E8000000 		call	_absI
 277      00
 278 00ab C7042430 		movl	$311223344, (%esp)
 278      E48C12
 279 00b2 89C6     		movl	%eax, %esi
 280 00b4 E8000000 		call	_absI
 280      00
 281 00b9 8B542424 		movl	36(%esp), %edx
 282 00bd 39C6     		cmpl	%eax, %esi
 283 00bf 0F849B00 		je	L35
 283      0000
 284 00c5 8B3D0000 		movl	_engineConfiguration, %edi
 284      0000
 285 00cb 89D0     		movl	%edx, %eax
 286 00cd 89E9     		movl	%ebp, %ecx
 287 00cf F7D8     		negl	%eax
GAS LISTING /cygdrive/c/Users/pc/AppData/Local/Temp/ccfC9QkH.s 			page 8


 288 00d1 BE010000 		movl	$1, %esi
 288      00
 289 00d6 D3E6     		sall	%cl, %esi
 290 00d8 01DF     		addl	%ebx, %edi
 291 00da 3307     		xorl	(%edi), %eax
 292 00dc 21F0     		andl	%esi, %eax
 293 00de 3307     		xorl	(%edi), %eax
 294 00e0 8907     		movl	%eax, (%edi)
 295 00e2 896C240C 		movl	%ebp, 12(%esp)
 296 00e6 895C2408 		movl	%ebx, 8(%esp)
 297 00ea 89542410 		movl	%edx, 16(%esp)
 298 00ee C7442404 		movl	$LC0, 4(%esp)
 298      00000000 
 299 00f6 C7042400 		movl	$__ZL6logger, (%esp)
 299      000000
 300 00fd E8000000 		call	__Z11scheduleMsgP7LoggingPKcz
 300      00
 301 0102 8B5C243C 		movl	60(%esp), %ebx
 302 0106 8B742440 		movl	64(%esp), %esi
 303 010a 8B7C2444 		movl	68(%esp), %edi
 304 010e 8B6C2448 		movl	72(%esp), %ebp
 305 0112 83C44C   		addl	$76, %esp
 306              		.cfi_remember_state
 307              		.cfi_restore 5
 308              		.cfi_restore 7
 309              		.cfi_restore 6
 310              		.cfi_restore 3
 311              		.cfi_def_cfa_offset 4
 312 0115 E9000000 		jmp	_applyNewConfiguration
 312      00
 313 011a 8DB60000 		.p2align 4,,7
 313      0000
 314              	L32:
 315              		.cfi_restore_state
 316 0120 897C2458 		movl	%edi, 88(%esp)
 317 0124 C7442454 		movl	$LC8, 84(%esp)
 317      78000000 
 318              	L31:
 319 012c 8B5C243C 		movl	60(%esp), %ebx
 320 0130 8B742440 		movl	64(%esp), %esi
 321 0134 8B7C2444 		movl	68(%esp), %edi
 322 0138 8B6C2448 		movl	72(%esp), %ebp
 323 013c C7442450 		movl	$__ZL6logger, 80(%esp)
 323      00000000 
 324 0144 83C44C   		addl	$76, %esp
 325              		.cfi_remember_state
 326              		.cfi_restore 5
 327              		.cfi_restore 7
 328              		.cfi_restore 6
 329              		.cfi_restore 3
 330              		.cfi_def_cfa_offset 4
 331 0147 E9000000 		jmp	__Z11scheduleMsgP7LoggingPKcz
 331      00
 332 014c 8D742600 		.p2align 4,,7
 333              	L34:
 334              		.cfi_restore_state
 335 0150 89742458 		movl	%esi, 88(%esp)
GAS LISTING /cygdrive/c/Users/pc/AppData/Local/Temp/ccfC9QkH.s 			page 9


 336 0154 C7442454 		movl	$LC9, 84(%esp)
 336      8C000000 
 337 015c EBCE     		jmp	L31
 338 015e 6690     		.p2align 4,,7
 339              	L35:
 340 0160 8B4C2428 		movl	40(%esp), %ecx
 341 0164 C7442454 		movl	$LC10, 84(%esp)
 341      9D000000 
 342 016c 894C2458 		movl	%ecx, 88(%esp)
 343 0170 EBBA     		jmp	L31
 344              		.cfi_endproc
 345              	LFE97:
 346 0172 90909090 		.section	.text$_ZL8setShortii,"x"
 346      90909090 
 346      90909090 
 346      9090
 347              		.p2align 4,,15
 348              		.def	__ZL8setShortii;	.scl	3;	.type	32;	.endef
 349              	__ZL8setShortii:
 350              	LFB98:
 351              		.cfi_startproc
 352 0000 83EC1C   		subl	$28, %esp
 353              		.cfi_def_cfa_offset 32
 354 0003 8B442420 		movl	32(%esp), %eax
 355 0007 8B542424 		movl	36(%esp), %edx
 356 000b 3DA70800 		cmpl	$2215, %eax
 356      00
 357 0010 7604     		jbe	L39
 358 0012 83C41C   		addl	$28, %esp
 359              		.cfi_remember_state
 360              		.cfi_def_cfa_offset 4
 361 0015 C3       		ret
 362              		.p2align 4,,7
 363              	L39:
 364              		.cfi_restore_state
 365 0016 8B0D0000 		movl	_engineConfiguration, %ecx
 365      0000
 366 001c 66891401 		movw	%dx, (%ecx,%eax)
 367 0020 890424   		movl	%eax, (%esp)
 368 0023 E8000000 		call	__ZL8getShorti
 368      00
 369 0028 83C41C   		addl	$28, %esp
 370              		.cfi_def_cfa_offset 4
 371 002b E9000000 		jmp	_applyNewConfiguration
 371      00
 372              		.cfi_endproc
 373              	LFE98:
 374              		.section	.text$_ZL6setIntii,"x"
 375              		.p2align 4,,15
 376              		.def	__ZL6setIntii;	.scl	3;	.type	32;	.endef
 377              	__ZL6setIntii:
 378              	LFB101:
 379              		.cfi_startproc
 380 0000 83EC1C   		subl	$28, %esp
 381              		.cfi_def_cfa_offset 32
 382 0003 8B442420 		movl	32(%esp), %eax
 383 0007 8B542424 		movl	36(%esp), %edx
GAS LISTING /cygdrive/c/Users/pc/AppData/Local/Temp/ccfC9QkH.s 			page 10


 384 000b 3DA70800 		cmpl	$2215, %eax
 384      00
 385 0010 7604     		jbe	L43
 386 0012 83C41C   		addl	$28, %esp
 387              		.cfi_remember_state
 388              		.cfi_def_cfa_offset 4
 389 0015 C3       		ret
 390              		.p2align 4,,7
 391              	L43:
 392              		.cfi_restore_state
 393 0016 8B0D0000 		movl	_engineConfiguration, %ecx
 393      0000
 394 001c 891401   		movl	%edx, (%ecx,%eax)
 395 001f 890424   		movl	%eax, (%esp)
 396 0022 E8000000 		call	__ZL6getInti
 396      00
 397 0027 83C41C   		addl	$28, %esp
 398              		.cfi_def_cfa_offset 4
 399 002a E9000000 		jmp	_applyNewConfiguration
 399      00
 400              		.cfi_endproc
 401              	LFE101:
 402 002f 90       		.section .rdata,"dr"
 403              	LC11:
 404 00b0 65787465 		.ascii "externalKnockSenseAdc on ADC\0"
 404      726E616C 
 404      4B6E6F63 
 404      6B53656E 
 404      73654164 
 405              		.section	.text$_ZL12getKnockInfov,"x"
 406              		.p2align 4,,15
 407              		.def	__ZL12getKnockInfov;	.scl	3;	.type	32;	.endef
 408              	__ZL12getKnockInfov:
 409              	LFB105:
 410              		.cfi_startproc
 411 0000 83EC1C   		subl	$28, %esp
 412              		.cfi_def_cfa_offset 32
 413 0003 C7442408 		movl	$__ZL13pinNameBuffer, 8(%esp)
 413      00000000 
 414 000b C7442404 		movl	$LC11, 4(%esp)
 414      B0000000 
 415 0013 C7042400 		movl	$__ZL6logger, (%esp)
 415      000000
 416 001a C7050000 		movl	$1162760014, __ZL13pinNameBuffer
 416      00004E4F 
 416      4E45
 417 0024 C6050400 		movb	$0, __ZL13pinNameBuffer+4
 417      000000
 418 002b E8000000 		call	__Z11scheduleMsgP7LoggingPKcz
 418      00
 419 0030 8B0D0000 		movl	_engine, %ecx
 419      0000
 420 0036 83C41C   		addl	$28, %esp
 421              		.cfi_def_cfa_offset 4
 422 0039 E9000000 		jmp	__ZN6Engine15printKnockStateEv
 422      00
 423              		.cfi_endproc
GAS LISTING /cygdrive/c/Users/pc/AppData/Local/Temp/ccfC9QkH.s 			page 11


 424              	LFE105:
 425 003e 9090     		.section	.text$_ZL26scheduleNextSlowInvocationv,"x"
 426              		.p2align 4,,15
 427              		.def	__ZL26scheduleNextSlowInvocationv;	.scl	3;	.type	32;	.endef
 428              	__ZL26scheduleNextSlowInvocationv:
 429              	LFB88:
 430              		.cfi_startproc
 431 0000 83EC1C   		subl	$28, %esp
 432              		.cfi_def_cfa_offset 32
 433 0003 A1000000 		movl	_boardConfiguration, %eax
 433      00
 434 0008 8B904801 		movl	328(%eax), %edx
 434      0000
 435 000e B8881300 		movl	$5000, %eax
 435      00
 436 0013 C7442408 		movl	$__ZL20periodicSlowCallbackP6Engine, 8(%esp)
 436      00000000 
 437 001b C7042400 		movl	$__ZL17periodicSlowTimer, (%esp)
 437      000000
 438 0022 6BCA64   		imull	$100, %edx, %ecx
 439 0025 85D2     		testl	%edx, %edx
 440 0027 8B150000 		movl	_engine, %edx
 440      0000
 441 002d 0F45C1   		cmovne	%ecx, %eax
 442 0030 8954240C 		movl	%edx, 12(%esp)
 443 0034 89442404 		movl	%eax, 4(%esp)
 444 0038 E8000000 		call	_chVTSetAny
 444      00
 445 003d 83C41C   		addl	$28, %esp
 446              		.cfi_def_cfa_offset 4
 447 0040 C3       		ret
 448              		.cfi_endproc
 449              	LFE88:
 450 0041 90909090 		.section	.text$_ZL20periodicFastCallbackv,"x"
 450      90909090 
 450      90909090 
 450      909090
 451              		.p2align 4,,15
 452              		.def	__ZL20periodicFastCallbackv;	.scl	3;	.type	32;	.endef
 453              	__ZL20periodicFastCallbackv:
 454              	LFB89:
 455              		.cfi_startproc
 456 0000 83EC3C   		subl	$60, %esp
 457              		.cfi_def_cfa_offset 64
 458 0003 8B0D0000 		movl	_engine, %ecx
 458      0000
 459 0009 895C2434 		movl	%ebx, 52(%esp)
 460 000d 89742438 		movl	%esi, 56(%esp)
 461              		.cfi_offset 3, -12
 462              		.cfi_offset 6, -8
 463 0011 8B4104   		movl	4(%ecx), %eax
 464 0014 8D50FF   		leal	-1(%eax), %edx
 465 0017 81FA2E75 		cmpl	$29998, %edx
 465      0000
 466 001d 7651     		jbe	L54
 467 001f C781AC1E 		movl	$0x7fc00000, 7852(%ecx)
 467      00000000 
GAS LISTING /cygdrive/c/Users/pc/AppData/Local/Temp/ccfC9QkH.s 			page 12


 467      C07F
 468 0029 C781B01E 		movl	$0x7fc00000, 7856(%ecx)
 468      00000000 
 468      C07F
 469              	L52:
 470 0033 E8000000 		call	__ZN6Engine20periodicFastCallbackEv
 470      00
 471 0038 A1000000 		movl	_engine, %eax
 471      00
 472 003d C7442408 		movl	$__ZL20periodicFastCallbackv, 8(%esp)
 472      00000000 
 473 0045 C7442404 		movl	$2000, 4(%esp)
 473      D0070000 
 474 004d C7042400 		movl	$__ZL17periodicFastTimer, (%esp)
 474      000000
 475 0054 8944240C 		movl	%eax, 12(%esp)
 476 0058 E8000000 		call	_chVTSetAny
 476      00
 477 005d 8B5C2434 		movl	52(%esp), %ebx
 478 0061 8B742438 		movl	56(%esp), %esi
 479 0065 83C43C   		addl	$60, %esp
 480              		.cfi_remember_state
 481              		.cfi_restore 6
 482              		.cfi_restore 3
 483              		.cfi_def_cfa_offset 4
 484 0068 C3       		ret
 485 0069 8DB42600 		.p2align 4,,7
 485      000000
 486              	L54:
 487              		.cfi_restore_state
 488 0070 8B1D0000 		movl	_engineConfiguration, %ebx
 488      0000
 489 0076 8944242C 		movl	%eax, 44(%esp)
 490 007a DB44242C 		fildl	44(%esp)
 491 007e D91424   		fsts	(%esp)
 492 0081 8D4370   		leal	112(%ebx), %eax
 493 0084 8D939000 		leal	144(%ebx), %edx
 493      0000
 494 008a 89542408 		movl	%edx, 8(%esp)
 495 008e D95C2410 		fstps	16(%esp)
 496 0092 89442404 		movl	%eax, 4(%esp)
 497 0096 C744240C 		movl	$8, 12(%esp)
 497      08000000 
 498 009e 894C2428 		movl	%ecx, 40(%esp)
 499 00a2 E8000000 		call	__Z13interpolate2dfPfS_i
 499      00
 500 00a7 8B4C2428 		movl	40(%esp), %ecx
 501 00ab 8D83D000 		leal	208(%ebx), %eax
 501      0000
 502 00b1 81C3B000 		addl	$176, %ebx
 502      0000
 503 00b7 8B350000 		movl	_engine, %esi
 503      0000
 504 00bd D999AC1E 		fstps	7852(%ecx)
 504      0000
 505 00c3 D9442410 		flds	16(%esp)
 506 00c7 C744240C 		movl	$8, 12(%esp)
GAS LISTING /cygdrive/c/Users/pc/AppData/Local/Temp/ccfC9QkH.s 			page 13


 506      08000000 
 507 00cf D91C24   		fstps	(%esp)
 508 00d2 89442408 		movl	%eax, 8(%esp)
 509 00d6 895C2404 		movl	%ebx, 4(%esp)
 510 00da E8000000 		call	__Z13interpolate2dfPfS_i
 510      00
 511 00df 8B0D0000 		movl	_engine, %ecx
 511      0000
 512 00e5 D99EB01E 		fstps	7856(%esi)
 512      0000
 513 00eb E943FFFF 		jmp	L52
 513      FF
 514              		.cfi_endproc
 515              	LFE89:
 516              		.section	.text$_ZL8setFloatPKcS0_,"x"
 517              		.p2align 4,,15
 518              		.def	__ZL8setFloatPKcS0_;	.scl	3;	.type	32;	.endef
 519              	__ZL8setFloatPKcS0_:
 520              	LFB103:
 521              		.cfi_startproc
 522 0000 83EC3C   		subl	$60, %esp
 523              		.cfi_def_cfa_offset 64
 524 0003 89742430 		movl	%esi, 48(%esp)
 525              		.cfi_offset 6, -16
 526 0007 8B742440 		movl	64(%esp), %esi
 527 000b 895C242C 		movl	%ebx, 44(%esp)
 528 000f 897C2434 		movl	%edi, 52(%esp)
 529 0013 896C2438 		movl	%ebp, 56(%esp)
 530              		.cfi_offset 3, -20
 531              		.cfi_offset 7, -12
 532              		.cfi_offset 5, -8
 533 0017 8B6C2444 		movl	68(%esp), %ebp
 534 001b 893424   		movl	%esi, (%esp)
 535 001e E8000000 		call	_atoi
 535      00
 536 0023 890424   		movl	%eax, (%esp)
 537 0026 89C3     		movl	%eax, %ebx
 538 0028 E8000000 		call	_absI
 538      00
 539 002d C7042430 		movl	$311223344, (%esp)
 539      E48C12
 540 0034 89C7     		movl	%eax, %edi
 541 0036 E8000000 		call	_absI
 541      00
 542 003b 39C7     		cmpl	%eax, %edi
 543 003d 7462     		je	L60
 544 003f 81FBA708 		cmpl	$2215, %ebx
 544      0000
 545 0045 7619     		jbe	L61
 546              	L55:
 547 0047 8B5C242C 		movl	44(%esp), %ebx
 548 004b 8B742430 		movl	48(%esp), %esi
 549 004f 8B7C2434 		movl	52(%esp), %edi
 550 0053 8B6C2438 		movl	56(%esp), %ebp
 551 0057 83C43C   		addl	$60, %esp
 552              		.cfi_remember_state
 553              		.cfi_restore 5
GAS LISTING /cygdrive/c/Users/pc/AppData/Local/Temp/ccfC9QkH.s 			page 14


 554              		.cfi_restore 7
 555              		.cfi_restore 6
 556              		.cfi_restore 3
 557              		.cfi_def_cfa_offset 4
 558 005a C3       		ret
 559 005b 908D7426 		.p2align 4,,7
 559      00
 560              	L61:
 561              		.cfi_restore_state
 562 0060 892C24   		movl	%ebp, (%esp)
 563 0063 E8000000 		call	_atoff
 563      00
 564 0068 D95C241C 		fstps	28(%esp)
 565 006c 817C241C 		cmpl	$2143289344, 28(%esp)
 565      0000C07F 
 566 0074 744A     		je	L62
 567 0076 A1000000 		movl	_engine, %eax
 567      00
 568 007b D944241C 		flds	28(%esp)
 569 007f 8B742430 		movl	48(%esp), %esi
 570 0083 8B7C2434 		movl	52(%esp), %edi
 571 0087 8B4024   		movl	36(%eax), %eax
 572 008a 8B6C2438 		movl	56(%esp), %ebp
 573 008e D91C18   		fstps	(%eax,%ebx)
 574 0091 895C2440 		movl	%ebx, 64(%esp)
 575 0095 8B5C242C 		movl	44(%esp), %ebx
 576 0099 83C43C   		addl	$60, %esp
 577              		.cfi_remember_state
 578              		.cfi_restore 5
 579              		.cfi_restore 7
 580              		.cfi_restore 6
 581              		.cfi_restore 3
 582              		.cfi_def_cfa_offset 4
 583 009c E9000000 		jmp	__ZL8getFloati
 583      00
 584              		.p2align 4,,7
 585              	L60:
 586              		.cfi_restore_state
 587 00a1 89742408 		movl	%esi, 8(%esp)
 588 00a5 C7442404 		movl	$LC8, 4(%esp)
 588      78000000 
 589 00ad C7042400 		movl	$__ZL6logger, (%esp)
 589      000000
 590 00b4 E8000000 		call	__Z11scheduleMsgP7LoggingPKcz
 590      00
 591 00b9 EB8C     		jmp	L55
 592 00bb 908D7426 		.p2align 4,,7
 592      00
 593              	L62:
 594 00c0 896C2408 		movl	%ebp, 8(%esp)
 595 00c4 C7442404 		movl	$LC10, 4(%esp)
 595      9D000000 
 596 00cc C7042400 		movl	$__ZL6logger, (%esp)
 596      000000
 597 00d3 E8000000 		call	__Z11scheduleMsgP7LoggingPKcz
 597      00
 598 00d8 E96AFFFF 		jmp	L55
GAS LISTING /cygdrive/c/Users/pc/AppData/Local/Temp/ccfC9QkH.s 			page 15


 598      FF
 599              		.cfi_endproc
 600              	LFE103:
 601 00dd 909090   		.section .rdata,"dr"
 602              	LC12:
 603 00cd 6C6F7753 		.ascii "lowStckOnEv\0"
 603      74636B4F 
 603      6E457600 
 604              	LC14:
 605 00d9 69734379 		.ascii "isCylinderCleanupMode %s\0"
 605      6C696E64 
 605      6572436C 
 605      65616E75 
 605      704D6F64 
 606              		.section	.text$_ZL20periodicSlowCallbackP6Engine,"x"
 607              		.p2align 4,,15
 608              		.def	__ZL20periodicSlowCallbackP6Engine;	.scl	3;	.type	32;	.endef
 609              	__ZL20periodicSlowCallbackP6Engine:
 610              	LFB90:
 611              		.cfi_startproc
 612 0000 53       		pushl	%ebx
 613              		.cfi_def_cfa_offset 8
 614              		.cfi_offset 3, -8
 615 0001 83EC18   		subl	$24, %esp
 616              		.cfi_def_cfa_offset 32
 617 0004 A1180000 		movl	_rlist+24, %eax
 617      00
 618 0009 8B5C2420 		movl	32(%esp), %ebx
 619 000d 890424   		movl	%eax, (%esp)
 620 0010 E8000000 		call	_getRemainingStack
 620      00
 621 0015 83F840   		cmpl	$64, %eax
 622 0018 0F8EB200 		jle	L77
 622      0000
 623 001e B9000000 		movl	$__ZL32versionForConfigurationListeners, %ecx
 623      00
 624 0023 E8000000 		call	__ZN18LocalVersionHolder5isOldEv
 624      00
 625 0028 84C0     		testb	%al, %al
 626 002a 0F85D300 		jne	L78
 626      0000
 627              	L65:
 628 0030 89D9     		movl	%ebx, %ecx
 629 0032 E8000000 		call	__ZN6Engine8watchdogEv
 629      00
 630 0037 89D9     		movl	%ebx, %ecx
 631 0039 E8000000 		call	__ZN6Engine17updateSlowSensorsEv
 631      00
 632 003e E8000000 		call	__Z23getIntakeAirTemperaturev
 632      00
 633 0043 D91C24   		fstps	(%esp)
 634 0046 E8000000 		call	__Z27isValidIntakeAirTemperaturef
 634      00
 635 004b C7442404 		movl	$110, 4(%esp)
 635      6E000000 
 636 0053 83F001   		xorl	$1, %eax
 637 0056 0FB6C0   		movzbl	%al, %eax
GAS LISTING /cygdrive/c/Users/pc/AppData/Local/Temp/ccfC9QkH.s 			page 16


 638 0059 890424   		movl	%eax, (%esp)
 639 005c E8000000 		call	_setError
 639      00
 640 0061 E8000000 		call	__Z21getCoolantTemperaturev
 640      00
 641 0066 D91C24   		fstps	(%esp)
 642 0069 E8000000 		call	__Z25isValidCoolantTemperaturef
 642      00
 643 006e C7442404 		movl	$115, 4(%esp)
 643      73000000 
 644 0076 83F001   		xorl	$1, %eax
 645 0079 0FB6C0   		movzbl	%al, %eax
 646 007c 890424   		movl	%eax, (%esp)
 647 007f E8000000 		call	_setError
 647      00
 648 0084 A1000000 		movl	_engineConfiguration, %eax
 648      00
 649 0089 F680E405 		testb	$4, 1508(%eax)
 649      000004
 650 0090 754F     		jne	L66
 651              	L68:
 652 0092 31C0     		xorl	%eax, %eax
 653              	L67:
 654 0094 3883F81E 		cmpb	%al, 7928(%ebx)
 654      0000
 655 009a 7429     		je	L69
 656 009c 8883F81E 		movb	%al, 7928(%ebx)
 656      0000
 657 00a2 0FB6C0   		movzbl	%al, %eax
 658 00a5 890424   		movl	%eax, (%esp)
 659 00a8 E8000000 		call	__Z12boolToStringb
 659      00
 660 00ad C7442404 		movl	$LC14, 4(%esp)
 660      D9000000 
 661 00b5 C7042400 		movl	$__ZL6logger, (%esp)
 661      000000
 662 00bc 89442408 		movl	%eax, 8(%esp)
 663 00c0 E8000000 		call	__Z11scheduleMsgP7LoggingPKcz
 663      00
 664              	L69:
 665 00c5 83C418   		addl	$24, %esp
 666              		.cfi_remember_state
 667              		.cfi_def_cfa_offset 8
 668 00c8 5B       		popl	%ebx
 669              		.cfi_restore 3
 670              		.cfi_def_cfa_offset 4
 671 00c9 E9000000 		jmp	__ZL26scheduleNextSlowInvocationv
 671      00
 672 00ce 6690     		.p2align 4,,7
 673              	L77:
 674              		.cfi_restore_state
 675 00d0 C7442420 		movl	$LC12, 32(%esp)
 675      CD000000 
 676 00d8 83C418   		addl	$24, %esp
 677              		.cfi_remember_state
 678              		.cfi_def_cfa_offset 8
 679 00db 5B       		popl	%ebx
GAS LISTING /cygdrive/c/Users/pc/AppData/Local/Temp/ccfC9QkH.s 			page 17


 680              		.cfi_restore 3
 681              		.cfi_def_cfa_offset 4
 682 00dc E9000000 		jmp	_firmwareError
 682      00
 683              		.p2align 4,,7
 684              	L66:
 685              		.cfi_restore_state
 686 00e1 891C24   		movl	%ebx, (%esp)
 687 00e4 E8000000 		call	__Z11isCrankingEP6Engine
 687      00
 688 00e9 84C0     		testb	%al, %al
 689 00eb 74A5     		je	L68
 690 00ed E8000000 		call	__Z6getTPSv
 690      00
 691 00f2 D9056401 		flds	LC13
 691      0000
 692 00f8 D9C9     		fxch	%st(1)
 693 00fa DFE9     		fucomip	%st(1), %st
 694 00fc DDD8     		fstp	%st(0)
 695 00fe 0F97C0   		seta	%al
 696 0101 EB91     		jmp	L67
 697              		.p2align 4,,7
 698              	L78:
 699 0103 8D8B4423 		leal	9028(%ebx), %ecx
 699      0000
 700 0109 E8000000 		call	__ZN16IntListenerArray22invokeJustArgCallbacksEv
 700      00
 701 010e E91DFFFF 		jmp	L65
 701      FF
 702              		.cfi_endproc
 703              	LFE90:
 704 0113 90909090 		.section .rdata,"dr"
 704      90909090 
 704      90909090 
 704      90
 705              	LC15:
 706 00f2 456E6769 		.ascii "Engine Controller\0"
 706      6E652043 
 706      6F6E7472 
 706      6F6C6C65 
 706      7200
 707              		.section	.text$_Z41__static_initialization_and_destruction_0ii.part.7,"x"
 708              		.p2align 4,,15
 709              		.def	__Z41__static_initialization_and_destruction_0ii.part.7;	.scl	3;	.type	32;	.endef
 710              	__Z41__static_initialization_and_destruction_0ii.part.7:
 711              	LFB126:
 712              		.cfi_startproc
 713 0000 83EC1C   		subl	$28, %esp
 714              		.cfi_def_cfa_offset 32
 715 0003 B9000000 		movl	$__ZL6logger, %ecx
 715      00
 716 0008 C70424F2 		movl	$LC15, (%esp)
 716      000000
 717 000f E8000000 		call	__ZN18LoggingWithStorageC1EPKc
 717      00
 718              		.cfi_def_cfa_offset 28
 719 0014 B9000000 		movl	$__ZL3ec2, %ecx
GAS LISTING /cygdrive/c/Users/pc/AppData/Local/Temp/ccfC9QkH.s 			page 18


 719      00
 720 0019 83EC04   		subl	$4, %esp
 721              		.cfi_def_cfa_offset 32
 722 001c E8000000 		call	__ZN23engine_configuration2_sC1Ev
 722      00
 723 0021 B9000000 		movl	$__engine, %ecx
 723      00
 724 0026 C7042408 		movl	$_persistentState+8, (%esp)
 724      000000
 725 002d E8000000 		call	__ZN6EngineC1EP19persistent_config_s
 725      00
 726              		.cfi_def_cfa_offset 28
 727 0032 B9000000 		movl	$__ZL32versionForConfigurationListeners, %ecx
 727      00
 728 0037 83EC04   		subl	$4, %esp
 729              		.cfi_def_cfa_offset 32
 730 003a 83C41C   		addl	$28, %esp
 731              		.cfi_def_cfa_offset 4
 732 003d E9000000 		jmp	__ZN18LocalVersionHolderC1Ev
 732      00
 733              		.cfi_endproc
 734              	LFE126:
 735 0042 90909090 		.section	.text$_Z18initPeriodicEventsv,"x"
 735      90909090 
 735      90909090 
 735      9090
 736              		.p2align 4,,15
 737              		.globl	__Z18initPeriodicEventsv
 738              		.def	__Z18initPeriodicEventsv;	.scl	2;	.type	32;	.endef
 739              	__Z18initPeriodicEventsv:
 740              	LFB91:
 741              		.cfi_startproc
 742 0000 83EC0C   		subl	$12, %esp
 743              		.cfi_def_cfa_offset 16
 744 0003 E8000000 		call	__ZL26scheduleNextSlowInvocationv
 744      00
 745 0008 83C40C   		addl	$12, %esp
 746              		.cfi_def_cfa_offset 4
 747 000b E9000000 		jmp	__ZL20periodicFastCallbackv
 747      00
 748              		.cfi_endproc
 749              	LFE91:
 750              		.section	.text$_Z22getPinNameByAdcChannel13adc_channel_ePc,"x"
 751              		.p2align 4,,15
 752              		.globl	__Z22getPinNameByAdcChannel13adc_channel_ePc
 753              		.def	__Z22getPinNameByAdcChannel13adc_channel_ePc;	.scl	2;	.type	32;	.endef
 754              	__Z22getPinNameByAdcChannel13adc_channel_ePc:
 755              	LFB92:
 756              		.cfi_startproc
 757 0000 8B442408 		movl	8(%esp), %eax
 758 0004 C7004E4F 		movl	$1162760014, (%eax)
 758      4E45
 759 000a C6400400 		movb	$0, 4(%eax)
 760 000e C3       		ret
 761              		.cfi_endproc
 762              	LFE92:
 763 000f 90       		.section .rdata,"dr"
GAS LISTING /cygdrive/c/Users/pc/AppData/Local/Temp/ccfC9QkH.s 			page 19


 764              	LC16:
 765 0104 7365745F 		.ascii "set_float\0"
 765      666C6F61 
 765      7400
 766              	LC17:
 767 010e 7365745F 		.ascii "set_int\0"
 767      696E7400 
 768              	LC18:
 769 0116 7365745F 		.ascii "set_short\0"
 769      73686F72 
 769      7400
 770              	LC19:
 771 0120 7365745F 		.ascii "set_bit\0"
 771      62697400 
 772              	LC20:
 773 0128 6765745F 		.ascii "get_float\0"
 773      666C6F61 
 773      7400
 774              	LC21:
 775 0132 6765745F 		.ascii "get_int\0"
 775      696E7400 
 776              	LC22:
 777 013a 6765745F 		.ascii "get_short\0"
 777      73686F72 
 777      7400
 778              	LC23:
 779 0144 6765745F 		.ascii "get_bit\0"
 779      62697400 
 780              		.section	.text$_Z17initConfigActionsv,"x"
 781              		.p2align 4,,15
 782              		.globl	__Z17initConfigActionsv
 783              		.def	__Z17initConfigActionsv;	.scl	2;	.type	32;	.endef
 784              	__Z17initConfigActionsv:
 785              	LFB104:
 786              		.cfi_startproc
 787 0000 83EC1C   		subl	$28, %esp
 788              		.cfi_def_cfa_offset 32
 789 0003 C7442404 		movl	$__ZL8setFloatPKcS0_, 4(%esp)
 789      00000000 
 790 000b C7042404 		movl	$LC16, (%esp)
 790      010000
 791 0012 E8000000 		call	_addConsoleActionSS
 791      00
 792 0017 C7442404 		movl	$__ZL6setIntii, 4(%esp)
 792      00000000 
 793 001f C704240E 		movl	$LC17, (%esp)
 793      010000
 794 0026 E8000000 		call	_addConsoleActionII
 794      00
 795 002b C7442404 		movl	$__ZL8setShortii, 4(%esp)
 795      00000000 
 796 0033 C7042416 		movl	$LC18, (%esp)
 796      010000
 797 003a E8000000 		call	_addConsoleActionII
 797      00
 798 003f C7442404 		movl	$__ZL6setBitPKcS0_S0_, 4(%esp)
 798      00000000 
GAS LISTING /cygdrive/c/Users/pc/AppData/Local/Temp/ccfC9QkH.s 			page 20


 799 0047 C7042420 		movl	$LC19, (%esp)
 799      010000
 800 004e E8000000 		call	_addConsoleActionSSS
 800      00
 801 0053 C7442404 		movl	$__ZL8getFloati, 4(%esp)
 801      00000000 
 802 005b C7042428 		movl	$LC20, (%esp)
 802      010000
 803 0062 E8000000 		call	_addConsoleActionI
 803      00
 804 0067 C7442404 		movl	$__ZL6getInti, 4(%esp)
 804      00000000 
 805 006f C7042432 		movl	$LC21, (%esp)
 805      010000
 806 0076 E8000000 		call	_addConsoleActionI
 806      00
 807 007b C7442404 		movl	$__ZL8getShorti, 4(%esp)
 807      00000000 
 808 0083 C704243A 		movl	$LC22, (%esp)
 808      010000
 809 008a E8000000 		call	_addConsoleActionI
 809      00
 810 008f C7442404 		movl	$__ZL6getBitii, 4(%esp)
 810      00000000 
 811 0097 C7042444 		movl	$LC23, (%esp)
 811      010000
 812 009e E8000000 		call	_addConsoleActionII
 812      00
 813 00a3 83C41C   		addl	$28, %esp
 814              		.cfi_def_cfa_offset 4
 815 00a6 C3       		ret
 816              		.cfi_endproc
 817              	LFE104:
 818 00a7 90909090 		.section .rdata,"dr"
 818      90909090 
 818      90
 819              	LC24:
 820 014c 616E616C 		.ascii "analoginfo\0"
 820      6F67696E 
 820      666F00
 821              	LC25:
 822 0157 6B6E6F63 		.ascii "knockinfo\0"
 822      6B696E66 
 822      6F00
 823              		.section	.text$_Z19initEngineContollerP7Logging,"x"
 824              		.p2align 4,,15
 825              		.globl	__Z19initEngineContollerP7Logging
 826              		.def	__Z19initEngineContollerP7Logging;	.scl	2;	.type	32;	.endef
 827              	__Z19initEngineContollerP7Logging:
 828              	LFB106:
 829              		.cfi_startproc
 830 0000 53       		pushl	%ebx
 831              		.cfi_def_cfa_offset 8
 832              		.cfi_offset 3, -8
 833 0001 83EC28   		subl	$40, %esp
 834              		.cfi_def_cfa_offset 48
 835 0004 C7442404 		movl	$__ZL15printAnalogInfov, 4(%esp)
GAS LISTING /cygdrive/c/Users/pc/AppData/Local/Temp/ccfC9QkH.s 			page 21


 835      00000000 
 836 000c 8B5C2430 		movl	48(%esp), %ebx
 837 0010 C704244C 		movl	$LC24, (%esp)
 837      010000
 838 0017 E8000000 		call	_addConsoleAction
 838      00
 839 001c E8000000 		call	__Z17initConfigActionsv
 839      00
 840 0021 A1000000 		movl	_engineConfiguration, %eax
 840      00
 841 0026 F680E505 		testb	$1, 1509(%eax)
 841      000001
 842 002d 0F85C200 		jne	L102
 842      0000
 843              	L87:
 844 0033 803D0000 		cmpb	$0, _hasFirmwareErrorFlag
 844      000000
 845 003a 7405     		je	L103
 846 003c 83C428   		addl	$40, %esp
 847              		.cfi_remember_state
 848              		.cfi_def_cfa_offset 8
 849 003f 5B       		popl	%ebx
 850              		.cfi_restore 3
 851              		.cfi_def_cfa_offset 4
 852 0040 C3       		ret
 853              		.p2align 4,,7
 854              	L103:
 855              		.cfi_restore_state
 856 0041 891C24   		movl	%ebx, (%esp)
 857 0044 E8000000 		call	__Z11initSensorsP7Logging
 857      00
 858 0049 E8000000 		call	__Z15initSensorChartv
 858      00
 859 004e A1000000 		movl	_engineConfiguration, %eax
 859      00
 860 0053 891C24   		movl	%ebx, (%esp)
 861 0056 89442404 		movl	%eax, 4(%esp)
 862 005a E8000000 		call	__Z8initAlgoP7LoggingP22engine_configuration_s
 862      00
 863 005f A1000000 		movl	_engine, %eax
 863      00
 864 0064 891C24   		movl	%ebx, (%esp)
 865 0067 89442404 		movl	%eax, 4(%esp)
 866 006b E8000000 		call	__Z17initRpmCalculatorP7LoggingP6Engine
 866      00
 867 0070 E8000000 		call	__Z18initPeriodicEventsv
 867      00
 868 0075 C7442410 		movl	$0, 16(%esp)
 868      00000000 
 869 007d C744240C 		movl	$__ZL8csThreadv, 12(%esp)
 869      00000000 
 870 0085 C7442408 		movl	$2, 8(%esp)
 870      02000000 
 871 008d C7442404 		movl	$17888, 4(%esp)
 871      E0450000 
 872 0095 C7042400 		movl	$__ZL13csThreadStack, (%esp)
 872      000000
GAS LISTING /cygdrive/c/Users/pc/AppData/Local/Temp/ccfC9QkH.s 			page 22


 873 009c E8000000 		call	_chThdCreateStatic
 873      00
 874 00a1 E8000000 		call	_initMalfunctionCentral
 874      00
 875 00a6 A1000000 		movl	_engineConfiguration, %eax
 875      00
 876 00ab F680E405 		testb	$32, 1508(%eax)
 876      000020
 877 00b2 755F     		jne	L104
 878              	L89:
 879 00b4 A1000000 		movl	_boardConfiguration, %eax
 879      00
 880 00b9 F6808001 		testb	$32, 384(%eax)
 880      000020
 881 00c0 753E     		jne	L105
 882              	L90:
 883 00c2 A1000000 		movl	_engineConfiguration, %eax
 883      00
 884 00c7 83B85406 		cmpl	$16, 1620(%eax)
 884      000010
 885 00ce 7414     		je	L91
 886 00d0 C7442404 		movl	$__ZL12getKnockInfov, 4(%esp)
 886      00000000 
 887 00d8 C7042457 		movl	$LC25, (%esp)
 887      010000
 888 00df E8000000 		call	_addConsoleAction
 888      00
 889              	L91:
 890 00e4 891C24   		movl	%ebx, (%esp)
 891 00e7 E8000000 		call	__Z19initAccelEnrichmentP7Logging
 891      00
 892 00ec 83C428   		addl	$40, %esp
 893              		.cfi_remember_state
 894              		.cfi_def_cfa_offset 8
 895 00ef 5B       		popl	%ebx
 896              		.cfi_restore 3
 897              		.cfi_def_cfa_offset 4
 898 00f0 E9000000 		jmp	__Z17initConfigActionsv
 898      00
 899              		.p2align 4,,7
 900              	L102:
 901              		.cfi_restore_state
 902 00f5 E8000000 		call	__Z28startTunerStudioConnectivityv
 902      00
 903 00fa E934FFFF 		jmp	L87
 903      FF
 904 00ff 90       		.p2align 4,,7
 905              	L105:
 906 0100 A1000000 		movl	_engine, %eax
 906      00
 907 0105 891C24   		movl	%ebx, (%esp)
 908 0108 89442404 		movl	%eax, 4(%esp)
 909 010c E8000000 		call	__Z21initMainEventListenerP7LoggingP6Engine
 909      00
 910 0111 EBAF     		jmp	L90
 911              		.p2align 4,,7
 912              	L104:
GAS LISTING /cygdrive/c/Users/pc/AppData/Local/Temp/ccfC9QkH.s 			page 23


 913 0113 A1000000 		movl	_engine, %eax
 913      00
 914 0118 891C24   		movl	%ebx, (%esp)
 915 011b 89442404 		movl	%eax, 4(%esp)
 916 011f E8000000 		call	__Z16initMapAveragingP7LoggingP6Engine
 916      00
 917 0124 EB8E     		jmp	L89
 918              		.cfi_endproc
 919              	LFE106:
 920 0126 90909090 		.section	.text.startup._GLOBAL__sub_I_persistentState,"x"
 920      90909090 
 920      9090
 921              		.p2align 4,,15
 922              		.def	__GLOBAL__sub_I_persistentState;	.scl	3;	.type	32;	.endef
 923              	__GLOBAL__sub_I_persistentState:
 924              	LFB117:
 925              		.cfi_startproc
 926 0000 E9000000 		jmp	__Z41__static_initialization_and_destruction_0ii.part.7
 926      00
 927              		.cfi_endproc
 928              	LFE117:
 929 0005 90909090 		.section	.ctors,"w"
 929      90909090 
 929      909090
 930              		.align 4
 931 0000 00000000 		.long	__GLOBAL__sub_I_persistentState
 932              		.section	.text.exit._GLOBAL__sub_D_persistentState,"x"
 933              		.p2align 4,,15
 934              		.def	__GLOBAL__sub_D_persistentState;	.scl	3;	.type	32;	.endef
 935              	__GLOBAL__sub_D_persistentState:
 936              	LFB118:
 937              		.cfi_startproc
 938 0000 F3       		rep
 939 0001 C3       		ret
 940              		.cfi_endproc
 941              	LFE118:
 942              		.globl	_engine
 943 0002 90909090 		.section	.data$engine,"w"
 943      90909090 
 943      90909090 
 943      9090
 944              		.align 4
 945              	_engine:
 946 0000 00000000 		.long	__engine
 947              		.globl	__engine
 948              		.section	.data$_engine,"w"
 949              		.align 32
 950              	__engine:
 951 0000 00000000 		.space 9240
 951      00000000 
 951      00000000 
 951      00000000 
 951      00000000 
 952              		.globl	_engineConfiguration2
 953 2418 00000000 		.section	.data$engineConfiguration2,"w"
 953      00000000 
 954              		.align 4
GAS LISTING /cygdrive/c/Users/pc/AppData/Local/Temp/ccfC9QkH.s 			page 24


 955              	_engineConfiguration2:
 956 0000 00000000 		.long	__ZL3ec2
 957              		.globl	_boardConfiguration
 958              		.section	.data$boardConfiguration,"w"
 959              		.align 4
 960              	_boardConfiguration:
 961 0000 78020000 		.long	_persistentState+632
 962              		.globl	_engineConfiguration
 963              		.section	.data$engineConfiguration,"w"
 964              		.align 4
 965              	_engineConfiguration:
 966 0000 08000000 		.long	_persistentState+8
 967              		.globl	_config
 968              		.section	.data$config,"w"
 969              		.align 4
 970              	_config:
 971 0000 08000000 		.long	_persistentState+8
 972              		.globl	_persistentState
 973              		.section	.data$persistentState,"w"
 974              		.align 32
 975              	_persistentState:
 976 0000 00000000 		.space 15300
 976      00000000 
 976      00000000 
 976      00000000 
 976      00000000 
 977 3bc4 00000000 		.section	.data$_ZL17periodicSlowTimer,"w"
 977      00000000 
 977      00000000 
 977      00000000 
 977      00000000 
 978              		.align 4
 979              	__ZL17periodicSlowTimer:
 980 0000 00000000 		.space 20
 980      00000000 
 980      00000000 
 980      00000000 
 980      00000000 
 981              		.section	.data$_ZL32versionForConfigurationListeners,"w"
 982              		.align 4
 983              	__ZL32versionForConfigurationListeners:
 984 0000 00000000 		.space 4
 985              		.section	.data$_ZL6logger,"w"
 986              		.align 32
 987              	__ZL6logger:
 988 0000 00000000 		.space 260
 988      00000000 
 988      00000000 
 988      00000000 
 988      00000000 
 989 0104 00000000 		.section	.data$_ZL3ec2,"w"
 989      00000000 
 989      00000000 
 989      00000000 
 989      00000000 
 990              		.align 32
 991              	__ZL3ec2:
GAS LISTING /cygdrive/c/Users/pc/AppData/Local/Temp/ccfC9QkH.s 			page 25


 992 0000 00000000 		.space 43808
 992      00000000 
 992      00000000 
 992      00000000 
 992      00000000 
 993              		.section	.data$_ZL17periodicFastTimer,"w"
 994              		.align 4
 995              	__ZL17periodicFastTimer:
 996 0000 00000000 		.space 20
 996      00000000 
 996      00000000 
 996      00000000 
 996      00000000 
 997              		.section	.data$_ZL13csThreadStack,"w"
 998              		.align 32
 999              	__ZL13csThreadStack:
 1000 0000 00000000 		.space 17888
 1000      00000000 
 1000      00000000 
 1000      00000000 
 1000      00000000 
 1001              		.section	.data$_ZL13pinNameBuffer,"w"
 1002              	__ZL13pinNameBuffer:
 1003 0000 00000000 		.space 16
 1003      00000000 
 1003      00000000 
 1003      00000000 
 1004              		.section .rdata,"dr"
 1005 0161 000000   		.align 4
 1006              	LC13:
 1007 0164 0000BE42 		.long	1119748096
 1008              		.def	__Z11scheduleMsgP7LoggingPKcz;	.scl	2;	.type	32;	.endef
 1009              		.def	__ZN13RpmCalculator3rpmEv;	.scl	2;	.type	32;	.endef
 1010              		.def	__ZN9OutputPin8setValueEi;	.scl	2;	.type	32;	.endef
 1011              		.def	_chThdSleep;	.scl	2;	.type	32;	.endef
 1012              		.def	__Z12hasMafSensorv;	.scl	2;	.type	32;	.endef
 1013              		.def	__Z13hasBaroSensorv;	.scl	2;	.type	32;	.endef
 1014              		.def	__Z11getAdcValuePKci;	.scl	2;	.type	32;	.endef
 1015              		.def	_atoi;	.scl	2;	.type	32;	.endef
 1016              		.def	_absI;	.scl	2;	.type	32;	.endef
 1017              		.def	_applyNewConfiguration;	.scl	2;	.type	32;	.endef
 1018              		.def	__ZN6Engine15printKnockStateEv;	.scl	2;	.type	32;	.endef
 1019              		.def	_chVTSetAny;	.scl	2;	.type	32;	.endef
 1020              		.def	__ZN6Engine20periodicFastCallbackEv;	.scl	2;	.type	32;	.endef
 1021              		.def	__Z13interpolate2dfPfS_i;	.scl	2;	.type	32;	.endef
 1022              		.def	_atoff;	.scl	2;	.type	32;	.endef
 1023              		.def	_getRemainingStack;	.scl	2;	.type	32;	.endef
 1024              		.def	__ZN18LocalVersionHolder5isOldEv;	.scl	2;	.type	32;	.endef
 1025              		.def	__ZN6Engine8watchdogEv;	.scl	2;	.type	32;	.endef
 1026              		.def	__ZN6Engine17updateSlowSensorsEv;	.scl	2;	.type	32;	.endef
 1027              		.def	__Z23getIntakeAirTemperaturev;	.scl	2;	.type	32;	.endef
 1028              		.def	__Z27isValidIntakeAirTemperaturef;	.scl	2;	.type	32;	.endef
 1029              		.def	_setError;	.scl	2;	.type	32;	.endef
 1030              		.def	__Z21getCoolantTemperaturev;	.scl	2;	.type	32;	.endef
 1031              		.def	__Z25isValidCoolantTemperaturef;	.scl	2;	.type	32;	.endef
 1032              		.def	__Z12boolToStringb;	.scl	2;	.type	32;	.endef
 1033              		.def	_firmwareError;	.scl	2;	.type	32;	.endef
GAS LISTING /cygdrive/c/Users/pc/AppData/Local/Temp/ccfC9QkH.s 			page 26


 1034              		.def	__Z11isCrankingEP6Engine;	.scl	2;	.type	32;	.endef
 1035              		.def	__Z6getTPSv;	.scl	2;	.type	32;	.endef
 1036              		.def	__ZN16IntListenerArray22invokeJustArgCallbacksEv;	.scl	2;	.type	32;	.endef
 1037              		.def	__ZN18LoggingWithStorageC1EPKc;	.scl	2;	.type	32;	.endef
 1038              		.def	__ZN23engine_configuration2_sC1Ev;	.scl	2;	.type	32;	.endef
 1039              		.def	__ZN6EngineC1EP19persistent_config_s;	.scl	2;	.type	32;	.endef
 1040              		.def	__ZN18LocalVersionHolderC1Ev;	.scl	2;	.type	32;	.endef
 1041              		.def	_addConsoleActionSS;	.scl	2;	.type	32;	.endef
 1042              		.def	_addConsoleActionII;	.scl	2;	.type	32;	.endef
 1043              		.def	_addConsoleActionSSS;	.scl	2;	.type	32;	.endef
 1044              		.def	_addConsoleActionI;	.scl	2;	.type	32;	.endef
 1045              		.def	_addConsoleAction;	.scl	2;	.type	32;	.endef
 1046              		.def	__Z11initSensorsP7Logging;	.scl	2;	.type	32;	.endef
 1047              		.def	__Z15initSensorChartv;	.scl	2;	.type	32;	.endef
 1048              		.def	__Z8initAlgoP7LoggingP22engine_configuration_s;	.scl	2;	.type	32;	.endef
 1049              		.def	__Z17initRpmCalculatorP7LoggingP6Engine;	.scl	2;	.type	32;	.endef
 1050              		.def	_chThdCreateStatic;	.scl	2;	.type	32;	.endef
 1051              		.def	_initMalfunctionCentral;	.scl	2;	.type	32;	.endef
 1052              		.def	__Z19initAccelEnrichmentP7Logging;	.scl	2;	.type	32;	.endef
 1053              		.def	__Z28startTunerStudioConnectivityv;	.scl	2;	.type	32;	.endef
 1054              		.def	__Z21initMainEventListenerP7LoggingP6Engine;	.scl	2;	.type	32;	.endef
 1055              		.def	__Z16initMapAveragingP7LoggingP6Engine;	.scl	2;	.type	32;	.endef
GAS LISTING /cygdrive/c/Users/pc/AppData/Local/Temp/ccfC9QkH.s 			page 27

