GAS LISTING /cygdrive/c/Users/pc/AppData/Local/Temp/cckMX1Kq.s 			page 1


   1              		.file	"engine.cpp"
   2              		.section .rdata,"dr"
   3              	LC1:
   4 0000 6675656C 		.ascii "fuel\0"
   4      00
   5              		.section	.text$_ZN6Engine17updateSlowSensorsEv,"x"
   6              		.align 2
   7              		.p2align 4,,15
   8              		.globl	__ZN6Engine17updateSlowSensorsEv
   9              		.def	__ZN6Engine17updateSlowSensorsEv;	.scl	2;	.type	32;	.endef
  10              	__ZN6Engine17updateSlowSensorsEv:
  11              	LFB85:
  12              		.cfi_startproc
  13 0000 56       		pushl	%esi
  14              		.cfi_def_cfa_offset 8
  15              		.cfi_offset 6, -8
  16 0001 53       		pushl	%ebx
  17              		.cfi_def_cfa_offset 12
  18              		.cfi_offset 3, -12
  19 0002 89CB     		movl	%ecx, %ebx
  20 0004 83EC34   		subl	$52, %esp
  21              		.cfi_def_cfa_offset 64
  22 0007 8B7124   		movl	36(%ecx), %esi
  23 000a E8000000 		call	__Z23getIntakeAirTemperaturev
  23      00
  24 000f D99B501E 		fstps	7760(%ebx)
  24      0000
  25 0015 E8000000 		call	__Z21getCoolantTemperaturev
  25      00
  26 001a 8B4324   		movl	36(%ebx), %eax
  27 001d 8B80E401 		movl	484(%eax), %eax
  27      0000
  28 0023 D99B541E 		fstps	7764(%ebx)
  28      0000
  29 0029 83F810   		cmpl	$16, %eax
  30 002c 7459     		je	L2
  31 002e 89442404 		movl	%eax, 4(%esp)
  32 0032 C7042400 		movl	$LC1, (%esp)
  32      000000
  33 0039 E8000000 		call	__Z11getAdcValuePKci
  33      00
  34 003e 8944242C 		movl	%eax, 44(%esp)
  35 0042 8B4324   		movl	36(%ebx), %eax
  36 0045 DB44242C 		fildl	44(%esp)
  37 0049 D80DE000 		fmuls	LC2
  37      0000
  38 004f D888D001 		fmuls	464(%eax)
  38      0000
  39 0055 C744240C 		movl	$0x42c80000, 12(%esp)
  39      0000C842 
  40 005d D95C2410 		fstps	16(%esp)
  41 0061 D9868003 		flds	896(%esi)
  41      0000
  42 0067 D95C2408 		fstps	8(%esp)
  43 006b C7442404 		movl	$0x00000000, 4(%esp)
  43      00000000 
  44 0073 D9867C03 		flds	892(%esi)
GAS LISTING /cygdrive/c/Users/pc/AppData/Local/Temp/cckMX1Kq.s 			page 2


  44      0000
  45 0079 D91C24   		fstps	(%esp)
  46 007c E8000000 		call	__Z11interpolatefffff
  46      00
  47 0081 D99B581E 		fstps	7768(%ebx)
  47      0000
  48              	L2:
  49 0087 E8000000 		call	__Z8hasVBattv
  49      00
  50 008c 84C0     		testb	%al, %al
  51 008e D905DC00 		flds	LC0
  51      0000
  52 0094 7407     		je	L3
  53 0096 DDD8     		fstp	%st(0)
  54 0098 E8000000 		call	__Z8getVBattv
  54      00
  55              	L3:
  56 009d D91C24   		fstps	(%esp)
  57 00a0 E8000000 		call	__Z14getInjectorLagf
  57      00
  58 00a5 D99BF01E 		fstps	7920(%ebx)
  58      0000
  59 00ab 83C434   		addl	$52, %esp
  60              		.cfi_def_cfa_offset 12
  61 00ae 5B       		popl	%ebx
  62              		.cfi_restore 3
  63              		.cfi_def_cfa_offset 8
  64 00af 5E       		popl	%esi
  65              		.cfi_restore 6
  66              		.cfi_def_cfa_offset 4
  67 00b0 C3       		ret
  68              		.cfi_endproc
  69              	LFE85:
  70 00b1 90909090 		.section	.text$_ZN6Engine14onTriggerEventEx,"x"
  70      90909090 
  70      90909090 
  70      909090
  71              		.align 2
  72              		.p2align 4,,15
  73              		.globl	__ZN6Engine14onTriggerEventEx
  74              		.def	__ZN6Engine14onTriggerEventEx;	.scl	2;	.type	32;	.endef
  75              	__ZN6Engine14onTriggerEventEx:
  76              	LFB86:
  77              		.cfi_startproc
  78 0000 8B442404 		movl	4(%esp), %eax
  79 0004 8B542408 		movl	8(%esp), %edx
  80 0008 C6811024 		movb	$1, 9232(%ecx)
  80      000001
  81 000f 8981E81E 		movl	%eax, 7912(%ecx)
  81      0000
  82 0015 8991EC1E 		movl	%edx, 7916(%ecx)
  82      0000
  83 001b C20800   		ret	$8
  84              		.cfi_endproc
  85              	LFE86:
  86 001e 9090     		.section	.text$_ZN6Engine24addConfigurationListenerEPFvPS_E,"x"
  87              		.align 2
GAS LISTING /cygdrive/c/Users/pc/AppData/Local/Temp/cckMX1Kq.s 			page 3


  88              		.p2align 4,,15
  89              		.globl	__ZN6Engine24addConfigurationListenerEPFvPS_E
  90              		.def	__ZN6Engine24addConfigurationListenerEPFvPS_E;	.scl	2;	.type	32;	.endef
  91              	__ZN6Engine24addConfigurationListenerEPFvPS_E:
  92              	LFB88:
  93              		.cfi_startproc
  94 0000 83EC1C   		subl	$28, %esp
  95              		.cfi_def_cfa_offset 32
  96 0003 89C8     		movl	%ecx, %eax
  97 0005 89442404 		movl	%eax, 4(%esp)
  98 0009 8D894423 		leal	9028(%ecx), %ecx
  98      0000
  99 000f C7042400 		movl	$__ZL24invokeEnginePreCalculateP6Engine, (%esp)
  99      000000
 100 0016 E8000000 		call	__ZN16IntListenerArray16registerCallbackEPFviEPv
 100      00
 101              		.cfi_def_cfa_offset 24
 102 001b 83EC08   		subl	$8, %esp
 103              		.cfi_def_cfa_offset 32
 104 001e 83C41C   		addl	$28, %esp
 105              		.cfi_def_cfa_offset 4
 106 0021 C20400   		ret	$4
 107              		.cfi_endproc
 108              	LFE88:
 109 0024 90909090 		.section	.text$_ZN11EngineStateC2Ev,"x"
 109      90909090 
 109      90909090 
 110              		.align 2
 111              		.p2align 4,,15
 112              		.globl	__ZN11EngineStateC2Ev
 113              		.def	__ZN11EngineStateC2Ev;	.scl	2;	.type	32;	.endef
 114              	__ZN11EngineStateC2Ev:
 115              	LFB96:
 116              		.cfi_startproc
 117 0000 53       		pushl	%ebx
 118              		.cfi_def_cfa_offset 8
 119              		.cfi_offset 3, -8
 120 0001 89CB     		movl	%ecx, %ebx
 121 0003 83EC08   		subl	$8, %esp
 122              		.cfi_def_cfa_offset 16
 123 0006 8D490C   		leal	12(%ecx), %ecx
 124 0009 E8000000 		call	__ZN14ThermistorMathC1Ev
 124      00
 125 000e 8D4B34   		leal	52(%ebx), %ecx
 126 0011 E8000000 		call	__ZN14ThermistorMathC1Ev
 126      00
 127 0016 D9EE     		fldz
 128 0018 D9536C   		fsts	108(%ebx)
 129 001b D95B70   		fstps	112(%ebx)
 130 001e 83C408   		addl	$8, %esp
 131              		.cfi_def_cfa_offset 8
 132 0021 5B       		popl	%ebx
 133              		.cfi_restore 3
 134              		.cfi_def_cfa_offset 4
 135 0022 C3       		ret
 136              		.cfi_endproc
 137              	LFE96:
GAS LISTING /cygdrive/c/Users/pc/AppData/Local/Temp/cckMX1Kq.s 			page 4


 138              		.globl	__ZN11EngineStateC1Ev
 139              		.def	__ZN11EngineStateC1Ev;	.scl	2;	.type	32;	.endef
 140              		.set	__ZN11EngineStateC1Ev,__ZN11EngineStateC2Ev
 141 0023 90909090 		.section	.text$_ZN6EngineC2EP19persistent_config_s,"x"
 141      90909090 
 141      90909090 
 141      90
 142              		.align 2
 143              		.p2align 4,,15
 144              		.globl	__ZN6EngineC2EP19persistent_config_s
 145              		.def	__ZN6EngineC2EP19persistent_config_s;	.scl	2;	.type	32;	.endef
 146              	__ZN6EngineC2EP19persistent_config_s:
 147              	LFB93:
 148              		.cfi_startproc
 149 0000 57       		pushl	%edi
 150              		.cfi_def_cfa_offset 8
 151              		.cfi_offset 7, -8
 152 0001 56       		pushl	%esi
 153              		.cfi_def_cfa_offset 12
 154              		.cfi_offset 6, -12
 155 0002 53       		pushl	%ebx
 156              		.cfi_def_cfa_offset 16
 157              		.cfi_offset 3, -16
 158 0003 89CB     		movl	%ecx, %ebx
 159 0005 83EC10   		subl	$16, %esp
 160              		.cfi_def_cfa_offset 32
 161 0008 8B742420 		movl	32(%esp), %esi
 162 000c 8DBB201E 		leal	7712(%ebx), %edi
 162      0000
 163 0012 E8000000 		call	__ZN13RpmCalculatorC1Ev
 163      00
 164 0017 8D4B38   		leal	56(%ebx), %ecx
 165 001a E8000000 		call	__ZN16AccelEnrichmemntC1Ev
 165      00
 166 001f 8D8B4C01 		leal	332(%ebx), %ecx
 166      0000
 167 0025 E8000000 		call	__ZN16AccelEnrichmemntC1Ev
 167      00
 168 002a 8D8B8402 		leal	644(%ebx), %ecx
 168      0000
 169 0030 E8000000 		call	__ZN12TriggerShapeC1Ev
 169      00
 170 0035 8D8B501E 		leal	7760(%ebx), %ecx
 170      0000
 171 003b E8000000 		call	__ZN11EngineStateC1Ev
 171      00
 172 0040 8D8B4423 		leal	9028(%ebx), %ecx
 172      0000
 173 0046 C783401F 		movl	$0, 8000(%ebx)
 173      00000000 
 173      0000
 174 0050 E8000000 		call	__ZN16IntListenerArrayC1Ev
 174      00
 175 0055 F7C70100 		testl	$1, %edi
 175      0000
 176 005b BA300000 		movl	$48, %edx
 176      00
GAS LISTING /cygdrive/c/Users/pc/AppData/Local/Temp/cckMX1Kq.s 			page 5


 177 0060 C783E81E 		movl	$0, 7912(%ebx)
 177      00000000 
 177      0000
 178 006a C783EC1E 		movl	$0, 7916(%ebx)
 178      00000000 
 178      0000
 179 0074 C683F81E 		movb	$0, 7928(%ebx)
 179      000000
 180 007b C783FC1E 		movl	$0, 7932(%ebx)
 180      00000000 
 180      0000
 181 0085 C7433000 		movl	$0, 48(%ebx)
 181      000000
 182 008c C7433400 		movl	$0, 52(%ebx)
 182      000000
 183 0093 C6836602 		movb	$0, 614(%ebx)
 183      000000
 184 009a C6838002 		movb	$0, 640(%ebx)
 184      000000
 185 00a1 C6831024 		movb	$0, 9232(%ebx)
 185      000000
 186 00a8 C783F41E 		movl	$0x7fc00000, 7924(%ebx)
 186      00000000 
 186      C07F
 187 00b2 897320   		movl	%esi, 32(%ebx)
 188 00b5 897324   		movl	%esi, 36(%ebx)
 189 00b8 C7432800 		movl	$0, 40(%ebx)
 189      000000
 190 00bf C783541E 		movl	$0x7fc00000, 7764(%ebx)
 190      00000000 
 190      C07F
 191 00c9 C783501E 		movl	$0x7fc00000, 7760(%ebx)
 191      00000000 
 191      C07F
 192 00d3 0F85E700 		jne	L50
 192      0000
 193 00d9 F7C70200 		testl	$2, %edi
 193      0000
 194 00df 0F85FB00 		jne	L51
 194      0000
 195              	L18:
 196 00e5 89D1     		movl	%edx, %ecx
 197 00e7 31C0     		xorl	%eax, %eax
 198 00e9 C1E902   		shrl	$2, %ecx
 199 00ec F6C202   		testb	$2, %dl
 200 00ef F3AB     		rep stosl
 201 00f1 7408     		je	L19
 202 00f3 66C70700 		movw	$0, (%edi)
 202      00
 203 00f8 83C702   		addl	$2, %edi
 204              	L19:
 205 00fb 83E201   		andl	$1, %edx
 206 00fe 7403     		je	L20
 207 0100 C60700   		movb	$0, (%edi)
 208              	L20:
 209 0103 C7442408 		movl	$15288, 8(%esp)
 209      B83B0000 
GAS LISTING /cygdrive/c/Users/pc/AppData/Local/Temp/cckMX1Kq.s 			page 6


 210 010b 8DBBC023 		leal	9152(%ebx), %edi
 210      0000
 211 0111 C7442404 		movl	$0, 4(%esp)
 211      00000000 
 212 0119 893424   		movl	%esi, (%esp)
 213 011c E8000000 		call	_memset
 213      00
 214 0121 F7C70100 		testl	$1, %edi
 214      0000
 215 0127 BA500000 		movl	$80, %edx
 215      00
 216 012c C6836702 		movb	$0, 615(%ebx)
 216      000000
 217 0133 C6836802 		movb	$0, 616(%ebx)
 217      000000
 218 013a C7836C02 		movl	$0, 620(%ebx)
 218      00000000 
 218      0000
 219 0144 C6837002 		movb	$0, 624(%ebx)
 219      000000
 220 014b C7837802 		movl	$0, 632(%ebx)
 220      00000000 
 220      0000
 221 0155 C7837C02 		movl	$0, 636(%ebx)
 221      00000000 
 221      0000
 222 015f C7836002 		movl	$0x00000000, 608(%ebx)
 222      00000000 
 222      0000
 223 0169 C783F01E 		movl	$0x00000000, 7920(%ebx)
 223      00000000 
 223      0000
 224 0173 C6836402 		movb	$0, 612(%ebx)
 224      000000
 225 017a C6836502 		movb	$0, 613(%ebx)
 225      000000
 226 0181 756D     		jne	L52
 227 0183 F7C70200 		testl	$2, %edi
 227      0000
 228 0189 757C     		jne	L53
 229              	L22:
 230 018b 89D1     		movl	%edx, %ecx
 231 018d 31C0     		xorl	%eax, %eax
 232 018f C1E902   		shrl	$2, %ecx
 233 0192 F6C202   		testb	$2, %dl
 234 0195 F3AB     		rep stosl
 235 0197 7408     		je	L23
 236 0199 66C70700 		movw	$0, (%edi)
 236      00
 237 019e 83C702   		addl	$2, %edi
 238              	L23:
 239 01a1 83E201   		andl	$1, %edx
 240 01a4 7403     		je	L24
 241 01a6 C60700   		movb	$0, (%edi)
 242              	L24:
 243 01a9 C7442420 		movl	$__ZL24invokeEnginePreCalculateP6Engine, 32(%esp)
 243      00000000 
GAS LISTING /cygdrive/c/Users/pc/AppData/Local/Temp/cckMX1Kq.s 			page 7


 244 01b1 83C410   		addl	$16, %esp
 245              		.cfi_remember_state
 246              		.cfi_def_cfa_offset 16
 247 01b4 89D9     		movl	%ebx, %ecx
 248 01b6 5B       		popl	%ebx
 249              		.cfi_restore 3
 250              		.cfi_def_cfa_offset 12
 251 01b7 5E       		popl	%esi
 252              		.cfi_restore 6
 253              		.cfi_def_cfa_offset 8
 254 01b8 5F       		popl	%edi
 255              		.cfi_restore 7
 256              		.cfi_def_cfa_offset 4
 257 01b9 E9000000 		jmp	__ZN6Engine24addConfigurationListenerEPFvPS_E
 257      00
 258              		.cfi_def_cfa_offset 0
 259 01be 6690     		.p2align 4,,7
 260              	L50:
 261              		.cfi_restore_state
 262 01c0 8DBB211E 		leal	7713(%ebx), %edi
 262      0000
 263 01c6 B22F     		movb	$47, %dl
 264 01c8 F7C70200 		testl	$2, %edi
 264      0000
 265 01ce C683201E 		movb	$0, 7712(%ebx)
 265      000000
 266 01d5 0F840AFF 		je	L18
 266      FFFF
 267 01db 908D7426 		.p2align 4,,7
 267      00
 268              	L51:
 269 01e0 66C70700 		movw	$0, (%edi)
 269      00
 270 01e5 83EA02   		subl	$2, %edx
 271 01e8 83C702   		addl	$2, %edi
 272 01eb E9F5FEFF 		jmp	L18
 272      FF
 273              		.p2align 4,,7
 274              	L52:
 275 01f0 8DBBC123 		leal	9153(%ebx), %edi
 275      0000
 276 01f6 B24F     		movb	$79, %dl
 277 01f8 F7C70200 		testl	$2, %edi
 277      0000
 278 01fe C683C023 		movb	$0, 9152(%ebx)
 278      000000
 279 0205 7484     		je	L22
 280              		.p2align 4,,7
 281              	L53:
 282 0207 66C70700 		movw	$0, (%edi)
 282      00
 283 020c 83EA02   		subl	$2, %edx
 284 020f 83C702   		addl	$2, %edi
 285 0212 E974FFFF 		jmp	L22
 285      FF
 286              		.cfi_endproc
 287              	LFE93:
GAS LISTING /cygdrive/c/Users/pc/AppData/Local/Temp/cckMX1Kq.s 			page 8


 288              		.globl	__ZN6EngineC1EP19persistent_config_s
 289              		.def	__ZN6EngineC1EP19persistent_config_s;	.scl	2;	.type	32;	.endef
 290              		.set	__ZN6EngineC1EP19persistent_config_s,__ZN6EngineC2EP19persistent_config_s
 291 0217 90909090 		.section .rdata,"dr"
 291      90909090 
 291      90
 292 0005 000000   		.align 4
 293              	LC6:
 294 0008 70726543 		.ascii "preCalc: Same x1 and x2 in interpolate: %f/%f\0"
 294      616C633A 
 294      2053616D 
 294      65207831 
 294      20616E64 
 295              		.section	.text$_ZN6Engine12preCalculateEv,"x"
 296              		.align 2
 297              		.p2align 4,,15
 298              		.globl	__ZN6Engine12preCalculateEv
 299              		.def	__ZN6Engine12preCalculateEv;	.scl	2;	.type	32;	.endef
 300              	__ZN6Engine12preCalculateEv:
 301              	LFB98:
 302              		.cfi_startproc
 303 0000 56       		pushl	%esi
 304              		.cfi_def_cfa_offset 8
 305              		.cfi_offset 6, -8
 306 0001 89CE     		movl	%ecx, %esi
 307 0003 53       		pushl	%ebx
 308              		.cfi_def_cfa_offset 12
 309              		.cfi_offset 3, -12
 310 0004 31DB     		xorl	%ebx, %ebx
 311 0006 83EC34   		subl	$52, %esp
 312              		.cfi_def_cfa_offset 64
 313 0009 8B4924   		movl	36(%ecx), %ecx
 314 000c 8D96001F 		leal	7936(%esi), %edx
 314      0000
 315 0012 8D815001 		leal	336(%ecx), %eax
 315      0000
 316 0018 81C17001 		addl	$368, %ecx
 316      0000
 317 001e 8986401F 		movl	%eax, 8000(%esi)
 317      0000
 318              		.p2align 4,,7
 319              	L58:
 320 0024 D900     		flds	(%eax)
 321 0026 D94004   		flds	4(%eax)
 322 0029 D9C9     		fxch	%st(1)
 323 002b DBE9     		fucomi	%st(1), %st
 324 002d 7B7D     		jnp	L64
 325              	L55:
 326 002f D901     		flds	(%ecx)
 327 0031 83C301   		addl	$1, %ebx
 328 0034 83C004   		addl	$4, %eax
 329 0037 D94104   		flds	4(%ecx)
 330 003a 83C104   		addl	$4, %ecx
 331 003d D8E9     		fsubr	%st(1), %st
 332 003f D9CB     		fxch	%st(3)
 333 0041 D8EA     		fsubr	%st(2), %st
 334 0043 DEFB     		fdivrp	%st, %st(3)
GAS LISTING /cygdrive/c/Users/pc/AppData/Local/Temp/cckMX1Kq.s 			page 9


 335 0045 D9CA     		fxch	%st(2)
 336 0047 D912     		fsts	(%edx)
 337 0049 DEC9     		fmulp	%st, %st(1)
 338 004b DEE9     		fsubrp	%st, %st(1)
 339 004d D95A20   		fstps	32(%edx)
 340 0050 83C204   		addl	$4, %edx
 341 0053 83FB07   		cmpl	$7, %ebx
 342 0056 75CC     		jne	L58
 343              	L59:
 344 0058 31DB     		xorl	%ebx, %ebx
 345 005a 8DB60000 		.p2align 4,,7
 345      0000
 346              	L57:
 347 0060 895C2428 		movl	%ebx, 40(%esp)
 348 0064 8B4620   		movl	32(%esi), %eax
 349 0067 DB442428 		fildl	40(%esp)
 350 006b DC35E800 		fdivl	LC7
 350      0000
 351 0071 C744240C 		movl	$256, 12(%esp)
 351      00010000 
 352 0079 8D90B818 		leal	6328(%eax), %edx
 352      0000
 353 007f 05B81C00 		addl	$7352, %eax
 353      00
 354 0084 89542408 		movl	%edx, 8(%esp)
 355 0088 89442404 		movl	%eax, 4(%esp)
 356 008c D91C24   		fstps	(%esp)
 357 008f E8000000 		call	__Z13interpolate2dfPfS_i
 357      00
 358 0094 D99C9E44 		fstps	8004(%esi,%ebx,4)
 358      1F0000
 359 009b 83C301   		addl	$1, %ebx
 360 009e 81FB0001 		cmpl	$256, %ebx
 360      0000
 361 00a4 75BA     		jne	L57
 362 00a6 83C434   		addl	$52, %esp
 363              		.cfi_remember_state
 364              		.cfi_def_cfa_offset 12
 365 00a9 5B       		popl	%ebx
 366              		.cfi_restore 3
 367              		.cfi_def_cfa_offset 8
 368 00aa 5E       		popl	%esi
 369              		.cfi_restore 6
 370              		.cfi_def_cfa_offset 4
 371 00ab C3       		ret
 372              	L64:
 373              		.cfi_restore_state
 374 00ac 7581     		jne	L55
 375 00ae D9C9     		fxch	%st(1)
 376 00b0 DD5C2410 		fstpl	16(%esp)
 377 00b4 C7442404 		movl	$LC6, 4(%esp)
 377      08000000 
 378 00bc DD5C2408 		fstpl	8(%esp)
 379 00c0 C704245E 		movl	$606, (%esp)
 379      020000
 380 00c7 E8000000 		call	_warning
 380      00
GAS LISTING /cygdrive/c/Users/pc/AppData/Local/Temp/cckMX1Kq.s 			page 10


 381 00cc EB8A     		jmp	L59
 382              		.cfi_endproc
 383              	LFE98:
 384 00ce 9090     		.section	.text$_ZL24invokeEnginePreCalculateP6Engine,"x"
 385              		.p2align 4,,15
 386              		.def	__ZL24invokeEnginePreCalculateP6Engine;	.scl	3;	.type	32;	.endef
 387              	__ZL24invokeEnginePreCalculateP6Engine:
 388              	LFB87:
 389              		.cfi_startproc
 390 0000 8B4C2404 		movl	4(%esp), %ecx
 391 0004 E9000000 		jmp	__ZN6Engine12preCalculateEv
 391      00
 392              		.cfi_endproc
 393              	LFE87:
 394 0009 90909090 		.section	.text$_ZN6Engine4initEv,"x"
 394      909090
 395              		.align 2
 396              		.p2align 4,,15
 397              		.globl	__ZN6Engine4initEv
 398              		.def	__ZN6Engine4initEv;	.scl	2;	.type	32;	.endef
 399              	__ZN6Engine4initEv:
 400              	LFB99:
 401              		.cfi_startproc
 402 0000 F3       		rep
 403 0001 C3       		ret
 404              		.cfi_endproc
 405              	LFE99:
 406 0002 90909090 		.section	.text$_ZN6Engine8stopPinsEv,"x"
 406      90909090 
 406      90909090 
 406      9090
 407              		.align 2
 408              		.p2align 4,,15
 409              		.globl	__ZN6Engine8stopPinsEv
 410              		.def	__ZN6Engine8stopPinsEv;	.scl	2;	.type	32;	.endef
 411              	__ZN6Engine8stopPinsEv:
 412              	LFB101:
 413              		.cfi_startproc
 414 0000 31C0     		xorl	%eax, %eax
 415 0002 C3       		ret
 416              		.cfi_endproc
 417              	LFE101:
 418 0003 90909090 		.section .rdata,"dr"
 418      90909090 
 418      90909090 
 418      90
 419              	LC8:
 420 0036 6B6E6F63 		.ascii "knock now=%s/ever=%s\0"
 420      6B206E6F 
 420      773D2573 
 420      2F657665 
 420      723D2573 
 421              		.section	.text$_ZN6Engine15printKnockStateEv,"x"
 422              		.align 2
 423              		.p2align 4,,15
 424              		.globl	__ZN6Engine15printKnockStateEv
 425              		.def	__ZN6Engine15printKnockStateEv;	.scl	2;	.type	32;	.endef
GAS LISTING /cygdrive/c/Users/pc/AppData/Local/Temp/cckMX1Kq.s 			page 11


 426              	__ZN6Engine15printKnockStateEv:
 427              	LFB102:
 428              		.cfi_startproc
 429 0000 83EC1C   		subl	$28, %esp
 430              		.cfi_def_cfa_offset 32
 431 0003 0FB68168 		movzbl	616(%ecx), %eax
 431      020000
 432 000a 895C2414 		movl	%ebx, 20(%esp)
 433              		.cfi_offset 3, -12
 434 000e 89CB     		movl	%ecx, %ebx
 435 0010 89742418 		movl	%esi, 24(%esp)
 436              		.cfi_offset 6, -8
 437 0014 890424   		movl	%eax, (%esp)
 438 0017 E8000000 		call	__Z12boolToStringb
 438      00
 439 001c 89C6     		movl	%eax, %esi
 440 001e 0FB68367 		movzbl	615(%ebx), %eax
 440      020000
 441 0025 890424   		movl	%eax, (%esp)
 442 0028 E8000000 		call	__Z12boolToStringb
 442      00
 443 002d 8974240C 		movl	%esi, 12(%esp)
 444 0031 C7442404 		movl	$LC8, 4(%esp)
 444      36000000 
 445 0039 C7042400 		movl	$__ZL6logger, (%esp)
 445      000000
 446 0040 89442408 		movl	%eax, 8(%esp)
 447 0044 E8000000 		call	__Z11scheduleMsgP7LoggingPKcz
 447      00
 448 0049 8B5C2414 		movl	20(%esp), %ebx
 449 004d 8B742418 		movl	24(%esp), %esi
 450 0051 83C41C   		addl	$28, %esp
 451              		.cfi_restore 6
 452              		.cfi_restore 3
 453              		.cfi_def_cfa_offset 4
 454 0054 C3       		ret
 455              		.cfi_endproc
 456              	LFE102:
 457 0055 90909090 		.section	.text$_ZN6Engine10knockLogicEf,"x"
 457      90909090 
 457      909090
 458              		.align 2
 459              		.p2align 4,,15
 460              		.globl	__ZN6Engine10knockLogicEf
 461              		.def	__ZN6Engine10knockLogicEf;	.scl	2;	.type	32;	.endef
 462              	__ZN6Engine10knockLogicEf:
 463              	LFB103:
 464              		.cfi_startproc
 465 0000 83EC1C   		subl	$28, %esp
 466              		.cfi_def_cfa_offset 32
 467 0003 8B4124   		movl	36(%ecx), %eax
 468 0006 D9801006 		flds	1552(%eax)
 468      0000
 469 000c D9442420 		flds	32(%esp)
 470 0010 DFE9     		fucomip	%st(1), %st
 471 0012 DDD8     		fstp	%st(0)
 472 0014 0F97C0   		seta	%al
GAS LISTING /cygdrive/c/Users/pc/AppData/Local/Temp/cckMX1Kq.s 			page 12


 473 0017 84C0     		testb	%al, %al
 474 0019 88816702 		movb	%al, 615(%ecx)
 474      0000
 475 001f 752F     		jne	L77
 476 0021 8B816C02 		movl	620(%ecx), %eax
 476      0000
 477 0027 85C0     		testl	%eax, %eax
 478 0029 7E15     		jle	L74
 479 002b 83E801   		subl	$1, %eax
 480 002e 89816C02 		movl	%eax, 620(%ecx)
 480      0000
 481              	L70:
 482 0034 83C41C   		addl	$28, %esp
 483              		.cfi_remember_state
 484              		.cfi_def_cfa_offset 4
 485 0037 C20400   		ret	$4
 486 003a 8DB60000 		.p2align 4,,7
 486      0000
 487              	L74:
 488              		.cfi_restore_state
 489 0040 C7816C02 		movl	$0, 620(%ecx)
 489      00000000 
 489      0000
 490 004a 83C41C   		addl	$28, %esp
 491              		.cfi_remember_state
 492              		.cfi_def_cfa_offset 4
 493 004d C20400   		ret	$4
 494              		.p2align 4,,7
 495              	L77:
 496              		.cfi_restore_state
 497 0050 C6816802 		movb	$1, 616(%ecx)
 497      000001
 498 0057 894C2408 		movl	%ecx, 8(%esp)
 499 005b E8000000 		call	_getTimeNowUs
 499      00
 500 0060 8B4C2408 		movl	8(%esp), %ecx
 501 0064 89817802 		movl	%eax, 632(%ecx)
 501      0000
 502 006a 8B816C02 		movl	620(%ecx), %eax
 502      0000
 503 0070 89917C02 		movl	%edx, 636(%ecx)
 503      0000
 504 0076 8944240C 		movl	%eax, 12(%esp)
 505 007a 8B5124   		movl	36(%ecx), %edx
 506 007d DB44240C 		fildl	12(%esp)
 507 0081 D9824002 		flds	576(%edx)
 507      0000
 508 0087 DFE9     		fucomip	%st(1), %st
 509 0089 DDD8     		fstp	%st(0)
 510 008b 76A7     		jbe	L70
 511 008d 83C001   		addl	$1, %eax
 512 0090 89816C02 		movl	%eax, 620(%ecx)
 512      0000
 513 0096 83C41C   		addl	$28, %esp
 514              		.cfi_def_cfa_offset 4
 515 0099 C20400   		ret	$4
 516              		.cfi_endproc
GAS LISTING /cygdrive/c/Users/pc/AppData/Local/Temp/cckMX1Kq.s 			page 13


 517              	LFE103:
 518 009c 90909090 		.section .rdata,"dr"
 519              	LC9:
 520 004b 656E6769 		.ascii "engine has STOPPED\0"
 520      6E652068 
 520      61732053 
 520      544F5050 
 520      454400
 521 005e 0000     		.align 4
 522              	LC10:
 523 0060 74656D70 		.ascii "templog engine has STOPPED [%x][%x] [%x][%x] %d\0"
 523      6C6F6720 
 523      656E6769 
 523      6E652068 
 523      61732053 
 524              		.section	.text$_ZN6Engine8watchdogEv,"x"
 525              		.align 2
 526              		.p2align 4,,15
 527              		.globl	__ZN6Engine8watchdogEv
 528              		.def	__ZN6Engine8watchdogEv;	.scl	2;	.type	32;	.endef
 529              	__ZN6Engine8watchdogEv:
 530              	LFB104:
 531              		.cfi_startproc
 532 0000 80B96602 		cmpb	$0, 614(%ecx)
 532      000000
 533 0007 7509     		jne	L85
 534 0009 80B91024 		cmpb	$0, 9232(%ecx)
 534      000000
 535 0010 7501     		jne	L86
 536              	L85:
 537 0012 C3       		ret
 538              		.p2align 4,,7
 539              	L86:
 540 0013 83EC3C   		subl	$60, %esp
 541              		.cfi_def_cfa_offset 64
 542 0016 89742434 		movl	%esi, 52(%esp)
 543 001a 897C2438 		movl	%edi, 56(%esp)
 544              		.cfi_offset 6, -12
 545              		.cfi_offset 7, -8
 546 001e 894C2424 		movl	%ecx, 36(%esp)
 547 0022 E8000000 		call	_getTimeNowNt
 547      00
 548 0027 8B4C2424 		movl	36(%esp), %ecx
 549 002b 89C6     		movl	%eax, %esi
 550 002d 89D7     		movl	%edx, %edi
 551 002f 2BB1E81E 		subl	7912(%ecx), %esi
 551      0000
 552 0035 1BB9EC1E 		sbbl	7916(%ecx), %edi
 552      0000
 553 003b 83FF00   		cmpl	$0, %edi
 554 003e 0F8C8800 		jl	L78
 554      0000
 555 0044 7E7A     		jle	L87
 556              	L82:
 557 0046 C6811024 		movb	$0, 9232(%ecx)
 557      000000
 558 004d C7442404 		movl	$LC9, 4(%esp)
GAS LISTING /cygdrive/c/Users/pc/AppData/Local/Temp/cckMX1Kq.s 			page 14


 558      4B000000 
 559 0055 C7042400 		movl	$__ZL6logger, (%esp)
 559      000000
 560 005c 8944242C 		movl	%eax, 44(%esp)
 561 0060 89542428 		movl	%edx, 40(%esp)
 562 0064 894C2424 		movl	%ecx, 36(%esp)
 563 0068 E8000000 		call	__Z11scheduleMsgP7LoggingPKcz
 563      00
 564 006d 8B4C2424 		movl	36(%esp), %ecx
 565 0071 8B44242C 		movl	44(%esp), %eax
 566 0075 8B542428 		movl	40(%esp), %edx
 567 0079 8BB9E81E 		movl	7912(%ecx), %edi
 567      0000
 568 007f 8B89EC1E 		movl	7916(%ecx), %ecx
 568      0000
 569 0085 89742418 		movl	%esi, 24(%esp)
 570 0089 8944240C 		movl	%eax, 12(%esp)
 571 008d 897C2414 		movl	%edi, 20(%esp)
 572 0091 894C2410 		movl	%ecx, 16(%esp)
 573 0095 89542408 		movl	%edx, 8(%esp)
 574 0099 C7442404 		movl	$LC10, 4(%esp)
 574      60000000 
 575 00a1 C7042400 		movl	$__ZL6logger, (%esp)
 575      000000
 576 00a8 E8000000 		call	__Z11scheduleMsgP7LoggingPKcz
 576      00
 577 00ad 8B742434 		movl	52(%esp), %esi
 578 00b1 8B7C2438 		movl	56(%esp), %edi
 579 00b5 83C43C   		addl	$60, %esp
 580              		.cfi_remember_state
 581              		.cfi_restore 7
 582              		.cfi_restore 6
 583              		.cfi_def_cfa_offset 4
 584 00b8 E9000000 		jmp	__Z11triggerInfov
 584      00
 585 00bd 8D7600   		.p2align 4,,7
 586              	L87:
 587              		.cfi_restore_state
 588 00c0 81FE3F78 		cmpl	$24999999, %esi
 588      7D01
 589 00c6 0F877AFF 		ja	L82
 589      FFFF
 590              	L78:
 591 00cc 8B742434 		movl	52(%esp), %esi
 592 00d0 8B7C2438 		movl	56(%esp), %edi
 593 00d4 83C43C   		addl	$60, %esp
 594              		.cfi_restore 7
 595              		.cfi_restore 6
 596              		.cfi_def_cfa_offset 4
 597 00d7 C3       		ret
 598              		.cfi_endproc
 599              	LFE104:
 600              		.section	.text$_ZN18StartupFuelPumpingC2Ev,"x"
 601              		.align 2
 602              		.p2align 4,,15
 603              		.globl	__ZN18StartupFuelPumpingC2Ev
 604              		.def	__ZN18StartupFuelPumpingC2Ev;	.scl	2;	.type	32;	.endef
GAS LISTING /cygdrive/c/Users/pc/AppData/Local/Temp/cckMX1Kq.s 			page 15


 605              	__ZN18StartupFuelPumpingC2Ev:
 606              	LFB107:
 607              		.cfi_startproc
 608 0000 C60100   		movb	$0, (%ecx)
 609 0003 C7410400 		movl	$0, 4(%ecx)
 609      000000
 610 000a C3       		ret
 611              		.cfi_endproc
 612              	LFE107:
 613              		.globl	__ZN18StartupFuelPumpingC1Ev
 614              		.def	__ZN18StartupFuelPumpingC1Ev;	.scl	2;	.type	32;	.endef
 615              		.set	__ZN18StartupFuelPumpingC1Ev,__ZN18StartupFuelPumpingC2Ev
 616 000b 90909090 		.section .rdata,"dr"
 616      90
 617              	LC11:
 618 0090 6C657427 		.ascii "let's squirt prime pulse %f\0"
 618      73207371 
 618      75697274 
 618      20707269 
 618      6D652070 
 619              	LC12:
 620 00ac 73657450 		.ascii "setPumpsCounter %d\0"
 620      756D7073 
 620      436F756E 
 620      74657220 
 620      256400
 621              		.section	.text$_ZN18StartupFuelPumping15setPumpsCounterEP22engine_configuration_si,"x"
 622              		.align 2
 623              		.p2align 4,,15
 624              		.globl	__ZN18StartupFuelPumping15setPumpsCounterEP22engine_configuration_si
 625              		.def	__ZN18StartupFuelPumping15setPumpsCounterEP22engine_configuration_si;	.scl	2;	.type	32;	.ende
 626              	__ZN18StartupFuelPumping15setPumpsCounterEP22engine_configuration_si:
 627              	LFB109:
 628              		.cfi_startproc
 629 0000 83EC2C   		subl	$44, %esp
 630              		.cfi_def_cfa_offset 48
 631 0003 8B442434 		movl	52(%esp), %eax
 632 0007 394104   		cmpl	%eax, 4(%ecx)
 633 000a 7420     		je	L89
 634 000c 83F806   		cmpl	$6, %eax
 635 000f 894104   		movl	%eax, 4(%ecx)
 636 0012 741E     		je	L93
 637 0014 89442408 		movl	%eax, 8(%esp)
 638 0018 C7442404 		movl	$LC12, 4(%esp)
 638      AC000000 
 639 0020 C7042400 		movl	$__ZL6logger, (%esp)
 639      000000
 640 0027 E8000000 		call	__Z11scheduleMsgP7LoggingPKcz
 640      00
 641              	L89:
 642 002c 83C42C   		addl	$44, %esp
 643              		.cfi_remember_state
 644              		.cfi_def_cfa_offset 4
 645 002f C20800   		ret	$8
 646              		.p2align 4,,7
 647              	L93:
 648              		.cfi_restore_state
GAS LISTING /cygdrive/c/Users/pc/AppData/Local/Temp/cckMX1Kq.s 			page 16


 649 0032 C7442408 		movl	$6, 8(%esp)
 649      06000000 
 650 003a C7442404 		movl	$LC11, 4(%esp)
 650      90000000 
 651 0042 C7042400 		movl	$__ZL6logger, (%esp)
 651      000000
 652 0049 894C241C 		movl	%ecx, 28(%esp)
 653 004d E8000000 		call	__Z11scheduleMsgP7LoggingPKcz
 653      00
 654 0052 8B4C241C 		movl	28(%esp), %ecx
 655 0056 C7410400 		movl	$0, 4(%ecx)
 655      000000
 656 005d 83C42C   		addl	$44, %esp
 657              		.cfi_def_cfa_offset 4
 658 0060 C20800   		ret	$8
 659              		.cfi_endproc
 660              	LFE109:
 661 0063 90909090 		.section	.text$_ZN18StartupFuelPumping6updateEv,"x"
 661      90909090 
 661      90909090 
 661      90
 662              		.align 2
 663              		.p2align 4,,15
 664              		.globl	__ZN18StartupFuelPumping6updateEv
 665              		.def	__ZN18StartupFuelPumping6updateEv;	.scl	2;	.type	32;	.endef
 666              	__ZN18StartupFuelPumping6updateEv:
 667              	LFB110:
 668              		.cfi_startproc
 669 0000 53       		pushl	%ebx
 670              		.cfi_def_cfa_offset 8
 671              		.cfi_offset 3, -8
 672 0001 89CB     		movl	%ecx, %ebx
 673 0003 83EC18   		subl	$24, %esp
 674              		.cfi_def_cfa_offset 32
 675 0006 8B0D0000 		movl	_engine, %ecx
 675      0000
 676 000c E8000000 		call	__ZN13RpmCalculator3rpmEv
 676      00
 677 0011 85C0     		testl	%eax, %eax
 678 0013 753B     		jne	L95
 679 0015 E8000000 		call	__Z6getTPSv
 679      00
 680 001a D905F000 		flds	LC13
 680      0000
 681 0020 D9C9     		fxch	%st(1)
 682 0022 DFE9     		fucomip	%st(1), %st
 683 0024 DDD8     		fstp	%st(0)
 684 0026 0F93C0   		setae	%al
 685 0029 3803     		cmpb	%al, (%ebx)
 686 002b 741C     		je	L94
 687 002d 8B4304   		movl	4(%ebx), %eax
 688 0030 89D9     		movl	%ebx, %ecx
 689 0032 83C001   		addl	$1, %eax
 690 0035 89442404 		movl	%eax, 4(%esp)
 691 0039 A1000000 		movl	_engineConfiguration, %eax
 691      00
 692 003e 890424   		movl	%eax, (%esp)
GAS LISTING /cygdrive/c/Users/pc/AppData/Local/Temp/cckMX1Kq.s 			page 17


 693 0041 E8000000 		call	__ZN18StartupFuelPumping15setPumpsCounterEP22engine_configuration_si
 693      00
 694              		.cfi_def_cfa_offset 24
 695 0046 83EC08   		subl	$8, %esp
 696              		.cfi_def_cfa_offset 32
 697              	L94:
 698 0049 83C418   		addl	$24, %esp
 699              		.cfi_remember_state
 700              		.cfi_def_cfa_offset 8
 701 004c 5B       		popl	%ebx
 702              		.cfi_restore 3
 703              		.cfi_def_cfa_offset 4
 704 004d C3       		ret
 705 004e 6690     		.p2align 4,,7
 706              	L95:
 707              		.cfi_restore_state
 708 0050 A1000000 		movl	_engineConfiguration, %eax
 708      00
 709 0055 89D9     		movl	%ebx, %ecx
 710 0057 C7442404 		movl	$0, 4(%esp)
 710      00000000 
 711 005f 890424   		movl	%eax, (%esp)
 712 0062 E8000000 		call	__ZN18StartupFuelPumping15setPumpsCounterEP22engine_configuration_si
 712      00
 713              		.cfi_def_cfa_offset 24
 714 0067 C60300   		movb	$0, (%ebx)
 715 006a 83EC08   		subl	$8, %esp
 716              		.cfi_def_cfa_offset 32
 717 006d 83C418   		addl	$24, %esp
 718              		.cfi_def_cfa_offset 8
 719 0070 5B       		popl	%ebx
 720              		.cfi_restore 3
 721              		.cfi_def_cfa_offset 4
 722 0071 C3       		ret
 723              		.cfi_endproc
 724              	LFE110:
 725 0072 90909090 		.section .rdata,"dr"
 725      90909090 
 725      90909090 
 725      9090
 726              	LC14:
 727 00bf 6D617020 		.ascii "map not initialized\0"
 727      6E6F7420 
 727      696E6974 
 727      69616C69 
 727      7A656400 
 728              		.section	.text$_ZN5Map3DILi16ELi16EE8getValueEff,"x"
 729              		.linkonce discard
 730              		.align 2
 731              		.p2align 4,,15
 732              		.globl	__ZN5Map3DILi16ELi16EE8getValueEff
 733              		.def	__ZN5Map3DILi16ELi16EE8getValueEff;	.scl	2;	.type	32;	.endef
 734              	__ZN5Map3DILi16ELi16EE8getValueEff:
 735              	LFB118:
 736              		.cfi_startproc
 737 0000 83EC2C   		subl	$44, %esp
 738              		.cfi_def_cfa_offset 48
GAS LISTING /cygdrive/c/Users/pc/AppData/Local/Temp/cckMX1Kq.s 			page 18


 739 0003 81794858 		cmpl	$153351512, 72(%ecx)
 739      F52309
 740 000a 7418     		je	L99
 741 000c C70424BF 		movl	$LC14, (%esp)
 741      000000
 742 0013 E8000000 		call	_firmwareError
 742      00
 743 0018 D905E400 		flds	LC5
 743      0000
 744 001e 83C42C   		addl	$44, %esp
 745              		.cfi_remember_state
 746              		.cfi_def_cfa_offset 4
 747 0021 C20800   		ret	$8
 748              		.p2align 4,,7
 749              	L99:
 750              		.cfi_restore_state
 751 0024 8B4144   		movl	68(%ecx), %eax
 752 0027 D9442434 		flds	52(%esp)
 753 002b D95C240C 		fstps	12(%esp)
 754 002f D9442430 		flds	48(%esp)
 755 0033 89442410 		movl	%eax, 16(%esp)
 756 0037 8B4140   		movl	64(%ecx), %eax
 757 003a D91C24   		fstps	(%esp)
 758 003d 894C2418 		movl	%ecx, 24(%esp)
 759 0041 C7442414 		movl	$16, 20(%esp)
 759      10000000 
 760 0049 C7442408 		movl	$16, 8(%esp)
 760      10000000 
 761 0051 89442404 		movl	%eax, 4(%esp)
 762 0055 E8000000 		call	__Z13interpolate3dfPfifS_iPS_
 762      00
 763 005a 83C42C   		addl	$44, %esp
 764              		.cfi_def_cfa_offset 4
 765 005d C20800   		ret	$8
 766              		.cfi_endproc
 767              	LFE118:
 768              		.section	.text$_ZN6Engine20periodicFastCallbackEv,"x"
 769              		.align 2
 770              		.p2align 4,,15
 771              		.globl	__ZN6Engine20periodicFastCallbackEv
 772              		.def	__ZN6Engine20periodicFastCallbackEv;	.scl	2;	.type	32;	.endef
 773              	__ZN6Engine20periodicFastCallbackEv:
 774              	LFB105:
 775              		.cfi_startproc
 776 0000 57       		pushl	%edi
 777              		.cfi_def_cfa_offset 8
 778              		.cfi_offset 7, -8
 779 0001 56       		pushl	%esi
 780              		.cfi_def_cfa_offset 12
 781              		.cfi_offset 6, -12
 782 0002 89CE     		movl	%ecx, %esi
 783 0004 53       		pushl	%ebx
 784              		.cfi_def_cfa_offset 16
 785              		.cfi_offset 3, -16
 786 0005 83EC40   		subl	$64, %esp
 787              		.cfi_def_cfa_offset 80
 788 0008 8B5904   		movl	4(%ecx), %ebx
GAS LISTING /cygdrive/c/Users/pc/AppData/Local/Temp/cckMX1Kq.s 			page 19


 789 000b E8000000 		call	__Z14getEngineLoadTv
 789      00
 790 0010 891C24   		movl	%ebx, (%esp)
 791 0013 D95C2410 		fstps	16(%esp)
 792 0017 E8000000 		call	__Z16getSparkDwellMsTi
 792      00
 793 001c 8B3D0000 		movl	_engine, %edi
 793      0000
 794 0022 D996B41E 		fsts	7860(%esi)
 794      0000
 795 0028 895C2438 		movl	%ebx, 56(%esp)
 796 002c DB442438 		fildl	56(%esp)
 797 0030 D9542430 		fsts	48(%esp)
 798 0034 D83DF400 		fdivrs	LC15
 798      0000
 799 003a DEF9     		fdivrp	%st, %st(1)
 800 003c D99FBC1E 		fstps	7868(%edi)
 800      0000
 801 0042 D987501E 		flds	7760(%edi)
 801      0000
 802 0048 D91C24   		fstps	(%esp)
 803 004b E8000000 		call	__Z16getIatCorrectionf
 803      00
 804 0050 D99FC41E 		fstps	7876(%edi)
 804      0000
 805 0056 8B3D0000 		movl	_engine, %edi
 805      0000
 806 005c D987541E 		flds	7764(%edi)
 806      0000
 807 0062 D91C24   		fstps	(%esp)
 808 0065 E8000000 		call	__Z16getCltCorrectionf
 808      00
 809 006a D99FC81E 		fstps	7880(%edi)
 809      0000
 810 0070 8B3D0000 		movl	_engine, %edi
 810      0000
 811 0076 E8000000 		call	__Z17getBaroCorrectionv
 811      00
 812 007b D99FD01E 		fstps	7888(%edi)
 812      0000
 813 0081 8B3D0000 		movl	_engine, %edi
 813      0000
 814 0087 891C24   		movl	%ebx, (%esp)
 815 008a E8000000 		call	__Z18getinjectionOffseti
 815      00
 816 008f D99FE41E 		fstps	7908(%edi)
 816      0000
 817 0095 8B3D0000 		movl	_engine, %edi
 817      0000
 818 009b D9442410 		flds	16(%esp)
 819 009f D95C2404 		fstps	4(%esp)
 820 00a3 891C24   		movl	%ebx, (%esp)
 821 00a6 E8000000 		call	__Z10getAdvanceif
 821      00
 822 00ab 8B4624   		movl	36(%esi), %eax
 823 00ae 83B8A801 		cmpl	$3, 424(%eax)
 823      000003
GAS LISTING /cygdrive/c/Users/pc/AppData/Local/Temp/cckMX1Kq.s 			page 20


 824 00b5 D99FB81E 		fstps	7864(%edi)
 824      0000
 825 00bb 742B     		je	L106
 826 00bd E8000000 		call	__Z14getEngineLoadTv
 826      00
 827 00c2 8B3D0000 		movl	_engine, %edi
 827      0000
 828 00c8 895C2404 		movl	%ebx, 4(%esp)
 829 00cc D95C2408 		fstps	8(%esp)
 830 00d0 8B4624   		movl	36(%esi), %eax
 831 00d3 890424   		movl	%eax, (%esp)
 832 00d6 E8000000 		call	__Z16getBaseTableFuelP22engine_configuration_sif
 832      00
 833 00db D99FE01E 		fstps	7904(%edi)
 833      0000
 834 00e1 83C440   		addl	$64, %esp
 835              		.cfi_remember_state
 836              		.cfi_def_cfa_offset 16
 837 00e4 5B       		popl	%ebx
 838              		.cfi_restore 3
 839              		.cfi_def_cfa_offset 12
 840 00e5 5E       		popl	%esi
 841              		.cfi_restore 6
 842              		.cfi_def_cfa_offset 8
 843 00e6 5F       		popl	%edi
 844              		.cfi_restore 7
 845              		.cfi_def_cfa_offset 4
 846 00e7 C3       		ret
 847              		.p2align 4,,7
 848              	L106:
 849              		.cfi_restore_state
 850 00e8 A1000000 		movl	_engine, %eax
 850      00
 851 00ed D980541E 		flds	7764(%eax)
 851      0000
 852 00f3 D980501E 		flds	7760(%eax)
 852      0000
 853 00f9 D9C9     		fxch	%st(1)
 854 00fb D95C2410 		fstps	16(%esp)
 855 00ff D95C2420 		fstps	32(%esp)
 856 0103 E8000000 		call	__Z6getTPSv
 856      00
 857 0108 8B350000 		movl	_engine, %esi
 857      0000
 858 010e 891C24   		movl	%ebx, (%esp)
 859 0111 D9442420 		flds	32(%esp)
 860 0115 D95C240C 		fstps	12(%esp)
 861 0119 D9442410 		flds	16(%esp)
 862 011d D95C2408 		fstps	8(%esp)
 863 0121 D95C2404 		fstps	4(%esp)
 864 0125 E8000000 		call	__Z10getTChargeifff
 864      00
 865 012a D805F800 		fadds	LC16
 865      0000
 866 0130 D99ED41E 		fstps	7892(%esi)
 866      0000
 867 0136 E8000000 		call	__Z6getMapv
GAS LISTING /cygdrive/c/Users/pc/AppData/Local/Temp/cckMX1Kq.s 			page 21


 867      00
 868 013b 8B1D0000 		movl	_engine, %ebx
 868      0000
 869 0141 B9000000 		movl	$_veMap, %ecx
 869      00
 870 0146 D983D01E 		flds	7888(%ebx)
 870      0000
 871 014c D95C2434 		fstps	52(%esp)
 872 0150 D9442430 		flds	48(%esp)
 873 0154 D95C2404 		fstps	4(%esp)
 874 0158 D91424   		fsts	(%esp)
 875 015b D95C2420 		fstps	32(%esp)
 876 015f E8000000 		call	__ZN5Map3DILi16ELi16EE8getValueEff
 876      00
 877              		.cfi_def_cfa_offset 72
 878 0164 B9000000 		movl	$_afrMap, %ecx
 878      00
 879 0169 83EC08   		subl	$8, %esp
 880              		.cfi_def_cfa_offset 80
 881 016c D84C2434 		fmuls	52(%esp)
 882 0170 DD050001 		fldl	LC17
 882      0000
 883 0176 DEC9     		fmulp	%st, %st(1)
 884 0178 D99BD81E 		fstps	7896(%ebx)
 884      0000
 885 017e 8B1D0000 		movl	_engine, %ebx
 885      0000
 886 0184 D9442430 		flds	48(%esp)
 887 0188 D95C2404 		fstps	4(%esp)
 888 018c D9442420 		flds	32(%esp)
 889 0190 D91C24   		fstps	(%esp)
 890 0193 E8000000 		call	__ZN5Map3DILi16ELi16EE8getValueEff
 890      00
 891              		.cfi_def_cfa_offset 72
 892 0198 83EC08   		subl	$8, %esp
 893              		.cfi_def_cfa_offset 80
 894 019b D99BDC1E 		fstps	7900(%ebx)
 894      0000
 895 01a1 83C440   		addl	$64, %esp
 896              		.cfi_def_cfa_offset 16
 897 01a4 5B       		popl	%ebx
 898              		.cfi_restore 3
 899              		.cfi_def_cfa_offset 12
 900 01a5 5E       		popl	%esi
 901              		.cfi_restore 6
 902              		.cfi_def_cfa_offset 8
 903 01a6 5F       		popl	%edi
 904              		.cfi_restore 7
 905              		.cfi_def_cfa_offset 4
 906 01a7 C3       		ret
 907              		.cfi_endproc
 908              	LFE105:
 909 01a8 90909090 		.section .rdata,"dr"
 909      90909090 
 910              	LC18:
 911 00d3 656E6769 		.ascii "engine\0"
 911      6E6500
GAS LISTING /cygdrive/c/Users/pc/AppData/Local/Temp/cckMX1Kq.s 			page 22


 912              		.section	.text.startup._GLOBAL__sub_I__ZN6Engine17updateSlowSensorsEv,"x"
 913              		.p2align 4,,15
 914              		.def	__GLOBAL__sub_I__ZN6Engine17updateSlowSensorsEv;	.scl	3;	.type	32;	.endef
 915              	__GLOBAL__sub_I__ZN6Engine17updateSlowSensorsEv:
 916              	LFB120:
 917              		.cfi_startproc
 918 0000 83EC1C   		subl	$28, %esp
 919              		.cfi_def_cfa_offset 32
 920 0003 B9000000 		movl	$__ZL6logger, %ecx
 920      00
 921 0008 C70424D3 		movl	$LC18, (%esp)
 921      000000
 922 000f E8000000 		call	__ZN18LoggingWithStorageC1EPKc
 922      00
 923              		.cfi_def_cfa_offset 28
 924 0014 83EC04   		subl	$4, %esp
 925              		.cfi_def_cfa_offset 32
 926 0017 83C41C   		addl	$28, %esp
 927              		.cfi_def_cfa_offset 4
 928 001a C3       		ret
 929              		.cfi_endproc
 930              	LFE120:
 931 001b 90909090 		.section	.ctors,"w"
 931      90
 932              		.align 4
 933 0000 00000000 		.long	__GLOBAL__sub_I__ZN6Engine17updateSlowSensorsEv
 934              		.section	.data$_ZL6logger,"w"
 935              		.align 32
 936              	__ZL6logger:
 937 0000 00000000 		.space 260
 937      00000000 
 937      00000000 
 937      00000000 
 937      00000000 
 938 0104 00000000 		.section .rdata,"dr"
 938      00000000 
 938      00000000 
 938      00000000 
 938      00000000 
 939 00da 0000     		.align 4
 940              	LC0:
 941 00dc 00004041 		.long	1094713344
 942              		.align 4
 943              	LC2:
 944 00e0 010C403A 		.long	977275905
 945              		.align 4
 946              	LC5:
 947 00e4 0000C07F 		.long	2143289344
 948              		.align 8
 949              	LC7:
 950 00e8 9A999999 		.long	-1717986918
 951 00ec 99994940 		.long	1078565273
 952              		.align 4
 953              	LC13:
 954 00f0 00004842 		.long	1112014848
 955              		.align 4
 956              	LC15:
GAS LISTING /cygdrive/c/Users/pc/AppData/Local/Temp/cckMX1Kq.s 			page 23


 957 00f4 ABAA2643 		.long	1126607531
 958              		.align 4
 959              	LC16:
 960 00f8 33938843 		.long	1133024051
 961 00fc 00000000 		.align 8
 962              	LC17:
 963 0100 7B14AE47 		.long	1202590843
 964 0104 E17A843F 		.long	1065646817
 965              		.def	__Z23getIntakeAirTemperaturev;	.scl	2;	.type	32;	.endef
 966              		.def	__Z21getCoolantTemperaturev;	.scl	2;	.type	32;	.endef
 967              		.def	__Z11getAdcValuePKci;	.scl	2;	.type	32;	.endef
 968              		.def	__Z11interpolatefffff;	.scl	2;	.type	32;	.endef
 969              		.def	__Z8hasVBattv;	.scl	2;	.type	32;	.endef
 970              		.def	__Z8getVBattv;	.scl	2;	.type	32;	.endef
 971              		.def	__Z14getInjectorLagf;	.scl	2;	.type	32;	.endef
 972              		.def	__ZN16IntListenerArray16registerCallbackEPFviEPv;	.scl	2;	.type	32;	.endef
 973              		.def	__ZN14ThermistorMathC1Ev;	.scl	2;	.type	32;	.endef
 974              		.def	_memset;	.scl	2;	.type	32;	.endef
 975              		.def	__ZN13RpmCalculatorC1Ev;	.scl	2;	.type	32;	.endef
 976              		.def	__ZN16AccelEnrichmemntC1Ev;	.scl	2;	.type	32;	.endef
 977              		.def	__ZN12TriggerShapeC1Ev;	.scl	2;	.type	32;	.endef
 978              		.def	__ZN16IntListenerArrayC1Ev;	.scl	2;	.type	32;	.endef
 979              		.def	__Z13interpolate2dfPfS_i;	.scl	2;	.type	32;	.endef
 980              		.def	_warning;	.scl	2;	.type	32;	.endef
 981              		.def	__Z12boolToStringb;	.scl	2;	.type	32;	.endef
 982              		.def	__Z11scheduleMsgP7LoggingPKcz;	.scl	2;	.type	32;	.endef
 983              		.def	_getTimeNowUs;	.scl	2;	.type	32;	.endef
 984              		.def	_getTimeNowNt;	.scl	2;	.type	32;	.endef
 985              		.def	__Z11triggerInfov;	.scl	2;	.type	32;	.endef
 986              		.def	__ZN13RpmCalculator3rpmEv;	.scl	2;	.type	32;	.endef
 987              		.def	__Z6getTPSv;	.scl	2;	.type	32;	.endef
 988              		.def	_firmwareError;	.scl	2;	.type	32;	.endef
 989              		.def	__Z13interpolate3dfPfifS_iPS_;	.scl	2;	.type	32;	.endef
 990              		.def	__Z14getEngineLoadTv;	.scl	2;	.type	32;	.endef
 991              		.def	__Z16getSparkDwellMsTi;	.scl	2;	.type	32;	.endef
 992              		.def	__Z16getIatCorrectionf;	.scl	2;	.type	32;	.endef
 993              		.def	__Z16getCltCorrectionf;	.scl	2;	.type	32;	.endef
 994              		.def	__Z17getBaroCorrectionv;	.scl	2;	.type	32;	.endef
 995              		.def	__Z18getinjectionOffseti;	.scl	2;	.type	32;	.endef
 996              		.def	__Z10getAdvanceif;	.scl	2;	.type	32;	.endef
 997              		.def	__Z16getBaseTableFuelP22engine_configuration_sif;	.scl	2;	.type	32;	.endef
 998              		.def	__Z10getTChargeifff;	.scl	2;	.type	32;	.endef
 999              		.def	__Z6getMapv;	.scl	2;	.type	32;	.endef
 1000              		.def	__ZN18LoggingWithStorageC1EPKc;	.scl	2;	.type	32;	.endef
GAS LISTING /cygdrive/c/Users/pc/AppData/Local/Temp/cckMX1Kq.s 			page 24


DEFINED SYMBOLS
                            *ABS*:00000000 engine.cpp
/cygdrive/c/Users/pc/AppData/Local/Temp/cckMX1Kq.s:10     .text$_ZN6Engine17updateSlowSensorsEv:00000000 __ZN6Engine17updateSlowSensorsEv
/cygdrive/c/Users/pc/AppData/Local/Temp/cckMX1Kq.s:75     .text$_ZN6Engine14onTriggerEventEx:00000000 __ZN6Engine14onTriggerEventEx
/cygdrive/c/Users/pc/AppData/Local/Temp/cckMX1Kq.s:91     .text$_ZN6Engine24addConfigurationListenerEPFvPS_E:00000000 __ZN6Engine24addConfigurationListenerEPFvPS_E
/cygdrive/c/Users/pc/AppData/Local/Temp/cckMX1Kq.s:114    .text$_ZN11EngineStateC2Ev:00000000 __ZN11EngineStateC2Ev
/cygdrive/c/Users/pc/AppData/Local/Temp/cckMX1Kq.s:114    .text$_ZN11EngineStateC2Ev:00000000 __ZN11EngineStateC1Ev
/cygdrive/c/Users/pc/AppData/Local/Temp/cckMX1Kq.s:146    .text$_ZN6EngineC2EP19persistent_config_s:00000000 __ZN6EngineC2EP19persistent_config_s
/cygdrive/c/Users/pc/AppData/Local/Temp/cckMX1Kq.s:146    .text$_ZN6EngineC2EP19persistent_config_s:00000000 __ZN6EngineC1EP19persistent_config_s
/cygdrive/c/Users/pc/AppData/Local/Temp/cckMX1Kq.s:300    .text$_ZN6Engine12preCalculateEv:00000000 __ZN6Engine12preCalculateEv
/cygdrive/c/Users/pc/AppData/Local/Temp/cckMX1Kq.s:387    .text$_ZL24invokeEnginePreCalculateP6Engine:00000000 __ZL24invokeEnginePreCalculateP6Engine
/cygdrive/c/Users/pc/AppData/Local/Temp/cckMX1Kq.s:399    .text$_ZN6Engine4initEv:00000000 __ZN6Engine4initEv
/cygdrive/c/Users/pc/AppData/Local/Temp/cckMX1Kq.s:411    .text$_ZN6Engine8stopPinsEv:00000000 __ZN6Engine8stopPinsEv
/cygdrive/c/Users/pc/AppData/Local/Temp/cckMX1Kq.s:426    .text$_ZN6Engine15printKnockStateEv:00000000 __ZN6Engine15printKnockStateEv
/cygdrive/c/Users/pc/AppData/Local/Temp/cckMX1Kq.s:936    .data$_ZL6logger:00000000 __ZL6logger
/cygdrive/c/Users/pc/AppData/Local/Temp/cckMX1Kq.s:462    .text$_ZN6Engine10knockLogicEf:00000000 __ZN6Engine10knockLogicEf
/cygdrive/c/Users/pc/AppData/Local/Temp/cckMX1Kq.s:529    .text$_ZN6Engine8watchdogEv:00000000 __ZN6Engine8watchdogEv
/cygdrive/c/Users/pc/AppData/Local/Temp/cckMX1Kq.s:605    .text$_ZN18StartupFuelPumpingC2Ev:00000000 __ZN18StartupFuelPumpingC2Ev
/cygdrive/c/Users/pc/AppData/Local/Temp/cckMX1Kq.s:605    .text$_ZN18StartupFuelPumpingC2Ev:00000000 __ZN18StartupFuelPumpingC1Ev
/cygdrive/c/Users/pc/AppData/Local/Temp/cckMX1Kq.s:626    .text$_ZN18StartupFuelPumping15setPumpsCounterEP22engine_configuration_si:00000000 __ZN18StartupFuelPumping15setPumpsCounterEP22engine_configuration_si
/cygdrive/c/Users/pc/AppData/Local/Temp/cckMX1Kq.s:666    .text$_ZN18StartupFuelPumping6updateEv:00000000 __ZN18StartupFuelPumping6updateEv
/cygdrive/c/Users/pc/AppData/Local/Temp/cckMX1Kq.s:734    .text$_ZN5Map3DILi16ELi16EE8getValueEff:00000000 __ZN5Map3DILi16ELi16EE8getValueEff
/cygdrive/c/Users/pc/AppData/Local/Temp/cckMX1Kq.s:773    .text$_ZN6Engine20periodicFastCallbackEv:00000000 __ZN6Engine20periodicFastCallbackEv
/cygdrive/c/Users/pc/AppData/Local/Temp/cckMX1Kq.s:915    .text.startup._GLOBAL__sub_I__ZN6Engine17updateSlowSensorsEv:00000000 __GLOBAL__sub_I__ZN6Engine17updateSlowSensorsEv

UNDEFINED SYMBOLS
_engine
_engineConfiguration
_veMap
_afrMap
__Z23getIntakeAirTemperaturev
__Z21getCoolantTemperaturev
__Z11getAdcValuePKci
__Z11interpolatefffff
__Z8hasVBattv
__Z8getVBattv
__Z14getInjectorLagf
__ZN16IntListenerArray16registerCallbackEPFviEPv
__ZN14ThermistorMathC1Ev
_memset
__ZN13RpmCalculatorC1Ev
__ZN16AccelEnrichmemntC1Ev
__ZN12TriggerShapeC1Ev
__ZN16IntListenerArrayC1Ev
__Z13interpolate2dfPfS_i
_warning
__Z12boolToStringb
__Z11scheduleMsgP7LoggingPKcz
_getTimeNowUs
_getTimeNowNt
__Z11triggerInfov
__ZN13RpmCalculator3rpmEv
__Z6getTPSv
_firmwareError
__Z13interpolate3dfPfifS_iPS_
__Z14getEngineLoadTv
__Z16getSparkDwellMsTi
GAS LISTING /cygdrive/c/Users/pc/AppData/Local/Temp/cckMX1Kq.s 			page 25


__Z16getIatCorrectionf
__Z16getCltCorrectionf
__Z17getBaroCorrectionv
__Z18getinjectionOffseti
__Z10getAdvanceif
__Z16getBaseTableFuelP22engine_configuration_sif
__Z10getTChargeifff
__Z6getMapv
__ZN18LoggingWithStorageC1EPKc
