GAS LISTING /cygdrive/c/Users/pc/AppData/Local/Temp/ccsoS4PA.s 			page 1


   1              		.file	"ford_aspire.cpp"
   2              		.section	.text$_Z32setFordAspireEngineConfigurationv,"x"
   3              		.p2align 4,,15
   4              		.globl	__Z32setFordAspireEngineConfigurationv
   5              		.def	__Z32setFordAspireEngineConfigurationv;	.scl	2;	.type	32;	.endef
   6              	__Z32setFordAspireEngineConfigurationv:
   7              	LFB86:
   8              		.cfi_startproc
   9 0000 83EC6C   		subl	$108, %esp
  10              		.cfi_def_cfa_offset 112
  11 0003 A1000000 		movl	_engineConfiguration, %eax
  11      00
  12 0008 66C74052 		movw	$100, 82(%eax)
  12      6400
  13 000e 66C74054 		movw	$750, 84(%eax)
  13      EE02
  14 0014 C780A401 		movl	$7000, 420(%eax)
  14      0000581B 
  14      0000
  15 001e 05000100 		addl	$256, %eax
  15      00
  16 0023 890424   		movl	%eax, (%esp)
  17 0026 C7442418 		movl	$0x447a0000, 24(%esp)
  17      00007A44 
  18 002e C7442414 		movl	$0x42438e3c, 20(%esp)
  18      3C8E4342 
  19 0036 C7442410 		movl	$0x45034000, 16(%esp)
  19      00400345 
  20 003e C744240C 		movl	$0x41bf1c78, 12(%esp)
  20      781CBF41 
  21 0046 C7442408 		movl	$0x468ca000, 8(%esp)
  21      00A08C46 
  22 004e C7442404 		movl	$0xc1a00000, 4(%esp)
  22      0000A0C1 
  23 0056 E8000000 		call	__Z26setThermistorConfigurationP14ThermistorConfffffff
  23      00
  24 005b A1000000 		movl	_engineConfiguration, %eax
  24      00
  25 0060 C7801801 		movl	$0x454e4000, 280(%eax)
  25      00000040 
  25      4E45
  26 006a C7405C00 		movl	$0x40400000, 92(%eax)
  26      004040
  27 0071 D9050000 		flds	LC13
  27      0000
  28 0077 C7809401 		movl	$4, 404(%eax)
  28      00000400 
  28      0000
  29 0081 C7809001 		movl	$0x3fa66666, 400(%eax)
  29      00006666 
  29      A63F
  30 008b C740089A 		movl	$0x42ef999a, 8(%eax)
  30      99EF42
  31 0092 C7809801 		movl	$1, 408(%eax)
  31      00000100 
  31      0000
  32 009c C780CC01 		movl	$0x432f0000, 460(%eax)
GAS LISTING /cygdrive/c/Users/pc/AppData/Local/Temp/ccsoS4PA.s 			page 2


  32      00000000 
  32      2F43
  33 00a6 C780C001 		movl	$0x42ae0000, 448(%eax)
  33      00000000 
  33      AE42
  34 00b0 C780B401 		movl	$0x43cf0000, 436(%eax)
  34      00000000 
  34      CF43
  35 00ba D9542404 		fsts	4(%esp)
  36 00be D9050400 		flds	LC14
  36      0000
  37 00c4 D91424   		fsts	(%esp)
  38 00c7 D95C2440 		fstps	64(%esp)
  39 00cb D95C2450 		fstps	80(%esp)
  40 00cf E8000000 		call	__Z14setFuelLoadBinff
  40      00
  41 00d4 D9050800 		flds	LC15
  41      0000
  42 00da D9542404 		fsts	4(%esp)
  43 00de D9050C00 		flds	LC16
  43      0000
  44 00e4 D91424   		fsts	(%esp)
  45 00e7 D95C2420 		fstps	32(%esp)
  46 00eb D95C2430 		fstps	48(%esp)
  47 00ef E8000000 		call	__Z13setFuelRpmBinff
  47      00
  48 00f4 D9442450 		flds	80(%esp)
  49 00f8 D95C2404 		fstps	4(%esp)
  50 00fc D9442440 		flds	64(%esp)
  51 0100 D91C24   		fstps	(%esp)
  52 0103 E8000000 		call	__Z16setTimingLoadBinff
  52      00
  53 0108 D9442430 		flds	48(%esp)
  54 010c D95C2404 		fstps	4(%esp)
  55 0110 D9442420 		flds	32(%esp)
  56 0114 D91C24   		fstps	(%esp)
  57 0117 E8000000 		call	__Z15setTimingRpmBinff
  57      00
  58 011c A1000000 		movl	_config, %eax
  58      00
  59 0121 C7042400 		movl	$__ZL25default_aspire_fuel_table, (%esp)
  59      000000
  60 0128 05B82900 		addl	$10680, %eax
  60      00
  61 012d 89442404 		movl	%eax, 4(%esp)
  62 0131 E8000000 		call	__Z13copyFuelTablePA16_KfPA16_f
  62      00
  63 0136 A1000000 		movl	_config, %eax
  63      00
  64 013b C7042400 		movl	$__ZL27default_aspire_timing_table, (%esp)
  64      000000
  65 0142 05382E00 		addl	$11832, %eax
  65      00
  66 0147 89442404 		movl	%eax, 4(%esp)
  67 014b E8000000 		call	__Z15copyTimingTablePA16_KfPA16_f
  67      00
  68 0150 A1000000 		movl	_engineConfiguration, %eax
GAS LISTING /cygdrive/c/Users/pc/AppData/Local/Temp/ccsoS4PA.s 			page 3


  68      00
  69 0155 66C74060 		movw	$550, 96(%eax)
  69      2602
  70 015b C7406C00 		movl	$0x428c0000, 108(%eax)
  70      008C42
  71 0162 C780B801 		movl	$0xc2140000, 440(%eax)
  71      00000000 
  71      14C2
  72 016c 890424   		movl	%eax, (%esp)
  73 016f E8000000 		call	__Z18setSingleCoilDwellP22engine_configuration_s
  73      00
  74 0174 A1000000 		movl	_engineConfiguration, %eax
  74      00
  75 0179 C780BC01 		movl	$0, 444(%eax)
  75      00000000 
  75      0000
  76 0183 890424   		movl	%eax, (%esp)
  77 0186 C7442404 		movl	$2, 4(%esp)
  77      02000000 
  78 018e E8000000 		call	__Z16setOperationModeP22engine_configuration_s16operation_mode_e
  78      00
  79 0193 A1000000 		movl	_engineConfiguration, %eax
  79      00
  80 0198 8088E505 		orb	$64, 1509(%eax)
  80      000040
  81 019f 8B150000 		movl	_boardConfiguration, %edx
  81      0000
  82 01a5 C7801802 		movl	$1, 536(%eax)
  82      00000100 
  82      0000
  83 01af C7423050 		movl	$80, 48(%edx)
  83      000000
  84 01b6 C7423450 		movl	$80, 52(%edx)
  84      000000
  85 01bd C7800402 		movl	$20, 516(%eax)
  85      00001400 
  85      0000
  86 01c7 C7800802 		movl	$4, 520(%eax)
  86      00000400 
  86      0000
  87 01d1 C7800C02 		movl	$3, 524(%eax)
  87      00000300 
  87      0000
  88 01db C780D801 		movl	$0, 472(%eax)
  88      00000000 
  88      0000
  89 01e5 C780FC00 		movl	$4, 252(%eax)
  89      00000400 
  89      0000
  90 01ef C7804402 		movl	$1, 580(%eax)
  90      00000100 
  90      0000
  91 01f9 C7801C01 		movl	$11, 284(%eax)
  91      00000B00 
  91      0000
  92 0203 C780F800 		movl	$1, 248(%eax)
  92      00000100 
GAS LISTING /cygdrive/c/Users/pc/AppData/Local/Temp/ccsoS4PA.s 			page 4


  92      0000
  93 020d 83C46C   		addl	$108, %esp
  94              		.cfi_def_cfa_offset 4
  95 0210 C3       		ret
  96              		.cfi_endproc
  97              	LFE86:
  98 0211 90909090 		.section	.rdata$_ZL25default_aspire_fuel_table,"dr"
  98      90909090 
  98      90909090 
  98      909090
  99              		.align 32
 100              	__ZL25default_aspire_fuel_table:
 101 0000 4260C53F 		.long	1069899842
 102 0004 C217C63F 		.long	1069946818
 103 0008 94A3C63F 		.long	1069982612
 104 000c C3F5C83F 		.long	1070134723
 105 0010 6666C63F 		.long	1069966950
 106 0014 569E683F 		.long	1063820886
 107 0018 03784B3F 		.long	1061910531
 108 001c 8273463F 		.long	1061581698
 109 0020 04AF4A3F 		.long	1061859076
 110 0024 CDCC4C3F 		.long	1061997773
 111 0028 71754C3F 		.long	1061975409
 112 002c 85444E3F 		.long	1062093957
 113 0030 295C4F3F 		.long	1062165545
 114 0034 295C4F3F 		.long	1062165545
 115 0038 295C4F3F 		.long	1062165545
 116 003c 295C4F3F 		.long	1062165545
 117 0040 EF1CC43F 		.long	1069817071
 118 0044 925CC83F 		.long	1070095506
 119 0048 2A8FC63F 		.long	1069977386
 120 004c 44C1C63F 		.long	1069990212
 121 0050 EBE3C53F 		.long	1069933547
 122 0054 B4554D3F 		.long	1062032820
 123 0058 295C4F3F 		.long	1062165545
 124 005c 98DB493F 		.long	1061804952
 125 0060 F0134F3F 		.long	1062147056
 126 0064 78B73E3F 		.long	1061074808
 127 0068 828D333F 		.long	1060343170
 128 006c 931E363F 		.long	1060511379
 129 0070 7FA23E3F 		.long	1061069439
 130 0074 295C4F3F 		.long	1062165545
 131 0078 295C4F3F 		.long	1062165545
 132 007c 295C4F3F 		.long	1062165545
 133 0080 AF94C53F 		.long	1069913263
 134 0084 56D5C53F 		.long	1069929814
 135 0088 9129C73F 		.long	1070016913
 136 008c 71E2C53F 		.long	1069933169
 137 0090 A229B53F 		.long	1068837282
 138 0094 1D1CEC3D 		.long	1038883869
 139 0098 00000000 		.long	0
 140 009c 00000000 		.long	0
 141 00a0 00000000 		.long	0
 142 00a4 00000000 		.long	0
 143 00a8 00000000 		.long	0
 144 00ac 00000000 		.long	0
 145 00b0 00000000 		.long	0
GAS LISTING /cygdrive/c/Users/pc/AppData/Local/Temp/ccsoS4PA.s 			page 5


 146 00b4 00000000 		.long	0
 147 00b8 00000000 		.long	0
 148 00bc 00000000 		.long	0
 149 00c0 66F7C43F 		.long	1069872998
 150 00c4 5AF6DE3F 		.long	1071576666
 151 00c8 817AC73F 		.long	1070037633
 152 00cc 4EB4CB3F 		.long	1070314574
 153 00d0 6F489D3F 		.long	1067272303
 154 00d4 00000000 		.long	0
 155 00d8 00000000 		.long	0
 156 00dc 00000000 		.long	0
 157 00e0 00000000 		.long	0
 158 00e4 00000000 		.long	0
 159 00e8 00000000 		.long	0
 160 00ec 00000000 		.long	0
 161 00f0 00000000 		.long	0
 162 00f4 00000000 		.long	0
 163 00f8 00000000 		.long	0
 164 00fc 00000000 		.long	0
 165 0100 EFAA1440 		.long	1075096303
 166 0104 C8275C40 		.long	1079781320
 167 0108 AE623440 		.long	1077174958
 168 010c 49810F40 		.long	1074757961
 169 0110 BF0D0840 		.long	1074269631
 170 0114 56D6983F 		.long	1066980950
 171 0118 D658FA3E 		.long	1056594134
 172 011c 00000000 		.long	0
 173 0120 00000000 		.long	0
 174 0124 00000000 		.long	0
 175 0128 00000000 		.long	0
 176 012c 00000000 		.long	0
 177 0130 00000000 		.long	0
 178 0134 00000000 		.long	0
 179 0138 00000000 		.long	0
 180 013c 00000000 		.long	0
 181 0140 194BF640 		.long	1089882905
 182 0144 ECA3BE40 		.long	1086235628
 183 0148 696E9640 		.long	1083600489
 184 014c D0447840 		.long	1081623760
 185 0150 D95F4640 		.long	1078353881
 186 0154 92CC1940 		.long	1075432594
 187 0158 C95A1D40 		.long	1075665609
 188 015c CD3EE53F 		.long	1071988429
 189 0160 B1310C40 		.long	1074540977
 190 0164 58C70440 		.long	1074055000
 191 0168 B037AF3F 		.long	1068447664
 192 016c A3CEA43F 		.long	1067765411
 193 0170 00000000 		.long	0
 194 0174 00000000 		.long	0
 195 0178 00000000 		.long	0
 196 017c 00000000 		.long	0
 197 0180 AF476541 		.long	1097156527
 198 0184 545F0B41 		.long	1091264340
 199 0188 3CDCD140 		.long	1087495228
 200 018c 88BAAF40 		.long	1085258376
 201 0190 83C2A340 		.long	1084473987
 202 0194 ACE18940 		.long	1082778028
GAS LISTING /cygdrive/c/Users/pc/AppData/Local/Temp/ccsoS4PA.s 			page 6


 203 0198 93DF4B40 		.long	1078714259
 204 019c B2BA5540 		.long	1079360178
 205 01a0 59863840 		.long	1077446233
 206 01a4 19C93540 		.long	1077266713
 207 01a8 622C2940 		.long	1076440162
 208 01ac 6D532040 		.long	1075860333
 209 01b0 26FC1240 		.long	1074986022
 210 01b4 00000000 		.long	0
 211 01b8 00000000 		.long	0
 212 01bc 00000000 		.long	0
 213 01c0 00D5AA41 		.long	1101714688
 214 01c4 DCA77641 		.long	1098295260
 215 01c8 02412F41 		.long	1093615874
 216 01cc EA780C41 		.long	1091336426
 217 01d0 36BABB40 		.long	1086044726
 218 01d4 063CA140 		.long	1084308486
 219 01d8 C79FA340 		.long	1084465095
 220 01dc 78A88C40 		.long	1082959992
 221 01e0 BE309140 		.long	1083257022
 222 01e4 FBCC6340 		.long	1080282363
 223 01e8 25087540 		.long	1081411621
 224 01ec 116F4940 		.long	1078554385
 225 01f0 562C5840 		.long	1079520342
 226 01f4 85EB3140 		.long	1077013381
 227 01f8 85EB3140 		.long	1077013381
 228 01fc 85EB3140 		.long	1077013381
 229 0200 C829A041 		.long	1101015496
 230 0204 577D8241 		.long	1099070807
 231 0208 06AE8941 		.long	1099542022
 232 020c 939B7941 		.long	1098488723
 233 0210 F3332F41 		.long	1093612531
 234 0214 3AC0F840 		.long	1090043962
 235 0218 B8C8C740 		.long	1086834872
 236 021c D2D1EC40 		.long	1089262034
 237 0220 6281D540 		.long	1087734114
 238 0224 4949C440 		.long	1086605641
 239 0228 C0F5B040 		.long	1085339072
 240 022c 779F9840 		.long	1083744119
 241 0230 79E69040 		.long	1083238009
 242 0234 EC518040 		.long	1082151404
 243 0238 EC518040 		.long	1082151404
 244 023c EC518040 		.long	1082151404
 245 0240 AC1C9241 		.long	1100094636
 246 0244 186D7741 		.long	1098345752
 247 0248 0D867941 		.long	1098483213
 248 024c 08557641 		.long	1098274056
 249 0250 EDCA4F41 		.long	1095748333
 250 0254 5C6D5541 		.long	1096117596
 251 0258 E45C0E41 		.long	1091460324
 252 025c 5BD60E41 		.long	1091491419
 253 0260 AD860041 		.long	1090553517
 254 0264 FA9BD840 		.long	1087937530
 255 0268 C358BA40 		.long	1085954243
 256 026c 7E38CD40 		.long	1087191166
 257 0270 64DBC240 		.long	1086511972
 258 0274 295CB740 		.long	1085758505
 259 0278 295CB740 		.long	1085758505
GAS LISTING /cygdrive/c/Users/pc/AppData/Local/Temp/ccsoS4PA.s 			page 7


 260 027c 295CB740 		.long	1085758505
 261 0280 3D518B41 		.long	1099649341
 262 0284 C7DC7541 		.long	1098243271
 263 0288 80FF7241 		.long	1098055552
 264 028c 176A7541 		.long	1098213911
 265 0290 EEE77441 		.long	1098180590
 266 0294 B3307641 		.long	1098264755
 267 0298 66886741 		.long	1097304166
 268 029c 57113F41 		.long	1094652247
 269 02a0 D7C42F41 		.long	1093649623
 270 02a4 6A4D1F41 		.long	1092570474
 271 02a8 474E1041 		.long	1091587655
 272 02ac 9C100741 		.long	1090982044
 273 02b0 837CF040 		.long	1089502339
 274 02b4 CDCCDC40 		.long	1088212173
 275 02b8 CDCCDC40 		.long	1088212173
 276 02bc CDCCDC40 		.long	1088212173
 277 02c0 EC0A8841 		.long	1099434732
 278 02c4 F3F47541 		.long	1098249459
 279 02c8 B4027341 		.long	1098056372
 280 02cc C9737441 		.long	1098150857
 281 02d0 CA367541 		.long	1098200778
 282 02d4 7FFC7841 		.long	1098447999
 283 02d8 F5387A41 		.long	1098529013
 284 02dc A5A57641 		.long	1098294693
 285 02e0 17165A41 		.long	1096422935
 286 02e4 4CB32E41 		.long	1093579596
 287 02e8 0E223841 		.long	1094197774
 288 02ec 678F2A41 		.long	1093308263
 289 02f0 3DD41841 		.long	1092146237
 290 02f4 14AE1341 		.long	1091808788
 291 02f8 14AE1341 		.long	1091808788
 292 02fc 14AE1341 		.long	1091808788
 293 0300 95D48741 		.long	1099420821
 294 0304 FAC37541 		.long	1098236922
 295 0308 B9BA7241 		.long	1098037945
 296 030c AED37441 		.long	1098175406
 297 0310 E84D7541 		.long	1098206696
 298 0314 4EF37A41 		.long	1098576718
 299 0318 BAF77C41 		.long	1098708922
 300 031c 403D7B41 		.long	1098595648
 301 0320 ED3F7D41 		.long	1098727405
 302 0324 E4D67141 		.long	1097979620
 303 0328 F1A76A41 		.long	1097508849
 304 032c A38A3E41 		.long	1094617763
 305 0330 61BF4041 		.long	1094762337
 306 0334 14AE1341 		.long	1091808788
 307 0338 14AE1341 		.long	1091808788
 308 033c 14AE1341 		.long	1091808788
 309 0340 07CE8741 		.long	1099419143
 310 0344 467D7541 		.long	1098218822
 311 0348 35E47441 		.long	1098179637
 312 034c 42987441 		.long	1098160194
 313 0350 EE9E7441 		.long	1098161902
 314 0354 D4BE7741 		.long	1098366676
 315 0358 96DC7E41 		.long	1098833046
 316 035c 617C7C41 		.long	1098677345
GAS LISTING /cygdrive/c/Users/pc/AppData/Local/Temp/ccsoS4PA.s 			page 8


 317 0360 64B47A41 		.long	1098560612
 318 0364 18637D41 		.long	1098736408
 319 0368 97FC8041 		.long	1098972311
 320 036c F2DF7041 		.long	1097916402
 321 0370 B78F6F41 		.long	1097830327
 322 0374 8FC26941 		.long	1097450127
 323 0378 8FC26941 		.long	1097450127
 324 037c 8FC26941 		.long	1097450127
 325 0380 E8B18741 		.long	1099411944
 326 0384 EEE47541 		.long	1098245358
 327 0388 965D7341 		.long	1098079638
 328 038c 77A67441 		.long	1098163831
 329 0390 25387441 		.long	1098135589
 330 0394 BFC57741 		.long	1098368447
 331 0398 C23C7D41 		.long	1098726594
 332 039c C6D67C41 		.long	1098700486
 333 03a0 9ED87A41 		.long	1098569886
 334 03a4 E23B7D41 		.long	1098726370
 335 03a8 59F47F41 		.long	1098904665
 336 03ac 41388041 		.long	1098922049
 337 03b0 DBA77741 		.long	1098360795
 338 03b4 3D0A7341 		.long	1098058301
 339 03b8 3D0A7341 		.long	1098058301
 340 03bc 3D0A7341 		.long	1098058301
 341 03c0 7B148841 		.long	1099437179
 342 03c4 00007441 		.long	1098121216
 343 03c8 48E17A41 		.long	1098572104
 344 03cc 3D0A7741 		.long	1098320445
 345 03d0 EC517441 		.long	1098142188
 346 03d4 1F857741 		.long	1098351903
 347 03d8 CDCC7C41 		.long	1098697933
 348 03dc 14AE7B41 		.long	1098624532
 349 03e0 9A997941 		.long	1098488218
 350 03e4 D7A37C41 		.long	1098687447
 351 03e8 C3F58041 		.long	1098970563
 352 03ec 48E18041 		.long	1098965320
 353 03f0 7B147A41 		.long	1098519675
 354 03f4 66667241 		.long	1098016358
 355 03f8 66667241 		.long	1098016358
 356 03fc 66667241 		.long	1098016358
 357              		.section	.rdata$_ZL27default_aspire_timing_table,"dr"
 358              		.align 32
 359              	__ZL27default_aspire_timing_table:
 360 0000 D57829BF 		.long	-1087801131
 361 0004 295CF740 		.long	1089952809
 362 0008 A8C68541 		.long	1099286184
 363 000c B81EB941 		.long	1102651064
 364 0010 1B2FEB41 		.long	1105932059
 365 0014 DD24FA41 		.long	1106912477
 366 0018 986E0042 		.long	1107324568
 367 001c EE7CF341 		.long	1106476270
 368 0020 022BF741 		.long	1106717442
 369 0024 7D3FD541 		.long	1104494461
 370 0028 CBA1C541 		.long	1103471051
 371 002c 2FDDC841 		.long	1103682863
 372 0030 560EC941 		.long	1103695446
 373 0034 14AECB41 		.long	1103867412
GAS LISTING /cygdrive/c/Users/pc/AppData/Local/Temp/ccsoS4PA.s 			page 9


 374 0038 14AECB41 		.long	1103867412
 375 003c 14AECB41 		.long	1103867412
 376 0040 A8C60BBF 		.long	-1089747288
 377 0044 1B2FF540 		.long	1089810203
 378 0048 560E8741 		.long	1099370070
 379 004c 23DBBB41 		.long	1102830371
 380 0050 F628EC41 		.long	1105996022
 381 0054 8D97FA41 		.long	1106941837
 382 0058 986E0042 		.long	1107324568
 383 005c 7D3FF541 		.long	1106591613
 384 0060 77BEF341 		.long	1106493047
 385 0064 3D0AD741 		.long	1104611901
 386 0068 CFF7C541 		.long	1103493071
 387 006c 9EEFC541 		.long	1103490974
 388 0070 8941E841 		.long	1105740169
 389 0074 FA7ECC41 		.long	1103920890
 390 0078 FA7ECC41 		.long	1103920890
 391 007c FA7ECC41 		.long	1103920890
 392 0080 068115BF 		.long	-1089109754
 393 0084 0AD7FB40 		.long	1090246410
 394 0088 46B68541 		.long	1099281990
 395 008c 3F35B841 		.long	1102591295
 396 0090 0456EC41 		.long	1106007556
 397 0094 F853F941 		.long	1106859000
 398 0098 39B40042 		.long	1107342393
 399 009c EC51F441 		.long	1106530796
 400 00a0 DD24F241 		.long	1106388189
 401 00a4 F853D341 		.long	1104368632
 402 00a8 6F12C141 		.long	1103172207
 403 00ac 6210C841 		.long	1103630434
 404 00b0 8195C541 		.long	1103467905
 405 00b4 1058D141 		.long	1104238608
 406 00b8 1058D141 		.long	1104238608
 407 00bc 1058D141 		.long	1104238608
 408 00c0 068115BF 		.long	-1089109754
 409 00c4 560EF540 		.long	1089801814
 410 00c8 46B68541 		.long	1099281990
 411 00cc 3108BA41 		.long	1102710833
 412 00d0 E5D0EA41 		.long	1105907941
 413 00d4 F2D2F741 		.long	1106760434
 414 00d8 68910042 		.long	1107333480
 415 00dc F4FDF641 		.long	1106705908
 416 00e0 022BF741 		.long	1106717442
 417 00e4 6210D441 		.long	1104416866
 418 00e8 C976C441 		.long	1103394505
 419 00ec B81EC341 		.long	1103306424
 420 00f0 9318CE41 		.long	1104025747
 421 00f4 CFF70D42 		.long	1108211663
 422 00f8 CFF70D42 		.long	1108211663
 423 00fc CFF70D42 		.long	1108211663
 424 0100 068115BF 		.long	-1089109754
 425 0104 8195FB40 		.long	1090229633
 426 0108 D34D8441 		.long	1099189715
 427 010c 3108BA41 		.long	1102710833
 428 0110 23DBE941 		.long	1105845027
 429 0114 355EFA41 		.long	1106927157
 430 0118 7B140242 		.long	1107432571
GAS LISTING /cygdrive/c/Users/pc/AppData/Local/Temp/ccsoS4PA.s 			page 10


 431 011c D122F141 		.long	1106322129
 432 0120 A01AF341 		.long	1106451104
 433 0124 643BCF41 		.long	1104100196
 434 0128 C3F5C241 		.long	1103295939
 435 012c F0A7C041 		.long	1103144944
 436 0130 0456C641 		.long	1103517188
 437 0134 E5D0C241 		.long	1103286501
 438 0138 E5D0C241 		.long	1103286501
 439 013c E5D0C241 		.long	1103286501
 440 0140 8D97AE3F 		.long	1068406669
 441 0144 643BF740 		.long	1089944420
 442 0148 B0728641 		.long	1099330224
 443 014c 3108BA41 		.long	1102710833
 444 0150 B81EED41 		.long	1106058936
 445 0154 4A0CF841 		.long	1106775114
 446 0158 27310142 		.long	1107374375
 447 015c C74BF741 		.long	1106725831
 448 0160 560EEF41 		.long	1106185814
 449 0164 D122D341 		.long	1104356049
 450 0168 DF4FC541 		.long	1103450079
 451 016c 3BDFD941 		.long	1104797499
 452 0170 F4FDCA41 		.long	1103822324
 453 0174 1058CB41 		.long	1103845392
 454 0178 1058CB41 		.long	1103845392
 455 017c 1058CB41 		.long	1103845392
 456 0180 8D97AEBF 		.long	-1079076979
 457 0184 0AD72741 		.long	1093129994
 458 0188 E3A58541 		.long	1099277795
 459 018c 3789B341 		.long	1102285111
 460 0190 E5D0E041 		.long	1105252581
 461 0194 6DE7F141 		.long	1106372461
 462 0198 BC740142 		.long	1107391676
 463 019c 8FC2F541 		.long	1106625167
 464 01a0 022BF741 		.long	1106717442
 465 01a4 2FDDD441 		.long	1104469295
 466 01a8 DF4FC541 		.long	1103450079
 467 01ac BC74C341 		.long	1103328444
 468 01b0 0000C441 		.long	1103364096
 469 01b4 7B14CC41 		.long	1103893627
 470 01b8 7B14CC41 		.long	1103893627
 471 01bc 7B14CC41 		.long	1103893627
 472 01c0 F2D21DC1 		.long	-1055010062
 473 01c4 F0A72641 		.long	1093052400
 474 01c8 48E13A41 		.long	1094377800
 475 01cc 33339941 		.long	1100559155
 476 01d0 3108CE41 		.long	1104021553
 477 01d4 EE7CDF41 		.long	1105165550
 478 01d8 4C370242 		.long	1107441484
 479 01dc 7D3FF541 		.long	1106591613
 480 01e0 643BF141 		.long	1106328420
 481 01e4 D578D941 		.long	1104771285
 482 01e8 1904CA41 		.long	1103758361
 483 01ec FA7EB641 		.long	1102479098
 484 01f0 B29DC341 		.long	1103338930
 485 01f4 8FC2C941 		.long	1103741583
 486 01f8 8FC2C941 		.long	1103741583
 487 01fc 8FC2C941 		.long	1103741583
GAS LISTING /cygdrive/c/Users/pc/AppData/Local/Temp/ccsoS4PA.s 			page 11


 488 0200 23DB1DC1 		.long	-1055007965
 489 0204 C976AEC0 		.long	-1062308151
 490 0208 F0A736C0 		.long	-1070159888
 491 020c 2DB28941 		.long	1099543085
 492 0210 7F6A8C41 		.long	1099721343
 493 0214 0681A541 		.long	1101365510
 494 0218 AE47CD41 		.long	1103972270
 495 021c E17ADE41 		.long	1105099489
 496 0220 3789DD41 		.long	1105037623
 497 0224 C1CAD941 		.long	1104792257
 498 0228 560ECF41 		.long	1104088662
 499 022c 48E1CA41 		.long	1103814984
 500 0230 CDCCD041 		.long	1104202957
 501 0234 9EEFDF41 		.long	1105194910
 502 0238 9EEFDF41 		.long	1105194910
 503 023c 9EEFDF41 		.long	1105194910
 504 0240 F2D21DC1 		.long	-1055010062
 505 0244 C976AEC0 		.long	-1062308151
 506 0248 F0A736C0 		.long	-1070159888
 507 024c A01AAF3E 		.long	1051663008
 508 0250 7F6A4841 		.long	1095264895
 509 0254 77BE8141 		.long	1099021943
 510 0258 79E9AA41 		.long	1101719929
 511 025c 52B8DC41 		.long	1104984146
 512 0260 713DCE41 		.long	1104035185
 513 0264 295CC141 		.long	1103191081
 514 0268 DF4FC541 		.long	1103450079
 515 026c 08ACCC41 		.long	1103932424
 516 0270 85EBD341 		.long	1104407429
 517 0274 77BEFF41 		.long	1107279479
 518 0278 77BEFF41 		.long	1107279479
 519 027c 77BEFF41 		.long	1107279479
 520 0280 F2D21DC1 		.long	-1055010062
 521 0284 1283B0C0 		.long	-1062173934
 522 0288 F0A736C0 		.long	-1070159888
 523 028c 8B6C673E 		.long	1046965387
 524 0290 643B2F40 		.long	1076837220
 525 0294 58397440 		.long	1081358680
 526 0298 B4C83E41 		.long	1094633652
 527 029c C9769641 		.long	1100379849
 528 02a0 D34DA841 		.long	1101549011
 529 02a4 D34DAC41 		.long	1101811155
 530 02a8 14AEA941 		.long	1101639188
 531 02ac F2D2B141 		.long	1102172914
 532 02b0 355EC841 		.long	1103650357
 533 02b4 7D3FC941 		.long	1103708029
 534 02b8 7D3FC941 		.long	1103708029
 535 02bc 7D3FC941 		.long	1103708029
 536 02c0 23DB1DC1 		.long	-1055007965
 537 02c4 7593B0C0 		.long	-1062169739
 538 02c8 F0A736C0 		.long	-1070159888
 539 02cc 00000080 		.long	-2147483648
 540 02d0 73684140 		.long	1078028403
 541 02d4 58397440 		.long	1081358680
 542 02d8 2DB2CD40 		.long	1087222317
 543 02dc 4C37F940 		.long	1090074444
 544 02e0 73689B41 		.long	1100703859
GAS LISTING /cygdrive/c/Users/pc/AppData/Local/Temp/ccsoS4PA.s 			page 12


 545 02e4 48E1A641 		.long	1101455688
 546 02e8 5EBA9F41 		.long	1100986974
 547 02ec 713DA841 		.long	1101544817
 548 02f0 022BAB41 		.long	1101736706
 549 02f4 5C8FAC41 		.long	1101827932
 550 02f8 5C8FAC41 		.long	1101827932
 551 02fc 5C8FAC41 		.long	1101827932
 552 0300 F2D21DC1 		.long	-1055010062
 553 0304 1283B0C0 		.long	-1062173934
 554 0308 736831C0 		.long	-1070503821
 555 030c 8B6C673E 		.long	1046965387
 556 0310 17D92E40 		.long	1076812055
 557 0314 00006040 		.long	1080033280
 558 0318 3789D940 		.long	1087998263
 559 031c CBA10141 		.long	1090625995
 560 0320 5C8F0A41 		.long	1091211100
 561 0324 00001841 		.long	1092091904
 562 0328 A69B3C41 		.long	1094491046
 563 032c 560EA141 		.long	1101074006
 564 0330 7593A041 		.long	1101042549
 565 0334 7B14A441 		.long	1101272187
 566 0338 7B14A441 		.long	1101272187
 567 033c 7B14A441 		.long	1101272187
 568 0340 F2D21DC1 		.long	-1055010062
 569 0344 7593B0C0 		.long	-1062169739
 570 0348 F0A736C0 		.long	-1070159888
 571 034c 00000080 		.long	-2147483648
 572 0350 EC513840 		.long	1077432812
 573 0354 58397440 		.long	1081358680
 574 0358 A470CD40 		.long	1087205540
 575 035c B81E0541 		.long	1090854584
 576 0360 E5D00641 		.long	1090965733
 577 0364 12830841 		.long	1091076882
 578 0368 1F853741 		.long	1094157599
 579 036c 6F123741 		.long	1094128239
 580 0370 8FC25941 		.long	1096401551
 581 0374 1D5A4041 		.long	1094736413
 582 0378 1D5A4041 		.long	1094736413
 583 037c 1D5A4041 		.long	1094736413
 584 0380 00001CC1 		.long	-1055129600
 585 0384 7593B0C0 		.long	-1062169739
 586 0388 F0A726C0 		.long	-1071208464
 587 038c 00000080 		.long	-2147483648
 588 0390 EC513840 		.long	1077432812
 589 0394 23DB6940 		.long	1080679203
 590 0398 9A99C140 		.long	1086429594
 591 039c 7F6ADC40 		.long	1088187007
 592 03a0 B6F30541 		.long	1090909110
 593 03a4 F2D21541 		.long	1091949298
 594 03a8 58393C41 		.long	1094465880
 595 03ac 46B63B41 		.long	1094432326
 596 03b0 F2D23D41 		.long	1094570738
 597 03b4 19044641 		.long	1095107609
 598 03b8 19044641 		.long	1095107609
 599 03bc 19044641 		.long	1095107609
 600 03c0 3333B3BE 		.long	-1095552205
 601 03c4 48E1B2C0 		.long	-1062018744
GAS LISTING /cygdrive/c/Users/pc/AppData/Local/Temp/ccsoS4PA.s 			page 13


 602 03c8 128300BF 		.long	-1090485486
 603 03cc C3F568BF 		.long	-1083640381
 604 03d0 1B2F5DBF 		.long	-1084412133
 605 03d4 583974BF 		.long	-1082902184
 606 03d8 D578A9BF 		.long	-1079412523
 607 03dc B6F3ED40 		.long	1089336246
 608 03e0 8FC295BF 		.long	-1080704369
 609 03e4 79E986BF 		.long	-1081677447
 610 03e8 46B603C0 		.long	-1073498554
 611 03ec A24506C0 		.long	-1073330782
 612 03f0 39B428C0 		.long	-1071074247
 613 03f4 CBA14541 		.long	1095082443
 614 03f8 CBA14541 		.long	1095082443
 615 03fc CBA14541 		.long	1095082443
 616              		.section .rdata,"dr"
 617              		.align 4
 618              	LC13:
 619 0000 CDCC8C40 		.long	1082969293
 620              		.align 4
 621              	LC14:
 622 0004 9A99993F 		.long	1067030938
 623              		.align 4
 624              	LC15:
 625 0008 00C0DA45 		.long	1171963904
 626              		.align 4
 627              	LC16:
 628 000c 00004844 		.long	1145569280
 629              		.def	__Z26setThermistorConfigurationP14ThermistorConfffffff;	.scl	2;	.type	32;	.endef
 630              		.def	__Z14setFuelLoadBinff;	.scl	2;	.type	32;	.endef
 631              		.def	__Z13setFuelRpmBinff;	.scl	2;	.type	32;	.endef
 632              		.def	__Z16setTimingLoadBinff;	.scl	2;	.type	32;	.endef
 633              		.def	__Z15setTimingRpmBinff;	.scl	2;	.type	32;	.endef
 634              		.def	__Z13copyFuelTablePA16_KfPA16_f;	.scl	2;	.type	32;	.endef
 635              		.def	__Z15copyTimingTablePA16_KfPA16_f;	.scl	2;	.type	32;	.endef
 636              		.def	__Z18setSingleCoilDwellP22engine_configuration_s;	.scl	2;	.type	32;	.endef
 637              		.def	__Z16setOperationModeP22engine_configuration_s16operation_mode_e;	.scl	2;	.type	32;	.endef
GAS LISTING /cygdrive/c/Users/pc/AppData/Local/Temp/ccsoS4PA.s 			page 14


DEFINED SYMBOLS
                            *ABS*:00000000 ford_aspire.cpp
/cygdrive/c/Users/pc/AppData/Local/Temp/ccsoS4PA.s:6      .text$_Z32setFordAspireEngineConfigurationv:00000000 __Z32setFordAspireEngineConfigurationv
/cygdrive/c/Users/pc/AppData/Local/Temp/ccsoS4PA.s:100    .rdata$_ZL25default_aspire_fuel_table:00000000 __ZL25default_aspire_fuel_table
/cygdrive/c/Users/pc/AppData/Local/Temp/ccsoS4PA.s:359    .rdata$_ZL27default_aspire_timing_table:00000000 __ZL27default_aspire_timing_table

UNDEFINED SYMBOLS
_engineConfiguration
_config
_boardConfiguration
__Z26setThermistorConfigurationP14ThermistorConfffffff
__Z14setFuelLoadBinff
__Z13setFuelRpmBinff
__Z16setTimingLoadBinff
__Z15setTimingRpmBinff
__Z13copyFuelTablePA16_KfPA16_f
__Z15copyTimingTablePA16_KfPA16_f
__Z18setSingleCoilDwellP22engine_configuration_s
__Z16setOperationModeP22engine_configuration_s16operation_mode_e
