GAS LISTING /cygdrive/c/Users/pc/AppData/Local/Temp/ccvVw1ZV.s 			page 1


   1              		.file	"GY6_139QMB.cpp"
   2              		.section	.text$_Z38setGy6139qmbDefaultEngineConfigurationv,"x"
   3              		.p2align 4,,15
   4              		.globl	__Z38setGy6139qmbDefaultEngineConfigurationv
   5              		.def	__Z38setGy6139qmbDefaultEngineConfigurationv;	.scl	2;	.type	32;	.endef
   6              	__Z38setGy6139qmbDefaultEngineConfigurationv:
   7              	LFB86:
   8              		.cfi_startproc
   9 0000 83EC5C   		subl	$92, %esp
  10              		.cfi_def_cfa_offset 96
  11 0003 D9050000 		flds	LC0
  11      0000
  12 0009 D9542404 		fsts	4(%esp)
  13 000d D9050400 		flds	LC1
  13      0000
  14 0013 D91424   		fsts	(%esp)
  15 0016 D95C2430 		fstps	48(%esp)
  16 001a D95C2440 		fstps	64(%esp)
  17 001e E8000000 		call	__Z14setFuelLoadBinff
  17      00
  18 0023 D9050800 		flds	LC2
  18      0000
  19 0029 D9542404 		fsts	4(%esp)
  20 002d D9050C00 		flds	LC3
  20      0000
  21 0033 D91424   		fsts	(%esp)
  22 0036 D95C2410 		fstps	16(%esp)
  23 003a D95C2420 		fstps	32(%esp)
  24 003e E8000000 		call	__Z13setFuelRpmBinff
  24      00
  25 0043 D9442440 		flds	64(%esp)
  26 0047 D95C2404 		fstps	4(%esp)
  27 004b D9442430 		flds	48(%esp)
  28 004f D91C24   		fstps	(%esp)
  29 0052 E8000000 		call	__Z16setTimingLoadBinff
  29      00
  30 0057 D9442420 		flds	32(%esp)
  31 005b D95C2404 		fstps	4(%esp)
  32 005f D9442410 		flds	16(%esp)
  33 0063 D91C24   		fstps	(%esp)
  34 0066 E8000000 		call	__Z15setTimingRpmBinff
  34      00
  35 006b A1000000 		movl	_config, %eax
  35      00
  36 0070 C7042400 		movl	$__ZL25default_139qmb_fuel_table, (%esp)
  36      000000
  37 0077 05B82900 		addl	$10680, %eax
  37      00
  38 007c 89442404 		movl	%eax, 4(%esp)
  39 0080 E8000000 		call	__Z13copyFuelTablePA16_KfPA16_f
  39      00
  40 0085 C7042403 		movl	$3, (%esp)
  40      000000
  41 008c E8000000 		call	__Z12setEgoSensor12ego_sensor_e
  41      00
  42 0091 A1000000 		movl	_engineConfiguration, %eax
  42      00
GAS LISTING /cygdrive/c/Users/pc/AppData/Local/Temp/ccvVw1ZV.s 			page 2


  43 0096 C780A401 		movl	$9000, 420(%eax)
  43      00002823 
  43      0000
  44 00a0 66C74060 		movw	$1100, 96(%eax)
  44      4C04
  45 00a6 C780EC05 		movl	$2000, 1516(%eax)
  45      0000D007 
  45      0000
  46 00b0 C780D001 		movl	$0x3f800000, 464(%eax)
  46      00000000 
  46      803F
  47 00ba C780A801 		movl	$2, 424(%eax)
  47      00000200 
  47      0000
  48 00c4 C780CC01 		movl	$0x42340000, 460(%eax)
  48      00000000 
  48      3442
  49 00ce C7808005 		movl	$2, 1408(%eax)
  49      00000200 
  49      0000
  50 00d8 C7809001 		movl	$0x3d9374bc, 400(%eax)
  50      0000BC74 
  50      933D
  51 00e2 C7809401 		movl	$1, 404(%eax)
  51      00000100 
  51      0000
  52 00ec 890424   		movl	%eax, (%esp)
  53 00ef C7442404 		movl	$1, 4(%esp)
  53      01000000 
  54 00f7 E8000000 		call	__Z16setOperationModeP22engine_configuration_s16operation_mode_e
  54      00
  55 00fc A1000000 		movl	_engineConfiguration, %eax
  55      00
  56 0101 C7809801 		movl	$0, 408(%eax)
  56      00000000 
  56      0000
  57 010b C7801802 		movl	$0, 536(%eax)
  57      00000000 
  57      0000
  58 0115 C7802002 		movl	$8, 544(%eax)
  58      00000800 
  58      0000
  59 011f C7802402 		movl	$1, 548(%eax)
  59      00000100 
  59      0000
  60 0129 A1000000 		movl	_boardConfiguration, %eax
  60      00
  61 012e C7402029 		movl	$41, 32(%eax)
  61      000000
  62 0135 C7405428 		movl	$40, 84(%eax)
  62      000000
  63 013c 83C45C   		addl	$92, %esp
  64              		.cfi_def_cfa_offset 4
  65 013f C3       		ret
  66              		.cfi_endproc
  67              	LFE86:
  68              		.section	.rdata$_ZL25default_139qmb_fuel_table,"dr"
GAS LISTING /cygdrive/c/Users/pc/AppData/Local/Temp/ccvVw1ZV.s 			page 3


  69              		.align 32
  70              	__ZL25default_139qmb_fuel_table:
  71 0000 0000C040 		.long	1086324736
  72 0004 0000C040 		.long	1086324736
  73 0008 0000C040 		.long	1086324736
  74 000c 0000C040 		.long	1086324736
  75 0010 0000C040 		.long	1086324736
  76 0014 0000C040 		.long	1086324736
  77 0018 0000C040 		.long	1086324736
  78 001c 0000C040 		.long	1086324736
  79 0020 0000C040 		.long	1086324736
  80 0024 0000C040 		.long	1086324736
  81 0028 0000C040 		.long	1086324736
  82 002c 0000C040 		.long	1086324736
  83 0030 0000C040 		.long	1086324736
  84 0034 0000C040 		.long	1086324736
  85 0038 0000C040 		.long	1086324736
  86 003c 0000C040 		.long	1086324736
  87 0040 0000C040 		.long	1086324736
  88 0044 0000C040 		.long	1086324736
  89 0048 0000C040 		.long	1086324736
  90 004c 0000C040 		.long	1086324736
  91 0050 0000C040 		.long	1086324736
  92 0054 0000C040 		.long	1086324736
  93 0058 0000C040 		.long	1086324736
  94 005c 0000C040 		.long	1086324736
  95 0060 0000C040 		.long	1086324736
  96 0064 0000C040 		.long	1086324736
  97 0068 0000C040 		.long	1086324736
  98 006c 0000C040 		.long	1086324736
  99 0070 0000C040 		.long	1086324736
 100 0074 0000C040 		.long	1086324736
 101 0078 0000C040 		.long	1086324736
 102 007c 0000C040 		.long	1086324736
 103 0080 0000C040 		.long	1086324736
 104 0084 0000C040 		.long	1086324736
 105 0088 0000C040 		.long	1086324736
 106 008c 0000C040 		.long	1086324736
 107 0090 0000C040 		.long	1086324736
 108 0094 0000C040 		.long	1086324736
 109 0098 0000C040 		.long	1086324736
 110 009c 0000C040 		.long	1086324736
 111 00a0 0000C040 		.long	1086324736
 112 00a4 0000C040 		.long	1086324736
 113 00a8 0000C040 		.long	1086324736
 114 00ac 0000C040 		.long	1086324736
 115 00b0 0000C040 		.long	1086324736
 116 00b4 0000C040 		.long	1086324736
 117 00b8 0000C040 		.long	1086324736
 118 00bc 0000C040 		.long	1086324736
 119 00c0 0000C040 		.long	1086324736
 120 00c4 0000C040 		.long	1086324736
 121 00c8 0000C040 		.long	1086324736
 122 00cc 0000C040 		.long	1086324736
 123 00d0 0000C040 		.long	1086324736
 124 00d4 0000C040 		.long	1086324736
 125 00d8 0000C040 		.long	1086324736
GAS LISTING /cygdrive/c/Users/pc/AppData/Local/Temp/ccvVw1ZV.s 			page 4


 126 00dc 0000C040 		.long	1086324736
 127 00e0 0000C040 		.long	1086324736
 128 00e4 0000C040 		.long	1086324736
 129 00e8 0000C040 		.long	1086324736
 130 00ec 0000C040 		.long	1086324736
 131 00f0 0000C040 		.long	1086324736
 132 00f4 0000C040 		.long	1086324736
 133 00f8 0000C040 		.long	1086324736
 134 00fc 0000C040 		.long	1086324736
 135 0100 0000C040 		.long	1086324736
 136 0104 0000C040 		.long	1086324736
 137 0108 0000C040 		.long	1086324736
 138 010c 0000C040 		.long	1086324736
 139 0110 0000C040 		.long	1086324736
 140 0114 0000C040 		.long	1086324736
 141 0118 0000C040 		.long	1086324736
 142 011c 0000C040 		.long	1086324736
 143 0120 0000C040 		.long	1086324736
 144 0124 0000C040 		.long	1086324736
 145 0128 0000C040 		.long	1086324736
 146 012c 0000C040 		.long	1086324736
 147 0130 0000C040 		.long	1086324736
 148 0134 0000C040 		.long	1086324736
 149 0138 0000C040 		.long	1086324736
 150 013c 0000C040 		.long	1086324736
 151 0140 0000C040 		.long	1086324736
 152 0144 0000C040 		.long	1086324736
 153 0148 0000C040 		.long	1086324736
 154 014c 0000C040 		.long	1086324736
 155 0150 0000C040 		.long	1086324736
 156 0154 0000C040 		.long	1086324736
 157 0158 0000C040 		.long	1086324736
 158 015c 0000C040 		.long	1086324736
 159 0160 0000C040 		.long	1086324736
 160 0164 0000C040 		.long	1086324736
 161 0168 0000C040 		.long	1086324736
 162 016c 0000C040 		.long	1086324736
 163 0170 0000C040 		.long	1086324736
 164 0174 0000C040 		.long	1086324736
 165 0178 0000C040 		.long	1086324736
 166 017c 0000C040 		.long	1086324736
 167 0180 0000C040 		.long	1086324736
 168 0184 0000C040 		.long	1086324736
 169 0188 0000C040 		.long	1086324736
 170 018c 0000C040 		.long	1086324736
 171 0190 0000C040 		.long	1086324736
 172 0194 0000C040 		.long	1086324736
 173 0198 0000C040 		.long	1086324736
 174 019c 0000C040 		.long	1086324736
 175 01a0 0000C040 		.long	1086324736
 176 01a4 0000C040 		.long	1086324736
 177 01a8 0000C040 		.long	1086324736
 178 01ac 0000C040 		.long	1086324736
 179 01b0 0000C040 		.long	1086324736
 180 01b4 0000C040 		.long	1086324736
 181 01b8 0000C040 		.long	1086324736
 182 01bc 0000C040 		.long	1086324736
GAS LISTING /cygdrive/c/Users/pc/AppData/Local/Temp/ccvVw1ZV.s 			page 5


 183 01c0 0000C040 		.long	1086324736
 184 01c4 0000C040 		.long	1086324736
 185 01c8 0000C040 		.long	1086324736
 186 01cc 0000C040 		.long	1086324736
 187 01d0 0000C040 		.long	1086324736
 188 01d4 0000C040 		.long	1086324736
 189 01d8 0000C040 		.long	1086324736
 190 01dc 0000C040 		.long	1086324736
 191 01e0 0000C040 		.long	1086324736
 192 01e4 0000C040 		.long	1086324736
 193 01e8 0000C040 		.long	1086324736
 194 01ec 0000C040 		.long	1086324736
 195 01f0 0000C040 		.long	1086324736
 196 01f4 0000C040 		.long	1086324736
 197 01f8 0000C040 		.long	1086324736
 198 01fc 0000C040 		.long	1086324736
 199 0200 0000C040 		.long	1086324736
 200 0204 0000C040 		.long	1086324736
 201 0208 0000C040 		.long	1086324736
 202 020c 0000C040 		.long	1086324736
 203 0210 0000C040 		.long	1086324736
 204 0214 0000C040 		.long	1086324736
 205 0218 0000C040 		.long	1086324736
 206 021c 0000C040 		.long	1086324736
 207 0220 0000C040 		.long	1086324736
 208 0224 0000C040 		.long	1086324736
 209 0228 0000C040 		.long	1086324736
 210 022c 0000C040 		.long	1086324736
 211 0230 0000C040 		.long	1086324736
 212 0234 0000C040 		.long	1086324736
 213 0238 0000C040 		.long	1086324736
 214 023c 0000C040 		.long	1086324736
 215 0240 0000C040 		.long	1086324736
 216 0244 0000C040 		.long	1086324736
 217 0248 0000C040 		.long	1086324736
 218 024c 0000C040 		.long	1086324736
 219 0250 0000C040 		.long	1086324736
 220 0254 0000C040 		.long	1086324736
 221 0258 0000C040 		.long	1086324736
 222 025c 0000C040 		.long	1086324736
 223 0260 0000C040 		.long	1086324736
 224 0264 0000C040 		.long	1086324736
 225 0268 0000C040 		.long	1086324736
 226 026c 0000C040 		.long	1086324736
 227 0270 0000C040 		.long	1086324736
 228 0274 0000C040 		.long	1086324736
 229 0278 0000C040 		.long	1086324736
 230 027c 0000C040 		.long	1086324736
 231 0280 0000C040 		.long	1086324736
 232 0284 0000C040 		.long	1086324736
 233 0288 0000C040 		.long	1086324736
 234 028c 0000C040 		.long	1086324736
 235 0290 0000C040 		.long	1086324736
 236 0294 0000C040 		.long	1086324736
 237 0298 0000C040 		.long	1086324736
 238 029c 0000C040 		.long	1086324736
 239 02a0 0000C040 		.long	1086324736
GAS LISTING /cygdrive/c/Users/pc/AppData/Local/Temp/ccvVw1ZV.s 			page 6


 240 02a4 0000C040 		.long	1086324736
 241 02a8 0000C040 		.long	1086324736
 242 02ac 0000C040 		.long	1086324736
 243 02b0 0000C040 		.long	1086324736
 244 02b4 0000C040 		.long	1086324736
 245 02b8 0000C040 		.long	1086324736
 246 02bc 0000C040 		.long	1086324736
 247 02c0 0000C040 		.long	1086324736
 248 02c4 0000C040 		.long	1086324736
 249 02c8 0000C040 		.long	1086324736
 250 02cc 0000C040 		.long	1086324736
 251 02d0 0000C040 		.long	1086324736
 252 02d4 0000C040 		.long	1086324736
 253 02d8 0000C040 		.long	1086324736
 254 02dc 0000C040 		.long	1086324736
 255 02e0 0000C040 		.long	1086324736
 256 02e4 0000C040 		.long	1086324736
 257 02e8 0000C040 		.long	1086324736
 258 02ec 0000C040 		.long	1086324736
 259 02f0 0000C040 		.long	1086324736
 260 02f4 0000C040 		.long	1086324736
 261 02f8 0000C040 		.long	1086324736
 262 02fc 0000C040 		.long	1086324736
 263 0300 0000C040 		.long	1086324736
 264 0304 0000C040 		.long	1086324736
 265 0308 0000C040 		.long	1086324736
 266 030c 0000C040 		.long	1086324736
 267 0310 0000C040 		.long	1086324736
 268 0314 0000C040 		.long	1086324736
 269 0318 0000C040 		.long	1086324736
 270 031c 0000C040 		.long	1086324736
 271 0320 0000C040 		.long	1086324736
 272 0324 0000C040 		.long	1086324736
 273 0328 0000C040 		.long	1086324736
 274 032c 0000C040 		.long	1086324736
 275 0330 0000C040 		.long	1086324736
 276 0334 0000C040 		.long	1086324736
 277 0338 0000C040 		.long	1086324736
 278 033c 0000C040 		.long	1086324736
 279 0340 0000C040 		.long	1086324736
 280 0344 0000C040 		.long	1086324736
 281 0348 0000C040 		.long	1086324736
 282 034c 0000C040 		.long	1086324736
 283 0350 0000C040 		.long	1086324736
 284 0354 0000C040 		.long	1086324736
 285 0358 0000C040 		.long	1086324736
 286 035c 0000C040 		.long	1086324736
 287 0360 0000C040 		.long	1086324736
 288 0364 0000C040 		.long	1086324736
 289 0368 0000C040 		.long	1086324736
 290 036c 0000C040 		.long	1086324736
 291 0370 0000C040 		.long	1086324736
 292 0374 0000C040 		.long	1086324736
 293 0378 0000C040 		.long	1086324736
 294 037c 0000C040 		.long	1086324736
 295 0380 0000C040 		.long	1086324736
 296 0384 0000C040 		.long	1086324736
GAS LISTING /cygdrive/c/Users/pc/AppData/Local/Temp/ccvVw1ZV.s 			page 7


 297 0388 0000C040 		.long	1086324736
 298 038c 0000C040 		.long	1086324736
 299 0390 0000C040 		.long	1086324736
 300 0394 0000C040 		.long	1086324736
 301 0398 0000C040 		.long	1086324736
 302 039c 0000C040 		.long	1086324736
 303 03a0 0000C040 		.long	1086324736
 304 03a4 0000C040 		.long	1086324736
 305 03a8 0000C040 		.long	1086324736
 306 03ac 0000C040 		.long	1086324736
 307 03b0 0000C040 		.long	1086324736
 308 03b4 0000C040 		.long	1086324736
 309 03b8 0000C040 		.long	1086324736
 310 03bc 0000C040 		.long	1086324736
 311 03c0 0000C040 		.long	1086324736
 312 03c4 0000C040 		.long	1086324736
 313 03c8 0000C040 		.long	1086324736
 314 03cc 0000C040 		.long	1086324736
 315 03d0 0000C040 		.long	1086324736
 316 03d4 0000C040 		.long	1086324736
 317 03d8 0000C040 		.long	1086324736
 318 03dc 0000C040 		.long	1086324736
 319 03e0 0000C040 		.long	1086324736
 320 03e4 0000C040 		.long	1086324736
 321 03e8 0000C040 		.long	1086324736
 322 03ec 0000C040 		.long	1086324736
 323 03f0 0000C040 		.long	1086324736
 324 03f4 0000C040 		.long	1086324736
 325 03f8 0000C040 		.long	1086324736
 326 03fc 0000C040 		.long	1086324736
 327              		.section .rdata,"dr"
 328              		.align 4
 329              	LC0:
 330 0000 CDCC8C40 		.long	1082969293
 331              		.align 4
 332              	LC1:
 333 0004 9A99993F 		.long	1067030938
 334              		.align 4
 335              	LC2:
 336 0008 00E02B46 		.long	1177280512
 337              		.align 4
 338              	LC3:
 339 000c 00007A44 		.long	1148846080
 340              		.def	__Z14setFuelLoadBinff;	.scl	2;	.type	32;	.endef
 341              		.def	__Z13setFuelRpmBinff;	.scl	2;	.type	32;	.endef
 342              		.def	__Z16setTimingLoadBinff;	.scl	2;	.type	32;	.endef
 343              		.def	__Z15setTimingRpmBinff;	.scl	2;	.type	32;	.endef
 344              		.def	__Z13copyFuelTablePA16_KfPA16_f;	.scl	2;	.type	32;	.endef
 345              		.def	__Z12setEgoSensor12ego_sensor_e;	.scl	2;	.type	32;	.endef
 346              		.def	__Z16setOperationModeP22engine_configuration_s16operation_mode_e;	.scl	2;	.type	32;	.endef
GAS LISTING /cygdrive/c/Users/pc/AppData/Local/Temp/ccvVw1ZV.s 			page 8


DEFINED SYMBOLS
                            *ABS*:00000000 GY6_139QMB.cpp
/cygdrive/c/Users/pc/AppData/Local/Temp/ccvVw1ZV.s:6      .text$_Z38setGy6139qmbDefaultEngineConfigurationv:00000000 __Z38setGy6139qmbDefaultEngineConfigurationv
/cygdrive/c/Users/pc/AppData/Local/Temp/ccvVw1ZV.s:70     .rdata$_ZL25default_139qmb_fuel_table:00000000 __ZL25default_139qmb_fuel_table

UNDEFINED SYMBOLS
_config
_engineConfiguration
_boardConfiguration
__Z14setFuelLoadBinff
__Z13setFuelRpmBinff
__Z16setTimingLoadBinff
__Z15setTimingRpmBinff
__Z13copyFuelTablePA16_KfPA16_f
__Z12setEgoSensor12ego_sensor_e
__Z16setOperationModeP22engine_configuration_s16operation_mode_e
