GAS LISTING /cygdrive/c/Users/pc/AppData/Local/Temp/cc6f88se.s 			page 1


   1              		.file	"hal_lld.c"
   2              		.section .rdata,"dr"
   3              		.align 4
   4              	LC0:
   5 0000 556E6162 		.ascii "Unable to locate a winsock DLL\0"
   5      6C652074 
   5      6F206C6F 
   5      63617465 
   5      20612077 
   6              	LC1:
   7 001f 43686962 		.ascii "ChibiOS/RT simulator (Win32)\0"
   7      694F532F 
   7      52542073 
   7      696D756C 
   7      61746F72 
   8              		.align 4
   9              	LC2:
  10 003c 51756572 		.ascii "QueryPerformanceFrequency() error\0"
  10      79506572 
  10      666F726D 
  10      616E6365 
  10      46726571 
  11              		.def	___divdi3;	.scl	2;	.type	32;	.endef
  12 005e 0000     		.section	.text$hal_lld_init,"x"
  13              		.p2align 4,,15
  14              		.globl	_hal_lld_init
  15              		.def	_hal_lld_init;	.scl	2;	.type	32;	.endef
  16              	_hal_lld_init:
  17              	LFB28:
  18              		.cfi_startproc
  19 0000 81ECAC01 		subl	$428, %esp
  19      0000
  20              		.cfi_def_cfa_offset 432
  21 0006 8D442410 		leal	16(%esp), %eax
  22 000a 89442404 		movl	%eax, 4(%esp)
  23 000e C7042402 		movl	$2, (%esp)
  23      000000
  24 0015 E8000000 		call	_WSAStartup@8
  24      00
  25              		.cfi_def_cfa_offset 424
  26 001a 83EC08   		subl	$8, %esp
  27              		.cfi_def_cfa_offset 432
  28 001d 85C0     		testl	%eax, %eax
  29 001f 0F859200 		jne	L6
  29      0000
  30 0025 C704241F 		movl	$LC1, (%esp)
  30      000000
  31 002c E8000000 		call	_puts
  31      00
  32 0031 C7042400 		movl	$_slice, (%esp)
  32      000000
  33 0038 E8000000 		call	_QueryPerformanceFrequency@4
  33      00
  34              		.cfi_def_cfa_offset 428
  35 003d 83EC04   		subl	$4, %esp
  36              		.cfi_def_cfa_offset 432
  37 0040 85C0     		testl	%eax, %eax
GAS LISTING /cygdrive/c/Users/pc/AppData/Local/Temp/cc6f88se.s 			page 2


  38 0042 0F848700 		je	L7
  38      0000
  39 0048 A1000000 		movl	_slice, %eax
  39      00
  40 004d 8B150400 		movl	_slice+4, %edx
  40      0000
  41 0053 C7442408 		movl	$100000, 8(%esp)
  41      A0860100 
  42 005b C744240C 		movl	$0, 12(%esp)
  42      00000000 
  43 0063 890424   		movl	%eax, (%esp)
  44 0066 89542404 		movl	%edx, 4(%esp)
  45 006a E8000000 		call	___divdi3
  45      00
  46 006f C7042400 		movl	$_nextcnt, (%esp)
  46      000000
  47 0076 89150400 		movl	%edx, _slice+4
  47      0000
  48 007c A3000000 		movl	%eax, _slice
  48      00
  49 0081 E8000000 		call	_QueryPerformanceCounter@4
  49      00
  50              		.cfi_def_cfa_offset 428
  51 0086 A1000000 		movl	_slice, %eax
  51      00
  52 008b 8B150400 		movl	_slice+4, %edx
  52      0000
  53 0091 83EC04   		subl	$4, %esp
  54              		.cfi_def_cfa_offset 432
  55 0094 01050000 		addl	%eax, _nextcnt
  55      0000
  56 009a A1000000 		movl	__imp___iob, %eax
  56      00
  57 009f 11150400 		adcl	%edx, _nextcnt+4
  57      0000
  58 00a5 83C020   		addl	$32, %eax
  59 00a8 890424   		movl	%eax, (%esp)
  60 00ab E8000000 		call	_fflush
  60      00
  61 00b0 81C4AC01 		addl	$428, %esp
  61      0000
  62              		.cfi_remember_state
  63              		.cfi_def_cfa_offset 4
  64 00b6 C3       		ret
  65              	L6:
  66              		.cfi_restore_state
  67 00b7 C7042400 		movl	$LC0, (%esp)
  67      000000
  68 00be E8000000 		call	_puts
  68      00
  69 00c3 C7042401 		movl	$1, (%esp)
  69      000000
  70 00ca E8000000 		call	_exit
  70      00
  71              	L7:
  72 00cf C704243C 		movl	$LC2, (%esp)
  72      000000
GAS LISTING /cygdrive/c/Users/pc/AppData/Local/Temp/cc6f88se.s 			page 3


  73 00d6 E8000000 		call	_printf
  73      00
  74 00db C7042401 		movl	$1, (%esp)
  74      000000
  75 00e2 E8000000 		call	_exit
  75      00
  76              		.cfi_endproc
  77              	LFE28:
  78 00e7 90909090 		.section	.text$ChkIntSources,"x"
  78      90909090 
  78      90
  79              		.p2align 4,,15
  80              		.globl	_ChkIntSources
  81              		.def	_ChkIntSources;	.scl	2;	.type	32;	.endef
  82              	_ChkIntSources:
  83              	LFB29:
  84              		.cfi_startproc
  85 0000 83EC2C   		subl	$44, %esp
  86              		.cfi_def_cfa_offset 48
  87 0003 E8000000 		call	_sd_lld_interrupt_pending
  87      00
  88 0008 84C0     		testb	%al, %al
  89 000a 755E     		jne	L25
  90 000c 8D442418 		leal	24(%esp), %eax
  91 0010 890424   		movl	%eax, (%esp)
  92 0013 E8000000 		call	_QueryPerformanceCounter@4
  92      00
  93              		.cfi_def_cfa_offset 44
  94 0018 8B150400 		movl	_nextcnt+4, %edx
  94      0000
  95 001e A1000000 		movl	_nextcnt, %eax
  95      00
  96 0023 83EC04   		subl	$4, %esp
  97              		.cfi_def_cfa_offset 48
  98 0026 3954241C 		cmpl	%edx, 28(%esp)
  99 002a 7D04     		jge	L26
 100              	L8:
 101 002c 83C42C   		addl	$44, %esp
 102              		.cfi_remember_state
 103              		.cfi_def_cfa_offset 4
 104 002f C3       		ret
 105              		.p2align 4,,7
 106              	L26:
 107              		.cfi_restore_state
 108 0030 7F06     		jg	L15
 109 0032 39442418 		cmpl	%eax, 24(%esp)
 110              		.p2align 4,,5
 111 0036 76F4     		jbe	L8
 112              	L15:
 113 0038 03050000 		addl	_slice, %eax
 113      0000
 114 003e 13150400 		adcl	_slice+4, %edx
 114      0000
 115 0044 A3000000 		movl	%eax, _nextcnt
 115      00
 116 0049 89150400 		movl	%edx, _nextcnt+4
 116      0000
GAS LISTING /cygdrive/c/Users/pc/AppData/Local/Temp/cc6f88se.s 			page 4


 117 004f E8000000 		call	_dbg_check_enter_isr
 117      00
 118 0054 E8000000 		call	_dbg_check_lock_from_isr
 118      00
 119 0059 E8000000 		call	_chSysTimerHandlerI
 119      00
 120 005e 6690     		.p2align 4,,5
 121 0060 E8000000 		call	_dbg_check_unlock_from_isr
 121      00
 122              		.p2align 4,,5
 123 0065 E8000000 		call	_dbg_check_leave_isr
 123      00
 124              	L25:
 125              		.p2align 4,,5
 126 006a E8000000 		call	_dbg_check_lock
 126      00
 127 006f 90       		.p2align 4,,5
 128 0070 E8000000 		call	_chSchIsPreemptionRequired
 128      00
 129 0075 84C0     		testb	%al, %al
 130              		.p2align 4,,3
 131 0077 7509     		jne	L27
 132              		.p2align 4,,6
 133 0079 E8000000 		call	_dbg_check_unlock
 133      00
 134              	L28:
 135 007e 83C42C   		addl	$44, %esp
 136              		.cfi_remember_state
 137              		.cfi_def_cfa_offset 4
 138              		.p2align 4,,3
 139 0081 C3       		ret
 140              		.p2align 4,,7
 141              	L27:
 142              		.cfi_restore_state
 143 0082 E8000000 		call	_chSchDoReschedule
 143      00
 144              		.p2align 4,,6
 145 0087 E8000000 		call	_dbg_check_unlock
 145      00
 146 008c 8D742600 		.p2align 4,,5
 147 0090 EBEC     		jmp	L28
 148              		.cfi_endproc
 149              	LFE29:
 150 0092 90909090 		.section	.data$slice,"w"
 150      90909090 
 150      90909090 
 150      9090
 151              		.align 8
 152              	_slice:
 153 0000 00000000 		.space 8
 153      00000000 
 154              		.section	.data$nextcnt,"w"
 155              		.align 8
 156              	_nextcnt:
 157 0000 00000000 		.space 8
 157      00000000 
 158              		.def	_puts;	.scl	2;	.type	32;	.endef
GAS LISTING /cygdrive/c/Users/pc/AppData/Local/Temp/cc6f88se.s 			page 5


 159              		.def	_WSAStartup@8;	.scl	2;	.type	32;	.endef
 160              		.def	_QueryPerformanceFrequency@4;	.scl	2;	.type	32;	.endef
 161              		.def	_QueryPerformanceCounter@4;	.scl	2;	.type	32;	.endef
 162              		.def	_fflush;	.scl	2;	.type	32;	.endef
 163              		.def	_exit;	.scl	2;	.type	32;	.endef
 164              		.def	_printf;	.scl	2;	.type	32;	.endef
 165              		.def	_sd_lld_interrupt_pending;	.scl	2;	.type	32;	.endef
 166              		.def	_dbg_check_enter_isr;	.scl	2;	.type	32;	.endef
 167              		.def	_dbg_check_lock_from_isr;	.scl	2;	.type	32;	.endef
 168              		.def	_chSysTimerHandlerI;	.scl	2;	.type	32;	.endef
 169              		.def	_dbg_check_unlock_from_isr;	.scl	2;	.type	32;	.endef
 170              		.def	_dbg_check_leave_isr;	.scl	2;	.type	32;	.endef
 171              		.def	_dbg_check_lock;	.scl	2;	.type	32;	.endef
 172              		.def	_chSchIsPreemptionRequired;	.scl	2;	.type	32;	.endef
 173              		.def	_dbg_check_unlock;	.scl	2;	.type	32;	.endef
 174              		.def	_chSchDoReschedule;	.scl	2;	.type	32;	.endef
GAS LISTING /cygdrive/c/Users/pc/AppData/Local/Temp/cc6f88se.s 			page 6

