GAS LISTING /cygdrive/c/Users/pc/AppData/Local/Temp/ccQzH5T4.s 			page 1


   1              		.file	"interpolation.cpp"
   2              		.section	.text$_ZN17FastInterpolationC2Ev,"x"
   3              		.align 2
   4              		.p2align 4,,15
   5              		.globl	__ZN17FastInterpolationC2Ev
   6              		.def	__ZN17FastInterpolationC2Ev;	.scl	2;	.type	32;	.endef
   7              	__ZN17FastInterpolationC2Ev:
   8              	LFB56:
   9              		.cfi_startproc
  10 0000 C7010000 		movl	$0x3f800000, (%ecx)
  10      803F
  11 0006 C7410400 		movl	$0x00000000, 4(%ecx)
  11      000000
  12 000d C3       		ret
  13              		.cfi_endproc
  14              	LFE56:
  15              		.globl	__ZN17FastInterpolationC1Ev
  16              		.def	__ZN17FastInterpolationC1Ev;	.scl	2;	.type	32;	.endef
  17              		.set	__ZN17FastInterpolationC1Ev,__ZN17FastInterpolationC2Ev
  18 000e 9090     		.section .rdata,"dr"
  19              		.align 4
  20              	LC2:
  21 0000 696E6974 		.ascii "init: Same x1 and x2 in interpolate: %f/%f\0"
  21      3A205361 
  21      6D652078 
  21      3120616E 
  21      64207832 
  22              		.section	.text$_ZN17FastInterpolation4initEffff,"x"
  23              		.align 2
  24              		.p2align 4,,15
  25              		.globl	__ZN17FastInterpolation4initEffff
  26              		.def	__ZN17FastInterpolation4initEffff;	.scl	2;	.type	32;	.endef
  27              	__ZN17FastInterpolation4initEffff:
  28              	LFB61:
  29              		.cfi_startproc
  30 0000 83EC2C   		subl	$44, %esp
  31              		.cfi_def_cfa_offset 48
  32 0003 D9442430 		flds	48(%esp)
  33 0007 D9442434 		flds	52(%esp)
  34 000b D9442438 		flds	56(%esp)
  35 000f D9CA     		fxch	%st(2)
  36 0011 DBEA     		fucomi	%st(2), %st
  37 0013 7B1D     		jnp	L9
  38              	L3:
  39 0015 D944243C 		flds	60(%esp)
  40 0019 D8EA     		fsubr	%st(2), %st
  41 001b D9CB     		fxch	%st(3)
  42 001d D8E9     		fsubr	%st(1), %st
  43 001f DEFB     		fdivrp	%st, %st(3)
  44 0021 D9CA     		fxch	%st(2)
  45 0023 D911     		fsts	(%ecx)
  46 0025 DECA     		fmulp	%st, %st(2)
  47 0027 DEE1     		fsubp	%st, %st(1)
  48 0029 D95904   		fstps	4(%ecx)
  49 002c 83C42C   		addl	$44, %esp
  50              		.cfi_remember_state
  51              		.cfi_def_cfa_offset 4
GAS LISTING /cygdrive/c/Users/pc/AppData/Local/Temp/ccQzH5T4.s 			page 2


  52 002f C21000   		ret	$16
  53              		.p2align 4,,7
  54              	L9:
  55              		.cfi_restore_state
  56 0032 75E1     		jne	L3
  57 0034 DDD9     		fstp	%st(1)
  58 0036 D9C9     		fxch	%st(1)
  59 0038 DD5C240C 		fstpl	12(%esp)
  60 003c C7042400 		movl	$LC2, (%esp)
  60      000000
  61 0043 DD5C2404 		fstpl	4(%esp)
  62 0047 E8000000 		call	_firmwareError
  62      00
  63 004c 83C42C   		addl	$44, %esp
  64              		.cfi_def_cfa_offset 4
  65 004f C21000   		ret	$16
  66              		.cfi_endproc
  67              	LFE61:
  68 0052 90909090 		.section	.text$_ZN17FastInterpolationC2Effff,"x"
  68      90909090 
  68      90909090 
  68      9090
  69              		.align 2
  70              		.p2align 4,,15
  71              		.globl	__ZN17FastInterpolationC2Effff
  72              		.def	__ZN17FastInterpolationC2Effff;	.scl	2;	.type	32;	.endef
  73              	__ZN17FastInterpolationC2Effff:
  74              	LFB59:
  75              		.cfi_startproc
  76 0000 E9000000 		jmp	__ZN17FastInterpolation4initEffff
  76      00
  77              		.cfi_def_cfa_offset -12
  78              		.cfi_endproc
  79              	LFE59:
  80              		.globl	__ZN17FastInterpolationC1Effff
  81              		.def	__ZN17FastInterpolationC1Effff;	.scl	2;	.type	32;	.endef
  82              		.set	__ZN17FastInterpolationC1Effff,__ZN17FastInterpolationC2Effff
  83 0005 90909090 		.section	.text$_ZN17FastInterpolation8getValueEf,"x"
  83      90909090 
  83      909090
  84              		.align 2
  85              		.p2align 4,,15
  86              		.globl	__ZN17FastInterpolation8getValueEf
  87              		.def	__ZN17FastInterpolation8getValueEf;	.scl	2;	.type	32;	.endef
  88              	__ZN17FastInterpolation8getValueEf:
  89              	LFB62:
  90              		.cfi_startproc
  91 0000 D9442404 		flds	4(%esp)
  92 0004 D809     		fmuls	(%ecx)
  93 0006 D84104   		fadds	4(%ecx)
  94 0009 C20400   		ret	$4
  95              		.cfi_endproc
  96              	LFE62:
  97 000c 90909090 		.section .rdata,"dr"
  98 002b 00       		.align 4
  99              	LC4:
 100 002c 696E7465 		.ascii "interpolate: Same x1 and x2 in interpolate: %f/%f\0"
GAS LISTING /cygdrive/c/Users/pc/AppData/Local/Temp/ccQzH5T4.s 			page 3


 100      72706F6C 
 100      6174653A 
 100      2053616D 
 100      65207831 
 101              		.section	.text$_Z11interpolatefffff,"x"
 102              		.p2align 4,,15
 103              		.globl	__Z11interpolatefffff
 104              		.def	__Z11interpolatefffff;	.scl	2;	.type	32;	.endef
 105              	__Z11interpolatefffff:
 106              	LFB63:
 107              		.cfi_startproc
 108 0000 83EC2C   		subl	$44, %esp
 109              		.cfi_def_cfa_offset 48
 110 0003 D9442430 		flds	48(%esp)
 111 0007 D9442434 		flds	52(%esp)
 112 000b D9442438 		flds	56(%esp)
 113 000f D9CA     		fxch	%st(2)
 114 0011 DBEA     		fucomi	%st(2), %st
 115 0013 7B1E     		jnp	L18
 116              	L13:
 117 0015 D944243C 		flds	60(%esp)
 118 0019 D8EA     		fsubr	%st(2), %st
 119 001b D9CB     		fxch	%st(3)
 120 001d D8E9     		fsubr	%st(1), %st
 121 001f DEFB     		fdivrp	%st, %st(3)
 122 0021 D9442440 		flds	64(%esp)
 123 0025 83C42C   		addl	$44, %esp
 124              		.cfi_remember_state
 125              		.cfi_def_cfa_offset 4
 126 0028 D8CB     		fmul	%st(3), %st
 127 002a D9CB     		fxch	%st(3)
 128 002c DEC9     		fmulp	%st, %st(1)
 129 002e DEE9     		fsubrp	%st, %st(1)
 130 0030 DEC1     		faddp	%st, %st(1)
 131 0032 C3       		ret
 132              		.p2align 4,,7
 133              	L18:
 134              		.cfi_restore_state
 135 0033 75E0     		jne	L13
 136 0035 DDD9     		fstp	%st(1)
 137 0037 D9C9     		fxch	%st(1)
 138 0039 DD5C2410 		fstpl	16(%esp)
 139 003d C7442404 		movl	$LC4, 4(%esp)
 139      2C000000 
 140 0045 DD5C2408 		fstpl	8(%esp)
 141 0049 C704245E 		movl	$606, (%esp)
 141      020000
 142 0050 E8000000 		call	_warning
 142      00
 143 0055 D9051C01 		flds	LC3
 143      0000
 144 005b 83C42C   		addl	$44, %esp
 145              		.cfi_def_cfa_offset 4
 146 005e C3       		ret
 147              		.cfi_endproc
 148              	LFE63:
 149 005f 90       		.section .rdata,"dr"
GAS LISTING /cygdrive/c/Users/pc/AppData/Local/Temp/ccQzH5T4.s 			page 4


 150              	LC5:
 151 005e 4E614E20 		.ascii "NaN in findIndex\0"
 151      696E2066 
 151      696E6449 
 151      6E646578 
 151      00
 152              	LC6:
 153 006f 53697A65 		.ascii "Size not power of 2\0"
 153      206E6F74 
 153      20706F77 
 153      6572206F 
 153      66203200 
 154              		.section	.text$_Z10findIndex2PKfjf,"x"
 155              		.p2align 4,,15
 156              		.globl	__Z10findIndex2PKfjf
 157              		.def	__Z10findIndex2PKfjf;	.scl	2;	.type	32;	.endef
 158              	__Z10findIndex2PKfjf:
 159              	LFB64:
 160              		.cfi_startproc
 161 0000 56       		pushl	%esi
 162              		.cfi_def_cfa_offset 8
 163              		.cfi_offset 6, -8
 164 0001 53       		pushl	%ebx
 165              		.cfi_def_cfa_offset 12
 166              		.cfi_offset 3, -12
 167 0002 83EC14   		subl	$20, %esp
 168              		.cfi_def_cfa_offset 32
 169 0005 817C2428 		cmpl	$2143289344, 40(%esp)
 169      0000C07F 
 170 000d 8B5C2420 		movl	32(%esp), %ebx
 171 0011 8B4C2424 		movl	36(%esp), %ecx
 172 0015 7459     		je	L22
 173 0017 83F901   		cmpl	$1, %ecx
 174 001a 7654     		jbe	L22
 175 001c 89CA     		movl	%ecx, %edx
 176 001e 31C0     		xorl	%eax, %eax
 177 0020 D1EA     		shrl	%edx
 178 0022 8D3412   		leal	(%edx,%edx), %esi
 179 0025 39CE     		cmpl	%ecx, %esi
 180 0027 755B     		jne	L32
 181 0029 8DB42600 		.p2align 4,,7
 181      000000
 182              	L29:
 183 0030 89C1     		movl	%eax, %ecx
 184 0032 09D1     		orl	%edx, %ecx
 185 0034 D9048B   		flds	(%ebx,%ecx,4)
 186 0037 D9442428 		flds	40(%esp)
 187 003b DFE9     		fucomip	%st(1), %st
 188 003d DDD8     		fstp	%st(0)
 189 003f 7202     		jb	L24
 190 0041 89C8     		movl	%ecx, %eax
 191              	L24:
 192 0043 D1EA     		shrl	%edx
 193 0045 75E9     		jne	L29
 194 0047 85C0     		testl	%eax, %eax
 195 0049 7406     		je	L33
 196              	L21:
GAS LISTING /cygdrive/c/Users/pc/AppData/Local/Temp/ccQzH5T4.s 			page 5


 197 004b 83C414   		addl	$20, %esp
 198              		.cfi_remember_state
 199              		.cfi_def_cfa_offset 12
 200 004e 5B       		popl	%ebx
 201              		.cfi_restore 3
 202              		.cfi_def_cfa_offset 8
 203 004f 5E       		popl	%esi
 204              		.cfi_restore 6
 205              		.cfi_def_cfa_offset 4
 206 0050 C3       		ret
 207              		.p2align 4,,7
 208              	L33:
 209              		.cfi_restore_state
 210 0051 D903     		flds	(%ebx)
 211 0053 BAFFFFFF 		movl	$-1, %edx
 211      FF
 212 0058 D9442428 		flds	40(%esp)
 213 005c DFE9     		fucomip	%st(1), %st
 214 005e DDD8     		fstp	%st(0)
 215 0060 0F42C2   		cmovb	%edx, %eax
 216 0063 83C414   		addl	$20, %esp
 217              		.cfi_remember_state
 218              		.cfi_def_cfa_offset 12
 219 0066 5B       		popl	%ebx
 220              		.cfi_restore 3
 221              		.cfi_def_cfa_offset 8
 222 0067 5E       		popl	%esi
 223              		.cfi_restore 6
 224              		.cfi_def_cfa_offset 4
 225 0068 C3       		ret
 226 0069 8DB42600 		.p2align 4,,7
 226      000000
 227              	L22:
 228              		.cfi_restore_state
 229 0070 C704245E 		movl	$LC5, (%esp)
 229      000000
 230 0077 E8000000 		call	_firmwareError
 230      00
 231 007c 83C414   		addl	$20, %esp
 232              		.cfi_remember_state
 233              		.cfi_def_cfa_offset 12
 234 007f 31C0     		xorl	%eax, %eax
 235 0081 5B       		popl	%ebx
 236              		.cfi_restore 3
 237              		.cfi_def_cfa_offset 8
 238 0082 5E       		popl	%esi
 239              		.cfi_restore 6
 240              		.cfi_def_cfa_offset 4
 241 0083 C3       		ret
 242              	L32:
 243              		.cfi_restore_state
 244 0084 C704246F 		movl	$LC6, (%esp)
 244      000000
 245 008b E8000000 		call	_firmwareError
 245      00
 246 0090 B8FFFFFF 		movl	$-1, %eax
 246      FF
GAS LISTING /cygdrive/c/Users/pc/AppData/Local/Temp/ccQzH5T4.s 			page 6


 247 0095 EBB4     		jmp	L21
 248              		.cfi_endproc
 249              	LFE64:
 250 0097 90909090 		.section	.text$_Z9findIndexPKfif,"x"
 250      90909090 
 250      90
 251              		.p2align 4,,15
 252              		.globl	__Z9findIndexPKfif
 253              		.def	__Z9findIndexPKfif;	.scl	2;	.type	32;	.endef
 254              	__Z9findIndexPKfif:
 255              	LFB65:
 256              		.cfi_startproc
 257 0000 56       		pushl	%esi
 258              		.cfi_def_cfa_offset 8
 259              		.cfi_offset 6, -8
 260 0001 53       		pushl	%ebx
 261              		.cfi_def_cfa_offset 12
 262              		.cfi_offset 3, -12
 263 0002 83EC14   		subl	$20, %esp
 264              		.cfi_def_cfa_offset 32
 265 0005 817C2428 		cmpl	$2143289344, 40(%esp)
 265      0000C07F 
 266 000d 8B742420 		movl	32(%esp), %esi
 267 0011 7452     		je	L45
 268 0013 D906     		flds	(%esi)
 269 0015 D9442428 		flds	40(%esp)
 270 0019 D9C9     		fxch	%st(1)
 271 001b DFE9     		fucomip	%st(1), %st
 272 001d DDD8     		fstp	%st(0)
 273 001f 7754     		ja	L39
 274 0021 8B5C2424 		movl	36(%esp), %ebx
 275 0025 31C9     		xorl	%ecx, %ecx
 276 0027 EB0D     		jmp	L43
 277 0029 8DB42600 		.p2align 4,,7
 277      000000
 278              	L40:
 279 0030 DDD8     		fstp	%st(0)
 280 0032 DDD8     		fstp	%st(0)
 281 0034 89D3     		movl	%edx, %ebx
 282              	L43:
 283 0036 8D040B   		leal	(%ebx,%ecx), %eax
 284 0039 89C2     		movl	%eax, %edx
 285 003b C1EA1F   		shrl	$31, %edx
 286 003e 01C2     		addl	%eax, %edx
 287 0040 D1FA     		sarl	%edx
 288 0042 39CA     		cmpl	%ecx, %edx
 289 0044 89D0     		movl	%edx, %eax
 290 0046 7417     		je	L36
 291 0048 D90496   		flds	(%esi,%edx,4)
 292 004b D9442428 		flds	40(%esp)
 293 004f D9C9     		fxch	%st(1)
 294 0051 DBE9     		fucomi	%st(1), %st
 295 0053 77DB     		ja	L40
 296 0055 D9C9     		fxch	%st(1)
 297 0057 DFE9     		fucomip	%st(1), %st
 298 0059 DDD8     		fstp	%st(0)
 299 005b 89D1     		movl	%edx, %ecx
GAS LISTING /cygdrive/c/Users/pc/AppData/Local/Temp/ccQzH5T4.s 			page 7


 300 005d 77D7     		ja	L43
 301              	L36:
 302 005f 83C414   		addl	$20, %esp
 303              		.cfi_remember_state
 304              		.cfi_def_cfa_offset 12
 305 0062 5B       		popl	%ebx
 306              		.cfi_restore 3
 307              		.cfi_def_cfa_offset 8
 308 0063 5E       		popl	%esi
 309              		.cfi_restore 6
 310              		.cfi_def_cfa_offset 4
 311 0064 C3       		ret
 312              	L45:
 313              		.cfi_restore_state
 314 0065 C704245E 		movl	$LC5, (%esp)
 314      000000
 315 006c E8000000 		call	_firmwareError
 315      00
 316 0071 31C0     		xorl	%eax, %eax
 317 0073 EBEA     		jmp	L36
 318              	L39:
 319 0075 B8FFFFFF 		movl	$-1, %eax
 319      FF
 320 007a EBE3     		jmp	L36
 321              		.cfi_endproc
 322              	LFE65:
 323 007c 90909090 		.section .rdata,"dr"
 324              	LC7:
 325 0083 666F7220 		.ascii "for v=%d old=%d ticks\0"
 325      763D2564 
 325      206F6C64 
 325      3D256420 
 325      7469636B 
 326              	LC8:
 327 0099 666F7220 		.ascii "for v=%d new=%d ticks\0"
 327      763D2564 
 327      206E6577 
 327      3D256420 
 327      7469636B 
 328              	LC9:
 329 00af 746F7461 		.ascii "totalOld=%d ticks\0"
 329      6C4F6C64 
 329      3D256420 
 329      7469636B 
 329      7300
 330              	LC10:
 331 00c1 746F7461 		.ascii "totalNew=%d ticks\0"
 331      6C4E6577 
 331      3D256420 
 331      7469636B 
 331      7300
 332              		.section	.text$_ZL10testBinaryv,"x"
 333              		.p2align 4,,15
 334              		.def	__ZL10testBinaryv;	.scl	3;	.type	32;	.endef
 335              	__ZL10testBinaryv:
 336              	LFB54:
 337              		.cfi_startproc
GAS LISTING /cygdrive/c/Users/pc/AppData/Local/Temp/ccQzH5T4.s 			page 8


 338 0000 56       		pushl	%esi
 339              		.cfi_def_cfa_offset 8
 340              		.cfi_offset 6, -8
 341 0001 31F6     		xorl	%esi, %esi
 342 0003 53       		pushl	%ebx
 343              		.cfi_def_cfa_offset 12
 344              		.cfi_offset 3, -12
 345 0004 83EC24   		subl	$36, %esp
 346              		.cfi_def_cfa_offset 48
 347              		.p2align 4,,7
 348              	L47:
 349 0007 8974241C 		movl	%esi, 28(%esp)
 350 000b BB102700 		movl	$10000, %ebx
 350      00
 351 0010 DB44241C 		fildl	28(%esp)
 352 0014 D95C2418 		fstps	24(%esp)
 353              		.p2align 4,,7
 354              	L48:
 355 0018 D9442418 		flds	24(%esp)
 356 001c D95C2408 		fstps	8(%esp)
 357 0020 C7442404 		movl	$16, 4(%esp)
 357      10000000 
 358 0028 C7042400 		movl	$_array16, (%esp)
 358      000000
 359 002f E8000000 		call	__Z9findIndexPKfif
 359      00
 360 0034 83EB01   		subl	$1, %ebx
 361 0037 75DF     		jne	L48
 362 0039 BB102700 		movl	$10000, %ebx
 362      00
 363 003e 6690     		.p2align 4,,7
 364              	L49:
 365 0040 D9442418 		flds	24(%esp)
 366 0044 D95C2408 		fstps	8(%esp)
 367 0048 C7442404 		movl	$16, 4(%esp)
 367      10000000 
 368 0050 C7042400 		movl	$_array16, (%esp)
 368      000000
 369 0057 E8000000 		call	__Z10findIndex2PKfjf
 369      00
 370 005c 83EB01   		subl	$1, %ebx
 371 005f 75DF     		jne	L49
 372 0061 A1000000 		movl	_logger, %eax
 372      00
 373 0066 89742408 		movl	%esi, 8(%esp)
 374 006a C744240C 		movl	$0, 12(%esp)
 374      00000000 
 375 0072 C7442404 		movl	$LC7, 4(%esp)
 375      83000000 
 376 007a 890424   		movl	%eax, (%esp)
 377 007d E8000000 		call	__Z11scheduleMsgP7LoggingPKcz
 377      00
 378 0082 A1000000 		movl	_logger, %eax
 378      00
 379 0087 89742408 		movl	%esi, 8(%esp)
 380 008b 83C601   		addl	$1, %esi
 381 008e C744240C 		movl	$0, 12(%esp)
GAS LISTING /cygdrive/c/Users/pc/AppData/Local/Temp/ccQzH5T4.s 			page 9


 381      00000000 
 382 0096 C7442404 		movl	$LC8, 4(%esp)
 382      99000000 
 383 009e 890424   		movl	%eax, (%esp)
 384 00a1 E8000000 		call	__Z11scheduleMsgP7LoggingPKcz
 384      00
 385 00a6 83FE11   		cmpl	$17, %esi
 386 00a9 0F8558FF 		jne	L47
 386      FFFF
 387 00af A1000000 		movl	_logger, %eax
 387      00
 388 00b4 C7442408 		movl	$0, 8(%esp)
 388      00000000 
 389 00bc C7442404 		movl	$LC9, 4(%esp)
 389      AF000000 
 390 00c4 890424   		movl	%eax, (%esp)
 391 00c7 E8000000 		call	__Z11scheduleMsgP7LoggingPKcz
 391      00
 392 00cc A1000000 		movl	_logger, %eax
 392      00
 393 00d1 C7442408 		movl	$0, 8(%esp)
 393      00000000 
 394 00d9 C7442404 		movl	$LC10, 4(%esp)
 394      C1000000 
 395 00e1 890424   		movl	%eax, (%esp)
 396 00e4 E8000000 		call	__Z11scheduleMsgP7LoggingPKcz
 396      00
 397 00e9 83C424   		addl	$36, %esp
 398              		.cfi_def_cfa_offset 12
 399 00ec 5B       		popl	%ebx
 400              		.cfi_restore 3
 401              		.cfi_def_cfa_offset 8
 402 00ed 5E       		popl	%esi
 403              		.cfi_restore 6
 404              		.cfi_def_cfa_offset 4
 405 00ee C3       		ret
 406              		.cfi_endproc
 407              	LFE54:
 408 00ef 90       		.section	.text$_Z13interpolate2dfPfS_i,"x"
 409              		.p2align 4,,15
 410              		.globl	__Z13interpolate2dfPfS_i
 411              		.def	__Z13interpolate2dfPfS_i;	.scl	2;	.type	32;	.endef
 412              	__Z13interpolate2dfPfS_i:
 413              	LFB66:
 414              		.cfi_startproc
 415 0000 83EC2C   		subl	$44, %esp
 416              		.cfi_def_cfa_offset 48
 417 0003 895C2420 		movl	%ebx, 32(%esp)
 418              		.cfi_offset 3, -16
 419 0007 8B5C2434 		movl	52(%esp), %ebx
 420 000b 89742424 		movl	%esi, 36(%esp)
 421              		.cfi_offset 6, -12
 422 000f 8B74243C 		movl	60(%esp), %esi
 423 0013 D9442430 		flds	48(%esp)
 424 0017 D95C2408 		fstps	8(%esp)
 425 001b 891C24   		movl	%ebx, (%esp)
 426 001e 89742404 		movl	%esi, 4(%esp)
GAS LISTING /cygdrive/c/Users/pc/AppData/Local/Temp/ccQzH5T4.s 			page 10


 427 0022 897C2428 		movl	%edi, 40(%esp)
 428              		.cfi_offset 7, -8
 429 0026 8B7C2438 		movl	56(%esp), %edi
 430 002a E8000000 		call	__Z9findIndexPKfif
 430      00
 431 002f 83F8FF   		cmpl	$-1, %eax
 432 0032 745C     		je	L59
 433 0034 83EE01   		subl	$1, %esi
 434 0037 39C6     		cmpl	%eax, %esi
 435 0039 743B     		je	L60
 436 003b D9442430 		flds	48(%esp)
 437 003f 8D5001   		leal	1(%eax), %edx
 438 0042 D95C2410 		fstps	16(%esp)
 439 0046 D90497   		flds	(%edi,%edx,4)
 440 0049 D95C240C 		fstps	12(%esp)
 441 004d D90493   		flds	(%ebx,%edx,4)
 442 0050 D95C2408 		fstps	8(%esp)
 443 0054 D90487   		flds	(%edi,%eax,4)
 444 0057 D95C2404 		fstps	4(%esp)
 445 005b D90483   		flds	(%ebx,%eax,4)
 446 005e D91C24   		fstps	(%esp)
 447 0061 E8000000 		call	__Z11interpolatefffff
 447      00
 448 0066 8B5C2420 		movl	32(%esp), %ebx
 449 006a 8B742424 		movl	36(%esp), %esi
 450 006e 8B7C2428 		movl	40(%esp), %edi
 451 0072 83C42C   		addl	$44, %esp
 452              		.cfi_remember_state
 453              		.cfi_restore 7
 454              		.cfi_restore 6
 455              		.cfi_restore 3
 456              		.cfi_def_cfa_offset 4
 457 0075 C3       		ret
 458              		.p2align 4,,7
 459              	L60:
 460              		.cfi_restore_state
 461 0076 D904B7   		flds	(%edi,%esi,4)
 462 0079 8B5C2420 		movl	32(%esp), %ebx
 463 007d 8B742424 		movl	36(%esp), %esi
 464 0081 8B7C2428 		movl	40(%esp), %edi
 465 0085 83C42C   		addl	$44, %esp
 466              		.cfi_remember_state
 467              		.cfi_restore 3
 468              		.cfi_restore 6
 469              		.cfi_restore 7
 470              		.cfi_def_cfa_offset 4
 471 0088 C3       		ret
 472 0089 8DB42600 		.p2align 4,,7
 472      000000
 473              	L59:
 474              		.cfi_restore_state
 475 0090 D907     		flds	(%edi)
 476 0092 8B5C2420 		movl	32(%esp), %ebx
 477 0096 8B742424 		movl	36(%esp), %esi
 478 009a 8B7C2428 		movl	40(%esp), %edi
 479 009e 83C42C   		addl	$44, %esp
 480              		.cfi_restore 3
GAS LISTING /cygdrive/c/Users/pc/AppData/Local/Temp/ccQzH5T4.s 			page 11


 481              		.cfi_restore 6
 482              		.cfi_restore 7
 483              		.cfi_def_cfa_offset 4
 484 00a1 C3       		ret
 485              		.cfi_endproc
 486              	LFE66:
 487              		.section .rdata,"dr"
 488              	LC11:
 489 00d3 25663A20 		.ascii "%f: x is NaN in interpolate3d\0"
 489      78206973 
 489      204E614E 
 489      20696E20 
 489      696E7465 
 490              	LC12:
 491 00f1 25663A20 		.ascii "%f: y is NaN in interpolate3d\0"
 491      79206973 
 491      204E614E 
 491      20696E20 
 491      696E7465 
 492              		.section	.text$_Z13interpolate3dfPfifS_iPS_,"x"
 493              		.p2align 4,,15
 494              		.globl	__Z13interpolate3dfPfifS_iPS_
 495              		.def	__Z13interpolate3dfPfifS_iPS_;	.scl	2;	.type	32;	.endef
 496              	__Z13interpolate3dfPfifS_iPS_:
 497              	LFB67:
 498              		.cfi_startproc
 499 0000 81EC8C00 		subl	$140, %esp
 499      0000
 500              		.cfi_def_cfa_offset 144
 501 0006 8B8C24A0 		movl	160(%esp), %ecx
 501      000000
 502 000d 895C247C 		movl	%ebx, 124(%esp)
 503              		.cfi_offset 3, -20
 504 0011 8B9C2490 		movl	144(%esp), %ebx
 504      000000
 505 0018 8B942494 		movl	148(%esp), %edx
 505      000000
 506 001f D984249C 		flds	156(%esp)
 506      000000
 507 0026 894C2468 		movl	%ecx, 104(%esp)
 508 002a 8B8C24A8 		movl	168(%esp), %ecx
 508      000000
 509 0031 D95C2460 		fstps	96(%esp)
 510 0035 81FB0000 		cmpl	$2143289344, %ebx
 510      C07F
 511 003b 89AC2488 		movl	%ebp, 136(%esp)
 511      000000
 512              		.cfi_offset 5, -8
 513 0042 8BAC24A4 		movl	164(%esp), %ebp
 513      000000
 514 0049 8954246C 		movl	%edx, 108(%esp)
 515 004d 8B942498 		movl	152(%esp), %edx
 515      000000
 516 0054 89B42480 		movl	%esi, 128(%esp)
 516      000000
 517 005b 89BC2484 		movl	%edi, 132(%esp)
 517      000000
GAS LISTING /cygdrive/c/Users/pc/AppData/Local/Temp/ccQzH5T4.s 			page 12


 518              		.cfi_offset 6, -16
 519              		.cfi_offset 7, -12
 520 0062 894C2464 		movl	%ecx, 100(%esp)
 521 0066 0F84D801 		je	L80
 521      0000
 522 006c 817C2460 		cmpl	$2143289344, 96(%esp)
 522      0000C07F 
 523 0074 0F84A601 		je	L81
 523      0000
 524 007a 8B4C246C 		movl	108(%esp), %ecx
 525 007e 89542404 		movl	%edx, 4(%esp)
 526 0082 895C2408 		movl	%ebx, 8(%esp)
 527 0086 89542450 		movl	%edx, 80(%esp)
 528 008a 890C24   		movl	%ecx, (%esp)
 529 008d E8000000 		call	__Z9findIndexPKfif
 529      00
 530 0092 8B4C2468 		movl	104(%esp), %ecx
 531 0096 896C2404 		movl	%ebp, 4(%esp)
 532 009a 890C24   		movl	%ecx, (%esp)
 533 009d D9442460 		flds	96(%esp)
 534 00a1 89C7     		movl	%eax, %edi
 535 00a3 D95C2408 		fstps	8(%esp)
 536 00a7 E8000000 		call	__Z9findIndexPKfif
 536      00
 537 00ac 89F9     		movl	%edi, %ecx
 538 00ae 8B542450 		movl	80(%esp), %edx
 539 00b2 C1E91F   		shrl	$31, %ecx
 540 00b5 89C6     		movl	%eax, %esi
 541 00b7 C1E81F   		shrl	$31, %eax
 542 00ba 84C0     		testb	%al, %al
 543 00bc 0F850201 		jne	L82
 543      0000
 544 00c2 84C9     		testb	%cl, %cl
 545 00c4 0F852D01 		jne	L83
 545      0000
 546 00ca 83EA01   		subl	$1, %edx
 547 00cd 83ED01   		subl	$1, %ebp
 548 00d0 39FA     		cmpl	%edi, %edx
 549 00d2 0F843801 		je	L84
 549      0000
 550 00d8 39F5     		cmpl	%esi, %ebp
 551 00da 0F849001 		je	L78
 551      0000
 552 00e0 8B54246C 		movl	108(%esp), %edx
 553 00e4 8D6F01   		leal	1(%edi), %ebp
 554 00e7 8B4C2464 		movl	100(%esp), %ecx
 555 00eb D904BA   		flds	(%edx,%edi,4)
 556 00ee D904AA   		flds	(%edx,%ebp,4)
 557 00f1 8D3CB9   		leal	(%ecx,%edi,4), %edi
 558 00f4 895C2410 		movl	%ebx, 16(%esp)
 559 00f8 8B04A9   		movl	(%ecx,%ebp,4), %eax
 560 00fb D904B0   		flds	(%eax,%esi,4)
 561 00fe D95C240C 		fstps	12(%esp)
 562 0102 D9542408 		fsts	8(%esp)
 563 0106 8B07     		movl	(%edi), %eax
 564 0108 D904B0   		flds	(%eax,%esi,4)
 565 010b D95C2404 		fstps	4(%esp)
GAS LISTING /cygdrive/c/Users/pc/AppData/Local/Temp/ccQzH5T4.s 			page 13


 566 010f D9C9     		fxch	%st(1)
 567 0111 D91424   		fsts	(%esp)
 568 0114 D95C2450 		fstps	80(%esp)
 569 0118 D95C2440 		fstps	64(%esp)
 570 011c E8000000 		call	__Z11interpolatefffff
 570      00
 571 0121 8B542468 		movl	104(%esp), %edx
 572 0125 8B4C2464 		movl	100(%esp), %ecx
 573 0129 D904B2   		flds	(%edx,%esi,4)
 574 012c 83C601   		addl	$1, %esi
 575 012f D904B2   		flds	(%edx,%esi,4)
 576 0132 895C2410 		movl	%ebx, 16(%esp)
 577 0136 8B04A9   		movl	(%ecx,%ebp,4), %eax
 578 0139 D904B0   		flds	(%eax,%esi,4)
 579 013c D95C240C 		fstps	12(%esp)
 580 0140 D9442440 		flds	64(%esp)
 581 0144 D95C2408 		fstps	8(%esp)
 582 0148 8B07     		movl	(%edi), %eax
 583 014a D904B0   		flds	(%eax,%esi,4)
 584 014d D95C2404 		fstps	4(%esp)
 585 0151 D9442450 		flds	80(%esp)
 586 0155 D91C24   		fstps	(%esp)
 587 0158 D9C9     		fxch	%st(1)
 588 015a D95C2440 		fstps	64(%esp)
 589 015e D9C9     		fxch	%st(1)
 590 0160 D95C2450 		fstps	80(%esp)
 591 0164 D95C2430 		fstps	48(%esp)
 592 0168 E8000000 		call	__Z11interpolatefffff
 592      00
 593 016d D9442460 		flds	96(%esp)
 594 0171 D99C24A0 		fstps	160(%esp)
 594      000000
 595 0178 D99C249C 		fstps	156(%esp)
 595      000000
 596 017f D9442430 		flds	48(%esp)
 597 0183 D99C2498 		fstps	152(%esp)
 597      000000
 598 018a D9442450 		flds	80(%esp)
 599 018e D99C2494 		fstps	148(%esp)
 599      000000
 600 0195 D9442440 		flds	64(%esp)
 601 0199 D99C2490 		fstps	144(%esp)
 601      000000
 602              	L79:
 603 01a0 8B5C247C 		movl	124(%esp), %ebx
 604 01a4 8BB42480 		movl	128(%esp), %esi
 604      000000
 605 01ab 8BBC2484 		movl	132(%esp), %edi
 605      000000
 606 01b2 8BAC2488 		movl	136(%esp), %ebp
 606      000000
 607 01b9 81C48C00 		addl	$140, %esp
 607      0000
 608              		.cfi_remember_state
 609              		.cfi_restore 5
 610              		.cfi_restore 7
 611              		.cfi_restore 6
GAS LISTING /cygdrive/c/Users/pc/AppData/Local/Temp/ccQzH5T4.s 			page 14


 612              		.cfi_restore 3
 613              		.cfi_def_cfa_offset 4
 614 01bf E9000000 		jmp	__Z11interpolatefffff
 614      00
 615              		.p2align 4,,7
 616              	L82:
 617              		.cfi_restore_state
 618 01c4 84C9     		testb	%cl, %cl
 619 01c6 8B542464 		movl	100(%esp), %edx
 620 01ca 7525     		jne	L85
 621 01cc 8B04BA   		movl	(%edx,%edi,4), %eax
 622 01cf D900     		flds	(%eax)
 623              	L63:
 624 01d1 8B5C247C 		movl	124(%esp), %ebx
 625 01d5 8BB42480 		movl	128(%esp), %esi
 625      000000
 626 01dc 8BBC2484 		movl	132(%esp), %edi
 626      000000
 627 01e3 8BAC2488 		movl	136(%esp), %ebp
 627      000000
 628 01ea 81C48C00 		addl	$140, %esp
 628      0000
 629              		.cfi_remember_state
 630              		.cfi_restore 5
 631              		.cfi_restore 7
 632              		.cfi_restore 6
 633              		.cfi_restore 3
 634              		.cfi_def_cfa_offset 4
 635 01f0 C3       		ret
 636              		.p2align 4,,7
 637              	L85:
 638              		.cfi_restore_state
 639 01f1 8B02     		movl	(%edx), %eax
 640 01f3 D900     		flds	(%eax)
 641 01f5 EBDA     		jmp	L63
 642              		.p2align 4,,7
 643              	L83:
 644 01f7 83ED01   		subl	$1, %ebp
 645 01fa 39F5     		cmpl	%esi, %ebp
 646 01fc 0F857E00 		jne	L67
 646      0000
 647 0202 8B4C2464 		movl	100(%esp), %ecx
 648 0206 8B01     		movl	(%ecx), %eax
 649 0208 D904A8   		flds	(%eax,%ebp,4)
 650 020b EBC4     		jmp	L63
 651 020d 8D7600   		.p2align 4,,7
 652              	L84:
 653 0210 39F5     		cmpl	%esi, %ebp
 654 0212 745C     		je	L78
 655 0214 8B542464 		movl	100(%esp), %edx
 656 0218 8B04BA   		movl	(%edx,%edi,4), %eax
 657 021b D904B0   		flds	(%eax,%esi,4)
 658 021e EBB1     		jmp	L63
 659              		.p2align 4,,7
 660              	L81:
 661 0220 D9442460 		flds	96(%esp)
 662 0224 DD5C2408 		fstpl	8(%esp)
GAS LISTING /cygdrive/c/Users/pc/AppData/Local/Temp/ccQzH5T4.s 			page 15


 663 0228 C7442404 		movl	$LC12, 4(%esp)
 663      F1000000 
 664 0230 C704245E 		movl	$606, (%esp)
 664      020000
 665 0237 E8000000 		call	_warning
 665      00
 666 023c D9051C01 		flds	LC3
 666      0000
 667 0242 EB8D     		jmp	L63
 668              		.p2align 4,,7
 669              	L80:
 670 0244 895C242C 		movl	%ebx, 44(%esp)
 671 0248 D944242C 		flds	44(%esp)
 672 024c DD5C2408 		fstpl	8(%esp)
 673 0250 C7442404 		movl	$LC11, 4(%esp)
 673      D3000000 
 674 0258 C704245E 		movl	$606, (%esp)
 674      020000
 675 025f E8000000 		call	_warning
 675      00
 676 0264 D9051C01 		flds	LC3
 676      0000
 677 026a E962FFFF 		jmp	L63
 677      FF
 678 026f 90       		.p2align 4,,7
 679              	L78:
 680 0270 8B4C2464 		movl	100(%esp), %ecx
 681 0274 8B04B9   		movl	(%ecx,%edi,4), %eax
 682 0277 D904B0   		flds	(%eax,%esi,4)
 683 027a E952FFFF 		jmp	L63
 683      FF
 684 027f 90       		.p2align 4,,7
 685              	L67:
 686 0280 8B4C2464 		movl	100(%esp), %ecx
 687 0284 8D5601   		leal	1(%esi), %edx
 688 0287 D9442460 		flds	96(%esp)
 689 028b 8B01     		movl	(%ecx), %eax
 690 028d D99C24A0 		fstps	160(%esp)
 690      000000
 691 0294 8B4C2468 		movl	104(%esp), %ecx
 692 0298 D90490   		flds	(%eax,%edx,4)
 693 029b D99C249C 		fstps	156(%esp)
 693      000000
 694 02a2 D90491   		flds	(%ecx,%edx,4)
 695 02a5 D99C2498 		fstps	152(%esp)
 695      000000
 696 02ac D904B0   		flds	(%eax,%esi,4)
 697 02af D99C2494 		fstps	148(%esp)
 697      000000
 698 02b6 D904B1   		flds	(%ecx,%esi,4)
 699 02b9 D99C2490 		fstps	144(%esp)
 699      000000
 700 02c0 E9DBFEFF 		jmp	L79
 700      FF
 701              		.cfi_endproc
 702              	LFE67:
 703 02c5 90909090 		.section	.text$_Z13setTableValuePfS_iff,"x"
GAS LISTING /cygdrive/c/Users/pc/AppData/Local/Temp/ccQzH5T4.s 			page 16


 703      90909090 
 703      909090
 704              		.p2align 4,,15
 705              		.globl	__Z13setTableValuePfS_iff
 706              		.def	__Z13setTableValuePfS_iff;	.scl	2;	.type	32;	.endef
 707              	__Z13setTableValuePfS_iff:
 708              	LFB68:
 709              		.cfi_startproc
 710 0000 83EC1C   		subl	$28, %esp
 711              		.cfi_def_cfa_offset 32
 712 0003 8B442428 		movl	40(%esp), %eax
 713 0007 D944242C 		flds	44(%esp)
 714 000b D95C2408 		fstps	8(%esp)
 715 000f 89442404 		movl	%eax, 4(%esp)
 716 0013 8B442420 		movl	32(%esp), %eax
 717 0017 890424   		movl	%eax, (%esp)
 718 001a E8000000 		call	__Z9findIndexPKfif
 718      00
 719 001f 31D2     		xorl	%edx, %edx
 720 0021 8D0C8500 		leal	0(,%eax,4), %ecx
 720      000000
 721 0028 83F8FF   		cmpl	$-1, %eax
 722 002b 8B442424 		movl	36(%esp), %eax
 723 002f 0F45D1   		cmovne	%ecx, %edx
 724 0032 D9442430 		flds	48(%esp)
 725 0036 D91C10   		fstps	(%eax,%edx)
 726 0039 83C41C   		addl	$28, %esp
 727              		.cfi_def_cfa_offset 4
 728 003c C3       		ret
 729              		.cfi_endproc
 730              	LFE68:
 731 003d 909090   		.section .rdata,"dr"
 732              	LC13:
 733 010f 62696E61 		.ascii "binarytest\0"
 733      72797465 
 733      737400
 734              		.section	.text$_Z17initInterpolationP7Logging,"x"
 735              		.p2align 4,,15
 736              		.globl	__Z17initInterpolationP7Logging
 737              		.def	__Z17initInterpolationP7Logging;	.scl	2;	.type	32;	.endef
 738              	__Z17initInterpolationP7Logging:
 739              	LFB69:
 740              		.cfi_startproc
 741 0000 83EC1C   		subl	$28, %esp
 742              		.cfi_def_cfa_offset 32
 743 0003 8B442420 		movl	32(%esp), %eax
 744 0007 C7442404 		movl	$__ZL10testBinaryv, 4(%esp)
 744      00000000 
 745 000f C704240F 		movl	$LC13, (%esp)
 745      010000
 746 0016 A3000000 		movl	%eax, _logger
 746      00
 747 001b E8000000 		call	_addConsoleAction
 747      00
 748 0020 83C41C   		addl	$28, %esp
 749              		.cfi_def_cfa_offset 4
 750 0023 C3       		ret
GAS LISTING /cygdrive/c/Users/pc/AppData/Local/Temp/ccQzH5T4.s 			page 17


 751              		.cfi_endproc
 752              	LFE69:
 753              		.globl	_array16
 754 0024 90909090 		.section	.data$array16,"w"
 754      90909090 
 754      90909090 
 755              		.align 32
 756              	_array16:
 757 0000 0000803F 		.long	1065353216
 758 0004 00000040 		.long	1073741824
 759 0008 00004040 		.long	1077936128
 760 000c 00008040 		.long	1082130432
 761 0010 0000A040 		.long	1084227584
 762 0014 0000C040 		.long	1086324736
 763 0018 0000E040 		.long	1088421888
 764 001c 00000041 		.long	1090519040
 765 0020 00001041 		.long	1091567616
 766 0024 00002041 		.long	1092616192
 767 0028 00003041 		.long	1093664768
 768 002c 00004041 		.long	1094713344
 769 0030 00005041 		.long	1095761920
 770 0034 00006041 		.long	1096810496
 771 0038 00007041 		.long	1097859072
 772 003c 00008041 		.long	1098907648
 773              		.globl	_logger
 774              		.section	.data$logger,"w"
 775              		.align 4
 776              	_logger:
 777 0000 00000000 		.space 4
 778              		.globl	_needInterpolationLogging
 779              		.section	.data$needInterpolationLogging,"w"
 780              		.align 4
 781              	_needInterpolationLogging:
 782 0000 01000000 		.long	1
 783              		.section .rdata,"dr"
 784 011a 0000     		.align 4
 785              	LC3:
 786 011c 0000C07F 		.long	2143289344
 787              		.def	_firmwareError;	.scl	2;	.type	32;	.endef
 788              		.def	_warning;	.scl	2;	.type	32;	.endef
 789              		.def	__Z11scheduleMsgP7LoggingPKcz;	.scl	2;	.type	32;	.endef
 790              		.def	_addConsoleAction;	.scl	2;	.type	32;	.endef
GAS LISTING /cygdrive/c/Users/pc/AppData/Local/Temp/ccQzH5T4.s 			page 18

