GAS LISTING /cygdrive/c/Users/pc/AppData/Local/Temp/ccmCKIKo.s 			page 1


   1              		.file	"lcd_menu_tree.cpp"
   2              		.section	.text$_ZN8MenuTreeC2EP8MenuItem,"x"
   3              		.align 2
   4              		.p2align 4,,15
   5              		.globl	__ZN8MenuTreeC2EP8MenuItem
   6              		.def	__ZN8MenuTreeC2EP8MenuItem;	.scl	2;	.type	32;	.endef
   7              	__ZN8MenuTreeC2EP8MenuItem:
   8              	LFB1:
   9              		.cfi_startproc
  10 0000 8B442404 		movl	4(%esp), %eax
  11 0004 C7410800 		movl	$0, 8(%ecx)
  11      000000
  12 000b C7410400 		movl	$0, 4(%ecx)
  12      000000
  13 0012 C7410C00 		movl	$0, 12(%ecx)
  13      000000
  14 0019 8901     		movl	%eax, (%ecx)
  15 001b C20400   		ret	$4
  16              		.cfi_endproc
  17              	LFE1:
  18              		.globl	__ZN8MenuTreeC1EP8MenuItem
  19              		.def	__ZN8MenuTreeC1EP8MenuItem;	.scl	2;	.type	32;	.endef
  20              		.set	__ZN8MenuTreeC1EP8MenuItem,__ZN8MenuTreeC2EP8MenuItem
  21 001e 9090     		.section	.text$_ZN8MenuTree4initEP8MenuItemi,"x"
  22              		.align 2
  23              		.p2align 4,,15
  24              		.globl	__ZN8MenuTree4initEP8MenuItemi
  25              		.def	__ZN8MenuTree4initEP8MenuItemi;	.scl	2;	.type	32;	.endef
  26              	__ZN8MenuTree4initEP8MenuItemi:
  27              	LFB3:
  28              		.cfi_startproc
  29 0000 8B442404 		movl	4(%esp), %eax
  30 0004 8B542408 		movl	8(%esp), %edx
  31 0008 894108   		movl	%eax, 8(%ecx)
  32 000b 895104   		movl	%edx, 4(%ecx)
  33 000e 89410C   		movl	%eax, 12(%ecx)
  34 0011 C20800   		ret	$8
  35              		.cfi_endproc
  36              	LFE3:
  37 0014 90909090 		.section	.text$_ZN8MenuTree12enterSubMenuEv,"x"
  37      90909090 
  37      90909090 
  38              		.align 2
  39              		.p2align 4,,15
  40              		.globl	__ZN8MenuTree12enterSubMenuEv
  41              		.def	__ZN8MenuTree12enterSubMenuEv;	.scl	2;	.type	32;	.endef
  42              	__ZN8MenuTree12enterSubMenuEv:
  43              	LFB4:
  44              		.cfi_startproc
  45 0000 8B5108   		movl	8(%ecx), %edx
  46 0003 8B4214   		movl	20(%edx), %eax
  47 0006 85C0     		testl	%eax, %eax
  48 0008 7407     		je	L4
  49 000a 89410C   		movl	%eax, 12(%ecx)
  50 000d 894108   		movl	%eax, 8(%ecx)
  51 0010 C3       		ret
  52              		.p2align 4,,7
GAS LISTING /cygdrive/c/Users/pc/AppData/Local/Temp/ccmCKIKo.s 			page 2


  53              	L4:
  54 0011 8B4220   		movl	32(%edx), %eax
  55 0014 85C0     		testl	%eax, %eax
  56 0016 7408     		je	L3
  57 0018 FFE0     		jmp	*%eax
  58 001a 8DB60000 		.p2align 4,,7
  58      0000
  59              	L3:
  60 0020 F3       		rep
  61 0021 C3       		ret
  62              		.cfi_endproc
  63              	LFE4:
  64 0022 90909090 		.section	.text$_ZN8MenuTree4backEv,"x"
  64      90909090 
  64      90909090 
  64      9090
  65              		.align 2
  66              		.p2align 4,,15
  67              		.globl	__ZN8MenuTree4backEv
  68              		.def	__ZN8MenuTree4backEv;	.scl	2;	.type	32;	.endef
  69              	__ZN8MenuTree4backEv:
  70              	LFB5:
  71              		.cfi_startproc
  72 0000 8B4108   		movl	8(%ecx), %eax
  73 0003 8B400C   		movl	12(%eax), %eax
  74 0006 3B01     		cmpl	(%ecx), %eax
  75 0008 7409     		je	L10
  76 000a 8B4010   		movl	16(%eax), %eax
  77 000d 89410C   		movl	%eax, 12(%ecx)
  78 0010 894108   		movl	%eax, 8(%ecx)
  79              	L10:
  80 0013 F3       		rep
  81 0014 C3       		ret
  82              		.cfi_endproc
  83              	LFE5:
  84 0015 90909090 		.section	.text$_ZN8MenuTree8nextItemEv,"x"
  84      90909090 
  84      909090
  85              		.align 2
  86              		.p2align 4,,15
  87              		.globl	__ZN8MenuTree8nextItemEv
  88              		.def	__ZN8MenuTree8nextItemEv;	.scl	2;	.type	32;	.endef
  89              	__ZN8MenuTree8nextItemEv:
  90              	LFB6:
  91              		.cfi_startproc
  92 0000 8B5108   		movl	8(%ecx), %edx
  93 0003 8B421C   		movl	28(%edx), %eax
  94 0006 85C0     		testl	%eax, %eax
  95 0008 741D     		je	L15
  96 000a 8B510C   		movl	12(%ecx), %edx
  97 000d 894108   		movl	%eax, 8(%ecx)
  98 0010 8B4008   		movl	8(%eax), %eax
  99 0013 2B4208   		subl	8(%edx), %eax
 100 0016 3B4104   		cmpl	4(%ecx), %eax
 101 0019 7405     		je	L16
 102 001b F3       		rep
 103 001c C3       		ret
GAS LISTING /cygdrive/c/Users/pc/AppData/Local/Temp/ccmCKIKo.s 			page 3


 104 001d 8D7600   		.p2align 4,,7
 105              	L16:
 106 0020 8B421C   		movl	28(%edx), %eax
 107 0023 89410C   		movl	%eax, 12(%ecx)
 108 0026 C3       		ret
 109              		.p2align 4,,7
 110              	L15:
 111 0027 8B4210   		movl	16(%edx), %eax
 112 002a 89410C   		movl	%eax, 12(%ecx)
 113 002d 894108   		movl	%eax, 8(%ecx)
 114 0030 C3       		ret
 115              		.cfi_endproc
 116              	LFE6:
 117 0031 90909090 		.section	.text$_ZN8MenuItem15baseConstructorEPS_10lcd_line_ePKcPFvvE,"x"
 117      90909090 
 117      90909090 
 117      909090
 118              		.align 2
 119              		.p2align 4,,15
 120              		.globl	__ZN8MenuItem15baseConstructorEPS_10lcd_line_ePKcPFvvE
 121              		.def	__ZN8MenuItem15baseConstructorEPS_10lcd_line_ePKcPFvvE;	.scl	2;	.type	32;	.endef
 122              	__ZN8MenuItem15baseConstructorEPS_10lcd_line_ePKcPFvvE:
 123              	LFB16:
 124              		.cfi_startproc
 125 0000 53       		pushl	%ebx
 126              		.cfi_def_cfa_offset 8
 127              		.cfi_offset 3, -8
 128 0001 8B54240C 		movl	12(%esp), %edx
 129 0005 8B442408 		movl	8(%esp), %eax
 130 0009 C7411400 		movl	$0, 20(%ecx)
 130      000000
 131 0010 C7411800 		movl	$0, 24(%ecx)
 131      000000
 132 0017 895104   		movl	%edx, 4(%ecx)
 133 001a 8B542410 		movl	16(%esp), %edx
 134 001e 85C0     		testl	%eax, %eax
 135 0020 89410C   		movl	%eax, 12(%ecx)
 136 0023 C7411000 		movl	$0, 16(%ecx)
 136      000000
 137 002a 8911     		movl	%edx, (%ecx)
 138 002c 8B542414 		movl	20(%esp), %edx
 139 0030 C7411C00 		movl	$0, 28(%ecx)
 139      000000
 140 0037 C7410800 		movl	$0, 8(%ecx)
 140      000000
 141 003e 895120   		movl	%edx, 32(%ecx)
 142 0041 7423     		je	L17
 143 0043 8B5014   		movl	20(%eax), %edx
 144 0046 85D2     		testl	%edx, %edx
 145 0048 7426     		je	L28
 146              	L19:
 147 004a 8B5018   		movl	24(%eax), %edx
 148 004d 85D2     		testl	%edx, %edx
 149 004f 7412     		je	L20
 150 0051 8B5A08   		movl	8(%edx), %ebx
 151 0054 894A1C   		movl	%ecx, 28(%edx)
 152 0057 83C301   		addl	$1, %ebx
GAS LISTING /cygdrive/c/Users/pc/AppData/Local/Temp/ccmCKIKo.s 			page 4


 153 005a 895908   		movl	%ebx, 8(%ecx)
 154 005d 8B5A10   		movl	16(%edx), %ebx
 155 0060 895910   		movl	%ebx, 16(%ecx)
 156              	L20:
 157 0063 894818   		movl	%ecx, 24(%eax)
 158              	L17:
 159 0066 5B       		popl	%ebx
 160              		.cfi_remember_state
 161              		.cfi_restore 3
 162              		.cfi_def_cfa_offset 4
 163 0067 C21000   		ret	$16
 164 006a 8DB60000 		.p2align 4,,7
 164      0000
 165              	L28:
 166              		.cfi_restore_state
 167 0070 894910   		movl	%ecx, 16(%ecx)
 168 0073 894814   		movl	%ecx, 20(%eax)
 169 0076 EBD2     		jmp	L19
 170              		.cfi_endproc
 171              	LFE16:
 172 0078 90909090 		.section	.text$_ZN8MenuItemC2EPS_10lcd_line_e,"x"
 172      90909090 
 173              		.align 2
 174              		.p2align 4,,15
 175              		.globl	__ZN8MenuItemC2EPS_10lcd_line_e
 176              		.def	__ZN8MenuItemC2EPS_10lcd_line_e;	.scl	2;	.type	32;	.endef
 177              	__ZN8MenuItemC2EPS_10lcd_line_e:
 178              	LFB14:
 179              		.cfi_startproc
 180 0000 83EC10   		subl	$16, %esp
 181              		.cfi_def_cfa_offset 20
 182 0003 8B442418 		movl	24(%esp), %eax
 183 0007 C744240C 		movl	$0, 12(%esp)
 183      00000000 
 184 000f C7442408 		movl	$0, 8(%esp)
 184      00000000 
 185 0017 89442404 		movl	%eax, 4(%esp)
 186 001b 8B442414 		movl	20(%esp), %eax
 187 001f 890424   		movl	%eax, (%esp)
 188 0022 E8000000 		call	__ZN8MenuItem15baseConstructorEPS_10lcd_line_ePKcPFvvE
 188      00
 189              		.cfi_def_cfa_offset 4
 190 0027 83EC10   		subl	$16, %esp
 191              		.cfi_def_cfa_offset 20
 192 002a 83C410   		addl	$16, %esp
 193              		.cfi_def_cfa_offset 4
 194 002d C20800   		ret	$8
 195              		.cfi_endproc
 196              	LFE14:
 197              		.globl	__ZN8MenuItemC1EPS_10lcd_line_e
 198              		.def	__ZN8MenuItemC1EPS_10lcd_line_e;	.scl	2;	.type	32;	.endef
 199              		.set	__ZN8MenuItemC1EPS_10lcd_line_e,__ZN8MenuItemC2EPS_10lcd_line_e
 200              		.section	.text$_ZN8MenuItemC2EPS_PKc,"x"
 201              		.align 2
 202              		.p2align 4,,15
 203              		.globl	__ZN8MenuItemC2EPS_PKc
 204              		.def	__ZN8MenuItemC2EPS_PKc;	.scl	2;	.type	32;	.endef
GAS LISTING /cygdrive/c/Users/pc/AppData/Local/Temp/ccmCKIKo.s 			page 5


 205              	__ZN8MenuItemC2EPS_PKc:
 206              	LFB11:
 207              		.cfi_startproc
 208 0000 83EC10   		subl	$16, %esp
 209              		.cfi_def_cfa_offset 20
 210 0003 8B442418 		movl	24(%esp), %eax
 211 0007 C744240C 		movl	$0, 12(%esp)
 211      00000000 
 212 000f C7442404 		movl	$0, 4(%esp)
 212      00000000 
 213 0017 89442408 		movl	%eax, 8(%esp)
 214 001b 8B442414 		movl	20(%esp), %eax
 215 001f 890424   		movl	%eax, (%esp)
 216 0022 E8000000 		call	__ZN8MenuItem15baseConstructorEPS_10lcd_line_ePKcPFvvE
 216      00
 217              		.cfi_def_cfa_offset 4
 218 0027 83EC10   		subl	$16, %esp
 219              		.cfi_def_cfa_offset 20
 220 002a 83C410   		addl	$16, %esp
 221              		.cfi_def_cfa_offset 4
 222 002d C20800   		ret	$8
 223              		.cfi_endproc
 224              	LFE11:
 225              		.globl	__ZN8MenuItemC1EPS_PKc
 226              		.def	__ZN8MenuItemC1EPS_PKc;	.scl	2;	.type	32;	.endef
 227              		.set	__ZN8MenuItemC1EPS_PKc,__ZN8MenuItemC2EPS_PKc
 228              		.section	.text$_ZN8MenuItemC2EPS_PKcPFvvE,"x"
 229              		.align 2
 230              		.p2align 4,,15
 231              		.globl	__ZN8MenuItemC2EPS_PKcPFvvE
 232              		.def	__ZN8MenuItemC2EPS_PKcPFvvE;	.scl	2;	.type	32;	.endef
 233              	__ZN8MenuItemC2EPS_PKcPFvvE:
 234              	LFB8:
 235              		.cfi_startproc
 236 0000 83EC10   		subl	$16, %esp
 237              		.cfi_def_cfa_offset 20
 238 0003 8B44241C 		movl	28(%esp), %eax
 239 0007 C7442404 		movl	$0, 4(%esp)
 239      00000000 
 240 000f 8944240C 		movl	%eax, 12(%esp)
 241 0013 8B442418 		movl	24(%esp), %eax
 242 0017 89442408 		movl	%eax, 8(%esp)
 243 001b 8B442414 		movl	20(%esp), %eax
 244 001f 890424   		movl	%eax, (%esp)
 245 0022 E8000000 		call	__ZN8MenuItem15baseConstructorEPS_10lcd_line_ePKcPFvvE
 245      00
 246              		.cfi_def_cfa_offset 4
 247 0027 83EC10   		subl	$16, %esp
 248              		.cfi_def_cfa_offset 20
 249 002a 83C410   		addl	$16, %esp
 250              		.cfi_def_cfa_offset 4
 251 002d C20C00   		ret	$12
 252              		.cfi_endproc
 253              	LFE8:
 254              		.globl	__ZN8MenuItemC1EPS_PKcPFvvE
 255              		.def	__ZN8MenuItemC1EPS_PKcPFvvE;	.scl	2;	.type	32;	.endef
 256              		.set	__ZN8MenuItemC1EPS_PKcPFvvE,__ZN8MenuItemC2EPS_PKcPFvvE
GAS LISTING /cygdrive/c/Users/pc/AppData/Local/Temp/ccmCKIKo.s 			page 6


GAS LISTING /cygdrive/c/Users/pc/AppData/Local/Temp/ccmCKIKo.s 			page 7


DEFINED SYMBOLS
                            *ABS*:00000000 lcd_menu_tree.cpp
/cygdrive/c/Users/pc/AppData/Local/Temp/ccmCKIKo.s:7      .text$_ZN8MenuTreeC2EP8MenuItem:00000000 __ZN8MenuTreeC2EP8MenuItem
/cygdrive/c/Users/pc/AppData/Local/Temp/ccmCKIKo.s:7      .text$_ZN8MenuTreeC2EP8MenuItem:00000000 __ZN8MenuTreeC1EP8MenuItem
/cygdrive/c/Users/pc/AppData/Local/Temp/ccmCKIKo.s:26     .text$_ZN8MenuTree4initEP8MenuItemi:00000000 __ZN8MenuTree4initEP8MenuItemi
/cygdrive/c/Users/pc/AppData/Local/Temp/ccmCKIKo.s:42     .text$_ZN8MenuTree12enterSubMenuEv:00000000 __ZN8MenuTree12enterSubMenuEv
/cygdrive/c/Users/pc/AppData/Local/Temp/ccmCKIKo.s:69     .text$_ZN8MenuTree4backEv:00000000 __ZN8MenuTree4backEv
/cygdrive/c/Users/pc/AppData/Local/Temp/ccmCKIKo.s:89     .text$_ZN8MenuTree8nextItemEv:00000000 __ZN8MenuTree8nextItemEv
/cygdrive/c/Users/pc/AppData/Local/Temp/ccmCKIKo.s:122    .text$_ZN8MenuItem15baseConstructorEPS_10lcd_line_ePKcPFvvE:00000000 __ZN8MenuItem15baseConstructorEPS_10lcd_line_ePKcPFvvE
/cygdrive/c/Users/pc/AppData/Local/Temp/ccmCKIKo.s:177    .text$_ZN8MenuItemC2EPS_10lcd_line_e:00000000 __ZN8MenuItemC2EPS_10lcd_line_e
/cygdrive/c/Users/pc/AppData/Local/Temp/ccmCKIKo.s:177    .text$_ZN8MenuItemC2EPS_10lcd_line_e:00000000 __ZN8MenuItemC1EPS_10lcd_line_e
/cygdrive/c/Users/pc/AppData/Local/Temp/ccmCKIKo.s:205    .text$_ZN8MenuItemC2EPS_PKc:00000000 __ZN8MenuItemC2EPS_PKc
/cygdrive/c/Users/pc/AppData/Local/Temp/ccmCKIKo.s:205    .text$_ZN8MenuItemC2EPS_PKc:00000000 __ZN8MenuItemC1EPS_PKc
/cygdrive/c/Users/pc/AppData/Local/Temp/ccmCKIKo.s:233    .text$_ZN8MenuItemC2EPS_PKcPFvvE:00000000 __ZN8MenuItemC2EPS_PKcPFvvE
/cygdrive/c/Users/pc/AppData/Local/Temp/ccmCKIKo.s:233    .text$_ZN8MenuItemC2EPS_PKcPFvvE:00000000 __ZN8MenuItemC1EPS_PKcPFvvE

NO UNDEFINED SYMBOLS
