GAS LISTING /cygdrive/c/Users/pc/AppData/Local/Temp/ccjcVUlg.s 			page 1


   1              		.file	"map.cpp"
   2              		.section .rdata,"dr"
   3              	LC3:
   4 0000 556E6B6E 		.ascii "Unknown MAP type: %d\0"
   4      6F776E20 
   4      4D415020 
   4      74797065 
   4      3A202564 
   5              		.section	.text$_Z14decodePressurefP28air_pressure_sensor_config_s,"x"
   6              		.p2align 4,,15
   7              		.globl	__Z14decodePressurefP28air_pressure_sensor_config_s
   8              		.def	__Z14decodePressurefP28air_pressure_sensor_config_s;	.scl	2;	.type	32;	.endef
   9              	__Z14decodePressurefP28air_pressure_sensor_config_s:
  10              	LFB85:
  11              		.cfi_startproc
  12 0000 83EC2C   		subl	$44, %esp
  13              		.cfi_def_cfa_offset 48
  14 0003 8B542434 		movl	52(%esp), %edx
  15 0007 D9442430 		flds	48(%esp)
  16 000b 8B4208   		movl	8(%edx), %eax
  17 000e 83F806   		cmpl	$6, %eax
  18 0011 761D     		jbe	L14
  19 0013 DDD8     		fstp	%st(0)
  20 0015 89442404 		movl	%eax, 4(%esp)
  21 0019 C7042400 		movl	$LC3, (%esp)
  21      000000
  22 0020 E8000000 		call	_firmwareError
  22      00
  23 0025 D9055C00 		flds	LC0
  23      0000
  24 002b 83C42C   		addl	$44, %esp
  25              		.cfi_remember_state
  26              		.cfi_def_cfa_offset 4
  27 002e C3       		ret
  28 002f 90       		.p2align 4,,7
  29              	L14:
  30              		.cfi_restore_state
  31 0030 FF248518 		jmp	*L10(,%eax,4)
  31      000000
  32              		.section .rdata,"dr"
  33 0015 000000   		.align 4
  34              	L10:
  35 0018 64000000 		.long	L3
  36 001c 90000000 		.long	L4
  37 0020 A4000000 		.long	L5
  38 0024 B8000000 		.long	L6
  39 0028 D0000000 		.long	L7
  40 002c 37000000 		.long	L8
  41 0030 50000000 		.long	L9
  42              		.section	.text$_Z14decodePressurefP28air_pressure_sensor_config_s,"x"
  43              		.p2align 4,,7
  44              	L8:
  45 0037 D91C24   		fstps	(%esp)
  46 003a B9000000 		movl	$__ZL9subyDenso, %ecx
  46      00
  47 003f E8000000 		call	__ZN17FastInterpolation8getValueEf
  47      00
GAS LISTING /cygdrive/c/Users/pc/AppData/Local/Temp/ccjcVUlg.s 			page 2


  48              		.cfi_def_cfa_offset 44
  49 0044 83EC04   		subl	$4, %esp
  50              		.cfi_def_cfa_offset 48
  51 0047 83C42C   		addl	$44, %esp
  52              		.cfi_remember_state
  53              		.cfi_def_cfa_offset 4
  54 004a C3       		ret
  55 004b 908D7426 		.p2align 4,,7
  55      00
  56              	L9:
  57              		.cfi_restore_state
  58 0050 D91C24   		fstps	(%esp)
  59 0053 B9000000 		movl	$__ZL6gm3bar, %ecx
  59      00
  60 0058 E8000000 		call	__ZN17FastInterpolation8getValueEf
  60      00
  61              		.cfi_def_cfa_offset 44
  62 005d 83EC04   		subl	$4, %esp
  63              		.cfi_def_cfa_offset 48
  64 0060 83C42C   		addl	$44, %esp
  65              		.cfi_remember_state
  66              		.cfi_def_cfa_offset 4
  67 0063 C3       		ret
  68              		.p2align 4,,7
  69              	L3:
  70              		.cfi_restore_state
  71 0064 D95C2410 		fstps	16(%esp)
  72 0068 D94204   		flds	4(%edx)
  73 006b D95C240C 		fstps	12(%esp)
  74 006f C7442408 		movl	$0x40a00000, 8(%esp)
  74      0000A040 
  75 0077 D902     		flds	(%edx)
  76 0079 D95C2404 		fstps	4(%esp)
  77 007d C7042400 		movl	$0x00000000, (%esp)
  77      000000
  78 0084 E8000000 		call	__Z11interpolatefffff
  78      00
  79 0089 83C42C   		addl	$44, %esp
  80              		.cfi_remember_state
  81              		.cfi_def_cfa_offset 4
  82 008c C3       		ret
  83 008d 8D7600   		.p2align 4,,7
  84              	L4:
  85              		.cfi_restore_state
  86 0090 D91C24   		fstps	(%esp)
  87 0093 B9000000 		movl	$__ZL8denso183, %ecx
  87      00
  88 0098 E8000000 		call	__ZN17FastInterpolation8getValueEf
  88      00
  89              		.cfi_def_cfa_offset 44
  90 009d 83EC04   		subl	$4, %esp
  91              		.cfi_def_cfa_offset 48
  92 00a0 83C42C   		addl	$44, %esp
  93              		.cfi_remember_state
  94              		.cfi_def_cfa_offset 4
  95 00a3 C3       		ret
  96              		.p2align 4,,7
GAS LISTING /cygdrive/c/Users/pc/AppData/Local/Temp/ccjcVUlg.s 			page 3


  97              	L5:
  98              		.cfi_restore_state
  99 00a4 D91C24   		fstps	(%esp)
 100 00a7 B9000000 		movl	$__ZL7mpx4250, %ecx
 100      00
 101 00ac E8000000 		call	__ZN17FastInterpolation8getValueEf
 101      00
 102              		.cfi_def_cfa_offset 44
 103 00b1 83EC04   		subl	$4, %esp
 104              		.cfi_def_cfa_offset 48
 105 00b4 83C42C   		addl	$44, %esp
 106              		.cfi_remember_state
 107              		.cfi_def_cfa_offset 4
 108 00b7 C3       		ret
 109              		.p2align 4,,7
 110              	L6:
 111              		.cfi_restore_state
 112 00b8 D91C24   		fstps	(%esp)
 113 00bb B9000000 		movl	$__ZL9honda3bar, %ecx
 113      00
 114 00c0 E8000000 		call	__ZN17FastInterpolation8getValueEf
 114      00
 115              		.cfi_def_cfa_offset 44
 116 00c5 83EC04   		subl	$4, %esp
 117              		.cfi_def_cfa_offset 48
 118 00c8 83C42C   		addl	$44, %esp
 119              		.cfi_remember_state
 120              		.cfi_def_cfa_offset 4
 121 00cb C3       		ret
 122 00cc 8D742600 		.p2align 4,,7
 123              	L7:
 124              		.cfi_restore_state
 125 00d0 D91C24   		fstps	(%esp)
 126 00d3 B9000000 		movl	$__ZL13dodgeNeon2003, %ecx
 126      00
 127 00d8 E8000000 		call	__ZN17FastInterpolation8getValueEf
 127      00
 128              		.cfi_def_cfa_offset 44
 129 00dd 83EC04   		subl	$4, %esp
 130              		.cfi_def_cfa_offset 48
 131 00e0 83C42C   		addl	$44, %esp
 132              		.cfi_def_cfa_offset 4
 133 00e3 C3       		ret
 134              		.cfi_endproc
 135              	LFE85:
 136 00e4 90909090 		.section	.text$_Z15getMapByVoltagef,"x"
 136      90909090 
 136      90909090 
 137              		.p2align 4,,15
 138              		.globl	__Z15getMapByVoltagef
 139              		.def	__Z15getMapByVoltagef;	.scl	2;	.type	32;	.endef
 140              	__Z15getMapByVoltagef:
 141              	LFB86:
 142              		.cfi_startproc
 143 0000 83EC1C   		subl	$28, %esp
 144              		.cfi_def_cfa_offset 32
 145 0003 A1000000 		movl	_engineConfiguration, %eax
GAS LISTING /cygdrive/c/Users/pc/AppData/Local/Temp/ccjcVUlg.s 			page 4


 145      00
 146 0008 D9442420 		flds	32(%esp)
 147 000c D91C24   		fstps	(%esp)
 148 000f 05F00000 		addl	$240, %eax
 148      00
 149 0014 89442404 		movl	%eax, 4(%esp)
 150 0018 E8000000 		call	__Z14decodePressurefP28air_pressure_sensor_config_s
 150      00
 151 001d 83C41C   		addl	$28, %esp
 152              		.cfi_def_cfa_offset 4
 153 0020 C3       		ret
 154              		.cfi_endproc
 155              	LFE86:
 156 0021 90909090 		.section .rdata,"dr"
 156      90909090 
 156      90909090 
 156      909090
 157              	LC5:
 158 0034 6D617000 		.ascii "map\0"
 159              		.section	.text$_Z9getRawMapv,"x"
 160              		.p2align 4,,15
 161              		.globl	__Z9getRawMapv
 162              		.def	__Z9getRawMapv;	.scl	2;	.type	32;	.endef
 163              	__Z9getRawMapv:
 164              	LFB87:
 165              		.cfi_startproc
 166 0000 83EC3C   		subl	$60, %esp
 167              		.cfi_def_cfa_offset 64
 168 0003 A1000000 		movl	_engineConfiguration, %eax
 168      00
 169 0008 F680DA05 		testb	$4, 1498(%eax)
 169      000004
 170 000f 753F     		jne	L21
 171 0011 8B80FC00 		movl	252(%eax), %eax
 171      0000
 172 0017 C7042434 		movl	$LC5, (%esp)
 172      000000
 173 001e 89442404 		movl	%eax, 4(%esp)
 174 0022 E8000000 		call	__Z11getAdcValuePKci
 174      00
 175 0027 8944242C 		movl	%eax, 44(%esp)
 176 002b A1000000 		movl	_engineConfiguration, %eax
 176      00
 177 0030 DB44242C 		fildl	44(%esp)
 178 0034 D80D6000 		fmuls	LC6
 178      0000
 179 003a D888D001 		fmuls	464(%eax)
 179      0000
 180 0040 D91C24   		fstps	(%esp)
 181 0043 E8000000 		call	__Z15getMapByVoltagef
 181      00
 182 0048 83C43C   		addl	$60, %esp
 183              		.cfi_remember_state
 184              		.cfi_def_cfa_offset 4
 185 004b C3       		ret
 186 004c 8D742600 		.p2align 4,,7
 187              	L21:
GAS LISTING /cygdrive/c/Users/pc/AppData/Local/Temp/ccjcVUlg.s 			page 5


 188              		.cfi_restore_state
 189 0050 A1000000 		movl	_boardConfiguration, %eax
 189      00
 190 0055 C7442410 		movl	$0x00000000, 16(%esp)
 190      00000000 
 191 005d C744240C 		movl	$0x42c80000, 12(%esp)
 191      0000C842 
 192 0065 D9809C00 		flds	156(%eax)
 192      0000
 193 006b D95C2408 		fstps	8(%esp)
 194 006f C7442404 		movl	$0x00000000, 4(%esp)
 194      00000000 
 195 0077 D9809800 		flds	152(%eax)
 195      0000
 196 007d D91C24   		fstps	(%esp)
 197 0080 E8000000 		call	__Z11interpolatefffff
 197      00
 198 0085 83C43C   		addl	$60, %esp
 199              		.cfi_def_cfa_offset 4
 200 0088 C3       		ret
 201              		.cfi_endproc
 202              	LFE87:
 203 0089 90909090 		.section	.text$_Z13hasBaroSensorv,"x"
 203      909090
 204              		.p2align 4,,15
 205              		.globl	__Z13hasBaroSensorv
 206              		.def	__Z13hasBaroSensorv;	.scl	2;	.type	32;	.endef
 207              	__Z13hasBaroSensorv:
 208              	LFB88:
 209              		.cfi_startproc
 210 0000 8B150000 		movl	_engineConfiguration, %edx
 210      0000
 211 0006 31C0     		xorl	%eax, %eax
 212 0008 F682D805 		testb	$4, 1496(%edx)
 212      000004
 213 000f 740A     		je	L23
 214 0011 83BA6C02 		cmpl	$16, 620(%edx)
 214      000010
 215 0018 0F95C0   		setne	%al
 216              	L23:
 217 001b F3       		rep
 218 001c C3       		ret
 219              		.cfi_endproc
 220              	LFE88:
 221 001d 909090   		.section .rdata,"dr"
 222              	LC7:
 223 0038 6261726F 		.ascii "baro\0"
 223      00
 224              		.section	.text$_Z15getBaroPressurev,"x"
 225              		.p2align 4,,15
 226              		.globl	__Z15getBaroPressurev
 227              		.def	__Z15getBaroPressurev;	.scl	2;	.type	32;	.endef
 228              	__Z15getBaroPressurev:
 229              	LFB89:
 230              		.cfi_startproc
 231 0000 83EC2C   		subl	$44, %esp
 232              		.cfi_def_cfa_offset 48
GAS LISTING /cygdrive/c/Users/pc/AppData/Local/Temp/ccjcVUlg.s 			page 6


 233 0003 A1000000 		movl	_engineConfiguration, %eax
 233      00
 234 0008 8B806C02 		movl	620(%eax), %eax
 234      0000
 235 000e C7042438 		movl	$LC7, (%esp)
 235      000000
 236 0015 89442404 		movl	%eax, 4(%esp)
 237 0019 E8000000 		call	__Z11getAdcValuePKci
 237      00
 238 001e 8B150000 		movl	_engineConfiguration, %edx
 238      0000
 239 0024 8D8A6002 		leal	608(%edx), %ecx
 239      0000
 240 002a 894C2404 		movl	%ecx, 4(%esp)
 241 002e 8944241C 		movl	%eax, 28(%esp)
 242 0032 DB44241C 		fildl	28(%esp)
 243 0036 D80D6000 		fmuls	LC6
 243      0000
 244 003c D88AD001 		fmuls	464(%edx)
 244      0000
 245 0042 D91C24   		fstps	(%esp)
 246 0045 E8000000 		call	__Z14decodePressurefP28air_pressure_sensor_config_s
 246      00
 247 004a 83C42C   		addl	$44, %esp
 248              		.cfi_def_cfa_offset 4
 249 004d C3       		ret
 250              		.cfi_endproc
 251              	LFE89:
 252 004e 9090     		.section	.text$_Z14initMapDecoderP7Logging,"x"
 253              		.p2align 4,,15
 254              		.globl	__Z14initMapDecoderP7Logging
 255              		.def	__Z14initMapDecoderP7Logging;	.scl	2;	.type	32;	.endef
 256              	__Z14initMapDecoderP7Logging:
 257              	LFB93:
 258              		.cfi_startproc
 259 0000 83EC1C   		subl	$28, %esp
 260              		.cfi_def_cfa_offset 32
 261 0003 B9000000 		movl	$__ZL9customMap, %ecx
 261      00
 262 0008 8B442420 		movl	32(%esp), %eax
 263 000c A3000000 		movl	%eax, __ZL6logger
 263      00
 264 0011 A1000000 		movl	_engineConfiguration, %eax
 264      00
 265 0016 D980F400 		flds	244(%eax)
 265      0000
 266 001c D95C240C 		fstps	12(%esp)
 267 0020 C7442408 		movl	$0x40a00000, 8(%esp)
 267      0000A040 
 268 0028 D980F000 		flds	240(%eax)
 268      0000
 269 002e D95C2404 		fstps	4(%esp)
 270 0032 C7042400 		movl	$0x00000000, (%esp)
 270      000000
 271 0039 E8000000 		call	__ZN17FastInterpolation4initEffff
 271      00
 272              		.cfi_def_cfa_offset 16
GAS LISTING /cygdrive/c/Users/pc/AppData/Local/Temp/ccjcVUlg.s 			page 7


 273 003e A1000000 		movl	_engineConfiguration, %eax
 273      00
 274 0043 8B80F800 		movl	248(%eax), %eax
 274      0000
 275 0049 83EC10   		subl	$16, %esp
 276              		.cfi_def_cfa_offset 32
 277 004c 83F806   		cmpl	$6, %eax
 278 004f 761F     		jbe	L41
 279 0051 89442404 		movl	%eax, 4(%esp)
 280 0055 C7042400 		movl	$LC3, (%esp)
 280      000000
 281 005c E8000000 		call	_firmwareError
 281      00
 282              	L40:
 283 0061 B8000000 		movl	$__ZL9customMap, %eax
 283      00
 284 0066 A3000000 		movl	%eax, __ZL10mapDecoder
 284      00
 285 006b 83C41C   		addl	$28, %esp
 286              		.cfi_remember_state
 287              		.cfi_def_cfa_offset 4
 288 006e C3       		ret
 289 006f 90       		.p2align 4,,7
 290              	L41:
 291              		.cfi_restore_state
 292 0070 FF248540 		jmp	*L37(,%eax,4)
 292      000000
 293              		.section .rdata,"dr"
 294 003d 000000   		.align 4
 295              	L37:
 296 0040 61000000 		.long	L40
 297 0044 93000000 		.long	L38
 298 0048 A1000000 		.long	L32
 299 004c B0000000 		.long	L33
 300 0050 C0000000 		.long	L34
 301 0054 77000000 		.long	L35
 302 0058 85000000 		.long	L36
 303              		.section	.text$_Z14initMapDecoderP7Logging,"x"
 304              		.p2align 4,,7
 305              	L35:
 306 0077 B8000000 		movl	$__ZL9subyDenso, %eax
 306      00
 307 007c A3000000 		movl	%eax, __ZL10mapDecoder
 307      00
 308 0081 83C41C   		addl	$28, %esp
 309              		.cfi_remember_state
 310              		.cfi_def_cfa_offset 4
 311 0084 C3       		ret
 312              		.p2align 4,,7
 313              	L36:
 314              		.cfi_restore_state
 315 0085 B8000000 		movl	$__ZL6gm3bar, %eax
 315      00
 316 008a A3000000 		movl	%eax, __ZL10mapDecoder
 316      00
 317 008f 83C41C   		addl	$28, %esp
 318              		.cfi_remember_state
GAS LISTING /cygdrive/c/Users/pc/AppData/Local/Temp/ccjcVUlg.s 			page 8


 319              		.cfi_def_cfa_offset 4
 320 0092 C3       		ret
 321              		.p2align 4,,7
 322              	L38:
 323              		.cfi_restore_state
 324 0093 B8000000 		movl	$__ZL8denso183, %eax
 324      00
 325 0098 A3000000 		movl	%eax, __ZL10mapDecoder
 325      00
 326 009d 83C41C   		addl	$28, %esp
 327              		.cfi_remember_state
 328              		.cfi_def_cfa_offset 4
 329 00a0 C3       		ret
 330              		.p2align 4,,7
 331              	L32:
 332              		.cfi_restore_state
 333 00a1 B8000000 		movl	$__ZL7mpx4250, %eax
 333      00
 334 00a6 A3000000 		movl	%eax, __ZL10mapDecoder
 334      00
 335 00ab 83C41C   		addl	$28, %esp
 336              		.cfi_remember_state
 337              		.cfi_def_cfa_offset 4
 338 00ae C3       		ret
 339 00af 90       		.p2align 4,,7
 340              	L33:
 341              		.cfi_restore_state
 342 00b0 B8000000 		movl	$__ZL9honda3bar, %eax
 342      00
 343 00b5 A3000000 		movl	%eax, __ZL10mapDecoder
 343      00
 344 00ba 83C41C   		addl	$28, %esp
 345              		.cfi_remember_state
 346              		.cfi_def_cfa_offset 4
 347 00bd C3       		ret
 348 00be 6690     		.p2align 4,,7
 349              	L34:
 350              		.cfi_restore_state
 351 00c0 B8000000 		movl	$__ZL13dodgeNeon2003, %eax
 351      00
 352 00c5 A3000000 		movl	%eax, __ZL10mapDecoder
 352      00
 353 00ca 83C41C   		addl	$28, %esp
 354              		.cfi_def_cfa_offset 4
 355 00cd C3       		ret
 356              		.cfi_endproc
 357              	LFE93:
 358 00ce 9090     		.section	.text.startup._GLOBAL__sub_I__Z14decodePressurefP28air_pressure_sensor_config_s,"x"
 359              		.p2align 4,,15
 360              		.def	__GLOBAL__sub_I__Z14decodePressurefP28air_pressure_sensor_config_s;	.scl	3;	.type	32;	.endef
 361              	__GLOBAL__sub_I__Z14decodePressurefP28air_pressure_sensor_config_s:
 362              	LFB95:
 363              		.cfi_startproc
 364 0000 83EC2C   		subl	$44, %esp
 365              		.cfi_def_cfa_offset 48
 366 0003 B9000000 		movl	$__ZL9customMap, %ecx
 366      00
GAS LISTING /cygdrive/c/Users/pc/AppData/Local/Temp/ccjcVUlg.s 			page 9


 367 0008 E8000000 		call	__ZN17FastInterpolationC1Ev
 367      00
 368 000d B9000000 		movl	$__ZL8denso183, %ecx
 368      00
 369 0012 C744240C 		movl	$0x4336c7ae, 12(%esp)
 369      AEC73643 
 370 001a C7442408 		movl	$0x40a00000, 8(%esp)
 370      0000A040 
 371 0022 C7442404 		movl	$0xc0d47ae1, 4(%esp)
 371      E17AD4C0 
 372 002a C7042400 		movl	$0x00000000, (%esp)
 372      000000
 373 0031 E8000000 		call	__ZN17FastInterpolationC1Effff
 373      00
 374              		.cfi_def_cfa_offset 32
 375 0036 B9000000 		movl	$__ZL9honda3bar, %ecx
 375      00
 376 003b 83EC10   		subl	$16, %esp
 377              		.cfi_def_cfa_offset 48
 378 003e D9056400 		flds	LC12
 378      0000
 379 0044 D91424   		fsts	(%esp)
 380 0047 C744240C 		movl	$0x00000000, 12(%esp)
 380      00000000 
 381 004f D95C2410 		fstps	16(%esp)
 382 0053 C7442408 		movl	$0x40400000, 8(%esp)
 382      00004040 
 383 005b C7442404 		movl	$0x42b6d810, 4(%esp)
 383      10D8B642 
 384 0063 E8000000 		call	__ZN17FastInterpolationC1Effff
 384      00
 385              		.cfi_def_cfa_offset 32
 386 0068 B9000000 		movl	$__ZL9subyDenso, %ecx
 386      00
 387 006d 83EC10   		subl	$16, %esp
 388              		.cfi_def_cfa_offset 48
 389 0070 C744240C 		movl	$0x43480000, 12(%esp)
 389      00004843 
 390 0078 C7442408 		movl	$0x40a00000, 8(%esp)
 390      0000A040 
 391 0080 C7442404 		movl	$0x00000000, 4(%esp)
 391      00000000 
 392 0088 C7042400 		movl	$0x00000000, (%esp)
 392      000000
 393 008f E8000000 		call	__ZN17FastInterpolationC1Effff
 393      00
 394              		.cfi_def_cfa_offset 32
 395 0094 B9000000 		movl	$__ZL6gm3bar, %ecx
 395      00
 396 0099 83EC10   		subl	$16, %esp
 397              		.cfi_def_cfa_offset 48
 398 009c C744240C 		movl	$0x43980000, 12(%esp)
 398      00009843 
 399 00a4 C7442408 		movl	$0x409d3f7d, 8(%esp)
 399      7D3F9D40 
 400 00ac C7442404 		movl	$0x42200000, 4(%esp)
 400      00002042 
GAS LISTING /cygdrive/c/Users/pc/AppData/Local/Temp/ccjcVUlg.s 			page 10


 401 00b4 C7042437 		movl	$0x3f218937, (%esp)
 401      89213F
 402 00bb E8000000 		call	__ZN17FastInterpolationC1Effff
 402      00
 403              		.cfi_def_cfa_offset 32
 404 00c0 B9000000 		movl	$__ZL7mpx4250, %ecx
 404      00
 405 00c5 83EC10   		subl	$16, %esp
 406              		.cfi_def_cfa_offset 48
 407 00c8 C744240C 		movl	$0x43820000, 12(%esp)
 407      00008243 
 408 00d0 C7442408 		movl	$0x40a00000, 8(%esp)
 408      0000A040 
 409 00d8 C7442404 		movl	$0x41000000, 4(%esp)
 409      00000041 
 410 00e0 C7042400 		movl	$0x00000000, (%esp)
 410      000000
 411 00e7 E8000000 		call	__ZN17FastInterpolationC1Effff
 411      00
 412              		.cfi_def_cfa_offset 32
 413 00ec B9000000 		movl	$__ZL13dodgeNeon2003, %ecx
 413      00
 414 00f1 83EC10   		subl	$16, %esp
 415              		.cfi_def_cfa_offset 48
 416 00f4 D9442410 		flds	16(%esp)
 417 00f8 C744240C 		movl	$0x42c80000, 12(%esp)
 417      0000C842 
 418 0100 D91C24   		fstps	(%esp)
 419 0103 C7442408 		movl	$0x40900000, 8(%esp)
 419      00009040 
 420 010b C7442404 		movl	$0x00000000, 4(%esp)
 420      00000000 
 421 0113 E8000000 		call	__ZN17FastInterpolationC1Effff
 421      00
 422              		.cfi_def_cfa_offset 32
 423 0118 83EC10   		subl	$16, %esp
 424              		.cfi_def_cfa_offset 48
 425 011b 83C42C   		addl	$44, %esp
 426              		.cfi_def_cfa_offset 4
 427 011e C3       		ret
 428              		.cfi_endproc
 429              	LFE95:
 430 011f 90       		.section	.ctors,"w"
 431              		.align 4
 432 0000 00000000 		.long	__GLOBAL__sub_I__Z14decodePressurefP28air_pressure_sensor_config_s
 433              		.section	.data$_ZL8denso183,"w"
 434              		.align 4
 435              	__ZL8denso183:
 436 0000 00000000 		.space 8
 436      00000000 
 437              		.section	.data$_ZL7mpx4250,"w"
 438              		.align 4
 439              	__ZL7mpx4250:
 440 0000 00000000 		.space 8
 440      00000000 
 441              		.section	.data$_ZL9honda3bar,"w"
 442              		.align 4
GAS LISTING /cygdrive/c/Users/pc/AppData/Local/Temp/ccjcVUlg.s 			page 11


 443              	__ZL9honda3bar:
 444 0000 00000000 		.space 8
 444      00000000 
 445              		.section	.data$_ZL13dodgeNeon2003,"w"
 446              		.align 4
 447              	__ZL13dodgeNeon2003:
 448 0000 00000000 		.space 8
 448      00000000 
 449              		.section	.data$_ZL9subyDenso,"w"
 450              		.align 4
 451              	__ZL9subyDenso:
 452 0000 00000000 		.space 8
 452      00000000 
 453              		.section	.data$_ZL6gm3bar,"w"
 454              		.align 4
 455              	__ZL6gm3bar:
 456 0000 00000000 		.space 8
 456      00000000 
 457              		.section	.data$_ZL6logger,"w"
 458              		.align 4
 459              	__ZL6logger:
 460 0000 00000000 		.space 4
 461              		.section	.data$_ZL9customMap,"w"
 462              		.align 4
 463              	__ZL9customMap:
 464 0000 00000000 		.space 8
 464      00000000 
 465              		.section	.data$_ZL10mapDecoder,"w"
 466              		.align 4
 467              	__ZL10mapDecoder:
 468 0000 00000000 		.space 4
 469              		.section .rdata,"dr"
 470              		.align 4
 471              	LC0:
 472 005c 0000C07F 		.long	2143289344
 473              		.align 4
 474              	LC6:
 475 0060 010C403A 		.long	977275905
 476              		.align 4
 477              	LC12:
 478 0064 0000003F 		.long	1056964608
 479              		.def	_firmwareError;	.scl	2;	.type	32;	.endef
 480              		.def	__ZN17FastInterpolation8getValueEf;	.scl	2;	.type	32;	.endef
 481              		.def	__Z11interpolatefffff;	.scl	2;	.type	32;	.endef
 482              		.def	__Z11getAdcValuePKci;	.scl	2;	.type	32;	.endef
 483              		.def	__ZN17FastInterpolation4initEffff;	.scl	2;	.type	32;	.endef
 484              		.def	__ZN17FastInterpolationC1Ev;	.scl	2;	.type	32;	.endef
 485              		.def	__ZN17FastInterpolationC1Effff;	.scl	2;	.type	32;	.endef
GAS LISTING /cygdrive/c/Users/pc/AppData/Local/Temp/ccjcVUlg.s 			page 12

