GAS LISTING /cygdrive/c/Users/pc/AppData/Local/Temp/cclIu6AQ.s 			page 1


   1              		.file	"nmea.c"
   2              		.section	.text$hex2int,"x"
   3              		.p2align 4,,15
   4              		.globl	_hex2int
   5              		.def	_hex2int;	.scl	2;	.type	32;	.endef
   6              	_hex2int:
   7              	LFB68:
   8              		.cfi_startproc
   9 0000 57       		pushl	%edi
  10              		.cfi_def_cfa_offset 8
  11              		.cfi_offset 7, -8
  12 0001 56       		pushl	%esi
  13              		.cfi_def_cfa_offset 12
  14              		.cfi_offset 6, -12
  15 0002 53       		pushl	%ebx
  16              		.cfi_def_cfa_offset 16
  17              		.cfi_offset 3, -16
  18 0003 8B742414 		movl	20(%esp), %esi
  19 0007 8B7C2410 		movl	16(%esp), %edi
  20 000b 85F6     		testl	%esi, %esi
  21 000d 7E40     		jle	L6
  22 000f 8D0CB5FC 		leal	-4(,%esi,4), %ecx
  22      FFFFFF
  23 0016 31C0     		xorl	%eax, %eax
  24 0018 31D2     		xorl	%edx, %edx
  25 001a EB15     		jmp	L5
  26 001c 8D742600 		.p2align 4,,7
  27              	L10:
  28 0020 83EB30   		subl	$48, %ebx
  29 0023 83C201   		addl	$1, %edx
  30 0026 D3E3     		sall	%cl, %ebx
  31 0028 83E904   		subl	$4, %ecx
  32 002b 01D8     		addl	%ebx, %eax
  33 002d 39F2     		cmpl	%esi, %edx
  34 002f 741A     		je	L2
  35              	L5:
  36 0031 0FBE1C17 		movsbl	(%edi,%edx), %ebx
  37 0035 80FB39   		cmpb	$57, %bl
  38 0038 7EE6     		jle	L10
  39 003a 83EB57   		subl	$87, %ebx
  40 003d 83C201   		addl	$1, %edx
  41 0040 D3E3     		sall	%cl, %ebx
  42 0042 83E904   		subl	$4, %ecx
  43 0045 01D8     		addl	%ebx, %eax
  44 0047 39F2     		cmpl	%esi, %edx
  45 0049 75E6     		jne	L5
  46              	L2:
  47 004b 5B       		popl	%ebx
  48              		.cfi_remember_state
  49              		.cfi_restore 3
  50              		.cfi_def_cfa_offset 12
  51 004c 5E       		popl	%esi
  52              		.cfi_restore 6
  53              		.cfi_def_cfa_offset 8
  54 004d 5F       		popl	%edi
  55              		.cfi_restore 7
  56              		.cfi_def_cfa_offset 4
GAS LISTING /cygdrive/c/Users/pc/AppData/Local/Temp/cclIu6AQ.s 			page 2


  57 004e C3       		ret
  58              	L6:
  59              		.cfi_restore_state
  60 004f 31C0     		xorl	%eax, %eax
  61 0051 EBF8     		jmp	L2
  62              		.cfi_endproc
  63              	LFE68:
  64 0053 90909090 		.section	.text$str2int,"x"
  64      90909090 
  64      90909090 
  64      90
  65              		.p2align 4,,15
  66              		.globl	_str2int
  67              		.def	_str2int;	.scl	2;	.type	32;	.endef
  68              	_str2int:
  69              	LFB69:
  70              		.cfi_startproc
  71 0000 53       		pushl	%ebx
  72              		.cfi_def_cfa_offset 8
  73              		.cfi_offset 3, -8
  74 0001 8B5C240C 		movl	12(%esp), %ebx
  75 0005 8B542408 		movl	8(%esp), %edx
  76 0009 85DB     		testl	%ebx, %ebx
  77 000b 7E1A     		jle	L14
  78 000d 01D3     		addl	%edx, %ebx
  79 000f 31C0     		xorl	%eax, %eax
  80              		.p2align 4,,7
  81              	L13:
  82 0011 8D0C00   		leal	(%eax,%eax), %ecx
  83 0014 8D0CC1   		leal	(%ecx,%eax,8), %ecx
  84 0017 0FBE02   		movsbl	(%edx), %eax
  85 001a 83C201   		addl	$1, %edx
  86 001d 39DA     		cmpl	%ebx, %edx
  87 001f 8D4401D0 		leal	-48(%ecx,%eax), %eax
  88 0023 75EC     		jne	L13
  89 0025 5B       		popl	%ebx
  90              		.cfi_remember_state
  91              		.cfi_restore 3
  92              		.cfi_def_cfa_offset 4
  93 0026 C3       		ret
  94              	L14:
  95              		.cfi_restore_state
  96 0027 31C0     		xorl	%eax, %eax
  97 0029 5B       		popl	%ebx
  98              		.cfi_restore 3
  99              		.cfi_def_cfa_offset 4
 100 002a C3       		ret
 101              		.cfi_endproc
 102              	LFE69:
 103 002b 90909090 		.section	.text$gps_deg_dec,"x"
 103      90
 104              		.p2align 4,,15
 105              		.globl	_gps_deg_dec
 106              		.def	_gps_deg_dec;	.scl	2;	.type	32;	.endef
 107              	_gps_deg_dec:
 108              	LFB70:
 109              		.cfi_startproc
GAS LISTING /cygdrive/c/Users/pc/AppData/Local/Temp/cclIu6AQ.s 			page 3


 110 0000 53       		pushl	%ebx
 111              		.cfi_def_cfa_offset 8
 112              		.cfi_offset 3, -8
 113 0001 83EC68   		subl	$104, %esp
 114              		.cfi_def_cfa_offset 112
 115 0004 D9442470 		flds	112(%esp)
 116 0008 8D442458 		leal	88(%esp), %eax
 117 000c DD1424   		fstl	(%esp)
 118 000f 89442408 		movl	%eax, 8(%esp)
 119 0013 D95C2410 		fstps	16(%esp)
 120 0017 E8000000 		call	_modf
 120      00
 121 001c D9051000 		flds	LC0
 121      0000
 122 0022 DC7C2458 		fdivrl	88(%esp)
 123 0026 D97C244A 		fnstcw	74(%esp)
 124 002a 0FB74424 		movzwl	74(%esp), %eax
 124      4A
 125 002f B40C     		movb	$12, %ah
 126 0031 66894424 		movw	%ax, 72(%esp)
 126      48
 127 0036 D96C2448 		fldcw	72(%esp)
 128 003a DB5C2444 		fistpl	68(%esp)
 129 003e D96C244A 		fldcw	74(%esp)
 130 0042 8B5C2444 		movl	68(%esp), %ebx
 131 0046 895C2444 		movl	%ebx, 68(%esp)
 132 004a 6BDB64   		imull	$100, %ebx, %ebx
 133 004d DB442444 		fildl	68(%esp)
 134 0051 DC0D2000 		fmull	LC4
 134      0000
 135 0057 DD1C24   		fstpl	(%esp)
 136 005a DD5C2430 		fstpl	48(%esp)
 137 005e E8000000 		call	_round
 137      00
 138 0063 895C2444 		movl	%ebx, 68(%esp)
 139 0067 D97C244A 		fnstcw	74(%esp)
 140 006b DB442444 		fildl	68(%esp)
 141 006f D9442410 		flds	16(%esp)
 142 0073 0FB74424 		movzwl	74(%esp), %eax
 142      4A
 143 0078 DEE1     		fsubp	%st, %st(1)
 144 007a B40C     		movb	$12, %ah
 145 007c 66894424 		movw	%ax, 72(%esp)
 145      48
 146 0081 D96C2448 		fldcw	72(%esp)
 147 0085 DB5C2444 		fistpl	68(%esp)
 148 0089 D96C244A 		fldcw	74(%esp)
 149 008d 8B442444 		movl	68(%esp), %eax
 150 0091 89442444 		movl	%eax, 68(%esp)
 151 0095 DB442444 		fildl	68(%esp)
 152 0099 DC0D2000 		fmull	LC4
 152      0000
 153 009f DD1C24   		fstpl	(%esp)
 154 00a2 DD5C2420 		fstpl	32(%esp)
 155 00a6 E8000000 		call	_round
 155      00
 156 00ab D9051400 		flds	LC2
GAS LISTING /cygdrive/c/Users/pc/AppData/Local/Temp/cclIu6AQ.s 			page 4


 156      0000
 157 00b1 DD442430 		fldl	48(%esp)
 158 00b5 D8C9     		fmul	%st(1), %st
 159 00b7 DC0D2000 		fmull	LC4
 159      0000
 160 00bd DD1C24   		fstpl	(%esp)
 161 00c0 D9C9     		fxch	%st(1)
 162 00c2 DD5C2430 		fstpl	48(%esp)
 163 00c6 D95C2410 		fstps	16(%esp)
 164 00ca E8000000 		call	_round
 164      00
 165 00cf DD442430 		fldl	48(%esp)
 166 00d3 D95C244C 		fstps	76(%esp)
 167 00d7 D944244C 		flds	76(%esp)
 168 00db D9442410 		flds	16(%esp)
 169 00df DEF9     		fdivrp	%st, %st(1)
 170 00e1 DD442420 		fldl	32(%esp)
 171 00e5 D95C244C 		fstps	76(%esp)
 172 00e9 D944244C 		flds	76(%esp)
 173 00ed DEC1     		faddp	%st, %st(1)
 174 00ef D9C9     		fxch	%st(1)
 175 00f1 D95C244C 		fstps	76(%esp)
 176 00f5 D944244C 		flds	76(%esp)
 177 00f9 D8351800 		fdivs	LC3
 177      0000
 178 00ff DEC1     		faddp	%st, %st(1)
 179 0101 DD1C24   		fstpl	(%esp)
 180 0104 E8000000 		call	_round
 180      00
 181 0109 DC352000 		fdivl	LC4
 181      0000
 182 010f D95C244C 		fstps	76(%esp)
 183 0113 D944244C 		flds	76(%esp)
 184 0117 83C468   		addl	$104, %esp
 185              		.cfi_def_cfa_offset 8
 186 011a 5B       		popl	%ebx
 187              		.cfi_restore 3
 188              		.cfi_def_cfa_offset 4
 189 011b C3       		ret
 190              		.cfi_endproc
 191              	LFE70:
 192 011c 90909090 		.section	.text$gps_convert_deg_to_dec,"x"
 193              		.p2align 4,,15
 194              		.globl	_gps_convert_deg_to_dec
 195              		.def	_gps_convert_deg_to_dec;	.scl	2;	.type	32;	.endef
 196              	_gps_convert_deg_to_dec:
 197              	LFB71:
 198              		.cfi_startproc
 199 0000 83EC2C   		subl	$44, %esp
 200              		.cfi_def_cfa_offset 48
 201 0003 895C2424 		movl	%ebx, 36(%esp)
 202              		.cfi_offset 3, -12
 203 0007 8B5C2430 		movl	48(%esp), %ebx
 204 000b 807C2434 		cmpb	$78, 52(%esp)
 204      4E
 205 0010 89742428 		movl	%esi, 40(%esp)
 206              		.cfi_offset 6, -8
GAS LISTING /cygdrive/c/Users/pc/AppData/Local/Temp/cclIu6AQ.s 			page 5


 207 0014 0FB64424 		movzbl	60(%esp), %eax
 207      3C
 208 0019 8B742438 		movl	56(%esp), %esi
 209 001d D903     		flds	(%ebx)
 210 001f 7402     		je	L21
 211 0021 D9E0     		fchs
 212              	L21:
 213 0023 3C45     		cmpb	$69, %al
 214 0025 D906     		flds	(%esi)
 215 0027 7407     		je	L25
 216 0029 D9E0     		fchs
 217 002b D9C9     		fxch	%st(1)
 218 002d EB03     		jmp	L23
 219 002f 90       		.p2align 4,,7
 220              	L25:
 221 0030 D9C9     		fxch	%st(1)
 222              		.p2align 4,,7
 223              	L23:
 224 0032 D91C24   		fstps	(%esp)
 225 0035 D95C2410 		fstps	16(%esp)
 226 0039 E8000000 		call	_gps_deg_dec
 226      00
 227 003e D91B     		fstps	(%ebx)
 228 0040 D9442410 		flds	16(%esp)
 229 0044 D91C24   		fstps	(%esp)
 230 0047 E8000000 		call	_gps_deg_dec
 230      00
 231 004c 8B5C2424 		movl	36(%esp), %ebx
 232 0050 D91E     		fstps	(%esi)
 233 0052 8B742428 		movl	40(%esp), %esi
 234 0056 83C42C   		addl	$44, %esp
 235              		.cfi_restore 6
 236              		.cfi_restore 3
 237              		.cfi_def_cfa_offset 4
 238 0059 C3       		ret
 239              		.cfi_endproc
 240              	LFE71:
 241 005a 90909090 		.section	.text$str_till_comma,"x"
 241      9090
 242              		.p2align 4,,15
 243              		.globl	_str_till_comma
 244              		.def	_str_till_comma;	.scl	2;	.type	32;	.endef
 245              	_str_till_comma:
 246              	LFB72:
 247              		.cfi_startproc
 248 0000 57       		pushl	%edi
 249              		.cfi_def_cfa_offset 8
 250              		.cfi_offset 7, -8
 251 0001 56       		pushl	%esi
 252              		.cfi_def_cfa_offset 12
 253              		.cfi_offset 6, -12
 254 0002 53       		pushl	%ebx
 255              		.cfi_def_cfa_offset 16
 256              		.cfi_offset 3, -16
 257 0003 BB000100 		movl	$256, %ebx
 257      00
 258 0008 83EC10   		subl	$16, %esp
GAS LISTING /cygdrive/c/Users/pc/AppData/Local/Temp/cclIu6AQ.s 			page 6


 259              		.cfi_def_cfa_offset 32
 260 000b 8B742420 		movl	32(%esp), %esi
 261 000f 8B7C2424 		movl	36(%esp), %edi
 262 0013 893424   		movl	%esi, (%esp)
 263 0016 E8000000 		call	_strlen
 263      00
 264 001b 0FB616   		movzbl	(%esi), %edx
 265 001e 3D000100 		cmpl	$256, %eax
 265      00
 266 0023 0F4ED8   		cmovle	%eax, %ebx
 267 0026 31C9     		xorl	%ecx, %ecx
 268 0028 31C0     		xorl	%eax, %eax
 269 002a 80FA2C   		cmpb	$44, %dl
 270 002d 741B     		je	L27
 271 002f 85DB     		testl	%ebx, %ebx
 272 0031 7F06     		jg	L28
 273 0033 EB15     		jmp	L27
 274              		.p2align 4,,7
 275              	L36:
 276 0035 39D8     		cmpl	%ebx, %eax
 277              		.p2align 4,,7
 278 0037 7411     		je	L27
 279              	L28:
 280 0039 83C001   		addl	$1, %eax
 281 003c 88140F   		movb	%dl, (%edi,%ecx)
 282 003f 0FB61406 		movzbl	(%esi,%eax), %edx
 283 0043 89C1     		movl	%eax, %ecx
 284 0045 80FA2C   		cmpb	$44, %dl
 285 0048 75EB     		jne	L36
 286              	L27:
 287 004a C6040F00 		movb	$0, (%edi,%ecx)
 288 004e 83C410   		addl	$16, %esp
 289              		.cfi_def_cfa_offset 16
 290 0051 5B       		popl	%ebx
 291              		.cfi_restore 3
 292              		.cfi_def_cfa_offset 12
 293 0052 5E       		popl	%esi
 294              		.cfi_restore 6
 295              		.cfi_def_cfa_offset 8
 296 0053 5F       		popl	%edi
 297              		.cfi_restore 7
 298              		.cfi_def_cfa_offset 4
 299 0054 C3       		ret
 300              		.cfi_endproc
 301              	LFE72:
 302 0055 90909090 		.section	.text$nmea_parse_gpgga,"x"
 302      90909090 
 302      909090
 303              		.p2align 4,,15
 304              		.globl	_nmea_parse_gpgga
 305              		.def	_nmea_parse_gpgga;	.scl	2;	.type	32;	.endef
 306              	_nmea_parse_gpgga:
 307              	LFB73:
 308              		.cfi_startproc
 309 0000 81EC2C01 		subl	$300, %esp
 309      0000
 310              		.cfi_def_cfa_offset 304
GAS LISTING /cygdrive/c/Users/pc/AppData/Local/Temp/cclIu6AQ.s 			page 7


 311 0006 8B842430 		movl	304(%esp), %eax
 311      010000
 312 000d C7442404 		movl	$44, 4(%esp)
 312      2C000000 
 313 0015 899C241C 		movl	%ebx, 284(%esp)
 313      010000
 314              		.cfi_offset 3, -20
 315 001c 8D5C2410 		leal	16(%esp), %ebx
 316 0020 89B42420 		movl	%esi, 288(%esp)
 316      010000
 317 0027 890424   		movl	%eax, (%esp)
 318 002a 89BC2424 		movl	%edi, 292(%esp)
 318      010000
 319              		.cfi_offset 6, -16
 320              		.cfi_offset 7, -12
 321 0031 8BBC2434 		movl	308(%esp), %edi
 321      010000
 322 0038 89AC2428 		movl	%ebp, 296(%esp)
 322      010000
 323              		.cfi_offset 5, -8
 324 003f E8000000 		call	_strchr
 324      00
 325 0044 C7442404 		movl	$44, 4(%esp)
 325      2C000000 
 326 004c 83C001   		addl	$1, %eax
 327 004f 890424   		movl	%eax, (%esp)
 328 0052 E8000000 		call	_strchr
 328      00
 329 0057 895C2404 		movl	%ebx, 4(%esp)
 330 005b 8D6801   		leal	1(%eax), %ebp
 331 005e 89C6     		movl	%eax, %esi
 332 0060 892C24   		movl	%ebp, (%esp)
 333 0063 E8000000 		call	_str_till_comma
 333      00
 334 0068 807E0100 		cmpb	$0, 1(%esi)
 335 006c 7523     		jne	L49
 336              	L37:
 337 006e 8B9C241C 		movl	284(%esp), %ebx
 337      010000
 338 0075 8BB42420 		movl	288(%esp), %esi
 338      010000
 339 007c 8BBC2424 		movl	292(%esp), %edi
 339      010000
 340 0083 8BAC2428 		movl	296(%esp), %ebp
 340      010000
 341 008a 81C42C01 		addl	$300, %esp
 341      0000
 342              		.cfi_remember_state
 343              		.cfi_restore 5
 344              		.cfi_restore 7
 345              		.cfi_restore 6
 346              		.cfi_restore 3
 347              		.cfi_def_cfa_offset 4
 348 0090 C3       		ret
 349              		.p2align 4,,7
 350              	L49:
 351              		.cfi_restore_state
GAS LISTING /cygdrive/c/Users/pc/AppData/Local/Temp/cclIu6AQ.s 			page 8


 352 0091 891C24   		movl	%ebx, (%esp)
 353 0094 E8000000 		call	_atoff
 353      00
 354 0099 D91F     		fstps	(%edi)
 355 009b C7442404 		movl	$44, 4(%esp)
 355      2C000000 
 356 00a3 892C24   		movl	%ebp, (%esp)
 357 00a6 E8000000 		call	_strchr
 357      00
 358 00ab 8D5001   		leal	1(%eax), %edx
 359 00ae 0FB64001 		movzbl	1(%eax), %eax
 360 00b2 3C4E     		cmpb	$78, %al
 361 00b4 0F841601 		je	L41
 361      0000
 362 00ba 3C53     		cmpb	$83, %al
 363 00bc 0F84FE00 		je	L42
 363      0000
 364 00c2 3C2C     		cmpb	$44, %al
 365 00c4 7504     		jne	L39
 366 00c6 C6474400 		movb	$0, 68(%edi)
 367              	L39:
 368 00ca 891424   		movl	%edx, (%esp)
 369 00cd C7442404 		movl	$44, 4(%esp)
 369      2C000000 
 370 00d5 E8000000 		call	_strchr
 370      00
 371 00da 895C2404 		movl	%ebx, 4(%esp)
 372 00de 8D7001   		leal	1(%eax), %esi
 373 00e1 893424   		movl	%esi, (%esp)
 374 00e4 E8000000 		call	_str_till_comma
 374      00
 375 00e9 891C24   		movl	%ebx, (%esp)
 376 00ec E8000000 		call	_atoff
 376      00
 377 00f1 D95F04   		fstps	4(%edi)
 378 00f4 C7442404 		movl	$44, 4(%esp)
 378      2C000000 
 379 00fc 893424   		movl	%esi, (%esp)
 380 00ff E8000000 		call	_strchr
 380      00
 381 0104 8D5001   		leal	1(%eax), %edx
 382 0107 0FB64001 		movzbl	1(%eax), %eax
 383 010b 3C45     		cmpb	$69, %al
 384 010d 0F84DD00 		je	L45
 384      0000
 385 0113 3C57     		cmpb	$87, %al
 386 0115 0F84C500 		je	L46
 386      0000
 387 011b 3C2C     		cmpb	$44, %al
 388 011d 7504     		jne	L43
 389 011f C6474500 		movb	$0, 69(%edi)
 390              	L43:
 391 0123 891424   		movl	%edx, (%esp)
 392 0126 C7442404 		movl	$44, 4(%esp)
 392      2C000000 
 393 012e E8000000 		call	_strchr
 393      00
GAS LISTING /cygdrive/c/Users/pc/AppData/Local/Temp/cclIu6AQ.s 			page 9


 394 0133 895C2404 		movl	%ebx, 4(%esp)
 395 0137 8D7001   		leal	1(%eax), %esi
 396 013a 893424   		movl	%esi, (%esp)
 397 013d E8000000 		call	_str_till_comma
 397      00
 398 0142 891C24   		movl	%ebx, (%esp)
 399 0145 E8000000 		call	_atoi
 399      00
 400 014a 89473C   		movl	%eax, 60(%edi)
 401 014d 893424   		movl	%esi, (%esp)
 402 0150 C7442404 		movl	$44, 4(%esp)
 402      2C000000 
 403 0158 E8000000 		call	_strchr
 403      00
 404 015d 895C2404 		movl	%ebx, 4(%esp)
 405 0161 8D7001   		leal	1(%eax), %esi
 406 0164 893424   		movl	%esi, (%esp)
 407 0167 E8000000 		call	_str_till_comma
 407      00
 408 016c 891C24   		movl	%ebx, (%esp)
 409 016f E8000000 		call	_atoi
 409      00
 410 0174 894740   		movl	%eax, 64(%edi)
 411 0177 C7442404 		movl	$44, 4(%esp)
 411      2C000000 
 412 017f 893424   		movl	%esi, (%esp)
 413 0182 E8000000 		call	_strchr
 413      00
 414 0187 C7442404 		movl	$44, 4(%esp)
 414      2C000000 
 415 018f 83C001   		addl	$1, %eax
 416 0192 890424   		movl	%eax, (%esp)
 417 0195 E8000000 		call	_strchr
 417      00
 418 019a 895C2404 		movl	%ebx, 4(%esp)
 419 019e 83C001   		addl	$1, %eax
 420 01a1 890424   		movl	%eax, (%esp)
 421 01a4 E8000000 		call	_str_till_comma
 421      00
 422 01a9 891C24   		movl	%ebx, (%esp)
 423 01ac E8000000 		call	_atoff
 423      00
 424 01b1 D95F0C   		fstps	12(%edi)
 425 01b4 E9B5FEFF 		jmp	L37
 425      FF
 426 01b9 8DB42600 		.p2align 4,,7
 426      000000
 427              	L42:
 428 01c0 C6474453 		movb	$83, 68(%edi)
 429 01c4 E901FFFF 		jmp	L39
 429      FF
 430 01c9 8DB42600 		.p2align 4,,7
 430      000000
 431              	L41:
 432 01d0 C647444E 		movb	$78, 68(%edi)
 433 01d4 E9F1FEFF 		jmp	L39
 433      FF
GAS LISTING /cygdrive/c/Users/pc/AppData/Local/Temp/cclIu6AQ.s 			page 10


 434 01d9 8DB42600 		.p2align 4,,7
 434      000000
 435              	L46:
 436 01e0 C6474557 		movb	$87, 69(%edi)
 437 01e4 E93AFFFF 		jmp	L43
 437      FF
 438 01e9 8DB42600 		.p2align 4,,7
 438      000000
 439              	L45:
 440 01f0 C6474545 		movb	$69, 69(%edi)
 441 01f4 E92AFFFF 		jmp	L43
 441      FF
 442              		.cfi_endproc
 443              	LFE73:
 444 01f9 90909090 		.section	.text$nmea_parse_gprmc,"x"
 444      909090
 445              		.p2align 4,,15
 446              		.globl	_nmea_parse_gprmc
 447              		.def	_nmea_parse_gprmc;	.scl	2;	.type	32;	.endef
 448              	_nmea_parse_gprmc:
 449              	LFB74:
 450              		.cfi_startproc
 451 0000 55       		pushl	%ebp
 452              		.cfi_def_cfa_offset 8
 453              		.cfi_offset 5, -8
 454 0001 57       		pushl	%edi
 455              		.cfi_def_cfa_offset 12
 456              		.cfi_offset 7, -12
 457 0002 56       		pushl	%esi
 458              		.cfi_def_cfa_offset 16
 459              		.cfi_offset 6, -16
 460 0003 53       		pushl	%ebx
 461              		.cfi_def_cfa_offset 20
 462              		.cfi_offset 3, -20
 463 0004 81EC3C01 		subl	$316, %esp
 463      0000
 464              		.cfi_def_cfa_offset 336
 465 000a 8B842450 		movl	336(%esp), %eax
 465      010000
 466 0011 8D5C2430 		leal	48(%esp), %ebx
 467 0015 C7442404 		movl	$44, 4(%esp)
 467      2C000000 
 468 001d 8BB42454 		movl	340(%esp), %esi
 468      010000
 469 0024 890424   		movl	%eax, (%esp)
 470 0027 E8000000 		call	_strchr
 470      00
 471 002c 895C2404 		movl	%ebx, 4(%esp)
 472 0030 8D6801   		leal	1(%eax), %ebp
 473 0033 892C24   		movl	%ebp, (%esp)
 474 0036 E8000000 		call	_str_till_comma
 474      00
 475 003b 89D9     		movl	%ebx, %ecx
 476              	L51:
 477 003d 8B01     		movl	(%ecx), %eax
 478 003f 83C104   		addl	$4, %ecx
 479 0042 8D90FFFE 		leal	-16843009(%eax), %edx
GAS LISTING /cygdrive/c/Users/pc/AppData/Local/Temp/cclIu6AQ.s 			page 11


 479      FEFE
 480 0048 F7D0     		notl	%eax
 481 004a 21C2     		andl	%eax, %edx
 482 004c 81E28080 		andl	$-2139062144, %edx
 482      8080
 483 0052 74E9     		je	L51
 484 0054 89D0     		movl	%edx, %eax
 485 0056 C1E810   		shrl	$16, %eax
 486 0059 F7C28080 		testl	$32896, %edx
 486      0000
 487 005f 0F44D0   		cmove	%eax, %edx
 488 0062 8D4102   		leal	2(%ecx), %eax
 489 0065 0F44C8   		cmove	%eax, %ecx
 490 0068 00D2     		addb	%dl, %dl
 491 006a 83D903   		sbbl	$3, %ecx
 492 006d 29D9     		subl	%ebx, %ecx
 493 006f 83F905   		cmpl	$5, %ecx
 494 0072 0F87DA01 		ja	L77
 494      0000
 495              	L53:
 496 0078 892C24   		movl	%ebp, (%esp)
 497 007b C7442404 		movl	$44, 4(%esp)
 497      2C000000 
 498 0083 E8000000 		call	_strchr
 498      00
 499 0088 895C2404 		movl	%ebx, 4(%esp)
 500 008c 8D6801   		leal	1(%eax), %ebp
 501 008f 892C24   		movl	%ebp, (%esp)
 502 0092 E8000000 		call	_str_till_comma
 502      00
 503 0097 807C2430 		cmpb	$86, 48(%esp)
 503      56
 504 009c 0F845E02 		je	L78
 504      0000
 505 00a2 C7463C04 		movl	$4, 60(%esi)
 505      000000
 506 00a9 892C24   		movl	%ebp, (%esp)
 507 00ac C7442404 		movl	$44, 4(%esp)
 507      2C000000 
 508 00b4 E8000000 		call	_strchr
 508      00
 509 00b9 895C2404 		movl	%ebx, 4(%esp)
 510 00bd 8D6801   		leal	1(%eax), %ebp
 511 00c0 892C24   		movl	%ebp, (%esp)
 512 00c3 E8000000 		call	_str_till_comma
 512      00
 513 00c8 891C24   		movl	%ebx, (%esp)
 514 00cb E8000000 		call	_atoff
 514      00
 515 00d0 D91E     		fstps	(%esi)
 516 00d2 C7442404 		movl	$44, 4(%esp)
 516      2C000000 
 517 00da 892C24   		movl	%ebp, (%esp)
 518 00dd E8000000 		call	_strchr
 518      00
 519 00e2 8D5001   		leal	1(%eax), %edx
 520 00e5 0FB64001 		movzbl	1(%eax), %eax
GAS LISTING /cygdrive/c/Users/pc/AppData/Local/Temp/cclIu6AQ.s 			page 12


 521 00e9 3C4E     		cmpb	$78, %al
 522 00eb 0F842102 		je	L58
 522      0000
 523 00f1 3C53     		cmpb	$83, %al
 524 00f3 0F842702 		je	L59
 524      0000
 525 00f9 3C2C     		cmpb	$44, %al
 526 00fb 7504     		jne	L56
 527 00fd C6464400 		movb	$0, 68(%esi)
 528              	L56:
 529 0101 891424   		movl	%edx, (%esp)
 530 0104 C7442404 		movl	$44, 4(%esp)
 530      2C000000 
 531 010c E8000000 		call	_strchr
 531      00
 532 0111 895C2404 		movl	%ebx, 4(%esp)
 533 0115 8D6801   		leal	1(%eax), %ebp
 534 0118 892C24   		movl	%ebp, (%esp)
 535 011b E8000000 		call	_str_till_comma
 535      00
 536 0120 891C24   		movl	%ebx, (%esp)
 537 0123 E8000000 		call	_atoff
 537      00
 538 0128 D95E04   		fstps	4(%esi)
 539 012b C7442404 		movl	$44, 4(%esp)
 539      2C000000 
 540 0133 892C24   		movl	%ebp, (%esp)
 541 0136 E8000000 		call	_strchr
 541      00
 542 013b 8D5001   		leal	1(%eax), %edx
 543 013e 0FB64001 		movzbl	1(%eax), %eax
 544 0142 3C45     		cmpb	$69, %al
 545 0144 0F84F601 		je	L62
 545      0000
 546 014a 3C57     		cmpb	$87, %al
 547 014c 0F84DE01 		je	L63
 547      0000
 548 0152 3C2C     		cmpb	$44, %al
 549 0154 7504     		jne	L60
 550 0156 C6464500 		movb	$0, 69(%esi)
 551              	L60:
 552 015a 891424   		movl	%edx, (%esp)
 553 015d C7442404 		movl	$44, 4(%esp)
 553      2C000000 
 554 0165 E8000000 		call	_strchr
 554      00
 555 016a 895C2404 		movl	%ebx, 4(%esp)
 556 016e 8D6801   		leal	1(%eax), %ebp
 557 0171 892C24   		movl	%ebp, (%esp)
 558 0174 E8000000 		call	_str_till_comma
 558      00
 559 0179 891C24   		movl	%ebx, (%esp)
 560 017c E8000000 		call	_atoff
 560      00
 561 0181 D95E08   		fstps	8(%esi)
 562 0184 892C24   		movl	%ebp, (%esp)
 563 0187 C7442404 		movl	$44, 4(%esp)
GAS LISTING /cygdrive/c/Users/pc/AppData/Local/Temp/cclIu6AQ.s 			page 13


 563      2C000000 
 564 018f E8000000 		call	_strchr
 564      00
 565 0194 895C2404 		movl	%ebx, 4(%esp)
 566 0198 8D6801   		leal	1(%eax), %ebp
 567 019b 892C24   		movl	%ebp, (%esp)
 568 019e E8000000 		call	_str_till_comma
 568      00
 569 01a3 891C24   		movl	%ebx, (%esp)
 570 01a6 E8000000 		call	_atoff
 570      00
 571 01ab D95E10   		fstps	16(%esi)
 572 01ae C7442404 		movl	$44, 4(%esp)
 572      2C000000 
 573 01b6 892C24   		movl	%ebp, (%esp)
 574 01b9 E8000000 		call	_strchr
 574      00
 575 01be 895C2404 		movl	%ebx, 4(%esp)
 576 01c2 83C001   		addl	$1, %eax
 577 01c5 890424   		movl	%eax, (%esp)
 578 01c8 E8000000 		call	_str_till_comma
 578      00
 579 01cd 89DA     		movl	%ebx, %edx
 580              	L64:
 581 01cf 8B0A     		movl	(%edx), %ecx
 582 01d1 83C204   		addl	$4, %edx
 583 01d4 8D81FFFE 		leal	-16843009(%ecx), %eax
 583      FEFE
 584 01da F7D1     		notl	%ecx
 585 01dc 21C8     		andl	%ecx, %eax
 586 01de 25808080 		andl	$-2139062144, %eax
 586      80
 587 01e3 74EA     		je	L64
 588 01e5 89C1     		movl	%eax, %ecx
 589 01e7 C1E910   		shrl	$16, %ecx
 590 01ea A9808000 		testl	$32896, %eax
 590      00
 591 01ef 0F44C1   		cmove	%ecx, %eax
 592 01f2 8D4A02   		leal	2(%edx), %ecx
 593 01f5 0F44D1   		cmove	%ecx, %edx
 594 01f8 00C0     		addb	%al, %al
 595 01fa 83DA03   		sbbl	$3, %edx
 596 01fd 29DA     		subl	%ebx, %edx
 597 01ff 83FA05   		cmpl	$5, %edx
 598 0202 0F87A000 		ja	L79
 598      0000
 599              	L66:
 600 0208 85FF     		testl	%edi, %edi
 601 020a 7E3B     		jle	L50
 602 020c 8B442420 		movl	32(%esp), %eax
 603 0210 897E28   		movl	%edi, 40(%esi)
 604 0213 C7462C00 		movl	$0, 44(%esi)
 604      000000
 605 021a C7463000 		movl	$0, 48(%esi)
 605      000000
 606 0221 894614   		movl	%eax, 20(%esi)
 607 0224 8B442424 		movl	36(%esp), %eax
GAS LISTING /cygdrive/c/Users/pc/AppData/Local/Temp/cclIu6AQ.s 			page 14


 608 0228 C7463400 		movl	$0, 52(%esi)
 608      000000
 609 022f 894618   		movl	%eax, 24(%esi)
 610 0232 8B44241C 		movl	28(%esp), %eax
 611 0236 89461C   		movl	%eax, 28(%esi)
 612 0239 8B44242C 		movl	44(%esp), %eax
 613 023d 894620   		movl	%eax, 32(%esi)
 614 0240 8B442428 		movl	40(%esp), %eax
 615 0244 894624   		movl	%eax, 36(%esi)
 616              	L50:
 617 0247 81C43C01 		addl	$316, %esp
 617      0000
 618              		.cfi_remember_state
 619              		.cfi_def_cfa_offset 20
 620 024d 5B       		popl	%ebx
 621              		.cfi_restore 3
 622              		.cfi_def_cfa_offset 16
 623 024e 5E       		popl	%esi
 624              		.cfi_restore 6
 625              		.cfi_def_cfa_offset 12
 626 024f 5F       		popl	%edi
 627              		.cfi_restore 7
 628              		.cfi_def_cfa_offset 8
 629 0250 5D       		popl	%ebp
 630              		.cfi_restore 5
 631              		.cfi_def_cfa_offset 4
 632 0251 C3       		ret
 633              		.p2align 4,,7
 634              	L77:
 635              		.cfi_restore_state
 636 0252 0FBE4424 		movsbl	48(%esp), %eax
 636      30
 637 0257 83E830   		subl	$48, %eax
 638 025a 8D1400   		leal	(%eax,%eax), %edx
 639 025d 8D14C2   		leal	(%edx,%eax,8), %edx
 640 0260 0FBE4424 		movsbl	49(%esp), %eax
 640      31
 641 0265 8D4402D0 		leal	-48(%edx,%eax), %eax
 642 0269 8944241C 		movl	%eax, 28(%esp)
 643 026d 0FBE4424 		movsbl	50(%esp), %eax
 643      32
 644 0272 83E830   		subl	$48, %eax
 645 0275 8D1400   		leal	(%eax,%eax), %edx
 646 0278 8D14C2   		leal	(%edx,%eax,8), %edx
 647 027b 0FBE4424 		movsbl	51(%esp), %eax
 647      33
 648 0280 8D4402D0 		leal	-48(%edx,%eax), %eax
 649 0284 89442424 		movl	%eax, 36(%esp)
 650 0288 0FBE4424 		movsbl	52(%esp), %eax
 650      34
 651 028d 83E830   		subl	$48, %eax
 652 0290 8D1400   		leal	(%eax,%eax), %edx
 653 0293 8D14C2   		leal	(%edx,%eax,8), %edx
 654 0296 0FBE4424 		movsbl	53(%esp), %eax
 654      35
 655 029b 8D4402D0 		leal	-48(%edx,%eax), %eax
 656 029f 89442420 		movl	%eax, 32(%esp)
GAS LISTING /cygdrive/c/Users/pc/AppData/Local/Temp/cclIu6AQ.s 			page 15


 657 02a3 E9D0FDFF 		jmp	L53
 657      FF
 658              		.p2align 4,,7
 659              	L79:
 660 02a8 0FBE4424 		movsbl	48(%esp), %eax
 660      30
 661 02ad 83E830   		subl	$48, %eax
 662 02b0 8D1400   		leal	(%eax,%eax), %edx
 663 02b3 8D14C2   		leal	(%edx,%eax,8), %edx
 664 02b6 0FBE4424 		movsbl	49(%esp), %eax
 664      31
 665 02bb 8D4402D0 		leal	-48(%edx,%eax), %eax
 666 02bf 8944242C 		movl	%eax, 44(%esp)
 667 02c3 0FBE4424 		movsbl	50(%esp), %eax
 667      32
 668 02c8 83E830   		subl	$48, %eax
 669 02cb 8D1400   		leal	(%eax,%eax), %edx
 670 02ce 8D14C2   		leal	(%edx,%eax,8), %edx
 671 02d1 0FBE4424 		movsbl	51(%esp), %eax
 671      33
 672 02d6 8D4402D0 		leal	-48(%edx,%eax), %eax
 673 02da 89442428 		movl	%eax, 40(%esp)
 674 02de 0FBE4424 		movsbl	52(%esp), %eax
 674      34
 675 02e3 83E830   		subl	$48, %eax
 676 02e6 8D1400   		leal	(%eax,%eax), %edx
 677 02e9 8D14C2   		leal	(%edx,%eax,8), %edx
 678 02ec 0FBE4424 		movsbl	53(%esp), %eax
 678      35
 679 02f1 8D7C0234 		leal	52(%edx,%eax), %edi
 680 02f5 E90EFFFF 		jmp	L66
 680      FF
 681 02fa 8DB60000 		.p2align 4,,7
 681      0000
 682              	L78:
 683 0300 C7463C00 		movl	$0, 60(%esi)
 683      000000
 684 0307 81C43C01 		addl	$316, %esp
 684      0000
 685              		.cfi_remember_state
 686              		.cfi_def_cfa_offset 20
 687 030d 5B       		popl	%ebx
 688              		.cfi_restore 3
 689              		.cfi_def_cfa_offset 16
 690 030e 5E       		popl	%esi
 691              		.cfi_restore 6
 692              		.cfi_def_cfa_offset 12
 693 030f 5F       		popl	%edi
 694              		.cfi_restore 7
 695              		.cfi_def_cfa_offset 8
 696 0310 5D       		popl	%ebp
 697              		.cfi_restore 5
 698              		.cfi_def_cfa_offset 4
 699 0311 C3       		ret
 700              		.p2align 4,,7
 701              	L58:
 702              		.cfi_restore_state
GAS LISTING /cygdrive/c/Users/pc/AppData/Local/Temp/cclIu6AQ.s 			page 16


 703 0312 C646444E 		movb	$78, 68(%esi)
 704 0316 E9E6FDFF 		jmp	L56
 704      FF
 705 031b 908D7426 		.p2align 4,,7
 705      00
 706              	L59:
 707 0320 C6464453 		movb	$83, 68(%esi)
 708 0324 E9D8FDFF 		jmp	L56
 708      FF
 709 0329 8DB42600 		.p2align 4,,7
 709      000000
 710              	L63:
 711 0330 C6464557 		movb	$87, 69(%esi)
 712 0334 E921FEFF 		jmp	L60
 712      FF
 713 0339 8DB42600 		.p2align 4,,7
 713      000000
 714              	L62:
 715 0340 C6464545 		movb	$69, 69(%esi)
 716 0344 E911FEFF 		jmp	L60
 716      FF
 717              		.cfi_endproc
 718              	LFE74:
 719 0349 90909090 		.section	.text$nmea_valid_checksum,"x"
 719      909090
 720              		.p2align 4,,15
 721              		.globl	_nmea_valid_checksum
 722              		.def	_nmea_valid_checksum;	.scl	2;	.type	32;	.endef
 723              	_nmea_valid_checksum:
 724              	LFB76:
 725              		.cfi_startproc
 726 0000 53       		pushl	%ebx
 727              		.cfi_def_cfa_offset 8
 728              		.cfi_offset 3, -8
 729 0001 83EC18   		subl	$24, %esp
 730              		.cfi_def_cfa_offset 32
 731 0004 8B5C2420 		movl	32(%esp), %ebx
 732 0008 C7442404 		movl	$42, 4(%esp)
 732      2A000000 
 733 0010 891C24   		movl	%ebx, (%esp)
 734 0013 E8000000 		call	_strrchr
 734      00
 735 0018 85C0     		testl	%eax, %eax
 736 001a 7435     		je	L85
 737 001c 83C001   		addl	$1, %eax
 738 001f C7442404 		movl	$2, 4(%esp)
 738      02000000 
 739 0027 890424   		movl	%eax, (%esp)
 740 002a E8000000 		call	_hex2int
 740      00
 741 002f 0FBE5301 		movsbl	1(%ebx), %edx
 742 0033 8D4B02   		leal	2(%ebx), %ecx
 743 0036 31DB     		xorl	%ebx, %ebx
 744 0038 80FA2A   		cmpb	$42, %dl
 745 003b 7410     		je	L83
 746 003d 8D7600   		.p2align 4,,7
 747              	L84:
GAS LISTING /cygdrive/c/Users/pc/AppData/Local/Temp/cclIu6AQ.s 			page 17


 748 0040 31D3     		xorl	%edx, %ebx
 749 0042 0FBE11   		movsbl	(%ecx), %edx
 750 0045 83C101   		addl	$1, %ecx
 751 0048 80FA2A   		cmpb	$42, %dl
 752 004b 75F3     		jne	L84
 753              	L83:
 754 004d 39C3     		cmpl	%eax, %ebx
 755 004f 740F     		je	L89
 756              	L85:
 757 0051 83C418   		addl	$24, %esp
 758              		.cfi_remember_state
 759              		.cfi_def_cfa_offset 8
 760 0054 B8800000 		movl	$128, %eax
 760      00
 761 0059 5B       		popl	%ebx
 762              		.cfi_restore 3
 763              		.cfi_def_cfa_offset 4
 764 005a C3       		ret
 765 005b 908D7426 		.p2align 4,,7
 765      00
 766              	L89:
 767              		.cfi_restore_state
 768 0060 83C418   		addl	$24, %esp
 769              		.cfi_def_cfa_offset 8
 770 0063 31C0     		xorl	%eax, %eax
 771 0065 5B       		popl	%ebx
 772              		.cfi_restore 3
 773              		.cfi_def_cfa_offset 4
 774 0066 C3       		ret
 775              		.cfi_endproc
 776              	LFE76:
 777 0067 90909090 		.section .rdata,"dr"
 777      90909090 
 777      90
 778              	LC6:
 779 0000 24475047 		.ascii "$GPGGA\0"
 779      474100
 780              	LC7:
 781 0007 24475052 		.ascii "$GPRMC\0"
 781      4D4300
 782              		.section	.text$nmea_get_message_type,"x"
 783              		.p2align 4,,15
 784              		.globl	_nmea_get_message_type
 785              		.def	_nmea_get_message_type;	.scl	2;	.type	32;	.endef
 786              	_nmea_get_message_type:
 787              	LFB75:
 788              		.cfi_startproc
 789 0000 53       		pushl	%ebx
 790              		.cfi_def_cfa_offset 8
 791              		.cfi_offset 3, -8
 792 0001 83EC18   		subl	$24, %esp
 793              		.cfi_def_cfa_offset 32
 794 0004 8B5C2420 		movl	32(%esp), %ebx
 795 0008 891C24   		movl	%ebx, (%esp)
 796 000b E8000000 		call	_nmea_valid_checksum
 796      00
 797 0010 85C0     		testl	%eax, %eax
GAS LISTING /cygdrive/c/Users/pc/AppData/Local/Temp/cclIu6AQ.s 			page 18


 798 0012 751B     		jne	L92
 799 0014 C7442404 		movl	$LC6, 4(%esp)
 799      00000000 
 800 001c 891C24   		movl	%ebx, (%esp)
 801 001f E8000000 		call	_strstr
 801      00
 802 0024 89C2     		movl	%eax, %edx
 803 0026 B8020000 		movl	$2, %eax
 803      00
 804 002b 85D2     		testl	%edx, %edx
 805 002d 7405     		je	L95
 806              	L92:
 807 002f 83C418   		addl	$24, %esp
 808              		.cfi_remember_state
 809              		.cfi_def_cfa_offset 8
 810 0032 5B       		popl	%ebx
 811              		.cfi_restore 3
 812              		.cfi_def_cfa_offset 4
 813 0033 C3       		ret
 814              		.p2align 4,,7
 815              	L95:
 816              		.cfi_restore_state
 817 0034 C7442404 		movl	$LC7, 4(%esp)
 817      07000000 
 818 003c 891C24   		movl	%ebx, (%esp)
 819 003f E8000000 		call	_strstr
 819      00
 820 0044 85C0     		testl	%eax, %eax
 821 0046 0F95C0   		setne	%al
 822 0049 0FB6C0   		movzbl	%al, %eax
 823 004c EBE1     		jmp	L92
 824              		.cfi_endproc
 825              	LFE75:
 826 004e 9090     		.section	.text$gps_location,"x"
 827              		.p2align 4,,15
 828              		.globl	_gps_location
 829              		.def	_gps_location;	.scl	2;	.type	32;	.endef
 830              	_gps_location:
 831              	LFB77:
 832              		.cfi_startproc
 833 0000 83EC1C   		subl	$28, %esp
 834              		.cfi_def_cfa_offset 32
 835 0003 89742418 		movl	%esi, 24(%esp)
 836              		.cfi_offset 6, -8
 837 0007 8B742424 		movl	36(%esp), %esi
 838 000b 895C2414 		movl	%ebx, 20(%esp)
 839              		.cfi_offset 3, -12
 840 000f 8B5C2420 		movl	32(%esp), %ebx
 841 0013 893424   		movl	%esi, (%esp)
 842 0016 E8000000 		call	_nmea_get_message_type
 842      00
 843 001b 83F801   		cmpl	$1, %eax
 844 001e 894338   		movl	%eax, 56(%ebx)
 845 0021 743D     		je	L98
 846 0023 83F802   		cmpl	$2, %eax
 847 0026 752B     		jne	L96
 848 0028 895C2404 		movl	%ebx, 4(%esp)
GAS LISTING /cygdrive/c/Users/pc/AppData/Local/Temp/cclIu6AQ.s 			page 19


 849 002c 893424   		movl	%esi, (%esp)
 850 002f E8000000 		call	_nmea_parse_gpgga
 850      00
 851 0034 0FBE4345 		movsbl	69(%ebx), %eax
 852 0038 8944240C 		movl	%eax, 12(%esp)
 853 003c 8D4304   		leal	4(%ebx), %eax
 854 003f 89442408 		movl	%eax, 8(%esp)
 855 0043 0FBE4344 		movsbl	68(%ebx), %eax
 856 0047 891C24   		movl	%ebx, (%esp)
 857 004a 89442404 		movl	%eax, 4(%esp)
 858 004e E8000000 		call	_gps_convert_deg_to_dec
 858      00
 859              	L96:
 860 0053 8B5C2414 		movl	20(%esp), %ebx
 861 0057 8B742418 		movl	24(%esp), %esi
 862 005b 83C41C   		addl	$28, %esp
 863              		.cfi_remember_state
 864              		.cfi_restore 6
 865              		.cfi_restore 3
 866              		.cfi_def_cfa_offset 4
 867 005e C3       		ret
 868 005f 90       		.p2align 4,,7
 869              	L98:
 870              		.cfi_restore_state
 871 0060 895C2424 		movl	%ebx, 36(%esp)
 872 0064 8B5C2414 		movl	20(%esp), %ebx
 873 0068 89742420 		movl	%esi, 32(%esp)
 874 006c 8B742418 		movl	24(%esp), %esi
 875 0070 83C41C   		addl	$28, %esp
 876              		.cfi_restore 6
 877              		.cfi_restore 3
 878              		.cfi_def_cfa_offset 4
 879 0073 E9000000 		jmp	_nmea_parse_gprmc
 879      00
 880              		.cfi_endproc
 881              	LFE77:
 882 0078 90909090 		.section .rdata,"dr"
 882      90909090 
 883 000e 0000     		.align 4
 884              	LC0:
 885 0010 0000C842 		.long	1120403456
 886              		.align 4
 887              	LC2:
 888 0014 00007042 		.long	1114636288
 889              		.align 4
 890              	LC3:
 891 0018 00006145 		.long	1163984896
 892 001c 00000000 		.align 8
 893              	LC4:
 894 0020 00000000 		.long	0
 895 0024 80842E41 		.long	1093567616
 896              		.def	_modf;	.scl	2;	.type	32;	.endef
 897              		.def	_round;	.scl	2;	.type	32;	.endef
 898              		.def	_strlen;	.scl	2;	.type	32;	.endef
 899              		.def	_strchr;	.scl	2;	.type	32;	.endef
 900              		.def	_atoff;	.scl	2;	.type	32;	.endef
 901              		.def	_atoi;	.scl	2;	.type	32;	.endef
GAS LISTING /cygdrive/c/Users/pc/AppData/Local/Temp/cclIu6AQ.s 			page 20


 902              		.def	_strrchr;	.scl	2;	.type	32;	.endef
 903              		.def	_strstr;	.scl	2;	.type	32;	.endef
GAS LISTING /cygdrive/c/Users/pc/AppData/Local/Temp/cclIu6AQ.s 			page 21

