GAS LISTING /cygdrive/c/Users/pc/AppData/Local/Temp/ccHJsz9U.s 			page 1


   1              		.file	"rpm_calculator.cpp"
   2              		.section	.text$_ZN13RpmCalculatorC2Ev,"x"
   3              		.align 2
   4              		.p2align 4,,15
   5              		.globl	__ZN13RpmCalculatorC2Ev
   6              		.def	__ZN13RpmCalculatorC2Ev;	.scl	2;	.type	32;	.endef
   7              	__ZN13RpmCalculatorC2Ev:
   8              	LFB86:
   9              		.cfi_startproc
  10 0000 83EC04   		subl	$4, %esp
  11              		.cfi_def_cfa_offset 8
  12 0003 C7410400 		movl	$0, 4(%ecx)
  12      000000
  13 000a 8B4104   		movl	4(%ecx), %eax
  14 000d C7410400 		movl	$0, 4(%ecx)
  14      000000
  15 0014 C701FFFF 		movl	$-1, (%ecx)
  15      FFFF
  16 001a 894108   		movl	%eax, 8(%ecx)
  17 001d 8B4104   		movl	4(%ecx), %eax
  18 0020 85C0     		testl	%eax, %eax
  19 0022 7E4C     		jle	L6
  20 0024 8B4104   		movl	4(%ecx), %eax
  21 0027 890424   		movl	%eax, (%esp)
  22 002a DB0424   		fildl	(%esp)
  23 002d D83D7C00 		fdivrs	LC1
  23      0000
  24 0033 D9590C   		fstps	12(%ecx)
  25              	L3:
  26 0036 C7411000 		movl	$-1000000000, 16(%ecx)
  26      3665C4
  27 003d C74114FF 		movl	$-1, 20(%ecx)
  27      FFFFFF
  28 0044 C7411C00 		movl	$0, 28(%ecx)
  28      000000
  29 004b C7411800 		movl	$0, 24(%ecx)
  29      000000
  30 0052 C7411000 		movl	$0, 16(%ecx)
  30      000000
  31 0059 C7411400 		movl	$0, 20(%ecx)
  31      000000
  32 0060 C7410C00 		movl	$0x7fc00000, 12(%ecx)
  32      00C07F
  33 0067 83C404   		addl	$4, %esp
  34              		.cfi_remember_state
  35              		.cfi_def_cfa_offset 4
  36 006a C3       		ret
  37 006b 908D7426 		.p2align 4,,7
  37      00
  38              	L6:
  39              		.cfi_restore_state
  40 0070 C7410C00 		movl	$0x7fc00000, 12(%ecx)
  40      00C07F
  41 0077 EBBD     		jmp	L3
  42              		.cfi_endproc
  43              	LFE86:
  44              		.globl	__ZN13RpmCalculatorC1Ev
GAS LISTING /cygdrive/c/Users/pc/AppData/Local/Temp/ccHJsz9U.s 			page 2


  45              		.def	__ZN13RpmCalculatorC1Ev;	.scl	2;	.type	32;	.endef
  46              		.set	__ZN13RpmCalculatorC1Ev,__ZN13RpmCalculatorC2Ev
  47 0079 90909090 		.section	.text$_ZN13RpmCalculator9isRunningEv,"x"
  47      909090
  48              		.align 2
  49              		.p2align 4,,15
  50              		.globl	__ZN13RpmCalculator9isRunningEv
  51              		.def	__ZN13RpmCalculator9isRunningEv;	.scl	2;	.type	32;	.endef
  52              	__ZN13RpmCalculator9isRunningEv:
  53              	LFB88:
  54              		.cfi_startproc
  55 0000 83EC1C   		subl	$28, %esp
  56              		.cfi_def_cfa_offset 32
  57 0003 895C2410 		movl	%ebx, 16(%esp)
  58              		.cfi_offset 3, -16
  59 0007 89CB     		movl	%ecx, %ebx
  60 0009 89742414 		movl	%esi, 20(%esp)
  61 000d 897C2418 		movl	%edi, 24(%esp)
  62              		.cfi_offset 6, -12
  63              		.cfi_offset 7, -8
  64 0011 E8000000 		call	_getTimeNowNt
  64      00
  65 0016 8B0D0000 		movl	_engine, %ecx
  65      0000
  66 001c 8B7130   		movl	48(%ecx), %esi
  67 001f 8B7934   		movl	52(%ecx), %edi
  68 0022 89742408 		movl	%esi, 8(%esp)
  69 0026 897C240C 		movl	%edi, 12(%esp)
  70 002a 09F7     		orl	%esi, %edi
  71 002c 741F     		je	L8
  72 002e 89C6     		movl	%eax, %esi
  73 0030 89D7     		movl	%edx, %edi
  74 0032 2B742408 		subl	8(%esp), %esi
  75 0036 1B7C240C 		sbbl	12(%esp), %edi
  76 003a 89742408 		movl	%esi, 8(%esp)
  77 003e 83FF00   		cmpl	$0, %edi
  78 0041 897C240C 		movl	%edi, 12(%esp)
  79 0045 0F8C7E00 		jl	L12
  79      0000
  80 004b 7E74     		jle	L19
  81              	L8:
  82 004d 8B7310   		movl	16(%ebx), %esi
  83 0050 8B7B14   		movl	20(%ebx), %edi
  84 0053 89742408 		movl	%esi, 8(%esp)
  85 0057 89C6     		movl	%eax, %esi
  86 0059 897C240C 		movl	%edi, 12(%esp)
  87 005d 89D7     		movl	%edx, %edi
  88 005f 2B742408 		subl	8(%esp), %esi
  89 0063 1B7C240C 		sbbl	12(%esp), %edi
  90 0067 89742408 		movl	%esi, 8(%esp)
  91 006b 83FF00   		cmpl	$0, %edi
  92 006e 897C240C 		movl	%edi, 12(%esp)
  93 0072 7C38     		jl	L13
  94 0074 7E2E     		jle	L20
  95              	L14:
  96 0076 A3000000 		movl	%eax, _notRunnintNow
  96      00
GAS LISTING /cygdrive/c/Users/pc/AppData/Local/Temp/ccHJsz9U.s 			page 3


  97 007b 8B4310   		movl	16(%ebx), %eax
  98 007e 89150400 		movl	%edx, _notRunnintNow+4
  98      0000
  99 0084 8B5314   		movl	20(%ebx), %edx
 100 0087 8B742414 		movl	20(%esp), %esi
 101 008b 8B5C2410 		movl	16(%esp), %ebx
 102 008f A3000000 		movl	%eax, _notRunningPrev
 102      00
 103 0094 8B7C2418 		movl	24(%esp), %edi
 104 0098 31C0     		xorl	%eax, %eax
 105 009a 89150400 		movl	%edx, _notRunningPrev+4
 105      0000
 106 00a0 83C41C   		addl	$28, %esp
 107              		.cfi_remember_state
 108              		.cfi_restore 7
 109              		.cfi_restore 6
 110              		.cfi_restore 3
 111              		.cfi_def_cfa_offset 4
 112 00a3 C3       		ret
 113              		.p2align 4,,7
 114              	L20:
 115              		.cfi_restore_state
 116 00a4 81FEFFE0 		cmpl	$99999999, %esi
 116      F505
 117 00aa 77CA     		ja	L14
 118              	L13:
 119 00ac B8010000 		movl	$1, %eax
 119      00
 120 00b1 8B5C2410 		movl	16(%esp), %ebx
 121 00b5 8B742414 		movl	20(%esp), %esi
 122 00b9 8B7C2418 		movl	24(%esp), %edi
 123 00bd 83C41C   		addl	$28, %esp
 124              		.cfi_remember_state
 125              		.cfi_restore 3
 126              		.cfi_restore 6
 127              		.cfi_restore 7
 128              		.cfi_def_cfa_offset 4
 129 00c0 C3       		ret
 130              		.p2align 4,,7
 131              	L19:
 132              		.cfi_restore_state
 133 00c1 81FEFFA2 		cmpl	$299999999, %esi
 133      E111
 134 00c7 7784     		ja	L8
 135              	L12:
 136 00c9 31C0     		xorl	%eax, %eax
 137 00cb 8B5C2410 		movl	16(%esp), %ebx
 138 00cf 8B742414 		movl	20(%esp), %esi
 139 00d3 8B7C2418 		movl	24(%esp), %edi
 140 00d7 83C41C   		addl	$28, %esp
 141              		.cfi_restore 3
 142              		.cfi_restore 6
 143              		.cfi_restore 7
 144              		.cfi_def_cfa_offset 4
 145 00da C3       		ret
 146              		.cfi_endproc
 147              	LFE88:
GAS LISTING /cygdrive/c/Users/pc/AppData/Local/Temp/ccHJsz9U.s 			page 4


 148 00db 90909090 		.section	.text$_ZN13RpmCalculator11setRpmValueEi,"x"
 148      90
 149              		.align 2
 150              		.p2align 4,,15
 151              		.globl	__ZN13RpmCalculator11setRpmValueEi
 152              		.def	__ZN13RpmCalculator11setRpmValueEi;	.scl	2;	.type	32;	.endef
 153              	__ZN13RpmCalculator11setRpmValueEi:
 154              	LFB89:
 155              		.cfi_startproc
 156 0000 83EC04   		subl	$4, %esp
 157              		.cfi_def_cfa_offset 8
 158 0003 8B4104   		movl	4(%ecx), %eax
 159 0006 894108   		movl	%eax, 8(%ecx)
 160 0009 8B442408 		movl	8(%esp), %eax
 161 000d 894104   		movl	%eax, 4(%ecx)
 162 0010 8B4104   		movl	4(%ecx), %eax
 163 0013 85C0     		testl	%eax, %eax
 164 0015 7E19     		jle	L25
 165 0017 8B4104   		movl	4(%ecx), %eax
 166 001a 890424   		movl	%eax, (%esp)
 167 001d DB0424   		fildl	(%esp)
 168 0020 D83D7C00 		fdivrs	LC1
 168      0000
 169 0026 D9590C   		fstps	12(%ecx)
 170 0029 83C404   		addl	$4, %esp
 171              		.cfi_remember_state
 172              		.cfi_def_cfa_offset 4
 173 002c C20400   		ret	$4
 174 002f 90       		.p2align 4,,7
 175              	L25:
 176              		.cfi_restore_state
 177 0030 C7410C00 		movl	$0x7fc00000, 12(%ecx)
 177      00C07F
 178 0037 83C404   		addl	$4, %esp
 179              		.cfi_def_cfa_offset 4
 180 003a C20400   		ret	$4
 181              		.cfi_endproc
 182              	LFE89:
 183 003d 909090   		.section	.text$_ZN13RpmCalculator16onNewEngineCycleEv,"x"
 184              		.align 2
 185              		.p2align 4,,15
 186              		.globl	__ZN13RpmCalculator16onNewEngineCycleEv
 187              		.def	__ZN13RpmCalculator16onNewEngineCycleEv;	.scl	2;	.type	32;	.endef
 188              	__ZN13RpmCalculator16onNewEngineCycleEv:
 189              	LFB90:
 190              		.cfi_startproc
 191 0000 8B4118   		movl	24(%ecx), %eax
 192 0003 83C001   		addl	$1, %eax
 193 0006 894118   		movl	%eax, 24(%ecx)
 194 0009 8B411C   		movl	28(%ecx), %eax
 195 000c 83C001   		addl	$1, %eax
 196 000f 89411C   		movl	%eax, 28(%ecx)
 197 0012 C3       		ret
 198              		.cfi_endproc
 199              	LFE90:
 200 0013 90909090 		.section	.text$_ZN13RpmCalculator20getRevolutionCounterEv,"x"
 200      90909090 
GAS LISTING /cygdrive/c/Users/pc/AppData/Local/Temp/ccHJsz9U.s 			page 5


 200      90909090 
 200      90
 201              		.align 2
 202              		.p2align 4,,15
 203              		.globl	__ZN13RpmCalculator20getRevolutionCounterEv
 204              		.def	__ZN13RpmCalculator20getRevolutionCounterEv;	.scl	2;	.type	32;	.endef
 205              	__ZN13RpmCalculator20getRevolutionCounterEv:
 206              	LFB91:
 207              		.cfi_startproc
 208 0000 8B4118   		movl	24(%ecx), %eax
 209 0003 C3       		ret
 210              		.cfi_endproc
 211              	LFE91:
 212 0004 90909090 		.section	.text$_ZN13RpmCalculator30getRevolutionCounterSinceStartEv,"x"
 212      90909090 
 212      90909090 
 213              		.align 2
 214              		.p2align 4,,15
 215              		.globl	__ZN13RpmCalculator30getRevolutionCounterSinceStartEv
 216              		.def	__ZN13RpmCalculator30getRevolutionCounterSinceStartEv;	.scl	2;	.type	32;	.endef
 217              	__ZN13RpmCalculator30getRevolutionCounterSinceStartEv:
 218              	LFB92:
 219              		.cfi_startproc
 220 0000 8B411C   		movl	28(%ecx), %eax
 221 0003 C3       		ret
 222              		.cfi_endproc
 223              	LFE92:
 224 0004 90909090 		.section	.text$_ZN13RpmCalculator18getRpmAccelerationEv,"x"
 224      90909090 
 224      90909090 
 225              		.align 2
 226              		.p2align 4,,15
 227              		.globl	__ZN13RpmCalculator18getRpmAccelerationEv
 228              		.def	__ZN13RpmCalculator18getRpmAccelerationEv;	.scl	2;	.type	32;	.endef
 229              	__ZN13RpmCalculator18getRpmAccelerationEv:
 230              	LFB93:
 231              		.cfi_startproc
 232 0000 83EC0C   		subl	$12, %esp
 233              		.cfi_def_cfa_offset 16
 234 0003 8B4104   		movl	4(%ecx), %eax
 235 0006 DB4108   		fildl	8(%ecx)
 236 0009 890424   		movl	%eax, (%esp)
 237 000c DB0424   		fildl	(%esp)
 238 000f DEF9     		fdivrp	%st, %st(1)
 239 0011 D95C2404 		fstps	4(%esp)
 240 0015 D9442404 		flds	4(%esp)
 241 0019 83C40C   		addl	$12, %esp
 242              		.cfi_def_cfa_offset 4
 243 001c C3       		ret
 244              		.cfi_endproc
 245              	LFE93:
 246 001d 909090   		.section .rdata,"dr"
 247              		.align 4
 248              	LC2:
 249 0000 74656D70 		.ascii "templog rpm=0 since not running [%x][%x] [%x][%x]\0"
 249      6C6F6720 
 249      72706D3D 
GAS LISTING /cygdrive/c/Users/pc/AppData/Local/Temp/ccHJsz9U.s 			page 6


 249      30207369 
 249      6E636520 
 250              		.section	.text$_ZN13RpmCalculator3rpmEv,"x"
 251              		.align 2
 252              		.p2align 4,,15
 253              		.globl	__ZN13RpmCalculator3rpmEv
 254              		.def	__ZN13RpmCalculator3rpmEv;	.scl	2;	.type	32;	.endef
 255              	__ZN13RpmCalculator3rpmEv:
 256              	LFB94:
 257              		.cfi_startproc
 258 0000 53       		pushl	%ebx
 259              		.cfi_def_cfa_offset 8
 260              		.cfi_offset 3, -8
 261 0001 89CB     		movl	%ecx, %ebx
 262 0003 83EC28   		subl	$40, %esp
 263              		.cfi_def_cfa_offset 48
 264 0006 8B01     		movl	(%ecx), %eax
 265 0008 83F8FF   		cmpl	$-1, %eax
 266 000b 7405     		je	L40
 267 000d 83C428   		addl	$40, %esp
 268              		.cfi_remember_state
 269              		.cfi_def_cfa_offset 8
 270 0010 5B       		popl	%ebx
 271              		.cfi_restore 3
 272              		.cfi_def_cfa_offset 4
 273 0011 C3       		ret
 274              		.p2align 4,,7
 275              	L40:
 276              		.cfi_restore_state
 277 0012 E8000000 		call	__ZN13RpmCalculator9isRunningEv
 277      00
 278 0017 84C0     		testb	%al, %al
 279              		.p2align 4,,3
 280 0019 750E     		jne	L34
 281 001b C7431C00 		movl	$0, 28(%ebx)
 281      000000
 282 0022 8B4304   		movl	4(%ebx), %eax
 283 0025 85C0     		testl	%eax, %eax
 284 0027 7508     		jne	L41
 285              	L34:
 286 0029 8B4304   		movl	4(%ebx), %eax
 287 002c 83C428   		addl	$40, %esp
 288              		.cfi_remember_state
 289              		.cfi_def_cfa_offset 8
 290 002f 5B       		popl	%ebx
 291              		.cfi_restore 3
 292              		.cfi_def_cfa_offset 4
 293 0030 C3       		ret
 294              		.p2align 4,,7
 295              	L41:
 296              		.cfi_restore_state
 297 0031 A1000000 		movl	_notRunningPrev, %eax
 297      00
 298 0036 C7430400 		movl	$0, 4(%ebx)
 298      000000
 299 003d C7442404 		movl	$LC2, 4(%esp)
 299      00000000 
GAS LISTING /cygdrive/c/Users/pc/AppData/Local/Temp/ccHJsz9U.s 			page 7


 300 0045 89442414 		movl	%eax, 20(%esp)
 301 0049 A1040000 		movl	_notRunningPrev+4, %eax
 301      00
 302 004e 89442410 		movl	%eax, 16(%esp)
 303 0052 A1000000 		movl	_notRunnintNow, %eax
 303      00
 304 0057 8944240C 		movl	%eax, 12(%esp)
 305 005b A1040000 		movl	_notRunnintNow+4, %eax
 305      00
 306 0060 89442408 		movl	%eax, 8(%esp)
 307 0064 A1000000 		movl	__ZL6logger, %eax
 307      00
 308 0069 890424   		movl	%eax, (%esp)
 309 006c E8000000 		call	__Z11scheduleMsgP7LoggingPKcz
 309      00
 310 0071 EBB6     		jmp	L34
 311              		.cfi_endproc
 312              	LFE94:
 313 0073 90909090 		.section .rdata,"dr"
 313      90909090 
 313      90909090 
 313      90
 314              	LC3:
 315 0032 7200     		.ascii "r\0"
 316              		.section	.text$_ZL13onTdcCallbackv,"x"
 317              		.p2align 4,,15
 318              		.def	__ZL13onTdcCallbackv;	.scl	3;	.type	32;	.endef
 319              	__ZL13onTdcCallbackv:
 320              	LFB98:
 321              		.cfi_startproc
 322 0000 83EC1C   		subl	$28, %esp
 323              		.cfi_def_cfa_offset 32
 324 0003 8B0D0000 		movl	_engine, %ecx
 324      0000
 325 0009 E8000000 		call	__ZN13RpmCalculator3rpmEv
 325      00
 326 000e C7042400 		movl	$__ZL9rpmBuffer, (%esp)
 326      000000
 327 0015 89442404 		movl	%eax, 4(%esp)
 328 0019 E8000000 		call	_itoa10
 328      00
 329 001e B9000000 		movl	$_waveChart, %ecx
 329      00
 330 0023 C7442404 		movl	$__ZL9rpmBuffer, 4(%esp)
 330      00000000 
 331 002b C7042432 		movl	$LC3, (%esp)
 331      000000
 332 0032 E8000000 		call	__ZN9WaveChart18addWaveChartEvent3EPKcS1_
 332      00
 333              		.cfi_def_cfa_offset 24
 334 0037 83EC08   		subl	$8, %esp
 335              		.cfi_def_cfa_offset 32
 336 003a 83C41C   		addl	$28, %esp
 337              		.cfi_def_cfa_offset 4
 338 003d C3       		ret
 339              		.cfi_endproc
 340              	LFE98:
GAS LISTING /cygdrive/c/Users/pc/AppData/Local/Temp/ccHJsz9U.s 			page 8


 341 003e 9090     		.section	.text$_Z11isCrankingEP6Engine,"x"
 342              		.p2align 4,,15
 343              		.globl	__Z11isCrankingEP6Engine
 344              		.def	__Z11isCrankingEP6Engine;	.scl	2;	.type	32;	.endef
 345              	__Z11isCrankingEP6Engine:
 346              	LFB95:
 347              		.cfi_startproc
 348 0000 83EC0C   		subl	$12, %esp
 349              		.cfi_def_cfa_offset 16
 350 0003 8B4C2410 		movl	16(%esp), %ecx
 351 0007 E8000000 		call	__ZN13RpmCalculator3rpmEv
 351      00
 352 000c 31D2     		xorl	%edx, %edx
 353 000e 85C0     		testl	%eax, %eax
 354 0010 7E0C     		jle	L45
 355 0012 0FBF1568 		movswl	_persistentState+104, %edx
 355      000000
 356 0019 39D0     		cmpl	%edx, %eax
 357 001b 0F9CC2   		setl	%dl
 358              	L45:
 359 001e 89D0     		movl	%edx, %eax
 360 0020 83C40C   		addl	$12, %esp
 361              		.cfi_def_cfa_offset 4
 362 0023 C3       		ret
 363              		.cfi_endproc
 364              	LFE95:
 365 0024 90909090 		.section	.text$_Z10isCrankingv,"x"
 365      90909090 
 365      90909090 
 366              		.p2align 4,,15
 367              		.globl	__Z10isCrankingv
 368              		.def	__Z10isCrankingv;	.scl	2;	.type	32;	.endef
 369              	__Z10isCrankingv:
 370              	LFB96:
 371              		.cfi_startproc
 372 0000 83EC1C   		subl	$28, %esp
 373              		.cfi_def_cfa_offset 32
 374 0003 A1000000 		movl	_engine, %eax
 374      00
 375 0008 890424   		movl	%eax, (%esp)
 376 000b E8000000 		call	__Z11isCrankingEP6Engine
 376      00
 377 0010 83C41C   		addl	$28, %esp
 378              		.cfi_def_cfa_offset 4
 379 0013 C3       		ret
 380              		.cfi_endproc
 381              	LFE96:
 382 0014 90909090 		.section	.text$_Z20getRevolutionCounterv,"x"
 382      90909090 
 382      90909090 
 383              		.p2align 4,,15
 384              		.globl	__Z20getRevolutionCounterv
 385              		.def	__Z20getRevolutionCounterv;	.scl	2;	.type	32;	.endef
 386              	__Z20getRevolutionCounterv:
 387              	LFB100:
 388              		.cfi_startproc
 389 0000 A1000000 		movl	_engine, %eax
GAS LISTING /cygdrive/c/Users/pc/AppData/Local/Temp/ccHJsz9U.s 			page 9


 389      00
 390 0005 8B4018   		movl	24(%eax), %eax
 391 0008 C3       		ret
 392              		.cfi_endproc
 393              	LFE100:
 394 0009 90909090 		.section	.text$_Z20getCrankshaftAngleNtx,"x"
 394      909090
 395              		.p2align 4,,15
 396              		.globl	__Z20getCrankshaftAngleNtx
 397              		.def	__Z20getCrankshaftAngleNtx;	.scl	2;	.type	32;	.endef
 398              	__Z20getCrankshaftAngleNtx:
 399              	LFB101:
 400              		.cfi_startproc
 401 0000 83EC2C   		subl	$44, %esp
 402              		.cfi_def_cfa_offset 48
 403 0003 8B0D0000 		movl	_engine, %ecx
 403      0000
 404 0009 89742424 		movl	%esi, 36(%esp)
 405              		.cfi_offset 6, -12
 406 000d 8B742430 		movl	48(%esp), %esi
 407 0011 897C2428 		movl	%edi, 40(%esp)
 408              		.cfi_offset 7, -8
 409 0015 8B7C2434 		movl	52(%esp), %edi
 410 0019 8B4110   		movl	16(%ecx), %eax
 411 001c 8B5114   		movl	20(%ecx), %edx
 412 001f 89442408 		movl	%eax, 8(%esp)
 413 0023 8954240C 		movl	%edx, 12(%esp)
 414 0027 E8000000 		call	__ZN13RpmCalculator3rpmEv
 414      00
 415 002c 85C0     		testl	%eax, %eax
 416 002e D9057800 		flds	LC0
 416      0000
 417 0034 7426     		je	L52
 418 0036 DDD8     		fstp	%st(0)
 419 0038 2B742408 		subl	8(%esp), %esi
 420 003c 1B7C240C 		sbbl	12(%esp), %edi
 421 0040 89442414 		movl	%eax, 20(%esp)
 422 0044 89742418 		movl	%esi, 24(%esp)
 423 0048 897C241C 		movl	%edi, 28(%esp)
 424 004c DF6C2418 		fildq	24(%esp)
 425 0050 DB442414 		fildl	20(%esp)
 426 0054 D83D8000 		fdivrs	LC4
 426      0000
 427 005a DEF9     		fdivrp	%st, %st(1)
 428              	L52:
 429 005c 8B742424 		movl	36(%esp), %esi
 430 0060 8B7C2428 		movl	40(%esp), %edi
 431 0064 83C42C   		addl	$44, %esp
 432              		.cfi_restore 7
 433              		.cfi_restore 6
 434              		.cfi_def_cfa_offset 4
 435 0067 C3       		ret
 436              		.cfi_endproc
 437              	LFE101:
 438              		.def	___divdi3;	.scl	2;	.type	32;	.endef
 439 0068 90909090 		.section	.text$_Z24rpmShaftPositionCallback15trigger_event_ej,"x"
 439      90909090 
GAS LISTING /cygdrive/c/Users/pc/AppData/Local/Temp/ccHJsz9U.s 			page 10


 440              		.p2align 4,,15
 441              		.globl	__Z24rpmShaftPositionCallback15trigger_event_ej
 442              		.def	__Z24rpmShaftPositionCallback15trigger_event_ej;	.scl	2;	.type	32;	.endef
 443              	__Z24rpmShaftPositionCallback15trigger_event_ej:
 444              	LFB97:
 445              		.cfi_startproc
 446 0000 83EC4C   		subl	$76, %esp
 447              		.cfi_def_cfa_offset 80
 448 0003 8B442450 		movl	80(%esp), %eax
 449 0007 895C243C 		movl	%ebx, 60(%esp)
 450              		.cfi_offset 3, -20
 451 000b 8B1D0000 		movl	_engine, %ebx
 451      0000
 452 0011 89742440 		movl	%esi, 64(%esp)
 453              		.cfi_offset 6, -16
 454 0015 8B742454 		movl	84(%esp), %esi
 455 0019 897C2444 		movl	%edi, 68(%esp)
 456 001d 896C2448 		movl	%ebp, 72(%esp)
 457              		.cfi_offset 7, -12
 458              		.cfi_offset 5, -8
 459 0021 89442410 		movl	%eax, 16(%esp)
 460 0025 E8000000 		call	_getTimeNowNt
 460      00
 461 002a 85F6     		testl	%esi, %esi
 462 002c 89C7     		movl	%eax, %edi
 463 002e A1000000 		movl	_engine, %eax
 463      00
 464 0033 89D5     		movl	%edx, %ebp
 465 0035 C7800824 		movl	$0, 9224(%eax)
 465      00000000 
 465      0000
 466 003f 7426     		je	L57
 467 0041 A1000000 		movl	_boardConfiguration, %eax
 467      00
 468 0046 83B81003 		cmpl	$1, 784(%eax)
 468      000001
 469 004d 0F84BD00 		je	L70
 469      0000
 470              	L56:
 471 0053 8B5C243C 		movl	60(%esp), %ebx
 472 0057 8B742440 		movl	64(%esp), %esi
 473 005b 8B7C2444 		movl	68(%esp), %edi
 474 005f 8B6C2448 		movl	72(%esp), %ebp
 475 0063 83C44C   		addl	$76, %esp
 476              		.cfi_remember_state
 477              		.cfi_restore 5
 478              		.cfi_restore 7
 479              		.cfi_restore 6
 480              		.cfi_restore 3
 481              		.cfi_def_cfa_offset 4
 482 0066 C3       		ret
 483              		.p2align 4,,7
 484              	L57:
 485              		.cfi_restore_state
 486 0067 89D9     		movl	%ebx, %ecx
 487 0069 E8000000 		call	__ZN13RpmCalculator9isRunningEv
 487      00
GAS LISTING /cygdrive/c/Users/pc/AppData/Local/Temp/ccHJsz9U.s 			page 11


 488 006e 84C0     		testb	%al, %al
 489 0070 7456     		je	L59
 490 0072 8B4310   		movl	16(%ebx), %eax
 491 0075 8B5314   		movl	20(%ebx), %edx
 492 0078 89442410 		movl	%eax, 16(%esp)
 493 007c 89F8     		movl	%edi, %eax
 494 007e 89542414 		movl	%edx, 20(%esp)
 495 0082 89EA     		movl	%ebp, %edx
 496 0084 2B442410 		subl	16(%esp), %eax
 497 0088 1B542414 		sbbl	20(%esp), %edx
 498 008c 89442410 		movl	%eax, 16(%esp)
 499 0090 89542414 		movl	%edx, 20(%esp)
 500 0094 09C2     		orl	%eax, %edx
 501 0096 0F85B800 		jne	L60
 501      0000
 502 009c 8B4304   		movl	4(%ebx), %eax
 503 009f C74304FF 		movl	$-1, 4(%ebx)
 503      FFFFFF
 504 00a6 894308   		movl	%eax, 8(%ebx)
 505 00a9 8B4304   		movl	4(%ebx), %eax
 506 00ac 85C0     		testl	%eax, %eax
 507 00ae 0F8E2201 		jle	L69
 507      0000
 508              	L63:
 509 00b4 8B4304   		movl	4(%ebx), %eax
 510 00b7 8944242C 		movl	%eax, 44(%esp)
 511 00bb DB44242C 		fildl	44(%esp)
 512 00bf D83D7C00 		fdivrs	LC1
 512      0000
 513 00c5 D95B0C   		fstps	12(%ebx)
 514              	L59:
 515 00c8 8B4318   		movl	24(%ebx), %eax
 516 00cb 83C001   		addl	$1, %eax
 517 00ce 894318   		movl	%eax, 24(%ebx)
 518 00d1 8B431C   		movl	28(%ebx), %eax
 519 00d4 83C001   		addl	$1, %eax
 520 00d7 89431C   		movl	%eax, 28(%ebx)
 521 00da A1000000 		movl	_boardConfiguration, %eax
 521      00
 522 00df 897B10   		movl	%edi, 16(%ebx)
 523 00e2 896B14   		movl	%ebp, 20(%ebx)
 524 00e5 83B81003 		cmpl	$1, 784(%eax)
 524      000001
 525 00ec 0F84F000 		je	L71
 525      0000
 526              	L64:
 527 00f2 8B150000 		movl	_engine, %edx
 527      0000
 528 00f8 8B820824 		movl	9224(%edx), %eax
 528      0000
 529 00fe F7D8     		negl	%eax
 530 0100 89820C24 		movl	%eax, 9228(%edx)
 530      0000
 531 0106 E948FFFF 		jmp	L56
 531      FF
 532 010b 908D7426 		.p2align 4,,7
 532      00
GAS LISTING /cygdrive/c/Users/pc/AppData/Local/Temp/ccHJsz9U.s 			page 12


 533              	L70:
 534 0110 893C24   		movl	%edi, (%esp)
 535 0113 89542404 		movl	%edx, 4(%esp)
 536 0117 E8000000 		call	__Z20getCrankshaftAngleNtx
 536      00
 537 011c 8B5C243C 		movl	60(%esp), %ebx
 538 0120 697C2410 		imull	$1000, 16(%esp), %edi
 538      E8030000 
 539 0128 8B6C2448 		movl	72(%esp), %ebp
 540 012c 01FE     		addl	%edi, %esi
 541 012e 31FF     		xorl	%edi, %edi
 542 0130 89742420 		movl	%esi, 32(%esp)
 543 0134 8B742440 		movl	64(%esp), %esi
 544 0138 897C2424 		movl	%edi, 36(%esp)
 545 013c 8B7C2444 		movl	68(%esp), %edi
 546 0140 DF6C2420 		fildq	32(%esp)
 547 0144 D95C2454 		fstps	84(%esp)
 548 0148 D95C2450 		fstps	80(%esp)
 549 014c 83C44C   		addl	$76, %esp
 550              		.cfi_remember_state
 551              		.cfi_restore 5
 552              		.cfi_restore 7
 553              		.cfi_restore 6
 554              		.cfi_restore 3
 555              		.cfi_def_cfa_offset 4
 556 014f E9000000 		jmp	__Z9scAddDataff
 556      00
 557              		.p2align 4,,7
 558              	L60:
 559              		.cfi_restore_state
 560 0154 A1000000 		movl	_engineConfiguration, %eax
 560      00
 561 0159 BAB7600B 		movl	$-1240768329, %edx
 561      B6
 562 015e 8B88A001 		movl	416(%eax), %ecx
 562      0000
 563 0164 89C8     		movl	%ecx, %eax
 564 0166 F7EA     		imull	%edx
 565 0168 B800BCA0 		movl	$1705032704, %eax
 565      65
 566 016d 8D340A   		leal	(%edx,%ecx), %esi
 567 0170 C1FE08   		sarl	$8, %esi
 568 0173 C1F91F   		sarl	$31, %ecx
 569 0176 29CE     		subl	%ecx, %esi
 570 0178 89F1     		movl	%esi, %ecx
 571 017a C1F91F   		sarl	$31, %ecx
 572 017d 69C900BC 		imull	$1705032704, %ecx, %ecx
 572      A065
 573 0183 F7E6     		mull	%esi
 574 0185 01F1     		addl	%esi, %ecx
 575 0187 01CA     		addl	%ecx, %edx
 576 0189 89442418 		movl	%eax, 24(%esp)
 577 018d 8B442410 		movl	16(%esp), %eax
 578 0191 8954241C 		movl	%edx, 28(%esp)
 579 0195 8B542414 		movl	20(%esp), %edx
 580 0199 89442408 		movl	%eax, 8(%esp)
 581 019d 8B442418 		movl	24(%esp), %eax
GAS LISTING /cygdrive/c/Users/pc/AppData/Local/Temp/ccHJsz9U.s 			page 13


 582 01a1 8954240C 		movl	%edx, 12(%esp)
 583 01a5 8B54241C 		movl	28(%esp), %edx
 584 01a9 890424   		movl	%eax, (%esp)
 585 01ac 89542404 		movl	%edx, 4(%esp)
 586 01b0 E8000000 		call	___divdi3
 586      00
 587 01b5 BAFFFFFF 		movl	$-1, %edx
 587      FF
 588 01ba 3D317500 		cmpl	$30001, %eax
 588      00
 589 01bf 0F4DC2   		cmovge	%edx, %eax
 590 01c2 8B5304   		movl	4(%ebx), %edx
 591 01c5 894304   		movl	%eax, 4(%ebx)
 592 01c8 8B4304   		movl	4(%ebx), %eax
 593 01cb 895308   		movl	%edx, 8(%ebx)
 594 01ce 85C0     		testl	%eax, %eax
 595 01d0 0F8FDEFE 		jg	L63
 595      FFFF
 596              	L69:
 597 01d6 C7430C00 		movl	$0x7fc00000, 12(%ebx)
 597      00C07F
 598 01dd E9E6FEFF 		jmp	L59
 598      FF
 599              		.p2align 4,,7
 600              	L71:
 601 01e2 893C24   		movl	%edi, (%esp)
 602 01e5 896C2404 		movl	%ebp, 4(%esp)
 603 01e9 E8000000 		call	__Z20getCrankshaftAngleNtx
 603      00
 604 01ee C7442404 		movl	$0x00000000, 4(%esp)
 604      00000000 
 605 01f6 D91C24   		fstps	(%esp)
 606 01f9 E8000000 		call	__Z9scAddDataff
 606      00
 607 01fe E9EFFEFF 		jmp	L64
 607      FF
 608              		.cfi_endproc
 609              	LFE97:
 610 0203 90909090 		.section .rdata,"dr"
 610      90909090 
 610      90909090 
 610      90
 611              	LC6:
 612 0034 63686172 		.ascii "chart TDC mark\0"
 612      74205444 
 612      43206D61 
 612      726B00
 613              	LC7:
 614 0043 72706D20 		.ascii "rpm reporter\0"
 614      7265706F 
 614      72746572 
 614      00
 615              		.section	.text$_Z17initRpmCalculatorP7LoggingP6Engine,"x"
 616              		.p2align 4,,15
 617              		.globl	__Z17initRpmCalculatorP7LoggingP6Engine
 618              		.def	__Z17initRpmCalculatorP7LoggingP6Engine;	.scl	2;	.type	32;	.endef
 619              	__Z17initRpmCalculatorP7LoggingP6Engine:
GAS LISTING /cygdrive/c/Users/pc/AppData/Local/Temp/ccHJsz9U.s 			page 14


 620              	LFB102:
 621              		.cfi_startproc
 622 0000 53       		pushl	%ebx
 623              		.cfi_def_cfa_offset 8
 624              		.cfi_offset 3, -8
 625 0001 83EC18   		subl	$24, %esp
 626              		.cfi_def_cfa_offset 32
 627 0004 8B5C2424 		movl	36(%esp), %ebx
 628 0008 8B442420 		movl	32(%esp), %eax
 629 000c C7442404 		movl	$LC6, 4(%esp)
 629      34000000 
 630 0014 C7042400 		movl	$__ZL15tdcMarkCallback15trigger_event_ej, (%esp)
 630      000000
 631 001b 895C2408 		movl	%ebx, 8(%esp)
 632 001f A3000000 		movl	%eax, __ZL6logger
 632      00
 633 0024 E8000000 		call	__Z23addTriggerEventListenerPFv15trigger_event_ejEPKcP6Engine
 633      00
 634 0029 895C2408 		movl	%ebx, 8(%esp)
 635 002d C7442404 		movl	$LC7, 4(%esp)
 635      43000000 
 636 0035 C7042400 		movl	$__Z24rpmShaftPositionCallback15trigger_event_ej, (%esp)
 636      000000
 637 003c E8000000 		call	__Z23addTriggerEventListenerPFv15trigger_event_ejEPKcP6Engine
 637      00
 638 0041 83C418   		addl	$24, %esp
 639              		.cfi_def_cfa_offset 8
 640 0044 5B       		popl	%ebx
 641              		.cfi_restore 3
 642              		.cfi_def_cfa_offset 4
 643 0045 C3       		ret
 644              		.cfi_endproc
 645              	LFE102:
 646 0046 90909090 		.section .rdata,"dr"
 646      90909090 
 646      9090
 647              	LC8:
 648 0050 52504D20 		.ascii "RPM check expected\0"
 648      63686563 
 648      6B206578 
 648      70656374 
 648      656400
 649              	LC9:
 650 0063 4E614E20 		.ascii "NaN delay?\0"
 650      64656C61 
 650      793F00
 651              	LC10:
 652 006e 62792061 		.ascii "by angle\0"
 652      6E676C65 
 652      00
 653              		.section	.text$_Z15scheduleByAngleiP12scheduling_sfPFvPvES1_P13RpmCalculator,"x"
 654              		.p2align 4,,15
 655              		.globl	__Z15scheduleByAngleiP12scheduling_sfPFvPvES1_P13RpmCalculator
 656              		.def	__Z15scheduleByAngleiP12scheduling_sfPFvPvES1_P13RpmCalculator;	.scl	2;	.type	32;	.endef
 657              	__Z15scheduleByAngleiP12scheduling_sfPFvPvES1_P13RpmCalculator:
 658              	LFB103:
 659              		.cfi_startproc
GAS LISTING /cygdrive/c/Users/pc/AppData/Local/Temp/ccHJsz9U.s 			page 15


 660 0000 83EC1C   		subl	$28, %esp
 661              		.cfi_def_cfa_offset 32
 662 0003 8B442420 		movl	32(%esp), %eax
 663 0007 895C2414 		movl	%ebx, 20(%esp)
 664 000b 8B4C2424 		movl	36(%esp), %ecx
 665 000f 89742418 		movl	%esi, 24(%esp)
 666              		.cfi_offset 3, -12
 667              		.cfi_offset 6, -8
 668 0013 D9442428 		flds	40(%esp)
 669 0017 8B5C242C 		movl	44(%esp), %ebx
 670 001b 83E801   		subl	$1, %eax
 671 001e 8B742430 		movl	48(%esp), %esi
 672 0022 3D2E7500 		cmpl	$29998, %eax
 672      00
 673 0027 8B542434 		movl	52(%esp), %edx
 674 002b 7757     		ja	L78
 675 002d D9420C   		flds	12(%edx)
 676 0030 DEC9     		fmulp	%st, %st(1)
 677 0032 D95C2408 		fstps	8(%esp)
 678 0036 817C2408 		cmpl	$2143289344, 8(%esp)
 678      0000C07F 
 679 003e 7460     		je	L79
 680 0040 D97C240E 		fnstcw	14(%esp)
 681 0044 D9442408 		flds	8(%esp)
 682 0048 89742430 		movl	%esi, 48(%esp)
 683 004c 8B742418 		movl	24(%esp), %esi
 684 0050 895C242C 		movl	%ebx, 44(%esp)
 685 0054 8B5C2414 		movl	20(%esp), %ebx
 686 0058 0FB74424 		movzwl	14(%esp), %eax
 686      0E
 687 005d 894C2424 		movl	%ecx, 36(%esp)
 688 0061 C7442420 		movl	$LC10, 32(%esp)
 688      6E000000 
 689 0069 B40C     		movb	$12, %ah
 690 006b 66894424 		movw	%ax, 12(%esp)
 690      0C
 691 0070 D96C240C 		fldcw	12(%esp)
 692 0074 DB5C2428 		fistpl	40(%esp)
 693 0078 D96C240E 		fldcw	14(%esp)
 694 007c 83C41C   		addl	$28, %esp
 695              		.cfi_remember_state
 696              		.cfi_restore 6
 697              		.cfi_restore 3
 698              		.cfi_def_cfa_offset 4
 699 007f E9000000 		jmp	__Z12scheduleTaskPKcP12scheduling_siPFvPvES3_
 699      00
 700              		.p2align 4,,7
 701              	L78:
 702              		.cfi_restore_state
 703 0084 DDD8     		fstp	%st(0)
 704 0086 8B5C2414 		movl	20(%esp), %ebx
 705 008a 8B742418 		movl	24(%esp), %esi
 706 008e C7442420 		movl	$LC8, 32(%esp)
 706      50000000 
 707 0096 83C41C   		addl	$28, %esp
 708              		.cfi_remember_state
 709              		.cfi_restore 6
GAS LISTING /cygdrive/c/Users/pc/AppData/Local/Temp/ccHJsz9U.s 			page 16


 710              		.cfi_restore 3
 711              		.cfi_def_cfa_offset 4
 712 0099 E9000000 		jmp	_firmwareError
 712      00
 713 009e 6690     		.p2align 4,,7
 714              	L79:
 715              		.cfi_restore_state
 716 00a0 8B5C2414 		movl	20(%esp), %ebx
 717 00a4 8B742418 		movl	24(%esp), %esi
 718 00a8 C7442420 		movl	$LC9, 32(%esp)
 718      63000000 
 719 00b0 83C41C   		addl	$28, %esp
 720              		.cfi_restore 6
 721              		.cfi_restore 3
 722              		.cfi_def_cfa_offset 4
 723 00b3 E9000000 		jmp	_firmwareError
 723      00
 724              		.cfi_endproc
 725              	LFE103:
 726 00b8 90909090 		.section	.text$_ZL15tdcMarkCallback15trigger_event_ej,"x"
 726      90909090 
 727              		.p2align 4,,15
 728              		.def	__ZL15tdcMarkCallback15trigger_event_ej;	.scl	3;	.type	32;	.endef
 729              	__ZL15tdcMarkCallback15trigger_event_ej:
 730              	LFB99:
 731              		.cfi_startproc
 732 0000 53       		pushl	%ebx
 733              		.cfi_def_cfa_offset 8
 734              		.cfi_offset 3, -8
 735 0001 83EC28   		subl	$40, %esp
 736              		.cfi_def_cfa_offset 48
 737 0004 8B442434 		movl	52(%esp), %eax
 738 0008 85C0     		testl	%eax, %eax
 739 000a 750E     		jne	L80
 740 000c A1000000 		movl	_engineConfiguration, %eax
 740      00
 741 0011 F680D805 		testb	$32, 1496(%eax)
 741      000020
 742 0018 7506     		jne	L88
 743              	L80:
 744 001a 83C428   		addl	$40, %esp
 745              		.cfi_remember_state
 746              		.cfi_def_cfa_offset 8
 747 001d 5B       		popl	%ebx
 748              		.cfi_restore 3
 749              		.cfi_def_cfa_offset 4
 750 001e C3       		ret
 751 001f 90       		.p2align 4,,7
 752              	L88:
 753              		.cfi_restore_state
 754 0020 8B0D0000 		movl	_engine, %ecx
 754      0000
 755 0026 8B5918   		movl	24(%ecx), %ebx
 756 0029 E8000000 		call	__ZN13RpmCalculator3rpmEv
 756      00
 757 002e 8D50FF   		leal	-1(%eax), %edx
 758 0031 81FA2E75 		cmpl	$29998, %edx
GAS LISTING /cygdrive/c/Users/pc/AppData/Local/Temp/ccHJsz9U.s 			page 17


 758      0000
 759 0037 77E1     		ja	L80
 760 0039 8B150000 		movl	_engine, %edx
 760      0000
 761 003f 83E301   		andl	$1, %ebx
 762 0042 C7442410 		movl	$0, 16(%esp)
 762      00000000 
 763 004a C744240C 		movl	$__ZL13onTdcCallbackv, 12(%esp)
 763      00000000 
 764 0052 89542414 		movl	%edx, 20(%esp)
 765 0056 D982E40D 		flds	3556(%edx)
 765      0000
 766 005c 8D141B   		leal	(%ebx,%ebx), %edx
 767 005f D805D401 		fadds	_persistentState+468
 767      0000
 768 0065 01DA     		addl	%ebx, %edx
 769 0067 890424   		movl	%eax, (%esp)
 770 006a C1E204   		sall	$4, %edx
 771 006d 81C20000 		addl	$__ZL12tdcScheduler, %edx
 771      0000
 772 0073 89542404 		movl	%edx, 4(%esp)
 773 0077 D95C2408 		fstps	8(%esp)
 774 007b E8000000 		call	__Z15scheduleByAngleiP12scheduling_sfPFvPvES1_P13RpmCalculator
 774      00
 775 0080 EB98     		jmp	L80
 776              		.cfi_endproc
 777              	LFE99:
 778 0082 90909090 		.section	.text.startup._GLOBAL__sub_I_notRunnintNow,"x"
 778      90909090 
 778      90909090 
 778      9090
 779              		.p2align 4,,15
 780              		.def	__GLOBAL__sub_I_notRunnintNow;	.scl	3;	.type	32;	.endef
 781              	__GLOBAL__sub_I_notRunnintNow:
 782              	LFB105:
 783              		.cfi_startproc
 784 0000 83EC0C   		subl	$12, %esp
 785              		.cfi_def_cfa_offset 16
 786 0003 B9000000 		movl	$__ZL12tdcScheduler, %ecx
 786      00
 787 0008 E8000000 		call	__ZN12scheduling_sC1Ev
 787      00
 788 000d B9300000 		movl	$__ZL12tdcScheduler+48, %ecx
 788      00
 789 0012 83C40C   		addl	$12, %esp
 790              		.cfi_def_cfa_offset 4
 791 0015 E9000000 		jmp	__ZN12scheduling_sC1Ev
 791      00
 792              		.cfi_endproc
 793              	LFE105:
 794 001a 90909090 		.section	.ctors,"w"
 794      9090
 795              		.align 4
 796 0000 00000000 		.long	__GLOBAL__sub_I_notRunnintNow
 797              		.globl	_notRunningPrev
 798              		.section	.data$notRunningPrev,"w"
 799              		.align 8
GAS LISTING /cygdrive/c/Users/pc/AppData/Local/Temp/ccHJsz9U.s 			page 18


 800              	_notRunningPrev:
 801 0000 00000000 		.space 8
 801      00000000 
 802              		.globl	_notRunnintNow
 803              		.section	.data$notRunnintNow,"w"
 804              		.align 8
 805              	_notRunnintNow:
 806 0000 00000000 		.space 8
 806      00000000 
 807              		.section	.data$_ZL6logger,"w"
 808              		.align 4
 809              	__ZL6logger:
 810 0000 00000000 		.space 4
 811              		.section	.data$_ZL12tdcScheduler,"w"
 812              		.align 32
 813              	__ZL12tdcScheduler:
 814 0000 00000000 		.space 96
 814      00000000 
 814      00000000 
 814      00000000 
 814      00000000 
 815              		.section	.data$_ZL9rpmBuffer,"w"
 816              	__ZL9rpmBuffer:
 817 0000 00000000 		.space 10
 817      00000000 
 817      0000
 818 000a 0000     		.section .rdata,"dr"
 819 0077 00       		.align 4
 820              	LC0:
 821 0078 0000C07F 		.long	2143289344
 822              		.align 4
 823              	LC1:
 824 007c ABC22248 		.long	1210237611
 825              		.align 4
 826              	LC4:
 827 0080 2B507E4B 		.long	1266569259
 828              		.def	_getTimeNowNt;	.scl	2;	.type	32;	.endef
 829              		.def	__Z11scheduleMsgP7LoggingPKcz;	.scl	2;	.type	32;	.endef
 830              		.def	_itoa10;	.scl	2;	.type	32;	.endef
 831              		.def	__ZN9WaveChart18addWaveChartEvent3EPKcS1_;	.scl	2;	.type	32;	.endef
 832              		.def	__Z9scAddDataff;	.scl	2;	.type	32;	.endef
 833              		.def	__Z23addTriggerEventListenerPFv15trigger_event_ejEPKcP6Engine;	.scl	2;	.type	32;	.endef
 834              		.def	__Z12scheduleTaskPKcP12scheduling_siPFvPvES3_;	.scl	2;	.type	32;	.endef
 835              		.def	_firmwareError;	.scl	2;	.type	32;	.endef
 836              		.def	__ZN12scheduling_sC1Ev;	.scl	2;	.type	32;	.endef
GAS LISTING /cygdrive/c/Users/pc/AppData/Local/Temp/ccHJsz9U.s 			page 19

