GAS LISTING /cygdrive/c/Users/pc/AppData/Local/Temp/ccoItXS1.s 			page 1


   1              		.file	"rusEfiFunctionalTest.cpp"
   2              		.section	.text$printf,"x"
   3              		.linkonce discard
   4              		.p2align 4,,15
   5              		.globl	_printf
   6              		.def	_printf;	.scl	2;	.type	32;	.endef
   7              	_printf:
   8              	LFB15:
   9              		.cfi_startproc
  10 0000 83EC1C   		subl	$28, %esp
  11              		.cfi_def_cfa_offset 32
  12 0003 8D442424 		leal	36(%esp), %eax
  13 0007 89442404 		movl	%eax, 4(%esp)
  14 000b 8B442420 		movl	32(%esp), %eax
  15 000f 890424   		movl	%eax, (%esp)
  16 0012 E8000000 		call	___mingw_vprintf
  16      00
  17 0017 83C41C   		addl	$28, %esp
  18              		.cfi_def_cfa_offset 4
  19 001a C3       		ret
  20              		.cfi_endproc
  21              	LFE15:
  22 001b 90909090 		.section	.text$_Z21outputPinRegisterExt2PKcP9OutputPin11brain_pin_eP17pin_output_mode_e,"x"
  22      90
  23              		.p2align 4,,15
  24              		.globl	__Z21outputPinRegisterExt2PKcP9OutputPin11brain_pin_eP17pin_output_mode_e
  25              		.def	__Z21outputPinRegisterExt2PKcP9OutputPin11brain_pin_eP17pin_output_mode_e;	.scl	2;	.type	32;	
  26              	__Z21outputPinRegisterExt2PKcP9OutputPin11brain_pin_eP17pin_output_mode_e:
  27              	LFB85:
  28              		.cfi_startproc
  29 0000 F3       		rep
  30 0001 C3       		ret
  31              		.cfi_endproc
  32              	LFE85:
  33 0002 90909090 		.section	.text$getRemainingStack,"x"
  33      90909090 
  33      90909090 
  33      9090
  34              		.p2align 4,,15
  35              		.globl	_getRemainingStack
  36              		.def	_getRemainingStack;	.scl	2;	.type	32;	.endef
  37              	_getRemainingStack:
  38              	LFB86:
  39              		.cfi_startproc
  40 0000 B89F8601 		movl	$99999, %eax
  40      00
  41 0005 C3       		ret
  42              		.cfi_endproc
  43              	LFE86:
  44 0006 90909090 		.section	.text$_Z9idleDebugPKcf,"x"
  44      90909090 
  44      9090
  45              		.p2align 4,,15
  46              		.globl	__Z9idleDebugPKcf
  47              		.def	__Z9idleDebugPKcf;	.scl	2;	.type	32;	.endef
  48              	__Z9idleDebugPKcf:
  49              	LFB87:
GAS LISTING /cygdrive/c/Users/pc/AppData/Local/Temp/ccoItXS1.s 			page 2


  50              		.cfi_startproc
  51 0000 F3       		rep
  52 0001 C3       		ret
  53              		.cfi_endproc
  54              	LFE87:
  55 0002 90909090 		.section	.text$_Z6getMapv,"x"
  55      90909090 
  55      90909090 
  55      9090
  56              		.p2align 4,,15
  57              		.globl	__Z6getMapv
  58              		.def	__Z6getMapv;	.scl	2;	.type	32;	.endef
  59              	__Z6getMapv:
  60              	LFB88:
  61              		.cfi_startproc
  62 0000 E9000000 		jmp	__Z9getRawMapv
  62      00
  63              		.cfi_endproc
  64              	LFE88:
  65 0005 90909090 		.section	.text$rusEfiFunctionalTest,"x"
  65      90909090 
  65      909090
  66              		.p2align 4,,15
  67              		.globl	_rusEfiFunctionalTest
  68              		.def	_rusEfiFunctionalTest;	.scl	2;	.type	32;	.endef
  69              	_rusEfiFunctionalTest:
  70              	LFB89:
  71              		.cfi_startproc
  72 0000 83EC1C   		subl	$28, %esp
  73              		.cfi_def_cfa_offset 32
  74 0003 C7042400 		movl	$__ZL12sharedLogger, (%esp)
  74      000000
  75 000a E8000000 		call	__Z17initializeConsoleP7Logging
  75      00
  76 000f E8000000 		call	__Z13initFakeBoardv
  76      00
  77 0014 A1000000 		movl	_engine, %eax
  77      00
  78 0019 890424   		movl	%eax, (%esp)
  79 001c E8000000 		call	__Z14initStatusLoopP6Engine
  79      00
  80 0021 E8000000 		call	__Z18initDataStructuresv
  80      00
  81 0026 8B150000 		movl	_engineConfiguration2, %edx
  81      0000
  82 002c A1000000 		movl	_engine, %eax
  82      00
  83 0031 895028   		movl	%edx, 40(%eax)
  84 0034 C7442404 		movl	$14, 4(%esp)
  84      0E000000 
  85 003c C7042400 		movl	$0, (%esp)
  85      000000
  86 0043 E8000000 		call	__Z21resetConfigurationExtP7Logging13engine_type_e
  86      00
  87 0048 E8000000 		call	__Z13prepareShapesv
  87      00
  88 004d C7042400 		movl	$__ZL12sharedLogger, (%esp)
GAS LISTING /cygdrive/c/Users/pc/AppData/Local/Temp/ccoItXS1.s 			page 3


  88      000000
  89 0054 E8000000 		call	__Z11initSensorsP7Logging
  89      00
  90 0059 A1000000 		movl	_engineConfiguration, %eax
  90      00
  91 005e C7042400 		movl	$__ZL12sharedLogger, (%esp)
  91      000000
  92 0065 89442404 		movl	%eax, 4(%esp)
  93 0069 E8000000 		call	__Z8initAlgoP7LoggingP22engine_configuration_s
  93      00
  94 006e E8000000 		call	__Z17initConfigActionsv
  94      00
  95 0073 A1000000 		movl	_engine, %eax
  95      00
  96 0078 C7042400 		movl	$__ZL12sharedLogger, (%esp)
  96      000000
  97 007f 89442404 		movl	%eax, 4(%esp)
  98 0083 E8000000 		call	__Z17initRpmCalculatorP7LoggingP6Engine
  98      00
  99 0088 E8000000 		call	__Z15initSensorChartv
  99      00
 100 008d A1000000 		movl	_engine, %eax
 100      00
 101 0092 C7042400 		movl	$__ZL12sharedLogger, (%esp)
 101      000000
 102 0099 89442404 		movl	%eax, 4(%esp)
 103 009d E8000000 		call	__Z19initTriggerEmulatorP7LoggingP6Engine
 103      00
 104 00a2 A1000000 		movl	_engine, %eax
 104      00
 105 00a7 C7042400 		movl	$__ZL12sharedLogger, (%esp)
 105      000000
 106 00ae 89442404 		movl	%eax, 4(%esp)
 107 00b2 E8000000 		call	__Z16initMapAveragingP7LoggingP6Engine
 107      00
 108 00b7 A1000000 		movl	_engine, %eax
 108      00
 109 00bc C7042400 		movl	$__ZL12sharedLogger, (%esp)
 109      000000
 110 00c3 89442404 		movl	%eax, 4(%esp)
 111 00c7 E8000000 		call	__Z21initMainEventListenerP7LoggingP6Engine
 111      00
 112 00cc A1000000 		movl	_engine, %eax
 112      00
 113 00d1 C7042400 		movl	$__ZL12sharedLogger, (%esp)
 113      000000
 114 00d8 89442404 		movl	%eax, 4(%esp)
 115 00dc E8000000 		call	__Z18initTriggerCentralP7LoggingP6Engine
 115      00
 116 00e1 A1000000 		movl	_engine, %eax
 116      00
 117 00e6 890424   		movl	%eax, (%esp)
 118 00e9 E8000000 		call	__Z18startStatusThreadsP6Engine
 118      00
 119 00ee A1000000 		movl	_engineConfiguration, %eax
 119      00
 120 00f3 F680E505 		testb	$1, 1509(%eax)
GAS LISTING /cygdrive/c/Users/pc/AppData/Local/Temp/ccoItXS1.s 			page 4


 120      000001
 121 00fa 7405     		je	L8
 122 00fc E8000000 		call	__Z28startTunerStudioConnectivityv
 122      00
 123              	L8:
 124 0101 83C41C   		addl	$28, %esp
 125              		.cfi_def_cfa_offset 4
 126 0104 E9000000 		jmp	__Z18initPeriodicEventsv
 126      00
 127              		.cfi_endproc
 128              	LFE89:
 129 0109 90909090 		.section	.text$printPendingMessages,"x"
 129      909090
 130              		.p2align 4,,15
 131              		.globl	_printPendingMessages
 132              		.def	_printPendingMessages;	.scl	2;	.type	32;	.endef
 133              	_printPendingMessages:
 134              	LFB90:
 135              		.cfi_startproc
 136 0000 83EC1C   		subl	$28, %esp
 137              		.cfi_def_cfa_offset 32
 138 0003 A1000000 		movl	_engine, %eax
 138      00
 139 0008 890424   		movl	%eax, (%esp)
 140 000b E8000000 		call	__Z21updateDevConsoleStateP6Engine
 140      00
 141 0010 B9000000 		movl	$_waveChart, %ecx
 141      00
 142 0015 83C41C   		addl	$28, %esp
 143              		.cfi_def_cfa_offset 4
 144 0018 E9000000 		jmp	__ZN9WaveChart18publishChartIfFullEv
 144      00
 145              		.cfi_endproc
 146              	LFE90:
 147 001d 909090   		.section	.text$_Z14isConsoleReadyv,"x"
 148              		.p2align 4,,15
 149              		.globl	__Z14isConsoleReadyv
 150              		.def	__Z14isConsoleReadyv;	.scl	2;	.type	32;	.endef
 151              	__Z14isConsoleReadyv:
 152              	LFB91:
 153              		.cfi_startproc
 154 0000 A1000000 		movl	_isSerialOverTcpReady, %eax
 154      00
 155 0005 85C0     		testl	%eax, %eax
 156 0007 0F95C0   		setne	%al
 157 000a C3       		ret
 158              		.cfi_endproc
 159              	LFE91:
 160 000b 90909090 		.section	.text$applyNewConfiguration,"x"
 160      90
 161              		.p2align 4,,15
 162              		.globl	_applyNewConfiguration
 163              		.def	_applyNewConfiguration;	.scl	2;	.type	32;	.endef
 164              	_applyNewConfiguration:
 165              	LFB92:
 166              		.cfi_startproc
 167 0000 F3       		rep
GAS LISTING /cygdrive/c/Users/pc/AppData/Local/Temp/ccoItXS1.s 			page 5


 168 0001 C3       		ret
 169              		.cfi_endproc
 170              	LFE92:
 171 0002 90909090 		.section .rdata,"dr"
 171      90909090 
 171      90909090 
 171      9090
 172              	LC1:
 173 0000 6F6E4661 		.ascii "onFatalError %s %s%d\0"
 173      74616C45 
 173      72726F72 
 173      20257320 
 173      25732564 
 174              		.section	.text$_Z12onFatalErrorPKcS0_i,"x"
 175              		.p2align 4,,15
 176              		.globl	__Z12onFatalErrorPKcS0_i
 177              		.def	__Z12onFatalErrorPKcS0_i;	.scl	2;	.type	32;	.endef
 178              	__Z12onFatalErrorPKcS0_i:
 179              	LFB93:
 180              		.cfi_startproc
 181 0000 83EC1C   		subl	$28, %esp
 182              		.cfi_def_cfa_offset 32
 183 0003 8B442428 		movl	40(%esp), %eax
 184 0007 C7042400 		movl	$LC1, (%esp)
 184      000000
 185 000e 8944240C 		movl	%eax, 12(%esp)
 186 0012 8B442424 		movl	36(%esp), %eax
 187 0016 89442408 		movl	%eax, 8(%esp)
 188 001a 8B442420 		movl	32(%esp), %eax
 189 001e 89442404 		movl	%eax, 4(%esp)
 190 0022 E8000000 		call	_printf
 190      00
 191 0027 C70424FF 		movl	$-1, (%esp)
 191      FFFFFF
 192 002e E8000000 		call	_exit
 192      00
 193              		.cfi_endproc
 194              	LFE93:
 195 0033 90909090 		.section .rdata,"dr"
 195      90909090 
 195      90909090 
 195      90
 196              	LC2:
 197 0015 5761726E 		.ascii "Warning: %s\15\12\0"
 197      696E673A 
 197      2025730D 
 197      0A00
 198              		.section	.text$warning,"x"
 199              		.p2align 4,,15
 200              		.globl	_warning
 201              		.def	_warning;	.scl	2;	.type	32;	.endef
 202              	_warning:
 203              	LFB94:
 204              		.cfi_startproc
 205 0000 53       		pushl	%ebx
 206              		.cfi_def_cfa_offset 8
 207              		.cfi_offset 3, -8
GAS LISTING /cygdrive/c/Users/pc/AppData/Local/Temp/ccoItXS1.s 			page 6


 208 0001 BBD34D62 		movl	$274877907, %ebx
 208      10
 209 0006 83EC18   		subl	$24, %esp
 210              		.cfi_def_cfa_offset 32
 211 0009 E8000000 		call	_currentTimeMillis
 211      00
 212 000e F7E3     		mull	%ebx
 213 0010 89D3     		movl	%edx, %ebx
 214 0012 C1EB06   		shrl	$6, %ebx
 215 0015 89D8     		movl	%ebx, %eax
 216 0017 2B050000 		subl	__ZL21timeOfPreviousWarning, %eax
 216      0000
 217 001d 890424   		movl	%eax, (%esp)
 218 0020 E8000000 		call	_absI
 218      00
 219 0025 BA010000 		movl	$1, %edx
 219      00
 220 002a 83F809   		cmpl	$9, %eax
 221 002d 7E26     		jle	L21
 222 002f 8B442424 		movl	36(%esp), %eax
 223 0033 C7042415 		movl	$LC2, (%esp)
 223      000000
 224 003a 891D0000 		movl	%ebx, __ZL21timeOfPreviousWarning
 224      0000
 225 0040 C7050400 		movl	$0, __ZL21timeOfPreviousWarning+4
 225      00000000 
 225      0000
 226 004a 89442404 		movl	%eax, 4(%esp)
 227 004e E8000000 		call	_printf
 227      00
 228 0053 31D2     		xorl	%edx, %edx
 229              	L21:
 230 0055 83C418   		addl	$24, %esp
 231              		.cfi_def_cfa_offset 8
 232 0058 89D0     		movl	%edx, %eax
 233 005a 5B       		popl	%ebx
 234              		.cfi_restore 3
 235              		.cfi_def_cfa_offset 4
 236 005b C3       		ret
 237              		.cfi_endproc
 238              	LFE94:
 239 005c 90909090 		.section .rdata,"dr"
 240              	LC3:
 241 0023 6669726D 		.ascii "firmwareError [%s]\15\12\0"
 241      77617265 
 241      4572726F 
 241      72205B25 
 241      735D0D0A 
 242              		.section	.text$firmwareError,"x"
 243              		.p2align 4,,15
 244              		.globl	_firmwareError
 245              		.def	_firmwareError;	.scl	2;	.type	32;	.endef
 246              	_firmwareError:
 247              	LFB95:
 248              		.cfi_startproc
 249 0000 53       		pushl	%ebx
 250              		.cfi_def_cfa_offset 8
GAS LISTING /cygdrive/c/Users/pc/AppData/Local/Temp/ccoItXS1.s 			page 7


 251              		.cfi_offset 3, -8
 252 0001 83EC18   		subl	$24, %esp
 253              		.cfi_def_cfa_offset 32
 254 0004 8B5C2420 		movl	32(%esp), %ebx
 255 0008 C7042423 		movl	$LC3, (%esp)
 255      000000
 256 000f 895C2404 		movl	%ebx, 4(%esp)
 257 0013 E8000000 		call	_printf
 257      00
 258 0018 8D442424 		leal	36(%esp), %eax
 259 001c 89442404 		movl	%eax, 4(%esp)
 260 0020 891C24   		movl	%ebx, (%esp)
 261 0023 E8000000 		call	___mingw_vprintf
 261      00
 262 0028 C70424FF 		movl	$-1, (%esp)
 262      FFFFFF
 263 002f E8000000 		call	_exit
 263      00
 264              		.cfi_endproc
 265              	LFE95:
 266 0034 90909090 		.section	.text$_Z17getConsoleChannelv,"x"
 266      90909090 
 266      90909090 
 267              		.p2align 4,,15
 268              		.globl	__Z17getConsoleChannelv
 269              		.def	__Z17getConsoleChannelv;	.scl	2;	.type	32;	.endef
 270              	__Z17getConsoleChannelv:
 271              	LFB96:
 272              		.cfi_startproc
 273 0000 B8000000 		movl	$_testStream, %eax
 273      00
 274 0005 C3       		ret
 275              		.cfi_endproc
 276              	LFE96:
 277 0006 90909090 		.section	.text$chDbgPanic3,"x"
 277      90909090 
 277      9090
 278              		.p2align 4,,15
 279              		.globl	_chDbgPanic3
 280              		.def	_chDbgPanic3;	.scl	2;	.type	32;	.endef
 281              	_chDbgPanic3:
 282              	LFB97:
 283              		.cfi_startproc
 284 0000 83EC1C   		subl	$28, %esp
 285              		.cfi_def_cfa_offset 32
 286 0003 8B442428 		movl	40(%esp), %eax
 287 0007 89442408 		movl	%eax, 8(%esp)
 288 000b 8B442424 		movl	36(%esp), %eax
 289 000f 89442404 		movl	%eax, 4(%esp)
 290 0013 8B442420 		movl	32(%esp), %eax
 291 0017 890424   		movl	%eax, (%esp)
 292 001a E8000000 		call	__Z12onFatalErrorPKcS0_i
 292      00
 293              		.cfi_endproc
 294              	LFE97:
 295 001f 90       		.section .rdata,"dr"
 296              	LC4:
GAS LISTING /cygdrive/c/Users/pc/AppData/Local/Temp/ccoItXS1.s 			page 8


 297 0038 73696D75 		.ascii "simulator\0"
 297      6C61746F 
 297      7200
 298 0042 0000     		.section	.text.startup._GLOBAL__sub_I_maxLockTime,"x"
 299              		.p2align 4,,15
 300              		.def	__GLOBAL__sub_I_maxLockTime;	.scl	3;	.type	32;	.endef
 301              	__GLOBAL__sub_I_maxLockTime:
 302              	LFB99:
 303              		.cfi_startproc
 304 0000 83EC1C   		subl	$28, %esp
 305              		.cfi_def_cfa_offset 32
 306 0003 B9000000 		movl	$__ZL12sharedLogger, %ecx
 306      00
 307 0008 C7042438 		movl	$LC4, (%esp)
 307      000000
 308 000f E8000000 		call	__ZN18LoggingWithStorageC1EPKc
 308      00
 309              		.cfi_def_cfa_offset 28
 310 0014 83EC04   		subl	$4, %esp
 311              		.cfi_def_cfa_offset 32
 312 0017 83C41C   		addl	$28, %esp
 313              		.cfi_def_cfa_offset 4
 314 001a C3       		ret
 315              		.cfi_endproc
 316              	LFE99:
 317 001b 90909090 		.section	.ctors,"w"
 317      90
 318              		.align 4
 319 0000 00000000 		.long	__GLOBAL__sub_I_maxLockTime
 320              		.globl	_hasFirmwareErrorFlag
 321              		.section	.data$hasFirmwareErrorFlag,"w"
 322              	_hasFirmwareErrorFlag:
 323 0000 00       		.space 1
 324              		.globl	_maxNesting
 325 0001 000000   		.section	.data$maxNesting,"w"
 326              		.align 4
 327              	_maxNesting:
 328 0000 00000000 		.space 4
 329              		.globl	_isSerialOverTcpReady
 330              		.section	.data$isSerialOverTcpReady,"w"
 331              		.align 4
 332              	_isSerialOverTcpReady:
 333 0000 00000000 		.space 4
 334              		.globl	_isInsideTriggerHandler
 335              		.section	.data$isInsideTriggerHandler,"w"
 336              	_isInsideTriggerHandler:
 337 0000 00       		.space 1
 338              		.globl	_maxLockTime
 339 0001 000000   		.section	.data$maxLockTime,"w"
 340              		.align 4
 341              	_maxLockTime:
 342 0000 00000000 		.space 4
 343              		.section	.data$_ZL12sharedLogger,"w"
 344              		.align 32
 345              	__ZL12sharedLogger:
 346 0000 00000000 		.space 260
 346      00000000 
GAS LISTING /cygdrive/c/Users/pc/AppData/Local/Temp/ccoItXS1.s 			page 9


 346      00000000 
 346      00000000 
 346      00000000 
 347 0104 00000000 		.section	.data$_ZL21timeOfPreviousWarning,"w"
 347      00000000 
 347      00000000 
 347      00000000 
 347      00000000 
 348              		.align 8
 349              	__ZL21timeOfPreviousWarning:
 350 0000 F6FFFFFF 		.long	-10
 351 0004 FFFFFFFF 		.long	-1
 352              		.def	___mingw_vprintf;	.scl	2;	.type	32;	.endef
 353              		.def	__Z9getRawMapv;	.scl	2;	.type	32;	.endef
 354              		.def	__Z17initializeConsoleP7Logging;	.scl	2;	.type	32;	.endef
 355              		.def	__Z13initFakeBoardv;	.scl	2;	.type	32;	.endef
 356              		.def	__Z14initStatusLoopP6Engine;	.scl	2;	.type	32;	.endef
 357              		.def	__Z18initDataStructuresv;	.scl	2;	.type	32;	.endef
 358              		.def	__Z21resetConfigurationExtP7Logging13engine_type_e;	.scl	2;	.type	32;	.endef
 359              		.def	__Z13prepareShapesv;	.scl	2;	.type	32;	.endef
 360              		.def	__Z11initSensorsP7Logging;	.scl	2;	.type	32;	.endef
 361              		.def	__Z8initAlgoP7LoggingP22engine_configuration_s;	.scl	2;	.type	32;	.endef
 362              		.def	__Z17initConfigActionsv;	.scl	2;	.type	32;	.endef
 363              		.def	__Z17initRpmCalculatorP7LoggingP6Engine;	.scl	2;	.type	32;	.endef
 364              		.def	__Z15initSensorChartv;	.scl	2;	.type	32;	.endef
 365              		.def	__Z19initTriggerEmulatorP7LoggingP6Engine;	.scl	2;	.type	32;	.endef
 366              		.def	__Z16initMapAveragingP7LoggingP6Engine;	.scl	2;	.type	32;	.endef
 367              		.def	__Z21initMainEventListenerP7LoggingP6Engine;	.scl	2;	.type	32;	.endef
 368              		.def	__Z18initTriggerCentralP7LoggingP6Engine;	.scl	2;	.type	32;	.endef
 369              		.def	__Z18startStatusThreadsP6Engine;	.scl	2;	.type	32;	.endef
 370              		.def	__Z28startTunerStudioConnectivityv;	.scl	2;	.type	32;	.endef
 371              		.def	__Z18initPeriodicEventsv;	.scl	2;	.type	32;	.endef
 372              		.def	__Z21updateDevConsoleStateP6Engine;	.scl	2;	.type	32;	.endef
 373              		.def	__ZN9WaveChart18publishChartIfFullEv;	.scl	2;	.type	32;	.endef
 374              		.def	_exit;	.scl	2;	.type	32;	.endef
 375              		.def	_currentTimeMillis;	.scl	2;	.type	32;	.endef
 376              		.def	_absI;	.scl	2;	.type	32;	.endef
 377              		.def	__ZN18LoggingWithStorageC1EPKc;	.scl	2;	.type	32;	.endef
GAS LISTING /cygdrive/c/Users/pc/AppData/Local/Temp/ccoItXS1.s 			page 10

