GAS LISTING /cygdrive/c/Users/pc/AppData/Local/Temp/ccn2Ne2z.s 			page 1


   1              		.file	"sachs.cpp"
   2              		.section	.text$_Z8setSachsv,"x"
   3              		.p2align 4,,15
   4              		.globl	__Z8setSachsv
   5              		.def	__Z8setSachsv;	.scl	2;	.type	32;	.endef
   6              	__Z8setSachsv:
   7              	LFB85:
   8              		.cfi_startproc
   9 0000 53       		pushl	%ebx
  10              		.cfi_def_cfa_offset 8
  11              		.cfi_offset 3, -8
  12 0001 83EC48   		subl	$72, %esp
  13              		.cfi_def_cfa_offset 80
  14 0004 A1000000 		movl	_engineConfiguration, %eax
  14      00
  15 0009 C7809001 		movl	$0x3dcccccd, 400(%eax)
  15      0000CDCC 
  15      CC3D
  16 0013 C7809401 		movl	$1, 404(%eax)
  16      00000100 
  16      0000
  17 001d C780A001 		movl	$360, 416(%eax)
  17      00006801 
  17      0000
  18 0027 890424   		movl	%eax, (%esp)
  19 002a C7442404 		movl	$3, 4(%esp)
  19      03000000 
  20 0032 E8000000 		call	__Z16setOperationModeP22engine_configuration_s16operation_mode_e
  20      00
  21 0037 8B1D0000 		movl	_engineConfiguration, %ebx
  21      0000
  22 003d 80A3D805 		andb	$112, 1496(%ebx)
  22      000070
  23 0044 A1000000 		movl	_boardConfiguration, %eax
  23      00
  24 0049 C7839801 		movl	$0, 408(%ebx)
  24      00000000 
  24      0000
  25 0053 C783E805 		movl	$400, 1512(%ebx)
  25      00009001 
  25      0000
  26 005d C783B401 		movl	$0x00000000, 436(%ebx)
  26      00000000 
  26      0000
  27 0067 C7831802 		movl	$0, 536(%ebx)
  27      00000000 
  27      0000
  28 0071 C7832002 		movl	$50, 544(%ebx)
  28      00003200 
  28      0000
  29 007b C7832402 		movl	$2, 548(%ebx)
  29      00000200 
  29      0000
  30 0085 80A08101 		andb	$-2, 385(%eax)
  30      0000FE
  31 008c C7830C02 		movl	$3, 524(%ebx)
  31      00000300 
GAS LISTING /cygdrive/c/Users/pc/AppData/Local/Temp/ccn2Ne2z.s 			page 2


  31      0000
  32 0096 C783D801 		movl	$16, 472(%ebx)
  32      00001000 
  32      0000
  33 00a0 C7042400 		movl	$0x3fa00000, (%esp)
  33      00A03F
  34 00a7 E8000000 		call	__Z24convertVoltageTo10bitADCf
  34      00
  35 00ac 66894352 		movw	%ax, 82(%ebx)
  36 00b0 8B1D0000 		movl	_engineConfiguration, %ebx
  36      0000
  37 00b6 C704244C 		movl	$0x4091374c, (%esp)
  37      379140
  38 00bd E8000000 		call	__Z24convertVoltageTo10bitADCf
  38      00
  39 00c2 66894354 		movw	%ax, 84(%ebx)
  40 00c6 A1000000 		movl	_boardConfiguration, %eax
  40      00
  41 00cb D9050000 		flds	LC5
  41      0000
  42 00d1 C7802801 		movl	$5, 296(%eax)
  42      00000500 
  42      0000
  43 00db C7802C01 		movl	$80, 300(%eax)
  43      00005000 
  43      0000
  44 00e5 C740202F 		movl	$47, 32(%eax)
  44      000000
  45 00ec C7401846 		movl	$70, 24(%eax)
  45      000000
  46 00f3 D91424   		fsts	(%esp)
  47 00f6 C7442404 		movl	$0x466a6000, 4(%esp)
  47      00606A46 
  48 00fe D95C2420 		fstps	32(%esp)
  49 0102 E8000000 		call	__Z13setFuelRpmBinff
  49      00
  50 0107 C7442404 		movl	$0x466a6000, 4(%esp)
  50      00606A46 
  51 010f D9442420 		flds	32(%esp)
  52 0113 D91C24   		fstps	(%esp)
  53 0116 E8000000 		call	__Z15setTimingRpmBinff
  53      00
  54 011b A1000000 		movl	_config, %eax
  54      00
  55 0120 C7442408 		movl	$0x466a6000, 8(%esp)
  55      00606A46 
  56 0128 C7442404 		movl	$16, 4(%esp)
  56      10000000 
  57 0130 05F83600 		addl	$14072, %eax
  57      00
  58 0135 890424   		movl	%eax, (%esp)
  59 0138 D9E8     		fld1
  60 013a D9542410 		fsts	16(%esp)
  61 013e D9050400 		flds	LC7
  61      0000
  62 0144 D954240C 		fsts	12(%esp)
  63 0148 D95C2420 		fstps	32(%esp)
GAS LISTING /cygdrive/c/Users/pc/AppData/Local/Temp/ccn2Ne2z.s 			page 3


  64 014c D95C2430 		fstps	48(%esp)
  65 0150 E8000000 		call	__Z12setTableBin2Pfifff
  65      00
  66 0155 A1000000 		movl	_config, %eax
  66      00
  67 015a C7442408 		movl	$0x466a6000, 8(%esp)
  67      00606A46 
  68 0162 C7442404 		movl	$16, 4(%esp)
  68      10000000 
  69 016a 05783B00 		addl	$15224, %eax
  69      00
  70 016f 890424   		movl	%eax, (%esp)
  71 0172 D9442430 		flds	48(%esp)
  72 0176 D95C2410 		fstps	16(%esp)
  73 017a D9442420 		flds	32(%esp)
  74 017e D95C240C 		fstps	12(%esp)
  75 0182 E8000000 		call	__Z12setTableBin2Pfifff
  75      00
  76 0187 A1000000 		movl	_engineConfiguration, %eax
  76      00
  77 018c 8088DA05 		orb	$4, 1498(%eax)
  77      000004
  78 0193 A1000000 		movl	_boardConfiguration, %eax
  78      00
  79 0198 C7806403 		movl	$38, 868(%eax)
  79      00002600 
  79      0000
  80 01a2 C7809C00 		movl	$0x431f0000, 156(%eax)
  80      00000000 
  80      1F43
  81 01ac C7809800 		movl	$0x42a00000, 152(%eax)
  81      00000000 
  81      A042
  82 01b6 83C448   		addl	$72, %esp
  83              		.cfi_def_cfa_offset 8
  84 01b9 5B       		popl	%ebx
  85              		.cfi_restore 3
  86              		.cfi_def_cfa_offset 4
  87 01ba C3       		ret
  88              		.cfi_endproc
  89              	LFE85:
  90 01bb 90909090 		.section .rdata,"dr"
  90      90
  91              		.align 4
  92              	LC5:
  93 0000 00004844 		.long	1145569280
  94              		.align 4
  95              	LC7:
  96 0004 00C0DA45 		.long	1171963904
  97              		.def	__Z16setOperationModeP22engine_configuration_s16operation_mode_e;	.scl	2;	.type	32;	.endef
  98              		.def	__Z24convertVoltageTo10bitADCf;	.scl	2;	.type	32;	.endef
  99              		.def	__Z13setFuelRpmBinff;	.scl	2;	.type	32;	.endef
 100              		.def	__Z15setTimingRpmBinff;	.scl	2;	.type	32;	.endef
 101              		.def	__Z12setTableBin2Pfifff;	.scl	2;	.type	32;	.endef
GAS LISTING /cygdrive/c/Users/pc/AppData/Local/Temp/ccn2Ne2z.s 			page 4

