GAS LISTING /cygdrive/c/Users/pc/AppData/Local/Temp/ccHX1yO8.s 			page 1


   1              		.file	"sensor_chart.cpp"
   2              		.section	.text$_ZL23setSensorChartFrequencyi,"x"
   3              		.p2align 4,,15
   4              		.def	__ZL23setSensorChartFrequencyi;	.scl	3;	.type	32;	.endef
   5              	__ZL23setSensorChartFrequencyi:
   6              	LFB86:
   7              		.cfi_startproc
   8 0000 A1000000 		movl	_engineConfiguration, %eax
   8      00
   9 0005 8B542404 		movl	4(%esp), %edx
  10 0009 89901402 		movl	%edx, 532(%eax)
  10      0000
  11 000f C3       		ret
  12              		.cfi_endproc
  13              	LFE86:
  14              		.section .rdata,"dr"
  15              	LC0:
  16 0000 2C00     		.ascii ",\0"
  17              	LC1:
  18 0002 616E616C 		.ascii "analog_chart%s\0"
  18      6F675F63 
  18      68617274 
  18      257300
  19              	LC2:
  20 0011 25667C25 		.ascii "%f|%f|\0"
  20      667C00
  21              		.section	.text$_Z9scAddDataff,"x"
  22              		.p2align 4,,15
  23              		.globl	__Z9scAddDataff
  24              		.def	__Z9scAddDataff;	.scl	2;	.type	32;	.endef
  25              	__Z9scAddDataff:
  26              	LFB85:
  27              		.cfi_startproc
  28 0000 8B0D0000 		movl	__ZL11initialized, %ecx
  28      0000
  29 0006 85C9     		testl	%ecx, %ecx
  30 0008 746C     		je	L14
  31 000a A1000000 		movl	_engineConfiguration, %eax
  31      00
  32 000f 83B81402 		cmpl	$1, 532(%eax)
  32      000001
  33 0016 7E5E     		jle	L14
  34 0018 83EC2C   		subl	$44, %esp
  35              		.cfi_def_cfa_offset 48
  36 001b E8000000 		call	__Z20getRevolutionCounterv
  36      00
  37 0020 8B0D0000 		movl	_engineConfiguration, %ecx
  37      0000
  38 0026 89C2     		movl	%eax, %edx
  39 0028 C1FA1F   		sarl	$31, %edx
  40 002b F7B91402 		idivl	532(%ecx)
  40      0000
  41 0031 85D2     		testl	%edx, %edx
  42 0033 7543     		jne	L16
  43 0035 A1000000 		movl	__ZL11pendingData, %eax
  43      00
  44 003a 85C0     		testl	%eax, %eax
GAS LISTING /cygdrive/c/Users/pc/AppData/Local/Temp/ccHX1yO8.s 			page 2


  45 003c 7472     		je	L17
  46              	L8:
  47 003e C7042400 		movl	$__ZL7logging, (%esp)
  47      000000
  48 0045 E8000000 		call	_remainingSize
  48      00
  49 004a 83F864   		cmpl	$100, %eax
  50 004d 7624     		jbe	L2
  51 004f D9442434 		flds	52(%esp)
  52 0053 DD5C2410 		fstpl	16(%esp)
  53 0057 C7442404 		movl	$LC2, 4(%esp)
  53      11000000 
  54 005f D9442430 		flds	48(%esp)
  55 0063 DD5C2408 		fstpl	8(%esp)
  56 0067 C7042400 		movl	$__ZL7logging, (%esp)
  56      000000
  57 006e E8000000 		call	_appendPrintf
  57      00
  58              		.p2align 4,,7
  59              	L2:
  60 0073 83C42C   		addl	$44, %esp
  61              		.cfi_def_cfa_offset 4
  62              	L14:
  63 0076 F3       		rep
  64 0077 C3       		ret
  65              		.p2align 4,,7
  66              	L16:
  67              		.cfi_def_cfa_offset 48
  68 0078 8B150000 		movl	__ZL11pendingData, %edx
  68      0000
  69 007e 85D2     		testl	%edx, %edx
  70 0080 74F1     		je	L2
  71 0082 C7442404 		movl	$LC0, 4(%esp)
  71      00000000 
  72 008a C7042400 		movl	$__ZL7logging, (%esp)
  72      000000
  73 0091 E8000000 		call	_appendPrintf
  73      00
  74 0096 E8000000 		call	__Z10getFullLogv
  74      00
  75 009b 84C0     		testb	%al, %al
  76 009d 7548     		jne	L18
  77              	L7:
  78 009f C7050000 		movl	$0, __ZL11pendingData
  78      00000000 
  78      0000
  79 00a9 EBC8     		jmp	L2
  80 00ab 908D7426 		.p2align 4,,7
  80      00
  81              	L17:
  82 00b0 C7042400 		movl	$__ZL7logging, (%esp)
  82      000000
  83 00b7 C7050000 		movl	$1, __ZL11pendingData
  83      00000100 
  83      0000
  84 00c1 E8000000 		call	__Z12resetLoggingP7Logging
  84      00
GAS LISTING /cygdrive/c/Users/pc/AppData/Local/Temp/ccHX1yO8.s 			page 3


  85 00c6 C7442408 		movl	$LC0, 8(%esp)
  85      00000000 
  86 00ce C7442404 		movl	$LC1, 4(%esp)
  86      02000000 
  87 00d6 C7042400 		movl	$__ZL7logging, (%esp)
  87      000000
  88 00dd E8000000 		call	_appendPrintf
  88      00
  89 00e2 E957FFFF 		jmp	L8
  89      FF
  90              		.p2align 4,,7
  91              	L18:
  92 00e7 C7042400 		movl	$__ZL7logging, (%esp)
  92      000000
  93 00ee E8000000 		call	_scheduleLogging
  93      00
  94 00f3 EBAA     		jmp	L7
  95              		.cfi_endproc
  96              	LFE85:
  97 00f5 90909090 		.section .rdata,"dr"
  97      90909090 
  97      909090
  98              	LC4:
  99 0018 7365745F 		.ascii "set_sensor_chart_freq\0"
  99      73656E73 
  99      6F725F63 
  99      68617274 
  99      5F667265 
 100              		.section	.text$_Z15initSensorChartv,"x"
 101              		.p2align 4,,15
 102              		.globl	__Z15initSensorChartv
 103              		.def	__Z15initSensorChartv;	.scl	2;	.type	32;	.endef
 104              	__Z15initSensorChartv:
 105              	LFB87:
 106              		.cfi_startproc
 107 0000 83EC1C   		subl	$28, %esp
 108              		.cfi_def_cfa_offset 32
 109 0003 C7442404 		movl	$__ZL23setSensorChartFrequencyi, 4(%esp)
 109      00000000 
 110 000b C7042418 		movl	$LC4, (%esp)
 110      000000
 111 0012 E8000000 		call	_addConsoleActionI
 111      00
 112 0017 C7050000 		movl	$1, __ZL11initialized
 112      00000100 
 112      0000
 113 0021 83C41C   		addl	$28, %esp
 114              		.cfi_def_cfa_offset 4
 115 0024 C3       		ret
 116              		.cfi_endproc
 117              	LFE87:
 118 0025 90909090 		.section .rdata,"dr"
 118      90909090 
 118      909090
 119              	LC5:
 120 002e 616E616C 		.ascii "analog chart\0"
 120      6F672063 
GAS LISTING /cygdrive/c/Users/pc/AppData/Local/Temp/ccHX1yO8.s 			page 4


 120      68617274 
 120      00
 121 003b 00       		.section	.text.startup._GLOBAL__sub_I__Z9scAddDataff,"x"
 122              		.p2align 4,,15
 123              		.def	__GLOBAL__sub_I__Z9scAddDataff;	.scl	3;	.type	32;	.endef
 124              	__GLOBAL__sub_I__Z9scAddDataff:
 125              	LFB89:
 126              		.cfi_startproc
 127 0000 83EC1C   		subl	$28, %esp
 128              		.cfi_def_cfa_offset 32
 129 0003 B9000000 		movl	$__ZL7logging, %ecx
 129      00
 130 0008 C7442408 		movl	$5000, 8(%esp)
 130      88130000 
 131 0010 C7442404 		movl	$__ZL14LOGGING_BUFFER, 4(%esp)
 131      00000000 
 132 0018 C704242E 		movl	$LC5, (%esp)
 132      000000
 133 001f E8000000 		call	__ZN7LoggingC1EPKcPci
 133      00
 134              		.cfi_def_cfa_offset 20
 135 0024 83EC0C   		subl	$12, %esp
 136              		.cfi_def_cfa_offset 32
 137 0027 83C41C   		addl	$28, %esp
 138              		.cfi_def_cfa_offset 4
 139 002a C3       		ret
 140              		.cfi_endproc
 141              	LFE89:
 142 002b 90909090 		.section	.ctors,"w"
 142      90
 143              		.align 4
 144 0000 00000000 		.long	__GLOBAL__sub_I__Z9scAddDataff
 145              		.section	.data$_ZL11initialized,"w"
 146              		.align 4
 147              	__ZL11initialized:
 148 0000 00000000 		.space 4
 149              		.section	.data$_ZL11pendingData,"w"
 150              		.align 4
 151              	__ZL11pendingData:
 152 0000 00000000 		.space 4
 153              		.section	.data$_ZL7logging,"w"
 154              		.align 32
 155              	__ZL7logging:
 156 0000 00000000 		.space 60
 156      00000000 
 156      00000000 
 156      00000000 
 156      00000000 
 157 003c 00000000 		.section	.data$_ZL14LOGGING_BUFFER,"w"
 158              		.align 32
 159              	__ZL14LOGGING_BUFFER:
 160 0000 00000000 		.space 5000
 160      00000000 
 160      00000000 
 160      00000000 
 160      00000000 
 161              		.def	__Z20getRevolutionCounterv;	.scl	2;	.type	32;	.endef
GAS LISTING /cygdrive/c/Users/pc/AppData/Local/Temp/ccHX1yO8.s 			page 5


 162              		.def	_remainingSize;	.scl	2;	.type	32;	.endef
 163              		.def	_appendPrintf;	.scl	2;	.type	32;	.endef
 164              		.def	__Z10getFullLogv;	.scl	2;	.type	32;	.endef
 165              		.def	__Z12resetLoggingP7Logging;	.scl	2;	.type	32;	.endef
 166              		.def	_scheduleLogging;	.scl	2;	.type	32;	.endef
 167              		.def	_addConsoleActionI;	.scl	2;	.type	32;	.endef
 168 1388 00000000 		.def	__ZN7LoggingC1EPKcPci;	.scl	2;	.type	32;	.endef
 168      00000000 
 168      00000000 
 168      00000000 
 168      00000000 
GAS LISTING /cygdrive/c/Users/pc/AppData/Local/Temp/ccHX1yO8.s 			page 6


DEFINED SYMBOLS
                            *ABS*:00000000 sensor_chart.cpp
/cygdrive/c/Users/pc/AppData/Local/Temp/ccHX1yO8.s:5      .text$_ZL23setSensorChartFrequencyi:00000000 __ZL23setSensorChartFrequencyi
/cygdrive/c/Users/pc/AppData/Local/Temp/ccHX1yO8.s:25     .text$_Z9scAddDataff:00000000 __Z9scAddDataff
/cygdrive/c/Users/pc/AppData/Local/Temp/ccHX1yO8.s:147    .data$_ZL11initialized:00000000 __ZL11initialized
/cygdrive/c/Users/pc/AppData/Local/Temp/ccHX1yO8.s:151    .data$_ZL11pendingData:00000000 __ZL11pendingData
/cygdrive/c/Users/pc/AppData/Local/Temp/ccHX1yO8.s:155    .data$_ZL7logging:00000000 __ZL7logging
/cygdrive/c/Users/pc/AppData/Local/Temp/ccHX1yO8.s:104    .text$_Z15initSensorChartv:00000000 __Z15initSensorChartv
/cygdrive/c/Users/pc/AppData/Local/Temp/ccHX1yO8.s:124    .text.startup._GLOBAL__sub_I__Z9scAddDataff:00000000 __GLOBAL__sub_I__Z9scAddDataff
/cygdrive/c/Users/pc/AppData/Local/Temp/ccHX1yO8.s:159    .data$_ZL14LOGGING_BUFFER:00000000 __ZL14LOGGING_BUFFER

UNDEFINED SYMBOLS
_engineConfiguration
__Z20getRevolutionCounterv
_remainingSize
_appendPrintf
__Z10getFullLogv
__Z12resetLoggingP7Logging
_scheduleLogging
_addConsoleActionI
__ZN7LoggingC1EPKcPci
