GAS LISTING /cygdrive/c/Users/pc/AppData/Local/Temp/ccLm3wrY.s 			page 1


   1              		.file	"speed_density.cpp"
   2              		.section	.text$_Z10getTChargeifff,"x"
   3              		.p2align 4,,15
   4              		.globl	__Z10getTChargeifff
   5              		.def	__Z10getTChargeifff;	.scl	2;	.type	32;	.endef
   6              	__Z10getTChargeifff:
   7              	LFB85:
   8              		.cfi_startproc
   9 0000 83EC6C   		subl	$108, %esp
  10              		.cfi_def_cfa_offset 112
  11 0003 D9442474 		flds	116(%esp)
  12 0007 D9542410 		fsts	16(%esp)
  13 000b D9052800 		flds	LC0
  13      0000
  14 0011 D954240C 		fsts	12(%esp)
  15 0015 D9052C00 		flds	LC1
  15      0000
  16 001b D9542408 		fsts	8(%esp)
  17 001f D9C9     		fxch	%st(1)
  18 0021 D9542404 		fsts	4(%esp)
  19 0025 D9EE     		fldz
  20 0027 D91424   		fsts	(%esp)
  21 002a D9C9     		fxch	%st(1)
  22 002c D95C2440 		fstps	64(%esp)
  23 0030 D95C2420 		fstps	32(%esp)
  24 0034 D95C2430 		fstps	48(%esp)
  25 0038 D95C2450 		fstps	80(%esp)
  26 003c E8000000 		call	__Z11interpolatefffff
  26      00
  27 0041 C744240C 		movl	$0x3f666666, 12(%esp)
  27      6666663F 
  28 0049 D9442450 		flds	80(%esp)
  29 004d D95C2410 		fstps	16(%esp)
  30 0051 D9442430 		flds	48(%esp)
  31 0055 D95C2408 		fstps	8(%esp)
  32 0059 D9442440 		flds	64(%esp)
  33 005d D95C2404 		fstps	4(%esp)
  34 0061 D9442420 		flds	32(%esp)
  35 0065 D91C24   		fstps	(%esp)
  36 0068 D95C2450 		fstps	80(%esp)
  37 006c E8000000 		call	__Z11interpolatefffff
  37      00
  38 0071 C7442408 		movl	$0x45fa0000, 8(%esp)
  38      0000FA45 
  39 0079 C7042400 		movl	$0x43fa0000, (%esp)
  39      00FA43
  40 0080 DB442470 		fildl	112(%esp)
  41 0084 D95C2410 		fstps	16(%esp)
  42 0088 D95C240C 		fstps	12(%esp)
  43 008c D9442450 		flds	80(%esp)
  44 0090 D95C2404 		fstps	4(%esp)
  45 0094 E8000000 		call	__Z11interpolatefffff
  45      00
  46 0099 D9E8     		fld1
  47 009b D8E1     		fsub	%st(1), %st
  48 009d D84C2478 		fmuls	120(%esp)
  49 00a1 D9C9     		fxch	%st(1)
GAS LISTING /cygdrive/c/Users/pc/AppData/Local/Temp/ccLm3wrY.s 			page 2


  50 00a3 D84C247C 		fmuls	124(%esp)
  51 00a7 83C46C   		addl	$108, %esp
  52              		.cfi_def_cfa_offset 4
  53 00aa DEC1     		faddp	%st, %st(1)
  54 00ac C3       		ret
  55              		.cfi_endproc
  56              	LFE85:
  57 00ad 909090   		.section .rdata,"dr"
  58              	LC9:
  59 0000 696E7661 		.ascii "invalid MAP value\0"
  59      6C696420 
  59      4D415020 
  59      76616C75 
  59      6500
  60              		.section	.text$_Z6sdMathP22engine_configuration_sffff,"x"
  61              		.p2align 4,,15
  62              		.globl	__Z6sdMathP22engine_configuration_sffff
  63              		.def	__Z6sdMathP22engine_configuration_sffff;	.scl	2;	.type	32;	.endef
  64              	__Z6sdMathP22engine_configuration_sffff:
  65              	LFB86:
  66              		.cfi_startproc
  67 0000 83EC2C   		subl	$44, %esp
  68              		.cfi_def_cfa_offset 48
  69 0003 D9442438 		flds	56(%esp)
  70 0007 DD053000 		fldl	LC8
  70      0000
  71 000d DFE9     		fucomip	%st(1), %st
  72 000f DDD8     		fstp	%st(0)
  73 0011 8B442430 		movl	48(%esp), %eax
  74 0015 774D     		ja	L4
  75 0017 817C2438 		cmpl	$2143289344, 56(%esp)
  75      0000C07F 
  76 001f 7443     		je	L4
  77 0021 DB809401 		fildl	404(%eax)
  77      0000
  78 0027 D8B89001 		fdivrs	400(%eax)
  78      0000
  79 002d D84C2434 		fmuls	52(%esp)
  80 0031 D84C2438 		fmuls	56(%esp)
  81 0035 DD053800 		fldl	LC10
  81      0000
  82 003b D84C2440 		fmuls	64(%esp)
  83 003f DEF9     		fdivrp	%st, %st(1)
  84 0041 D95C241C 		fstps	28(%esp)
  85 0045 D944241C 		flds	28(%esp)
  86 0049 DD054000 		fldl	LC11
  86      0000
  87 004f D84808   		fmuls	8(%eax)
  88 0052 D95C241C 		fstps	28(%esp)
  89 0056 D944241C 		flds	28(%esp)
  90 005a D84C243C 		fmuls	60(%esp)
  91 005e 83C42C   		addl	$44, %esp
  92              		.cfi_remember_state
  93              		.cfi_def_cfa_offset 4
  94 0061 DEF9     		fdivrp	%st, %st(1)
  95 0063 C3       		ret
  96              		.p2align 4,,7
GAS LISTING /cygdrive/c/Users/pc/AppData/Local/Temp/ccLm3wrY.s 			page 3


  97              	L4:
  98              		.cfi_restore_state
  99 0064 C7442404 		movl	$LC9, 4(%esp)
  99      00000000 
 100 006c C704245E 		movl	$606, (%esp)
 100      020000
 101 0073 E8000000 		call	_warning
 101      00
 102 0078 83C42C   		addl	$44, %esp
 103              		.cfi_def_cfa_offset 4
 104 007b D9EE     		fldz
 105 007d C3       		ret
 106              		.cfi_endproc
 107              	LFE86:
 108 007e 9090     		.section	.text$_Z19getSpeedDensityFueli,"x"
 109              		.p2align 4,,15
 110              		.globl	__Z19getSpeedDensityFueli
 111              		.def	__Z19getSpeedDensityFueli;	.scl	2;	.type	32;	.endef
 112              	__Z19getSpeedDensityFueli:
 113              	LFB87:
 114              		.cfi_startproc
 115 0000 83EC3C   		subl	$60, %esp
 116              		.cfi_def_cfa_offset 64
 117 0003 A1000000 		movl	_engine, %eax
 117      00
 118 0008 D980D41E 		flds	7892(%eax)
 118      0000
 119 000e D95C2420 		fstps	32(%esp)
 120 0012 E8000000 		call	__Z6getMapv
 120      00
 121 0017 8B0D0000 		movl	_engine, %ecx
 121      0000
 122 001d 83C138   		addl	$56, %ecx
 123 0020 D95C242C 		fstps	44(%esp)
 124 0024 E8000000 		call	__ZN16AccelEnrichmemnt16getMapEnrichmentEv
 124      00
 125 0029 A1000000 		movl	_engine, %eax
 125      00
 126 002e D9442420 		flds	32(%esp)
 127 0032 D95C2410 		fstps	16(%esp)
 128 0036 D980DC1E 		flds	7900(%eax)
 128      0000
 129 003c D95C240C 		fstps	12(%esp)
 130 0040 D844242C 		fadds	44(%esp)
 131 0044 D95C2408 		fstps	8(%esp)
 132 0048 D980D81E 		flds	7896(%eax)
 132      0000
 133 004e A1000000 		movl	_engineConfiguration, %eax
 133      00
 134 0053 D95C2404 		fstps	4(%esp)
 135 0057 890424   		movl	%eax, (%esp)
 136 005a E8000000 		call	__Z6sdMathP22engine_configuration_sffff
 136      00
 137 005f D80D4800 		fmuls	LC12
 137      0000
 138 0065 83C43C   		addl	$60, %esp
 139              		.cfi_def_cfa_offset 4
GAS LISTING /cygdrive/c/Users/pc/AppData/Local/Temp/ccLm3wrY.s 			page 4


 140 0068 C3       		ret
 141              		.cfi_endproc
 142              	LFE87:
 143 0069 90909090 		.section	.text$_Z16initSpeedDensityv,"x"
 143      909090
 144              		.p2align 4,,15
 145              		.globl	__Z16initSpeedDensityv
 146              		.def	__Z16initSpeedDensityv;	.scl	2;	.type	32;	.endef
 147              	__Z16initSpeedDensityv:
 148              	LFB89:
 149              		.cfi_startproc
 150 0000 8B150000 		movl	_config, %edx
 150      0000
 151 0006 31C0     		xorl	%eax, %eax
 152 0008 56       		pushl	%esi
 153              		.cfi_def_cfa_offset 8
 154              		.cfi_offset 6, -8
 155 0009 53       		pushl	%ebx
 156              		.cfi_def_cfa_offset 12
 157              		.cfi_offset 3, -12
 158 000a 8DB2B836 		leal	14008(%edx), %esi
 158      0000
 159 0010 8D9AF836 		leal	14072(%edx), %ebx
 159      0000
 160              		.p2align 4,,7
 161              	L12:
 162 0016 89C1     		movl	%eax, %ecx
 163 0018 C1E106   		sall	$6, %ecx
 164 001b 8D8C0AB8 		leal	12984(%edx,%ecx), %ecx
 164      320000
 165 0022 890C8500 		movl	%ecx, _veMap(,%eax,4)
 165      000000
 166 0029 83C001   		addl	$1, %eax
 167 002c 83F810   		cmpl	$16, %eax
 168 002f 75E5     		jne	L12
 169 0031 89354000 		movl	%esi, _veMap+64
 169      0000
 170 0037 30C0     		xorb	%al, %al
 171 0039 891D4400 		movl	%ebx, _veMap+68
 171      0000
 172 003f 8DB2383B 		leal	15160(%edx), %esi
 172      0000
 173 0045 C7054800 		movl	$153351512, _veMap+72
 173      000058F5 
 173      2309
 174 004f 8D9A783B 		leal	15224(%edx), %ebx
 174      0000
 175              		.p2align 4,,7
 176              	L13:
 177 0055 89C1     		movl	%eax, %ecx
 178 0057 C1E106   		sall	$6, %ecx
 179 005a 8D8C0A38 		leal	14136(%edx,%ecx), %ecx
 179      370000
 180 0061 890C8500 		movl	%ecx, _afrMap(,%eax,4)
 180      000000
 181 0068 83C001   		addl	$1, %eax
 182 006b 83F810   		cmpl	$16, %eax
GAS LISTING /cygdrive/c/Users/pc/AppData/Local/Temp/ccLm3wrY.s 			page 5


 183 006e 75E5     		jne	L13
 184 0070 A1000000 		movl	_engineConfiguration, %eax
 184      00
 185 0075 89354000 		movl	%esi, _afrMap+64
 185      0000
 186 007b 891D4400 		movl	%ebx, _afrMap+68
 186      0000
 187 0081 C7054800 		movl	$153351512, _afrMap+72
 187      000058F5 
 187      2309
 188 008b 8D909406 		leal	1684(%eax), %edx
 188      0000
 189 0091 89150000 		movl	%edx, _baroCorrMap
 189      0000
 190 0097 8D90A406 		leal	1700(%eax), %edx
 190      0000
 191 009d 89150400 		movl	%edx, _baroCorrMap+4
 191      0000
 192 00a3 8D90B406 		leal	1716(%eax), %edx
 192      0000
 193 00a9 89150800 		movl	%edx, _baroCorrMap+8
 193      0000
 194 00af 8D90C406 		leal	1732(%eax), %edx
 194      0000
 195 00b5 89150C00 		movl	%edx, _baroCorrMap+12
 195      0000
 196 00bb 8D907406 		leal	1652(%eax), %edx
 196      0000
 197 00c1 05840600 		addl	$1668, %eax
 197      00
 198 00c6 5B       		popl	%ebx
 199              		.cfi_restore 3
 200              		.cfi_def_cfa_offset 8
 201 00c7 C7051800 		movl	$153351512, _baroCorrMap+24
 201      000058F5 
 201      2309
 202 00d1 89151000 		movl	%edx, _baroCorrMap+16
 202      0000
 203 00d7 A3140000 		movl	%eax, _baroCorrMap+20
 203      00
 204 00dc 5E       		popl	%esi
 205              		.cfi_restore 6
 206              		.cfi_def_cfa_offset 4
 207 00dd C3       		ret
 208              		.cfi_endproc
 209              	LFE89:
 210 00de 9090     		.section	.text$_ZN5Map3DILi16ELi16EEC1Ev,"x"
 211              		.linkonce discard
 212              		.align 2
 213              		.p2align 4,,15
 214              		.globl	__ZN5Map3DILi16ELi16EEC1Ev
 215              		.def	__ZN5Map3DILi16ELi16EEC1Ev;	.scl	2;	.type	32;	.endef
 216              	__ZN5Map3DILi16ELi16EEC1Ev:
 217              	LFB92:
 218              		.cfi_startproc
 219 0000 83EC08   		subl	$8, %esp
 220              		.cfi_def_cfa_offset 12
GAS LISTING /cygdrive/c/Users/pc/AppData/Local/Temp/ccLm3wrY.s 			page 6


 221 0003 F6C101   		testb	$1, %cl
 222 0006 891C24   		movl	%ebx, (%esp)
 223 0009 89CA     		movl	%ecx, %edx
 224              		.cfi_offset 3, -12
 225 000b BB400000 		movl	$64, %ebx
 225      00
 226 0010 897C2404 		movl	%edi, 4(%esp)
 227              		.cfi_offset 7, -8
 228 0014 89CF     		movl	%ecx, %edi
 229 0016 C7414800 		movl	$0, 72(%ecx)
 229      000000
 230 001d 7541     		jne	L35
 231 001f F7C70200 		testl	$2, %edi
 231      0000
 232 0025 7549     		jne	L36
 233              	L19:
 234 0027 89D9     		movl	%ebx, %ecx
 235 0029 31C0     		xorl	%eax, %eax
 236 002b C1E902   		shrl	$2, %ecx
 237 002e F6C302   		testb	$2, %bl
 238 0031 F3AB     		rep stosl
 239 0033 7408     		je	L20
 240 0035 66C70700 		movw	$0, (%edi)
 240      00
 241 003a 83C702   		addl	$2, %edi
 242              	L20:
 243 003d 83E301   		andl	$1, %ebx
 244 0040 7403     		je	L21
 245 0042 C60700   		movb	$0, (%edi)
 246              	L21:
 247 0045 C7424000 		movl	$0, 64(%edx)
 247      000000
 248 004c 8B1C24   		movl	(%esp), %ebx
 249 004f C7424400 		movl	$0, 68(%edx)
 249      000000
 250 0056 8B7C2404 		movl	4(%esp), %edi
 251 005a 83C408   		addl	$8, %esp
 252              		.cfi_remember_state
 253              		.cfi_restore 7
 254              		.cfi_restore 3
 255              		.cfi_def_cfa_offset 4
 256 005d C3       		ret
 257 005e 6690     		.p2align 4,,7
 258              	L35:
 259              		.cfi_restore_state
 260 0060 8D7901   		leal	1(%ecx), %edi
 261 0063 B33F     		movb	$63, %bl
 262 0065 F7C70200 		testl	$2, %edi
 262      0000
 263 006b C60100   		movb	$0, (%ecx)
 264 006e 74B7     		je	L19
 265              		.p2align 4,,7
 266              	L36:
 267 0070 66C70700 		movw	$0, (%edi)
 267      00
 268 0075 83EB02   		subl	$2, %ebx
 269 0078 83C702   		addl	$2, %edi
GAS LISTING /cygdrive/c/Users/pc/AppData/Local/Temp/ccLm3wrY.s 			page 7


 270 007b EBAA     		jmp	L19
 271              		.cfi_endproc
 272              	LFE92:
 273 007d 909090   		.section .rdata,"dr"
 274              	LC13:
 275 0012 6D617020 		.ascii "map not initialized\0"
 275      6E6F7420 
 275      696E6974 
 275      69616C69 
 275      7A656400 
 276              		.section	.text$_ZN5Map3DILi16ELi16EE6setAllEf,"x"
 277              		.linkonce discard
 278              		.align 2
 279              		.p2align 4,,15
 280              		.globl	__ZN5Map3DILi16ELi16EE6setAllEf
 281              		.def	__ZN5Map3DILi16ELi16EE6setAllEf;	.scl	2;	.type	32;	.endef
 282              	__ZN5Map3DILi16ELi16EE6setAllEf:
 283              	LFB96:
 284              		.cfi_startproc
 285 0000 53       		pushl	%ebx
 286              		.cfi_def_cfa_offset 8
 287              		.cfi_offset 3, -8
 288 0001 31DB     		xorl	%ebx, %ebx
 289 0003 83EC18   		subl	$24, %esp
 290              		.cfi_def_cfa_offset 32
 291 0006 81794858 		cmpl	$153351512, 72(%ecx)
 291      F52309
 292 000d D9442420 		flds	32(%esp)
 293 0011 7521     		jne	L47
 294              		.p2align 4,,7
 295              	L39:
 296 0013 8B1499   		movl	(%ecx,%ebx,4), %edx
 297 0016 31C0     		xorl	%eax, %eax
 298              		.p2align 4,,7
 299              	L40:
 300 0018 D91482   		fsts	(%edx,%eax,4)
 301 001b 83C001   		addl	$1, %eax
 302 001e 83F810   		cmpl	$16, %eax
 303 0021 75F5     		jne	L40
 304 0023 83C301   		addl	$1, %ebx
 305 0026 83FB10   		cmpl	$16, %ebx
 306 0029 75E8     		jne	L39
 307 002b DDD8     		fstp	%st(0)
 308 002d 83C418   		addl	$24, %esp
 309              		.cfi_remember_state
 310              		.cfi_def_cfa_offset 8
 311 0030 5B       		popl	%ebx
 312              		.cfi_restore 3
 313              		.cfi_def_cfa_offset 4
 314 0031 C20400   		ret	$4
 315              	L47:
 316              		.cfi_restore_state
 317 0034 DDD8     		fstp	%st(0)
 318 0036 C7042412 		movl	$LC13, (%esp)
 318      000000
 319 003d E8000000 		call	_firmwareError
 319      00
GAS LISTING /cygdrive/c/Users/pc/AppData/Local/Temp/ccLm3wrY.s 			page 8


 320 0042 83C418   		addl	$24, %esp
 321              		.cfi_def_cfa_offset 8
 322 0045 5B       		popl	%ebx
 323              		.cfi_restore 3
 324              		.cfi_def_cfa_offset 4
 325 0046 C20400   		ret	$4
 326              		.cfi_endproc
 327              	LFE96:
 328 0049 90909090 		.section	.text$_Z17setDefaultVETablev,"x"
 328      909090
 329              		.p2align 4,,15
 330              		.globl	__Z17setDefaultVETablev
 331              		.def	__Z17setDefaultVETablev;	.scl	2;	.type	32;	.endef
 332              	__Z17setDefaultVETablev:
 333              	LFB88:
 334              		.cfi_startproc
 335 0000 83EC2C   		subl	$44, %esp
 336              		.cfi_def_cfa_offset 48
 337 0003 A1000000 		movl	_config, %eax
 337      00
 338 0008 C7442404 		movl	$16, 4(%esp)
 338      10000000 
 339 0010 05F83600 		addl	$14072, %eax
 339      00
 340 0015 890424   		movl	%eax, (%esp)
 341 0018 E8000000 		call	__Z14setRpmTableBinPfi
 341      00
 342 001d B9000000 		movl	$_veMap, %ecx
 342      00
 343 0022 C7042400 		movl	$0x42a00000, (%esp)
 343      00A042
 344 0029 E8000000 		call	__ZN5Map3DILi16ELi16EE6setAllEf
 344      00
 345              		.cfi_def_cfa_offset 44
 346 002e A1000000 		movl	_config, %eax
 346      00
 347 0033 05783B00 		addl	$15224, %eax
 347      00
 348 0038 83EC04   		subl	$4, %esp
 349              		.cfi_def_cfa_offset 48
 350 003b 890424   		movl	%eax, (%esp)
 351 003e C7442404 		movl	$16, 4(%esp)
 351      10000000 
 352 0046 E8000000 		call	__Z14setRpmTableBinPfi
 352      00
 353 004b B9000000 		movl	$_afrMap, %ecx
 353      00
 354 0050 C7042433 		movl	$0x416b3333, (%esp)
 354      336B41
 355 0057 E8000000 		call	__ZN5Map3DILi16ELi16EE6setAllEf
 355      00
 356              		.cfi_def_cfa_offset 44
 357 005c A1000000 		movl	_engineConfiguration, %eax
 357      00
 358 0061 05840600 		addl	$1668, %eax
 358      00
 359 0066 83EC04   		subl	$4, %esp
GAS LISTING /cygdrive/c/Users/pc/AppData/Local/Temp/ccLm3wrY.s 			page 9


 360              		.cfi_def_cfa_offset 48
 361 0069 890424   		movl	%eax, (%esp)
 362 006c C7442404 		movl	$4, 4(%esp)
 362      04000000 
 363 0074 E8000000 		call	__Z14setRpmTableBinPfi
 363      00
 364 0079 A1000000 		movl	_engineConfiguration, %eax
 364      00
 365 007e C7442410 		movl	$0x3f800000, 16(%esp)
 365      0000803F 
 366 0086 C744240C 		movl	$0x42d20000, 12(%esp)
 366      0000D242 
 367 008e C7442408 		movl	$0x42960000, 8(%esp)
 367      00009642 
 368 0096 05740600 		addl	$1652, %eax
 368      00
 369 009b 890424   		movl	%eax, (%esp)
 370 009e C7442404 		movl	$4, 4(%esp)
 370      04000000 
 371 00a6 E8000000 		call	__Z12setTableBin2Pfifff
 371      00
 372 00ab A1000000 		movl	_engineConfiguration, %eax
 372      00
 373 00b0 8B150000 		movl	__ZL17default_baro_corr, %edx
 373      0000
 374 00b6 89909406 		movl	%edx, 1684(%eax)
 374      0000
 375 00bc 8B150400 		movl	__ZL17default_baro_corr+4, %edx
 375      0000
 376 00c2 89909806 		movl	%edx, 1688(%eax)
 376      0000
 377 00c8 8B150800 		movl	__ZL17default_baro_corr+8, %edx
 377      0000
 378 00ce 89909C06 		movl	%edx, 1692(%eax)
 378      0000
 379 00d4 8B150C00 		movl	__ZL17default_baro_corr+12, %edx
 379      0000
 380 00da 8990A006 		movl	%edx, 1696(%eax)
 380      0000
 381 00e0 8B151000 		movl	__ZL17default_baro_corr+16, %edx
 381      0000
 382 00e6 8990A406 		movl	%edx, 1700(%eax)
 382      0000
 383 00ec 8B151400 		movl	__ZL17default_baro_corr+20, %edx
 383      0000
 384 00f2 8990A806 		movl	%edx, 1704(%eax)
 384      0000
 385 00f8 8B151800 		movl	__ZL17default_baro_corr+24, %edx
 385      0000
 386 00fe 8990AC06 		movl	%edx, 1708(%eax)
 386      0000
 387 0104 8B151C00 		movl	__ZL17default_baro_corr+28, %edx
 387      0000
 388 010a 8990B006 		movl	%edx, 1712(%eax)
 388      0000
 389 0110 8B152000 		movl	__ZL17default_baro_corr+32, %edx
 389      0000
GAS LISTING /cygdrive/c/Users/pc/AppData/Local/Temp/ccLm3wrY.s 			page 10


 390 0116 8990B406 		movl	%edx, 1716(%eax)
 390      0000
 391 011c 8B152400 		movl	__ZL17default_baro_corr+36, %edx
 391      0000
 392 0122 8990B806 		movl	%edx, 1720(%eax)
 392      0000
 393 0128 8B152800 		movl	__ZL17default_baro_corr+40, %edx
 393      0000
 394 012e 8990BC06 		movl	%edx, 1724(%eax)
 394      0000
 395 0134 8B152C00 		movl	__ZL17default_baro_corr+44, %edx
 395      0000
 396 013a 8990C006 		movl	%edx, 1728(%eax)
 396      0000
 397 0140 8B153000 		movl	__ZL17default_baro_corr+48, %edx
 397      0000
 398 0146 8990C406 		movl	%edx, 1732(%eax)
 398      0000
 399 014c 8B153400 		movl	__ZL17default_baro_corr+52, %edx
 399      0000
 400 0152 8990C806 		movl	%edx, 1736(%eax)
 400      0000
 401 0158 8B153800 		movl	__ZL17default_baro_corr+56, %edx
 401      0000
 402 015e 8990CC06 		movl	%edx, 1740(%eax)
 402      0000
 403 0164 8B153C00 		movl	__ZL17default_baro_corr+60, %edx
 403      0000
 404 016a 8990D006 		movl	%edx, 1744(%eax)
 404      0000
 405 0170 83C42C   		addl	$44, %esp
 406              		.cfi_def_cfa_offset 4
 407 0173 C3       		ret
 408              		.cfi_endproc
 409              	LFE88:
 410 0174 90909090 		.section	.text.startup._GLOBAL__sub_I_veMap,"x"
 410      90909090 
 410      90909090 
 411              		.p2align 4,,15
 412              		.def	__GLOBAL__sub_I_veMap;	.scl	3;	.type	32;	.endef
 413              	__GLOBAL__sub_I_veMap:
 414              	LFB100:
 415              		.cfi_startproc
 416 0000 B9000000 		movl	$_veMap, %ecx
 416      00
 417 0005 E8000000 		call	__ZN5Map3DILi16ELi16EEC1Ev
 417      00
 418 000a B9000000 		movl	$_ve2Map, %ecx
 418      00
 419 000f E8000000 		call	__ZN5Map3DILi16ELi16EEC1Ev
 419      00
 420 0014 B9000000 		movl	$_afrMap, %ecx
 420      00
 421 0019 E8000000 		call	__ZN5Map3DILi16ELi16EEC1Ev
 421      00
 422 001e C7051800 		movl	$0, _baroCorrMap+24
 422      00000000 
GAS LISTING /cygdrive/c/Users/pc/AppData/Local/Temp/ccLm3wrY.s 			page 11


 422      0000
 423 0028 C7050000 		movl	$0, _baroCorrMap
 423      00000000 
 423      0000
 424 0032 C7050400 		movl	$0, _baroCorrMap+4
 424      00000000 
 424      0000
 425 003c C7050800 		movl	$0, _baroCorrMap+8
 425      00000000 
 425      0000
 426 0046 C7050C00 		movl	$0, _baroCorrMap+12
 426      00000000 
 426      0000
 427 0050 C7051000 		movl	$0, _baroCorrMap+16
 427      00000000 
 427      0000
 428 005a C7051400 		movl	$0, _baroCorrMap+20
 428      00000000 
 428      0000
 429 0064 C3       		ret
 430              		.cfi_endproc
 431              	LFE100:
 432 0065 90909090 		.section	.ctors,"w"
 432      90909090 
 432      909090
 433              		.align 4
 434 0000 00000000 		.long	__GLOBAL__sub_I_veMap
 435              		.globl	_baroCorrMap
 436              		.section	.data$baroCorrMap,"w"
 437              		.align 4
 438              	_baroCorrMap:
 439 0000 00000000 		.space 28
 439      00000000 
 439      00000000 
 439      00000000 
 439      00000000 
 440              		.globl	_afrMap
 441              		.section	.data$afrMap,"w"
 442              		.align 32
 443              	_afrMap:
 444 0000 00000000 		.space 76
 444      00000000 
 444      00000000 
 444      00000000 
 444      00000000 
 445              		.globl	_ve2Map
 446 004c 00000000 		.section	.data$ve2Map,"w"
 446      00000000 
 446      00000000 
 446      00000000 
 446      00000000 
 447              		.align 32
 448              	_ve2Map:
 449 0000 00000000 		.space 76
 449      00000000 
 449      00000000 
 449      00000000 
GAS LISTING /cygdrive/c/Users/pc/AppData/Local/Temp/ccLm3wrY.s 			page 12


 449      00000000 
 450              		.globl	_veMap
 451 004c 00000000 		.section	.data$veMap,"w"
 451      00000000 
 451      00000000 
 451      00000000 
 451      00000000 
 452              		.align 32
 453              	_veMap:
 454 0000 00000000 		.space 76
 454      00000000 
 454      00000000 
 454      00000000 
 454      00000000 
 455 004c 00000000 		.section	.rdata$_ZL17default_baro_corr,"dr"
 455      00000000 
 455      00000000 
 455      00000000 
 455      00000000 
 456              		.align 32
 457              	__ZL17default_baro_corr:
 458 0000 4A0C923F 		.long	1066536010
 459 0004 0C028B3F 		.long	1066074636
 460 0008 F4FD843F 		.long	1065680372
 461 000c 0000803F 		.long	1065353216
 462 0010 4A0C923F 		.long	1066536010
 463 0014 0C028B3F 		.long	1066074636
 464 0018 F4FD843F 		.long	1065680372
 465 001c 0000803F 		.long	1065353216
 466 0020 4A0C923F 		.long	1066536010
 467 0024 0C028B3F 		.long	1066074636
 468 0028 F4FD843F 		.long	1065680372
 469 002c 0000803F 		.long	1065353216
 470 0030 4A0C923F 		.long	1066536010
 471 0034 0C028B3F 		.long	1066074636
 472 0038 F4FD843F 		.long	1065680372
 473 003c 0000803F 		.long	1065353216
 474              		.section .rdata,"dr"
 475 0026 0000     		.align 4
 476              	LC0:
 477 0028 0000803E 		.long	1048576000
 478              		.align 4
 479              	LC1:
 480 002c 0000C842 		.long	1120403456
 481              		.align 8
 482              	LC8:
 483 0030 FCA9F1D2 		.long	-755914244
 484 0034 4D62503F 		.long	1062232653
 485              		.align 8
 486              	LC10:
 487 0038 744694F6 		.long	-158054796
 488 003c 065FD23F 		.long	1070751494
 489              		.align 8
 490              	LC11:
 491 0040 98502FA3 		.long	-1557180264
 492 0044 5993883F 		.long	1065915225
 493              		.align 4
GAS LISTING /cygdrive/c/Users/pc/AppData/Local/Temp/ccLm3wrY.s 			page 13


 494              	LC12:
 495 0048 00007A44 		.long	1148846080
 496              		.def	__Z11interpolatefffff;	.scl	2;	.type	32;	.endef
 497              		.def	_warning;	.scl	2;	.type	32;	.endef
 498              		.def	__Z6getMapv;	.scl	2;	.type	32;	.endef
 499              		.def	__ZN16AccelEnrichmemnt16getMapEnrichmentEv;	.scl	2;	.type	32;	.endef
 500              		.def	_firmwareError;	.scl	2;	.type	32;	.endef
 501              		.def	__Z14setRpmTableBinPfi;	.scl	2;	.type	32;	.endef
 502 004c 00000000 		.def	__Z12setTableBin2Pfifff;	.scl	2;	.type	32;	.endef
GAS LISTING /cygdrive/c/Users/pc/AppData/Local/Temp/ccLm3wrY.s 			page 14

