GAS LISTING /cygdrive/c/Users/pc/AppData/Local/Temp/cc7pyAFi.s 			page 1


   1              		.file	"status_loop.cpp"
   2              		.section	.text$_ZL17setWarningEnabledi,"x"
   3              		.p2align 4,,15
   4              		.def	__ZL17setWarningEnabledi;	.scl	3;	.type	32;	.endef
   5              	__ZL17setWarningEnabledi:
   6              	LFB85:
   7              		.cfi_startproc
   8 0000 8B442404 		movl	4(%esp), %eax
   9 0004 A3000000 		movl	%eax, _warningEnabled
   9      00
  10 0009 C3       		ret
  11              		.cfi_endproc
  12              	LFE85:
  13 000a 90909090 		.section .rdata,"dr"
  13      9090
  14              	LC0:
  15 0000 53657474 		.ascii "Setting full logging: %s\15\12\0"
  15      696E6720 
  15      66756C6C 
  15      206C6F67 
  15      67696E67 
  16              	LC1:
  17 001b 666C00   		.ascii "fl\0"
  18              	LC2:
  19 001e 25732564 		.ascii "%s%d\0"
  19      00
  20              		.section	.text$_Z10setFullLogi,"x"
  21              		.p2align 4,,15
  22              		.globl	__Z10setFullLogi
  23              		.def	__Z10setFullLogi;	.scl	2;	.type	32;	.endef
  24              	__Z10setFullLogi:
  25              	LFB104:
  26              		.cfi_startproc
  27 0000 83EC1C   		subl	$28, %esp
  28              		.cfi_def_cfa_offset 32
  29 0003 89742418 		movl	%esi, 24(%esp)
  30              		.cfi_offset 6, -8
  31 0007 8B742420 		movl	32(%esp), %esi
  32 000b 895C2414 		movl	%ebx, 20(%esp)
  33              		.cfi_offset 3, -12
  34 000f 85F6     		testl	%esi, %esi
  35 0011 0F95C3   		setne	%bl
  36 0014 0FB6C3   		movzbl	%bl, %eax
  37 0017 890424   		movl	%eax, (%esp)
  38 001a E8000000 		call	__Z12boolToStringb
  38      00
  39 001f C7042400 		movl	$LC0, (%esp)
  39      000000
  40 0026 89442404 		movl	%eax, 4(%esp)
  41 002a E8000000 		call	__Z5printPKcz
  41      00
  42 002f 8974240C 		movl	%esi, 12(%esp)
  43 0033 C7442408 		movl	$LC1, 8(%esp)
  43      1B000000 
  44 003b C7442404 		movl	$LC2, 4(%esp)
  44      1E000000 
  45 0043 C7042400 		movl	$__ZL6logger, (%esp)
GAS LISTING /cygdrive/c/Users/pc/AppData/Local/Temp/cc7pyAFi.s 			page 2


  45      000000
  46 004a E8000000 		call	_printMsg
  46      00
  47 004f 8B742418 		movl	24(%esp), %esi
  48 0053 881D0000 		movb	%bl, __ZL7fullLog
  48      0000
  49 0059 8B5C2414 		movl	20(%esp), %ebx
  50 005d 83C41C   		addl	$28, %esp
  51              		.cfi_restore 6
  52              		.cfi_restore 3
  53              		.cfi_def_cfa_offset 4
  54 0060 C3       		ret
  55              		.cfi_endproc
  56              	LFE104:
  57 0061 90909090 		.section .rdata,"dr"
  57      90909090 
  57      90909090 
  57      909090
  58              	LC3:
  59 0023 6C636400 		.ascii "lcd\0"
  60              		.section	.text$_ZL9lcdThreadPv,"x"
  61              		.p2align 4,,15
  62              		.def	__ZL9lcdThreadPv;	.scl	3;	.type	32;	.endef
  63              	__ZL9lcdThreadPv:
  64              	LFB97:
  65              		.cfi_startproc
  66 0000 53       		pushl	%ebx
  67              		.cfi_def_cfa_offset 8
  68              		.cfi_offset 3, -8
  69 0001 BBD34D62 		movl	$274877907, %ebx
  69      10
  70 0006 83EC18   		subl	$24, %esp
  71              		.cfi_def_cfa_offset 32
  72 0009 A1180000 		movl	_rlist+24, %eax
  72      00
  73 000e C7401823 		movl	$LC3, 24(%eax)
  73      000000
  74              		.p2align 4,,7
  75              	L5:
  76 0015 A1000000 		movl	_engineConfiguration, %eax
  76      00
  77 001a 6990B003 		imull	$100000, 944(%eax), %edx
  77      0000A086 
  77      0100
  78 0024 83EA01   		subl	$1, %edx
  79 0027 89D0     		movl	%edx, %eax
  80 0029 F7E3     		mull	%ebx
  81 002b C1EA06   		shrl	$6, %edx
  82 002e 83C201   		addl	$1, %edx
  83 0031 891424   		movl	%edx, (%esp)
  84 0034 E8000000 		call	_chThdSleep
  84      00
  85 0039 EBDA     		jmp	L5
  86              		.cfi_endproc
  87              	LFE97:
  88 003b 90909090 		.section	.text$_ZL13reportSensorFP7LoggingbPKcS2_fi.isra.1.constprop.4,"x"
  88      90
GAS LISTING /cygdrive/c/Users/pc/AppData/Local/Temp/cc7pyAFi.s 			page 3


  89              		.p2align 4,,15
  90              		.def	__ZL13reportSensorFP7LoggingbPKcS2_fi.isra.1.constprop.4;	.scl	3;	.type	32;	.endef
  91              	__ZL13reportSensorFP7LoggingbPKcS2_fi.isra.1.constprop.4:
  92              	LFB112:
  93              		.cfi_startproc
  94 0000 85C0     		testl	%eax, %eax
  95 0002 7402     		je	L13
  96 0004 F3       		rep
  97 0005 C3       		ret
  98              		.p2align 4,,7
  99              	L13:
 100 0006 83EC1C   		subl	$28, %esp
 101              		.cfi_def_cfa_offset 32
 102 0009 D9442420 		flds	32(%esp)
 103 000d 894C240C 		movl	%ecx, 12(%esp)
 104 0011 D95C2408 		fstps	8(%esp)
 105 0015 89542404 		movl	%edx, 4(%esp)
 106 0019 C7042400 		movl	$__ZL6logger, (%esp)
 106      000000
 107 0020 E8000000 		call	__Z10debugFloatP7LoggingPKcfi
 107      00
 108 0025 83C41C   		addl	$28, %esp
 109              		.cfi_def_cfa_offset 4
 110 0028 C3       		ret
 111              		.cfi_endproc
 112              	LFE112:
 113 0029 90909090 		.section	.text$_Z12writeLogLinev,"x"
 113      909090
 114              		.p2align 4,,15
 115              		.globl	__Z12writeLogLinev
 116              		.def	__Z12writeLogLinev;	.scl	2;	.type	32;	.endef
 117              	__Z12writeLogLinev:
 118              	LFB89:
 119              		.cfi_startproc
 120 0000 F3       		rep
 121 0001 C3       		ret
 122              		.cfi_endproc
 123              	LFE89:
 124 0002 90909090 		.section .rdata,"dr"
 124      90909090 
 124      90909090 
 124      9090
 125              	LC5:
 126 0027 74696D65 		.ascii "time\0"
 126      00
 127              	LC7:
 128 002c 72706D00 		.ascii "rpm\0"
 129              	LC8:
 130 0030 6D616600 		.ascii "maf\0"
 131              	LC9:
 132 0034 6D616672 		.ascii "mafr\0"
 132      00
 133              	LC10:
 134 0039 454E4749 		.ascii "ENGINE_LOAD\0"
 134      4E455F4C 
 134      4F414400 
 135              	LC11:
GAS LISTING /cygdrive/c/Users/pc/AppData/Local/Temp/cc7pyAFi.s 			page 4


 136 0045 4D415000 		.ascii "MAP\0"
 137              	LC12:
 138 0049 6261726F 		.ascii "baro\0"
 138      00
 139              	LC13:
 140 004e 61667200 		.ascii "afr\0"
 141              	LC14:
 142 0052 6B7300   		.ascii "ks\0"
 143              	LC15:
 144 0055 76626174 		.ascii "vbatt\0"
 144      7400
 145              	LC16:
 146 005b 545000   		.ascii "TP\0"
 147              	LC17:
 148 005e 434C5400 		.ascii "CLT\0"
 149              	LC18:
 150 0062 4D415400 		.ascii "MAT\0"
 151              	LC19:
 152 0066 2C00     		.ascii ",\0"
 153              	LC20:
 154 0068 73696D75 		.ascii "simulator\0"
 154      6C61746F 
 154      7200
 155              	LC21:
 156 0072 72757345 		.ascii "rusEfiVersion%s%d@%s %s%s\0"
 156      66695665 
 156      7273696F 
 156      6E257325 
 156      64402573 
 157              	LC22:
 158 008c 6675656C 		.ascii "fuel_base\0"
 158      5F626173 
 158      6500
 159              	LC23:
 160 0096 6675656C 		.ascii "fuel_lag\0"
 160      5F6C6167 
 160      00
 161              	LC24:
 162 009f 6675656C 		.ascii "fuel\0"
 162      00
 163              	LC25:
 164 00a4 74696D69 		.ascii "timing\0"
 164      6E6700
 165              		.section	.text$_Z21updateDevConsoleStateP6Engine,"x"
 166              		.p2align 4,,15
 167              		.globl	__Z21updateDevConsoleStateP6Engine
 168              		.def	__Z21updateDevConsoleStateP6Engine;	.scl	2;	.type	32;	.endef
 169              	__Z21updateDevConsoleStateP6Engine:
 170              	LFB93:
 171              		.cfi_startproc
 172 0000 56       		pushl	%esi
 173              		.cfi_def_cfa_offset 8
 174              		.cfi_offset 6, -8
 175 0001 53       		pushl	%ebx
 176              		.cfi_def_cfa_offset 12
 177              		.cfi_offset 3, -12
 178 0002 83EC34   		subl	$52, %esp
GAS LISTING /cygdrive/c/Users/pc/AppData/Local/Temp/cc7pyAFi.s 			page 5


 179              		.cfi_def_cfa_offset 64
 180 0005 E8000000 		call	__Z14isConsoleReadyv
 180      00
 181 000a 84C0     		testb	%al, %al
 182 000c 7506     		jne	L49
 183              	L15:
 184 000e 83C434   		addl	$52, %esp
 185              		.cfi_remember_state
 186              		.cfi_def_cfa_offset 12
 187 0011 5B       		popl	%ebx
 188              		.cfi_restore 3
 189              		.cfi_def_cfa_offset 8
 190 0012 5E       		popl	%esi
 191              		.cfi_restore 6
 192              		.cfi_def_cfa_offset 4
 193 0013 C3       		ret
 194              		.p2align 4,,7
 195              	L49:
 196              		.cfi_restore_state
 197 0014 E8000000 		call	_printPending
 197      00
 198 0019 E8000000 		call	_currentTimeMillis
 198      00
 199 001e BA270000 		movl	$LC5, %edx
 199      00
 200 0023 B9030000 		movl	$3, %ecx
 200      00
 201 0028 8944242C 		movl	%eax, 44(%esp)
 202 002c 31C0     		xorl	%eax, %eax
 203 002e DB44242C 		fildl	44(%esp)
 204 0032 D835E800 		fdivs	LC6
 204      0000
 205 0038 D91C24   		fstps	(%esp)
 206 003b E8000000 		call	__ZL13reportSensorFP7LoggingbPKcS2_fi.isra.1.constprop.4
 206      00
 207 0040 8B0D0000 		movl	_engine, %ecx
 207      0000
 208 0046 E8000000 		call	__ZN13RpmCalculator3rpmEv
 208      00
 209 004b C7442404 		movl	$LC7, 4(%esp)
 209      2C000000 
 210 0053 C7042400 		movl	$__ZL6logger, (%esp)
 210      000000
 211 005a 89442408 		movl	%eax, 8(%esp)
 212 005e E8000000 		call	__Z8debugIntP7LoggingPKci
 212      00
 213 0063 E8000000 		call	__Z12hasMafSensorv
 213      00
 214 0068 84C0     		testb	%al, %al
 215 006a 0F85B002 		jne	L50
 215      0000
 216              	L18:
 217              		.p2align 4,,6
 218 0070 E8000000 		call	__Z14getEngineLoadTv
 218      00
 219 0075 31C0     		xorl	%eax, %eax
 220 0077 B9020000 		movl	$2, %ecx
GAS LISTING /cygdrive/c/Users/pc/AppData/Local/Temp/cc7pyAFi.s 			page 6


 220      00
 221 007c BA390000 		movl	$LC10, %edx
 221      00
 222 0081 D91C24   		fstps	(%esp)
 223 0084 E8000000 		call	__ZL13reportSensorFP7LoggingbPKcS2_fi.isra.1.constprop.4
 223      00
 224 0089 A1000000 		movl	_engineConfiguration, %eax
 224      00
 225 008e F680D805 		testb	$1, 1496(%eax)
 225      000001
 226 0095 0F856502 		jne	L51
 226      0000
 227              	L19:
 228 009b E8000000 		call	__Z13hasBaroSensorv
 228      00
 229 00a0 84C0     		testb	%al, %al
 230 00a2 0F853802 		jne	L52
 230      0000
 231              	L20:
 232 00a8 A1000000 		movl	_engineConfiguration, %eax
 232      00
 233 00ad F680D805 		testb	$8, 1496(%eax)
 233      000008
 234 00b4 0F850602 		jne	L53
 234      0000
 235              	L21:
 236 00ba A1000000 		movl	_engine, %eax
 236      00
 237 00bf 31C9     		xorl	%ecx, %ecx
 238 00c1 BA520000 		movl	$LC14, %edx
 238      00
 239 00c6 DB806C02 		fildl	620(%eax)
 239      0000
 240 00cc 31C0     		xorl	%eax, %eax
 241 00ce D91C24   		fstps	(%esp)
 242 00d1 E8000000 		call	__ZL13reportSensorFP7LoggingbPKcS2_fi.isra.1.constprop.4
 242      00
 243 00d6 E8000000 		call	__Z8hasVBattv
 243      00
 244 00db 84C0     		testb	%al, %al
 245 00dd 0F85BD01 		jne	L54
 245      0000
 246              	L22:
 247              		.p2align 4,,6
 248 00e3 E8000000 		call	__Z6getTPSv
 248      00
 249 00e8 31C0     		xorl	%eax, %eax
 250 00ea B9020000 		movl	$2, %ecx
 250      00
 251 00ef BA5B0000 		movl	$LC16, %edx
 251      00
 252 00f4 D91C24   		fstps	(%esp)
 253 00f7 E8000000 		call	__ZL13reportSensorFP7LoggingbPKcS2_fi.isra.1.constprop.4
 253      00
 254 00fc A1000000 		movl	_engineConfiguration, %eax
 254      00
 255 0101 80B8D805 		cmpb	$0, 1496(%eax)
GAS LISTING /cygdrive/c/Users/pc/AppData/Local/Temp/cc7pyAFi.s 			page 7


 255      000000
 256 0108 7919     		jns	L23
 257 010a E8000000 		call	__Z21getCoolantTemperaturev
 257      00
 258 010f B9020000 		movl	$2, %ecx
 258      00
 259 0114 BA5E0000 		movl	$LC17, %edx
 259      00
 260 0119 31C0     		xorl	%eax, %eax
 261 011b D91C24   		fstps	(%esp)
 262 011e E8000000 		call	__ZL13reportSensorFP7LoggingbPKcS2_fi.isra.1.constprop.4
 262      00
 263              	L23:
 264 0123 E8000000 		call	__Z23getIntakeAirTemperaturev
 264      00
 265 0128 31C0     		xorl	%eax, %eax
 266 012a B9020000 		movl	$2, %ecx
 266      00
 267 012f BA620000 		movl	$LC18, %edx
 267      00
 268 0134 D91C24   		fstps	(%esp)
 269 0137 E8000000 		call	__ZL13reportSensorFP7LoggingbPKcS2_fi.isra.1.constprop.4
 269      00
 270 013c 0FB60500 		movzbl	__ZL7fullLog, %eax
 270      000000
 271 0143 84C0     		testb	%al, %al
 272 0145 0F84C3FE 		je	L15
 272      FFFF
 273 014b E8000000 		call	_getTimeNowSeconds
 273      00
 274 0150 89C3     		movl	%eax, %ebx
 275 0152 2B050000 		subl	__ZL26timeOfPreviousPrintVersion, %eax
 275      0000
 276 0158 83F803   		cmpl	$3, %eax
 277 015b 7650     		jbe	L25
 278 015d A1000000 		movl	_engineConfiguration, %eax
 278      00
 279 0162 891D0000 		movl	%ebx, __ZL26timeOfPreviousPrintVersion
 279      0000
 280 0168 8B00     		movl	(%eax), %eax
 281 016a 890424   		movl	%eax, (%esp)
 282 016d E8000000 		call	__Z20getConfigurationName13engine_type_e
 282      00
 283 0172 89C6     		movl	%eax, %esi
 284 0174 E8000000 		call	_getRusEfiVersion
 284      00
 285 0179 C7442418 		movl	$LC19, 24(%esp)
 285      66000000 
 286 0181 89742414 		movl	%esi, 20(%esp)
 287 0185 C7442410 		movl	$LC20, 16(%esp)
 287      68000000 
 288 018d C7442408 		movl	$LC19, 8(%esp)
 288      66000000 
 289 0195 C7442404 		movl	$LC21, 4(%esp)
 289      72000000 
 290 019d 8944240C 		movl	%eax, 12(%esp)
 291 01a1 C7042400 		movl	$__ZL6logger, (%esp)
GAS LISTING /cygdrive/c/Users/pc/AppData/Local/Temp/cc7pyAFi.s 			page 8


 291      000000
 292 01a8 E8000000 		call	_appendPrintf
 292      00
 293              	L25:
 294 01ad E8000000 		call	__Z20getCrankEventCounterv
 294      00
 295 01b2 39050000 		cmpl	%eax, __ZL19prevCkpEventCounter
 295      0000
 296 01b8 750C     		jne	L26
 297 01ba 391D0000 		cmpl	%ebx, __ZL20timeOfPreviousReport
 297      0000
 298 01c0 0F8448FE 		je	L15
 298      FFFF
 299              	L26:
 300 01c6 8B0D0000 		movl	_engine, %ecx
 300      0000
 301 01cc 891D0000 		movl	%ebx, __ZL20timeOfPreviousReport
 301      0000
 302 01d2 A3000000 		movl	%eax, __ZL19prevCkpEventCounter
 302      00
 303 01d7 E8000000 		call	__ZN13RpmCalculator3rpmEv
 303      00
 304 01dc 89C3     		movl	%eax, %ebx
 305 01de E8000000 		call	__Z14getEngineLoadTv
 305      00
 306 01e3 DDD8     		fstp	%st(0)
 307 01e5 891C24   		movl	%ebx, (%esp)
 308 01e8 E8000000 		call	__Z11getBaseFueli
 308      00
 309 01ed C744240C 		movl	$2, 12(%esp)
 309      02000000 
 310 01f5 C7442404 		movl	$LC22, 4(%esp)
 310      8C000000 
 311 01fd C7042400 		movl	$__ZL6logger, (%esp)
 311      000000
 312 0204 D95C2408 		fstps	8(%esp)
 313 0208 E8000000 		call	__Z10debugFloatP7LoggingPKcfi
 313      00
 314 020d A1000000 		movl	_engine, %eax
 314      00
 315 0212 C744240C 		movl	$2, 12(%esp)
 315      02000000 
 316 021a D980F01E 		flds	7920(%eax)
 316      0000
 317 0220 D95C2408 		fstps	8(%esp)
 318 0224 C7442404 		movl	$LC23, 4(%esp)
 318      96000000 
 319 022c C7042400 		movl	$__ZL6logger, (%esp)
 319      000000
 320 0233 E8000000 		call	__Z10debugFloatP7LoggingPKcfi
 320      00
 321 0238 891C24   		movl	%ebx, (%esp)
 322 023b E8000000 		call	__Z9getFuelMsi
 322      00
 323 0240 C744240C 		movl	$2, 12(%esp)
 323      02000000 
 324 0248 C7442404 		movl	$LC24, 4(%esp)
GAS LISTING /cygdrive/c/Users/pc/AppData/Local/Temp/cc7pyAFi.s 			page 9


 324      9F000000 
 325 0250 C7042400 		movl	$__ZL6logger, (%esp)
 325      000000
 326 0257 D95C2408 		fstps	8(%esp)
 327 025b E8000000 		call	__Z10debugFloatP7LoggingPKcfi
 327      00
 328 0260 A1000000 		movl	_engine, %eax
 328      00
 329 0265 C744240C 		movl	$2, 12(%esp)
 329      02000000 
 330 026d D980B81E 		flds	7864(%eax)
 330      0000
 331 0273 D95C2408 		fstps	8(%esp)
 332 0277 C7442404 		movl	$LC25, 4(%esp)
 332      A4000000 
 333 027f C7042400 		movl	$__ZL6logger, (%esp)
 333      000000
 334 0286 E8000000 		call	__Z10debugFloatP7LoggingPKcfi
 334      00
 335 028b C7442440 		movl	$__ZL6logger, 64(%esp)
 335      00000000 
 336 0293 83C434   		addl	$52, %esp
 337              		.cfi_remember_state
 338              		.cfi_def_cfa_offset 12
 339 0296 5B       		popl	%ebx
 340              		.cfi_restore 3
 341              		.cfi_def_cfa_offset 8
 342 0297 5E       		popl	%esi
 343              		.cfi_restore 6
 344              		.cfi_def_cfa_offset 4
 345 0298 E9000000 		jmp	_scheduleLogging
 345      00
 346 029d 8D7600   		.p2align 4,,7
 347              	L54:
 348              		.cfi_restore_state
 349 02a0 E8000000 		call	__Z8getVBattv
 349      00
 350 02a5 B9020000 		movl	$2, %ecx
 350      00
 351 02aa BA550000 		movl	$LC15, %edx
 351      00
 352 02af 31C0     		xorl	%eax, %eax
 353 02b1 D91C24   		fstps	(%esp)
 354 02b4 E8000000 		call	__ZL13reportSensorFP7LoggingbPKcS2_fi.isra.1.constprop.4
 354      00
 355 02b9 E925FEFF 		jmp	L22
 355      FF
 356 02be 6690     		.p2align 4,,7
 357              	L53:
 358 02c0 E8000000 		call	__Z6getAfrv
 358      00
 359 02c5 B9020000 		movl	$2, %ecx
 359      00
 360 02ca BA4E0000 		movl	$LC13, %edx
 360      00
 361 02cf 31C0     		xorl	%eax, %eax
 362 02d1 D91C24   		fstps	(%esp)
GAS LISTING /cygdrive/c/Users/pc/AppData/Local/Temp/cc7pyAFi.s 			page 10


 363 02d4 E8000000 		call	__ZL13reportSensorFP7LoggingbPKcS2_fi.isra.1.constprop.4
 363      00
 364 02d9 E9DCFDFF 		jmp	L21
 364      FF
 365 02de 6690     		.p2align 4,,7
 366              	L52:
 367 02e0 E8000000 		call	__Z15getBaroPressurev
 367      00
 368 02e5 B9020000 		movl	$2, %ecx
 368      00
 369 02ea BA490000 		movl	$LC12, %edx
 369      00
 370 02ef 31C0     		xorl	%eax, %eax
 371 02f1 D91C24   		fstps	(%esp)
 372 02f4 E8000000 		call	__ZL13reportSensorFP7LoggingbPKcS2_fi.isra.1.constprop.4
 372      00
 373 02f9 E9AAFDFF 		jmp	L20
 373      FF
 374 02fe 6690     		.p2align 4,,7
 375              	L51:
 376 0300 E8000000 		call	__Z6getMapv
 376      00
 377 0305 B9020000 		movl	$2, %ecx
 377      00
 378 030a BA450000 		movl	$LC11, %edx
 378      00
 379 030f 31C0     		xorl	%eax, %eax
 380 0311 D91C24   		fstps	(%esp)
 381 0314 E8000000 		call	__ZL13reportSensorFP7LoggingbPKcS2_fi.isra.1.constprop.4
 381      00
 382 0319 E97DFDFF 		jmp	L19
 382      FF
 383 031e 6690     		.p2align 4,,7
 384              	L50:
 385 0320 E8000000 		call	__Z6getMafv
 385      00
 386 0325 31C0     		xorl	%eax, %eax
 387 0327 B9020000 		movl	$2, %ecx
 387      00
 388 032c BA300000 		movl	$LC8, %edx
 388      00
 389 0331 D91C24   		fstps	(%esp)
 390 0334 E8000000 		call	__ZL13reportSensorFP7LoggingbPKcS2_fi.isra.1.constprop.4
 390      00
 391 0339 E8000000 		call	__Z10getRealMafv
 391      00
 392 033e B9020000 		movl	$2, %ecx
 392      00
 393 0343 BA340000 		movl	$LC9, %edx
 393      00
 394 0348 31C0     		xorl	%eax, %eax
 395 034a D91C24   		fstps	(%esp)
 396 034d E8000000 		call	__ZL13reportSensorFP7LoggingbPKcS2_fi.isra.1.constprop.4
 396      00
 397 0352 E919FDFF 		jmp	L18
 397      FF
 398              		.cfi_endproc
GAS LISTING /cygdrive/c/Users/pc/AppData/Local/Temp/cc7pyAFi.s 			page 11


 399              	LFE93:
 400 0357 90909090 		.section .rdata,"dr"
 400      90909090 
 400      90
 401              	LC26:
 402 00ab 6D617020 		.ascii "map not initialized\0"
 402      6E6F7420 
 402      696E6974 
 402      69616C69 
 402      7A656400 
 403              		.section	.text$_Z22updateTunerStudioStateP25TunerStudioOutputChannels,"x"
 404              		.p2align 4,,15
 405              		.globl	__Z22updateTunerStudioStateP25TunerStudioOutputChannels
 406              		.def	__Z22updateTunerStudioStateP25TunerStudioOutputChannels;	.scl	2;	.type	32;	.endef
 407              	__Z22updateTunerStudioStateP25TunerStudioOutputChannels:
 408              	LFB98:
 409              		.cfi_startproc
 410 0000 56       		pushl	%esi
 411              		.cfi_def_cfa_offset 8
 412              		.cfi_offset 6, -8
 413 0001 53       		pushl	%ebx
 414              		.cfi_def_cfa_offset 12
 415              		.cfi_offset 3, -12
 416 0002 83EC54   		subl	$84, %esp
 417              		.cfi_def_cfa_offset 96
 418 0005 8B0D0000 		movl	_engine, %ecx
 418      0000
 419 000b 8B5C2460 		movl	96(%esp), %ebx
 420 000f E8000000 		call	__ZN13RpmCalculator3rpmEv
 420      00
 421 0014 89C6     		movl	%eax, %esi
 422 0016 E8000000 		call	__Z6getTPSv
 422      00
 423 001b D95C243C 		fstps	60(%esp)
 424 001f E8000000 		call	__Z21getCoolantTemperaturev
 424      00
 425 0024 D95C2440 		fstps	64(%esp)
 426 0028 E8000000 		call	__Z23getIntakeAirTemperaturev
 426      00
 427 002d D95C2444 		fstps	68(%esp)
 428 0031 E8000000 		call	__Z14getEngineLoadTv
 428      00
 429 0036 893424   		movl	%esi, (%esp)
 430 0039 D95C2438 		fstps	56(%esp)
 431 003d E8000000 		call	__Z11getBaseFueli
 431      00
 432 0042 C7435461 		movl	$20150625, 84(%ebx)
 432      793301
 433 0049 8933     		movl	%esi, (%ebx)
 434 004b D95C2448 		fstps	72(%esp)
 435 004f D9442440 		flds	64(%esp)
 436 0053 D95B04   		fstps	4(%ebx)
 437 0056 D9442444 		flds	68(%esp)
 438 005a D95B08   		fstps	8(%ebx)
 439 005d D944243C 		flds	60(%esp)
 440 0061 D95B0C   		fstps	12(%ebx)
 441 0064 E8000000 		call	__Z12hasMafSensorv
GAS LISTING /cygdrive/c/Users/pc/AppData/Local/Temp/cc7pyAFi.s 			page 12


 441      00
 442 0069 84C0     		testb	%al, %al
 443 006b 0F855502 		jne	L70
 443      0000
 444              	L56:
 445 0071 E8000000 		call	__Z10getRealMafv
 445      00
 446 0076 D95B6C   		fstps	108(%ebx)
 447 0079 E8000000 		call	__Z6getMapv
 447      00
 448 007e 813D4800 		cmpl	$153351512, _veMap+72
 448      000058F5 
 448      2309
 449 0088 0F84F501 		je	L57
 449      0000
 450 008e DDD8     		fstp	%st(0)
 451 0090 C70424AB 		movl	$LC26, (%esp)
 451      000000
 452 0097 E8000000 		call	_firmwareError
 452      00
 453 009c D905E400 		flds	LC4
 453      0000
 454              	L58:
 455 00a2 D95B70   		fstps	112(%ebx)
 456 00a5 E8000000 		call	__Z6getAfrv
 456      00
 457 00aa D95B14   		fstps	20(%ebx)
 458 00ad E8000000 		call	__Z8hasVBattv
 458      00
 459 00b2 84C0     		testb	%al, %al
 460 00b4 0F851B02 		jne	L71
 460      0000
 461              	L59:
 462 00ba E8000000 		call	__Z14getTPS10bitAdcv
 462      00
 463 00bf 66894320 		movw	%ax, 32(%ebx)
 464 00c3 E8000000 		call	__Z15getBaroPressurev
 464      00
 465 00c8 D95B24   		fstps	36(%ebx)
 466 00cb E8000000 		call	__Z6getMapv
 466      00
 467 00d0 8B0D0000 		movl	_engine, %ecx
 467      0000
 468 00d6 D95B28   		fstps	40(%ebx)
 469 00d9 D9442438 		flds	56(%esp)
 470 00dd D95B18   		fstps	24(%ebx)
 471 00e0 E8000000 		call	__ZN13RpmCalculator18getRpmAccelerationEv
 471      00
 472 00e5 8B0D0000 		movl	_engine, %ecx
 472      0000
 473 00eb 83C138   		addl	$56, %ecx
 474 00ee D95B68   		fstps	104(%ebx)
 475 00f1 E8000000 		call	__ZN16AccelEnrichmemnt16getMapEnrichmentEv
 475      00
 476 00f6 D95C2420 		fstps	32(%esp)
 477 00fa E8000000 		call	__Z6getMapv
 477      00
GAS LISTING /cygdrive/c/Users/pc/AppData/Local/Temp/cc7pyAFi.s 			page 13


 478 00ff 8B0D0000 		movl	_engine, %ecx
 478      0000
 479 0105 81C14C01 		addl	$332, %ecx
 479      0000
 480 010b D9442420 		flds	32(%esp)
 481 010f D80DEC00 		fmuls	LC27
 481      0000
 482 0115 DEF1     		fdivp	%st, %st(1)
 483 0117 D95B7C   		fstps	124(%ebx)
 484 011a E8000000 		call	__ZN16AccelEnrichmemnt16getTpsEnrichmentEv
 484      00
 485 011f 8B0D0000 		movl	_engine, %ecx
 485      0000
 486 0125 81C14C01 		addl	$332, %ecx
 486      0000
 487 012b D99B8000 		fstps	128(%ebx)
 487      0000
 488 0131 E8000000 		call	__ZN16AccelEnrichmemnt8getDeltaEv
 488      00
 489 0136 A13C0000 		movl	_triggerCentral+60, %eax
 489      00
 490 013b 894378   		movl	%eax, 120(%ebx)
 491 013e A1000000 		movl	_engine, %eax
 491      00
 492 0143 D95B74   		fstps	116(%ebx)
 493 0146 D980D01E 		flds	7888(%eax)
 493      0000
 494 014c D99B8400 		fstps	132(%ebx)
 494      0000
 495 0152 E8000000 		call	__Z16getPedalPositionv
 495      00
 496 0157 A1000000 		movl	_engine, %eax
 496      00
 497 015c 8B806C02 		movl	620(%eax), %eax
 497      0000
 498 0162 D99B8800 		fstps	136(%ebx)
 498      0000
 499 0168 89839000 		movl	%eax, 144(%ebx)
 499      0000
 500 016e 893424   		movl	%esi, (%esp)
 501 0171 E8000000 		call	__Z20getInjectorDutyCyclei
 501      00
 502 0176 A1000000 		movl	_engine, %eax
 502      00
 503 017b 0FB61500 		movzbl	_hasFirmwareErrorFlag, %edx
 503      000000
 504 0182 83E201   		andl	$1, %edx
 505 0185 D99B8C00 		fstps	140(%ebx)
 505      0000
 506 018b D980581E 		flds	7768(%eax)
 506      0000
 507 0191 C1E206   		sall	$6, %edx
 508 0194 0FB64350 		movzbl	80(%ebx), %eax
 509 0198 D99B9400 		fstps	148(%ebx)
 509      0000
 510 019e 83E0BF   		andl	$-65, %eax
 511 01a1 09D0     		orl	%edx, %eax
GAS LISTING /cygdrive/c/Users/pc/AppData/Local/Temp/cc7pyAFi.s 			page 14


 512 01a3 884350   		movb	%al, 80(%ebx)
 513 01a6 E8000000 		call	_hasErrorCodes
 513      00
 514 01ab 0FB65349 		movzbl	73(%ebx), %edx
 515 01af 83E2FE   		andl	$-2, %edx
 516 01b2 83E001   		andl	$1, %eax
 517 01b5 09C2     		orl	%eax, %edx
 518 01b7 885349   		movb	%dl, 73(%ebx)
 519 01ba 8B0D0000 		movl	_engine, %ecx
 519      0000
 520 01c0 8B816C02 		movl	620(%ecx), %eax
 520      0000
 521 01c6 85C0     		testl	%eax, %eax
 522 01c8 0F9FC0   		setg	%al
 523 01cb 83E2BF   		andl	$-65, %edx
 524 01ce C1E006   		sall	$6, %eax
 525 01d1 09C2     		orl	%eax, %edx
 526 01d3 885349   		movb	%dl, 73(%ebx)
 527 01d6 0FB68168 		movzbl	616(%ecx), %eax
 527      020000
 528 01dd 83E2DF   		andl	$-33, %edx
 529 01e0 83E001   		andl	$1, %eax
 530 01e3 C1E005   		sall	$5, %eax
 531 01e6 09C2     		orl	%eax, %edx
 532 01e8 885349   		movb	%dl, 73(%ebx)
 533 01eb 0FB68164 		movzbl	612(%ecx), %eax
 533      020000
 534 01f2 83E2F7   		andl	$-9, %edx
 535 01f5 83E001   		andl	$1, %eax
 536 01f8 C1E003   		sall	$3, %eax
 537 01fb 09C2     		orl	%eax, %edx
 538 01fd 885349   		movb	%dl, 73(%ebx)
 539 0200 0FB68165 		movzbl	613(%ecx), %eax
 539      020000
 540 0207 83E2EF   		andl	$-17, %edx
 541 020a 83E001   		andl	$1, %eax
 542 020d C1E004   		sall	$4, %eax
 543 0210 09C2     		orl	%eax, %edx
 544 0212 885349   		movb	%dl, 73(%ebx)
 545 0215 D9442444 		flds	68(%esp)
 546 0219 D95C240C 		fstps	12(%esp)
 547 021d D9442440 		flds	64(%esp)
 548 0221 D95C2408 		fstps	8(%esp)
 549 0225 D944243C 		flds	60(%esp)
 550 0229 D95C2404 		fstps	4(%esp)
 551 022d 893424   		movl	%esi, (%esp)
 552 0230 E8000000 		call	__Z10getTChargeifff
 552      00
 553 0235 A1000000 		movl	_engine, %eax
 553      00
 554 023a D95B34   		fstps	52(%ebx)
 555 023d D980B81E 		flds	7864(%eax)
 555      0000
 556 0243 D905F000 		flds	LC28
 556      0000
 557 0249 D9C9     		fxch	%st(1)
 558 024b DBE9     		fucomi	%st(1), %st
GAS LISTING /cygdrive/c/Users/pc/AppData/Local/Temp/cc7pyAFi.s 			page 15


 559 024d DDD9     		fstp	%st(1)
 560 024f 7606     		jbe	L60
 561 0251 D825F400 		fsubs	LC29
 561      0000
 562              	L60:
 563 0257 D95B38   		fstps	56(%ebx)
 564 025a D980B41E 		flds	7860(%eax)
 564      0000
 565 0260 D95B3C   		fstps	60(%ebx)
 566 0263 D9442448 		flds	72(%esp)
 567 0267 D95B30   		fstps	48(%ebx)
 568 026a 893424   		movl	%esi, (%esp)
 569 026d E8000000 		call	__Z9getFuelMsi
 569      00
 570 0272 D95B40   		fstps	64(%ebx)
 571 0275 E8000000 		call	__Z15getCrankingFuelv
 571      00
 572 027a D95B2C   		fstps	44(%ebx)
 573 027d 83C454   		addl	$84, %esp
 574              		.cfi_remember_state
 575              		.cfi_def_cfa_offset 12
 576 0280 5B       		popl	%ebx
 577              		.cfi_restore 3
 578              		.cfi_def_cfa_offset 8
 579 0281 5E       		popl	%esi
 580              		.cfi_restore 6
 581              		.cfi_def_cfa_offset 4
 582 0282 C3       		ret
 583              		.p2align 4,,7
 584              	L57:
 585              		.cfi_restore_state
 586 0283 A1440000 		movl	_veMap+68, %eax
 586      00
 587 0288 8974244C 		movl	%esi, 76(%esp)
 588 028c DB44244C 		fildl	76(%esp)
 589 0290 D95C240C 		fstps	12(%esp)
 590 0294 89442410 		movl	%eax, 16(%esp)
 591 0298 A1400000 		movl	_veMap+64, %eax
 591      00
 592 029d D91C24   		fstps	(%esp)
 593 02a0 C7442418 		movl	$_veMap, 24(%esp)
 593      00000000 
 594 02a8 C7442414 		movl	$16, 20(%esp)
 594      10000000 
 595 02b0 C7442408 		movl	$16, 8(%esp)
 595      10000000 
 596 02b8 89442404 		movl	%eax, 4(%esp)
 597 02bc E8000000 		call	__Z13interpolate3dfPfifS_iPS_
 597      00
 598 02c1 E9DCFDFF 		jmp	L58
 598      FF
 599              		.p2align 4,,7
 600              	L70:
 601 02c6 E8000000 		call	__Z6getMafv
 601      00
 602 02cb D95B10   		fstps	16(%ebx)
 603 02ce 6690     		.p2align 4,,5
GAS LISTING /cygdrive/c/Users/pc/AppData/Local/Temp/cc7pyAFi.s 			page 16


 604 02d0 E99CFDFF 		jmp	L56
 604      FF
 605              		.p2align 4,,7
 606              	L71:
 607 02d5 E8000000 		call	__Z8getVBattv
 607      00
 608 02da D95B1C   		fstps	28(%ebx)
 609              		.p2align 4,,2
 610 02dd E9D8FDFF 		jmp	L59
 610      FF
 611              		.cfi_endproc
 612              	LFE98:
 613 02e2 90909090 		.section	.text$_Z25prepareTunerStudioOutputsv,"x"
 613      90909090 
 613      90909090 
 613      9090
 614              		.p2align 4,,15
 615              		.globl	__Z25prepareTunerStudioOutputsv
 616              		.def	__Z25prepareTunerStudioOutputsv;	.scl	2;	.type	32;	.endef
 617              	__Z25prepareTunerStudioOutputsv:
 618              	LFB99:
 619              		.cfi_startproc
 620 0000 83EC1C   		subl	$28, %esp
 621              		.cfi_def_cfa_offset 32
 622 0003 C7042400 		movl	$_tsOutputChannels, (%esp)
 622      000000
 623 000a E8000000 		call	__Z22updateTunerStudioStateP25TunerStudioOutputChannels
 623      00
 624 000f 83C41C   		addl	$28, %esp
 625              		.cfi_def_cfa_offset 4
 626 0012 C3       		ret
 627              		.cfi_endproc
 628              	LFE99:
 629 0013 90909090 		.section .rdata,"dr"
 629      90909090 
 629      90909090 
 629      90
 630              	LC30:
 631 00bf 7761726E 		.ascii "warn\0"
 631      00
 632              		.section	.text$_Z14initStatusLoopP6Engine,"x"
 633              		.p2align 4,,15
 634              		.globl	__Z14initStatusLoopP6Engine
 635              		.def	__Z14initStatusLoopP6Engine;	.scl	2;	.type	32;	.endef
 636              	__Z14initStatusLoopP6Engine:
 637              	LFB102:
 638              		.cfi_startproc
 639 0000 83EC1C   		subl	$28, %esp
 640              		.cfi_def_cfa_offset 32
 641 0003 C7042401 		movl	$1, (%esp)
 641      000000
 642 000a E8000000 		call	__Z10setFullLogi
 642      00
 643 000f C7442404 		movl	$__Z10setFullLogi, 4(%esp)
 643      00000000 
 644 0017 C704241B 		movl	$LC1, (%esp)
 644      000000
GAS LISTING /cygdrive/c/Users/pc/AppData/Local/Temp/cc7pyAFi.s 			page 17


 645 001e E8000000 		call	_addConsoleActionI
 645      00
 646 0023 C7442404 		movl	$__ZL17setWarningEnabledi, 4(%esp)
 646      00000000 
 647 002b C70424BF 		movl	$LC30, (%esp)
 647      000000
 648 0032 E8000000 		call	_addConsoleActionI
 648      00
 649 0037 83C41C   		addl	$28, %esp
 650              		.cfi_def_cfa_offset 4
 651 003a C3       		ret
 652              		.cfi_endproc
 653              	LFE102:
 654 003b 90909090 		.section	.text$_Z18startStatusThreadsP6Engine,"x"
 654      90
 655              		.p2align 4,,15
 656              		.globl	__Z18startStatusThreadsP6Engine
 657              		.def	__Z18startStatusThreadsP6Engine;	.scl	2;	.type	32;	.endef
 658              	__Z18startStatusThreadsP6Engine:
 659              	LFB103:
 660              		.cfi_startproc
 661 0000 83EC2C   		subl	$44, %esp
 662              		.cfi_def_cfa_offset 48
 663 0003 8B442430 		movl	48(%esp), %eax
 664 0007 C744240C 		movl	$__ZL9lcdThreadPv, 12(%esp)
 664      00000000 
 665 000f C7442408 		movl	$64, 8(%esp)
 665      40000000 
 666 0017 C7442404 		movl	$17888, 4(%esp)
 666      E0450000 
 667 001f 89442410 		movl	%eax, 16(%esp)
 668 0023 C7042400 		movl	$__ZL14lcdThreadStack, (%esp)
 668      000000
 669 002a E8000000 		call	_chThdCreateStatic
 669      00
 670 002f 83C42C   		addl	$44, %esp
 671              		.cfi_def_cfa_offset 4
 672 0032 C3       		ret
 673              		.cfi_endproc
 674              	LFE103:
 675 0033 90909090 		.section	.text$_Z10getFullLogv,"x"
 675      90909090 
 675      90909090 
 675      90
 676              		.p2align 4,,15
 677              		.globl	__Z10getFullLogv
 678              		.def	__Z10getFullLogv;	.scl	2;	.type	32;	.endef
 679              	__Z10getFullLogv:
 680              	LFB105:
 681              		.cfi_startproc
 682 0000 0FB60500 		movzbl	__ZL7fullLog, %eax
 682      000000
 683 0007 C3       		ret
 684              		.cfi_endproc
 685              	LFE105:
 686 0008 90909090 		.section .rdata,"dr"
 686      90909090 
GAS LISTING /cygdrive/c/Users/pc/AppData/Local/Temp/cc7pyAFi.s 			page 18


 687              	LC31:
 688 00c4 73746174 		.ascii "status loop\0"
 688      7573206C 
 688      6F6F7000 
 689              	LC32:
 690 00d0 6D61696E 		.ascii "main event handler\0"
 690      20657665 
 690      6E742068 
 690      616E646C 
 690      657200
 691              		.section	.text.startup._GLOBAL__sub_I_warningEnabled,"x"
 692              		.p2align 4,,15
 693              		.def	__GLOBAL__sub_I_warningEnabled;	.scl	3;	.type	32;	.endef
 694              	__GLOBAL__sub_I_warningEnabled:
 695              	LFB108:
 696              		.cfi_startproc
 697 0000 83EC1C   		subl	$28, %esp
 698              		.cfi_def_cfa_offset 32
 699 0003 B9000000 		movl	$__ZL6logger, %ecx
 699      00
 700 0008 C7442408 		movl	$1400, 8(%esp)
 700      78050000 
 701 0010 C7442404 		movl	$__ZL14LOGGING_BUFFER, 4(%esp)
 701      00000000 
 702 0018 C70424C4 		movl	$LC31, (%esp)
 702      000000
 703 001f E8000000 		call	__ZN7LoggingC1EPKcPci
 703      00
 704              		.cfi_def_cfa_offset 20
 705 0024 B9000000 		movl	$__ZL7logger2, %ecx
 705      00
 706 0029 83EC0C   		subl	$12, %esp
 707              		.cfi_def_cfa_offset 32
 708 002c C70424D0 		movl	$LC32, (%esp)
 708      000000
 709 0033 E8000000 		call	__ZN18LoggingWithStorageC1EPKc
 709      00
 710              		.cfi_def_cfa_offset 28
 711 0038 B9000000 		movl	$__ZL16communicationPin, %ecx
 711      00
 712 003d 83EC04   		subl	$4, %esp
 713              		.cfi_def_cfa_offset 32
 714 0040 E8000000 		call	__ZN9OutputPinC1Ev
 714      00
 715 0045 B9000000 		movl	$_checkEnginePin, %ecx
 715      00
 716 004a E8000000 		call	__ZN9OutputPinC1Ev
 716      00
 717 004f B9000000 		movl	$_warningPin, %ecx
 717      00
 718 0054 E8000000 		call	__ZN9OutputPinC1Ev
 718      00
 719 0059 B9000000 		movl	$_runningPin, %ecx
 719      00
 720 005e 83C41C   		addl	$28, %esp
 721              		.cfi_def_cfa_offset 4
 722 0061 E9000000 		jmp	__ZN9OutputPinC1Ev
GAS LISTING /cygdrive/c/Users/pc/AppData/Local/Temp/cc7pyAFi.s 			page 19


 722      00
 723              		.cfi_endproc
 724              	LFE108:
 725 0066 90909090 		.section	.ctors,"w"
 725      90909090 
 725      9090
 726              		.align 4
 727 0000 00000000 		.long	__GLOBAL__sub_I_warningEnabled
 728              		.globl	_blinkingPeriod
 729              		.section	.data$blinkingPeriod,"w"
 730              		.align 4
 731              	_blinkingPeriod:
 732 0000 21000000 		.long	33
 733              		.globl	_runningPin
 734              		.section	.data$runningPin,"w"
 735              		.align 4
 736              	_runningPin:
 737 0000 00000000 		.space 8
 737      00000000 
 738              		.globl	_warningPin
 739              		.section	.data$warningPin,"w"
 740              		.align 4
 741              	_warningPin:
 742 0000 00000000 		.space 8
 742      00000000 
 743              		.globl	_checkEnginePin
 744              		.section	.data$checkEnginePin,"w"
 745              		.align 4
 746              	_checkEnginePin:
 747 0000 00000000 		.space 8
 747      00000000 
 748              		.globl	_needToReportStatus
 749              		.section	.data$needToReportStatus,"w"
 750              		.align 4
 751              	_needToReportStatus:
 752 0000 00000000 		.space 4
 753              		.globl	_warningEnabled
 754              		.section	.data$warningEnabled,"w"
 755              		.align 4
 756              	_warningEnabled:
 757 0000 01000000 		.long	1
 758              		.section	.data$_ZL7fullLog,"w"
 759              	__ZL7fullLog:
 760 0000 01       		.byte	1
 761 0001 000000   		.section	.data$_ZL6logger,"w"
 762              		.align 32
 763              	__ZL6logger:
 764 0000 00000000 		.space 60
 764      00000000 
 764      00000000 
 764      00000000 
 764      00000000 
 765 003c 00000000 		.section	.data$_ZL19prevCkpEventCounter,"w"
 766              		.align 4
 767              	__ZL19prevCkpEventCounter:
 768 0000 FFFFFFFF 		.long	-1
 769              		.section	.data$_ZL20timeOfPreviousReport,"w"
GAS LISTING /cygdrive/c/Users/pc/AppData/Local/Temp/cc7pyAFi.s 			page 20


 770              		.align 4
 771              	__ZL20timeOfPreviousReport:
 772 0000 FFFFFFFF 		.long	-1
 773              		.section	.data$_ZL26timeOfPreviousPrintVersion,"w"
 774              		.align 4
 775              	__ZL26timeOfPreviousPrintVersion:
 776 0000 FFFFFFFF 		.long	-1
 777              		.section	.data$_ZL14lcdThreadStack,"w"
 778              		.align 32
 779              	__ZL14lcdThreadStack:
 780 0000 00000000 		.space 17888
 780      00000000 
 780      00000000 
 780      00000000 
 780      00000000 
 781              		.section	.data$_ZL14LOGGING_BUFFER,"w"
 782              		.align 32
 783              	__ZL14LOGGING_BUFFER:
 784 0000 00000000 		.space 1400
 784      00000000 
 784      00000000 
 784      00000000 
 784      00000000 
 785 0578 00000000 		.section	.data$_ZL7logger2,"w"
 785      00000000 
 786              		.align 32
 787              	__ZL7logger2:
 788 0000 00000000 		.space 260
 788      00000000 
 788      00000000 
 788      00000000 
 788      00000000 
 789 0104 00000000 		.section	.data$_ZL16communicationPin,"w"
 789      00000000 
 789      00000000 
 789      00000000 
 789      00000000 
 790              		.align 4
 791              	__ZL16communicationPin:
 792 0000 00000000 		.space 8
 792      00000000 
 793              		.section .rdata,"dr"
 794 00e3 00       		.align 4
 795              	LC4:
 796 00e4 0000C07F 		.long	2143289344
 797              		.align 4
 798              	LC6:
 799 00e8 00007A44 		.long	1148846080
 800              		.align 4
 801              	LC27:
 802 00ec 0000C842 		.long	1120403456
 803              		.align 4
 804              	LC28:
 805 00f0 0000B443 		.long	1135869952
 806              		.align 4
 807              	LC29:
 808 00f4 00003444 		.long	1144258560
GAS LISTING /cygdrive/c/Users/pc/AppData/Local/Temp/cc7pyAFi.s 			page 21


 809              		.def	__Z12boolToStringb;	.scl	2;	.type	32;	.endef
 810              		.def	__Z5printPKcz;	.scl	2;	.type	32;	.endef
 811              		.def	_printMsg;	.scl	2;	.type	32;	.endef
 812              		.def	_chThdSleep;	.scl	2;	.type	32;	.endef
 813              		.def	__Z10debugFloatP7LoggingPKcfi;	.scl	2;	.type	32;	.endef
 814              		.def	__Z14isConsoleReadyv;	.scl	2;	.type	32;	.endef
 815              		.def	_printPending;	.scl	2;	.type	32;	.endef
 816              		.def	_currentTimeMillis;	.scl	2;	.type	32;	.endef
 817              		.def	__ZN13RpmCalculator3rpmEv;	.scl	2;	.type	32;	.endef
 818              		.def	__Z8debugIntP7LoggingPKci;	.scl	2;	.type	32;	.endef
 819              		.def	__Z12hasMafSensorv;	.scl	2;	.type	32;	.endef
 820              		.def	__Z14getEngineLoadTv;	.scl	2;	.type	32;	.endef
 821              		.def	__Z13hasBaroSensorv;	.scl	2;	.type	32;	.endef
 822              		.def	__Z8hasVBattv;	.scl	2;	.type	32;	.endef
 823              		.def	__Z6getTPSv;	.scl	2;	.type	32;	.endef
 824              		.def	__Z21getCoolantTemperaturev;	.scl	2;	.type	32;	.endef
 825              		.def	__Z23getIntakeAirTemperaturev;	.scl	2;	.type	32;	.endef
 826              		.def	_getTimeNowSeconds;	.scl	2;	.type	32;	.endef
 827              		.def	__Z20getConfigurationName13engine_type_e;	.scl	2;	.type	32;	.endef
 828              		.def	_getRusEfiVersion;	.scl	2;	.type	32;	.endef
 829              		.def	_appendPrintf;	.scl	2;	.type	32;	.endef
 830              		.def	__Z20getCrankEventCounterv;	.scl	2;	.type	32;	.endef
 831              		.def	__Z11getBaseFueli;	.scl	2;	.type	32;	.endef
 832              		.def	__Z9getFuelMsi;	.scl	2;	.type	32;	.endef
 833              		.def	_scheduleLogging;	.scl	2;	.type	32;	.endef
 834              		.def	__Z8getVBattv;	.scl	2;	.type	32;	.endef
 835              		.def	__Z6getAfrv;	.scl	2;	.type	32;	.endef
 836              		.def	__Z15getBaroPressurev;	.scl	2;	.type	32;	.endef
 837              		.def	__Z6getMapv;	.scl	2;	.type	32;	.endef
 838              		.def	__Z6getMafv;	.scl	2;	.type	32;	.endef
 839              		.def	__Z10getRealMafv;	.scl	2;	.type	32;	.endef
 840              		.def	_firmwareError;	.scl	2;	.type	32;	.endef
 841              		.def	__Z14getTPS10bitAdcv;	.scl	2;	.type	32;	.endef
 842              		.def	__ZN13RpmCalculator18getRpmAccelerationEv;	.scl	2;	.type	32;	.endef
 843              		.def	__ZN16AccelEnrichmemnt16getMapEnrichmentEv;	.scl	2;	.type	32;	.endef
 844              		.def	__ZN16AccelEnrichmemnt16getTpsEnrichmentEv;	.scl	2;	.type	32;	.endef
 845              		.def	__ZN16AccelEnrichmemnt8getDeltaEv;	.scl	2;	.type	32;	.endef
 846              		.def	__Z16getPedalPositionv;	.scl	2;	.type	32;	.endef
 847              		.def	__Z20getInjectorDutyCyclei;	.scl	2;	.type	32;	.endef
 848              		.def	_hasErrorCodes;	.scl	2;	.type	32;	.endef
 849              		.def	__Z10getTChargeifff;	.scl	2;	.type	32;	.endef
 850              		.def	__Z15getCrankingFuelv;	.scl	2;	.type	32;	.endef
 851              		.def	__Z13interpolate3dfPfifS_iPS_;	.scl	2;	.type	32;	.endef
 852              		.def	_addConsoleActionI;	.scl	2;	.type	32;	.endef
 853              		.def	_chThdCreateStatic;	.scl	2;	.type	32;	.endef
 854              		.def	__ZN7LoggingC1EPKcPci;	.scl	2;	.type	32;	.endef
 855              		.def	__ZN18LoggingWithStorageC1EPKc;	.scl	2;	.type	32;	.endef
 856              		.def	__ZN9OutputPinC1Ev;	.scl	2;	.type	32;	.endef
GAS LISTING /cygdrive/c/Users/pc/AppData/Local/Temp/cc7pyAFi.s 			page 22

