GAS LISTING /cygdrive/c/Users/pc/AppData/Local/Temp/ccYwX5XY.s 			page 1


   1              		.file	"table_helper.cpp"
   2              		.section	.text$_Z12setTableBin2Pfifff,"x"
   3              		.p2align 4,,15
   4              		.globl	__Z12setTableBin2Pfifff
   5              		.def	__Z12setTableBin2Pfifff;	.scl	2;	.type	32;	.endef
   6              	__Z12setTableBin2Pfifff:
   7              	LFB60:
   8              		.cfi_startproc
   9 0000 57       		pushl	%edi
  10              		.cfi_def_cfa_offset 8
  11              		.cfi_offset 7, -8
  12 0001 56       		pushl	%esi
  13              		.cfi_def_cfa_offset 12
  14              		.cfi_offset 6, -12
  15 0002 53       		pushl	%ebx
  16              		.cfi_def_cfa_offset 16
  17              		.cfi_offset 3, -16
  18 0003 83EC30   		subl	$48, %esp
  19              		.cfi_def_cfa_offset 64
  20 0006 8B742444 		movl	68(%esp), %esi
  21 000a 8B7C2440 		movl	64(%esp), %edi
  22 000e 85F6     		testl	%esi, %esi
  23 0010 7E5B     		jle	L1
  24 0012 8D46FF   		leal	-1(%esi), %eax
  25 0015 31DB     		xorl	%ebx, %ebx
  26 0017 8944242C 		movl	%eax, 44(%esp)
  27 001b DB44242C 		fildl	44(%esp)
  28 001f D95C2428 		fstps	40(%esp)
  29              		.p2align 4,,7
  30              	L3:
  31 0023 895C242C 		movl	%ebx, 44(%esp)
  32 0027 DB44242C 		fildl	44(%esp)
  33 002b D95C2410 		fstps	16(%esp)
  34 002f D944244C 		flds	76(%esp)
  35 0033 D95C240C 		fstps	12(%esp)
  36 0037 D9442428 		flds	40(%esp)
  37 003b D95C2408 		fstps	8(%esp)
  38 003f D9442448 		flds	72(%esp)
  39 0043 D95C2404 		fstps	4(%esp)
  40 0047 C7042400 		movl	$0x00000000, (%esp)
  40      000000
  41 004e E8000000 		call	__Z11interpolatefffff
  41      00
  42 0053 D9442450 		flds	80(%esp)
  43 0057 D95C2404 		fstps	4(%esp)
  44 005b D91C24   		fstps	(%esp)
  45 005e E8000000 		call	_efiRound
  45      00
  46 0063 D91C9F   		fstps	(%edi,%ebx,4)
  47 0066 83C301   		addl	$1, %ebx
  48 0069 39F3     		cmpl	%esi, %ebx
  49 006b 75B6     		jne	L3
  50              	L1:
  51 006d 83C430   		addl	$48, %esp
  52              		.cfi_def_cfa_offset 16
  53 0070 5B       		popl	%ebx
  54              		.cfi_restore 3
GAS LISTING /cygdrive/c/Users/pc/AppData/Local/Temp/ccYwX5XY.s 			page 2


  55              		.cfi_def_cfa_offset 12
  56 0071 5E       		popl	%esi
  57              		.cfi_restore 6
  58              		.cfi_def_cfa_offset 8
  59 0072 5F       		popl	%edi
  60              		.cfi_restore 7
  61              		.cfi_def_cfa_offset 4
  62 0073 C3       		ret
  63              		.cfi_endproc
  64              	LFE60:
  65 0074 90909090 		.section	.text$_Z11setTableBinPfiff,"x"
  65      90909090 
  65      90909090 
  66              		.p2align 4,,15
  67              		.globl	__Z11setTableBinPfiff
  68              		.def	__Z11setTableBinPfiff;	.scl	2;	.type	32;	.endef
  69              	__Z11setTableBinPfiff:
  70              	LFB61:
  71              		.cfi_startproc
  72 0000 83EC2C   		subl	$44, %esp
  73              		.cfi_def_cfa_offset 48
  74 0003 8B442434 		movl	52(%esp), %eax
  75 0007 D944243C 		flds	60(%esp)
  76 000b D95C240C 		fstps	12(%esp)
  77 000f D9442438 		flds	56(%esp)
  78 0013 89442404 		movl	%eax, 4(%esp)
  79 0017 8B442430 		movl	48(%esp), %eax
  80 001b D95C2408 		fstps	8(%esp)
  81 001f C7442410 		movl	$0x3c23d70a, 16(%esp)
  81      0AD7233C 
  82 0027 890424   		movl	%eax, (%esp)
  83 002a E8000000 		call	__Z12setTableBin2Pfifff
  83      00
  84 002f 83C42C   		addl	$44, %esp
  85              		.cfi_def_cfa_offset 4
  86 0032 C3       		ret
  87              		.cfi_endproc
  88              	LFE61:
  89 0033 90909090 		.section	.text$_Z14setRpmTableBinPfi,"x"
  89      90909090 
  89      90909090 
  89      90
  90              		.p2align 4,,15
  91              		.globl	__Z14setRpmTableBinPfi
  92              		.def	__Z14setRpmTableBinPfi;	.scl	2;	.type	32;	.endef
  93              	__Z14setRpmTableBinPfi:
  94              	LFB62:
  95              		.cfi_startproc
  96 0000 83EC2C   		subl	$44, %esp
  97              		.cfi_def_cfa_offset 48
  98 0003 8B442434 		movl	52(%esp), %eax
  99 0007 C7442410 		movl	$0x3f800000, 16(%esp)
  99      0000803F 
 100 000f C744240C 		movl	$0x45dac000, 12(%esp)
 100      00C0DA45 
 101 0017 C7442408 		movl	$0x44480000, 8(%esp)
 101      00004844 
GAS LISTING /cygdrive/c/Users/pc/AppData/Local/Temp/ccYwX5XY.s 			page 3


 102 001f 89442404 		movl	%eax, 4(%esp)
 103 0023 8B442430 		movl	48(%esp), %eax
 104 0027 890424   		movl	%eax, (%esp)
 105 002a E8000000 		call	__Z12setTableBin2Pfifff
 105      00
 106 002f 83C42C   		addl	$44, %esp
 107              		.cfi_def_cfa_offset 4
 108 0032 C3       		ret
 109              		.cfi_endproc
 110              	LFE62:
 111              		.def	__Z11interpolatefffff;	.scl	2;	.type	32;	.endef
 112 0033 90909090 		.def	_efiRound;	.scl	2;	.type	32;	.endef
 112      90909090 
 112      90909090 
 112      90
GAS LISTING /cygdrive/c/Users/pc/AppData/Local/Temp/ccYwX5XY.s 			page 4

