GAS LISTING /cygdrive/c/Users/pc/AppData/Local/Temp/ccg1N922.s 			page 1


   1              		.file	"tps.cpp"
   2              		.section	.text$_Z12saveTpsStatexf,"x"
   3              		.p2align 4,,15
   4              		.globl	__Z12saveTpsStatexf
   5              		.def	__Z12saveTpsStatexf;	.scl	2;	.type	32;	.endef
   6              	__Z12saveTpsStatexf:
   7              	LFB85:
   8              		.cfi_startproc
   9 0000 83EC1C   		subl	$28, %esp
  10              		.cfi_def_cfa_offset 32
  11 0003 8B0D0000 		movl	__ZL11tpsRocIndex, %ecx
  11      0000
  12 0009 89742410 		movl	%esi, 16(%esp)
  13              		.cfi_offset 6, -16
  14 000d 8B350000 		movl	__ZL11tpsRocIndex, %esi
  14      0000
  15 0013 896C2418 		movl	%ebp, 24(%esp)
  16 0017 D9442428 		flds	40(%esp)
  17 001b 897C2414 		movl	%edi, 20(%esp)
  18              		.cfi_offset 5, -8
  19              		.cfi_offset 7, -12
  20 001f 8B7C2420 		movl	32(%esp), %edi
  21 0023 83C101   		addl	$1, %ecx
  22 0026 89C8     		movl	%ecx, %eax
  23 0028 C1E81F   		shrl	$31, %eax
  24 002b 01C1     		addl	%eax, %ecx
  25 002d C1E605   		sall	$5, %esi
  26 0030 83E101   		andl	$1, %ecx
  27 0033 29C1     		subl	%eax, %ecx
  28 0035 8B861000 		movl	__ZL6states+16(%esi), %eax
  28      0000
  29 003b 89CD     		movl	%ecx, %ebp
  30 003d D9861800 		flds	__ZL6states+24(%esi)
  30      0000
  31 0043 C1E505   		sall	$5, %ebp
  32 0046 8B961400 		movl	__ZL6states+20(%esi), %edx
  32      0000
  33 004c D99D0800 		fstps	__ZL6states+8(%ebp)
  33      0000
  34 0052 89850000 		movl	%eax, __ZL6states(%ebp)
  34      0000
  35 0058 8B442424 		movl	36(%esp), %eax
  36 005c D9951800 		fsts	__ZL6states+24(%ebp)
  36      0000
  37 0062 D8A61800 		fsubs	__ZL6states+24(%esi)
  37      0000
  38 0068 89BD1000 		movl	%edi, __ZL6states+16(%ebp)
  38      0000
  39 006e 895C240C 		movl	%ebx, 12(%esp)
  40              		.cfi_offset 3, -20
  41 0072 8B5C240C 		movl	12(%esp), %ebx
  42 0076 89851400 		movl	%eax, __ZL6states+20(%ebp)
  42      0000
  43 007c 2BBE1000 		subl	__ZL6states+16(%esi), %edi
  43      0000
  44 0082 89950400 		movl	%edx, __ZL6states+4(%ebp)
  44      0000
GAS LISTING /cygdrive/c/Users/pc/AppData/Local/Temp/ccg1N922.s 			page 2


  45 0088 8B742410 		movl	16(%esp), %esi
  46 008c 890D0000 		movl	%ecx, __ZL11tpsRocIndex
  46      0000
  47 0092 893C24   		movl	%edi, (%esp)
  48 0095 8B7C2414 		movl	20(%esp), %edi
  49 0099 DB0424   		fildl	(%esp)
  50 009c D8353400 		fdivs	LC0
  50      0000
  51 00a2 D95C2404 		fstps	4(%esp)
  52 00a6 D9442404 		flds	4(%esp)
  53 00aa DEF9     		fdivrp	%st, %st(1)
  54 00ac D99D1C00 		fstps	__ZL6states+28(%ebp)
  54      0000
  55 00b2 8B6C2418 		movl	24(%esp), %ebp
  56 00b6 83C41C   		addl	$28, %esp
  57              		.cfi_restore 5
  58              		.cfi_restore 7
  59              		.cfi_restore 6
  60              		.cfi_restore 3
  61              		.cfi_def_cfa_offset 4
  62 00b9 C3       		ret
  63              		.cfi_endproc
  64              	LFE85:
  65 00ba 90909090 		.section	.text$_Z18getTpsRateOfChangev,"x"
  65      9090
  66              		.p2align 4,,15
  67              		.globl	__Z18getTpsRateOfChangev
  68              		.def	__Z18getTpsRateOfChangev;	.scl	2;	.type	32;	.endef
  69              	__Z18getTpsRateOfChangev:
  70              	LFB86:
  71              		.cfi_startproc
  72 0000 A1000000 		movl	__ZL11tpsRocIndex, %eax
  72      00
  73 0005 C1E005   		sall	$5, %eax
  74 0008 D9801C00 		flds	__ZL6states+28(%eax)
  74      0000
  75 000e C3       		ret
  76              		.cfi_endproc
  77              	LFE86:
  78 000f 90       		.section .rdata,"dr"
  79              		.align 4
  80              	LC2:
  81 0000 496E7661 		.ascii "Invalid TPS configuration: same value %d\0"
  81      6C696420 
  81      54505320 
  81      636F6E66 
  81      69677572 
  82              		.section	.text$_Z11getTpsValuei,"x"
  83              		.p2align 4,,15
  84              		.globl	__Z11getTpsValuei
  85              		.def	__Z11getTpsValuei;	.scl	2;	.type	32;	.endef
  86              	__Z11getTpsValuei:
  87              	LFB87:
  88              		.cfi_startproc
  89 0000 83EC3C   		subl	$60, %esp
  90              		.cfi_def_cfa_offset 64
  91 0003 A1000000 		movl	_engineConfiguration, %eax
GAS LISTING /cygdrive/c/Users/pc/AppData/Local/Temp/ccg1N922.s 			page 3


  91      00
  92 0008 0FBF5052 		movswl	82(%eax), %edx
  93 000c 0FB74054 		movzwl	84(%eax), %eax
  94 0010 6639C2   		cmpw	%ax, %dx
  95 0013 745B     		je	L9
  96 0015 DB442440 		fildl	64(%esp)
  97 0019 66894424 		movw	%ax, 42(%esp)
  97      2A
  98 001e D95C2410 		fstps	16(%esp)
  99 0022 DF44242A 		filds	42(%esp)
 100 0026 D95C2408 		fstps	8(%esp)
 101 002a 66895424 		movw	%dx, 42(%esp)
 101      2A
 102 002f DF44242A 		filds	42(%esp)
 103 0033 C744240C 		movl	$0x42c80000, 12(%esp)
 103      0000C842 
 104 003b D91C24   		fstps	(%esp)
 105 003e C7442404 		movl	$0x00000000, 4(%esp)
 105      00000000 
 106 0046 E8000000 		call	__Z11interpolatefffff
 106      00
 107 004b C7042400 		movl	$0x42c80000, (%esp)
 107      00C842
 108 0052 D95C2404 		fstps	4(%esp)
 109 0056 E8000000 		call	_minF
 109      00
 110 005b C7042400 		movl	$0x00000000, (%esp)
 110      000000
 111 0062 D95C2404 		fstps	4(%esp)
 112 0066 E8000000 		call	_maxF
 112      00
 113 006b 83C43C   		addl	$60, %esp
 114              		.cfi_remember_state
 115              		.cfi_def_cfa_offset 4
 116 006e C3       		ret
 117 006f 90       		.p2align 4,,7
 118              	L9:
 119              		.cfi_restore_state
 120 0070 89542408 		movl	%edx, 8(%esp)
 121 0074 C7442404 		movl	$LC2, 4(%esp)
 121      00000000 
 122 007c C704245E 		movl	$606, (%esp)
 122      020000
 123 0083 E8000000 		call	_warning
 123      00
 124 0088 D9053800 		flds	LC1
 124      0000
 125 008e 83C43C   		addl	$60, %esp
 126              		.cfi_def_cfa_offset 4
 127 0091 C3       		ret
 128              		.cfi_endproc
 129              	LFE87:
 130 0092 90909090 		.section .rdata,"dr"
 130      90909090 
 130      90909090 
 130      9090
 131              	LC5:
GAS LISTING /cygdrive/c/Users/pc/AppData/Local/Temp/ccg1N922.s 			page 4


 132 0029 74707300 		.ascii "tps\0"
 133              		.section	.text$_Z13getTPSVoltagev,"x"
 134              		.p2align 4,,15
 135              		.globl	__Z13getTPSVoltagev
 136              		.def	__Z13getTPSVoltagev;	.scl	2;	.type	32;	.endef
 137              	__Z13getTPSVoltagev:
 138              	LFB88:
 139              		.cfi_startproc
 140 0000 83EC2C   		subl	$44, %esp
 141              		.cfi_def_cfa_offset 48
 142 0003 A1000000 		movl	_engineConfiguration, %eax
 142      00
 143 0008 8B800C02 		movl	524(%eax), %eax
 143      0000
 144 000e C7042429 		movl	$LC5, (%esp)
 144      000000
 145 0015 89442404 		movl	%eax, 4(%esp)
 146 0019 E8000000 		call	__Z11getAdcValuePKci
 146      00
 147 001e 8944241C 		movl	%eax, 28(%esp)
 148 0022 A1000000 		movl	_engineConfiguration, %eax
 148      00
 149 0027 DB44241C 		fildl	28(%esp)
 150 002b D80D4000 		fmuls	LC6
 150      0000
 151 0031 D888D001 		fmuls	464(%eax)
 151      0000
 152 0037 83C42C   		addl	$44, %esp
 153              		.cfi_def_cfa_offset 4
 154 003a C3       		ret
 155              		.cfi_endproc
 156              	LFE88:
 157 003b 90909090 		.section	.text$_Z14getTPS10bitAdcv,"x"
 157      90
 158              		.p2align 4,,15
 159              		.globl	__Z14getTPS10bitAdcv
 160              		.def	__Z14getTPS10bitAdcv;	.scl	2;	.type	32;	.endef
 161              	__Z14getTPS10bitAdcv:
 162              	LFB89:
 163              		.cfi_startproc
 164 0000 A1000000 		movl	_mockTps, %eax
 164      00
 165 0005 83F8FF   		cmpl	$-1, %eax
 166 0008 7406     		je	L15
 167 000a F3       		rep
 168 000b C3       		ret
 169 000c 8D742600 		.p2align 4,,7
 170              	L15:
 171 0010 8B150000 		movl	_engineConfiguration, %edx
 171      0000
 172 0016 83BA0C02 		cmpl	$16, 524(%edx)
 172      000010
 173 001d BA000000 		movl	$0, %edx
 173      00
 174 0022 0F45C2   		cmovne	%edx, %eax
 175 0025 C3       		ret
 176              		.cfi_endproc
GAS LISTING /cygdrive/c/Users/pc/AppData/Local/Temp/ccg1N922.s 			page 5


 177              	LFE89:
 178 0026 90909090 		.section	.text$_Z22hasPedalPositionSensorv,"x"
 178      90909090 
 178      9090
 179              		.p2align 4,,15
 180              		.globl	__Z22hasPedalPositionSensorv
 181              		.def	__Z22hasPedalPositionSensorv;	.scl	2;	.type	32;	.endef
 182              	__Z22hasPedalPositionSensorv:
 183              	LFB91:
 184              		.cfi_startproc
 185 0000 A1000000 		movl	_engineConfiguration, %eax
 185      00
 186 0005 83B85C02 		cmpl	$16, 604(%eax)
 186      000010
 187 000c 0F95C0   		setne	%al
 188 000f C3       		ret
 189              		.cfi_endproc
 190              	LFE91:
 191              		.section .rdata,"dr"
 192              	LC7:
 193 002d 70505300 		.ascii "pPS\0"
 194              		.section	.text$_Z16getPedalPositionv,"x"
 195              		.p2align 4,,15
 196              		.globl	__Z16getPedalPositionv
 197              		.def	__Z16getPedalPositionv;	.scl	2;	.type	32;	.endef
 198              	__Z16getPedalPositionv:
 199              	LFB92:
 200              		.cfi_startproc
 201 0000 83EC4C   		subl	$76, %esp
 202              		.cfi_def_cfa_offset 80
 203 0003 A1000000 		movl	_engineConfiguration, %eax
 203      00
 204 0008 8B805C02 		movl	604(%eax), %eax
 204      0000
 205 000e C704242D 		movl	$LC7, (%esp)
 205      000000
 206 0015 89442404 		movl	%eax, 4(%esp)
 207 0019 E8000000 		call	__Z11getAdcValuePKci
 207      00
 208 001e 8B150000 		movl	_engineConfiguration, %edx
 208      0000
 209 0024 8944243C 		movl	%eax, 60(%esp)
 210 0028 DB44243C 		fildl	60(%esp)
 211 002c D80D4000 		fmuls	LC6
 211      0000
 212 0032 D88AD001 		fmuls	464(%edx)
 212      0000
 213 0038 D95C2410 		fstps	16(%esp)
 214 003c D9053C00 		flds	LC3
 214      0000
 215 0042 D954240C 		fsts	12(%esp)
 216 0046 DF823E02 		filds	574(%edx)
 216      0000
 217 004c D95C2408 		fstps	8(%esp)
 218 0050 D9EE     		fldz
 219 0052 D9542404 		fsts	4(%esp)
 220 0056 DF823C02 		filds	572(%edx)
GAS LISTING /cygdrive/c/Users/pc/AppData/Local/Temp/ccg1N922.s 			page 6


 220      0000
 221 005c D91C24   		fstps	(%esp)
 222 005f D95C2420 		fstps	32(%esp)
 223 0063 D95C2430 		fstps	48(%esp)
 224 0067 E8000000 		call	__Z11interpolatefffff
 224      00
 225 006c D95C2404 		fstps	4(%esp)
 226 0070 D9442430 		flds	48(%esp)
 227 0074 D91C24   		fstps	(%esp)
 228 0077 E8000000 		call	_minF
 228      00
 229 007c D95C2404 		fstps	4(%esp)
 230 0080 D9442420 		flds	32(%esp)
 231 0084 D91C24   		fstps	(%esp)
 232 0087 E8000000 		call	_maxF
 232      00
 233 008c 83C44C   		addl	$76, %esp
 234              		.cfi_def_cfa_offset 4
 235 008f C3       		ret
 236              		.cfi_endproc
 237              	LFE92:
 238              		.section	.text$_Z6getTPSv,"x"
 239              		.p2align 4,,15
 240              		.globl	__Z6getTPSv
 241              		.def	__Z6getTPSv;	.scl	2;	.type	32;	.endef
 242              	__Z6getTPSv:
 243              	LFB93:
 244              		.cfi_startproc
 245 0000 A1000000 		movl	_engineConfiguration, %eax
 245      00
 246 0005 D9054400 		flds	LC8
 246      0000
 247 000b 80B8D905 		cmpb	$0, 1497(%eax)
 247      000000
 248 0012 7802     		js	L28
 249 0014 F3       		rep
 250 0015 C3       		ret
 251              		.p2align 4,,7
 252              	L28:
 253 0016 DDD8     		fstp	%st(0)
 254 0018 83EC1C   		subl	$28, %esp
 255              		.cfi_def_cfa_offset 32
 256 001b 8B150000 		movl	_mockTps, %edx
 256      0000
 257 0021 83FAFF   		cmpl	$-1, %edx
 258 0024 750F     		jne	L21
 259 0026 83B80C02 		cmpl	$16, 524(%eax)
 259      000010
 260 002d B8000000 		movl	$0, %eax
 260      00
 261 0032 0F45D0   		cmovne	%eax, %edx
 262              	L21:
 263 0035 891424   		movl	%edx, (%esp)
 264 0038 E8000000 		call	__Z11getTpsValuei
 264      00
 265 003d 83C41C   		addl	$28, %esp
 266              		.cfi_def_cfa_offset 4
GAS LISTING /cygdrive/c/Users/pc/AppData/Local/Temp/ccg1N922.s 			page 7


 267 0040 C3       		ret
 268              		.cfi_endproc
 269              	LFE93:
 270 0041 90909090 		.section	.text$_Z24convertVoltageTo10bitADCf,"x"
 270      90909090 
 270      90909090 
 270      909090
 271              		.p2align 4,,15
 272              		.globl	__Z24convertVoltageTo10bitADCf
 273              		.def	__Z24convertVoltageTo10bitADCf;	.scl	2;	.type	32;	.endef
 274              	__Z24convertVoltageTo10bitADCf:
 275              	LFB94:
 276              		.cfi_startproc
 277 0000 83EC0C   		subl	$12, %esp
 278              		.cfi_def_cfa_offset 16
 279 0003 D9054800 		flds	LC9
 279      0000
 280 0009 D84C2410 		fmuls	16(%esp)
 281 000d D97C2406 		fnstcw	6(%esp)
 282 0011 0FB74424 		movzwl	6(%esp), %eax
 282      06
 283 0016 D80D4C00 		fmuls	LC10
 283      0000
 284 001c B40C     		movb	$12, %ah
 285 001e 66894424 		movw	%ax, 4(%esp)
 285      04
 286 0023 DD055000 		fldl	LC11
 286      0000
 287 0029 DEF9     		fdivrp	%st, %st(1)
 288 002b D96C2404 		fldcw	4(%esp)
 289 002f DB1C24   		fistpl	(%esp)
 290 0032 D96C2406 		fldcw	6(%esp)
 291 0036 8B0424   		movl	(%esp), %eax
 292 0039 83C40C   		addl	$12, %esp
 293              		.cfi_def_cfa_offset 4
 294 003c C3       		ret
 295              		.cfi_endproc
 296              	LFE94:
 297 003d 909090   		.section	.data$_ZL11tpsRocIndex,"w"
 298              		.align 4
 299              	__ZL11tpsRocIndex:
 300 0000 00000000 		.space 4
 301              		.globl	_tpsFastAdc
 302              		.section	.data$tpsFastAdc,"w"
 303              		.align 4
 304              	_tpsFastAdc:
 305 0000 00000000 		.space 4
 306              		.globl	_mockTps
 307              		.section	.data$mockTps,"w"
 308              		.align 4
 309              	_mockTps:
 310 0000 00000000 		.space 4
 311              		.section	.data$_ZL6states,"w"
 312              		.align 32
 313              	__ZL6states:
 314 0000 00000000 		.space 64
 314      00000000 
GAS LISTING /cygdrive/c/Users/pc/AppData/Local/Temp/ccg1N922.s 			page 8


 314      00000000 
 314      00000000 
 314      00000000 
 315              		.section .rdata,"dr"
 316 0031 000000   		.align 4
 317              	LC0:
 318 0034 0050C347 		.long	1203982336
 319              		.align 4
 320              	LC1:
 321 0038 0000C07F 		.long	2143289344
 322              		.align 4
 323              	LC3:
 324 003c 0000C842 		.long	1120403456
 325              		.align 4
 326              	LC6:
 327 0040 010C403A 		.long	977275905
 328              		.align 4
 329              	LC8:
 330 0044 D5388542 		.long	1116027093
 331              		.align 4
 332              	LC9:
 333 0048 0000003F 		.long	1056964608
 334              		.align 4
 335              	LC10:
 336 004c 00008044 		.long	1149239296
 337              		.align 8
 338              	LC11:
 339 0050 66666666 		.long	1717986918
 340 0054 66660A40 		.long	1074423398
 341              		.def	__Z11interpolatefffff;	.scl	2;	.type	32;	.endef
 342              		.def	_minF;	.scl	2;	.type	32;	.endef
 343              		.def	_maxF;	.scl	2;	.type	32;	.endef
 344              		.def	_warning;	.scl	2;	.type	32;	.endef
 345              		.def	__Z11getAdcValuePKci;	.scl	2;	.type	32;	.endef
GAS LISTING /cygdrive/c/Users/pc/AppData/Local/Temp/ccg1N922.s 			page 9


DEFINED SYMBOLS
                            *ABS*:00000000 tps.cpp
/cygdrive/c/Users/pc/AppData/Local/Temp/ccg1N922.s:6      .text$_Z12saveTpsStatexf:00000000 __Z12saveTpsStatexf
/cygdrive/c/Users/pc/AppData/Local/Temp/ccg1N922.s:299    .data$_ZL11tpsRocIndex:00000000 __ZL11tpsRocIndex
/cygdrive/c/Users/pc/AppData/Local/Temp/ccg1N922.s:313    .data$_ZL6states:00000000 __ZL6states
/cygdrive/c/Users/pc/AppData/Local/Temp/ccg1N922.s:69     .text$_Z18getTpsRateOfChangev:00000000 __Z18getTpsRateOfChangev
/cygdrive/c/Users/pc/AppData/Local/Temp/ccg1N922.s:86     .text$_Z11getTpsValuei:00000000 __Z11getTpsValuei
/cygdrive/c/Users/pc/AppData/Local/Temp/ccg1N922.s:137    .text$_Z13getTPSVoltagev:00000000 __Z13getTPSVoltagev
/cygdrive/c/Users/pc/AppData/Local/Temp/ccg1N922.s:161    .text$_Z14getTPS10bitAdcv:00000000 __Z14getTPS10bitAdcv
/cygdrive/c/Users/pc/AppData/Local/Temp/ccg1N922.s:309    .data$mockTps:00000000 _mockTps
/cygdrive/c/Users/pc/AppData/Local/Temp/ccg1N922.s:182    .text$_Z22hasPedalPositionSensorv:00000000 __Z22hasPedalPositionSensorv
/cygdrive/c/Users/pc/AppData/Local/Temp/ccg1N922.s:198    .text$_Z16getPedalPositionv:00000000 __Z16getPedalPositionv
/cygdrive/c/Users/pc/AppData/Local/Temp/ccg1N922.s:242    .text$_Z6getTPSv:00000000 __Z6getTPSv
/cygdrive/c/Users/pc/AppData/Local/Temp/ccg1N922.s:274    .text$_Z24convertVoltageTo10bitADCf:00000000 __Z24convertVoltageTo10bitADCf
/cygdrive/c/Users/pc/AppData/Local/Temp/ccg1N922.s:304    .data$tpsFastAdc:00000000 _tpsFastAdc

UNDEFINED SYMBOLS
_engineConfiguration
__Z11interpolatefffff
_minF
_maxF
_warning
__Z11getAdcValuePKci
