GAS LISTING /cygdrive/c/Users/pc/AppData/Local/Temp/cccQFhNN.s 			page 1


   1              		.file	"trigger_central.cpp"
   2              		.section .rdata,"dr"
   3              	LC0:
   4 0000 75736552 		.ascii "useRise=%s\0"
   4      6973653D 
   4      257300
   5              	LC1:
   6 000b 67617020 		.ascii "gap from %f to %f\0"
   6      66726F6D 
   6      20256620 
   6      746F2025 
   6      6600
   7              	LC2:
   8 001d 6576656E 		.ascii "event %d %f\0"
   8      74202564 
   8      20256600 
   9              		.section	.text$_ZL16triggerShapeInfov,"x"
  10              		.p2align 4,,15
  11              		.def	__ZL16triggerShapeInfov;	.scl	3;	.type	32;	.endef
  12              	__ZL16triggerShapeInfov:
  13              	LFB98:
  14              		.cfi_startproc
  15 0000 56       		pushl	%esi
  16              		.cfi_def_cfa_offset 8
  17              		.cfi_offset 6, -8
  18 0001 53       		pushl	%ebx
  19              		.cfi_def_cfa_offset 12
  20              		.cfi_offset 3, -12
  21 0002 83EC24   		subl	$36, %esp
  22              		.cfi_def_cfa_offset 48
  23 0005 8B1D0000 		movl	_engine, %ebx
  23      0000
  24 000b 0FB683E8 		movzbl	3560(%ebx), %eax
  24      0D0000
  25 0012 8DB38402 		leal	644(%ebx), %esi
  25      0000
  26 0018 890424   		movl	%eax, (%esp)
  27 001b E8000000 		call	__Z12boolToStringb
  27      00
  28 0020 C7442404 		movl	$LC0, 4(%esp)
  28      00000000 
  29 0028 89442408 		movl	%eax, 8(%esp)
  30 002c A1000000 		movl	__ZL6logger, %eax
  30      00
  31 0031 890424   		movl	%eax, (%esp)
  32 0034 E8000000 		call	__Z11scheduleMsgP7LoggingPKcz
  32      00
  33 0039 A1000000 		movl	__ZL6logger, %eax
  33      00
  34 003e D983E00D 		flds	3552(%ebx)
  34      0000
  35 0044 DD5C2410 		fstpl	16(%esp)
  36 0048 D983DC0D 		flds	3548(%ebx)
  36      0000
  37 004e 31DB     		xorl	%ebx, %ebx
  38 0050 DD5C2408 		fstpl	8(%esp)
  39 0054 C7442404 		movl	$LC1, 4(%esp)
GAS LISTING /cygdrive/c/Users/pc/AppData/Local/Temp/cccQFhNN.s 			page 2


  39      0B000000 
  40 005c 890424   		movl	%eax, (%esp)
  41 005f E8000000 		call	__Z11scheduleMsgP7LoggingPKcz
  41      00
  42 0064 EB27     		jmp	L2
  43              		.p2align 4,,7
  44              	L3:
  45 0066 A1000000 		movl	__ZL6logger, %eax
  45      00
  46 006b D9849E8C 		flds	2956(%esi,%ebx,4)
  46      0B0000
  47 0072 DD5C240C 		fstpl	12(%esp)
  48 0076 895C2408 		movl	%ebx, 8(%esp)
  49 007a 83C301   		addl	$1, %ebx
  50 007d C7442404 		movl	$LC2, 4(%esp)
  50      1D000000 
  51 0085 890424   		movl	%eax, (%esp)
  52 0088 E8000000 		call	__Z11scheduleMsgP7LoggingPKcz
  52      00
  53              	L2:
  54 008d 89F1     		movl	%esi, %ecx
  55 008f E8000000 		call	__ZNK12TriggerShape7getSizeEv
  55      00
  56 0094 39C3     		cmpl	%eax, %ebx
  57 0096 7CCE     		jl	L3
  58 0098 83C424   		addl	$36, %esp
  59              		.cfi_def_cfa_offset 12
  60 009b 5B       		popl	%ebx
  61              		.cfi_restore 3
  62              		.cfi_def_cfa_offset 8
  63 009c 5E       		popl	%esi
  64              		.cfi_restore 6
  65              		.cfi_def_cfa_offset 4
  66 009d C3       		ret
  67              		.cfi_endproc
  68              	LFE98:
  69 009e 9090     		.section .rdata,"dr"
  70 0029 000000   		.align 4
  71              	LC4:
  72 002c 54656D70 		.ascii "Template %s (%d) trigger %s (%d) useRiseEdge=%s onlyFront=%s\0"
  72      6C617465 
  72      20257320 
  72      28256429 
  72      20747269 
  73              	LC5:
  74 0069 746F7461 		.ascii "total %d/skipped %d\0"
  74      6C202564 
  74      2F736B69 
  74      70706564 
  74      20256400 
  75 007d 000000   		.align 4
  76              	LC6:
  77 0080 74726967 		.ascii "trigger#1 event counters up=%d/down=%d\0"
  77      67657223 
  77      31206576 
  77      656E7420 
  77      636F756E 
GAS LISTING /cygdrive/c/Users/pc/AppData/Local/Temp/cccQFhNN.s 			page 3


  78 00a7 00       		.align 4
  79              	LC7:
  80 00a8 74726967 		.ascii "trigger#2 event counters up=%d/down=%d\0"
  80      67657223 
  80      32206576 
  80      656E7420 
  80      636F756E 
  81 00cf 00       		.align 4
  82              	LC8:
  83 00d0 65787065 		.ascii "expected cycle events %d/%d/%d\0"
  83      63746564 
  83      20637963 
  83      6C652065 
  83      76656E74 
  84 00ef 00       		.align 4
  85              	LC9:
  86 00f0 74726967 		.ascii "trigger type=%d/need2ndChannel=%s\0"
  86      67657220 
  86      74797065 
  86      3D25642F 
  86      6E656564 
  87              	LC10:
  88 0112 65787065 		.ascii "expected duty #0=%f/#1=%f\0"
  88      63746564 
  88      20647574 
  88      79202330 
  88      3D25662F 
  89              		.align 4
  90              	LC11:
  91 012c 73796E63 		.ascii "synchronizationNeeded=%s/isError=%s/total errors=%d ord_err=%d/total revolutions=%d/self=%
  91      68726F6E 
  91      697A6174 
  91      696F6E4E 
  91      65656465 
  92              		.section	.text$_Z11triggerInfov,"x"
  93              		.p2align 4,,15
  94              		.globl	__Z11triggerInfov
  95              		.def	__Z11triggerInfov;	.scl	2;	.type	32;	.endef
  96              	__Z11triggerInfov:
  97              	LFB99:
  98              		.cfi_startproc
  99 0000 55       		pushl	%ebp
 100              		.cfi_def_cfa_offset 8
 101              		.cfi_offset 5, -8
 102 0001 57       		pushl	%edi
 103              		.cfi_def_cfa_offset 12
 104              		.cfi_offset 7, -12
 105 0002 56       		pushl	%esi
 106              		.cfi_def_cfa_offset 16
 107              		.cfi_offset 6, -16
 108 0003 53       		pushl	%ebx
 109              		.cfi_def_cfa_offset 20
 110              		.cfi_offset 3, -20
 111 0004 83EC3C   		subl	$60, %esp
 112              		.cfi_def_cfa_offset 80
 113 0007 A1000000 		movl	_engineConfiguration, %eax
 113      00
GAS LISTING /cygdrive/c/Users/pc/AppData/Local/Temp/cccQFhNN.s 			page 4


 114 000c 8B1D0000 		movl	_engine, %ebx
 114      0000
 115 0012 0FB680E5 		movzbl	1509(%eax), %eax
 115      050000
 116 0019 C0E806   		shrb	$6, %al
 117 001c 83E001   		andl	$1, %eax
 118 001f 890424   		movl	%eax, (%esp)
 119 0022 E8000000 		call	__Z12boolToStringb
 119      00
 120 0027 89C1     		movl	%eax, %ecx
 121 0029 A1000000 		movl	_engine, %eax
 121      00
 122 002e 0FB680E8 		movzbl	3560(%eax), %eax
 122      0D0000
 123 0035 894C2428 		movl	%ecx, 40(%esp)
 124 0039 890424   		movl	%eax, (%esp)
 125 003c E8000000 		call	__Z12boolToStringb
 125      00
 126 0041 89C2     		movl	%eax, %edx
 127 0043 A1000000 		movl	_engineConfiguration, %eax
 127      00
 128 0048 8BB81802 		movl	536(%eax), %edi
 128      0000
 129 004e 8954242C 		movl	%edx, 44(%esp)
 130 0052 893C24   		movl	%edi, (%esp)
 131 0055 E8000000 		call	__Z17getTrigger_type_e14trigger_type_e
 131      00
 132 005a 89C5     		movl	%eax, %ebp
 133 005c A1000000 		movl	_engineConfiguration, %eax
 133      00
 134 0061 8B30     		movl	(%eax), %esi
 135 0063 893424   		movl	%esi, (%esp)
 136 0066 E8000000 		call	__Z20getConfigurationName13engine_type_e
 136      00
 137 006b 8B54242C 		movl	44(%esp), %edx
 138 006f 8B4C2428 		movl	40(%esp), %ecx
 139 0073 897C2414 		movl	%edi, 20(%esp)
 140 0077 896C2410 		movl	%ebp, 16(%esp)
 141 007b 89542418 		movl	%edx, 24(%esp)
 142 007f 894C241C 		movl	%ecx, 28(%esp)
 143 0083 89442408 		movl	%eax, 8(%esp)
 144 0087 A1000000 		movl	__ZL6logger, %eax
 144      00
 145 008c 8974240C 		movl	%esi, 12(%esp)
 146 0090 C7442404 		movl	$LC4, 4(%esp)
 146      2C000000 
 147 0098 890424   		movl	%eax, (%esp)
 148 009b E8000000 		call	__Z11scheduleMsgP7LoggingPKcz
 148      00
 149 00a0 A1000000 		movl	_engineConfiguration, %eax
 149      00
 150 00a5 8B901802 		movl	536(%eax), %edx
 150      0000
 151 00ab 85D2     		testl	%edx, %edx
 152 00ad 0F84CD01 		je	L11
 152      0000
 153              	L7:
GAS LISTING /cygdrive/c/Users/pc/AppData/Local/Temp/cccQFhNN.s 			page 5


 154 00b3 A1400100 		movl	_triggerCentral+320, %eax
 154      00
 155 00b8 C7442404 		movl	$LC6, 4(%esp)
 155      80000000 
 156 00c0 8944240C 		movl	%eax, 12(%esp)
 157 00c4 A13C0100 		movl	_triggerCentral+316, %eax
 157      00
 158 00c9 89442408 		movl	%eax, 8(%esp)
 159 00cd A1000000 		movl	__ZL6logger, %eax
 159      00
 160 00d2 890424   		movl	%eax, (%esp)
 161 00d5 E8000000 		call	__Z11scheduleMsgP7LoggingPKcz
 161      00
 162 00da A1000000 		movl	_engine, %eax
 162      00
 163 00df 80B88502 		cmpb	$0, 645(%eax)
 163      000000
 164 00e6 0F855C01 		jne	L12
 164      0000
 165              	L8:
 166 00ec 8B93F40D 		movl	3572(%ebx), %edx
 166      0000
 167 00f2 89542410 		movl	%edx, 16(%esp)
 168 00f6 8B80F00D 		movl	3568(%eax), %eax
 168      0000
 169 00fc 8944240C 		movl	%eax, 12(%esp)
 170 0100 8B83EC0D 		movl	3564(%ebx), %eax
 170      0000
 171 0106 C7442404 		movl	$LC8, 4(%esp)
 171      D0000000 
 172 010e 89442408 		movl	%eax, 8(%esp)
 173 0112 A1000000 		movl	__ZL6logger, %eax
 173      00
 174 0117 890424   		movl	%eax, (%esp)
 175 011a E8000000 		call	__Z11scheduleMsgP7LoggingPKcz
 175      00
 176 011f A1000000 		movl	_engine, %eax
 176      00
 177 0124 0FB68085 		movzbl	645(%eax), %eax
 177      020000
 178 012b 890424   		movl	%eax, (%esp)
 179 012e E8000000 		call	__Z12boolToStringb
 179      00
 180 0133 8944240C 		movl	%eax, 12(%esp)
 181 0137 A1000000 		movl	_engineConfiguration, %eax
 181      00
 182 013c 8B801802 		movl	536(%eax), %eax
 182      0000
 183 0142 C7442404 		movl	$LC9, 4(%esp)
 183      F0000000 
 184 014a 89442408 		movl	%eax, 8(%esp)
 185 014e A1000000 		movl	__ZL6logger, %eax
 185      00
 186 0153 890424   		movl	%eax, (%esp)
 187 0156 E8000000 		call	__Z11scheduleMsgP7LoggingPKcz
 187      00
 188 015b A1000000 		movl	__ZL6logger, %eax
GAS LISTING /cygdrive/c/Users/pc/AppData/Local/Temp/cccQFhNN.s 			page 6


 188      00
 189 0160 D9839402 		flds	660(%ebx)
 189      0000
 190 0166 DD5C2410 		fstpl	16(%esp)
 191 016a D9839002 		flds	656(%ebx)
 191      0000
 192 0170 DD5C2408 		fstpl	8(%esp)
 193 0174 890424   		movl	%eax, (%esp)
 194 0177 C7442404 		movl	$LC10, 4(%esp)
 194      12010000 
 195 017f E8000000 		call	__Z11scheduleMsgP7LoggingPKcz
 195      00
 196 0184 A1000000 		movl	_engineConfiguration, %eax
 196      00
 197 0189 0FB64050 		movzbl	80(%eax), %eax
 198 018d 83E001   		andl	$1, %eax
 199 0190 890424   		movl	%eax, (%esp)
 200 0193 E8000000 		call	__Z12boolToStringb
 200      00
 201 0198 B9000000 		movl	$_triggerCentral, %ecx
 201      00
 202 019d 89C6     		movl	%eax, %esi
 203 019f E8000000 		call	__ZN12TriggerState25getTotalRevolutionCounterEv
 203      00
 204 01a4 8B154400 		movl	_triggerCentral+68, %edx
 204      0000
 205 01aa 8B2D3C00 		movl	_triggerCentral+60, %ebp
 205      0000
 206 01b0 8954242C 		movl	%edx, 44(%esp)
 207 01b4 89442428 		movl	%eax, 40(%esp)
 208 01b8 E8000000 		call	__Z21isTriggerDecoderErrorv
 208      00
 209 01bd 0FB6C0   		movzbl	%al, %eax
 210 01c0 890424   		movl	%eax, (%esp)
 211 01c3 E8000000 		call	__Z12boolToStringb
 211      00
 212 01c8 89C7     		movl	%eax, %edi
 213 01ca 0FB68384 		movzbl	644(%ebx), %eax
 213      020000
 214 01d1 890424   		movl	%eax, (%esp)
 215 01d4 E8000000 		call	__Z12boolToStringb
 215      00
 216 01d9 8B4C2428 		movl	40(%esp), %ecx
 217 01dd 8B54242C 		movl	44(%esp), %edx
 218 01e1 8974241C 		movl	%esi, 28(%esp)
 219 01e5 896C2410 		movl	%ebp, 16(%esp)
 220 01e9 894C2418 		movl	%ecx, 24(%esp)
 221 01ed 89542414 		movl	%edx, 20(%esp)
 222 01f1 89442408 		movl	%eax, 8(%esp)
 223 01f5 A1000000 		movl	__ZL6logger, %eax
 223      00
 224 01fa 897C240C 		movl	%edi, 12(%esp)
 225 01fe C7442404 		movl	$LC11, 4(%esp)
 225      2C010000 
 226 0206 890424   		movl	%eax, (%esp)
 227 0209 E8000000 		call	__Z11scheduleMsgP7LoggingPKcz
 227      00
GAS LISTING /cygdrive/c/Users/pc/AppData/Local/Temp/cccQFhNN.s 			page 7


 228 020e 80BB8402 		cmpb	$0, 644(%ebx)
 228      000000
 229 0215 7429     		je	L6
 230 0217 D983E00D 		flds	3552(%ebx)
 230      0000
 231 021d DD5C2410 		fstpl	16(%esp)
 232 0221 A1000000 		movl	__ZL6logger, %eax
 232      00
 233 0226 D983DC0D 		flds	3548(%ebx)
 233      0000
 234 022c DD5C2408 		fstpl	8(%esp)
 235 0230 C7442404 		movl	$LC1, 4(%esp)
 235      0B000000 
 236 0238 890424   		movl	%eax, (%esp)
 237 023b E8000000 		call	__Z11scheduleMsgP7LoggingPKcz
 237      00
 238              	L6:
 239 0240 83C43C   		addl	$60, %esp
 240              		.cfi_remember_state
 241              		.cfi_def_cfa_offset 20
 242 0243 5B       		popl	%ebx
 243              		.cfi_restore 3
 244              		.cfi_def_cfa_offset 16
 245 0244 5E       		popl	%esi
 246              		.cfi_restore 6
 247              		.cfi_def_cfa_offset 12
 248 0245 5F       		popl	%edi
 249              		.cfi_restore 7
 250              		.cfi_def_cfa_offset 8
 251 0246 5D       		popl	%ebp
 252              		.cfi_restore 5
 253              		.cfi_def_cfa_offset 4
 254 0247 C3       		ret
 255              		.p2align 4,,7
 256              	L12:
 257              		.cfi_restore_state
 258 0248 A1480100 		movl	_triggerCentral+328, %eax
 258      00
 259 024d C7442404 		movl	$LC7, 4(%esp)
 259      A8000000 
 260 0255 8944240C 		movl	%eax, 12(%esp)
 261 0259 A1440100 		movl	_triggerCentral+324, %eax
 261      00
 262 025e 89442408 		movl	%eax, 8(%esp)
 263 0262 A1000000 		movl	__ZL6logger, %eax
 263      00
 264 0267 890424   		movl	%eax, (%esp)
 265 026a E8000000 		call	__Z11scheduleMsgP7LoggingPKcz
 265      00
 266 026f A1000000 		movl	_engine, %eax
 266      00
 267 0274 E973FEFF 		jmp	L8
 267      FF
 268 0279 8DB42600 		.p2align 4,,7
 268      000000
 269              	L11:
 270 0280 8B902402 		movl	548(%eax), %edx
GAS LISTING /cygdrive/c/Users/pc/AppData/Local/Temp/cccQFhNN.s 			page 8


 270      0000
 271 0286 8954240C 		movl	%edx, 12(%esp)
 272 028a 8B802002 		movl	544(%eax), %eax
 272      0000
 273 0290 C7442404 		movl	$LC5, 4(%esp)
 273      69000000 
 274 0298 89442408 		movl	%eax, 8(%esp)
 275 029c A1000000 		movl	__ZL6logger, %eax
 275      00
 276 02a1 890424   		movl	%eax, (%esp)
 277 02a4 E8000000 		call	__Z11scheduleMsgP7LoggingPKcz
 277      00
 278 02a9 E905FEFF 		jmp	L7
 278      FF
 279              		.cfi_endproc
 280              	LFE99:
 281 02ae 9090     		.section	.text$_Z20getCrankEventCounterv,"x"
 282              		.p2align 4,,15
 283              		.globl	__Z20getCrankEventCounterv
 284              		.def	__Z20getCrankEventCounterv;	.scl	2;	.type	32;	.endef
 285              	__Z20getCrankEventCounterv:
 286              	LFB85:
 287              		.cfi_startproc
 288 0000 B9000000 		movl	$_triggerCentral, %ecx
 288      00
 289 0005 E9000000 		jmp	__ZN12TriggerState20getTotalEventCounterEv
 289      00
 290              		.cfi_endproc
 291              	LFE85:
 292 000a 90909090 		.section	.text$_Z25getStartOfRevolutionIndexv,"x"
 292      9090
 293              		.p2align 4,,15
 294              		.globl	__Z25getStartOfRevolutionIndexv
 295              		.def	__Z25getStartOfRevolutionIndexv;	.scl	2;	.type	32;	.endef
 296              	__Z25getStartOfRevolutionIndexv:
 297              	LFB86:
 298              		.cfi_startproc
 299 0000 B9000000 		movl	$_triggerCentral, %ecx
 299      00
 300 0005 E9000000 		jmp	__ZN12TriggerState25getStartOfRevolutionIndexEv
 300      00
 301              		.cfi_endproc
 302              	LFE86:
 303 000a 90909090 		.section .rdata,"dr"
 303      9090
 304              	LC12:
 305 0188 72656769 		.ascii "registerCkpListener: %s\15\12\0"
 305      73746572 
 305      436B704C 
 305      69737465 
 305      6E65723A 
 306              		.section	.text$_ZN14TriggerCentral16addEventListenerEPFv15trigger_event_ejEPKcP6Engine,"x"
 307              		.align 2
 308              		.p2align 4,,15
 309              		.globl	__ZN14TriggerCentral16addEventListenerEPFv15trigger_event_ejEPKcP6Engine
 310              		.def	__ZN14TriggerCentral16addEventListenerEPFv15trigger_event_ejEPKcP6Engine;	.scl	2;	.type	32;	.
 311              	__ZN14TriggerCentral16addEventListenerEPFv15trigger_event_ejEPKcP6Engine:
GAS LISTING /cygdrive/c/Users/pc/AppData/Local/Temp/cccQFhNN.s 			page 9


 312              	LFB87:
 313              		.cfi_startproc
 314 0000 53       		pushl	%ebx
 315              		.cfi_def_cfa_offset 8
 316              		.cfi_offset 3, -8
 317 0001 89CB     		movl	%ecx, %ebx
 318 0003 83EC18   		subl	$24, %esp
 319              		.cfi_def_cfa_offset 32
 320 0006 8B442424 		movl	36(%esp), %eax
 321 000a C7042488 		movl	$LC12, (%esp)
 321      010000
 322 0011 89442404 		movl	%eax, 4(%esp)
 323 0015 E8000000 		call	__Z5printPKcz
 323      00
 324 001a 8B442428 		movl	40(%esp), %eax
 325 001e 8D8BC000 		leal	192(%ebx), %ecx
 325      0000
 326 0024 89442404 		movl	%eax, 4(%esp)
 327 0028 8B442420 		movl	32(%esp), %eax
 328 002c 890424   		movl	%eax, (%esp)
 329 002f E8000000 		call	__ZN16IntListenerArray16registerCallbackEPFviEPv
 329      00
 330              		.cfi_def_cfa_offset 24
 331 0034 83EC08   		subl	$8, %esp
 332              		.cfi_def_cfa_offset 32
 333 0037 83C418   		addl	$24, %esp
 334              		.cfi_def_cfa_offset 8
 335 003a 5B       		popl	%ebx
 336              		.cfi_restore 3
 337              		.cfi_def_cfa_offset 4
 338 003b C20C00   		ret	$12
 339              		.cfi_endproc
 340              	LFE87:
 341 003e 9090     		.section	.text$_Z23addTriggerEventListenerPFv15trigger_event_ejEPKcP6Engine,"x"
 342              		.p2align 4,,15
 343              		.globl	__Z23addTriggerEventListenerPFv15trigger_event_ejEPKcP6Engine
 344              		.def	__Z23addTriggerEventListenerPFv15trigger_event_ejEPKcP6Engine;	.scl	2;	.type	32;	.endef
 345              	__Z23addTriggerEventListenerPFv15trigger_event_ejEPKcP6Engine:
 346              	LFB88:
 347              		.cfi_startproc
 348 0000 83EC1C   		subl	$28, %esp
 349              		.cfi_def_cfa_offset 32
 350 0003 B9000000 		movl	$_triggerCentral, %ecx
 350      00
 351 0008 8B442428 		movl	40(%esp), %eax
 352 000c 89442408 		movl	%eax, 8(%esp)
 353 0010 8B442424 		movl	36(%esp), %eax
 354 0014 89442404 		movl	%eax, 4(%esp)
 355 0018 8B442420 		movl	32(%esp), %eax
 356 001c 890424   		movl	%eax, (%esp)
 357 001f E8000000 		call	__ZN14TriggerCentral16addEventListenerEPFv15trigger_event_ejEPKcP6Engine
 357      00
 358              		.cfi_def_cfa_offset 20
 359 0024 83EC0C   		subl	$12, %esp
 360              		.cfi_def_cfa_offset 32
 361 0027 83C41C   		addl	$28, %esp
 362              		.cfi_def_cfa_offset 4
GAS LISTING /cygdrive/c/Users/pc/AppData/Local/Temp/cccQFhNN.s 			page 10


 363 002a C3       		ret
 364              		.cfi_endproc
 365              	LFE88:
 366 002b 90909090 		.section	.text$_ZN14TriggerCentralC2Ev,"x"
 366      90
 367              		.align 2
 368              		.p2align 4,,15
 369              		.globl	__ZN14TriggerCentralC2Ev
 370              		.def	__ZN14TriggerCentralC2Ev;	.scl	2;	.type	32;	.endef
 371              	__ZN14TriggerCentralC2Ev:
 372              	LFB91:
 373              		.cfi_startproc
 374 0000 56       		pushl	%esi
 375              		.cfi_def_cfa_offset 8
 376              		.cfi_offset 6, -8
 377 0001 53       		pushl	%ebx
 378              		.cfi_def_cfa_offset 12
 379              		.cfi_offset 3, -12
 380 0002 89CB     		movl	%ecx, %ebx
 381 0004 83EC14   		subl	$20, %esp
 382              		.cfi_def_cfa_offset 32
 383 0007 8DB3C000 		leal	192(%ebx), %esi
 383      0000
 384 000d E8000000 		call	__ZN12TriggerStateC1Ev
 384      00
 385 0012 89F1     		movl	%esi, %ecx
 386 0014 E8000000 		call	__ZN16IntListenerArrayC1Ev
 386      00
 387 0019 8D933C01 		leal	316(%ebx), %edx
 387      0000
 388 001f B9180000 		movl	$24, %ecx
 388      00
 389 0024 F6C201   		testb	$1, %dl
 390 0027 C783B800 		movl	$0, 184(%ebx)
 390      00000000 
 390      0000
 391 0031 C783BC00 		movl	$0, 188(%ebx)
 391      00000000 
 391      0000
 392 003b 7543     		jne	L40
 393 003d F6C202   		testb	$2, %dl
 394 0040 7552     		jne	L41
 395              	L21:
 396 0042 89CB     		movl	%ecx, %ebx
 397 0044 31C0     		xorl	%eax, %eax
 398 0046 83E3FC   		andl	$-4, %ebx
 399              	L22:
 400 0049 C7040200 		movl	$0, (%edx,%eax)
 400      000000
 401 0050 83C004   		addl	$4, %eax
 402 0053 39D8     		cmpl	%ebx, %eax
 403 0055 72F2     		jb	L22
 404 0057 01C2     		addl	%eax, %edx
 405 0059 F6C102   		testb	$2, %cl
 406 005c 7408     		je	L24
 407 005e 66C70200 		movw	$0, (%edx)
 407      00
GAS LISTING /cygdrive/c/Users/pc/AppData/Local/Temp/cccQFhNN.s 			page 11


 408 0063 83C202   		addl	$2, %edx
 409              	L24:
 410 0066 83E101   		andl	$1, %ecx
 411 0069 7403     		je	L25
 412 006b C60200   		movb	$0, (%edx)
 413              	L25:
 414 006e 893424   		movl	%esi, (%esp)
 415 0071 E8000000 		call	__Z14clearCallbacksP16IntListenerArray
 415      00
 416 0076 83C414   		addl	$20, %esp
 417              		.cfi_remember_state
 418              		.cfi_def_cfa_offset 12
 419 0079 5B       		popl	%ebx
 420              		.cfi_restore 3
 421              		.cfi_def_cfa_offset 8
 422 007a 5E       		popl	%esi
 423              		.cfi_restore 6
 424              		.cfi_def_cfa_offset 4
 425 007b C3       		ret
 426 007c 8D742600 		.p2align 4,,7
 427              	L40:
 428              		.cfi_restore_state
 429 0080 8D933D01 		leal	317(%ebx), %edx
 429      0000
 430 0086 B117     		movb	$23, %cl
 431 0088 F6C202   		testb	$2, %dl
 432 008b C6833C01 		movb	$0, 316(%ebx)
 432      000000
 433 0092 74AE     		je	L21
 434              		.p2align 4,,7
 435              	L41:
 436 0094 66C70200 		movw	$0, (%edx)
 436      00
 437 0099 83E902   		subl	$2, %ecx
 438 009c 83C202   		addl	$2, %edx
 439 009f EBA1     		jmp	L21
 440              		.cfi_endproc
 441              	LFE91:
 442              		.globl	__ZN14TriggerCentralC1Ev
 443              		.def	__ZN14TriggerCentralC1Ev;	.scl	2;	.type	32;	.endef
 444              		.set	__ZN14TriggerCentralC1Ev,__ZN14TriggerCentralC2Ev
 445 00a1 90909090 		.section	.text$_ZN14TriggerCentral17getHwEventCounterEi,"x"
 445      90909090 
 445      90909090 
 445      909090
 446              		.align 2
 447              		.p2align 4,,15
 448              		.globl	__ZN14TriggerCentral17getHwEventCounterEi
 449              		.def	__ZN14TriggerCentral17getHwEventCounterEi;	.scl	2;	.type	32;	.endef
 450              	__ZN14TriggerCentral17getHwEventCounterEi:
 451              	LFB93:
 452              		.cfi_startproc
 453 0000 8B442404 		movl	4(%esp), %eax
 454 0004 8B84813C 		movl	316(%ecx,%eax,4), %eax
 454      010000
 455 000b C20400   		ret	$4
 456              		.cfi_endproc
GAS LISTING /cygdrive/c/Users/pc/AppData/Local/Temp/cccQFhNN.s 			page 12


 457              	LFE93:
 458 000e 9090     		.section	.text$_ZN14TriggerCentral13resetCountersEv,"x"
 459              		.align 2
 460              		.p2align 4,,15
 461              		.globl	__ZN14TriggerCentral13resetCountersEv
 462              		.def	__ZN14TriggerCentral13resetCountersEv;	.scl	2;	.type	32;	.endef
 463              	__ZN14TriggerCentral13resetCountersEv:
 464              	LFB94:
 465              		.cfi_startproc
 466 0000 8D913C01 		leal	316(%ecx), %edx
 466      0000
 467 0006 83EC08   		subl	$8, %esp
 468              		.cfi_def_cfa_offset 12
 469 0009 F6C201   		testb	$1, %dl
 470 000c 891C24   		movl	%ebx, (%esp)
 471              		.cfi_offset 3, -12
 472 000f BB180000 		movl	$24, %ebx
 472      00
 473 0014 89742404 		movl	%esi, 4(%esp)
 474              		.cfi_offset 6, -8
 475 0018 7546     		jne	L64
 476 001a F6C202   		testb	$2, %dl
 477 001d 7555     		jne	L65
 478              	L45:
 479 001f 89DE     		movl	%ebx, %esi
 480 0021 31C0     		xorl	%eax, %eax
 481 0023 83E6FC   		andl	$-4, %esi
 482              	L46:
 483 0026 C7040200 		movl	$0, (%edx,%eax)
 483      000000
 484 002d 83C004   		addl	$4, %eax
 485 0030 39F0     		cmpl	%esi, %eax
 486 0032 72F2     		jb	L46
 487 0034 01C2     		addl	%eax, %edx
 488 0036 F6C302   		testb	$2, %bl
 489 0039 7408     		je	L48
 490 003b 66C70200 		movw	$0, (%edx)
 490      00
 491 0040 83C202   		addl	$2, %edx
 492              	L48:
 493 0043 83E301   		andl	$1, %ebx
 494 0046 7403     		je	L49
 495 0048 C60200   		movb	$0, (%edx)
 496              	L49:
 497 004b 8B1C24   		movl	(%esp), %ebx
 498 004e 8B742404 		movl	4(%esp), %esi
 499 0052 83C408   		addl	$8, %esp
 500              		.cfi_remember_state
 501              		.cfi_restore 6
 502              		.cfi_restore 3
 503              		.cfi_def_cfa_offset 4
 504 0055 E9000000 		jmp	__ZN12TriggerState20resetRunningCountersEv
 504      00
 505 005a 8DB60000 		.p2align 4,,7
 505      0000
 506              	L64:
 507              		.cfi_restore_state
GAS LISTING /cygdrive/c/Users/pc/AppData/Local/Temp/cccQFhNN.s 			page 13


 508 0060 8D913D01 		leal	317(%ecx), %edx
 508      0000
 509 0066 B317     		movb	$23, %bl
 510 0068 F6C202   		testb	$2, %dl
 511 006b C6813C01 		movb	$0, 316(%ecx)
 511      000000
 512 0072 74AB     		je	L45
 513              		.p2align 4,,7
 514              	L65:
 515 0074 66C70200 		movw	$0, (%edx)
 515      00
 516 0079 83EB02   		subl	$2, %ebx
 517 007c 83C202   		addl	$2, %edx
 518 007f EB9E     		jmp	L45
 519              		.cfi_endproc
 520              	LFE94:
 521 0081 90909090 		.section	.text$_ZL27resetRunningTriggerCountersv,"x"
 521      90909090 
 521      90909090 
 521      909090
 522              		.p2align 4,,15
 523              		.def	__ZL27resetRunningTriggerCountersv;	.scl	3;	.type	32;	.endef
 524              	__ZL27resetRunningTriggerCountersv:
 525              	LFB101:
 526              		.cfi_startproc
 527 0000 B9000000 		movl	$_triggerCentral, %ecx
 527      00
 528 0005 E9000000 		jmp	__ZN14TriggerCentral13resetCountersEv
 528      00
 529              		.cfi_endproc
 530              	LFE101:
 531 000a 90909090 		.section .rdata,"dr"
 531      9090
 532              	LC13:
 533 01a2 636F6E66 		.ascii "configuration\0"
 533      69677572 
 533      6174696F 
 533      6E00
 534              	LC14:
 535 01b0 656E6769 		.ascii "engineConfiguration\0"
 535      6E65436F 
 535      6E666967 
 535      75726174 
 535      696F6E00 
 536              	LC15:
 537 01c4 656E6769 		.ascii "engineConfiguration2\0"
 537      6E65436F 
 537      6E666967 
 537      75726174 
 537      696F6E32 
 538              	LC16:
 539 01d9 7369676E 		.ascii "signal type\0"
 539      616C2074 
 539      79706500 
 540              	LC17:
 541 01e5 756E6578 		.ascii "unexpected eventIndex=%d\0"
 541      70656374 
GAS LISTING /cygdrive/c/Users/pc/AppData/Local/Temp/cccQFhNN.s 			page 14


 541      65642065 
 541      76656E74 
 541      496E6465 
 542              		.section	.text$_ZN14TriggerCentral17handleShaftSignalE15trigger_event_e,"x"
 543              		.align 2
 544              		.p2align 4,,15
 545              		.globl	__ZN14TriggerCentral17handleShaftSignalE15trigger_event_e
 546              		.def	__ZN14TriggerCentral17handleShaftSignalE15trigger_event_e;	.scl	2;	.type	32;	.endef
 547              	__ZN14TriggerCentral17handleShaftSignalE15trigger_event_e:
 548              	LFB96:
 549              		.cfi_startproc
 550 0000 55       		pushl	%ebp
 551              		.cfi_def_cfa_offset 8
 552              		.cfi_offset 5, -8
 553 0001 57       		pushl	%edi
 554              		.cfi_def_cfa_offset 12
 555              		.cfi_offset 7, -12
 556 0002 56       		pushl	%esi
 557              		.cfi_def_cfa_offset 16
 558              		.cfi_offset 6, -16
 559 0003 53       		pushl	%ebx
 560              		.cfi_def_cfa_offset 20
 561              		.cfi_offset 3, -20
 562 0004 83EC2C   		subl	$44, %esp
 563              		.cfi_def_cfa_offset 64
 564 0007 A1000000 		movl	_engine, %eax
 564      00
 565 000c 8B742440 		movl	64(%esp), %esi
 566 0010 85C0     		testl	%eax, %eax
 567 0012 0F84D801 		je	L96
 567      0000
 568 0018 89CB     		movl	%ecx, %ebx
 569 001a E8000000 		call	_getTimeNowNt
 569      00
 570 001f 8B0D0000 		movl	_engine, %ecx
 570      0000
 571 0025 8B6924   		movl	36(%ecx), %ebp
 572 0028 8983B800 		movl	%eax, 184(%ebx)
 572      0000
 573 002e 8993BC00 		movl	%edx, 188(%ebx)
 573      0000
 574 0034 85ED     		testl	%ebp, %ebp
 575 0036 0F845102 		je	L97
 575      0000
 576 003c 8B7928   		movl	40(%ecx), %edi
 577 003f 85FF     		testl	%edi, %edi
 578 0041 0F84D001 		je	L98
 578      0000
 579 0047 890424   		movl	%eax, (%esp)
 580 004a 89542404 		movl	%edx, 4(%esp)
 581 004e E8000000 		call	__ZN6Engine14onTriggerEventEx
 581      00
 582              		.cfi_def_cfa_offset 56
 583 0053 83EC08   		subl	$8, %esp
 584              		.cfi_def_cfa_offset 64
 585 0056 83FE05   		cmpl	$5, %esi
 586 0059 0F874701 		ja	L99
GAS LISTING /cygdrive/c/Users/pc/AppData/Local/Temp/cccQFhNN.s 			page 15


 586      0000
 587 005f 8B3D0000 		movl	__ZL24previousShaftEventTimeNt, %edi
 587      0000
 588 0065 8B83B800 		movl	184(%ebx), %eax
 588      0000
 589 006b 8B2D0400 		movl	__ZL24previousShaftEventTimeNt+4, %ebp
 589      0000
 590 0071 8B93BC00 		movl	188(%ebx), %edx
 590      0000
 591 0077 897C2418 		movl	%edi, 24(%esp)
 592 007b 8384B33C 		addl	$1, 316(%ebx,%esi,4)
 592      01000001 
 593 0083 89C7     		movl	%eax, %edi
 594 0085 2B7C2418 		subl	24(%esp), %edi
 595 0089 896C241C 		movl	%ebp, 28(%esp)
 596 008d 89D5     		movl	%edx, %ebp
 597 008f 1B6C241C 		sbbl	28(%esp), %ebp
 598 0093 897C2418 		movl	%edi, 24(%esp)
 599 0097 83FD00   		cmpl	$0, %ebp
 600 009a 896C241C 		movl	%ebp, 28(%esp)
 601 009e 7C0A     		jl	L73
 602 00a0 0F8E6001 		jle	L100
 602      0000
 603              	L91:
 604 00a6 C6430400 		movb	$0, 4(%ebx)
 605              	L73:
 606 00aa 89442404 		movl	%eax, 4(%esp)
 607 00ae 89D9     		movl	%ebx, %ecx
 608 00b0 89542408 		movl	%edx, 8(%esp)
 609 00b4 893424   		movl	%esi, (%esp)
 610 00b7 A3000000 		movl	%eax, __ZL24previousShaftEventTimeNt
 610      00
 611 00bc 89150400 		movl	%edx, __ZL24previousShaftEventTimeNt+4
 611      0000
 612 00c2 E8000000 		call	__ZN12TriggerState18decodeTriggerEventE15trigger_event_ex
 612      00
 613              		.cfi_def_cfa_offset 52
 614 00c7 83EC0C   		subl	$12, %esp
 615              		.cfi_def_cfa_offset 64
 616 00ca 807B0400 		cmpb	$0, 4(%ebx)
 617 00ce 0F84C800 		je	L67
 617      0000
 618 00d4 A1000000 		movl	_engineConfiguration, %eax
 618      00
 619 00d9 89D9     		movl	%ebx, %ecx
 620 00db 83B8F401 		cmpl	$1, 500(%eax)
 620      000001
 621 00e2 0F84D800 		je	L76
 621      0000
 622 00e8 E8000000 		call	__ZN12TriggerState15getCurrentIndexEv
 622      00
 623 00ed 89C5     		movl	%eax, %ebp
 624              	L77:
 625 00ef 896C2404 		movl	%ebp, 4(%esp)
 626 00f3 C7042402 		movl	$__ZL22shaft_signal_msg_index+2, (%esp)
 626      000000
 627 00fa E8000000 		call	_itoa10
GAS LISTING /cygdrive/c/Users/pc/AppData/Local/Temp/cccQFhNN.s 			page 16


 627      00
 628 00ff 80BE0000 		cmpb	$0, __ZL9isUpEvent(%esi)
 628      000000
 629 0106 0F851C01 		jne	L79
 629      0000
 630 010c 8B3CB500 		movl	__ZL7eventId(,%esi,4), %edi
 630      000000
 631 0113 B9000000 		movl	$_waveChart, %ecx
 631      00
 632 0118 C7442404 		movl	$__ZL22shaft_signal_msg_index, 4(%esp)
 632      00000000 
 633 0120 C6050000 		movb	$100, __ZL22shaft_signal_msg_index
 633      000064
 634 0127 893C24   		movl	%edi, (%esp)
 635 012a E8000000 		call	__ZN9WaveChart18addWaveChartEvent3EPKcS1_
 635      00
 636              		.cfi_def_cfa_offset 56
 637 012f 8B150000 		movl	_engineConfiguration, %edx
 637      0000
 638 0135 50       		pushl	%eax
 639              		.cfi_def_cfa_offset 60
 640 0136 50       		pushl	%eax
 641              		.cfi_def_cfa_offset 64
 642 0137 B8750000 		movl	$117, %eax
 642      00
 643 013c F682E505 		testb	$64, 1509(%edx)
 643      000040
 644 0143 741D     		je	L86
 645              	L85:
 646 0145 C7442404 		movl	$__ZL22shaft_signal_msg_index, 4(%esp)
 646      00000000 
 647 014d B9000000 		movl	$_waveChart, %ecx
 647      00
 648 0152 893C24   		movl	%edi, (%esp)
 649 0155 A2000000 		movb	%al, __ZL22shaft_signal_msg_index
 649      00
 650 015a E8000000 		call	__ZN9WaveChart18addWaveChartEvent3EPKcS1_
 650      00
 651              		.cfi_def_cfa_offset 56
 652 015f 83EC08   		subl	$8, %esp
 653              		.cfi_def_cfa_offset 64
 654              	L86:
 655 0162 8B150000 		movl	_engine, %edx
 655      0000
 656 0168 8B434C   		movl	76(%ebx), %eax
 657 016b 3B82F016 		cmpl	5872(%edx), %eax
 657      0000
 658 0171 0F83F900 		jae	L81
 658      0000
 659 0177 8B83C000 		movl	192(%ebx), %eax
 659      0000
 660 017d 31FF     		xorl	%edi, %edi
 661 017f 85C0     		testl	%eax, %eax
 662 0181 7E19     		jle	L67
 663              		.p2align 4,,7
 664              	L92:
 665 0183 896C2404 		movl	%ebp, 4(%esp)
GAS LISTING /cygdrive/c/Users/pc/AppData/Local/Temp/cccQFhNN.s 			page 17


 666 0187 893424   		movl	%esi, (%esp)
 667 018a FF94BBC4 		call	*196(%ebx,%edi,4)
 667      000000
 668 0191 83C701   		addl	$1, %edi
 669 0194 39BBC000 		cmpl	%edi, 192(%ebx)
 669      0000
 670 019a 7FE7     		jg	L92
 671              	L67:
 672 019c 83C42C   		addl	$44, %esp
 673              		.cfi_remember_state
 674              		.cfi_def_cfa_offset 20
 675 019f 5B       		popl	%ebx
 676              		.cfi_restore 3
 677              		.cfi_def_cfa_offset 16
 678 01a0 5E       		popl	%esi
 679              		.cfi_restore 6
 680              		.cfi_def_cfa_offset 12
 681 01a1 5F       		popl	%edi
 682              		.cfi_restore 7
 683              		.cfi_def_cfa_offset 8
 684 01a2 5D       		popl	%ebp
 685              		.cfi_restore 5
 686              		.cfi_def_cfa_offset 4
 687 01a3 C20400   		ret	$4
 688              		.p2align 4,,7
 689              	L99:
 690              		.cfi_restore_state
 691 01a6 C70424D9 		movl	$LC16, (%esp)
 691      010000
 692 01ad E8000000 		call	_firmwareError
 692      00
 693 01b2 83C42C   		addl	$44, %esp
 694              		.cfi_remember_state
 695              		.cfi_def_cfa_offset 20
 696 01b5 5B       		popl	%ebx
 697              		.cfi_restore 3
 698              		.cfi_def_cfa_offset 16
 699 01b6 5E       		popl	%esi
 700              		.cfi_restore 6
 701              		.cfi_def_cfa_offset 12
 702 01b7 5F       		popl	%edi
 703              		.cfi_restore 7
 704              		.cfi_def_cfa_offset 8
 705 01b8 5D       		popl	%ebp
 706              		.cfi_restore 5
 707              		.cfi_def_cfa_offset 4
 708 01b9 C20400   		ret	$4
 709 01bc 8D742600 		.p2align 4,,7
 710              	L76:
 711              		.cfi_restore_state
 712 01c0 E8000000 		call	__ZN12TriggerState25getTotalRevolutionCounterEv
 712      00
 713 01c5 89D9     		movl	%ebx, %ecx
 714 01c7 89C7     		movl	%eax, %edi
 715 01c9 E8000000 		call	__ZN12TriggerState15getCurrentIndexEv
 715      00
 716 01ce 31D2     		xorl	%edx, %edx
GAS LISTING /cygdrive/c/Users/pc/AppData/Local/Temp/cccQFhNN.s 			page 18


 717 01d0 83E701   		andl	$1, %edi
 718 01d3 750C     		jne	L78
 719 01d5 8B150000 		movl	_engine, %edx
 719      0000
 720 01db 8B92F016 		movl	5872(%edx), %edx
 720      0000
 721              	L78:
 722 01e1 8D2C10   		leal	(%eax,%edx), %ebp
 723 01e4 E906FFFF 		jmp	L77
 723      FF
 724 01e9 8DB42600 		.p2align 4,,7
 724      000000
 725              	L96:
 726 01f0 C70424A2 		movl	$LC13, (%esp)
 726      010000
 727 01f7 E8000000 		call	_firmwareError
 727      00
 728 01fc 83C42C   		addl	$44, %esp
 729              		.cfi_remember_state
 730              		.cfi_def_cfa_offset 20
 731 01ff 5B       		popl	%ebx
 732              		.cfi_restore 3
 733              		.cfi_def_cfa_offset 16
 734 0200 5E       		popl	%esi
 735              		.cfi_restore 6
 736              		.cfi_def_cfa_offset 12
 737 0201 5F       		popl	%edi
 738              		.cfi_restore 7
 739              		.cfi_def_cfa_offset 8
 740 0202 5D       		popl	%ebp
 741              		.cfi_restore 5
 742              		.cfi_def_cfa_offset 4
 743 0203 C20400   		ret	$4
 744              		.p2align 4,,7
 745              	L100:
 746              		.cfi_restore_state
 747 0206 81FF00E1 		cmpl	$100000000, %edi
 747      F505
 748 020c 0F8698FE 		jbe	L73
 748      FFFF
 749 0212 E98FFEFF 		jmp	L91
 749      FF
 750              		.p2align 4,,7
 751              	L98:
 752 0217 C70424C4 		movl	$LC15, (%esp)
 752      010000
 753 021e E8000000 		call	_firmwareError
 753      00
 754 0223 E974FFFF 		jmp	L67
 754      FF
 755              	L79:
 756 0228 8B3CB500 		movl	__ZL7eventId(,%esi,4), %edi
 756      000000
 757 022f B9000000 		movl	$_waveChart, %ecx
 757      00
 758 0234 C7442404 		movl	$__ZL22shaft_signal_msg_index, 4(%esp)
 758      00000000 
GAS LISTING /cygdrive/c/Users/pc/AppData/Local/Temp/cccQFhNN.s 			page 19


 759 023c C6050000 		movb	$117, __ZL22shaft_signal_msg_index
 759      000075
 760 0243 893C24   		movl	%edi, (%esp)
 761 0246 E8000000 		call	__ZN9WaveChart18addWaveChartEvent3EPKcS1_
 761      00
 762              		.cfi_def_cfa_offset 56
 763 024b 8B150000 		movl	_engineConfiguration, %edx
 763      0000
 764 0251 B8640000 		movl	$100, %eax
 764      00
 765 0256 51       		pushl	%ecx
 766              		.cfi_def_cfa_offset 60
 767 0257 51       		pushl	%ecx
 768              		.cfi_def_cfa_offset 64
 769 0258 F682E505 		testb	$64, 1509(%edx)
 769      000040
 770 025f 0F85E0FE 		jne	L85
 770      FFFF
 771 0265 E9F8FEFF 		jmp	L86
 771      FF
 772 026a 8DB60000 		.p2align 4,,7
 772      0000
 773              	L81:
 774 0270 89442408 		movl	%eax, 8(%esp)
 775 0274 C7442404 		movl	$LC17, 4(%esp)
 775      E5010000 
 776 027c C704245E 		movl	$606, (%esp)
 776      020000
 777 0283 E8000000 		call	_warning
 777      00
 778 0288 E90FFFFF 		jmp	L67
 778      FF
 779              	L97:
 780 028d C70424B0 		movl	$LC14, (%esp)
 780      010000
 781 0294 E8000000 		call	_firmwareError
 781      00
 782 0299 E9FEFEFF 		jmp	L67
 782      FF
 783              		.cfi_endproc
 784              	LFE96:
 785 029e 9090     		.section .rdata,"dr"
 786              	LC18:
 787 01fe 6C6F7773 		.ascii "lowstck#8\0"
 787      74636B23 
 787      3800
 788              		.section	.text$_Z19hwHandleShaftSignal15trigger_event_e,"x"
 789              		.p2align 4,,15
 790              		.globl	__Z19hwHandleShaftSignal15trigger_event_e
 791              		.def	__Z19hwHandleShaftSignal15trigger_event_e;	.scl	2;	.type	32;	.endef
 792              	__Z19hwHandleShaftSignal15trigger_event_e:
 793              	LFB89:
 794              		.cfi_startproc
 795 0000 53       		pushl	%ebx
 796              		.cfi_def_cfa_offset 8
 797              		.cfi_offset 3, -8
 798 0001 83EC18   		subl	$24, %esp
GAS LISTING /cygdrive/c/Users/pc/AppData/Local/Temp/cccQFhNN.s 			page 20


 799              		.cfi_def_cfa_offset 32
 800 0004 A1000000 		movl	_triggerReentraint, %eax
 800      00
 801 0009 3B050000 		cmpl	_maxTriggerReentraint, %eax
 801      0000
 802 000f 8B5C2420 		movl	32(%esp), %ebx
 803 0013 C7050000 		movl	$0, _triggerHanlderEntryTime
 803      00000000 
 803      0000
 804 001d C6050000 		movb	$1, _isInsideTriggerHandler
 804      000001
 805 0024 7E05     		jle	L102
 806 0026 A3000000 		movl	%eax, _maxTriggerReentraint
 806      00
 807              	L102:
 808 002b 83C001   		addl	$1, %eax
 809 002e A3000000 		movl	%eax, _triggerReentraint
 809      00
 810 0033 A1180000 		movl	_rlist+24, %eax
 810      00
 811 0038 890424   		movl	%eax, (%esp)
 812 003b E8000000 		call	_getRemainingStack
 812      00
 813 0040 83C080   		addl	$-128, %eax
 814 0043 7E3C     		jle	L106
 815 0045 891C24   		movl	%ebx, (%esp)
 816 0048 B9000000 		movl	$_triggerCentral, %ecx
 816      00
 817 004d E8000000 		call	__ZN14TriggerCentral17handleShaftSignalE15trigger_event_e
 817      00
 818              		.cfi_def_cfa_offset 28
 819 0052 A1000000 		movl	_triggerHanlderEntryTime, %eax
 819      00
 820 0057 832D0000 		subl	$1, _triggerReentraint
 820      000001
 821 005e C6050000 		movb	$0, _isInsideTriggerHandler
 821      000000
 822 0065 F7D8     		negl	%eax
 823 0067 A3000000 		movl	%eax, _triggerDuration
 823      00
 824 006c 83EC04   		subl	$4, %esp
 825              		.cfi_def_cfa_offset 32
 826 006f 3B050000 		cmpl	_triggerMaxDuration, %eax
 826      0000
 827 0075 7605     		jbe	L101
 828 0077 A3000000 		movl	%eax, _triggerMaxDuration
 828      00
 829              	L101:
 830 007c 83C418   		addl	$24, %esp
 831              		.cfi_remember_state
 832              		.cfi_def_cfa_offset 8
 833 007f 5B       		popl	%ebx
 834              		.cfi_restore 3
 835              		.cfi_def_cfa_offset 4
 836 0080 C3       		ret
 837              		.p2align 4,,7
 838              	L106:
GAS LISTING /cygdrive/c/Users/pc/AppData/Local/Temp/cccQFhNN.s 			page 21


 839              		.cfi_restore_state
 840 0081 C7442420 		movl	$LC18, 32(%esp)
 840      FE010000 
 841 0089 83C418   		addl	$24, %esp
 842              		.cfi_def_cfa_offset 8
 843 008c 5B       		popl	%ebx
 844              		.cfi_restore 3
 845              		.cfi_def_cfa_offset 4
 846 008d E9000000 		jmp	_firmwareError
 846      00
 847              		.cfi_endproc
 848              	LFE89:
 849 0092 90909090 		.section	.text$_Z26printAllCallbacksHistogramv,"x"
 849      90909090 
 849      90909090 
 849      9090
 850              		.p2align 4,,15
 851              		.globl	__Z26printAllCallbacksHistogramv
 852              		.def	__Z26printAllCallbacksHistogramv;	.scl	2;	.type	32;	.endef
 853              	__Z26printAllCallbacksHistogramv:
 854              	LFB97:
 855              		.cfi_startproc
 856 0000 F3       		rep
 857 0001 C3       		ret
 858              		.cfi_endproc
 859              	LFE97:
 860 0002 90909090 		.section	.text$_Z19getTriggerDutyCyclei,"x"
 860      90909090 
 860      90909090 
 860      9090
 861              		.p2align 4,,15
 862              		.globl	__Z19getTriggerDutyCyclei
 863              		.def	__Z19getTriggerDutyCyclei;	.scl	2;	.type	32;	.endef
 864              	__Z19getTriggerDutyCyclei:
 865              	LFB100:
 866              		.cfi_startproc
 867 0000 83EC1C   		subl	$28, %esp
 868              		.cfi_def_cfa_offset 32
 869 0003 B9000000 		movl	$_triggerCentral, %ecx
 869      00
 870 0008 8B442420 		movl	32(%esp), %eax
 871 000c 890424   		movl	%eax, (%esp)
 872 000f E8000000 		call	__ZN12TriggerState19getTriggerDutyCycleEi
 872      00
 873              		.cfi_def_cfa_offset 28
 874 0014 83EC04   		subl	$4, %esp
 875              		.cfi_def_cfa_offset 32
 876 0017 83C41C   		addl	$28, %esp
 877              		.cfi_def_cfa_offset 4
 878 001a C3       		ret
 879              		.cfi_endproc
 880              	LFE100:
 881 001b 90909090 		.section .rdata,"dr"
 881      90
 882              	LC19:
 883 0208 74726967 		.ascii "triggerinfo\0"
 883      67657269 
GAS LISTING /cygdrive/c/Users/pc/AppData/Local/Temp/cccQFhNN.s 			page 22


 883      6E666F00 
 884              	LC20:
 885 0214 74726967 		.ascii "trigger_shape_info\0"
 885      6765725F 
 885      73686170 
 885      655F696E 
 885      666F00
 886              	LC21:
 887 0227 72657365 		.ascii "reset_trigger\0"
 887      745F7472 
 887      69676765 
 887      7200
 888              	LC22:
 889 0235 616C6C20 		.ascii "all callbacks\0"
 889      63616C6C 
 889      6261636B 
 889      7300
 890              		.section	.text$_Z18initTriggerCentralP7LoggingP6Engine,"x"
 891              		.p2align 4,,15
 892              		.globl	__Z18initTriggerCentralP7LoggingP6Engine
 893              		.def	__Z18initTriggerCentralP7LoggingP6Engine;	.scl	2;	.type	32;	.endef
 894              	__Z18initTriggerCentralP7LoggingP6Engine:
 895              	LFB102:
 896              		.cfi_startproc
 897 0000 83EC1C   		subl	$28, %esp
 898              		.cfi_def_cfa_offset 32
 899 0003 8B442420 		movl	32(%esp), %eax
 900 0007 C7042400 		movl	$_waveChart, (%esp)
 900      000000
 901 000e 66C70500 		movw	$24440, __ZL22shaft_signal_msg_index
 901      00000078 
 901      5F
 902 0017 C6050200 		movb	$0, __ZL22shaft_signal_msg_index+2
 902      000000
 903 001e A3000000 		movl	%eax, __ZL6logger
 903      00
 904 0023 E8000000 		call	__Z13initWaveChartP9WaveChart
 904      00
 905 0028 C7442404 		movl	$__Z11triggerInfov, 4(%esp)
 905      00000000 
 906 0030 C7042408 		movl	$LC19, (%esp)
 906      020000
 907 0037 E8000000 		call	_addConsoleAction
 907      00
 908 003c C7442404 		movl	$__ZL16triggerShapeInfov, 4(%esp)
 908      00000000 
 909 0044 C7042414 		movl	$LC20, (%esp)
 909      020000
 910 004b E8000000 		call	_addConsoleAction
 910      00
 911 0050 C7442404 		movl	$__ZL27resetRunningTriggerCountersv, 4(%esp)
 911      00000000 
 912 0058 C7042427 		movl	$LC21, (%esp)
 912      020000
 913 005f E8000000 		call	_addConsoleAction
 913      00
 914 0064 C7442424 		movl	$LC22, 36(%esp)
GAS LISTING /cygdrive/c/Users/pc/AppData/Local/Temp/cccQFhNN.s 			page 23


 914      35020000 
 915 006c C7442420 		movl	$__ZL15triggerCallback, 32(%esp)
 915      00000000 
 916 0074 83C41C   		addl	$28, %esp
 917              		.cfi_def_cfa_offset 4
 918 0077 E9000000 		jmp	_initHistogram
 918      00
 919              		.cfi_endproc
 920              	LFE102:
 921 007c 90909090 		.section	.text.startup._GLOBAL__sub_I_waveChart,"x"
 922              		.p2align 4,,15
 923              		.def	__GLOBAL__sub_I_waveChart;	.scl	3;	.type	32;	.endef
 924              	__GLOBAL__sub_I_waveChart:
 925              	LFB104:
 926              		.cfi_startproc
 927 0000 83EC0C   		subl	$12, %esp
 928              		.cfi_def_cfa_offset 16
 929 0003 B9000000 		movl	$_waveChart, %ecx
 929      00
 930 0008 E8000000 		call	__ZN9WaveChartC1Ev
 930      00
 931 000d B9000000 		movl	$_triggerCentral, %ecx
 931      00
 932 0012 83C40C   		addl	$12, %esp
 933              		.cfi_def_cfa_offset 4
 934 0015 E9000000 		jmp	__ZN14TriggerCentralC1Ev
 934      00
 935              		.cfi_endproc
 936              	LFE104:
 937 001a 90909090 		.section	.ctors,"w"
 937      9090
 938              		.align 4
 939 0000 00000000 		.long	__GLOBAL__sub_I_waveChart
 940              		.globl	_triggerMaxDuration
 941              		.section	.data$triggerMaxDuration,"w"
 942              		.align 4
 943              	_triggerMaxDuration:
 944 0000 00000000 		.space 4
 945              		.globl	_triggerDuration
 946              		.section	.data$triggerDuration,"w"
 947              		.align 4
 948              	_triggerDuration:
 949 0000 00000000 		.space 4
 950              		.globl	_maxTriggerReentraint
 951              		.section	.data$maxTriggerReentraint,"w"
 952              		.align 4
 953              	_maxTriggerReentraint:
 954 0000 00000000 		.space 4
 955              		.globl	_triggerReentraint
 956              		.section	.data$triggerReentraint,"w"
 957              		.align 4
 958              	_triggerReentraint:
 959 0000 00000000 		.space 4
 960              		.globl	_triggerHanlderEntryTime
 961              		.section	.data$triggerHanlderEntryTime,"w"
 962              		.align 4
 963              	_triggerHanlderEntryTime:
GAS LISTING /cygdrive/c/Users/pc/AppData/Local/Temp/cccQFhNN.s 			page 24


 964 0000 00000000 		.space 4
 965              		.globl	_triggerCentral
 966              		.section	.data$triggerCentral,"w"
 967              		.align 32
 968              	_triggerCentral:
 969 0000 00000000 		.space 344
 969      00000000 
 969      00000000 
 969      00000000 
 969      00000000 
 970 0158 00000000 		.section	.data$_ZL24previousShaftEventTimeNt,"w"
 970      00000000 
 971              		.align 8
 972              	__ZL24previousShaftEventTimeNt:
 973 0000 003665C4 		.long	-1000000000
 974 0004 FFE0F505 		.long	99999999
 975              		.globl	_waveChart
 976              		.section	.data$waveChart,"w"
 977              		.align 32
 978              	_waveChart:
 979 0000 00000000 		.space 80
 979      00000000 
 979      00000000 
 979      00000000 
 979      00000000 
 980 0050 00000000 		.section	.data$_ZL22shaft_signal_msg_index,"w"
 980      00000000 
 980      00000000 
 980      00000000 
 981              	__ZL22shaft_signal_msg_index:
 982 0000 00000000 		.space 15
 982      00000000 
 982      00000000 
 982      000000
 983 000f 00       		.section	.rdata$_ZL9isUpEvent,"dr"
 984              	__ZL9isUpEvent:
 985 0000 00       		.byte	0
 986 0001 01       		.byte	1
 987 0002 00       		.byte	0
 988 0003 01       		.byte	1
 989 0004 00       		.byte	0
 990 0005 01       		.byte	1
 991 0006 0000     		.section .rdata,"dr"
 992              	LC23:
 993 0243 743100   		.ascii "t1\0"
 994              	LC24:
 995 0246 743200   		.ascii "t2\0"
 996              	LC25:
 997 0249 743300   		.ascii "t3\0"
 998              		.section	.rdata$_ZL7eventId,"dr"
 999              		.align 4
 1000              	__ZL7eventId:
 1001 0000 43020000 		.long	LC23
 1002 0004 43020000 		.long	LC23
 1003 0008 46020000 		.long	LC24
 1004 000c 46020000 		.long	LC24
 1005 0010 49020000 		.long	LC25
GAS LISTING /cygdrive/c/Users/pc/AppData/Local/Temp/cccQFhNN.s 			page 25


 1006 0014 49020000 		.long	LC25
 1007              		.section	.data$_ZL6logger,"w"
 1008              		.align 4
 1009              	__ZL6logger:
 1010 0000 00000000 		.space 4
 1011              		.section	.data$_ZL15triggerCallback,"w"
 1012              		.align 32
 1013              	__ZL15triggerCallback:
 1014 0000 00000000 		.space 3616
 1014      00000000 
 1014      00000000 
 1014      00000000 
 1014      00000000 
 1015              		.def	__Z12boolToStringb;	.scl	2;	.type	32;	.endef
 1016              		.def	__Z11scheduleMsgP7LoggingPKcz;	.scl	2;	.type	32;	.endef
 1017              		.def	__ZNK12TriggerShape7getSizeEv;	.scl	2;	.type	32;	.endef
 1018              		.def	__Z17getTrigger_type_e14trigger_type_e;	.scl	2;	.type	32;	.endef
 1019              		.def	__Z20getConfigurationName13engine_type_e;	.scl	2;	.type	32;	.endef
 1020              		.def	__ZN12TriggerState25getTotalRevolutionCounterEv;	.scl	2;	.type	32;	.endef
 1021              		.def	__Z21isTriggerDecoderErrorv;	.scl	2;	.type	32;	.endef
 1022              		.def	__ZN12TriggerState20getTotalEventCounterEv;	.scl	2;	.type	32;	.endef
 1023              		.def	__ZN12TriggerState25getStartOfRevolutionIndexEv;	.scl	2;	.type	32;	.endef
 1024              		.def	__Z5printPKcz;	.scl	2;	.type	32;	.endef
 1025              		.def	__ZN16IntListenerArray16registerCallbackEPFviEPv;	.scl	2;	.type	32;	.endef
 1026              		.def	__ZN12TriggerStateC1Ev;	.scl	2;	.type	32;	.endef
 1027              		.def	__ZN16IntListenerArrayC1Ev;	.scl	2;	.type	32;	.endef
 1028              		.def	__Z14clearCallbacksP16IntListenerArray;	.scl	2;	.type	32;	.endef
 1029              		.def	__ZN12TriggerState20resetRunningCountersEv;	.scl	2;	.type	32;	.endef
 1030              		.def	_getTimeNowNt;	.scl	2;	.type	32;	.endef
 1031              		.def	__ZN6Engine14onTriggerEventEx;	.scl	2;	.type	32;	.endef
 1032              		.def	__ZN12TriggerState18decodeTriggerEventE15trigger_event_ex;	.scl	2;	.type	32;	.endef
 1033              		.def	__ZN12TriggerState15getCurrentIndexEv;	.scl	2;	.type	32;	.endef
 1034              		.def	_itoa10;	.scl	2;	.type	32;	.endef
 1035              		.def	__ZN9WaveChart18addWaveChartEvent3EPKcS1_;	.scl	2;	.type	32;	.endef
 1036              		.def	_firmwareError;	.scl	2;	.type	32;	.endef
 1037              		.def	_warning;	.scl	2;	.type	32;	.endef
 1038              		.def	_getRemainingStack;	.scl	2;	.type	32;	.endef
 1039              		.def	__ZN12TriggerState19getTriggerDutyCycleEi;	.scl	2;	.type	32;	.endef
 1040              		.def	__Z13initWaveChartP9WaveChart;	.scl	2;	.type	32;	.endef
 1041              		.def	_addConsoleAction;	.scl	2;	.type	32;	.endef
 1042              		.def	_initHistogram;	.scl	2;	.type	32;	.endef
 1043              		.def	__ZN9WaveChartC1Ev;	.scl	2;	.type	32;	.endef
GAS LISTING /cygdrive/c/Users/pc/AppData/Local/Temp/cccQFhNN.s 			page 26


DEFINED SYMBOLS
                            *ABS*:00000000 trigger_central.cpp
/cygdrive/c/Users/pc/AppData/Local/Temp/cccQFhNN.s:12     .text$_ZL16triggerShapeInfov:00000000 __ZL16triggerShapeInfov
/cygdrive/c/Users/pc/AppData/Local/Temp/cccQFhNN.s:1009   .data$_ZL6logger:00000000 __ZL6logger
/cygdrive/c/Users/pc/AppData/Local/Temp/cccQFhNN.s:96     .text$_Z11triggerInfov:00000000 __Z11triggerInfov
/cygdrive/c/Users/pc/AppData/Local/Temp/cccQFhNN.s:968    .data$triggerCentral:00000000 _triggerCentral
/cygdrive/c/Users/pc/AppData/Local/Temp/cccQFhNN.s:285    .text$_Z20getCrankEventCounterv:00000000 __Z20getCrankEventCounterv
/cygdrive/c/Users/pc/AppData/Local/Temp/cccQFhNN.s:296    .text$_Z25getStartOfRevolutionIndexv:00000000 __Z25getStartOfRevolutionIndexv
/cygdrive/c/Users/pc/AppData/Local/Temp/cccQFhNN.s:311    .text$_ZN14TriggerCentral16addEventListenerEPFv15trigger_event_ejEPKcP6Engine:00000000 __ZN14TriggerCentral16addEventListenerEPFv15trigger_event_ejEPKcP6Engine
/cygdrive/c/Users/pc/AppData/Local/Temp/cccQFhNN.s:345    .text$_Z23addTriggerEventListenerPFv15trigger_event_ejEPKcP6Engine:00000000 __Z23addTriggerEventListenerPFv15trigger_event_ejEPKcP6Engine
/cygdrive/c/Users/pc/AppData/Local/Temp/cccQFhNN.s:371    .text$_ZN14TriggerCentralC2Ev:00000000 __ZN14TriggerCentralC2Ev
/cygdrive/c/Users/pc/AppData/Local/Temp/cccQFhNN.s:371    .text$_ZN14TriggerCentralC2Ev:00000000 __ZN14TriggerCentralC1Ev
/cygdrive/c/Users/pc/AppData/Local/Temp/cccQFhNN.s:450    .text$_ZN14TriggerCentral17getHwEventCounterEi:00000000 __ZN14TriggerCentral17getHwEventCounterEi
/cygdrive/c/Users/pc/AppData/Local/Temp/cccQFhNN.s:463    .text$_ZN14TriggerCentral13resetCountersEv:00000000 __ZN14TriggerCentral13resetCountersEv
/cygdrive/c/Users/pc/AppData/Local/Temp/cccQFhNN.s:524    .text$_ZL27resetRunningTriggerCountersv:00000000 __ZL27resetRunningTriggerCountersv
/cygdrive/c/Users/pc/AppData/Local/Temp/cccQFhNN.s:547    .text$_ZN14TriggerCentral17handleShaftSignalE15trigger_event_e:00000000 __ZN14TriggerCentral17handleShaftSignalE15trigger_event_e
/cygdrive/c/Users/pc/AppData/Local/Temp/cccQFhNN.s:972    .data$_ZL24previousShaftEventTimeNt:00000000 __ZL24previousShaftEventTimeNt
/cygdrive/c/Users/pc/AppData/Local/Temp/cccQFhNN.s:981    .data$_ZL22shaft_signal_msg_index:00000000 __ZL22shaft_signal_msg_index
/cygdrive/c/Users/pc/AppData/Local/Temp/cccQFhNN.s:984    .rdata$_ZL9isUpEvent:00000000 __ZL9isUpEvent
/cygdrive/c/Users/pc/AppData/Local/Temp/cccQFhNN.s:1000   .rdata$_ZL7eventId:00000000 __ZL7eventId
/cygdrive/c/Users/pc/AppData/Local/Temp/cccQFhNN.s:978    .data$waveChart:00000000 _waveChart
/cygdrive/c/Users/pc/AppData/Local/Temp/cccQFhNN.s:792    .text$_Z19hwHandleShaftSignal15trigger_event_e:00000000 __Z19hwHandleShaftSignal15trigger_event_e
/cygdrive/c/Users/pc/AppData/Local/Temp/cccQFhNN.s:958    .data$triggerReentraint:00000000 _triggerReentraint
/cygdrive/c/Users/pc/AppData/Local/Temp/cccQFhNN.s:953    .data$maxTriggerReentraint:00000000 _maxTriggerReentraint
/cygdrive/c/Users/pc/AppData/Local/Temp/cccQFhNN.s:963    .data$triggerHanlderEntryTime:00000000 _triggerHanlderEntryTime
/cygdrive/c/Users/pc/AppData/Local/Temp/cccQFhNN.s:948    .data$triggerDuration:00000000 _triggerDuration
/cygdrive/c/Users/pc/AppData/Local/Temp/cccQFhNN.s:943    .data$triggerMaxDuration:00000000 _triggerMaxDuration
/cygdrive/c/Users/pc/AppData/Local/Temp/cccQFhNN.s:853    .text$_Z26printAllCallbacksHistogramv:00000000 __Z26printAllCallbacksHistogramv
/cygdrive/c/Users/pc/AppData/Local/Temp/cccQFhNN.s:864    .text$_Z19getTriggerDutyCyclei:00000000 __Z19getTriggerDutyCyclei
/cygdrive/c/Users/pc/AppData/Local/Temp/cccQFhNN.s:894    .text$_Z18initTriggerCentralP7LoggingP6Engine:00000000 __Z18initTriggerCentralP7LoggingP6Engine
/cygdrive/c/Users/pc/AppData/Local/Temp/cccQFhNN.s:1013   .data$_ZL15triggerCallback:00000000 __ZL15triggerCallback
/cygdrive/c/Users/pc/AppData/Local/Temp/cccQFhNN.s:924    .text.startup._GLOBAL__sub_I_waveChart:00000000 __GLOBAL__sub_I_waveChart

UNDEFINED SYMBOLS
_engine
_engineConfiguration
_isInsideTriggerHandler
_rlist
__Z12boolToStringb
__Z11scheduleMsgP7LoggingPKcz
__ZNK12TriggerShape7getSizeEv
__Z17getTrigger_type_e14trigger_type_e
__Z20getConfigurationName13engine_type_e
__ZN12TriggerState25getTotalRevolutionCounterEv
__Z21isTriggerDecoderErrorv
__ZN12TriggerState20getTotalEventCounterEv
__ZN12TriggerState25getStartOfRevolutionIndexEv
__Z5printPKcz
__ZN16IntListenerArray16registerCallbackEPFviEPv
__ZN12TriggerStateC1Ev
__ZN16IntListenerArrayC1Ev
__Z14clearCallbacksP16IntListenerArray
__ZN12TriggerState20resetRunningCountersEv
_getTimeNowNt
__ZN6Engine14onTriggerEventEx
__ZN12TriggerState18decodeTriggerEventE15trigger_event_ex
__ZN12TriggerState15getCurrentIndexEv
GAS LISTING /cygdrive/c/Users/pc/AppData/Local/Temp/cccQFhNN.s 			page 27


_itoa10
__ZN9WaveChart18addWaveChartEvent3EPKcS1_
_firmwareError
_warning
_getRemainingStack
__ZN12TriggerState19getTriggerDutyCycleEi
__Z13initWaveChartP9WaveChart
_addConsoleAction
_initHistogram
__ZN9WaveChartC1Ev
