GAS LISTING /cygdrive/c/Users/pc/AppData/Local/Temp/ccBqlaoq.s 			page 1


   1              		.file	"trigger_bmw.cpp"
   2              		.section .rdata,"dr"
   3              	LC7:
   4 0000 73686170 		.ascii "shape constraint\0"
   4      6520636F 
   4      6E737472 
   4      61696E74 
   4      00
   5              		.section	.text$_Z31configureMiniCooperTriggerShapeP12TriggerShape,"x"
   6              		.p2align 4,,15
   7              		.globl	__Z31configureMiniCooperTriggerShapeP12TriggerShape
   8              		.def	__Z31configureMiniCooperTriggerShapeP12TriggerShape;	.scl	2;	.type	32;	.endef
   9              	__Z31configureMiniCooperTriggerShapeP12TriggerShape:
  10              	LFB86:
  11              		.cfi_startproc
  12 0000 56       		pushl	%esi
  13              		.cfi_def_cfa_offset 8
  14              		.cfi_offset 6, -8
  15 0001 BE170000 		movl	$23, %esi
  15      00
  16 0006 53       		pushl	%ebx
  17              		.cfi_def_cfa_offset 12
  18              		.cfi_offset 3, -12
  19 0007 83EC34   		subl	$52, %esp
  20              		.cfi_def_cfa_offset 64
  21 000a 8B5C2440 		movl	64(%esp), %ebx
  22 000e C7442404 		movl	$1, 4(%esp)
  22      01000000 
  23 0016 C7042402 		movl	$2, (%esp)
  23      000000
  24 001d 89D9     		movl	%ebx, %ecx
  25 001f E8000000 		call	__ZN12TriggerShape5resetE16operation_mode_eb
  25      00
  26              		.cfi_def_cfa_offset 56
  27 0024 89D9     		movl	%ebx, %ecx
  28 0026 83EC08   		subl	$8, %esp
  29              		.cfi_def_cfa_offset 64
  30 0029 C7442408 		movl	$0, 8(%esp)
  30      00000000 
  31 0031 C7442404 		movl	$1, 4(%esp)
  31      01000000 
  32 0039 C70424C9 		movl	$0x3fbe69c9, (%esp)
  32      69BE3F
  33 0040 E8000000 		call	__ZN12TriggerShape8addEventEf15trigger_wheel_e15trigger_value_e
  33      00
  34              		.cfi_def_cfa_offset 52
  35 0045 83EC0C   		subl	$12, %esp
  36              		.cfi_def_cfa_offset 64
  37 0048 D9051400 		flds	LC0
  37      0000
  38 004e 6690     		.p2align 4,,7
  39              	L2:
  40 0050 D91424   		fsts	(%esp)
  41 0053 89D9     		movl	%ebx, %ecx
  42 0055 C7442408 		movl	$1, 8(%esp)
  42      01000000 
  43 005d D95C2410 		fstps	16(%esp)
GAS LISTING /cygdrive/c/Users/pc/AppData/Local/Temp/ccBqlaoq.s 			page 2


  44 0061 C7442404 		movl	$1, 4(%esp)
  44      01000000 
  45 0069 E8000000 		call	__ZN12TriggerShape8addEventEf15trigger_wheel_e15trigger_value_e
  45      00
  46              		.cfi_def_cfa_offset 52
  47 006e 89D9     		movl	%ebx, %ecx
  48 0070 83EC0C   		subl	$12, %esp
  49              		.cfi_def_cfa_offset 64
  50 0073 D9442410 		flds	16(%esp)
  51 0077 D8051800 		fadds	LC2
  51      0000
  52 007d C7442408 		movl	$0, 8(%esp)
  52      00000000 
  53 0085 C7442404 		movl	$1, 4(%esp)
  53      01000000 
  54 008d D91424   		fsts	(%esp)
  55 0090 D95C2410 		fstps	16(%esp)
  56 0094 E8000000 		call	__ZN12TriggerShape8addEventEf15trigger_wheel_e15trigger_value_e
  56      00
  57              		.cfi_def_cfa_offset 52
  58 0099 83EC0C   		subl	$12, %esp
  59              		.cfi_def_cfa_offset 64
  60 009c 83EE01   		subl	$1, %esi
  61 009f D9442410 		flds	16(%esp)
  62 00a3 D8051800 		fadds	LC2
  62      0000
  63 00a9 75A5     		jne	L2
  64 00ab D9051C00 		flds	LC3
  64      0000
  65 00b1 89D9     		movl	%ebx, %ecx
  66 00b3 BE240000 		movl	$36, %esi
  66      00
  67 00b8 DCC1     		fadd	%st, %st(1)
  68 00ba D9C9     		fxch	%st(1)
  69 00bc C7442408 		movl	$1, 8(%esp)
  69      01000000 
  70 00c4 C7442404 		movl	$1, 4(%esp)
  70      01000000 
  71 00cc D954242C 		fsts	44(%esp)
  72 00d0 D91C24   		fstps	(%esp)
  73 00d3 D95C2420 		fstps	32(%esp)
  74 00d7 E8000000 		call	__ZN12TriggerShape8addEventEf15trigger_wheel_e15trigger_value_e
  74      00
  75              		.cfi_def_cfa_offset 52
  76 00dc 89D9     		movl	%ebx, %ecx
  77 00de 83EC0C   		subl	$12, %esp
  78              		.cfi_def_cfa_offset 64
  79 00e1 D9442420 		flds	32(%esp)
  80 00e5 D844242C 		fadds	44(%esp)
  81 00e9 C7442408 		movl	$0, 8(%esp)
  81      00000000 
  82 00f1 C7442404 		movl	$1, 4(%esp)
  82      01000000 
  83 00f9 D91424   		fsts	(%esp)
  84 00fc D95C2420 		fstps	32(%esp)
  85 0100 E8000000 		call	__ZN12TriggerShape8addEventEf15trigger_wheel_e15trigger_value_e
  85      00
GAS LISTING /cygdrive/c/Users/pc/AppData/Local/Temp/ccBqlaoq.s 			page 3


  86              		.cfi_def_cfa_offset 52
  87 0105 83EC0C   		subl	$12, %esp
  88              		.cfi_def_cfa_offset 64
  89 0108 D9051800 		flds	LC2
  89      0000
  90 010e D9442420 		flds	32(%esp)
  91 0112 DEC1     		faddp	%st, %st(1)
  92              		.p2align 4,,7
  93              	L3:
  94 0114 D91424   		fsts	(%esp)
  95 0117 89D9     		movl	%ebx, %ecx
  96 0119 C7442408 		movl	$1, 8(%esp)
  96      01000000 
  97 0121 D95C2410 		fstps	16(%esp)
  98 0125 C7442404 		movl	$1, 4(%esp)
  98      01000000 
  99 012d E8000000 		call	__ZN12TriggerShape8addEventEf15trigger_wheel_e15trigger_value_e
  99      00
 100              		.cfi_def_cfa_offset 52
 101 0132 89D9     		movl	%ebx, %ecx
 102 0134 83EC0C   		subl	$12, %esp
 103              		.cfi_def_cfa_offset 64
 104 0137 D9051800 		flds	LC2
 104      0000
 105 013d D9442410 		flds	16(%esp)
 106 0141 D8C1     		fadd	%st(1), %st
 107 0143 C7442408 		movl	$0, 8(%esp)
 107      00000000 
 108 014b C7442404 		movl	$1, 4(%esp)
 108      01000000 
 109 0153 D91424   		fsts	(%esp)
 110 0156 D95C2410 		fstps	16(%esp)
 111 015a D95C2420 		fstps	32(%esp)
 112 015e E8000000 		call	__ZN12TriggerShape8addEventEf15trigger_wheel_e15trigger_value_e
 112      00
 113              		.cfi_def_cfa_offset 52
 114 0163 83EC0C   		subl	$12, %esp
 115              		.cfi_def_cfa_offset 64
 116 0166 83EE01   		subl	$1, %esi
 117 0169 D9442410 		flds	16(%esp)
 118 016d D9442420 		flds	32(%esp)
 119 0171 DEC1     		faddp	%st, %st(1)
 120 0173 759F     		jne	L3
 121 0175 C7442408 		movl	$1, 8(%esp)
 121      01000000 
 122 017d 89D9     		movl	%ebx, %ecx
 123 017f BE150000 		movl	$21, %esi
 123      00
 124 0184 C7442404 		movl	$0, 4(%esp)
 124      00000000 
 125 018c D95C2410 		fstps	16(%esp)
 126 0190 C7042400 		movl	$0x43bc0000, (%esp)
 126      00BC43
 127 0197 E8000000 		call	__ZN12TriggerShape8addEventEf15trigger_wheel_e15trigger_value_e
 127      00
 128              		.cfi_def_cfa_offset 52
 129 019c 83EC0C   		subl	$12, %esp
GAS LISTING /cygdrive/c/Users/pc/AppData/Local/Temp/ccBqlaoq.s 			page 4


 130              		.cfi_def_cfa_offset 64
 131 019f D9442410 		flds	16(%esp)
 132              		.p2align 4,,7
 133              	L4:
 134 01a3 D91424   		fsts	(%esp)
 135 01a6 89D9     		movl	%ebx, %ecx
 136 01a8 C7442408 		movl	$1, 8(%esp)
 136      01000000 
 137 01b0 D95C2410 		fstps	16(%esp)
 138 01b4 C7442404 		movl	$1, 4(%esp)
 138      01000000 
 139 01bc E8000000 		call	__ZN12TriggerShape8addEventEf15trigger_wheel_e15trigger_value_e
 139      00
 140              		.cfi_def_cfa_offset 52
 141 01c1 89D9     		movl	%ebx, %ecx
 142 01c3 83EC0C   		subl	$12, %esp
 143              		.cfi_def_cfa_offset 64
 144 01c6 D9442410 		flds	16(%esp)
 145 01ca D8051800 		fadds	LC2
 145      0000
 146 01d0 C7442408 		movl	$0, 8(%esp)
 146      00000000 
 147 01d8 C7442404 		movl	$1, 4(%esp)
 147      01000000 
 148 01e0 D91424   		fsts	(%esp)
 149 01e3 D95C2410 		fstps	16(%esp)
 150 01e7 E8000000 		call	__ZN12TriggerShape8addEventEf15trigger_wheel_e15trigger_value_e
 150      00
 151              		.cfi_def_cfa_offset 52
 152 01ec 83EC0C   		subl	$12, %esp
 153              		.cfi_def_cfa_offset 64
 154 01ef 83EE01   		subl	$1, %esi
 155 01f2 D9442410 		flds	16(%esp)
 156 01f6 D8051800 		fadds	LC2
 156      0000
 157 01fc 75A5     		jne	L4
 158 01fe D9051C00 		flds	LC3
 158      0000
 159 0204 DEC1     		faddp	%st, %st(1)
 160 0206 D944242C 		flds	44(%esp)
 161 020a D8052000 		fadds	LC5
 161      0000
 162 0210 D8E1     		fsub	%st(1), %st
 163 0212 D91C24   		fstps	(%esp)
 164 0215 D95C2420 		fstps	32(%esp)
 165 0219 E8000000 		call	_absF
 165      00
 166 021e DD052800 		fldl	LC6
 166      0000
 167 0224 DFE9     		fucomip	%st(1), %st
 168 0226 DDD8     		fstp	%st(0)
 169 0228 D9442420 		flds	32(%esp)
 170 022c 0F862E01 		jbe	L16
 170      0000
 171 0232 D91424   		fsts	(%esp)
 172 0235 89D9     		movl	%ebx, %ecx
 173 0237 C7442408 		movl	$1, 8(%esp)
GAS LISTING /cygdrive/c/Users/pc/AppData/Local/Temp/ccBqlaoq.s 			page 5


 173      01000000 
 174 023f D95C2420 		fstps	32(%esp)
 175 0243 BE210000 		movl	$33, %esi
 175      00
 176 0248 C7442404 		movl	$1, 4(%esp)
 176      01000000 
 177 0250 E8000000 		call	__ZN12TriggerShape8addEventEf15trigger_wheel_e15trigger_value_e
 177      00
 178              		.cfi_def_cfa_offset 52
 179 0255 89D9     		movl	%ebx, %ecx
 180 0257 83EC0C   		subl	$12, %esp
 181              		.cfi_def_cfa_offset 64
 182 025a D9051C00 		flds	LC3
 182      0000
 183 0260 D9442420 		flds	32(%esp)
 184 0264 DEC1     		faddp	%st, %st(1)
 185 0266 C7442408 		movl	$0, 8(%esp)
 185      00000000 
 186 026e C7442404 		movl	$1, 4(%esp)
 186      01000000 
 187 0276 D91424   		fsts	(%esp)
 188 0279 D95C2410 		fstps	16(%esp)
 189 027d E8000000 		call	__ZN12TriggerShape8addEventEf15trigger_wheel_e15trigger_value_e
 189      00
 190              		.cfi_def_cfa_offset 52
 191 0282 D9051800 		flds	LC2
 191      0000
 192 0288 83EC0C   		subl	$12, %esp
 193              		.cfi_def_cfa_offset 64
 194 028b D9442410 		flds	16(%esp)
 195 028f DEC1     		faddp	%st, %st(1)
 196              		.p2align 4,,7
 197              	L6:
 198 0291 D91424   		fsts	(%esp)
 199 0294 89D9     		movl	%ebx, %ecx
 200 0296 C7442408 		movl	$1, 8(%esp)
 200      01000000 
 201 029e D95C2420 		fstps	32(%esp)
 202 02a2 C7442404 		movl	$1, 4(%esp)
 202      01000000 
 203 02aa E8000000 		call	__ZN12TriggerShape8addEventEf15trigger_wheel_e15trigger_value_e
 203      00
 204              		.cfi_def_cfa_offset 52
 205 02af 89D9     		movl	%ebx, %ecx
 206 02b1 83EC0C   		subl	$12, %esp
 207              		.cfi_def_cfa_offset 64
 208 02b4 D9051800 		flds	LC2
 208      0000
 209 02ba D9442420 		flds	32(%esp)
 210 02be D8C1     		fadd	%st(1), %st
 211 02c0 C7442408 		movl	$0, 8(%esp)
 211      00000000 
 212 02c8 C7442404 		movl	$1, 4(%esp)
 212      01000000 
 213 02d0 D91424   		fsts	(%esp)
 214 02d3 D9C9     		fxch	%st(1)
 215 02d5 D95C2410 		fstps	16(%esp)
GAS LISTING /cygdrive/c/Users/pc/AppData/Local/Temp/ccBqlaoq.s 			page 6


 216 02d9 D95C2420 		fstps	32(%esp)
 217 02dd E8000000 		call	__ZN12TriggerShape8addEventEf15trigger_wheel_e15trigger_value_e
 217      00
 218              		.cfi_def_cfa_offset 52
 219 02e2 83EC0C   		subl	$12, %esp
 220              		.cfi_def_cfa_offset 64
 221 02e5 83EE01   		subl	$1, %esi
 222 02e8 D9442410 		flds	16(%esp)
 223 02ec D9442420 		flds	32(%esp)
 224 02f0 DEC1     		faddp	%st, %st(1)
 225 02f2 759D     		jne	L6
 226 02f4 D9053000 		flds	LC8
 226      0000
 227 02fa D8E1     		fsub	%st(1), %st
 228 02fc D91C24   		fstps	(%esp)
 229 02ff D95C2420 		fstps	32(%esp)
 230 0303 E8000000 		call	_absF
 230      00
 231 0308 DD052800 		fldl	LC6
 231      0000
 232 030e DFE9     		fucomip	%st(1), %st
 233 0310 DDD8     		fstp	%st(0)
 234 0312 D9442420 		flds	32(%esp)
 235 0316 764C     		jbe	L17
 236 0318 89D9     		movl	%ebx, %ecx
 237 031a D91C24   		fstps	(%esp)
 238 031d C7442408 		movl	$1, 8(%esp)
 238      01000000 
 239 0325 C7442404 		movl	$1, 4(%esp)
 239      01000000 
 240 032d E8000000 		call	__ZN12TriggerShape8addEventEf15trigger_wheel_e15trigger_value_e
 240      00
 241              		.cfi_def_cfa_offset 52
 242 0332 89D9     		movl	%ebx, %ecx
 243 0334 83EC0C   		subl	$12, %esp
 244              		.cfi_def_cfa_offset 64
 245 0337 C7442408 		movl	$0, 8(%esp)
 245      00000000 
 246 033f C7442404 		movl	$0, 4(%esp)
 246      00000000 
 247 0347 C7042400 		movl	$0x44340000, (%esp)
 247      003444
 248 034e E8000000 		call	__ZN12TriggerShape8addEventEf15trigger_wheel_e15trigger_value_e
 248      00
 249              		.cfi_def_cfa_offset 52
 250 0353 C60300   		movb	$0, (%ebx)
 251 0356 83EC0C   		subl	$12, %esp
 252              		.cfi_def_cfa_offset 64
 253 0359 83C434   		addl	$52, %esp
 254              		.cfi_remember_state
 255              		.cfi_def_cfa_offset 12
 256 035c 5B       		popl	%ebx
 257              		.cfi_restore 3
 258              		.cfi_def_cfa_offset 8
 259 035d 5E       		popl	%esi
 260              		.cfi_restore 6
 261              		.cfi_def_cfa_offset 4
GAS LISTING /cygdrive/c/Users/pc/AppData/Local/Temp/ccBqlaoq.s 			page 7


 262 035e C3       		ret
 263 035f 90       		.p2align 4,,7
 264              	L16:
 265              		.cfi_restore_state
 266 0360 DDD8     		fstp	%st(0)
 267 0362 EB02     		jmp	L7
 268              	L17:
 269 0364 DDD8     		fstp	%st(0)
 270              	L7:
 271 0366 C7442440 		movl	$LC7, 64(%esp)
 271      00000000 
 272 036e 83C434   		addl	$52, %esp
 273              		.cfi_def_cfa_offset 12
 274 0371 5B       		popl	%ebx
 275              		.cfi_restore 3
 276              		.cfi_def_cfa_offset 8
 277 0372 5E       		popl	%esi
 278              		.cfi_restore 6
 279              		.cfi_def_cfa_offset 4
 280 0373 E9000000 		jmp	_firmwareError
 280      00
 281              		.cfi_endproc
 282              	LFE86:
 283 0378 90909090 		.section .rdata,"dr"
 283      90909090 
 284 0011 000000   		.align 4
 285              	LC0:
 286 0014 57CF8E40 		.long	1083101015
 287              		.align 4
 288              	LC2:
 289 0018 C9693E40 		.long	1077832137
 290              		.align 4
 291              	LC3:
 292 001c 57CF0E41 		.long	1091489623
 293              		.align 4
 294              	LC5:
 295 0020 0000B443 		.long	1135869952
 296 0024 00000000 		.align 8
 297              	LC6:
 298 0028 9A999999 		.long	-1717986918
 299 002c 9999B93F 		.long	1069128089
 300              		.align 4
 301              	LC8:
 302 0030 CBA03344 		.long	1144234187
 303              		.def	__ZN12TriggerShape5resetE16operation_mode_eb;	.scl	2;	.type	32;	.endef
 304              		.def	__ZN12TriggerShape8addEventEf15trigger_wheel_e15trigger_value_e;	.scl	2;	.type	32;	.endef
 305              		.def	_absF;	.scl	2;	.type	32;	.endef
 306 0034 00000000 		.def	_firmwareError;	.scl	2;	.type	32;	.endef
GAS LISTING /cygdrive/c/Users/pc/AppData/Local/Temp/ccBqlaoq.s 			page 8

