GAS LISTING /cygdrive/c/Users/pc/AppData/Local/Temp/ccwGEfHf.s 			page 1


   1              		.file	"tunerstudio_io.cpp"
   2              		.section	.text$_Z17getTsSerialDevicev,"x"
   3              		.p2align 4,,15
   4              		.globl	__Z17getTsSerialDevicev
   5              		.def	__Z17getTsSerialDevicev;	.scl	2;	.type	32;	.endef
   6              	__Z17getTsSerialDevicev:
   7              	LFB85:
   8              		.cfi_startproc
   9 0000 B8000000 		movl	$_SD2, %eax
   9      00
  10 0005 C3       		ret
  11              		.cfi_endproc
  12              	LFE85:
  13 0006 90909090 		.section .rdata,"dr"
  13      90909090 
  13      9090
  14              	LC0:
  15 0000 74756E65 		.ascii "tunerStudioWriteData\0"
  15      72537475 
  15      64696F57 
  15      72697465 
  15      44617461 
  16 0015 000000   		.align 4
  17              	LC1:
  18 0018 21212120 		.ascii "!!! NOT ACCEPTED %d out of %d !!!\0"
  18      4E4F5420 
  18      41434345 
  18      50544544 
  18      20256420 
  19 003a 0000     		.section	.text$_Z20tunerStudioWriteDataP12ts_channel_sPKhi,"x"
  20              		.p2align 4,,15
  21              		.globl	__Z20tunerStudioWriteDataP12ts_channel_sPKhi
  22              		.def	__Z20tunerStudioWriteDataP12ts_channel_sPKhi;	.scl	2;	.type	32;	.endef
  23              	__Z20tunerStudioWriteDataP12ts_channel_sPKhi:
  24              	LFB86:
  25              		.cfi_startproc
  26 0000 83EC1C   		subl	$28, %esp
  27              		.cfi_def_cfa_offset 32
  28 0003 A1180000 		movl	_rlist+24, %eax
  28      00
  29 0008 895C2410 		movl	%ebx, 16(%esp)
  30              		.cfi_offset 3, -16
  31 000c 8B5C2428 		movl	40(%esp), %ebx
  32 0010 89742414 		movl	%esi, 20(%esp)
  33              		.cfi_offset 6, -12
  34 0014 8B742424 		movl	36(%esp), %esi
  35 0018 897C2418 		movl	%edi, 24(%esp)
  36              		.cfi_offset 7, -8
  37 001c 8B7C2420 		movl	32(%esp), %edi
  38 0020 890424   		movl	%eax, (%esp)
  39 0023 E8000000 		call	_getRemainingStack
  39      00
  40 0028 83F840   		cmpl	$64, %eax
  41 002b 7E43     		jle	L7
  42 002d 8B07     		movl	(%edi), %eax
  43 002f 8B10     		movl	(%eax), %edx
  44 0031 895C2408 		movl	%ebx, 8(%esp)
GAS LISTING /cygdrive/c/Users/pc/AppData/Local/Temp/ccwGEfHf.s 			page 2


  45 0035 89742404 		movl	%esi, 4(%esp)
  46 0039 890424   		movl	%eax, (%esp)
  47 003c FF12     		call	*(%edx)
  48 003e 39C3     		cmpl	%eax, %ebx
  49 0040 741C     		je	L2
  50 0042 895C240C 		movl	%ebx, 12(%esp)
  51 0046 89442408 		movl	%eax, 8(%esp)
  52 004a C7442404 		movl	$LC1, 4(%esp)
  52      18000000 
  53 0052 C7042400 		movl	$_tsLogger, (%esp)
  53      000000
  54 0059 E8000000 		call	__Z11scheduleMsgP7LoggingPKcz
  54      00
  55              	L2:
  56 005e 8B5C2410 		movl	16(%esp), %ebx
  57 0062 8B742414 		movl	20(%esp), %esi
  58 0066 8B7C2418 		movl	24(%esp), %edi
  59 006a 83C41C   		addl	$28, %esp
  60              		.cfi_remember_state
  61              		.cfi_restore 7
  62              		.cfi_restore 6
  63              		.cfi_restore 3
  64              		.cfi_def_cfa_offset 4
  65 006d C3       		ret
  66 006e 6690     		.p2align 4,,7
  67              	L7:
  68              		.cfi_restore_state
  69 0070 8B5C2410 		movl	16(%esp), %ebx
  70 0074 8B742414 		movl	20(%esp), %esi
  71 0078 8B7C2418 		movl	24(%esp), %edi
  72 007c C7442420 		movl	$LC0, 32(%esp)
  72      00000000 
  73 0084 83C41C   		addl	$28, %esp
  74              		.cfi_restore 7
  75              		.cfi_restore 6
  76              		.cfi_restore 3
  77              		.cfi_def_cfa_offset 4
  78 0087 E9000000 		jmp	_firmwareError
  78      00
  79              		.cfi_endproc
  80              	LFE86:
  81 008c 90909090 		.section	.text$_Z25tunerStudioWriteCrcPacketP12ts_channel_shPKvt,"x"
  82              		.p2align 4,,15
  83              		.globl	__Z25tunerStudioWriteCrcPacketP12ts_channel_shPKvt
  84              		.def	__Z25tunerStudioWriteCrcPacketP12ts_channel_shPKvt;	.scl	2;	.type	32;	.endef
  85              	__Z25tunerStudioWriteCrcPacketP12ts_channel_shPKvt:
  86              	LFB87:
  87              		.cfi_startproc
  88 0000 83EC3C   		subl	$60, %esp
  89              		.cfi_def_cfa_offset 64
  90 0003 897C2434 		movl	%edi, 52(%esp)
  91              		.cfi_offset 7, -12
  92 0007 0FB77C24 		movzwl	76(%esp), %edi
  92      4C
  93 000c 8B4C2440 		movl	64(%esp), %ecx
  94 0010 89742430 		movl	%esi, 48(%esp)
  95 0014 8B442444 		movl	68(%esp), %eax
GAS LISTING /cygdrive/c/Users/pc/AppData/Local/Temp/ccwGEfHf.s 			page 3


  96 0018 895C242C 		movl	%ebx, 44(%esp)
  97 001c 8B542448 		movl	72(%esp), %edx
  98              		.cfi_offset 6, -16
  99              		.cfi_offset 3, -20
 100 0020 8D7701   		leal	1(%edi), %esi
 101 0023 896C2438 		movl	%ebp, 56(%esp)
 102              		.cfi_offset 5, -8
 103 0027 8B5904   		movl	4(%ecx), %ebx
 104 002a 89F5     		movl	%esi, %ebp
 105 002c 894C241C 		movl	%ecx, 28(%esp)
 106 0030 89F1     		movl	%esi, %ecx
 107 0032 C1FD08   		sarl	$8, %ebp
 108 0035 C1E108   		sall	$8, %ecx
 109 0038 09E9     		orl	%ebp, %ecx
 110 003a 31ED     		xorl	%ebp, %ebp
 111 003c 66837C24 		cmpw	$0, 76(%esp)
 111      4C00
 112 0042 66890B   		movw	%cx, (%ebx)
 113 0045 884302   		movb	%al, 2(%ebx)
 114 0048 7415     		je	L9
 115 004a 8D4303   		leal	3(%ebx), %eax
 116 004d 89FD     		movl	%edi, %ebp
 117 004f 897C2408 		movl	%edi, 8(%esp)
 118 0053 89542404 		movl	%edx, 4(%esp)
 119 0057 890424   		movl	%eax, (%esp)
 120 005a E8000000 		call	_memcpy
 120      00
 121              	L9:
 122 005f 8D4302   		leal	2(%ebx), %eax
 123 0062 83C707   		addl	$7, %edi
 124 0065 89742404 		movl	%esi, 4(%esp)
 125 0069 890424   		movl	%eax, (%esp)
 126 006c E8000000 		call	_crc32
 126      00
 127 0071 8B4C241C 		movl	28(%esp), %ecx
 128 0075 8B742430 		movl	48(%esp), %esi
 129 0079 0FC8     		bswap	%eax
 130 007b 89442B03 		movl	%eax, 3(%ebx,%ebp)
 131 007f 8B6C2438 		movl	56(%esp), %ebp
 132 0083 897C2448 		movl	%edi, 72(%esp)
 133 0087 8B7C2434 		movl	52(%esp), %edi
 134 008b 895C2444 		movl	%ebx, 68(%esp)
 135 008f 8B5C242C 		movl	44(%esp), %ebx
 136 0093 894C2440 		movl	%ecx, 64(%esp)
 137 0097 83C43C   		addl	$60, %esp
 138              		.cfi_restore 5
 139              		.cfi_restore 7
 140              		.cfi_restore 6
 141              		.cfi_restore 3
 142              		.cfi_def_cfa_offset 4
 143 009a E9000000 		jmp	__Z20tunerStudioWriteDataP12ts_channel_sPKhi
 143      00
 144              		.cfi_endproc
 145              	LFE87:
 146 009f 90       		.section	.text$_Z14tsSendResponseP12ts_channel_s20ts_response_format_ePKhi,"x"
 147              		.p2align 4,,15
 148              		.globl	__Z14tsSendResponseP12ts_channel_s20ts_response_format_ePKhi
GAS LISTING /cygdrive/c/Users/pc/AppData/Local/Temp/ccwGEfHf.s 			page 4


 149              		.def	__Z14tsSendResponseP12ts_channel_s20ts_response_format_ePKhi;	.scl	2;	.type	32;	.endef
 150              	__Z14tsSendResponseP12ts_channel_s20ts_response_format_ePKhi:
 151              	LFB88:
 152              		.cfi_startproc
 153 0000 837C2408 		cmpl	$1, 8(%esp)
 153      01
 154 0005 8B542404 		movl	4(%esp), %edx
 155 0009 8B4C240C 		movl	12(%esp), %ecx
 156 000d 8B442410 		movl	16(%esp), %eax
 157 0011 741D     		je	L16
 158 0013 85C0     		testl	%eax, %eax
 159 0015 7E11     		jle	L13
 160 0017 8944240C 		movl	%eax, 12(%esp)
 161 001b 894C2408 		movl	%ecx, 8(%esp)
 162 001f 89542404 		movl	%edx, 4(%esp)
 163 0023 E9000000 		jmp	__Z20tunerStudioWriteDataP12ts_channel_sPKhi
 163      00
 164              		.p2align 4,,7
 165              	L13:
 166 0028 F3       		rep
 167 0029 C3       		ret
 168 002a 8DB60000 		.p2align 4,,7
 168      0000
 169              	L16:
 170 0030 25FFFF00 		andl	$65535, %eax
 170      00
 171 0035 89442410 		movl	%eax, 16(%esp)
 172 0039 C7442408 		movl	$0, 8(%esp)
 172      00000000 
 173 0041 E9000000 		jmp	__Z25tunerStudioWriteCrcPacketP12ts_channel_shPKvt
 173      00
 174              		.cfi_endproc
 175              	LFE88:
 176              		.def	_getRemainingStack;	.scl	2;	.type	32;	.endef
 177              		.def	__Z11scheduleMsgP7LoggingPKcz;	.scl	2;	.type	32;	.endef
 178              		.def	_firmwareError;	.scl	2;	.type	32;	.endef
 179              		.def	_memcpy;	.scl	2;	.type	32;	.endef
 180 0046 90909090 		.def	_crc32;	.scl	2;	.type	32;	.endef
 180      90909090 
 180      9090
GAS LISTING /cygdrive/c/Users/pc/AppData/Local/Temp/ccwGEfHf.s 			page 5


DEFINED SYMBOLS
                            *ABS*:00000000 tunerstudio_io.cpp
/cygdrive/c/Users/pc/AppData/Local/Temp/ccwGEfHf.s:6      .text$_Z17getTsSerialDevicev:00000000 __Z17getTsSerialDevicev
/cygdrive/c/Users/pc/AppData/Local/Temp/ccwGEfHf.s:23     .text$_Z20tunerStudioWriteDataP12ts_channel_sPKhi:00000000 __Z20tunerStudioWriteDataP12ts_channel_sPKhi
/cygdrive/c/Users/pc/AppData/Local/Temp/ccwGEfHf.s:85     .text$_Z25tunerStudioWriteCrcPacketP12ts_channel_shPKvt:00000000 __Z25tunerStudioWriteCrcPacketP12ts_channel_shPKvt
/cygdrive/c/Users/pc/AppData/Local/Temp/ccwGEfHf.s:150    .text$_Z14tsSendResponseP12ts_channel_s20ts_response_format_ePKhi:00000000 __Z14tsSendResponseP12ts_channel_s20ts_response_format_ePKhi

UNDEFINED SYMBOLS
_SD2
_rlist
_tsLogger
_getRemainingStack
__Z11scheduleMsgP7LoggingPKcz
_firmwareError
_memcpy
_crc32
