GAS LISTING /cygdrive/c/DOCUME~1/andrey/LOCALS~1/Temp/ccFvZzfH.s 			page 1


   1              		.file	"hal.c"
   2              	 # GNU C (GCC) version 4.8.2 (i686-pc-cygwin)
   3              	 #	compiled by GNU C version 4.8.2, GMP version 5.1.3, MPFR version 3.1.2, MPC version 1.0.1
   4              	 # GGC heuristics: --param ggc-min-expand=100 --param ggc-min-heapsize=131072
   5              	 # options passed:  -I . -I ../firmware/chibios/os/ports/GCC/SIMIA32
   6              	 # -I ../firmware/chibios/os/kernel/include
   7              	 # -I ../firmware/chibios/os/hal/include
   8              	 # -I ../firmware/chibios/os/hal/platforms/Win32
   9              	 # -I ../firmware/chibios/boards/simulator -I ../firmware/util
  10              	 # -I ../firmware/console -I ../firmware/console_util
  11              	 # -I ../firmware/config/engines -I ../firmware/ext_algo
  12              	 # -I ../firmware/controllers/sensors -I ../firmware/controllers/system
  13              	 # -I ../firmware/controllers/algo -I ../firmware/controllers/math
  14              	 # -I ../firmware/controllers/trigger -I ../firmware/chibios/os/various
  15              	 # -MD ../firmware/chibios/os/hal/src/hal.d -MF .dep/hal.o.d -MP
  16              	 # -MQ ../firmware/chibios/os/hal/src/hal.o -Dunix
  17              	 # -idirafter /usr/lib/gcc/i686-pc-cygwin/4.8.2/../../../../include/w32api
  18              	 # -idirafter ../../include/w32api -D SIMULATOR -D SHELL_USE_IPRINTF=FALSE
  19              	 # ../firmware/chibios/os/hal/src/hal.c -mtune=generic -march=i686
  20              	 # -auxbase-strip ../firmware/chibios/os/hal/src/hal.o -ggdb -O2 -Wall
  21              	 # -Wextra -Wstrict-prototypes -std=gnu99 -fomit-frame-pointer
  22              	 # -fgnu89-inline -fverbose-asm
  23              	 # options enabled:  -faggressive-loop-optimizations
  24              	 # -fasynchronous-unwind-tables -fauto-inc-dec -fbranch-count-reg
  25              	 # -fcaller-saves -fcombine-stack-adjustments -fcommon -fcompare-elim
  26              	 # -fcprop-registers -fcrossjumping -fcse-follow-jumps -fdefer-pop
  27              	 # -fdelete-null-pointer-checks -fdevirtualize -fdwarf2-cfi-asm
  28              	 # -fearly-inlining -feliminate-unused-debug-types
  29              	 # -fexpensive-optimizations -fforward-propagate -ffunction-cse -fgcse
  30              	 # -fgcse-lm -fgnu-runtime -fguess-branch-probability
  31              	 # -fhoist-adjacent-loads -fident -fif-conversion -fif-conversion2
  32              	 # -findirect-inlining -finline -finline-atomics
  33              	 # -finline-functions-called-once -finline-small-functions -fipa-cp
  34              	 # -fipa-profile -fipa-pure-const -fipa-reference -fipa-sra
  35              	 # -fira-hoist-pressure -fira-share-save-slots -fira-share-spill-slots
  36              	 # -fivopts -fkeep-inline-dllexport -fkeep-static-consts
  37              	 # -fleading-underscore -fmath-errno -fmerge-constants
  38              	 # -fmerge-debug-strings -fmove-loop-invariants -fomit-frame-pointer
  39              	 # -foptimize-register-move -foptimize-sibling-calls -foptimize-strlen
  40              	 # -fpartial-inlining -fpeephole -fpeephole2 -fprefetch-loop-arrays -free
  41              	 # -freg-struct-return -fregmove -freorder-blocks -freorder-functions
  42              	 # -frerun-cse-after-loop -fsched-critical-path-heuristic
  43              	 # -fsched-dep-count-heuristic -fsched-group-heuristic -fsched-interblock
  44              	 # -fsched-last-insn-heuristic -fsched-rank-heuristic -fsched-spec
  45              	 # -fsched-spec-insn-heuristic -fsched-stalled-insns-dep -fschedule-insns2
  46              	 # -fset-stack-executable -fshow-column -fshrink-wrap -fsigned-zeros
  47              	 # -fsplit-ivs-in-unroller -fsplit-wide-types -fstrict-aliasing
  48              	 # -fstrict-overflow -fstrict-volatile-bitfields -fsync-libcalls
  49              	 # -fthread-jumps -ftoplevel-reorder -ftrapping-math -ftree-bit-ccp
  50              	 # -ftree-builtin-call-dce -ftree-ccp -ftree-ch -ftree-coalesce-vars
  51              	 # -ftree-copy-prop -ftree-copyrename -ftree-cselim -ftree-dce
  52              	 # -ftree-dominator-opts -ftree-dse -ftree-forwprop -ftree-fre
  53              	 # -ftree-loop-if-convert -ftree-loop-im -ftree-loop-ivcanon
  54              	 # -ftree-loop-optimize -ftree-parallelize-loops= -ftree-phiprop -ftree-pre
  55              	 # -ftree-pta -ftree-reassoc -ftree-scev-cprop -ftree-sink
  56              	 # -ftree-slp-vectorize -ftree-slsr -ftree-sra -ftree-switch-conversion
  57              	 # -ftree-tail-merge -ftree-ter -ftree-vect-loop-version -ftree-vrp
GAS LISTING /cygdrive/c/DOCUME~1/andrey/LOCALS~1/Temp/ccFvZzfH.s 			page 2


  58              	 # -funit-at-a-time -funwind-tables -fvar-tracking
  59              	 # -fvar-tracking-assignments -fverbose-asm -fzero-initialized-in-bss -m32
  60              	 # -m80387 -m96bit-long-double -maccumulate-outgoing-args -malign-double
  61              	 # -malign-stringops -mfancy-math-387 -mfp-ret-in-387 -mieee-fp
  62              	 # -mlong-double-80 -mno-red-zone -mno-sse4 -mpush-args -msahf
  63              	 # -mstack-arg-probe
  64              	
  65              		.text
  66              	Ltext0:
  67              		.p2align 4,,15
  68              		.globl	_halInit
  69              		.def	_halInit;	.scl	2;	.type	32;	.endef
  70              	_halInit:
  71              	LFB86:
  72              		.file 1 "../firmware/chibios/os/hal/src/hal.c"
  73              		.loc 1 68 0
  74              		.cfi_startproc
  75 0000 83EC0C   		subl	$12, %esp	 #,
  76              		.cfi_def_cfa_offset 16
  77              		.loc 1 70 0
  78 0003 E8000000 		call	_hal_lld_init	 #
  78      00
  79              	LVL0:
  80              		.loc 1 76 0
  81 0008 A1000000 		movl	_pal_default_config, %eax	 # pal_default_config.VP1Data, pal_default_config.VP1Data
  81      00
  82 000d A3000000 		movl	%eax, _vio_port_1	 # pal_default_config.VP1Data, vio_port_1
  82      00
  83 0012 A1040000 		movl	_pal_default_config+4, %eax	 # pal_default_config.VP1Data, pal_default_config.VP1Data
  83      00
  84 0017 A3040000 		movl	%eax, _vio_port_1+4	 # pal_default_config.VP1Data, vio_port_1
  84      00
  85 001c A1080000 		movl	_pal_default_config+8, %eax	 # pal_default_config.VP1Data, pal_default_config.VP1Data
  85      00
  86 0021 A3080000 		movl	%eax, _vio_port_1+8	 # pal_default_config.VP1Data, vio_port_1
  86      00
  87 0026 A10C0000 		movl	_pal_default_config+12, %eax	 # pal_default_config.VP2Data, pal_default_config.VP2Data
  87      00
  88 002b A3000000 		movl	%eax, _vio_port_2	 # pal_default_config.VP2Data, vio_port_2
  88      00
  89 0030 A1100000 		movl	_pal_default_config+16, %eax	 # pal_default_config.VP2Data, pal_default_config.VP2Data
  89      00
  90 0035 A3040000 		movl	%eax, _vio_port_2+4	 # pal_default_config.VP2Data, vio_port_2
  90      00
  91 003a A1140000 		movl	_pal_default_config+20, %eax	 # pal_default_config.VP2Data, pal_default_config.VP2Data
  91      00
  92 003f A3080000 		movl	%eax, _vio_port_2+8	 # pal_default_config.VP2Data, vio_port_2
  92      00
  93              		.loc 1 103 0
  94 0044 E8000000 		call	_sdInit	 #
  94      00
  95              	LVL1:
  96              		.loc 1 128 0
  97 0049 83C40C   		addl	$12, %esp	 #,
  98              		.cfi_def_cfa_offset 4
  99              		.loc 1 127 0
 100 004c E9000000 		jmp	_boardInit	 #
GAS LISTING /cygdrive/c/DOCUME~1/andrey/LOCALS~1/Temp/ccFvZzfH.s 			page 3


 100      00
 101              	LVL2:
 102              		.cfi_endproc
 103              	LFE86:
 104              	Letext0:
 105              		.file 2 "../firmware/chibios/os/hal/platforms/Win32/pal_lld.h"
 106              		.file 3 "/usr/include/stdint.h"
 107              		.file 4 "../firmware/chibios/os/hal/platforms/Win32/hal_lld.h"
 108              		.file 5 "../firmware/chibios/os/hal/include/serial.h"
 109              		.file 6 "../firmware/chibios/boards/simulator/board.h"
 110 0051 90909090 		.section	.debug_info,"dr"
 110      90909090 
 110      90909090 
 110      909090
 111              	Ldebug_info0:
 112 0000 FB020000 		.long	0x2fb
 113 0004 0400     		.word	0x4
 114 0006 00000000 		.secrel32	Ldebug_abbrev0
 115 000a 04       		.byte	0x4
 116 000b 01       		.uleb128 0x1
 117 000c 474E5520 		.ascii "GNU C 4.8.2 -mtune=generic -march=i686 -ggdb -O2 -std=gnu99 -fomit-frame-pointer -fgnu89-i
 117      4320342E 
 117      382E3220 
 117      2D6D7475 
 117      6E653D67 
 118 006c 01       		.byte	0x1
 119 006d 2E2E2F66 		.ascii "../firmware/chibios/os/hal/src/hal.c\0"
 119      69726D77 
 119      6172652F 
 119      63686962 
 119      696F732F 
 120 0092 2F637967 		.ascii "/cygdrive/c/Program Files/Jenkins/workspace/runEfi win32 functional/win32_functional_tests
 120      64726976 
 120      652F632F 
 120      50726F67 
 120      72616D20 
 121 00ed 00000000 		.long	Ltext0
 122 00f1 51000000 		.long	Letext0-Ltext0
 123 00f5 00000000 		.secrel32	Ldebug_line0
 124 00f9 02       		.uleb128 0x2
 125 00fa 04       		.byte	0x4
 126 00fb 05       		.byte	0x5
 127 00fc 696E7400 		.ascii "int\0"
 128 0100 02       		.uleb128 0x2
 129 0101 04       		.byte	0x4
 130 0102 07       		.byte	0x7
 131 0103 756E7369 		.ascii "unsigned int\0"
 131      676E6564 
 131      20696E74 
 131      00
 132 0110 02       		.uleb128 0x2
 133 0111 02       		.byte	0x2
 134 0112 07       		.byte	0x7
 135 0113 73686F72 		.ascii "short unsigned int\0"
 135      7420756E 
 135      7369676E 
 135      65642069 
GAS LISTING /cygdrive/c/DOCUME~1/andrey/LOCALS~1/Temp/ccFvZzfH.s 			page 4


 135      6E7400
 136 0126 02       		.uleb128 0x2
 137 0127 01       		.byte	0x1
 138 0128 06       		.byte	0x6
 139 0129 7369676E 		.ascii "signed char\0"
 139      65642063 
 139      68617200 
 140 0135 02       		.uleb128 0x2
 141 0136 02       		.byte	0x2
 142 0137 05       		.byte	0x5
 143 0138 73686F72 		.ascii "short int\0"
 143      7420696E 
 143      7400
 144 0142 02       		.uleb128 0x2
 145 0143 08       		.byte	0x8
 146 0144 05       		.byte	0x5
 147 0145 6C6F6E67 		.ascii "long long int\0"
 147      206C6F6E 
 147      6720696E 
 147      7400
 148 0153 02       		.uleb128 0x2
 149 0154 01       		.byte	0x1
 150 0155 08       		.byte	0x8
 151 0156 756E7369 		.ascii "unsigned char\0"
 151      676E6564 
 151      20636861 
 151      7200
 152 0164 03       		.uleb128 0x3
 153 0165 75696E74 		.ascii "uint32_t\0"
 153      33325F74 
 153      00
 154 016e 03       		.byte	0x3
 155 016f 22       		.byte	0x22
 156 0170 00010000 		.long	0x100
 157 0174 02       		.uleb128 0x2
 158 0175 08       		.byte	0x8
 159 0176 07       		.byte	0x7
 160 0177 6C6F6E67 		.ascii "long long unsigned int\0"
 160      206C6F6E 
 160      6720756E 
 160      7369676E 
 160      65642069 
 161 018e 02       		.uleb128 0x2
 162 018f 01       		.byte	0x1
 163 0190 02       		.byte	0x2
 164 0191 5F426F6F 		.ascii "_Bool\0"
 164      6C00
 165 0197 02       		.uleb128 0x2
 166 0198 04       		.byte	0x4
 167 0199 07       		.byte	0x7
 168 019a 73697A65 		.ascii "sizetype\0"
 168      74797065 
 168      00
 169 01a3 02       		.uleb128 0x2
 170 01a4 01       		.byte	0x1
 171 01a5 06       		.byte	0x6
 172 01a6 63686172 		.ascii "char\0"
GAS LISTING /cygdrive/c/DOCUME~1/andrey/LOCALS~1/Temp/ccFvZzfH.s 			page 5


 172      00
 173 01ab 02       		.uleb128 0x2
 174 01ac 04       		.byte	0x4
 175 01ad 05       		.byte	0x5
 176 01ae 6C6F6E67 		.ascii "long int\0"
 176      20696E74 
 176      00
 177 01b7 02       		.uleb128 0x2
 178 01b8 04       		.byte	0x4
 179 01b9 07       		.byte	0x7
 180 01ba 6C6F6E67 		.ascii "long unsigned int\0"
 180      20756E73 
 180      69676E65 
 180      6420696E 
 180      7400
 181 01cc 02       		.uleb128 0x2
 182 01cd 04       		.byte	0x4
 183 01ce 04       		.byte	0x4
 184 01cf 666C6F61 		.ascii "float\0"
 184      7400
 185 01d5 02       		.uleb128 0x2
 186 01d6 08       		.byte	0x8
 187 01d7 04       		.byte	0x4
 188 01d8 646F7562 		.ascii "double\0"
 188      6C6500
 189 01df 04       		.uleb128 0x4
 190 01e0 0C       		.byte	0xc
 191 01e1 02       		.byte	0x2
 192 01e2 2E       		.byte	0x2e
 193 01e3 0E020000 		.long	0x20e
 194 01e7 05       		.uleb128 0x5
 195 01e8 6C617463 		.ascii "latch\0"
 195      6800
 196 01ee 02       		.byte	0x2
 197 01ef 33       		.byte	0x33
 198 01f0 64010000 		.long	0x164
 199 01f4 00       		.byte	0
 200 01f5 05       		.uleb128 0x5
 201 01f6 70696E00 		.ascii "pin\0"
 202 01fa 02       		.byte	0x2
 203 01fb 39       		.byte	0x39
 204 01fc 64010000 		.long	0x164
 205 0200 04       		.byte	0x4
 206 0201 05       		.uleb128 0x5
 207 0202 64697200 		.ascii "dir\0"
 208 0206 02       		.byte	0x2
 209 0207 3E       		.byte	0x3e
 210 0208 64010000 		.long	0x164
 211 020c 08       		.byte	0x8
 212 020d 00       		.byte	0
 213 020e 03       		.uleb128 0x3
 214 020f 73696D5F 		.ascii "sim_vio_port_t\0"
 214      76696F5F 
 214      706F7274 
 214      5F7400
 215 021e 02       		.byte	0x2
 216 021f 3F       		.byte	0x3f
GAS LISTING /cygdrive/c/DOCUME~1/andrey/LOCALS~1/Temp/ccFvZzfH.s 			page 6


 217 0220 DF010000 		.long	0x1df
 218 0224 04       		.uleb128 0x4
 219 0225 18       		.byte	0x18
 220 0226 02       		.byte	0x2
 221 0227 48       		.byte	0x48
 222 0228 4D020000 		.long	0x24d
 223 022c 05       		.uleb128 0x5
 224 022d 56503144 		.ascii "VP1Data\0"
 224      61746100 
 225 0235 02       		.byte	0x2
 226 0236 4C       		.byte	0x4c
 227 0237 0E020000 		.long	0x20e
 228 023b 00       		.byte	0
 229 023c 05       		.uleb128 0x5
 230 023d 56503244 		.ascii "VP2Data\0"
 230      61746100 
 231 0245 02       		.byte	0x2
 232 0246 50       		.byte	0x50
 233 0247 0E020000 		.long	0x20e
 234 024b 0C       		.byte	0xc
 235 024c 00       		.byte	0
 236 024d 03       		.uleb128 0x3
 237 024e 50414C43 		.ascii "PALConfig\0"
 237      6F6E6669 
 237      6700
 238 0258 02       		.byte	0x2
 239 0259 51       		.byte	0x51
 240 025a 24020000 		.long	0x224
 241 025e 06       		.uleb128 0x6
 242 025f 68616C49 		.ascii "halInit\0"
 242      6E697400 
 243 0267 01       		.byte	0x1
 244 0268 44       		.byte	0x44
 245 0269 00000000 		.long	LFB86
 246 026d 51000000 		.long	LFE86-LFB86
 247 0271 01       		.uleb128 0x1
 248 0272 9C       		.byte	0x9c
 249 0273 93020000 		.long	0x293
 250 0277 07       		.uleb128 0x7
 251 0278 08000000 		.long	LVL0
 252 027c D6020000 		.long	0x2d6
 253 0280 07       		.uleb128 0x7
 254 0281 49000000 		.long	LVL1
 255 0285 E6020000 		.long	0x2e6
 256 0289 08       		.uleb128 0x8
 257 028a 51000000 		.long	LVL2
 258 028e F1020000 		.long	0x2f1
 259 0292 00       		.byte	0
 260 0293 09       		.uleb128 0x9
 261 0294 76696F5F 		.ascii "vio_port_1\0"
 261      706F7274 
 261      5F3100
 262 029f 02       		.byte	0x2
 263 02a0 BB       		.byte	0xbb
 264 02a1 0E020000 		.long	0x20e
 265 02a5 09       		.uleb128 0x9
 266 02a6 76696F5F 		.ascii "vio_port_2\0"
GAS LISTING /cygdrive/c/DOCUME~1/andrey/LOCALS~1/Temp/ccFvZzfH.s 			page 7


 266      706F7274 
 266      5F3200
 267 02b1 02       		.byte	0x2
 268 02b2 BC       		.byte	0xbc
 269 02b3 0E020000 		.long	0x20e
 270 02b7 09       		.uleb128 0x9
 271 02b8 70616C5F 		.ascii "pal_default_config\0"
 271      64656661 
 271      756C745F 
 271      636F6E66 
 271      696700
 272 02cb 02       		.byte	0x2
 273 02cc BD       		.byte	0xbd
 274 02cd D1020000 		.long	0x2d1
 275 02d1 0A       		.uleb128 0xa
 276 02d2 4D020000 		.long	0x24d
 277 02d6 0B       		.uleb128 0xb
 278 02d7 68616C5F 		.ascii "hal_lld_init\0"
 278      6C6C645F 
 278      696E6974 
 278      00
 279 02e4 04       		.byte	0x4
 280 02e5 40       		.byte	0x40
 281 02e6 0C       		.uleb128 0xc
 282 02e7 7364496E 		.ascii "sdInit\0"
 282      697400
 283 02ee 05       		.byte	0x5
 284 02ef 3501     		.word	0x135
 285 02f1 0B       		.uleb128 0xb
 286 02f2 626F6172 		.ascii "boardInit\0"
 286      64496E69 
 286      7400
 287 02fc 06       		.byte	0x6
 288 02fd 18       		.byte	0x18
 289 02fe 00       		.byte	0
 290              		.section	.debug_abbrev,"dr"
 291              	Ldebug_abbrev0:
 292 0000 01       		.uleb128 0x1
 293 0001 11       		.uleb128 0x11
 294 0002 01       		.byte	0x1
 295 0003 25       		.uleb128 0x25
 296 0004 08       		.uleb128 0x8
 297 0005 13       		.uleb128 0x13
 298 0006 0B       		.uleb128 0xb
 299 0007 03       		.uleb128 0x3
 300 0008 08       		.uleb128 0x8
 301 0009 1B       		.uleb128 0x1b
 302 000a 08       		.uleb128 0x8
 303 000b 11       		.uleb128 0x11
 304 000c 01       		.uleb128 0x1
 305 000d 12       		.uleb128 0x12
 306 000e 06       		.uleb128 0x6
 307 000f 10       		.uleb128 0x10
 308 0010 17       		.uleb128 0x17
 309 0011 00       		.byte	0
 310 0012 00       		.byte	0
 311 0013 02       		.uleb128 0x2
GAS LISTING /cygdrive/c/DOCUME~1/andrey/LOCALS~1/Temp/ccFvZzfH.s 			page 8


 312 0014 24       		.uleb128 0x24
 313 0015 00       		.byte	0
 314 0016 0B       		.uleb128 0xb
 315 0017 0B       		.uleb128 0xb
 316 0018 3E       		.uleb128 0x3e
 317 0019 0B       		.uleb128 0xb
 318 001a 03       		.uleb128 0x3
 319 001b 08       		.uleb128 0x8
 320 001c 00       		.byte	0
 321 001d 00       		.byte	0
 322 001e 03       		.uleb128 0x3
 323 001f 16       		.uleb128 0x16
 324 0020 00       		.byte	0
 325 0021 03       		.uleb128 0x3
 326 0022 08       		.uleb128 0x8
 327 0023 3A       		.uleb128 0x3a
 328 0024 0B       		.uleb128 0xb
 329 0025 3B       		.uleb128 0x3b
 330 0026 0B       		.uleb128 0xb
 331 0027 49       		.uleb128 0x49
 332 0028 13       		.uleb128 0x13
 333 0029 00       		.byte	0
 334 002a 00       		.byte	0
 335 002b 04       		.uleb128 0x4
 336 002c 13       		.uleb128 0x13
 337 002d 01       		.byte	0x1
 338 002e 0B       		.uleb128 0xb
 339 002f 0B       		.uleb128 0xb
 340 0030 3A       		.uleb128 0x3a
 341 0031 0B       		.uleb128 0xb
 342 0032 3B       		.uleb128 0x3b
 343 0033 0B       		.uleb128 0xb
 344 0034 01       		.uleb128 0x1
 345 0035 13       		.uleb128 0x13
 346 0036 00       		.byte	0
 347 0037 00       		.byte	0
 348 0038 05       		.uleb128 0x5
 349 0039 0D       		.uleb128 0xd
 350 003a 00       		.byte	0
 351 003b 03       		.uleb128 0x3
 352 003c 08       		.uleb128 0x8
 353 003d 3A       		.uleb128 0x3a
 354 003e 0B       		.uleb128 0xb
 355 003f 3B       		.uleb128 0x3b
 356 0040 0B       		.uleb128 0xb
 357 0041 49       		.uleb128 0x49
 358 0042 13       		.uleb128 0x13
 359 0043 38       		.uleb128 0x38
 360 0044 0B       		.uleb128 0xb
 361 0045 00       		.byte	0
 362 0046 00       		.byte	0
 363 0047 06       		.uleb128 0x6
 364 0048 2E       		.uleb128 0x2e
 365 0049 01       		.byte	0x1
 366 004a 3F       		.uleb128 0x3f
 367 004b 19       		.uleb128 0x19
 368 004c 03       		.uleb128 0x3
GAS LISTING /cygdrive/c/DOCUME~1/andrey/LOCALS~1/Temp/ccFvZzfH.s 			page 9


 369 004d 08       		.uleb128 0x8
 370 004e 3A       		.uleb128 0x3a
 371 004f 0B       		.uleb128 0xb
 372 0050 3B       		.uleb128 0x3b
 373 0051 0B       		.uleb128 0xb
 374 0052 27       		.uleb128 0x27
 375 0053 19       		.uleb128 0x19
 376 0054 11       		.uleb128 0x11
 377 0055 01       		.uleb128 0x1
 378 0056 12       		.uleb128 0x12
 379 0057 06       		.uleb128 0x6
 380 0058 40       		.uleb128 0x40
 381 0059 18       		.uleb128 0x18
 382 005a 9742     		.uleb128 0x2117
 383 005c 19       		.uleb128 0x19
 384 005d 01       		.uleb128 0x1
 385 005e 13       		.uleb128 0x13
 386 005f 00       		.byte	0
 387 0060 00       		.byte	0
 388 0061 07       		.uleb128 0x7
 389 0062 898201   		.uleb128 0x4109
 390 0065 00       		.byte	0
 391 0066 11       		.uleb128 0x11
 392 0067 01       		.uleb128 0x1
 393 0068 31       		.uleb128 0x31
 394 0069 13       		.uleb128 0x13
 395 006a 00       		.byte	0
 396 006b 00       		.byte	0
 397 006c 08       		.uleb128 0x8
 398 006d 898201   		.uleb128 0x4109
 399 0070 00       		.byte	0
 400 0071 11       		.uleb128 0x11
 401 0072 01       		.uleb128 0x1
 402 0073 9542     		.uleb128 0x2115
 403 0075 19       		.uleb128 0x19
 404 0076 31       		.uleb128 0x31
 405 0077 13       		.uleb128 0x13
 406 0078 00       		.byte	0
 407 0079 00       		.byte	0
 408 007a 09       		.uleb128 0x9
 409 007b 34       		.uleb128 0x34
 410 007c 00       		.byte	0
 411 007d 03       		.uleb128 0x3
 412 007e 08       		.uleb128 0x8
 413 007f 3A       		.uleb128 0x3a
 414 0080 0B       		.uleb128 0xb
 415 0081 3B       		.uleb128 0x3b
 416 0082 0B       		.uleb128 0xb
 417 0083 49       		.uleb128 0x49
 418 0084 13       		.uleb128 0x13
 419 0085 3F       		.uleb128 0x3f
 420 0086 19       		.uleb128 0x19
 421 0087 3C       		.uleb128 0x3c
 422 0088 19       		.uleb128 0x19
 423 0089 00       		.byte	0
 424 008a 00       		.byte	0
 425 008b 0A       		.uleb128 0xa
GAS LISTING /cygdrive/c/DOCUME~1/andrey/LOCALS~1/Temp/ccFvZzfH.s 			page 10


 426 008c 26       		.uleb128 0x26
 427 008d 00       		.byte	0
 428 008e 49       		.uleb128 0x49
 429 008f 13       		.uleb128 0x13
 430 0090 00       		.byte	0
 431 0091 00       		.byte	0
 432 0092 0B       		.uleb128 0xb
 433 0093 2E       		.uleb128 0x2e
 434 0094 00       		.byte	0
 435 0095 3F       		.uleb128 0x3f
 436 0096 19       		.uleb128 0x19
 437 0097 03       		.uleb128 0x3
 438 0098 08       		.uleb128 0x8
 439 0099 3A       		.uleb128 0x3a
 440 009a 0B       		.uleb128 0xb
 441 009b 3B       		.uleb128 0x3b
 442 009c 0B       		.uleb128 0xb
 443 009d 27       		.uleb128 0x27
 444 009e 19       		.uleb128 0x19
 445 009f 3C       		.uleb128 0x3c
 446 00a0 19       		.uleb128 0x19
 447 00a1 00       		.byte	0
 448 00a2 00       		.byte	0
 449 00a3 0C       		.uleb128 0xc
 450 00a4 2E       		.uleb128 0x2e
 451 00a5 00       		.byte	0
 452 00a6 3F       		.uleb128 0x3f
 453 00a7 19       		.uleb128 0x19
 454 00a8 03       		.uleb128 0x3
 455 00a9 08       		.uleb128 0x8
 456 00aa 3A       		.uleb128 0x3a
 457 00ab 0B       		.uleb128 0xb
 458 00ac 3B       		.uleb128 0x3b
 459 00ad 05       		.uleb128 0x5
 460 00ae 27       		.uleb128 0x27
 461 00af 19       		.uleb128 0x19
 462 00b0 3C       		.uleb128 0x3c
 463 00b1 19       		.uleb128 0x19
 464 00b2 00       		.byte	0
 465 00b3 00       		.byte	0
 466 00b4 00       		.byte	0
 467              		.section	.debug_aranges,"dr"
 468 0000 1C000000 		.long	0x1c
 469 0004 0200     		.word	0x2
 470 0006 00000000 		.secrel32	Ldebug_info0
 471 000a 04       		.byte	0x4
 472 000b 00       		.byte	0
 473 000c 0000     		.word	0
 474 000e 0000     		.word	0
 475 0010 00000000 		.long	Ltext0
 476 0014 51000000 		.long	Letext0-Ltext0
 477 0018 00000000 		.long	0
 478 001c 00000000 		.long	0
 479              		.section	.debug_line,"dr"
 480              	Ldebug_line0:
 481 0000 19010000 		.section	.debug_str,"dr"
 481      0200F800 
GAS LISTING /cygdrive/c/DOCUME~1/andrey/LOCALS~1/Temp/ccFvZzfH.s 			page 11


 481      00000101 
 481      FB0E0D00 
 481      01010101 
 482              		.ident	"GCC: (GNU) 4.8.2"
 483              		.def	_hal_lld_init;	.scl	2;	.type	32;	.endef
 484              		.def	_sdInit;	.scl	2;	.type	32;	.endef
 485              		.def	_boardInit;	.scl	2;	.type	32;	.endef
GAS LISTING /cygdrive/c/DOCUME~1/andrey/LOCALS~1/Temp/ccFvZzfH.s 			page 12


DEFINED SYMBOLS
                            *ABS*:00000000 hal.c
/cygdrive/c/DOCUME~1/andrey/LOCALS~1/Temp/ccFvZzfH.s:70     .text:00000000 _halInit

UNDEFINED SYMBOLS
_pal_default_config
_vio_port_1
_vio_port_2
_hal_lld_init
_sdInit
_boardInit
