ARM GAS  C:\Users\pc\AppData\Local\Temp\cciXJ97z.s 			page 1


   1              		.syntax unified
   2              		.cpu cortex-m4
   3              		.eabi_attribute 27, 3
   4              		.fpu fpv4-sp-d16
   5              		.eabi_attribute 20, 1
   6              		.eabi_attribute 21, 1
   7              		.eabi_attribute 23, 3
   8              		.eabi_attribute 24, 1
   9              		.eabi_attribute 25, 1
  10              		.eabi_attribute 26, 1
  11              		.eabi_attribute 30, 2
  12              		.eabi_attribute 34, 1
  13              		.eabi_attribute 18, 4
  14              		.thumb
  15              		.file	"can_lld.c"
  16              		.section	.text.can_lld_set_filters,"ax",%progbits
  17              		.align	2
  18              		.p2align 4,,15
  19              		.thumb
  20              		.thumb_func
  21              		.type	can_lld_set_filters, %function
  22              	can_lld_set_filters:
  23              		@ args = 0, pretend = 0, frame = 0
  24              		@ frame_needed = 0, uses_anonymous_args = 0
  25              		@ link register save eliminated.
  26 0000 4FF46053 		mov	r3, #14336
  27 0004 C4F20203 		movt	r3, 16386
  28 0008 F0B4     		push	{r4, r5, r6, r7}
  29 000a 1C6C     		ldr	r4, [r3, #64]
  30 000c 4FF4C845 		mov	r5, #25600
  31 0010 C4F20005 		movt	r5, 16384
  32 0014 44F00074 		orr	r4, r4, #33554432
  33 0018 1C64     		str	r4, [r3, #64]
  34 001a D5F80032 		ldr	r3, [r5, #512]
  35 001e 1B0C     		lsrs	r3, r3, #16
  36 0020 1B04     		lsls	r3, r3, #16
  37 0022 43F00103 		orr	r3, r3, #1
  38 0026 43EA0023 		orr	r3, r3, r0, lsl #8
  39 002a C5F80032 		str	r3, [r5, #512]
  40 002e 0029     		cmp	r1, #0
  41 0030 65D0     		beq	.L2
  42 0032 0020     		movs	r0, #0
  43 0034 C5F81C02 		str	r0, [r5, #540]
  44 0038 0346     		mov	r3, r0
  45 003a C5F80402 		str	r0, [r5, #516]
  46 003e 0446     		mov	r4, r0
  47 0040 C5F80C02 		str	r0, [r5, #524]
  48 0044 C5F81402 		str	r0, [r5, #532]
  49              	.L4:
  50 0048 D800     		lsls	r0, r3, #3
  51 004a 00F18040 		add	r0, r0, #1073741824
  52 004e 00F5C840 		add	r0, r0, #25600
  53 0052 0133     		adds	r3, r3, #1
  54 0054 1C2B     		cmp	r3, #28
  55 0056 C0F84042 		str	r4, [r0, #576]
  56 005a C0F84442 		str	r4, [r0, #580]
  57 005e F3D1     		bne	.L4
ARM GAS  C:\Users\pc\AppData\Local\Temp\cciXJ97z.s 			page 2


  58 0060 4FF4C843 		mov	r3, #25600
  59 0064 C4F20003 		movt	r3, 16384
  60 0068 0025     		movs	r5, #0
  61 006a 0127     		movs	r7, #1
  62              	.L9:
  63 006c 1079     		ldrb	r0, [r2, #4]	@ zero_extendqisi2
  64 006e 1468     		ldr	r4, [r2]
  65 0070 10F0010F 		tst	r0, #1
  66 0074 18BF     		it	ne
  67 0076 D3F80402 		ldrne	r0, [r3, #516]
  68 007a 4FEAC406 		lsl	r6, r4, #3
  69 007e 07FA04F4 		lsl	r4, r7, r4
  70 0082 1EBF     		ittt	ne
  71 0084 2043     		orrne	r0, r4, r0
  72 0086 C3F80402 		strne	r0, [r3, #516]
  73 008a 1079     		ldrbne	r0, [r2, #4]	@ zero_extendqisi2
  74 008c 10F0020F 		tst	r0, #2
  75 0090 1FBF     		itttt	ne
  76 0092 D3F80C02 		ldrne	r0, [r3, #524]
  77 0096 2043     		orrne	r0, r4, r0
  78 0098 C3F80C02 		strne	r0, [r3, #524]
  79 009c 1079     		ldrbne	r0, [r2, #4]	@ zero_extendqisi2
  80 009e 4007     		lsls	r0, r0, #29
  81 00a0 42BF     		ittt	mi
  82 00a2 D3F81402 		ldrmi	r0, [r3, #532]
  83 00a6 2043     		orrmi	r0, r4, r0
  84 00a8 C3F81402 		strmi	r0, [r3, #532]
  85 00ac 06F18046 		add	r6, r6, #1073741824
  86 00b0 9068     		ldr	r0, [r2, #8]
  87 00b2 06F5C846 		add	r6, r6, #25600
  88 00b6 0135     		adds	r5, r5, #1
  89 00b8 C6F84002 		str	r0, [r6, #576]
  90 00bc D068     		ldr	r0, [r2, #12]
  91 00be C6F84402 		str	r0, [r6, #580]
  92 00c2 D3F81C02 		ldr	r0, [r3, #540]
  93 00c6 8D42     		cmp	r5, r1
  94 00c8 44EA0004 		orr	r4, r4, r0
  95 00cc 02F11002 		add	r2, r2, #16
  96 00d0 C3F81C42 		str	r4, [r3, #540]
  97 00d4 CAD1     		bne	.L9
  98              	.L8:
  99 00d6 4FF4C842 		mov	r2, #25600
 100 00da C4F20002 		movt	r2, 16384
 101 00de 4FF46053 		mov	r3, #14336
 102 00e2 D2F80012 		ldr	r1, [r2, #512]
 103 00e6 C4F20203 		movt	r3, 16386
 104 00ea 21F00101 		bic	r1, r1, #1
 105 00ee C2F80012 		str	r1, [r2, #512]
 106 00f2 1A6C     		ldr	r2, [r3, #64]
 107 00f4 22F00072 		bic	r2, r2, #33554432
 108 00f8 1A64     		str	r2, [r3, #64]
 109 00fa F0BC     		pop	{r4, r5, r6, r7}
 110 00fc 7047     		bx	lr
 111              	.L2:
 112 00fe C300     		lsls	r3, r0, #3
 113 0100 0122     		movs	r2, #1
 114 0102 03F18043 		add	r3, r3, #1073741824
ARM GAS  C:\Users\pc\AppData\Local\Temp\cciXJ97z.s 			page 3


 115 0106 03F5C843 		add	r3, r3, #25600
 116 010a 02FA00F0 		lsl	r0, r2, r0
 117 010e 1043     		orrs	r0, r0, r2
 118 0110 C5F84012 		str	r1, [r5, #576]
 119 0114 C5F84412 		str	r1, [r5, #580]
 120 0118 C3F84012 		str	r1, [r3, #576]
 121 011c C3F84412 		str	r1, [r3, #580]
 122 0120 C5F80412 		str	r1, [r5, #516]
 123 0124 C5F81412 		str	r1, [r5, #532]
 124 0128 C5F80C02 		str	r0, [r5, #524]
 125 012c C5F81C02 		str	r0, [r5, #540]
 126 0130 D1E7     		b	.L8
 127              		.size	can_lld_set_filters, .-can_lld_set_filters
 128 0132 00BFAFF3 		.section	.text.can_lld_tx_handler,"ax",%progbits
 128      0080AFF3 
 128      0080AFF3 
 128      0080
 129              		.align	2
 130              		.p2align 4,,15
 131              		.thumb
 132              		.thumb_func
 133              		.type	can_lld_tx_handler, %function
 134              	can_lld_tx_handler:
 135              		@ args = 0, pretend = 0, frame = 0
 136              		@ frame_needed = 0, uses_anonymous_args = 0
 137 0000 38B5     		push	{r3, r4, r5, lr}
 138 0002 426B     		ldr	r2, [r0, #52]
 139 0004 40F20113 		movw	r3, #257
 140 0008 C0F20103 		movt	r3, 1
 141 000c 9360     		str	r3, [r2, #8]
 142 000e 0446     		mov	r4, r0
 143 0010 2023     		movs	r3, #32
 144              	@ 140 "chibios/os/hal/platforms/STM32/can_lld.c" 1
 145 0012 83F31188 		msr     BASEPRI, r3
 146              	@ 0 "" 2
 147              		.thumb
 148 0016 FFF7FEFF 		bl	dbg_check_lock_from_isr
 149 001a 2369     		ldr	r3, [r4, #16]
 150 001c 002B     		cmp	r3, #0
 151 001e B8BF     		it	lt
 152 0020 04F10805 		addlt	r5, r4, #8
 153 0024 05DA     		bge	.L24
 154              	.L25:
 155 0026 2846     		mov	r0, r5
 156 0028 FFF7FEFF 		bl	chSemSignalI
 157 002c 2369     		ldr	r3, [r4, #16]
 158 002e 002B     		cmp	r3, #0
 159 0030 F9DB     		blt	.L25
 160              	.L24:
 161 0032 04F12400 		add	r0, r4, #36
 162 0036 0121     		movs	r1, #1
 163 0038 FFF7FEFF 		bl	chEvtBroadcastFlagsI
 164 003c FFF7FEFF 		bl	dbg_check_unlock_from_isr
 165 0040 0023     		movs	r3, #0
 166              	@ 144 "chibios/os/hal/platforms/STM32/can_lld.c" 1
 167 0042 83F31188 		msr     BASEPRI, r3
 168              	@ 0 "" 2
ARM GAS  C:\Users\pc\AppData\Local\Temp\cciXJ97z.s 			page 4


 169              		.thumb
 170 0046 38BD     		pop	{r3, r4, r5, pc}
 171              		.size	can_lld_tx_handler, .-can_lld_tx_handler
 172 0048 AFF30080 		.section	.text.can_lld_rx0_handler,"ax",%progbits
 172      AFF30080 
 173              		.align	2
 174              		.p2align 4,,15
 175              		.thumb
 176              		.thumb_func
 177              		.type	can_lld_rx0_handler, %function
 178              	can_lld_rx0_handler:
 179              		@ args = 0, pretend = 0, frame = 0
 180              		@ frame_needed = 0, uses_anonymous_args = 0
 181 0000 436B     		ldr	r3, [r0, #52]
 182 0002 70B5     		push	{r4, r5, r6, lr}
 183 0004 DE68     		ldr	r6, [r3, #12]
 184 0006 B207     		lsls	r2, r6, #30
 185 0008 0446     		mov	r4, r0
 186 000a 14D1     		bne	.L39
 187              	.L28:
 188 000c F306     		lsls	r3, r6, #27
 189 000e 11D5     		bpl	.L27
 190 0010 636B     		ldr	r3, [r4, #52]
 191 0012 1022     		movs	r2, #16
 192 0014 DA60     		str	r2, [r3, #12]
 193 0016 2023     		movs	r3, #32
 194              	@ 170 "chibios/os/hal/platforms/STM32/can_lld.c" 1
 195 0018 83F31188 		msr     BASEPRI, r3
 196              	@ 0 "" 2
 197              		.thumb
 198 001c FFF7FEFF 		bl	dbg_check_lock_from_isr
 199 0020 04F12800 		add	r0, r4, #40
 200 0024 1021     		movs	r1, #16
 201 0026 FFF7FEFF 		bl	chEvtBroadcastFlagsI
 202 002a FFF7FEFF 		bl	dbg_check_unlock_from_isr
 203 002e 0023     		movs	r3, #0
 204              	@ 172 "chibios/os/hal/platforms/STM32/can_lld.c" 1
 205 0030 83F31188 		msr     BASEPRI, r3
 206              	@ 0 "" 2
 207              		.thumb
 208              	.L27:
 209 0034 70BD     		pop	{r4, r5, r6, pc}
 210              	.L39:
 211 0036 5A69     		ldr	r2, [r3, #20]
 212 0038 22F00202 		bic	r2, r2, #2
 213 003c 5A61     		str	r2, [r3, #20]
 214 003e 2023     		movs	r3, #32
 215              	@ 161 "chibios/os/hal/platforms/STM32/can_lld.c" 1
 216 0040 83F31188 		msr     BASEPRI, r3
 217              	@ 0 "" 2
 218              		.thumb
 219 0044 FFF7FEFF 		bl	dbg_check_lock_from_isr
 220 0048 E369     		ldr	r3, [r4, #28]
 221 004a 002B     		cmp	r3, #0
 222 004c B8BF     		it	lt
 223 004e 04F11405 		addlt	r5, r4, #20
 224 0052 05DA     		bge	.L30
ARM GAS  C:\Users\pc\AppData\Local\Temp\cciXJ97z.s 			page 5


 225              	.L31:
 226 0054 2846     		mov	r0, r5
 227 0056 FFF7FEFF 		bl	chSemSignalI
 228 005a E369     		ldr	r3, [r4, #28]
 229 005c 002B     		cmp	r3, #0
 230 005e F9DB     		blt	.L31
 231              	.L30:
 232 0060 04F12000 		add	r0, r4, #32
 233 0064 0121     		movs	r1, #1
 234 0066 FFF7FEFF 		bl	chEvtBroadcastFlagsI
 235 006a FFF7FEFF 		bl	dbg_check_unlock_from_isr
 236 006e 0023     		movs	r3, #0
 237              	@ 165 "chibios/os/hal/platforms/STM32/can_lld.c" 1
 238 0070 83F31188 		msr     BASEPRI, r3
 239              	@ 0 "" 2
 240              		.thumb
 241 0074 CAE7     		b	.L28
 242              		.size	can_lld_rx0_handler, .-can_lld_rx0_handler
 243 0076 00BFAFF3 		.section	.text.can_lld_rx1_handler,"ax",%progbits
 243      0080AFF3 
 243      0080
 244              		.align	2
 245              		.p2align 4,,15
 246              		.thumb
 247              		.thumb_func
 248              		.type	can_lld_rx1_handler, %function
 249              	can_lld_rx1_handler:
 250              		@ args = 0, pretend = 0, frame = 0
 251              		@ frame_needed = 0, uses_anonymous_args = 0
 252 0000 436B     		ldr	r3, [r0, #52]
 253 0002 70B5     		push	{r4, r5, r6, lr}
 254 0004 1E69     		ldr	r6, [r3, #16]
 255 0006 0446     		mov	r4, r0
 256 0008 B007     		lsls	r0, r6, #30
 257 000a 14D1     		bne	.L52
 258              	.L41:
 259 000c F106     		lsls	r1, r6, #27
 260 000e 11D5     		bpl	.L40
 261 0010 636B     		ldr	r3, [r4, #52]
 262 0012 1022     		movs	r2, #16
 263 0014 1A61     		str	r2, [r3, #16]
 264 0016 2023     		movs	r3, #32
 265              	@ 199 "chibios/os/hal/platforms/STM32/can_lld.c" 1
 266 0018 83F31188 		msr     BASEPRI, r3
 267              	@ 0 "" 2
 268              		.thumb
 269 001c FFF7FEFF 		bl	dbg_check_lock_from_isr
 270 0020 04F12800 		add	r0, r4, #40
 271 0024 1021     		movs	r1, #16
 272 0026 FFF7FEFF 		bl	chEvtBroadcastFlagsI
 273 002a FFF7FEFF 		bl	dbg_check_unlock_from_isr
 274 002e 0023     		movs	r3, #0
 275              	@ 201 "chibios/os/hal/platforms/STM32/can_lld.c" 1
 276 0030 83F31188 		msr     BASEPRI, r3
 277              	@ 0 "" 2
 278              		.thumb
 279              	.L40:
ARM GAS  C:\Users\pc\AppData\Local\Temp\cciXJ97z.s 			page 6


 280 0034 70BD     		pop	{r4, r5, r6, pc}
 281              	.L52:
 282 0036 5A69     		ldr	r2, [r3, #20]
 283 0038 22F01002 		bic	r2, r2, #16
 284 003c 5A61     		str	r2, [r3, #20]
 285 003e 2023     		movs	r3, #32
 286              	@ 190 "chibios/os/hal/platforms/STM32/can_lld.c" 1
 287 0040 83F31188 		msr     BASEPRI, r3
 288              	@ 0 "" 2
 289              		.thumb
 290 0044 FFF7FEFF 		bl	dbg_check_lock_from_isr
 291 0048 E369     		ldr	r3, [r4, #28]
 292 004a 002B     		cmp	r3, #0
 293 004c B8BF     		it	lt
 294 004e 04F11405 		addlt	r5, r4, #20
 295 0052 05DA     		bge	.L43
 296              	.L44:
 297 0054 2846     		mov	r0, r5
 298 0056 FFF7FEFF 		bl	chSemSignalI
 299 005a E369     		ldr	r3, [r4, #28]
 300 005c 002B     		cmp	r3, #0
 301 005e F9DB     		blt	.L44
 302              	.L43:
 303 0060 04F12000 		add	r0, r4, #32
 304 0064 0221     		movs	r1, #2
 305 0066 FFF7FEFF 		bl	chEvtBroadcastFlagsI
 306 006a FFF7FEFF 		bl	dbg_check_unlock_from_isr
 307 006e 0023     		movs	r3, #0
 308              	@ 194 "chibios/os/hal/platforms/STM32/can_lld.c" 1
 309 0070 83F31188 		msr     BASEPRI, r3
 310              	@ 0 "" 2
 311              		.thumb
 312 0074 CAE7     		b	.L41
 313              		.size	can_lld_rx1_handler, .-can_lld_rx1_handler
 314 0076 00BFAFF3 		.section	.text.can_lld_sce_handler,"ax",%progbits
 314      0080AFF3 
 314      0080
 315              		.align	2
 316              		.p2align 4,,15
 317              		.thumb
 318              		.thumb_func
 319              		.type	can_lld_sce_handler, %function
 320              	can_lld_sce_handler:
 321              		@ args = 0, pretend = 0, frame = 0
 322              		@ frame_needed = 0, uses_anonymous_args = 0
 323 0000 426B     		ldr	r2, [r0, #52]
 324 0002 70B5     		push	{r4, r5, r6, lr}
 325 0004 5568     		ldr	r5, [r2, #4]
 326 0006 1C23     		movs	r3, #28
 327 0008 2E07     		lsls	r6, r5, #28
 328 000a 0446     		mov	r4, r0
 329 000c 5360     		str	r3, [r2, #4]
 330 000e 1FD4     		bmi	.L66
 331              	.L54:
 332 0010 6D07     		lsls	r5, r5, #29
 333 0012 1CD5     		bpl	.L53
 334 0014 636B     		ldr	r3, [r4, #52]
ARM GAS  C:\Users\pc\AppData\Local\Temp\cciXJ97z.s 			page 7


 335 0016 9D69     		ldr	r5, [r3, #24]
 336 0018 9A69     		ldr	r2, [r3, #24]
 337 001a 05F00706 		and	r6, r5, #7
 338 001e 22F07002 		bic	r2, r2, #112
 339 0022 15F0700F 		tst	r5, #112
 340 0026 9A61     		str	r2, [r3, #24]
 341 0028 18BF     		it	ne
 342 002a 46F00806 		orrne	r6, r6, #8
 343 002e 2023     		movs	r3, #32
 344              	@ 237 "chibios/os/hal/platforms/STM32/can_lld.c" 1
 345 0030 83F31188 		msr     BASEPRI, r3
 346              	@ 0 "" 2
 347              		.thumb
 348 0034 FFF7FEFF 		bl	dbg_check_lock_from_isr
 349 0038 04F12800 		add	r0, r4, #40
 350 003c 46EA0541 		orr	r1, r6, r5, lsl #16
 351 0040 FFF7FEFF 		bl	chEvtBroadcastFlagsI
 352 0044 FFF7FEFF 		bl	dbg_check_unlock_from_isr
 353 0048 0023     		movs	r3, #0
 354              	@ 241 "chibios/os/hal/platforms/STM32/can_lld.c" 1
 355 004a 83F31188 		msr     BASEPRI, r3
 356              	@ 0 "" 2
 357              		.thumb
 358              	.L53:
 359 004e 70BD     		pop	{r4, r5, r6, pc}
 360              	.L66:
 361 0050 1168     		ldr	r1, [r2]
 362 0052 0646     		mov	r6, r0
 363 0054 21F00201 		bic	r1, r1, #2
 364 0058 0323     		movs	r3, #3
 365 005a 06F8303B 		strb	r3, [r6], #48
 366 005e 2023     		movs	r3, #32
 367 0060 1160     		str	r1, [r2]
 368              	@ 222 "chibios/os/hal/platforms/STM32/can_lld.c" 1
 369 0062 83F31188 		msr     BASEPRI, r3
 370              	@ 0 "" 2
 371              		.thumb
 372 0066 FFF7FEFF 		bl	dbg_check_lock_from_isr
 373 006a 3046     		mov	r0, r6
 374 006c 0021     		movs	r1, #0
 375 006e FFF7FEFF 		bl	chEvtBroadcastFlagsI
 376 0072 FFF7FEFF 		bl	dbg_check_unlock_from_isr
 377 0076 0023     		movs	r3, #0
 378              	@ 224 "chibios/os/hal/platforms/STM32/can_lld.c" 1
 379 0078 83F31188 		msr     BASEPRI, r3
 380              	@ 0 "" 2
 381              		.thumb
 382 007c C8E7     		b	.L54
 383              		.size	can_lld_sce_handler, .-can_lld_sce_handler
 384 007e 00BF     		.section	.text.Vector8C,"ax",%progbits
 385              		.align	2
 386              		.p2align 4,,15
 387              		.global	Vector8C
 388              		.thumb
 389              		.thumb_func
 390              		.type	Vector8C, %function
 391              	Vector8C:
ARM GAS  C:\Users\pc\AppData\Local\Temp\cciXJ97z.s 			page 8


 392              		@ args = 0, pretend = 0, frame = 0
 393              		@ frame_needed = 0, uses_anonymous_args = 0
 394 0000 08B5     		push	{r3, lr}
 395 0002 FFF7FEFF 		bl	dbg_check_enter_isr
 396 0006 40F20000 		movw	r0, #:lower16:.LANCHOR0
 397 000a C0F20000 		movt	r0, #:upper16:.LANCHOR0
 398 000e FFF7FEFF 		bl	can_lld_tx_handler
 399 0012 FFF7FEFF 		bl	dbg_check_leave_isr
 400 0016 BDE80840 		pop	{r3, lr}
 401 001a FFF7FEBF 		b	_port_irq_epilogue
 402              		.size	Vector8C, .-Vector8C
 403 001e 00BF     		.section	.text.Vector90,"ax",%progbits
 404              		.align	2
 405              		.p2align 4,,15
 406              		.global	Vector90
 407              		.thumb
 408              		.thumb_func
 409              		.type	Vector90, %function
 410              	Vector90:
 411              		@ args = 0, pretend = 0, frame = 0
 412              		@ frame_needed = 0, uses_anonymous_args = 0
 413 0000 08B5     		push	{r3, lr}
 414 0002 FFF7FEFF 		bl	dbg_check_enter_isr
 415 0006 40F20000 		movw	r0, #:lower16:.LANCHOR0
 416 000a C0F20000 		movt	r0, #:upper16:.LANCHOR0
 417 000e FFF7FEFF 		bl	can_lld_rx0_handler
 418 0012 FFF7FEFF 		bl	dbg_check_leave_isr
 419 0016 BDE80840 		pop	{r3, lr}
 420 001a FFF7FEBF 		b	_port_irq_epilogue
 421              		.size	Vector90, .-Vector90
 422 001e 00BF     		.section	.text.Vector94,"ax",%progbits
 423              		.align	2
 424              		.p2align 4,,15
 425              		.global	Vector94
 426              		.thumb
 427              		.thumb_func
 428              		.type	Vector94, %function
 429              	Vector94:
 430              		@ args = 0, pretend = 0, frame = 0
 431              		@ frame_needed = 0, uses_anonymous_args = 0
 432 0000 08B5     		push	{r3, lr}
 433 0002 FFF7FEFF 		bl	dbg_check_enter_isr
 434 0006 40F20000 		movw	r0, #:lower16:.LANCHOR0
 435 000a C0F20000 		movt	r0, #:upper16:.LANCHOR0
 436 000e FFF7FEFF 		bl	can_lld_rx1_handler
 437 0012 FFF7FEFF 		bl	dbg_check_leave_isr
 438 0016 BDE80840 		pop	{r3, lr}
 439 001a FFF7FEBF 		b	_port_irq_epilogue
 440              		.size	Vector94, .-Vector94
 441 001e 00BF     		.section	.text.Vector98,"ax",%progbits
 442              		.align	2
 443              		.p2align 4,,15
 444              		.global	Vector98
 445              		.thumb
 446              		.thumb_func
 447              		.type	Vector98, %function
 448              	Vector98:
ARM GAS  C:\Users\pc\AppData\Local\Temp\cciXJ97z.s 			page 9


 449              		@ args = 0, pretend = 0, frame = 0
 450              		@ frame_needed = 0, uses_anonymous_args = 0
 451 0000 08B5     		push	{r3, lr}
 452 0002 FFF7FEFF 		bl	dbg_check_enter_isr
 453 0006 40F20000 		movw	r0, #:lower16:.LANCHOR0
 454 000a C0F20000 		movt	r0, #:upper16:.LANCHOR0
 455 000e FFF7FEFF 		bl	can_lld_sce_handler
 456 0012 FFF7FEFF 		bl	dbg_check_leave_isr
 457 0016 BDE80840 		pop	{r3, lr}
 458 001a FFF7FEBF 		b	_port_irq_epilogue
 459              		.size	Vector98, .-Vector98
 460 001e 00BF     		.section	.text.Vector13C,"ax",%progbits
 461              		.align	2
 462              		.p2align 4,,15
 463              		.global	Vector13C
 464              		.thumb
 465              		.thumb_func
 466              		.type	Vector13C, %function
 467              	Vector13C:
 468              		@ args = 0, pretend = 0, frame = 0
 469              		@ frame_needed = 0, uses_anonymous_args = 0
 470 0000 08B5     		push	{r3, lr}
 471 0002 FFF7FEFF 		bl	dbg_check_enter_isr
 472 0006 40F20000 		movw	r0, #:lower16:.LANCHOR1
 473 000a C0F20000 		movt	r0, #:upper16:.LANCHOR1
 474 000e FFF7FEFF 		bl	can_lld_tx_handler
 475 0012 FFF7FEFF 		bl	dbg_check_leave_isr
 476 0016 BDE80840 		pop	{r3, lr}
 477 001a FFF7FEBF 		b	_port_irq_epilogue
 478              		.size	Vector13C, .-Vector13C
 479 001e 00BF     		.section	.text.Vector140,"ax",%progbits
 480              		.align	2
 481              		.p2align 4,,15
 482              		.global	Vector140
 483              		.thumb
 484              		.thumb_func
 485              		.type	Vector140, %function
 486              	Vector140:
 487              		@ args = 0, pretend = 0, frame = 0
 488              		@ frame_needed = 0, uses_anonymous_args = 0
 489 0000 08B5     		push	{r3, lr}
 490 0002 FFF7FEFF 		bl	dbg_check_enter_isr
 491 0006 40F20000 		movw	r0, #:lower16:.LANCHOR1
 492 000a C0F20000 		movt	r0, #:upper16:.LANCHOR1
 493 000e FFF7FEFF 		bl	can_lld_rx0_handler
 494 0012 FFF7FEFF 		bl	dbg_check_leave_isr
 495 0016 BDE80840 		pop	{r3, lr}
 496 001a FFF7FEBF 		b	_port_irq_epilogue
 497              		.size	Vector140, .-Vector140
 498 001e 00BF     		.section	.text.Vector144,"ax",%progbits
 499              		.align	2
 500              		.p2align 4,,15
 501              		.global	Vector144
 502              		.thumb
 503              		.thumb_func
 504              		.type	Vector144, %function
 505              	Vector144:
ARM GAS  C:\Users\pc\AppData\Local\Temp\cciXJ97z.s 			page 10


 506              		@ args = 0, pretend = 0, frame = 0
 507              		@ frame_needed = 0, uses_anonymous_args = 0
 508 0000 08B5     		push	{r3, lr}
 509 0002 FFF7FEFF 		bl	dbg_check_enter_isr
 510 0006 40F20000 		movw	r0, #:lower16:.LANCHOR1
 511 000a C0F20000 		movt	r0, #:upper16:.LANCHOR1
 512 000e FFF7FEFF 		bl	can_lld_rx1_handler
 513 0012 FFF7FEFF 		bl	dbg_check_leave_isr
 514 0016 BDE80840 		pop	{r3, lr}
 515 001a FFF7FEBF 		b	_port_irq_epilogue
 516              		.size	Vector144, .-Vector144
 517 001e 00BF     		.section	.text.Vector148,"ax",%progbits
 518              		.align	2
 519              		.p2align 4,,15
 520              		.global	Vector148
 521              		.thumb
 522              		.thumb_func
 523              		.type	Vector148, %function
 524              	Vector148:
 525              		@ args = 0, pretend = 0, frame = 0
 526              		@ frame_needed = 0, uses_anonymous_args = 0
 527 0000 08B5     		push	{r3, lr}
 528 0002 FFF7FEFF 		bl	dbg_check_enter_isr
 529 0006 40F20000 		movw	r0, #:lower16:.LANCHOR1
 530 000a C0F20000 		movt	r0, #:upper16:.LANCHOR1
 531 000e FFF7FEFF 		bl	can_lld_sce_handler
 532 0012 FFF7FEFF 		bl	dbg_check_leave_isr
 533 0016 BDE80840 		pop	{r3, lr}
 534 001a FFF7FEBF 		b	_port_irq_epilogue
 535              		.size	Vector148, .-Vector148
 536 001e 00BF     		.section	.text.can_lld_init,"ax",%progbits
 537              		.align	2
 538              		.p2align 4,,15
 539              		.global	can_lld_init
 540              		.thumb
 541              		.thumb_func
 542              		.type	can_lld_init, %function
 543              	can_lld_init:
 544              		@ args = 0, pretend = 0, frame = 0
 545              		@ frame_needed = 0, uses_anonymous_args = 0
 546 0000 38B5     		push	{r3, r4, r5, lr}
 547 0002 40F20005 		movw	r5, #:lower16:.LANCHOR0
 548 0006 C0F20005 		movt	r5, #:upper16:.LANCHOR0
 549 000a 2846     		mov	r0, r5
 550 000c 40F20004 		movw	r4, #:lower16:.LANCHOR1
 551 0010 FFF7FEFF 		bl	canObjectInit
 552 0014 C0F20004 		movt	r4, #:upper16:.LANCHOR1
 553 0018 4FF4C843 		mov	r3, #25600
 554 001c C4F20003 		movt	r3, 16384
 555 0020 2046     		mov	r0, r4
 556 0022 6B63     		str	r3, [r5, #52]
 557 0024 FFF7FEFF 		bl	canObjectInit
 558 0028 4FF4D043 		mov	r3, #26624
 559 002c C4F20003 		movt	r3, 16384
 560 0030 0021     		movs	r1, #0
 561 0032 6363     		str	r3, [r4, #52]
 562 0034 0A46     		mov	r2, r1
ARM GAS  C:\Users\pc\AppData\Local\Temp\cciXJ97z.s 			page 11


 563 0036 0E20     		movs	r0, #14
 564 0038 BDE83840 		pop	{r3, r4, r5, lr}
 565 003c FFF7FEBF 		b	can_lld_set_filters
 566              		.size	can_lld_init, .-can_lld_init
 567              		.section	.text.can_lld_start,"ax",%progbits
 568              		.align	2
 569              		.p2align 4,,15
 570              		.global	can_lld_start
 571              		.thumb
 572              		.thumb_func
 573              		.type	can_lld_start, %function
 574              	can_lld_start:
 575              		@ args = 0, pretend = 0, frame = 0
 576              		@ frame_needed = 0, uses_anonymous_args = 0
 577 0000 40F20003 		movw	r3, #:lower16:.LANCHOR0
 578 0004 C0F20003 		movt	r3, #:upper16:.LANCHOR0
 579 0008 9842     		cmp	r0, r3
 580 000a 10B5     		push	{r4, lr}
 581 000c 0446     		mov	r4, r0
 582 000e 3CD0     		beq	.L82
 583 0010 40F20002 		movw	r2, #:lower16:.LANCHOR1
 584 0014 C0F20002 		movt	r2, #:upper16:.LANCHOR1
 585 0018 9042     		cmp	r0, r2
 586 001a 1AD0     		beq	.L83
 587              	.L78:
 588 001c 636B     		ldr	r3, [r4, #52]
 589 001e 0221     		movs	r1, #2
 590 0020 0122     		movs	r2, #1
 591 0022 2170     		strb	r1, [r4]
 592 0024 1A60     		str	r2, [r3]
 593 0026 5A68     		ldr	r2, [r3, #4]
 594 0028 D107     		lsls	r1, r2, #31
 595 002a 07D4     		bmi	.L80
 596              	.L81:
 597 002c 0620     		movs	r0, #6
 598 002e 0121     		movs	r1, #1
 599 0030 FFF7FEFF 		bl	chSchGoSleepTimeoutS
 600 0034 636B     		ldr	r3, [r4, #52]
 601 0036 5A68     		ldr	r2, [r3, #4]
 602 0038 D207     		lsls	r2, r2, #31
 603 003a F7D5     		bpl	.L81
 604              	.L80:
 605 003c 6168     		ldr	r1, [r4, #4]
 606 003e 48F65B72 		movw	r2, #36699
 607 0042 4868     		ldr	r0, [r1, #4]
 608 0044 0968     		ldr	r1, [r1]
 609 0046 D861     		str	r0, [r3, #28]
 610 0048 C0F20102 		movt	r2, 1
 611 004c 1960     		str	r1, [r3]
 612 004e 5A61     		str	r2, [r3, #20]
 613 0050 10BD     		pop	{r4, pc}
 614              	.L83:
 615 0052 1B78     		ldrb	r3, [r3]	@ zero_extendqisi2
 616 0054 012B     		cmp	r3, #1
 617 0056 31D0     		beq	.L84
 618              	.L79:
 619 0058 3F20     		movs	r0, #63
ARM GAS  C:\Users\pc\AppData\Local\Temp\cciXJ97z.s 			page 12


 620 005a B021     		movs	r1, #176
 621 005c FFF7FEFF 		bl	nvicEnableVector
 622 0060 4020     		movs	r0, #64
 623 0062 B021     		movs	r1, #176
 624 0064 FFF7FEFF 		bl	nvicEnableVector
 625 0068 4120     		movs	r0, #65
 626 006a B021     		movs	r1, #176
 627 006c FFF7FEFF 		bl	nvicEnableVector
 628 0070 4220     		movs	r0, #66
 629 0072 B021     		movs	r1, #176
 630 0074 FFF7FEFF 		bl	nvicEnableVector
 631 0078 4FF46053 		mov	r3, #14336
 632 007c C4F20203 		movt	r3, 16386
 633 0080 1A6C     		ldr	r2, [r3, #64]
 634 0082 42F08062 		orr	r2, r2, #67108864
 635 0086 1A64     		str	r2, [r3, #64]
 636 0088 C8E7     		b	.L78
 637              	.L82:
 638 008a 1320     		movs	r0, #19
 639 008c B021     		movs	r1, #176
 640 008e FFF7FEFF 		bl	nvicEnableVector
 641 0092 1420     		movs	r0, #20
 642 0094 B021     		movs	r1, #176
 643 0096 FFF7FEFF 		bl	nvicEnableVector
 644 009a 1520     		movs	r0, #21
 645 009c B021     		movs	r1, #176
 646 009e FFF7FEFF 		bl	nvicEnableVector
 647 00a2 1620     		movs	r0, #22
 648 00a4 B021     		movs	r1, #176
 649 00a6 FFF7FEFF 		bl	nvicEnableVector
 650 00aa 4FF46053 		mov	r3, #14336
 651 00ae C4F20203 		movt	r3, 16386
 652 00b2 1A6C     		ldr	r2, [r3, #64]
 653 00b4 42F00072 		orr	r2, r2, #33554432
 654 00b8 1A64     		str	r2, [r3, #64]
 655 00ba AFE7     		b	.L78
 656              	.L84:
 657 00bc 40F20000 		movw	r0, #:lower16:.LC0
 658 00c0 C0F20000 		movt	r0, #:upper16:.LC0
 659 00c4 FFF7FEFF 		bl	chDbgPanic
 660 00c8 C6E7     		b	.L79
 661              		.size	can_lld_start, .-can_lld_start
 662 00ca 00BFAFF3 		.section	.text.can_lld_stop,"ax",%progbits
 662      0080
 663              		.align	2
 664              		.p2align 4,,15
 665              		.global	can_lld_stop
 666              		.thumb
 667              		.thumb_func
 668              		.type	can_lld_stop, %function
 669              	can_lld_stop:
 670              		@ args = 0, pretend = 0, frame = 0
 671              		@ frame_needed = 0, uses_anonymous_args = 0
 672 0000 08B5     		push	{r3, lr}
 673 0002 0378     		ldrb	r3, [r0]	@ zero_extendqisi2
 674 0004 032B     		cmp	r3, #3
 675 0006 00D0     		beq	.L92
ARM GAS  C:\Users\pc\AppData\Local\Temp\cciXJ97z.s 			page 13


 676              	.L85:
 677 0008 08BD     		pop	{r3, pc}
 678              	.L92:
 679 000a 40F20003 		movw	r3, #:lower16:.LANCHOR0
 680 000e C0F20003 		movt	r3, #:upper16:.LANCHOR0
 681 0012 9842     		cmp	r0, r3
 682 0014 40F20003 		movw	r3, #:lower16:.LANCHOR1
 683 0018 C0F20003 		movt	r3, #:upper16:.LANCHOR1
 684 001c 20D0     		beq	.L93
 685 001e 9842     		cmp	r0, r3
 686 0020 F2D1     		bne	.L85
 687 0022 4FF4D043 		mov	r3, #26624
 688 0026 C4F20003 		movt	r3, 16384
 689 002a 0222     		movs	r2, #2
 690 002c C0F20102 		movt	r2, 1
 691 0030 0021     		movs	r1, #0
 692 0032 1A60     		str	r2, [r3]
 693 0034 3F20     		movs	r0, #63
 694 0036 5961     		str	r1, [r3, #20]
 695 0038 FFF7FEFF 		bl	nvicDisableVector
 696 003c 4020     		movs	r0, #64
 697 003e FFF7FEFF 		bl	nvicDisableVector
 698 0042 4120     		movs	r0, #65
 699 0044 FFF7FEFF 		bl	nvicDisableVector
 700 0048 4220     		movs	r0, #66
 701 004a FFF7FEFF 		bl	nvicDisableVector
 702 004e 4FF46053 		mov	r3, #14336
 703 0052 C4F20203 		movt	r3, 16386
 704 0056 1A6C     		ldr	r2, [r3, #64]
 705 0058 22F08062 		bic	r2, r2, #67108864
 706 005c 1A64     		str	r2, [r3, #64]
 707 005e D3E7     		b	.L85
 708              	.L93:
 709 0060 1B78     		ldrb	r3, [r3]	@ zero_extendqisi2
 710 0062 012B     		cmp	r3, #1
 711 0064 05D0     		beq	.L88
 712 0066 40F20000 		movw	r0, #:lower16:.LC1
 713 006a C0F20000 		movt	r0, #:upper16:.LC1
 714 006e FFF7FEFF 		bl	chDbgPanic
 715              	.L88:
 716 0072 4FF4C843 		mov	r3, #25600
 717 0076 C4F20003 		movt	r3, 16384
 718 007a 0222     		movs	r2, #2
 719 007c C0F20102 		movt	r2, 1
 720 0080 0021     		movs	r1, #0
 721 0082 1A60     		str	r2, [r3]
 722 0084 1320     		movs	r0, #19
 723 0086 5961     		str	r1, [r3, #20]
 724 0088 FFF7FEFF 		bl	nvicDisableVector
 725 008c 1420     		movs	r0, #20
 726 008e FFF7FEFF 		bl	nvicDisableVector
 727 0092 1520     		movs	r0, #21
 728 0094 FFF7FEFF 		bl	nvicDisableVector
 729 0098 1620     		movs	r0, #22
 730 009a FFF7FEFF 		bl	nvicDisableVector
 731 009e 4FF46053 		mov	r3, #14336
 732 00a2 C4F20203 		movt	r3, 16386
ARM GAS  C:\Users\pc\AppData\Local\Temp\cciXJ97z.s 			page 14


 733 00a6 1A6C     		ldr	r2, [r3, #64]
 734 00a8 22F00072 		bic	r2, r2, #33554432
 735 00ac 1A64     		str	r2, [r3, #64]
 736 00ae 08BD     		pop	{r3, pc}
 737              		.size	can_lld_stop, .-can_lld_stop
 738              		.section	.text.can_lld_is_tx_empty,"ax",%progbits
 739              		.align	2
 740              		.p2align 4,,15
 741              		.global	can_lld_is_tx_empty
 742              		.thumb
 743              		.thumb_func
 744              		.type	can_lld_is_tx_empty, %function
 745              	can_lld_is_tx_empty:
 746              		@ args = 0, pretend = 0, frame = 0
 747              		@ frame_needed = 0, uses_anonymous_args = 0
 748              		@ link register save eliminated.
 749 0000 0329     		cmp	r1, #3
 750 0002 1AD8     		bhi	.L101
 751 0004 DFE801F0 		tbb	[pc, r1]
 752              	.L97:
 753 0008 11       		.byte	(.L96-.L97)/2
 754 0009 0C       		.byte	(.L98-.L97)/2
 755 000a 07       		.byte	(.L99-.L97)/2
 756 000b 02       		.byte	(.L100-.L97)/2
 757              		.align	1
 758              	.L100:
 759 000c 436B     		ldr	r3, [r0, #52]
 760 000e 9868     		ldr	r0, [r3, #8]
 761 0010 C0F30070 		ubfx	r0, r0, #28, #1
 762 0014 7047     		bx	lr
 763              	.L99:
 764 0016 436B     		ldr	r3, [r0, #52]
 765 0018 9868     		ldr	r0, [r3, #8]
 766 001a C0F3C060 		ubfx	r0, r0, #27, #1
 767 001e 7047     		bx	lr
 768              	.L98:
 769 0020 436B     		ldr	r3, [r0, #52]
 770 0022 9868     		ldr	r0, [r3, #8]
 771 0024 C0F38060 		ubfx	r0, r0, #26, #1
 772 0028 7047     		bx	lr
 773              	.L96:
 774 002a 436B     		ldr	r3, [r0, #52]
 775 002c 9B68     		ldr	r3, [r3, #8]
 776 002e 13F0E05F 		tst	r3, #469762048
 777 0032 0CBF     		ite	eq
 778 0034 0020     		moveq	r0, #0
 779 0036 0120     		movne	r0, #1
 780 0038 7047     		bx	lr
 781              	.L101:
 782 003a 0020     		movs	r0, #0
 783 003c 7047     		bx	lr
 784              		.size	can_lld_is_tx_empty, .-can_lld_is_tx_empty
 785 003e 00BF     		.section	.text.can_lld_transmit,"ax",%progbits
 786              		.align	2
 787              		.p2align 4,,15
 788              		.global	can_lld_transmit
 789              		.thumb
ARM GAS  C:\Users\pc\AppData\Local\Temp\cciXJ97z.s 			page 15


 790              		.thumb_func
 791              		.type	can_lld_transmit, %function
 792              	can_lld_transmit:
 793              		@ args = 0, pretend = 0, frame = 0
 794              		@ frame_needed = 0, uses_anonymous_args = 0
 795              		@ link register save eliminated.
 796 0000 10B4     		push	{r4}
 797 0002 0329     		cmp	r1, #3
 798 0004 25D8     		bhi	.L102
 799 0006 DFE801F0 		tbb	[pc, r1]
 800              	.L105:
 801 000a 2F       		.byte	(.L104-.L105)/2
 802 000b 2B       		.byte	(.L106-.L105)/2
 803 000c 27       		.byte	(.L107-.L105)/2
 804 000d 02       		.byte	(.L108-.L105)/2
 805              		.align	1
 806              	.L108:
 807 000e 436B     		ldr	r3, [r0, #52]
 808 0010 03F5D073 		add	r3, r3, #416
 809              	.L109:
 810 0014 1178     		ldrb	r1, [r2]	@ zero_extendqisi2
 811 0016 8806     		lsls	r0, r1, #26
 812 0018 4CBF     		ite	mi
 813 001a C1F30010 		ubfxmi	r0, r1, #4, #1
 814 001e C1F30010 		ubfxpl	r0, r1, #4, #1
 815 0022 01F00F01 		and	r1, r1, #15
 816 0026 54BF     		ite	pl
 817 0028 9488     		ldrhpl	r4, [r2, #4]
 818 002a 5468     		ldrmi	r4, [r2, #4]
 819 002c 5960     		str	r1, [r3, #4]
 820 002e 9168     		ldr	r1, [r2, #8]
 821 0030 48BF     		it	mi
 822 0032 4000     		lslmi	r0, r0, #1
 823 0034 9960     		str	r1, [r3, #8]
 824 0036 4CBF     		ite	mi
 825 0038 40EAC400 		orrmi	r0, r0, r4, lsl #3
 826 003c 6405     		lslpl	r4, r4, #21
 827 003e D168     		ldr	r1, [r2, #12]
 828 0040 4CBF     		ite	mi
 829 0042 40F00400 		orrmi	r0, r0, #4
 830 0046 44EA4000 		orrpl	r0, r4, r0, lsl #1
 831 004a 40F00102 		orr	r2, r0, #1
 832 004e D960     		str	r1, [r3, #12]
 833 0050 1A60     		str	r2, [r3]
 834              	.L102:
 835 0052 5DF8044B 		ldr	r4, [sp], #4
 836 0056 7047     		bx	lr
 837              	.L107:
 838 0058 436B     		ldr	r3, [r0, #52]
 839 005a 03F5C873 		add	r3, r3, #400
 840 005e D9E7     		b	.L109
 841              	.L106:
 842 0060 436B     		ldr	r3, [r0, #52]
 843 0062 03F5C073 		add	r3, r3, #384
 844 0066 D5E7     		b	.L109
 845              	.L104:
 846 0068 416B     		ldr	r1, [r0, #52]
ARM GAS  C:\Users\pc\AppData\Local\Temp\cciXJ97z.s 			page 16


 847 006a 8B68     		ldr	r3, [r1, #8]
 848 006c C3F30163 		ubfx	r3, r3, #24, #2
 849 0070 1833     		adds	r3, r3, #24
 850 0072 01EB0313 		add	r3, r1, r3, lsl #4
 851 0076 CDE7     		b	.L109
 852              		.size	can_lld_transmit, .-can_lld_transmit
 853 0078 AFF30080 		.section	.text.can_lld_is_rx_nonempty,"ax",%progbits
 853      AFF30080 
 854              		.align	2
 855              		.p2align 4,,15
 856              		.global	can_lld_is_rx_nonempty
 857              		.thumb
 858              		.thumb_func
 859              		.type	can_lld_is_rx_nonempty, %function
 860              	can_lld_is_rx_nonempty:
 861              		@ args = 0, pretend = 0, frame = 0
 862              		@ frame_needed = 0, uses_anonymous_args = 0
 863              		@ link register save eliminated.
 864 0000 0129     		cmp	r1, #1
 865 0002 11D0     		beq	.L114
 866 0004 0AD3     		bcc	.L115
 867 0006 0229     		cmp	r1, #2
 868 0008 06D1     		bne	.L122
 869 000a 436B     		ldr	r3, [r0, #52]
 870              	.L121:
 871 000c 1869     		ldr	r0, [r3, #16]
 872 000e 10F00300 		ands	r0, r0, #3
 873 0012 18BF     		it	ne
 874 0014 0120     		movne	r0, #1
 875 0016 7047     		bx	lr
 876              	.L122:
 877 0018 0020     		movs	r0, #0
 878 001a 7047     		bx	lr
 879              	.L115:
 880 001c 436B     		ldr	r3, [r0, #52]
 881 001e DA68     		ldr	r2, [r3, #12]
 882 0020 9207     		lsls	r2, r2, #30
 883 0022 F3D0     		beq	.L121
 884 0024 0120     		movs	r0, #1
 885 0026 7047     		bx	lr
 886              	.L114:
 887 0028 436B     		ldr	r3, [r0, #52]
 888 002a D868     		ldr	r0, [r3, #12]
 889 002c 10F00300 		ands	r0, r0, #3
 890 0030 18BF     		it	ne
 891 0032 0120     		movne	r0, #1
 892 0034 7047     		bx	lr
 893              		.size	can_lld_is_rx_nonempty, .-can_lld_is_rx_nonempty
 894 0036 00BFAFF3 		.section	.text.can_lld_receive,"ax",%progbits
 894      0080AFF3 
 894      0080
 895              		.align	2
 896              		.p2align 4,,15
 897              		.global	can_lld_receive
 898              		.thumb
 899              		.thumb_func
 900              		.type	can_lld_receive, %function
ARM GAS  C:\Users\pc\AppData\Local\Temp\cciXJ97z.s 			page 17


 901              	can_lld_receive:
 902              		@ args = 0, pretend = 0, frame = 0
 903              		@ frame_needed = 0, uses_anonymous_args = 0
 904              		@ link register save eliminated.
 905 0000 10B4     		push	{r4}
 906 0002 0029     		cmp	r1, #0
 907 0004 30D1     		bne	.L124
 908 0006 436B     		ldr	r3, [r0, #52]
 909 0008 D968     		ldr	r1, [r3, #12]
 910 000a 8907     		lsls	r1, r1, #30
 911 000c 35D0     		beq	.L133
 912              	.L125:
 913 000e D3F8B041 		ldr	r4, [r3, #432]
 914 0012 D3F8B411 		ldr	r1, [r3, #436]
 915 0016 D3F8B831 		ldr	r3, [r3, #440]
 916 001a D360     		str	r3, [r2, #12]
 917 001c 436B     		ldr	r3, [r0, #52]
 918 001e D3F8BC31 		ldr	r3, [r3, #444]
 919 0022 1361     		str	r3, [r2, #16]
 920 0024 436B     		ldr	r3, [r0, #52]
 921 0026 2020     		movs	r0, #32
 922 0028 D860     		str	r0, [r3, #12]
 923 002a D868     		ldr	r0, [r3, #12]
 924 002c 8007     		lsls	r0, r0, #30
 925 002e 43D0     		beq	.L134
 926              	.L130:
 927 0030 1079     		ldrb	r0, [r2, #4]	@ zero_extendqisi2
 928 0032 C4F34003 		ubfx	r3, r4, #1, #1
 929 0036 63F30410 		bfi	r0, r3, #4, #1
 930 003a C4F38003 		ubfx	r3, r4, #2, #1
 931 003e 63F34510 		bfi	r0, r3, #5, #1
 932 0042 1071     		strb	r0, [r2, #4]
 933 0044 002B     		cmp	r3, #0
 934 0046 31D0     		beq	.L131
 935 0048 9368     		ldr	r3, [r2, #8]
 936 004a E408     		lsrs	r4, r4, #3
 937 004c 64F31C03 		bfi	r3, r4, #0, #29
 938 0050 9360     		str	r3, [r2, #8]
 939              	.L132:
 940 0052 1379     		ldrb	r3, [r2, #4]	@ zero_extendqisi2
 941 0054 5DF8044B 		ldr	r4, [sp], #4
 942 0058 080A     		lsrs	r0, r1, #8
 943 005a 61F30303 		bfi	r3, r1, #0, #4
 944 005e 090C     		lsrs	r1, r1, #16
 945 0060 1371     		strb	r3, [r2, #4]
 946 0062 1070     		strb	r0, [r2]
 947 0064 5180     		strh	r1, [r2, #2]	@ movhi
 948 0066 7047     		bx	lr
 949              	.L124:
 950 0068 0129     		cmp	r1, #1
 951 006a 2AD0     		beq	.L128
 952 006c 0229     		cmp	r1, #2
 953 006e 08BF     		it	eq
 954 0070 436B     		ldreq	r3, [r0, #52]
 955 0072 05D0     		beq	.L126
 956              	.L123:
 957 0074 5DF8044B 		ldr	r4, [sp], #4
ARM GAS  C:\Users\pc\AppData\Local\Temp\cciXJ97z.s 			page 18


 958 0078 7047     		bx	lr
 959              	.L133:
 960 007a 1969     		ldr	r1, [r3, #16]
 961 007c 8C07     		lsls	r4, r1, #30
 962 007e F9D0     		beq	.L123
 963              	.L126:
 964 0080 D3F8C041 		ldr	r4, [r3, #448]
 965 0084 D3F8C411 		ldr	r1, [r3, #452]
 966 0088 D3F8C831 		ldr	r3, [r3, #456]
 967 008c D360     		str	r3, [r2, #12]
 968 008e 436B     		ldr	r3, [r0, #52]
 969 0090 D3F8CC31 		ldr	r3, [r3, #460]
 970 0094 1361     		str	r3, [r2, #16]
 971 0096 436B     		ldr	r3, [r0, #52]
 972 0098 2020     		movs	r0, #32
 973 009a 1861     		str	r0, [r3, #16]
 974 009c 1869     		ldr	r0, [r3, #16]
 975 009e 8007     		lsls	r0, r0, #30
 976 00a0 02BF     		ittt	eq
 977 00a2 5869     		ldreq	r0, [r3, #20]
 978 00a4 40F01000 		orreq	r0, r0, #16
 979 00a8 5861     		streq	r0, [r3, #20]
 980 00aa C1E7     		b	.L130
 981              	.L131:
 982 00ac 1389     		ldrh	r3, [r2, #8]
 983 00ae 640D     		lsrs	r4, r4, #21
 984 00b0 64F30A03 		bfi	r3, r4, #0, #11
 985 00b4 1381     		strh	r3, [r2, #8]	@ movhi
 986 00b6 CCE7     		b	.L132
 987              	.L134:
 988 00b8 5869     		ldr	r0, [r3, #20]
 989 00ba 40F00200 		orr	r0, r0, #2
 990 00be 5861     		str	r0, [r3, #20]
 991 00c0 B6E7     		b	.L130
 992              	.L128:
 993 00c2 436B     		ldr	r3, [r0, #52]
 994 00c4 A3E7     		b	.L125
 995              		.size	can_lld_receive, .-can_lld_receive
 996 00c6 00BFAFF3 		.section	.text.can_lld_sleep,"ax",%progbits
 996      0080AFF3 
 996      0080
 997              		.align	2
 998              		.p2align 4,,15
 999              		.global	can_lld_sleep
 1000              		.thumb
 1001              		.thumb_func
 1002              		.type	can_lld_sleep, %function
 1003              	can_lld_sleep:
 1004              		@ args = 0, pretend = 0, frame = 0
 1005              		@ frame_needed = 0, uses_anonymous_args = 0
 1006              		@ link register save eliminated.
 1007 0000 436B     		ldr	r3, [r0, #52]
 1008 0002 1A68     		ldr	r2, [r3]
 1009 0004 42F00202 		orr	r2, r2, #2
 1010 0008 1A60     		str	r2, [r3]
 1011 000a 7047     		bx	lr
 1012              		.size	can_lld_sleep, .-can_lld_sleep
ARM GAS  C:\Users\pc\AppData\Local\Temp\cciXJ97z.s 			page 19


 1013 000c AFF30080 		.section	.text.can_lld_wakeup,"ax",%progbits
 1014              		.align	2
 1015              		.p2align 4,,15
 1016              		.global	can_lld_wakeup
 1017              		.thumb
 1018              		.thumb_func
 1019              		.type	can_lld_wakeup, %function
 1020              	can_lld_wakeup:
 1021              		@ args = 0, pretend = 0, frame = 0
 1022              		@ frame_needed = 0, uses_anonymous_args = 0
 1023              		@ link register save eliminated.
 1024 0000 436B     		ldr	r3, [r0, #52]
 1025 0002 1A68     		ldr	r2, [r3]
 1026 0004 22F00202 		bic	r2, r2, #2
 1027 0008 1A60     		str	r2, [r3]
 1028 000a 7047     		bx	lr
 1029              		.size	can_lld_wakeup, .-can_lld_wakeup
 1030 000c AFF30080 		.section	.text.canSTM32SetFilters,"ax",%progbits
 1031              		.align	2
 1032              		.p2align 4,,15
 1033              		.global	canSTM32SetFilters
 1034              		.thumb
 1035              		.thumb_func
 1036              		.type	canSTM32SetFilters, %function
 1037              	canSTM32SetFilters:
 1038              		@ args = 0, pretend = 0, frame = 0
 1039              		@ frame_needed = 0, uses_anonymous_args = 0
 1040 0000 431E     		subs	r3, r0, #1
 1041 0002 1A2B     		cmp	r3, #26
 1042 0004 70B5     		push	{r4, r5, r6, lr}
 1043 0006 0446     		mov	r4, r0
 1044 0008 0D46     		mov	r5, r1
 1045 000a 1646     		mov	r6, r2
 1046 000c 22D8     		bhi	.L138
 1047 000e 1C29     		cmp	r1, #28
 1048 0010 20D8     		bhi	.L138
 1049              	.L139:
 1050 0012 40F20003 		movw	r3, #:lower16:.LANCHOR0
 1051 0016 C0F20003 		movt	r3, #:upper16:.LANCHOR0
 1052 001a 1B78     		ldrb	r3, [r3]	@ zero_extendqisi2
 1053 001c 012B     		cmp	r3, #1
 1054 001e 05D0     		beq	.L140
 1055 0020 40F20000 		movw	r0, #:lower16:.LC4
 1056 0024 C0F20000 		movt	r0, #:upper16:.LC4
 1057 0028 FFF7FEFF 		bl	chDbgPanic
 1058              	.L140:
 1059 002c 40F20003 		movw	r3, #:lower16:.LANCHOR1
 1060 0030 C0F20003 		movt	r3, #:upper16:.LANCHOR1
 1061 0034 1B78     		ldrb	r3, [r3]	@ zero_extendqisi2
 1062 0036 012B     		cmp	r3, #1
 1063 0038 05D0     		beq	.L141
 1064 003a 40F20000 		movw	r0, #:lower16:.LC5
 1065 003e C0F20000 		movt	r0, #:upper16:.LC5
 1066 0042 FFF7FEFF 		bl	chDbgPanic
 1067              	.L141:
 1068 0046 2046     		mov	r0, r4
 1069 0048 2946     		mov	r1, r5
ARM GAS  C:\Users\pc\AppData\Local\Temp\cciXJ97z.s 			page 20


 1070 004a 3246     		mov	r2, r6
 1071 004c BDE87040 		pop	{r4, r5, r6, lr}
 1072 0050 FFF7FEBF 		b	can_lld_set_filters
 1073              	.L138:
 1074 0054 40F20000 		movw	r0, #:lower16:.LC2
 1075 0058 40F20001 		movw	r1, #:lower16:.LC3
 1076 005c C0F20000 		movt	r0, #:upper16:.LC2
 1077 0060 C0F20001 		movt	r1, #:upper16:.LC3
 1078 0064 40F2C522 		movw	r2, #709
 1079 0068 FFF7FEFF 		bl	chDbgPanic3
 1080 006c D1E7     		b	.L139
 1081              		.size	canSTM32SetFilters, .-canSTM32SetFilters
 1082              		.global	CAND2
 1083              		.global	CAND1
 1084 006e 00BF     		.section	.bss.CAND1,"aw",%nobits
 1085              		.align	2
 1086              		.set	.LANCHOR0,. + 0
 1087              		.type	CAND1, %object
 1088              		.size	CAND1, 56
 1089              	CAND1:
 1090 0000 00000000 		.space	56
 1090      00000000 
 1090      00000000 
 1090      00000000 
 1090      00000000 
 1091              		.section	.bss.CAND2,"aw",%nobits
 1092              		.align	2
 1093              		.set	.LANCHOR1,. + 0
 1094              		.type	CAND2, %object
 1095              		.size	CAND2, 56
 1096              	CAND2:
 1097 0000 00000000 		.space	56
 1097      00000000 
 1097      00000000 
 1097      00000000 
 1097      00000000 
 1098              		.section	.rodata.str1.4,"aMS",%progbits,1
 1099              		.align	2
 1100              	.LC0:
 1101 0000 63616E5F 		.ascii	"can_lld_start(), #1\000"
 1101      6C6C645F 
 1101      73746172 
 1101      7428292C 
 1101      20233100 
 1102              	.LC1:
 1103 0014 63616E5F 		.ascii	"can_lld_stop(), #1\000"
 1103      6C6C645F 
 1103      73746F70 
 1103      28292C20 
 1103      233100
 1104 0027 00       		.space	1
 1105              	.LC2:
 1106 0028 2263616E 		.ascii	"\"canSTM32SetFilters\"()\000"
 1106      53544D33 
 1106      32536574 
 1106      46696C74 
 1106      65727322 
ARM GAS  C:\Users\pc\AppData\Local\Temp\cciXJ97z.s 			page 21


 1107 003f 00       		.space	1
 1108              	.LC3:
 1109 0040 63686962 		.ascii	"chibios/os/hal/platforms/STM32/can_lld.c\000"
 1109      696F732F 
 1109      6F732F68 
 1109      616C2F70 
 1109      6C617466 
 1110 0069 000000   		.space	3
 1111              	.LC4:
 1112 006c 63616E53 		.ascii	"canSTM32SetFilters(), #1\000"
 1112      544D3332 
 1112      53657446 
 1112      696C7465 
 1112      72732829 
 1113 0085 000000   		.space	3
 1114              	.LC5:
 1115 0088 63616E53 		.ascii	"canSTM32SetFilters(), #2\000"
 1115      544D3332 
 1115      53657446 
 1115      696C7465 
 1115      72732829 
 1116 00a1 000000   		.ident	"GCC: (Sourcery CodeBench Lite 2013.11-24) 4.8.1"
ARM GAS  C:\Users\pc\AppData\Local\Temp\cciXJ97z.s 			page 22

