ARM GAS  C:\Users\pc\AppData\Local\Temp\ccwcVCAm.s 			page 1


   1              		.syntax unified
   2              		.cpu cortex-m4
   3              		.eabi_attribute 27, 3
   4              		.fpu fpv4-sp-d16
   5              		.eabi_attribute 20, 1
   6              		.eabi_attribute 21, 1
   7              		.eabi_attribute 23, 3
   8              		.eabi_attribute 24, 1
   9              		.eabi_attribute 25, 1
  10              		.eabi_attribute 26, 1
  11              		.eabi_attribute 30, 2
  12              		.eabi_attribute 34, 1
  13              		.eabi_attribute 18, 4
  14              		.thumb
  15              		.file	"can_hw.cpp"
  16              		.section	.text._ZL7canInfov,"ax",%progbits
  17              		.align	2
  18              		.p2align 4,,15
  19              		.thumb
  20              		.thumb_func
  21              		.type	_ZL7canInfov, %function
  22              	_ZL7canInfov:
  23              		@ args = 0, pretend = 0, frame = 0
  24              		@ frame_needed = 0, uses_anonymous_args = 0
  25 0000 F0B5     		push	{r4, r5, r6, r7, lr}
  26 0002 40F20005 		movw	r5, #:lower16:boardConfiguration
  27 0006 C0F20005 		movt	r5, #:upper16:boardConfiguration
  28 000a 83B0     		sub	sp, sp, #12
  29 000c 2B68     		ldr	r3, [r5]
  30 000e D3F85801 		ldr	r0, [r3, #344]
  31 0012 FFF7FEFF 		bl	_Z10hwPortname11brain_pin_e
  32 0016 40F20004 		movw	r4, #:lower16:.LANCHOR0
  33 001a C0F20004 		movt	r4, #:upper16:.LANCHOR0
  34 001e 40F20001 		movw	r1, #:lower16:.LC0
  35 0022 0246     		mov	r2, r0
  36 0024 C0F20001 		movt	r1, #:upper16:.LC0
  37 0028 2046     		mov	r0, r4
  38 002a FFF7FEFF 		bl	scheduleMsg
  39 002e 2B68     		ldr	r3, [r5]
  40 0030 D3F85C01 		ldr	r0, [r3, #348]
  41 0034 FFF7FEFF 		bl	_Z10hwPortname11brain_pin_e
  42 0038 40F20005 		movw	r5, #:lower16:engineConfiguration
  43 003c C0F20005 		movt	r5, #:upper16:engineConfiguration
  44 0040 40F20001 		movw	r1, #:lower16:.LC1
  45 0044 0246     		mov	r2, r0
  46 0046 C0F20001 		movt	r1, #:upper16:.LC1
  47 004a 2046     		mov	r0, r4
  48 004c FFF7FEFF 		bl	scheduleMsg
  49 0050 2B68     		ldr	r3, [r5]
  50 0052 93F8D905 		ldrb	r0, [r3, #1497]	@ zero_extendqisi2
  51 0056 D3F8EC71 		ldr	r7, [r3, #492]
  52 005a 00F00100 		and	r0, r0, #1
  53 005e FFF7FEFF 		bl	_Z12boolToStringb
  54 0062 2968     		ldr	r1, [r5]
  55 0064 0646     		mov	r6, r0
  56 0066 91F8D905 		ldrb	r0, [r1, #1497]	@ zero_extendqisi2
  57 006a C0F34000 		ubfx	r0, r0, #1, #1
ARM GAS  C:\Users\pc\AppData\Local\Temp\ccwcVCAm.s 			page 2


  58 006e FFF7FEFF 		bl	_Z12boolToStringb
  59 0072 2B68     		ldr	r3, [r5]
  60 0074 0090     		str	r0, [sp]
  61 0076 D3F8F051 		ldr	r5, [r3, #496]
  62 007a 40F20001 		movw	r1, #:lower16:.LC2
  63 007e 3A46     		mov	r2, r7
  64 0080 0195     		str	r5, [sp, #4]
  65 0082 3346     		mov	r3, r6
  66 0084 2046     		mov	r0, r4
  67 0086 C0F20001 		movt	r1, #:upper16:.LC2
  68 008a FFF7FEFF 		bl	scheduleMsg
  69 008e 40F20001 		movw	r1, #:lower16:.LANCHOR3
  70 0092 C0F20001 		movt	r1, #:upper16:.LANCHOR3
  71 0096 40F20002 		movw	r2, #:lower16:.LANCHOR1
  72 009a 40F20003 		movw	r3, #:lower16:.LANCHOR2
  73 009e 0D68     		ldr	r5, [r1]
  74 00a0 C0F20002 		movt	r2, #:upper16:.LANCHOR1
  75 00a4 C0F20003 		movt	r3, #:upper16:.LANCHOR2
  76 00a8 40F20001 		movw	r1, #:lower16:.LC3
  77 00ac 1268     		ldr	r2, [r2]
  78 00ae 1B68     		ldr	r3, [r3]
  79 00b0 0095     		str	r5, [sp]
  80 00b2 2046     		mov	r0, r4
  81 00b4 C0F20001 		movt	r1, #:upper16:.LC3
  82 00b8 FFF7FEFF 		bl	scheduleMsg
  83 00bc 03B0     		add	sp, sp, #12
  84              		@ sp needed
  85 00be F0BD     		pop	{r4, r5, r6, r7, pc}
  86              		.size	_ZL7canInfov, .-_ZL7canInfov
  87              		.section	.text._Z8setTxBitii,"ax",%progbits
  88              		.align	2
  89              		.p2align 4,,15
  90              		.global	_Z8setTxBitii
  91              		.thumb
  92              		.thumb_func
  93              		.type	_Z8setTxBitii, %function
  94              	_Z8setTxBitii:
  95              		@ args = 0, pretend = 0, frame = 0
  96              		@ frame_needed = 0, uses_anonymous_args = 0
  97              		@ link register save eliminated.
  98 0000 40F20003 		movw	r3, #:lower16:.LANCHOR4
  99 0004 C0F20003 		movt	r3, #:upper16:.LANCHOR4
 100 0008 0344     		add	r3, r3, r0
 101 000a 0120     		movs	r0, #1
 102 000c 1A7A     		ldrb	r2, [r3, #8]	@ zero_extendqisi2
 103 000e 00FA01F1 		lsl	r1, r0, r1
 104 0012 0A43     		orrs	r2, r2, r1
 105 0014 1A72     		strb	r2, [r3, #8]
 106 0016 7047     		bx	lr
 107              		.size	_Z8setTxBitii, .-_Z8setTxBitii
 108 0018 AFF30080 		.section	.text._Z12commonTxIniti,"ax",%progbits
 108      AFF30080 
 109              		.align	2
 110              		.p2align 4,,15
 111              		.global	_Z12commonTxIniti
 112              		.thumb
 113              		.thumb_func
ARM GAS  C:\Users\pc\AppData\Local\Temp\ccwcVCAm.s 			page 3


 114              		.type	_Z12commonTxIniti, %function
 115              	_Z12commonTxIniti:
 116              		@ args = 0, pretend = 0, frame = 0
 117              		@ frame_needed = 0, uses_anonymous_args = 0
 118              		@ link register save eliminated.
 119 0000 40F20002 		movw	r2, #:lower16:.LANCHOR4
 120 0004 C0F20002 		movt	r2, #:upper16:.LANCHOR4
 121 0008 1346     		mov	r3, r2
 122 000a 0021     		movs	r1, #0
 123 000c 10B4     		push	{r4}
 124 000e 43F8041B 		str	r1, [r3], #4
 125 0012 0433     		adds	r3, r3, #4
 126 0014 0C46     		mov	r4, r1
 127 0016 43F8041B 		str	r1, [r3], #4
 128 001a 60F31C04 		bfi	r4, r0, #0, #29
 129 001e 1960     		str	r1, [r3]
 130 0020 0820     		movs	r0, #8
 131 0022 5460     		str	r4, [r2, #4]
 132 0024 1070     		strb	r0, [r2]
 133 0026 5DF8044B 		ldr	r4, [sp], #4
 134 002a 7047     		bx	lr
 135              		.size	_Z12commonTxIniti, .-_Z12commonTxIniti
 136 002c AFF30080 		.section	.text._Z12sendMessage2i,"ax",%progbits
 137              		.align	2
 138              		.p2align 4,,15
 139              		.global	_Z12sendMessage2i
 140              		.thumb
 141              		.thumb_func
 142              		.type	_Z12sendMessage2i, %function
 143              	_Z12sendMessage2i:
 144              		@ args = 0, pretend = 0, frame = 0
 145              		@ frame_needed = 0, uses_anonymous_args = 0
 146 0000 38B5     		push	{r3, r4, r5, lr}
 147 0002 40F20004 		movw	r4, #:lower16:.LANCHOR4
 148 0006 C0F20004 		movt	r4, #:upper16:.LANCHOR4
 149 000a 2246     		mov	r2, r4
 150 000c 2578     		ldrb	r5, [r4]	@ zero_extendqisi2
 151 000e 60F30305 		bfi	r5, r0, #0, #4
 152 0012 40F20000 		movw	r0, #:lower16:CAND2
 153 0016 C0F20000 		movt	r0, #:upper16:CAND2
 154 001a 0021     		movs	r1, #0
 155 001c 4FF0FF33 		mov	r3, #-1
 156 0020 2570     		strb	r5, [r4]
 157 0022 FFF7FEFF 		bl	canTransmit
 158 0026 38B1     		cbz	r0, .L8
 159 0028 40F20003 		movw	r3, #:lower16:.LANCHOR3
 160 002c C0F20003 		movt	r3, #:upper16:.LANCHOR3
 161 0030 1A68     		ldr	r2, [r3]
 162 0032 0132     		adds	r2, r2, #1
 163 0034 1A60     		str	r2, [r3]
 164 0036 38BD     		pop	{r3, r4, r5, pc}
 165              	.L8:
 166 0038 40F20003 		movw	r3, #:lower16:.LANCHOR2
 167 003c C0F20003 		movt	r3, #:upper16:.LANCHOR2
 168 0040 1A68     		ldr	r2, [r3]
 169 0042 0132     		adds	r2, r2, #1
 170 0044 1A60     		str	r2, [r3]
ARM GAS  C:\Users\pc\AppData\Local\Temp\ccwcVCAm.s 			page 4


 171 0046 38BD     		pop	{r3, r4, r5, pc}
 172              		.size	_Z12sendMessage2i, .-_Z12sendMessage2i
 173 0048 AFF30080 		.section	.text._ZL9canThreadPv,"ax",%progbits
 173      AFF30080 
 174              		.align	2
 175              		.p2align 4,,15
 176              		.thumb
 177              		.thumb_func
 178              		.type	_ZL9canThreadPv, %function
 179              	_ZL9canThreadPv:
 180              		@ args = 0, pretend = 0, frame = 24
 181              		@ frame_needed = 0, uses_anonymous_args = 0
 182 0000 2DE9F04F 		push	{r4, r5, r6, r7, r8, r9, r10, fp, lr}
 183 0004 2DED088B 		fstmfdd	sp!, {d8, d9, d10, d11}
 184 0008 40F20002 		movw	r2, #:lower16:rlist
 185 000c 8FB0     		sub	sp, sp, #60
 186 000e C0F20002 		movt	r2, #:upper16:rlist
 187 0012 40F20007 		movw	r7, #:lower16:engine
 188 0016 C0F20007 		movt	r7, #:upper16:engine
 189 001a 40F20005 		movw	r5, #:lower16:.LANCHOR4
 190 001e C0F20005 		movt	r5, #:upper16:.LANCHOR4
 191 0022 40F20003 		movw	r3, #:lower16:.LC4
 192 0026 9269     		ldr	r2, [r2, #24]
 193 0028 0C97     		str	r7, [sp, #48]
 194 002a 40F2000C 		movw	ip, #:lower16:.LANCHOR6
 195 002e 40F20007 		movw	r7, #:lower16:.LANCHOR7
 196 0032 05F10408 		add	r8, r5, #4
 197 0036 C0F20007 		movt	r7, #:upper16:.LANCHOR7
 198 003a C0F20003 		movt	r3, #:upper16:.LC4
 199 003e 40F20006 		movw	r6, #:lower16:engineConfiguration
 200 0042 40F2000A 		movw	r10, #:lower16:.LANCHOR5
 201 0046 40F20004 		movw	r4, #:lower16:.LANCHOR8
 202 004a 40F20009 		movw	r9, #:lower16:.LANCHOR1
 203 004e 05F1080B 		add	fp, r5, #8
 204 0052 C0F2000C 		movt	ip, #:upper16:.LANCHOR6
 205 0056 0D97     		str	r7, [sp, #52]
 206 0058 9FEDB88A 		flds	s16, .L30
 207 005c 4746     		mov	r7, r8
 208 005e DFEDB8AA 		flds	s21, .L30+4
 209 0062 9FEDB8AA 		flds	s20, .L30+8
 210 0066 9FEDB89A 		flds	s18, .L30+12
 211 006a DFEDB89A 		flds	s19, .L30+16
 212 006e 9FEDB8BA 		flds	s22, .L30+20
 213 0072 9361     		str	r3, [r2, #24]
 214 0074 C0F20006 		movt	r6, #:upper16:engineConfiguration
 215 0078 C0F2000A 		movt	r10, #:upper16:.LANCHOR5
 216 007c C0F20004 		movt	r4, #:upper16:.LANCHOR8
 217 0080 C0F20009 		movt	r9, #:upper16:.LANCHOR1
 218 0084 CDF82CB0 		str	fp, [sp, #44]
 219 0088 E046     		mov	r8, ip
 220 008a 18E0     		b	.L20
 221              	.L10:
 222 008c 93F8D925 		ldrb	r2, [r3, #1497]	@ zero_extendqisi2
 223 0090 D207     		lsls	r2, r2, #31
 224 0092 00F18E80 		bmi	.L27
 225              	.L16:
 226 0096 D3F8F021 		ldr	r2, [r3, #496]
ARM GAS  C:\Users\pc\AppData\Local\Temp\ccwcVCAm.s 			page 5


 227 009a 092A     		cmp	r2, #9
 228 009c 40F3DC80 		ble	.L18
 229              	.L29:
 230 00a0 4FF47A70 		mov	r0, #1000
 231 00a4 00FB02F0 		mul	r0, r0, r2
 232 00a8 44F6D353 		movw	r3, #19923
 233 00ac 0138     		subs	r0, r0, #1
 234 00ae C1F26203 		movt	r3, 4194
 235 00b2 A3FB0010 		umull	r1, r0, r3, r0
 236 00b6 8009     		lsrs	r0, r0, #6
 237 00b8 0130     		adds	r0, r0, #1
 238              	.L19:
 239 00ba FFF7FEFF 		bl	chThdSleep
 240              	.L20:
 241 00be 3268     		ldr	r2, [r6]
 242 00c0 92F8D915 		ldrb	r1, [r2, #1497]	@ zero_extendqisi2
 243 00c4 40F2000B 		movw	fp, #:lower16:engineConfiguration
 244 00c8 8907     		lsls	r1, r1, #30
 245 00ca C0F2000B 		movt	fp, #:upper16:engineConfiguration
 246 00ce 58BF     		it	pl
 247 00d0 1346     		movpl	r3, r2
 248 00d2 DBD5     		bpl	.L10
 249 00d4 0C99     		ldr	r1, [sp, #48]
 250 00d6 0868     		ldr	r0, [r1]
 251 00d8 FFF7FEFF 		bl	_ZN13RpmCalculator3rpmEv
 252 00dc DBF80030 		ldr	r3, [fp]
 253 00e0 CAF80000 		str	r0, [r10]
 254 00e4 D3F8EC21 		ldr	r2, [r3, #492]
 255 00e8 88ED008A 		fsts	s16, [r8]
 256 00ec 032A     		cmp	r2, #3
 257 00ee CDD8     		bhi	.L10
 258 00f0 DFE812F0 		tbh	[pc, r2, lsl #1]
 259              	.L12:
 260 00f4 3401     		.2byte	(.L11-.L12)/2
 261 00f6 FE00     		.2byte	(.L13-.L12)/2
 262 00f8 BF00     		.2byte	(.L14-.L12)/2
 263 00fa 0400     		.2byte	(.L15-.L12)/2
 264              	.L15:
 265 00fc 0023     		movs	r3, #0
 266 00fe 2B60     		str	r3, [r5]
 267 0100 3B60     		str	r3, [r7]
 268 0102 0D9F     		ldr	r7, [sp, #52]
 269 0104 6968     		ldr	r1, [r5, #4]
 270 0106 3868     		ldr	r0, [r7]
 271 0108 0B9F     		ldr	r7, [sp, #44]
 272 010a 2A78     		ldrb	r2, [r5]	@ zero_extendqisi2
 273 010c 3B60     		str	r3, [r7]
 274 010e 40F20127 		movw	r7, #513
 275 0112 67F31C01 		bfi	r1, r7, #0, #29
 276 0116 8F4F     		ldr	r7, .L30+24
 277 0118 6960     		str	r1, [r5, #4]
 278 011a 4FF0080B 		mov	fp, #8
 279 011e 3B60     		str	r3, [r7]
 280 0120 0D9F     		ldr	r7, [sp, #52]
 281 0122 6BF30302 		bfi	r2, fp, #0, #4
 282 0126 00EB0010 		add	r0, r0, r0, lsl #4
 283 012a 3860     		str	r0, [r7]
ARM GAS  C:\Users\pc\AppData\Local\Temp\ccwcVCAm.s 			page 6


 284 012c 2A70     		strb	r2, [r5]
 285 012e 0993     		str	r3, [sp, #36]
 286 0130 FFF7FEFF 		bl	_Z15getVehicleSpeedv
 287 0134 07EE100A 		fmsr	s14, r0
 288 0138 F0EE4A7A 		fcpys	s15, s20
 289 013c E7EE2A7A 		vfma.f32	s15, s14, s21
 290 0140 DAF80020 		ldr	r2, [r10]
 291 0144 099B     		ldr	r3, [sp, #36]
 292 0146 FDEEE77A 		ftosizs	s15, s15
 293 014a AB73     		strb	r3, [r5, #14]
 294 014c 17EE901A 		fmrs	r1, s15	@ int
 295 0150 01FA0BF0 		lsl	r0, r1, fp
 296 0154 40EA2121 		orr	r1, r0, r1, asr #8
 297 0158 42F39710 		sbfx	r0, r2, #6, #24
 298 015c 40EA8222 		orr	r2, r0, r2, lsl #10
 299 0160 41FA0BF0 		asr	r0, r1, fp
 300 0164 2973     		strb	r1, [r5, #12]
 301 0166 6873     		strb	r0, [r5, #13]
 302 0168 42FA0BF1 		asr	r1, r2, fp
 303 016c 5846     		mov	r0, fp
 304 016e 2A72     		strb	r2, [r5, #8]
 305 0170 FF22     		movs	r2, #255
 306 0172 EB73     		strb	r3, [r5, #15]
 307 0174 6972     		strb	r1, [r5, #9]
 308 0176 AA72     		strb	r2, [r5, #10]
 309 0178 EA72     		strb	r2, [r5, #11]
 310 017a FFF7FEFF 		bl	_Z12sendMessage2i
 311 017e 099B     		ldr	r3, [sp, #36]
 312 0180 754A     		ldr	r2, .L30+28
 313 0182 2B60     		str	r3, [r5]
 314 0184 1746     		mov	r7, r2
 315 0186 5360     		str	r3, [r2, #4]
 316 0188 0432     		adds	r2, r2, #4
 317 018a 4FF48461 		mov	r1, #1056
 318 018e 5360     		str	r3, [r2, #4]
 319 0190 0B92     		str	r2, [sp, #44]
 320 0192 0123     		movs	r3, #1
 321 0194 9822     		movs	r2, #152
 322 0196 5846     		mov	r0, fp
 323 0198 2A72     		strb	r2, [r5, #8]
 324 019a 2B73     		strb	r3, [r5, #12]
 325 019c 85F800B0 		strb	fp, [r5]
 326 01a0 6960     		str	r1, [r5, #4]
 327 01a2 FFF7FEFF 		bl	_Z12sendMessage2i
 328 01a6 3368     		ldr	r3, [r6]
 329 01a8 93F8D925 		ldrb	r2, [r3, #1497]	@ zero_extendqisi2
 330 01ac D207     		lsls	r2, r2, #31
 331 01ae 7FF572AF 		bpl	.L16
 332              	.L27:
 333 01b2 40F20000 		movw	r0, #:lower16:.LANCHOR0
 334 01b6 40F20001 		movw	r1, #:lower16:.LC5
 335 01ba C0F20000 		movt	r0, #:upper16:.LANCHOR0
 336 01be C0F20001 		movt	r1, #:upper16:.LC5
 337 01c2 40F2000B 		movw	fp, #:lower16:.LANCHOR8
 338 01c6 FFF7FEFF 		bl	scheduleMsg
 339 01ca C0F2000B 		movt	fp, #:upper16:.LANCHOR8
 340 01ce 40F20000 		movw	r0, #:lower16:CAND2
ARM GAS  C:\Users\pc\AppData\Local\Temp\ccwcVCAm.s 			page 7


 341 01d2 5A46     		mov	r2, fp
 342 01d4 0021     		movs	r1, #0
 343 01d6 4FF0FF33 		mov	r3, #-1
 344 01da C0F20000 		movt	r0, #:upper16:CAND2
 345 01de FFF7FEFF 		bl	canReceive
 346 01e2 207B     		ldrb	r0, [r4, #12]	@ zero_extendqisi2
 347 01e4 617B     		ldrb	r1, [r4, #13]	@ zero_extendqisi2
 348 01e6 0090     		str	r0, [sp]
 349 01e8 0191     		str	r1, [sp, #4]
 350 01ea A07B     		ldrb	r0, [r4, #14]	@ zero_extendqisi2
 351 01ec E17B     		ldrb	r1, [r4, #15]	@ zero_extendqisi2
 352 01ee 0290     		str	r0, [sp, #8]
 353 01f0 0391     		str	r1, [sp, #12]
 354 01f2 207C     		ldrb	r0, [r4, #16]	@ zero_extendqisi2
 355 01f4 617C     		ldrb	r1, [r4, #17]	@ zero_extendqisi2
 356 01f6 0490     		str	r0, [sp, #16]
 357 01f8 0591     		str	r1, [sp, #20]
 358 01fa A07C     		ldrb	r0, [r4, #18]	@ zero_extendqisi2
 359 01fc E17C     		ldrb	r1, [r4, #19]	@ zero_extendqisi2
 360 01fe D9F80020 		ldr	r2, [r9]
 361 0202 B4F808C0 		ldrh	ip, [r4, #8]
 362 0206 2379     		ldrb	r3, [r4, #4]	@ zero_extendqisi2
 363 0208 0690     		str	r0, [sp, #24]
 364 020a 0791     		str	r1, [sp, #28]
 365 020c 40F20000 		movw	r0, #:lower16:.LANCHOR0
 366 0210 40F20001 		movw	r1, #:lower16:.LC6
 367 0214 02F1010E 		add	lr, r2, #1
 368 0218 03F00F03 		and	r3, r3, #15
 369 021c CCF30A02 		ubfx	r2, ip, #0, #11
 370 0220 C0F20000 		movt	r0, #:upper16:.LANCHOR0
 371 0224 C0F20001 		movt	r1, #:upper16:.LC6
 372 0228 C9F800E0 		str	lr, [r9]
 373 022c FFF7FEFF 		bl	scheduleMsg
 374 0230 2289     		ldrh	r2, [r4, #8]
 375 0232 40F21363 		movw	r3, #1555
 376 0236 C2F30A02 		ubfx	r2, r2, #0, #11
 377 023a 9A42     		cmp	r2, r3
 378 023c 00F0DE80 		beq	.L28
 379              	.L17:
 380 0240 40F20000 		movw	r0, #:lower16:.LANCHOR8
 381 0244 C0F20000 		movt	r0, #:upper16:.LANCHOR8
 382 0248 FFF7FEFF 		bl	_Z16obdOnCanPacketRxP10CANRxFrame
 383 024c 3368     		ldr	r3, [r6]
 384 024e D3F8F021 		ldr	r2, [r3, #496]
 385 0252 092A     		cmp	r2, #9
 386 0254 3FF724AF 		bgt	.L29
 387              	.L18:
 388 0258 40F20001 		movw	r1, #:lower16:.LC10
 389 025c C0F20001 		movt	r1, #:upper16:.LC10
 390 0260 40F25E20 		movw	r0, #606
 391 0264 FFF7FEFF 		bl	warning
 392 0268 3368     		ldr	r3, [r6]
 393 026a 3220     		movs	r0, #50
 394 026c C3F8F001 		str	r0, [r3, #496]
 395 0270 23E7     		b	.L19
 396              	.L14:
 397 0272 0023     		movs	r3, #0
ARM GAS  C:\Users\pc\AppData\Local\Temp\ccwcVCAm.s 			page 8


 398 0274 2B60     		str	r3, [r5]
 399 0276 0B99     		ldr	r1, [sp, #44]
 400 0278 3B60     		str	r3, [r7]
 401 027a D5F804E0 		ldr	lr, [r5, #4]
 402 027e 0B60     		str	r3, [r1]
 403 0280 8100     		lsls	r1, r0, #2
 404 0282 4FF42070 		mov	r0, #640
 405 0286 2A78     		ldrb	r2, [r5]	@ zero_extendqisi2
 406 0288 60F31C0E 		bfi	lr, r0, #0, #29
 407 028c 3148     		ldr	r0, .L30+24
 408 028e C5F804E0 		str	lr, [r5, #4]
 409 0292 4FF0080B 		mov	fp, #8
 410 0296 0360     		str	r3, [r0]
 411 0298 6BF30302 		bfi	r2, fp, #0, #4
 412 029c 41FA0BF7 		asr	r7, r1, fp
 413 02a0 5846     		mov	r0, fp
 414 02a2 EF72     		strb	r7, [r5, #11]
 415 02a4 2A70     		strb	r2, [r5]
 416 02a6 0993     		str	r3, [sp, #36]
 417 02a8 A972     		strb	r1, [r5, #10]
 418 02aa FFF7FEFF 		bl	_Z12sendMessage2i
 419 02ae 98ED007A 		flds	s14, [r8]
 420 02b2 37EE097A 		fadds	s14, s14, s18
 421 02b6 F6EE087A 		fconsts	s15, #104
 422 02ba C7EE277A 		fdivs	s15, s14, s15
 423 02be 264F     		ldr	r7, .L30+28
 424 02c0 099B     		ldr	r3, [sp, #36]
 425 02c2 40F28922 		movw	r2, #649
 426 02c6 6A60     		str	r2, [r5, #4]
 427 02c8 3A1D     		adds	r2, r7, #4
 428 02ca 2B60     		str	r3, [r5]
 429 02cc 5846     		mov	r0, fp
 430 02ce 85F800B0 		strb	fp, [r5]
 431 02d2 7B60     		str	r3, [r7, #4]
 432 02d4 BB60     		str	r3, [r7, #8]
 433 02d6 0B92     		str	r2, [sp, #44]
 434              	.L26:
 435 02d8 FDEEE77A 		ftosizs	s15, s15
 436 02dc 17EE903A 		fmrs	r3, s15	@ int
 437 02e0 43FA00F2 		asr	r2, r3, r0
 438 02e4 6B72     		strb	r3, [r5, #9]
 439 02e6 AA72     		strb	r2, [r5, #10]
 440 02e8 FFF7FEFF 		bl	_Z12sendMessage2i
 441 02ec 3368     		ldr	r3, [r6]
 442 02ee CDE6     		b	.L10
 443              	.L13:
 444 02f0 0B99     		ldr	r1, [sp, #44]
 445 02f2 0023     		movs	r3, #0
 446 02f4 2B60     		str	r3, [r5]
 447 02f6 3B60     		str	r3, [r7]
 448 02f8 0B60     		str	r3, [r1]
 449 02fa 00F11F01 		add	r1, r0, #31
 450 02fe 9842     		cmp	r0, r3
 451 0300 A8BF     		it	ge
 452 0302 0146     		movge	r1, r0
 453 0304 1348     		ldr	r0, .L30+24
 454 0306 D5F804E0 		ldr	lr, [r5, #4]
ARM GAS  C:\Users\pc\AppData\Local\Temp\ccwcVCAm.s 			page 9


 455 030a 0360     		str	r3, [r0]
 456 030c 2A78     		ldrb	r2, [r5]	@ zero_extendqisi2
 457 030e 40F26153 		movw	r3, #1377
 458 0312 63F31C0E 		bfi	lr, r3, #0, #29
 459 0316 0820     		movs	r0, #8
 460 0318 5323     		movs	r3, #83
 461 031a 60F30302 		bfi	r2, r0, #0, #4
 462 031e C5F804E0 		str	lr, [r5, #4]
 463 0322 4FEA611E 		asr	lr, r1, #5
 464 0326 4913     		asrs	r1, r1, #13
 465 0328 EB72     		strb	r3, [r5, #11]
 466 032a 2A70     		strb	r2, [r5]
 467 032c 85F80EE0 		strb	lr, [r5, #14]
 468 0330 E973     		strb	r1, [r5, #15]
 469 0332 FFF7FEFF 		bl	_Z12sendMessage2i
 470 0336 3368     		ldr	r3, [r6]
 471 0338 A8E6     		b	.L10
 472              	.L31:
 473 033a 00BF     		.align	2
 474              	.L30:
 475 033c 0000F642 		.word	1123418112
 476 0340 0000C842 		.word	1120403456
 477 0344 00401C46 		.word	1176256512
 478 0348 F47D4142 		.word	1111588340
 479 034c CDCCCC40 		.word	1087163597
 480 0350 2B121F3F 		.word	1059000875
 481 0354 0C000000 		.word	.LANCHOR4+12
 482 0358 04000000 		.word	.LANCHOR4+4
 483              	.L11:
 484 035c 0023     		movs	r3, #0
 485 035e 0B9A     		ldr	r2, [sp, #44]
 486 0360 2B60     		str	r3, [r5]
 487 0362 3B60     		str	r3, [r7]
 488 0364 6F68     		ldr	r7, [r5, #4]
 489 0366 1360     		str	r3, [r2]
 490 0368 2978     		ldrb	r1, [r5]	@ zero_extendqisi2
 491 036a 404A     		ldr	r2, .L32
 492 036c 4FF0080B 		mov	fp, #8
 493 0370 40F25310 		movw	r0, #339
 494 0374 1360     		str	r3, [r2]
 495 0376 60F31C07 		bfi	r7, r0, #0, #29
 496 037a 6BF30301 		bfi	r1, fp, #0, #4
 497 037e 4FF0500E 		mov	lr, #80
 498 0382 5846     		mov	r0, fp
 499 0384 6F60     		str	r7, [r5, #4]
 500 0386 2970     		strb	r1, [r5]
 501 0388 85F809E0 		strb	lr, [r5, #9]
 502 038c 0993     		str	r3, [sp, #36]
 503 038e FFF7FEFF 		bl	_Z12sendMessage2i
 504 0392 9AED007A 		flds	s14, [r10]	@ int
 505 0396 F8EEC77A 		fsitos	s15, s14
 506 039a 099B     		ldr	r3, [sp, #36]
 507 039c 344A     		ldr	r2, .L32+4
 508 039e 2B60     		str	r3, [r5]
 509 03a0 67EEA97A 		fmuls	s15, s15, s19
 510 03a4 9360     		str	r3, [r2, #8]
 511 03a6 FDEEE77A 		ftosizs	s15, s15
ARM GAS  C:\Users\pc\AppData\Local\Temp\ccwcVCAm.s 			page 10


 512 03aa 5360     		str	r3, [r2, #4]
 513 03ac 17EE901A 		fmrs	r1, s15	@ int
 514 03b0 5846     		mov	r0, fp
 515 03b2 41FA0BF7 		asr	r7, r1, fp
 516 03b6 40F2163E 		movw	lr, #790
 517 03ba EF72     		strb	r7, [r5, #11]
 518 03bc A972     		strb	r1, [r5, #10]
 519 03be 0A92     		str	r2, [sp, #40]
 520 03c0 0993     		str	r3, [sp, #36]
 521 03c2 85F800B0 		strb	fp, [r5]
 522 03c6 C5F804E0 		str	lr, [r5, #4]
 523 03ca FFF7FEFF 		bl	_Z12sendMessage2i
 524 03ce 0A9A     		ldr	r2, [sp, #40]
 525 03d0 099B     		ldr	r3, [sp, #36]
 526 03d2 98ED007A 		flds	s14, [r8]
 527 03d6 1746     		mov	r7, r2
 528 03d8 37EE097A 		fadds	s14, s14, s18
 529 03dc 0432     		adds	r2, r2, #4
 530 03de F6EE087A 		fconsts	s15, #104
 531 03e2 40F22931 		movw	r1, #809
 532 03e6 2B60     		str	r3, [r5]
 533 03e8 C7EE277A 		fdivs	s15, s14, s15
 534 03ec 7B60     		str	r3, [r7, #4]
 535 03ee 5846     		mov	r0, fp
 536 03f0 0B92     		str	r2, [sp, #44]
 537 03f2 85F800B0 		strb	fp, [r5]
 538 03f6 6960     		str	r1, [r5, #4]
 539 03f8 5360     		str	r3, [r2, #4]
 540 03fa 6DE7     		b	.L26
 541              	.L28:
 542 03fc 9BF80D30 		ldrb	r3, [fp, #13]	@ zero_extendqisi2
 543 0400 9BF80C20 		ldrb	r2, [fp, #12]	@ zero_extendqisi2
 544 0404 9902     		lsls	r1, r3, #10
 545 0406 01EB0323 		add	r3, r1, r3, lsl #8
 546 040a 02EB4302 		add	r2, r2, r3, lsl #1
 547 040e 08EE902A 		fmsr	s17, r2	@ int
 548 0412 40F20000 		movw	r0, #:lower16:.LANCHOR0
 549 0416 40F20001 		movw	r1, #:lower16:.LC7
 550 041a C0F20000 		movt	r0, #:upper16:.LANCHOR0
 551 041e C0F20001 		movt	r1, #:upper16:.LC7
 552 0422 FFF7FEFF 		bl	scheduleMsg
 553 0426 F8EEE88A 		fsitos	s17, s17
 554 042a 40F20000 		movw	r0, #:lower16:.LANCHOR0
 555 042e 68EE8B8A 		fmuls	s17, s17, s22
 556 0432 40F20001 		movw	r1, #:lower16:.LC8
 557 0436 FDEEE88A 		ftosizs	s17, s17
 558 043a C0F20000 		movt	r0, #:upper16:.LANCHOR0
 559 043e 18EE902A 		fmrs	r2, s17	@ int
 560 0442 C0F20001 		movt	r1, #:upper16:.LC8
 561 0446 FFF7FEFF 		bl	scheduleMsg
 562 044a 9BF81020 		ldrb	r2, [fp, #16]	@ zero_extendqisi2
 563 044e 9BF80F30 		ldrb	r3, [fp, #15]	@ zero_extendqisi2
 564 0452 40F20000 		movw	r0, #:lower16:.LANCHOR0
 565 0456 40F20001 		movw	r1, #:lower16:.LC9
 566 045a 03EB0222 		add	r2, r3, r2, lsl #8
 567 045e C0F20000 		movt	r0, #:upper16:.LANCHOR0
 568 0462 C0F20001 		movt	r1, #:upper16:.LC9
ARM GAS  C:\Users\pc\AppData\Local\Temp\ccwcVCAm.s 			page 11


 569 0466 FFF7FEFF 		bl	scheduleMsg
 570 046a E9E6     		b	.L17
 571              	.L33:
 572              		.align	2
 573              	.L32:
 574 046c 0C000000 		.word	.LANCHOR4+12
 575 0470 04000000 		.word	.LANCHOR4+4
 576              		.size	_ZL9canThreadPv, .-_ZL9canThreadPv
 577 0474 AFF30080 		.section	.text._Z11sendMessagev,"ax",%progbits
 577      AFF30080 
 577      AFF30080 
 578              		.align	2
 579              		.p2align 4,,15
 580              		.global	_Z11sendMessagev
 581              		.thumb
 582              		.thumb_func
 583              		.type	_Z11sendMessagev, %function
 584              	_Z11sendMessagev:
 585              		@ args = 0, pretend = 0, frame = 0
 586              		@ frame_needed = 0, uses_anonymous_args = 0
 587              		@ link register save eliminated.
 588 0000 0820     		movs	r0, #8
 589 0002 FFF7FEBF 		b	_Z12sendMessage2i
 590              		.size	_Z11sendMessagev, .-_Z11sendMessagev
 591 0006 00BFAFF3 		.section	.text._Z7initCanv,"ax",%progbits
 591      0080AFF3 
 591      0080
 592              		.align	2
 593              		.p2align 4,,15
 594              		.global	_Z7initCanv
 595              		.thumb
 596              		.thumb_func
 597              		.type	_Z7initCanv, %function
 598              	_Z7initCanv:
 599              		@ args = 0, pretend = 0, frame = 0
 600              		@ frame_needed = 0, uses_anonymous_args = 0
 601 0000 10B5     		push	{r4, lr}
 602 0002 40F20003 		movw	r3, #:lower16:engineConfiguration
 603 0006 C0F20003 		movt	r3, #:upper16:engineConfiguration
 604 000a 82B0     		sub	sp, sp, #8
 605 000c 1B68     		ldr	r3, [r3]
 606 000e 93F8D835 		ldrb	r3, [r3, #1496]	@ zero_extendqisi2
 607 0012 5806     		lsls	r0, r3, #25
 608 0014 01D4     		bmi	.L37
 609 0016 02B0     		add	sp, sp, #8
 610              		@ sp needed
 611 0018 10BD     		pop	{r4, pc}
 612              	.L37:
 613 001a 40F20000 		movw	r0, #:lower16:CAND1
 614 001e 40F20001 		movw	r1, #:lower16:.LANCHOR9
 615 0022 C0F20000 		movt	r0, #:upper16:CAND1
 616 0026 C0F20001 		movt	r1, #:upper16:.LANCHOR9
 617 002a FFF7FEFF 		bl	canStart
 618 002e 40F20000 		movw	r0, #:lower16:CAND2
 619 0032 40F20001 		movw	r1, #:lower16:.LANCHOR9
 620 0036 C0F20000 		movt	r0, #:upper16:CAND2
 621 003a C0F20001 		movt	r1, #:upper16:.LANCHOR9
ARM GAS  C:\Users\pc\AppData\Local\Temp\ccwcVCAm.s 			page 12


 622 003e FFF7FEFF 		bl	canStart
 623 0042 40F20000 		movw	r0, #:lower16:CAND2
 624 0046 40F20001 		movw	r1, #:lower16:.LANCHOR9
 625 004a C0F20000 		movt	r0, #:upper16:CAND2
 626 004e C0F20001 		movt	r1, #:upper16:.LANCHOR9
 627 0052 40F20004 		movw	r4, #:lower16:boardConfiguration
 628 0056 FFF7FEFF 		bl	canStart
 629 005a C0F20004 		movt	r4, #:upper16:boardConfiguration
 630 005e 0022     		movs	r2, #0
 631 0060 40F20000 		movw	r0, #:lower16:.LANCHOR10
 632 0064 40F20003 		movw	r3, #:lower16:_ZL9canThreadPv
 633 0068 0092     		str	r2, [sp]
 634 006a C0F20003 		movt	r3, #:upper16:_ZL9canThreadPv
 635 006e 4FF43A71 		mov	r1, #744
 636 0072 4022     		movs	r2, #64
 637 0074 C0F20000 		movt	r0, #:upper16:.LANCHOR10
 638 0078 FFF7FEFF 		bl	chThdCreateStatic
 639 007c 2368     		ldr	r3, [r4]
 640 007e 40F20000 		movw	r0, #:lower16:.LC11
 641 0082 D3F85811 		ldr	r1, [r3, #344]
 642 0086 C0F20000 		movt	r0, #:upper16:.LC11
 643 008a 40F28242 		movw	r2, #1154
 644 008e FFF7FEFF 		bl	_Z13mySetPadMode2PKc11brain_pin_em
 645 0092 2368     		ldr	r3, [r4]
 646 0094 40F20000 		movw	r0, #:lower16:.LC12
 647 0098 D3F85C11 		ldr	r1, [r3, #348]
 648 009c C0F20000 		movt	r0, #:upper16:.LC12
 649 00a0 40F28242 		movw	r2, #1154
 650 00a4 FFF7FEFF 		bl	_Z13mySetPadMode2PKc11brain_pin_em
 651 00a8 40F20000 		movw	r0, #:lower16:.LC13
 652 00ac 40F20001 		movw	r1, #:lower16:_ZL7canInfov
 653 00b0 C0F20000 		movt	r0, #:upper16:.LC13
 654 00b4 C0F20001 		movt	r1, #:upper16:_ZL7canInfov
 655 00b8 02B0     		add	sp, sp, #8
 656              		@ sp needed
 657 00ba BDE81040 		pop	{r4, lr}
 658 00be FFF7FEBF 		b	addConsoleAction
 659              		.size	_Z7initCanv, .-_Z7initCanv
 660 00c2 00BFAFF3 		.section	.text.startup._GLOBAL__sub_I_txmsg,"ax",%progbits
 660      0080AFF3 
 660      0080AFF3 
 660      0080
 661              		.align	2
 662              		.p2align 4,,15
 663              		.thumb
 664              		.thumb_func
 665              		.type	_GLOBAL__sub_I_txmsg, %function
 666              	_GLOBAL__sub_I_txmsg:
 667              		@ args = 0, pretend = 0, frame = 0
 668              		@ frame_needed = 0, uses_anonymous_args = 0
 669              		@ link register save eliminated.
 670 0000 40F20000 		movw	r0, #:lower16:.LANCHOR0
 671 0004 40F20001 		movw	r1, #:lower16:.LC14
 672 0008 C0F20000 		movt	r0, #:upper16:.LANCHOR0
 673 000c C0F20001 		movt	r1, #:upper16:.LC14
 674 0010 FFF7FEBF 		b	_ZN18LoggingWithStorageC1EPKc
 675              		.size	_GLOBAL__sub_I_txmsg, .-_GLOBAL__sub_I_txmsg
ARM GAS  C:\Users\pc\AppData\Local\Temp\ccwcVCAm.s 			page 13


 676 0014 AFF30080 		.section	.init_array,"aw",%init_array
 676      AFF30080 
 676      AFF30080 
 677              		.align	2
 678 0000 00000000 		.word	_GLOBAL__sub_I_txmsg(target1)
 679              		.global	txmsg
 680              		.section	.bss._ZL8rxBuffer,"aw",%nobits
 681              		.align	2
 682              		.set	.LANCHOR8,. + 0
 683              		.type	_ZL8rxBuffer, %object
 684              		.size	_ZL8rxBuffer, 20
 685              	_ZL8rxBuffer:
 686 0000 00000000 		.space	20
 686      00000000 
 686      00000000 
 686      00000000 
 686      00000000 
 687              		.section	.bss.txmsg,"aw",%nobits
 688              		.align	2
 689              		.set	.LANCHOR4,. + 0
 690              		.type	txmsg, %object
 691              		.size	txmsg, 16
 692              	txmsg:
 693 0000 00000000 		.space	16
 693      00000000 
 693      00000000 
 693      00000000 
 694              		.section	.rodata._ZL9canConfig,"a",%progbits
 695              		.align	2
 696              		.set	.LANCHOR9,. + 0
 697              		.type	_ZL9canConfig, %object
 698              		.size	_ZL9canConfig, 8
 699              	_ZL9canConfig:
 700 0000 64000000 		.word	100
 701 0004 06001800 		.word	1572870
 702              		.section	.bss._ZL10engine_clt,"aw",%nobits
 703              		.align	2
 704              		.set	.LANCHOR6,. + 0
 705              		.type	_ZL10engine_clt, %object
 706              		.size	_ZL10engine_clt, 4
 707              	_ZL10engine_clt:
 708 0000 00000000 		.space	4
 709              		.section	.bss._ZL13canWriteNotOk,"aw",%nobits
 710              		.align	2
 711              		.set	.LANCHOR3,. + 0
 712              		.type	_ZL13canWriteNotOk, %object
 713              		.size	_ZL13canWriteNotOk, 4
 714              	_ZL13canWriteNotOk:
 715 0000 00000000 		.space	4
 716              		.section	.bss._ZL13canTreadStack,"aw",%nobits
 717              		.align	3
 718              		.set	.LANCHOR10,. + 0
 719              		.type	_ZL13canTreadStack, %object
 720              		.size	_ZL13canTreadStack, 744
 721              	_ZL13canTreadStack:
 722 0000 00000000 		.space	744
 722      00000000 
ARM GAS  C:\Users\pc\AppData\Local\Temp\ccwcVCAm.s 			page 14


 722      00000000 
 722      00000000 
 722      00000000 
 723              		.section	.rodata.str1.4,"aMS",%progbits,1
 724              		.align	2
 725              	.LC0:
 726 0000 43414E20 		.ascii	"CAN TX %s\000"
 726      54582025 
 726      7300
 727 000a 0000     		.space	2
 728              	.LC1:
 729 000c 43414E20 		.ascii	"CAN RX %s\000"
 729      52582025 
 729      7300
 730 0016 0000     		.space	2
 731              	.LC2:
 732 0018 74797065 		.ascii	"type=%d canReadEnabled=%s canWriteEnabled=%s period"
 732      3D256420 
 732      63616E52 
 732      65616445 
 732      6E61626C 
 733 004b 3D256400 		.ascii	"=%d\000"
 734 004f 00       		.space	1
 735              	.LC3:
 736 0050 43414E20 		.ascii	"CAN rx count %d/tx ok %d/tx not ok %d\000"
 736      72782063 
 736      6F756E74 
 736      2025642F 
 736      7478206F 
 737 0076 0000     		.space	2
 738              	.LC4:
 739 0078 43414E00 		.ascii	"CAN\000"
 740              	.LC5:
 741 007c 77616974 		.ascii	"waiting for CAN\000"
 741      696E6720 
 741      666F7220 
 741      43414E00 
 742              	.LC6:
 743 008c 53494420 		.ascii	"SID %x/%x %x %x %x %x %x %x %x %x\000"
 743      25782F25 
 743      78202578 
 743      20257820 
 743      25782025 
 744 00ae 0000     		.space	2
 745              	.LC7:
 746 00b0 474F5420 		.ascii	"GOT odometerKm %d\000"
 746      6F646F6D 
 746      65746572 
 746      4B6D2025 
 746      6400
 747 00c2 0000     		.space	2
 748              	.LC8:
 749 00c4 474F5420 		.ascii	"GOT odometerMi %d\000"
 749      6F646F6D 
 749      65746572 
 749      4D692025 
 749      6400
ARM GAS  C:\Users\pc\AppData\Local\Temp\ccwcVCAm.s 			page 15


 750 00d6 0000     		.space	2
 751              	.LC9:
 752 00d8 474F5420 		.ascii	"GOT time %d\000"
 752      74696D65 
 752      20256400 
 753              	.LC10:
 754 00e4 25642074 		.ascii	"%d too low CAN\000"
 754      6F6F206C 
 754      6F772043 
 754      414E00
 755 00f3 00       		.space	1
 756              	.LC11:
 757 00f4 43414E20 		.ascii	"CAN TX\000"
 757      545800
 758 00fb 00       		.space	1
 759              	.LC12:
 760 00fc 43414E20 		.ascii	"CAN RX\000"
 760      525800
 761 0103 00       		.space	1
 762              	.LC13:
 763 0104 63616E69 		.ascii	"caninfo\000"
 763      6E666F00 
 764              	.LC14:
 765 010c 43414E20 		.ascii	"CAN driver\000"
 765      64726976 
 765      657200
 766 0117 00       		.section	.data._ZL4rand,"aw",%progbits
 767              		.align	2
 768              		.set	.LANCHOR7,. + 0
 769              		.type	_ZL4rand, %object
 770              		.size	_ZL4rand, 4
 771              	_ZL4rand:
 772 0000 1F8E4248 		.word	1212321311
 773              		.section	.bss._ZL10engine_rpm,"aw",%nobits
 774              		.align	2
 775              		.set	.LANCHOR5,. + 0
 776              		.type	_ZL10engine_rpm, %object
 777              		.size	_ZL10engine_rpm, 4
 778              	_ZL10engine_rpm:
 779 0000 00000000 		.space	4
 780              		.section	.bss._ZL10canWriteOk,"aw",%nobits
 781              		.align	2
 782              		.set	.LANCHOR2,. + 0
 783              		.type	_ZL10canWriteOk, %object
 784              		.size	_ZL10canWriteOk, 4
 785              	_ZL10canWriteOk:
 786 0000 00000000 		.space	4
 787              		.section	.bss._ZL6logger,"aw",%nobits
 788              		.align	2
 789              		.set	.LANCHOR0,. + 0
 790              		.type	_ZL6logger, %object
 791              		.size	_ZL6logger, 260
 792              	_ZL6logger:
 793 0000 00000000 		.space	260
 793      00000000 
 793      00000000 
 793      00000000 
ARM GAS  C:\Users\pc\AppData\Local\Temp\ccwcVCAm.s 			page 16


 793      00000000 
 794              		.section	.bss._ZL14canReadCounter,"aw",%nobits
 795              		.align	2
 796              		.set	.LANCHOR1,. + 0
 797              		.type	_ZL14canReadCounter, %object
 798              		.size	_ZL14canReadCounter, 4
 799              	_ZL14canReadCounter:
 800 0000 00000000 		.space	4
 801              		.ident	"GCC: (Sourcery CodeBench Lite 2013.11-24) 4.8.1"
ARM GAS  C:\Users\pc\AppData\Local\Temp\ccwcVCAm.s 			page 17

