ARM GAS  C:\Users\pc\AppData\Local\Temp\cclbjWrt.s 			page 1


   1              		.syntax unified
   2              		.cpu cortex-m4
   3              		.eabi_attribute 27, 3
   4              		.fpu fpv4-sp-d16
   5              		.eabi_attribute 20, 1
   6              		.eabi_attribute 21, 1
   7              		.eabi_attribute 23, 3
   8              		.eabi_attribute 24, 1
   9              		.eabi_attribute 25, 1
  10              		.eabi_attribute 26, 1
  11              		.eabi_attribute 30, 2
  12              		.eabi_attribute 34, 1
  13              		.eabi_attribute 18, 4
  14              		.thumb
  15              		.file	"ccsbcs.c"
  16              		.section	.text.ff_convert,"ax",%progbits
  17              		.align	2
  18              		.p2align 4,,15
  19              		.global	ff_convert
  20              		.thumb
  21              		.thumb_func
  22              		.type	ff_convert, %function
  23              	ff_convert:
  24              		@ args = 0, pretend = 0, frame = 0
  25              		@ frame_needed = 0, uses_anonymous_args = 0
  26              		@ link register save eliminated.
  27 0000 7F28     		cmp	r0, #127
  28 0002 10B4     		push	{r4}
  29 0004 0DD9     		bls	.L2
  30 0006 79B9     		cbnz	r1, .L11
  31 0008 0F4B     		ldr	r3, .L12
  32 000a 02E0     		b	.L6
  33              	.L4:
  34 000c A1B2     		uxth	r1, r4
  35 000e 8029     		cmp	r1, #128
  36 0010 16D0     		beq	.L7
  37              	.L6:
  38 0012 33F8022F 		ldrh	r2, [r3, #2]!
  39 0016 8242     		cmp	r2, r0
  40 0018 01F10104 		add	r4, r1, #1
  41 001c F6D1     		bne	.L4
  42 001e 8031     		adds	r1, r1, #128
  43 0020 88B2     		uxth	r0, r1
  44              	.L2:
  45 0022 5DF8044B 		ldr	r4, [sp], #4
  46 0026 7047     		bx	lr
  47              	.L11:
  48 0028 FF28     		cmp	r0, #255
  49 002a 09D8     		bhi	.L7
  50 002c 40F20003 		movw	r3, #:lower16:.LANCHOR0
  51 0030 8038     		subs	r0, r0, #128
  52 0032 C0F20003 		movt	r3, #:upper16:.LANCHOR0
  53 0036 5DF8044B 		ldr	r4, [sp], #4
  54 003a 33F81000 		ldrh	r0, [r3, r0, lsl #1]
  55 003e 7047     		bx	lr
  56              	.L7:
  57 0040 0020     		movs	r0, #0
ARM GAS  C:\Users\pc\AppData\Local\Temp\cclbjWrt.s 			page 2


  58 0042 5DF8044B 		ldr	r4, [sp], #4
  59 0046 7047     		bx	lr
  60              	.L13:
  61              		.align	2
  62              	.L12:
  63 0048 FEFFFFFF 		.word	.LANCHOR0-2
  64              		.size	ff_convert, .-ff_convert
  65              		.section	.text.ff_wtoupper,"ax",%progbits
  66              		.align	2
  67              		.p2align 4,,15
  68              		.global	ff_wtoupper
  69              		.thumb
  70              		.thumb_func
  71              		.type	ff_wtoupper, %function
  72              	ff_wtoupper:
  73              		@ args = 0, pretend = 0, frame = 0
  74              		@ frame_needed = 0, uses_anonymous_args = 0
  75              		@ link register save eliminated.
  76 0000 6128     		cmp	r0, #97
  77 0002 0DD0     		beq	.L18
  78 0004 40F20002 		movw	r2, #:lower16:.LANCHOR1
  79 0008 C0F20002 		movt	r2, #:upper16:.LANCHOR1
  80 000c 0021     		movs	r1, #0
  81 000e 01E0     		b	.L17
  82              	.L21:
  83 0010 8342     		cmp	r3, r0
  84 0012 06D0     		beq	.L15
  85              	.L17:
  86 0014 32F8023F 		ldrh	r3, [r2, #2]!
  87 0018 0131     		adds	r1, r1, #1
  88 001a 002B     		cmp	r3, #0
  89 001c F8D1     		bne	.L21
  90 001e 7047     		bx	lr
  91              	.L18:
  92 0020 0021     		movs	r1, #0
  93              	.L15:
  94 0022 40F20003 		movw	r3, #:lower16:.LANCHOR2
  95 0026 C0F20003 		movt	r3, #:upper16:.LANCHOR2
  96 002a 33F81100 		ldrh	r0, [r3, r1, lsl #1]
  97 002e 7047     		bx	lr
  98              		.size	ff_wtoupper, .-ff_wtoupper
  99              		.section	.rodata.tbl_upper.5014,"a",%progbits
 100              		.align	2
 101              		.set	.LANCHOR2,. + 0
 102              		.type	tbl_upper.5014, %object
 103              		.size	tbl_upper.5014, 480
 104              	tbl_upper.5014:
 105 0000 4100     		.short	65
 106 0002 4200     		.short	66
 107 0004 4300     		.short	67
 108 0006 4400     		.short	68
 109 0008 4500     		.short	69
 110 000a 4600     		.short	70
 111 000c 4700     		.short	71
 112 000e 4800     		.short	72
 113 0010 4900     		.short	73
 114 0012 4A00     		.short	74
ARM GAS  C:\Users\pc\AppData\Local\Temp\cclbjWrt.s 			page 3


 115 0014 4B00     		.short	75
 116 0016 4C00     		.short	76
 117 0018 4D00     		.short	77
 118 001a 4E00     		.short	78
 119 001c 4F00     		.short	79
 120 001e 5000     		.short	80
 121 0020 5100     		.short	81
 122 0022 5200     		.short	82
 123 0024 5300     		.short	83
 124 0026 5400     		.short	84
 125 0028 5500     		.short	85
 126 002a 5600     		.short	86
 127 002c 5700     		.short	87
 128 002e 5800     		.short	88
 129 0030 5900     		.short	89
 130 0032 5A00     		.short	90
 131 0034 2100     		.short	33
 132 0036 E0FF     		.short	-32
 133 0038 E1FF     		.short	-31
 134 003a E5FF     		.short	-27
 135 003c E2FF     		.short	-30
 136 003e E3FF     		.short	-29
 137 0040 C000     		.short	192
 138 0042 C100     		.short	193
 139 0044 C200     		.short	194
 140 0046 C300     		.short	195
 141 0048 C400     		.short	196
 142 004a C500     		.short	197
 143 004c C600     		.short	198
 144 004e C700     		.short	199
 145 0050 C800     		.short	200
 146 0052 C900     		.short	201
 147 0054 CA00     		.short	202
 148 0056 CB00     		.short	203
 149 0058 CC00     		.short	204
 150 005a CD00     		.short	205
 151 005c CE00     		.short	206
 152 005e CF00     		.short	207
 153 0060 D000     		.short	208
 154 0062 D100     		.short	209
 155 0064 D200     		.short	210
 156 0066 D300     		.short	211
 157 0068 D400     		.short	212
 158 006a D500     		.short	213
 159 006c D600     		.short	214
 160 006e D800     		.short	216
 161 0070 D900     		.short	217
 162 0072 DA00     		.short	218
 163 0074 DB00     		.short	219
 164 0076 DC00     		.short	220
 165 0078 DD00     		.short	221
 166 007a DE00     		.short	222
 167 007c 7801     		.short	376
 168 007e 0001     		.short	256
 169 0080 0201     		.short	258
 170 0082 0401     		.short	260
 171 0084 0601     		.short	262
ARM GAS  C:\Users\pc\AppData\Local\Temp\cclbjWrt.s 			page 4


 172 0086 0801     		.short	264
 173 0088 0A01     		.short	266
 174 008a 0C01     		.short	268
 175 008c 0E01     		.short	270
 176 008e 1001     		.short	272
 177 0090 1201     		.short	274
 178 0092 1401     		.short	276
 179 0094 1601     		.short	278
 180 0096 1801     		.short	280
 181 0098 1A01     		.short	282
 182 009a 1C01     		.short	284
 183 009c 1E01     		.short	286
 184 009e 2001     		.short	288
 185 00a0 2201     		.short	290
 186 00a2 2401     		.short	292
 187 00a4 2601     		.short	294
 188 00a6 2801     		.short	296
 189 00a8 2A01     		.short	298
 190 00aa 2C01     		.short	300
 191 00ac 2E01     		.short	302
 192 00ae 3001     		.short	304
 193 00b0 3201     		.short	306
 194 00b2 3401     		.short	308
 195 00b4 3601     		.short	310
 196 00b6 3901     		.short	313
 197 00b8 3B01     		.short	315
 198 00ba 3D01     		.short	317
 199 00bc 3F01     		.short	319
 200 00be 4101     		.short	321
 201 00c0 4301     		.short	323
 202 00c2 4501     		.short	325
 203 00c4 4701     		.short	327
 204 00c6 4A01     		.short	330
 205 00c8 4C01     		.short	332
 206 00ca 4E01     		.short	334
 207 00cc 5001     		.short	336
 208 00ce 5201     		.short	338
 209 00d0 5401     		.short	340
 210 00d2 5601     		.short	342
 211 00d4 5801     		.short	344
 212 00d6 5A01     		.short	346
 213 00d8 5C01     		.short	348
 214 00da 5E01     		.short	350
 215 00dc 6001     		.short	352
 216 00de 6201     		.short	354
 217 00e0 6401     		.short	356
 218 00e2 6601     		.short	358
 219 00e4 6801     		.short	360
 220 00e6 6A01     		.short	362
 221 00e8 6C01     		.short	364
 222 00ea 6E01     		.short	366
 223 00ec 7001     		.short	368
 224 00ee 7201     		.short	370
 225 00f0 7401     		.short	372
 226 00f2 7601     		.short	374
 227 00f4 7901     		.short	377
 228 00f6 7B01     		.short	379
ARM GAS  C:\Users\pc\AppData\Local\Temp\cclbjWrt.s 			page 5


 229 00f8 7D01     		.short	381
 230 00fa 9101     		.short	401
 231 00fc 9103     		.short	913
 232 00fe 9203     		.short	914
 233 0100 9303     		.short	915
 234 0102 9403     		.short	916
 235 0104 9503     		.short	917
 236 0106 9603     		.short	918
 237 0108 9703     		.short	919
 238 010a 9803     		.short	920
 239 010c 9903     		.short	921
 240 010e 9A03     		.short	922
 241 0110 9B03     		.short	923
 242 0112 9C03     		.short	924
 243 0114 9D03     		.short	925
 244 0116 9E03     		.short	926
 245 0118 9F03     		.short	927
 246 011a A003     		.short	928
 247 011c A103     		.short	929
 248 011e A303     		.short	931
 249 0120 A403     		.short	932
 250 0122 A503     		.short	933
 251 0124 A603     		.short	934
 252 0126 A703     		.short	935
 253 0128 A803     		.short	936
 254 012a A903     		.short	937
 255 012c AA03     		.short	938
 256 012e 1004     		.short	1040
 257 0130 1104     		.short	1041
 258 0132 1204     		.short	1042
 259 0134 1304     		.short	1043
 260 0136 1404     		.short	1044
 261 0138 1504     		.short	1045
 262 013a 1604     		.short	1046
 263 013c 1704     		.short	1047
 264 013e 1804     		.short	1048
 265 0140 1904     		.short	1049
 266 0142 1A04     		.short	1050
 267 0144 1B04     		.short	1051
 268 0146 1C04     		.short	1052
 269 0148 1D04     		.short	1053
 270 014a 1E04     		.short	1054
 271 014c 1F04     		.short	1055
 272 014e 2004     		.short	1056
 273 0150 2104     		.short	1057
 274 0152 2204     		.short	1058
 275 0154 2304     		.short	1059
 276 0156 2404     		.short	1060
 277 0158 2504     		.short	1061
 278 015a 2604     		.short	1062
 279 015c 2704     		.short	1063
 280 015e 2804     		.short	1064
 281 0160 2904     		.short	1065
 282 0162 2A04     		.short	1066
 283 0164 2B04     		.short	1067
 284 0166 2C04     		.short	1068
 285 0168 2D04     		.short	1069
ARM GAS  C:\Users\pc\AppData\Local\Temp\cclbjWrt.s 			page 6


 286 016a 2E04     		.short	1070
 287 016c 2F04     		.short	1071
 288 016e 0104     		.short	1025
 289 0170 0204     		.short	1026
 290 0172 0304     		.short	1027
 291 0174 0404     		.short	1028
 292 0176 0504     		.short	1029
 293 0178 0604     		.short	1030
 294 017a 0704     		.short	1031
 295 017c 0804     		.short	1032
 296 017e 0904     		.short	1033
 297 0180 0A04     		.short	1034
 298 0182 0B04     		.short	1035
 299 0184 0C04     		.short	1036
 300 0186 0E04     		.short	1038
 301 0188 0F04     		.short	1039
 302 018a 6021     		.short	8544
 303 018c 6121     		.short	8545
 304 018e 6221     		.short	8546
 305 0190 6321     		.short	8547
 306 0192 6421     		.short	8548
 307 0194 6521     		.short	8549
 308 0196 6621     		.short	8550
 309 0198 6721     		.short	8551
 310 019a 6821     		.short	8552
 311 019c 6921     		.short	8553
 312 019e 6A21     		.short	8554
 313 01a0 6B21     		.short	8555
 314 01a2 6C21     		.short	8556
 315 01a4 6D21     		.short	8557
 316 01a6 6E21     		.short	8558
 317 01a8 6F21     		.short	8559
 318 01aa 21FF     		.short	-223
 319 01ac 22FF     		.short	-222
 320 01ae 23FF     		.short	-221
 321 01b0 24FF     		.short	-220
 322 01b2 25FF     		.short	-219
 323 01b4 26FF     		.short	-218
 324 01b6 27FF     		.short	-217
 325 01b8 28FF     		.short	-216
 326 01ba 29FF     		.short	-215
 327 01bc 2AFF     		.short	-214
 328 01be 2BFF     		.short	-213
 329 01c0 2CFF     		.short	-212
 330 01c2 2DFF     		.short	-211
 331 01c4 2EFF     		.short	-210
 332 01c6 2FFF     		.short	-209
 333 01c8 30FF     		.short	-208
 334 01ca 31FF     		.short	-207
 335 01cc 32FF     		.short	-206
 336 01ce 33FF     		.short	-205
 337 01d0 34FF     		.short	-204
 338 01d2 35FF     		.short	-203
 339 01d4 36FF     		.short	-202
 340 01d6 37FF     		.short	-201
 341 01d8 38FF     		.short	-200
 342 01da 39FF     		.short	-199
ARM GAS  C:\Users\pc\AppData\Local\Temp\cclbjWrt.s 			page 7


 343 01dc 3AFF     		.short	-198
 344 01de 0000     		.short	0
 345              		.section	.rodata.Tbl,"a",%progbits
 346              		.align	2
 347              		.set	.LANCHOR0,. + 0
 348              		.type	Tbl, %object
 349              		.size	Tbl, 256
 350              	Tbl:
 351 0000 0204     		.short	1026
 352 0002 0304     		.short	1027
 353 0004 1A20     		.short	8218
 354 0006 5304     		.short	1107
 355 0008 1E20     		.short	8222
 356 000a 2620     		.short	8230
 357 000c 2020     		.short	8224
 358 000e 2120     		.short	8225
 359 0010 AC20     		.short	8364
 360 0012 3020     		.short	8240
 361 0014 0904     		.short	1033
 362 0016 3920     		.short	8249
 363 0018 0A04     		.short	1034
 364 001a 0C04     		.short	1036
 365 001c 0B04     		.short	1035
 366 001e 0F04     		.short	1039
 367 0020 5204     		.short	1106
 368 0022 1820     		.short	8216
 369 0024 1920     		.short	8217
 370 0026 1C20     		.short	8220
 371 0028 1D20     		.short	8221
 372 002a 2220     		.short	8226
 373 002c 1320     		.short	8211
 374 002e 1420     		.short	8212
 375 0030 0000     		.short	0
 376 0032 1121     		.short	8465
 377 0034 5904     		.short	1113
 378 0036 3A20     		.short	8250
 379 0038 5A04     		.short	1114
 380 003a 5C04     		.short	1116
 381 003c 5B04     		.short	1115
 382 003e 5F04     		.short	1119
 383 0040 A000     		.short	160
 384 0042 0E04     		.short	1038
 385 0044 5E04     		.short	1118
 386 0046 0804     		.short	1032
 387 0048 A400     		.short	164
 388 004a 9004     		.short	1168
 389 004c A600     		.short	166
 390 004e A700     		.short	167
 391 0050 0104     		.short	1025
 392 0052 A900     		.short	169
 393 0054 0404     		.short	1028
 394 0056 AB00     		.short	171
 395 0058 AC00     		.short	172
 396 005a AD00     		.short	173
 397 005c AE00     		.short	174
 398 005e 0704     		.short	1031
 399 0060 B000     		.short	176
ARM GAS  C:\Users\pc\AppData\Local\Temp\cclbjWrt.s 			page 8


 400 0062 B100     		.short	177
 401 0064 0604     		.short	1030
 402 0066 5604     		.short	1110
 403 0068 9104     		.short	1169
 404 006a B500     		.short	181
 405 006c B600     		.short	182
 406 006e B700     		.short	183
 407 0070 5104     		.short	1105
 408 0072 1621     		.short	8470
 409 0074 5404     		.short	1108
 410 0076 BB00     		.short	187
 411 0078 5804     		.short	1112
 412 007a 0504     		.short	1029
 413 007c 5504     		.short	1109
 414 007e 5704     		.short	1111
 415 0080 1004     		.short	1040
 416 0082 1104     		.short	1041
 417 0084 1204     		.short	1042
 418 0086 1304     		.short	1043
 419 0088 1404     		.short	1044
 420 008a 1504     		.short	1045
 421 008c 1604     		.short	1046
 422 008e 1704     		.short	1047
 423 0090 1804     		.short	1048
 424 0092 1904     		.short	1049
 425 0094 1A04     		.short	1050
 426 0096 1B04     		.short	1051
 427 0098 1C04     		.short	1052
 428 009a 1D04     		.short	1053
 429 009c 1E04     		.short	1054
 430 009e 1F04     		.short	1055
 431 00a0 2004     		.short	1056
 432 00a2 2104     		.short	1057
 433 00a4 2204     		.short	1058
 434 00a6 2304     		.short	1059
 435 00a8 2404     		.short	1060
 436 00aa 2504     		.short	1061
 437 00ac 2604     		.short	1062
 438 00ae 2704     		.short	1063
 439 00b0 2804     		.short	1064
 440 00b2 2904     		.short	1065
 441 00b4 2A04     		.short	1066
 442 00b6 2B04     		.short	1067
 443 00b8 2C04     		.short	1068
 444 00ba 2D04     		.short	1069
 445 00bc 2E04     		.short	1070
 446 00be 2F04     		.short	1071
 447 00c0 3004     		.short	1072
 448 00c2 3104     		.short	1073
 449 00c4 3204     		.short	1074
 450 00c6 3304     		.short	1075
 451 00c8 3404     		.short	1076
 452 00ca 3504     		.short	1077
 453 00cc 3604     		.short	1078
 454 00ce 3704     		.short	1079
 455 00d0 3804     		.short	1080
 456 00d2 3904     		.short	1081
ARM GAS  C:\Users\pc\AppData\Local\Temp\cclbjWrt.s 			page 9


 457 00d4 3A04     		.short	1082
 458 00d6 3B04     		.short	1083
 459 00d8 3C04     		.short	1084
 460 00da 3D04     		.short	1085
 461 00dc 3E04     		.short	1086
 462 00de 3F04     		.short	1087
 463 00e0 4004     		.short	1088
 464 00e2 4104     		.short	1089
 465 00e4 4204     		.short	1090
 466 00e6 4304     		.short	1091
 467 00e8 4404     		.short	1092
 468 00ea 4504     		.short	1093
 469 00ec 4604     		.short	1094
 470 00ee 4704     		.short	1095
 471 00f0 4804     		.short	1096
 472 00f2 4904     		.short	1097
 473 00f4 4A04     		.short	1098
 474 00f6 4B04     		.short	1099
 475 00f8 4C04     		.short	1100
 476 00fa 4D04     		.short	1101
 477 00fc 4E04     		.short	1102
 478 00fe 4F04     		.short	1103
 479              		.section	.rodata.tbl_lower.5013,"a",%progbits
 480              		.align	2
 481              		.set	.LANCHOR1,. + 0
 482              		.type	tbl_lower.5013, %object
 483              		.size	tbl_lower.5013, 480
 484              	tbl_lower.5013:
 485 0000 6100     		.short	97
 486 0002 6200     		.short	98
 487 0004 6300     		.short	99
 488 0006 6400     		.short	100
 489 0008 6500     		.short	101
 490 000a 6600     		.short	102
 491 000c 6700     		.short	103
 492 000e 6800     		.short	104
 493 0010 6900     		.short	105
 494 0012 6A00     		.short	106
 495 0014 6B00     		.short	107
 496 0016 6C00     		.short	108
 497 0018 6D00     		.short	109
 498 001a 6E00     		.short	110
 499 001c 6F00     		.short	111
 500 001e 7000     		.short	112
 501 0020 7100     		.short	113
 502 0022 7200     		.short	114
 503 0024 7300     		.short	115
 504 0026 7400     		.short	116
 505 0028 7500     		.short	117
 506 002a 7600     		.short	118
 507 002c 7700     		.short	119
 508 002e 7800     		.short	120
 509 0030 7900     		.short	121
 510 0032 7A00     		.short	122
 511 0034 A100     		.short	161
 512 0036 A200     		.short	162
 513 0038 A300     		.short	163
ARM GAS  C:\Users\pc\AppData\Local\Temp\cclbjWrt.s 			page 10


 514 003a A500     		.short	165
 515 003c AC00     		.short	172
 516 003e AF00     		.short	175
 517 0040 E000     		.short	224
 518 0042 E100     		.short	225
 519 0044 E200     		.short	226
 520 0046 E300     		.short	227
 521 0048 E400     		.short	228
 522 004a E500     		.short	229
 523 004c E600     		.short	230
 524 004e E700     		.short	231
 525 0050 E800     		.short	232
 526 0052 E900     		.short	233
 527 0054 EA00     		.short	234
 528 0056 EB00     		.short	235
 529 0058 EC00     		.short	236
 530 005a ED00     		.short	237
 531 005c EE00     		.short	238
 532 005e EF00     		.short	239
 533 0060 F000     		.short	240
 534 0062 F100     		.short	241
 535 0064 F200     		.short	242
 536 0066 F300     		.short	243
 537 0068 F400     		.short	244
 538 006a F500     		.short	245
 539 006c F600     		.short	246
 540 006e F800     		.short	248
 541 0070 F900     		.short	249
 542 0072 FA00     		.short	250
 543 0074 FB00     		.short	251
 544 0076 FC00     		.short	252
 545 0078 FD00     		.short	253
 546 007a FE00     		.short	254
 547 007c FF00     		.short	255
 548 007e 0101     		.short	257
 549 0080 0301     		.short	259
 550 0082 0501     		.short	261
 551 0084 0701     		.short	263
 552 0086 0901     		.short	265
 553 0088 0B01     		.short	267
 554 008a 0D01     		.short	269
 555 008c 0F01     		.short	271
 556 008e 1101     		.short	273
 557 0090 1301     		.short	275
 558 0092 1501     		.short	277
 559 0094 1701     		.short	279
 560 0096 1901     		.short	281
 561 0098 1B01     		.short	283
 562 009a 1D01     		.short	285
 563 009c 1F01     		.short	287
 564 009e 2101     		.short	289
 565 00a0 2301     		.short	291
 566 00a2 2501     		.short	293
 567 00a4 2701     		.short	295
 568 00a6 2901     		.short	297
 569 00a8 2B01     		.short	299
 570 00aa 2D01     		.short	301
ARM GAS  C:\Users\pc\AppData\Local\Temp\cclbjWrt.s 			page 11


 571 00ac 2F01     		.short	303
 572 00ae 3101     		.short	305
 573 00b0 3301     		.short	307
 574 00b2 3501     		.short	309
 575 00b4 3701     		.short	311
 576 00b6 3A01     		.short	314
 577 00b8 3C01     		.short	316
 578 00ba 3E01     		.short	318
 579 00bc 4001     		.short	320
 580 00be 4201     		.short	322
 581 00c0 4401     		.short	324
 582 00c2 4601     		.short	326
 583 00c4 4801     		.short	328
 584 00c6 4B01     		.short	331
 585 00c8 4D01     		.short	333
 586 00ca 4F01     		.short	335
 587 00cc 5101     		.short	337
 588 00ce 5301     		.short	339
 589 00d0 5501     		.short	341
 590 00d2 5701     		.short	343
 591 00d4 5901     		.short	345
 592 00d6 5B01     		.short	347
 593 00d8 5D01     		.short	349
 594 00da 5F01     		.short	351
 595 00dc 6101     		.short	353
 596 00de 6301     		.short	355
 597 00e0 6501     		.short	357
 598 00e2 6701     		.short	359
 599 00e4 6901     		.short	361
 600 00e6 6B01     		.short	363
 601 00e8 6D01     		.short	365
 602 00ea 6F01     		.short	367
 603 00ec 7101     		.short	369
 604 00ee 7301     		.short	371
 605 00f0 7501     		.short	373
 606 00f2 7701     		.short	375
 607 00f4 7A01     		.short	378
 608 00f6 7C01     		.short	380
 609 00f8 7E01     		.short	382
 610 00fa 9201     		.short	402
 611 00fc B103     		.short	945
 612 00fe B203     		.short	946
 613 0100 B303     		.short	947
 614 0102 B403     		.short	948
 615 0104 B503     		.short	949
 616 0106 B603     		.short	950
 617 0108 B703     		.short	951
 618 010a B803     		.short	952
 619 010c B903     		.short	953
 620 010e BA03     		.short	954
 621 0110 BB03     		.short	955
 622 0112 BC03     		.short	956
 623 0114 BD03     		.short	957
 624 0116 BE03     		.short	958
 625 0118 BF03     		.short	959
 626 011a C003     		.short	960
 627 011c C103     		.short	961
ARM GAS  C:\Users\pc\AppData\Local\Temp\cclbjWrt.s 			page 12


 628 011e C303     		.short	963
 629 0120 C403     		.short	964
 630 0122 C503     		.short	965
 631 0124 C603     		.short	966
 632 0126 C703     		.short	967
 633 0128 C803     		.short	968
 634 012a C903     		.short	969
 635 012c CA03     		.short	970
 636 012e 3004     		.short	1072
 637 0130 3104     		.short	1073
 638 0132 3204     		.short	1074
 639 0134 3304     		.short	1075
 640 0136 3404     		.short	1076
 641 0138 3504     		.short	1077
 642 013a 3604     		.short	1078
 643 013c 3704     		.short	1079
 644 013e 3804     		.short	1080
 645 0140 3904     		.short	1081
 646 0142 3A04     		.short	1082
 647 0144 3B04     		.short	1083
 648 0146 3C04     		.short	1084
 649 0148 3D04     		.short	1085
 650 014a 3E04     		.short	1086
 651 014c 3F04     		.short	1087
 652 014e 4004     		.short	1088
 653 0150 4104     		.short	1089
 654 0152 4204     		.short	1090
 655 0154 4304     		.short	1091
 656 0156 4404     		.short	1092
 657 0158 4504     		.short	1093
 658 015a 4604     		.short	1094
 659 015c 4704     		.short	1095
 660 015e 4804     		.short	1096
 661 0160 4904     		.short	1097
 662 0162 4A04     		.short	1098
 663 0164 4B04     		.short	1099
 664 0166 4C04     		.short	1100
 665 0168 4D04     		.short	1101
 666 016a 4E04     		.short	1102
 667 016c 4F04     		.short	1103
 668 016e 5104     		.short	1105
 669 0170 5204     		.short	1106
 670 0172 5304     		.short	1107
 671 0174 5404     		.short	1108
 672 0176 5504     		.short	1109
 673 0178 5604     		.short	1110
 674 017a 5704     		.short	1111
 675 017c 5804     		.short	1112
 676 017e 5904     		.short	1113
 677 0180 5A04     		.short	1114
 678 0182 5B04     		.short	1115
 679 0184 5C04     		.short	1116
 680 0186 5E04     		.short	1118
 681 0188 5F04     		.short	1119
 682 018a 7021     		.short	8560
 683 018c 7121     		.short	8561
 684 018e 7221     		.short	8562
ARM GAS  C:\Users\pc\AppData\Local\Temp\cclbjWrt.s 			page 13


 685 0190 7321     		.short	8563
 686 0192 7421     		.short	8564
 687 0194 7521     		.short	8565
 688 0196 7621     		.short	8566
 689 0198 7721     		.short	8567
 690 019a 7821     		.short	8568
 691 019c 7921     		.short	8569
 692 019e 7A21     		.short	8570
 693 01a0 7B21     		.short	8571
 694 01a2 7C21     		.short	8572
 695 01a4 7D21     		.short	8573
 696 01a6 7E21     		.short	8574
 697 01a8 7F21     		.short	8575
 698 01aa 41FF     		.short	-191
 699 01ac 42FF     		.short	-190
 700 01ae 43FF     		.short	-189
 701 01b0 44FF     		.short	-188
 702 01b2 45FF     		.short	-187
 703 01b4 46FF     		.short	-186
 704 01b6 47FF     		.short	-185
 705 01b8 48FF     		.short	-184
 706 01ba 49FF     		.short	-183
 707 01bc 4AFF     		.short	-182
 708 01be 4BFF     		.short	-181
 709 01c0 4CFF     		.short	-180
 710 01c2 4DFF     		.short	-179
 711 01c4 4EFF     		.short	-178
 712 01c6 4FFF     		.short	-177
 713 01c8 50FF     		.short	-176
 714 01ca 51FF     		.short	-175
 715 01cc 52FF     		.short	-174
 716 01ce 53FF     		.short	-173
 717 01d0 54FF     		.short	-172
 718 01d2 55FF     		.short	-171
 719 01d4 56FF     		.short	-170
 720 01d6 57FF     		.short	-169
 721 01d8 58FF     		.short	-168
 722 01da 59FF     		.short	-167
 723 01dc 5AFF     		.short	-166
 724 01de 0000     		.short	0
 725              		.ident	"GCC: (Sourcery CodeBench Lite 2013.11-24) 4.8.1"
ARM GAS  C:\Users\pc\AppData\Local\Temp\cclbjWrt.s 			page 14


DEFINED SYMBOLS
                            *ABS*:00000000 ccsbcs.c
C:\Users\pc\AppData\Local\Temp\cclbjWrt.s:17     .text.ff_convert:00000000 $t
C:\Users\pc\AppData\Local\Temp\cclbjWrt.s:23     .text.ff_convert:00000000 ff_convert
C:\Users\pc\AppData\Local\Temp\cclbjWrt.s:347    .rodata.Tbl:00000000 .LANCHOR0
C:\Users\pc\AppData\Local\Temp\cclbjWrt.s:63     .text.ff_convert:00000048 $d
C:\Users\pc\AppData\Local\Temp\cclbjWrt.s:66     .text.ff_wtoupper:00000000 $t
C:\Users\pc\AppData\Local\Temp\cclbjWrt.s:72     .text.ff_wtoupper:00000000 ff_wtoupper
C:\Users\pc\AppData\Local\Temp\cclbjWrt.s:481    .rodata.tbl_lower.5013:00000000 .LANCHOR1
C:\Users\pc\AppData\Local\Temp\cclbjWrt.s:101    .rodata.tbl_upper.5014:00000000 .LANCHOR2
C:\Users\pc\AppData\Local\Temp\cclbjWrt.s:100    .rodata.tbl_upper.5014:00000000 $d
C:\Users\pc\AppData\Local\Temp\cclbjWrt.s:104    .rodata.tbl_upper.5014:00000000 tbl_upper.5014
C:\Users\pc\AppData\Local\Temp\cclbjWrt.s:346    .rodata.Tbl:00000000 $d
C:\Users\pc\AppData\Local\Temp\cclbjWrt.s:350    .rodata.Tbl:00000000 Tbl
C:\Users\pc\AppData\Local\Temp\cclbjWrt.s:480    .rodata.tbl_lower.5013:00000000 $d
C:\Users\pc\AppData\Local\Temp\cclbjWrt.s:484    .rodata.tbl_lower.5013:00000000 tbl_lower.5013
C:\Users\pc\AppData\Local\Temp\cclbjWrt.s:725    .text.ff_convert:0000004c $t

NO UNDEFINED SYMBOLS
