ARM GAS  C:\Users\pc\AppData\Local\Temp\ccbZ16ga.s 			page 1


   1              		.syntax unified
   2              		.cpu cortex-m4
   3              		.eabi_attribute 27, 3
   4              		.fpu fpv4-sp-d16
   5              		.eabi_attribute 20, 1
   6              		.eabi_attribute 21, 1
   7              		.eabi_attribute 23, 3
   8              		.eabi_attribute 24, 1
   9              		.eabi_attribute 25, 1
  10              		.eabi_attribute 26, 1
  11              		.eabi_attribute 30, 2
  12              		.eabi_attribute 34, 1
  13              		.eabi_attribute 18, 4
  14              		.thumb
  15              		.file	"chcore_v7m.c"
  16              		.section	.text._port_switch_from_isr,"ax",%progbits
  17              		.align	2
  18              		.p2align 4,,15
  19              		.global	_port_switch_from_isr
  20              		.thumb
  21              		.thumb_func
  22              		.type	_port_switch_from_isr, %function
  23              	_port_switch_from_isr:
  24              		@ Naked Function: prologue and epilogue provided by programmer.
  25              		@ args = 0, pretend = 0, frame = 0
  26              		@ frame_needed = 0, uses_anonymous_args = 0
  27 0000 FFF7FEFF 		bl	dbg_check_lock
  28 0004 FFF7FEFF 		bl	chSchDoReschedule
  29 0008 FFF7FEFF 		bl	dbg_check_unlock
  30              	@ 205 "chibios/os/ports/GCC/ARMCMx/chcore_v7m.c" 1
  31              		_port_exit_from_isr:
  32              	@ 0 "" 2
  33              	@ 207 "chibios/os/ports/GCC/ARMCMx/chcore_v7m.c" 1
  34 000c 00DF     		svc     #0
  35              	@ 0 "" 2
  36              		.thumb
  37              		.size	_port_switch_from_isr, .-_port_switch_from_isr
  38 000e 00BF     		.section	.text.SVCallVector,"ax",%progbits
  39              		.align	2
  40              		.p2align 4,,15
  41              		.global	SVCallVector
  42              		.thumb
  43              		.thumb_func
  44              		.type	SVCallVector, %function
  45              	SVCallVector:
  46              		@ args = 0, pretend = 0, frame = 0
  47              		@ frame_needed = 0, uses_anonymous_args = 0
  48              		@ link register save eliminated.
  49 0000 4EF63073 		movw	r3, #61232
  50 0004 CEF20003 		movt	r3, 57344
  51 0008 5A68     		ldr	r2, [r3, #4]
  52 000a 22F00102 		bic	r2, r2, #1
  53 000e 5A60     		str	r2, [r3, #4]
  54              	@ 74 "chibios/os/ports/GCC/ARMCMx/chcore_v7m.c" 1
  55 0010 EFF30983 		mrs     r3, PSP
  56              	@ 0 "" 2
  57              		.thumb
ARM GAS  C:\Users\pc\AppData\Local\Temp\ccbZ16ga.s 			page 2


  58 0014 6833     		adds	r3, r3, #104
  59              	@ 81 "chibios/os/ports/GCC/ARMCMx/chcore_v7m.c" 1
  60 0016 83F30988 		msr     PSP, r3
  61              	@ 0 "" 2
  62              		.thumb
  63 001a 0023     		movs	r3, #0
  64              	@ 82 "chibios/os/ports/GCC/ARMCMx/chcore_v7m.c" 1
  65 001c 83F31188 		msr     BASEPRI, r3
  66              	@ 0 "" 2
  67              		.thumb
  68 0020 7047     		bx	lr
  69              		.size	SVCallVector, .-SVCallVector
  70 0022 00BFAFF3 		.section	.text._port_init,"ax",%progbits
  70      0080AFF3 
  70      0080AFF3 
  70      0080
  71              		.align	2
  72              		.p2align 4,,15
  73              		.global	_port_init
  74              		.thumb
  75              		.thumb_func
  76              		.type	_port_init, %function
  77              	_port_init:
  78              		@ args = 0, pretend = 0, frame = 0
  79              		@ frame_needed = 0, uses_anonymous_args = 0
  80 0000 08B5     		push	{r3, lr}
  81 0002 4FF46D43 		mov	r3, #60672
  82 0006 CEF20003 		movt	r3, 57344
  83 000a 4FF44072 		mov	r2, #768
  84 000e C0F2FA52 		movt	r2, 1530
  85 0012 0021     		movs	r1, #0
  86 0014 9960     		str	r1, [r3, #8]
  87 0016 0720     		movs	r0, #7
  88 0018 DA60     		str	r2, [r3, #12]
  89 001a 1021     		movs	r1, #16
  90 001c FFF7FEFF 		bl	nvicSetSystemHandlerPriority
  91 0020 0A20     		movs	r0, #10
  92 0022 2021     		movs	r1, #32
  93 0024 FFF7FEFF 		bl	nvicSetSystemHandlerPriority
  94 0028 0B20     		movs	r0, #11
  95 002a 6021     		movs	r1, #96
  96 002c BDE80840 		pop	{r3, lr}
  97 0030 FFF7FEBF 		b	nvicSetSystemHandlerPriority
  98              		.size	_port_init, .-_port_init
  99 0034 AFF30080 		.section	.text._port_irq_epilogue,"ax",%progbits
  99      AFF30080 
  99      AFF30080 
 100              		.align	2
 101              		.p2align 4,,15
 102              		.global	_port_irq_epilogue
 103              		.thumb
 104              		.thumb_func
 105              		.type	_port_irq_epilogue, %function
 106              	_port_irq_epilogue:
 107              		@ args = 0, pretend = 0, frame = 0
 108              		@ frame_needed = 0, uses_anonymous_args = 0
 109              		@ link register save eliminated.
ARM GAS  C:\Users\pc\AppData\Local\Temp\ccbZ16ga.s 			page 3


 110 0000 2023     		movs	r3, #32
 111              	@ 152 "chibios/os/ports/GCC/ARMCMx/chcore_v7m.c" 1
 112 0002 83F31188 		msr     BASEPRI, r3
 113              	@ 0 "" 2
 114              		.thumb
 115 0006 4FF46D43 		mov	r3, #60672
 116 000a CEF20003 		movt	r3, 57344
 117 000e 5B68     		ldr	r3, [r3, #4]
 118 0010 13F40063 		ands	r3, r3, #2048
 119 0014 29D0     		beq	.L5
 120              	@ 159 "chibios/os/ports/GCC/ARMCMx/chcore_v7m.c" 1
 121 0016 F1EE10FA 		vmrs    APSR_nzcv, FPSCR
 122              	@ 0 "" 2
 123              	@ 163 "chibios/os/ports/GCC/ARMCMx/chcore_v7m.c" 1
 124 001a EFF30983 		mrs     r3, PSP
 125              	@ 0 "" 2
 126              		.thumb
 127 001e 4EF63072 		movw	r2, #61232
 128 0022 CEF20002 		movt	r2, 57344
 129 0026 4FF08071 		mov	r1, #16777216
 130 002a D268     		ldr	r2, [r2, #12]
 131 002c 43F84C1C 		str	r1, [r3, #-76]
 132 0030 43F8082C 		str	r2, [r3, #-8]
 133 0034 A3F16802 		sub	r2, r3, #104
 134              	@ 172 "chibios/os/ports/GCC/ARMCMx/chcore_v7m.c" 1
 135 0038 82F30988 		msr     PSP, r2
 136              	@ 0 "" 2
 137              		.thumb
 138 003c 40F20002 		movw	r2, #:lower16:rlist
 139 0040 C0F20002 		movt	r2, #:upper16:rlist
 140 0044 9169     		ldr	r1, [r2, #24]
 141 0046 91F82200 		ldrb	r0, [r1, #34]	@ zero_extendqisi2
 142 004a 88B1     		cbz	r0, .L6
 143 004c 1068     		ldr	r0, [r2]
 144 004e 8A68     		ldr	r2, [r1, #8]
 145 0050 8168     		ldr	r1, [r0, #8]
 146 0052 9142     		cmp	r1, r2
 147 0054 94BF     		ite	ls
 148 0056 0022     		movls	r2, #0
 149 0058 0122     		movhi	r2, #1
 150 005a 92B1     		cbz	r2, .L8
 151              	.L11:
 152 005c 40F20002 		movw	r2, #:lower16:_port_switch_from_isr
 153 0060 C0F20002 		movt	r2, #:upper16:_port_switch_from_isr
 154 0064 43F8502C 		str	r2, [r3, #-80]
 155 0068 7047     		bx	lr
 156              	.L5:
 157              	@ 190 "chibios/os/ports/GCC/ARMCMx/chcore_v7m.c" 1
 158 006a 83F31188 		msr     BASEPRI, r3
 159              	@ 0 "" 2
 160              		.thumb
 161 006e 7047     		bx	lr
 162              	.L6:
 163 0070 1068     		ldr	r0, [r2]
 164 0072 8A68     		ldr	r2, [r1, #8]
 165 0074 8168     		ldr	r1, [r0, #8]
 166 0076 9142     		cmp	r1, r2
ARM GAS  C:\Users\pc\AppData\Local\Temp\ccbZ16ga.s 			page 4


 167 0078 34BF     		ite	cc
 168 007a 0022     		movcc	r2, #0
 169 007c 0122     		movcs	r2, #1
 170 007e 002A     		cmp	r2, #0
 171 0080 ECD1     		bne	.L11
 172              	.L8:
 173 0082 40F20002 		movw	r2, #:lower16:_port_exit_from_isr
 174 0086 C0F20002 		movt	r2, #:upper16:_port_exit_from_isr
 175 008a 43F8502C 		str	r2, [r3, #-80]
 176 008e 7047     		bx	lr
 177              		.size	_port_irq_epilogue, .-_port_irq_epilogue
 178              		.section	.text.SysTickVector,"ax",%progbits
 179              		.align	2
 180              		.p2align 4,,15
 181              		.global	SysTickVector
 182              		.thumb
 183              		.thumb_func
 184              		.type	SysTickVector, %function
 185              	SysTickVector:
 186              		@ args = 0, pretend = 0, frame = 0
 187              		@ frame_needed = 0, uses_anonymous_args = 0
 188 0000 08B5     		push	{r3, lr}
 189 0002 FFF7FEFF 		bl	dbg_check_enter_isr
 190 0006 2023     		movs	r3, #32
 191              	@ 51 "chibios/os/ports/GCC/ARMCMx/chcore_v7m.c" 1
 192 0008 83F31188 		msr     BASEPRI, r3
 193              	@ 0 "" 2
 194              		.thumb
 195 000c FFF7FEFF 		bl	dbg_check_lock_from_isr
 196 0010 FFF7FEFF 		bl	chSysTimerHandlerI
 197 0014 FFF7FEFF 		bl	dbg_check_unlock_from_isr
 198 0018 0023     		movs	r3, #0
 199              	@ 53 "chibios/os/ports/GCC/ARMCMx/chcore_v7m.c" 1
 200 001a 83F31188 		msr     BASEPRI, r3
 201              	@ 0 "" 2
 202              		.thumb
 203 001e FFF7FEFF 		bl	dbg_check_leave_isr
 204 0022 BDE80840 		pop	{r3, lr}
 205 0026 FFF7FEBF 		b	_port_irq_epilogue
 206              		.size	SysTickVector, .-SysTickVector
 207 002a 00BFAFF3 		.section	.text._port_switch,"ax",%progbits
 207      0080
 208              		.align	2
 209              		.p2align 4,,15
 210              		.global	_port_switch
 211              		.thumb
 212              		.thumb_func
 213              		.type	_port_switch, %function
 214              	_port_switch:
 215              		@ Naked Function: prologue and epilogue provided by programmer.
 216              		@ args = 0, pretend = 0, frame = 0
 217              		@ frame_needed = 0, uses_anonymous_args = 0
 218              	@ 231 "chibios/os/ports/GCC/ARMCMx/chcore_v7m.c" 1
 219 0000 2DE9F04F 		push    {r4, r5, r6, r7, r8, r9, r10, r11, lr}
 220              	@ 0 "" 2
 221              	@ 234 "chibios/os/ports/GCC/ARMCMx/chcore_v7m.c" 1
 222 0004 2DED108A 		vpush   {s16-s31}
ARM GAS  C:\Users\pc\AppData\Local\Temp\ccbZ16ga.s 			page 5


 223              	@ 0 "" 2
 224              	@ 237 "chibios/os/ports/GCC/ARMCMx/chcore_v7m.c" 1
 225 0008 C1F80CD0 		str     sp, [r1, #12]                          
 226 000c D0F80CD0 		ldr     sp, [r0, #12]
 227              	@ 0 "" 2
 228              	@ 241 "chibios/os/ports/GCC/ARMCMx/chcore_v7m.c" 1
 229 0010 BDEC108A 		vpop    {s16-s31}
 230              	@ 0 "" 2
 231              	@ 243 "chibios/os/ports/GCC/ARMCMx/chcore_v7m.c" 1
 232 0014 BDE8F08F 		pop     {r4, r5, r6, r7, r8, r9, r10, r11, pc}
 233              	@ 0 "" 2
 234              		.thumb
 235              		.size	_port_switch, .-_port_switch
 236 0018 AFF30080 		.section	.text._port_thread_start,"ax",%progbits
 236      AFF30080 
 237              		.align	2
 238              		.p2align 4,,15
 239              		.global	_port_thread_start
 240              		.thumb
 241              		.thumb_func
 242              		.type	_port_thread_start, %function
 243              	_port_thread_start:
 244              		@ args = 0, pretend = 0, frame = 0
 245              		@ frame_needed = 0, uses_anonymous_args = 0
 246 0000 08B5     		push	{r3, lr}
 247 0002 FFF7FEFF 		bl	dbg_check_unlock
 248 0006 0023     		movs	r3, #0
 249              	@ 254 "chibios/os/ports/GCC/ARMCMx/chcore_v7m.c" 1
 250 0008 83F31188 		msr     BASEPRI, r3
 251              	@ 0 "" 2
 252              	@ 255 "chibios/os/ports/GCC/ARMCMx/chcore_v7m.c" 1
 253 000c 2846     		mov     r0, r5                                 
 254 000e A047     		blx     r4                                     
 255 0010 FFF7FEFF 		bl      chThdExit
 256              	@ 0 "" 2
 257              		.thumb
 258 0014 08BD     		pop	{r3, pc}
 259              		.size	_port_thread_start, .-_port_thread_start
 260 0016 00BFAFF3 		.ident	"GCC: (Sourcery CodeBench Lite 2013.11-24) 4.8.1"
 260      0080AFF3 
 260      0080
ARM GAS  C:\Users\pc\AppData\Local\Temp\ccbZ16ga.s 			page 6

