ARM GAS  C:\Users\pc\AppData\Local\Temp\ccRKIlmo.s 			page 1


   1              		.syntax unified
   2              		.cpu cortex-m4
   3              		.eabi_attribute 27, 3
   4              		.fpu fpv4-sp-d16
   5              		.eabi_attribute 20, 1
   6              		.eabi_attribute 21, 1
   7              		.eabi_attribute 23, 3
   8              		.eabi_attribute 24, 1
   9              		.eabi_attribute 25, 1
  10              		.eabi_attribute 26, 1
  11              		.eabi_attribute 30, 2
  12              		.eabi_attribute 34, 1
  13              		.eabi_attribute 18, 4
  14              		.thumb
  15              		.file	"chmemcore.c"
  16              		.section	.text._core_init,"ax",%progbits
  17              		.align	2
  18              		.p2align 4,,15
  19              		.global	_core_init
  20              		.thumb
  21              		.thumb_func
  22              		.type	_core_init, %function
  23              	_core_init:
  24              		@ args = 0, pretend = 0, frame = 0
  25              		@ frame_needed = 0, uses_anonymous_args = 0
  26              		@ link register save eliminated.
  27 0000 40F20003 		movw	r3, #:lower16:.LANCHOR1
  28 0004 40F20001 		movw	r1, #:lower16:.LANCHOR0
  29 0008 40F20002 		movw	r2, #:lower16:.LANCHOR2
  30 000c C0F20003 		movt	r3, #:upper16:.LANCHOR1
  31 0010 C0F20001 		movt	r1, #:upper16:.LANCHOR0
  32 0014 C0F20002 		movt	r2, #:upper16:.LANCHOR2
  33 0018 03F50060 		add	r0, r3, #2048
  34 001c 0B60     		str	r3, [r1]
  35 001e 1060     		str	r0, [r2]
  36 0020 7047     		bx	lr
  37              		.size	_core_init, .-_core_init
  38 0022 00BFAFF3 		.section	.text.chCoreAllocI,"ax",%progbits
  38      0080AFF3 
  38      0080AFF3 
  38      0080
  39              		.align	2
  40              		.p2align 4,,15
  41              		.global	chCoreAllocI
  42              		.thumb
  43              		.thumb_func
  44              		.type	chCoreAllocI, %function
  45              	chCoreAllocI:
  46              		@ args = 0, pretend = 0, frame = 0
  47              		@ frame_needed = 0, uses_anonymous_args = 0
  48 0000 10B5     		push	{r4, lr}
  49 0002 0446     		mov	r4, r0
  50 0004 FFF7FEFF 		bl	chDbgCheckClassI
  51 0008 40F20003 		movw	r3, #:lower16:.LANCHOR0
  52 000c 40F20002 		movw	r2, #:lower16:.LANCHOR2
  53 0010 C0F20003 		movt	r3, #:upper16:.LANCHOR0
  54 0014 C0F20002 		movt	r2, #:upper16:.LANCHOR2
ARM GAS  C:\Users\pc\AppData\Local\Temp\ccRKIlmo.s 			page 2


  55 0018 1968     		ldr	r1, [r3]
  56 001a 1268     		ldr	r2, [r2]
  57 001c E01D     		adds	r0, r4, #7
  58 001e 20F00700 		bic	r0, r0, #7
  59 0022 521A     		subs	r2, r2, r1
  60 0024 9042     		cmp	r0, r2
  61 0026 9DBF     		ittte	ls
  62 0028 4018     		addls	r0, r0, r1
  63 002a 1860     		strls	r0, [r3]
  64 002c 0846     		movls	r0, r1
  65 002e 0020     		movhi	r0, #0
  66 0030 10BD     		pop	{r4, pc}
  67              		.size	chCoreAllocI, .-chCoreAllocI
  68 0032 00BFAFF3 		.section	.text.chCoreAlloc,"ax",%progbits
  68      0080AFF3 
  68      0080AFF3 
  68      0080
  69              		.align	2
  70              		.p2align 4,,15
  71              		.global	chCoreAlloc
  72              		.thumb
  73              		.thumb_func
  74              		.type	chCoreAlloc, %function
  75              	chCoreAlloc:
  76              		@ args = 0, pretend = 0, frame = 0
  77              		@ frame_needed = 0, uses_anonymous_args = 0
  78 0000 10B5     		push	{r4, lr}
  79 0002 2023     		movs	r3, #32
  80 0004 0446     		mov	r4, r0
  81              	@ 94 "chibios/os/kernel/src/chmemcore.c" 1
  82 0006 83F31188 		msr     BASEPRI, r3
  83              	@ 0 "" 2
  84              		.thumb
  85 000a FFF7FEFF 		bl	dbg_check_lock
  86 000e 2046     		mov	r0, r4
  87 0010 FFF7FEFF 		bl	chCoreAllocI
  88 0014 0446     		mov	r4, r0
  89 0016 FFF7FEFF 		bl	dbg_check_unlock
  90 001a 0023     		movs	r3, #0
  91              	@ 96 "chibios/os/kernel/src/chmemcore.c" 1
  92 001c 83F31188 		msr     BASEPRI, r3
  93              	@ 0 "" 2
  94              		.thumb
  95 0020 2046     		mov	r0, r4
  96 0022 10BD     		pop	{r4, pc}
  97              		.size	chCoreAlloc, .-chCoreAlloc
  98 0024 AFF30080 		.section	.text.chCoreStatus,"ax",%progbits
  98      AFF30080 
  98      AFF30080 
  99              		.align	2
 100              		.p2align 4,,15
 101              		.global	chCoreStatus
 102              		.thumb
 103              		.thumb_func
 104              		.type	chCoreStatus, %function
 105              	chCoreStatus:
 106              		@ args = 0, pretend = 0, frame = 0
ARM GAS  C:\Users\pc\AppData\Local\Temp\ccRKIlmo.s 			page 3


 107              		@ frame_needed = 0, uses_anonymous_args = 0
 108              		@ link register save eliminated.
 109 0000 40F20002 		movw	r2, #:lower16:.LANCHOR2
 110 0004 40F20003 		movw	r3, #:lower16:.LANCHOR0
 111 0008 C0F20002 		movt	r2, #:upper16:.LANCHOR2
 112 000c C0F20003 		movt	r3, #:upper16:.LANCHOR0
 113 0010 1068     		ldr	r0, [r2]
 114 0012 1B68     		ldr	r3, [r3]
 115 0014 C01A     		subs	r0, r0, r3
 116 0016 7047     		bx	lr
 117              		.size	chCoreStatus, .-chCoreStatus
 118 0018 AFF30080 		.section	.bss.endmem,"aw",%nobits
 118      AFF30080 
 119              		.align	2
 120              		.set	.LANCHOR2,. + 0
 121              		.type	endmem, %object
 122              		.size	endmem, 4
 123              	endmem:
 124 0000 00000000 		.space	4
 125              		.section	.bss.buffer.4817,"aw",%nobits
 126              		.align	3
 127              		.set	.LANCHOR1,. + 0
 128              		.type	buffer.4817, %object
 129              		.size	buffer.4817, 2048
 130              	buffer.4817:
 131 0000 00000000 		.space	2048
 131      00000000 
 131      00000000 
 131      00000000 
 131      00000000 
 132              		.section	.bss.nextmem,"aw",%nobits
 133              		.align	2
 134              		.set	.LANCHOR0,. + 0
 135              		.type	nextmem, %object
 136              		.size	nextmem, 4
 137              	nextmem:
 138 0000 00000000 		.space	4
 139              		.ident	"GCC: (Sourcery CodeBench Lite 2013.11-24) 4.8.1"
ARM GAS  C:\Users\pc\AppData\Local\Temp\ccRKIlmo.s 			page 4

