ARM GAS  C:\Users\pc\AppData\Local\Temp\ccXIeS81.s 			page 1


   1              		.syntax unified
   2              		.cpu cortex-m4
   3              		.eabi_attribute 27, 3
   4              		.fpu fpv4-sp-d16
   5              		.eabi_attribute 20, 1
   6              		.eabi_attribute 21, 1
   7              		.eabi_attribute 23, 3
   8              		.eabi_attribute 24, 1
   9              		.eabi_attribute 25, 1
  10              		.eabi_attribute 26, 1
  11              		.eabi_attribute 30, 2
  12              		.eabi_attribute 34, 1
  13              		.eabi_attribute 18, 4
  14              		.thumb
  15              		.file	"chmsg.c"
  16              		.section	.text.chMsgSend,"ax",%progbits
  17              		.align	2
  18              		.p2align 4,,15
  19              		.global	chMsgSend
  20              		.thumb
  21              		.thumb_func
  22              		.type	chMsgSend, %function
  23              	chMsgSend:
  24              		@ args = 0, pretend = 0, frame = 0
  25              		@ frame_needed = 0, uses_anonymous_args = 0
  26 0000 40F20003 		movw	r3, #:lower16:rlist
  27 0004 C0F20003 		movt	r3, #:upper16:rlist
  28 0008 70B5     		push	{r4, r5, r6, lr}
  29 000a 0546     		mov	r5, r0
  30 000c 0E46     		mov	r6, r1
  31 000e 9C69     		ldr	r4, [r3, #24]
  32 0010 00B3     		cbz	r0, .L5
  33              	.L2:
  34 0012 2023     		movs	r3, #32
  35              	@ 80 "chibios/os/kernel/src/chmsg.c" 1
  36 0014 83F31188 		msr     BASEPRI, r3
  37              	@ 0 "" 2
  38              		.thumb
  39 0018 FFF7FEFF 		bl	dbg_check_lock
  40 001c 05F12C02 		add	r2, r5, #44
  41 0020 95F82010 		ldrb	r1, [r5, #32]	@ zero_extendqisi2
  42 0024 A262     		str	r2, [r4, #40]
  43 0026 2B6B     		ldr	r3, [r5, #48]
  44 0028 6663     		str	r6, [r4, #52]
  45 002a 0C29     		cmp	r1, #12
  46 002c 84E80C00 		stmia	r4, {r2, r3}
  47 0030 2C63     		str	r4, [r5, #48]
  48 0032 1C60     		str	r4, [r3]
  49 0034 0AD0     		beq	.L6
  50              	.L3:
  51 0036 0A20     		movs	r0, #10
  52 0038 FFF7FEFF 		bl	chSchGoSleepS
  53 003c A46A     		ldr	r4, [r4, #40]
  54 003e FFF7FEFF 		bl	dbg_check_unlock
  55 0042 0023     		movs	r3, #0
  56              	@ 88 "chibios/os/kernel/src/chmsg.c" 1
  57 0044 83F31188 		msr     BASEPRI, r3
ARM GAS  C:\Users\pc\AppData\Local\Temp\ccXIeS81.s 			page 2


  58              	@ 0 "" 2
  59              		.thumb
  60 0048 2046     		mov	r0, r4
  61 004a 70BD     		pop	{r4, r5, r6, pc}
  62              	.L6:
  63 004c 2846     		mov	r0, r5
  64 004e FFF7FEFF 		bl	chSchReadyI
  65 0052 F0E7     		b	.L3
  66              	.L5:
  67 0054 40F20000 		movw	r0, #:lower16:.LC0
  68 0058 40F20001 		movw	r1, #:lower16:.LC1
  69 005c C0F20000 		movt	r0, #:upper16:.LC0
  70 0060 C0F20001 		movt	r1, #:upper16:.LC1
  71 0064 4E22     		movs	r2, #78
  72 0066 FFF7FEFF 		bl	chDbgPanic3
  73 006a D2E7     		b	.L2
  74              		.size	chMsgSend, .-chMsgSend
  75 006c AFF30080 		.section	.text.chMsgWait,"ax",%progbits
  76              		.align	2
  77              		.p2align 4,,15
  78              		.global	chMsgWait
  79              		.thumb
  80              		.thumb_func
  81              		.type	chMsgWait, %function
  82              	chMsgWait:
  83              		@ args = 0, pretend = 0, frame = 0
  84              		@ frame_needed = 0, uses_anonymous_args = 0
  85 0000 38B5     		push	{r3, r4, r5, lr}
  86 0002 2023     		movs	r3, #32
  87              	@ 109 "chibios/os/kernel/src/chmsg.c" 1
  88 0004 83F31188 		msr     BASEPRI, r3
  89              	@ 0 "" 2
  90              		.thumb
  91 0008 40F20005 		movw	r5, #:lower16:rlist
  92 000c C0F20005 		movt	r5, #:upper16:rlist
  93 0010 FFF7FEFF 		bl	dbg_check_lock
  94 0014 AA69     		ldr	r2, [r5, #24]
  95 0016 1346     		mov	r3, r2
  96 0018 53F82C4F 		ldr	r4, [r3, #44]!
  97 001c 9C42     		cmp	r4, r3
  98 001e 0CD0     		beq	.L9
  99              	.L8:
 100 0020 2168     		ldr	r1, [r4]
 101 0022 0B20     		movs	r0, #11
 102 0024 D162     		str	r1, [r2, #44]
 103 0026 4B60     		str	r3, [r1, #4]
 104 0028 84F82000 		strb	r0, [r4, #32]
 105 002c FFF7FEFF 		bl	dbg_check_unlock
 106 0030 0023     		movs	r3, #0
 107              	@ 114 "chibios/os/kernel/src/chmsg.c" 1
 108 0032 83F31188 		msr     BASEPRI, r3
 109              	@ 0 "" 2
 110              		.thumb
 111 0036 2046     		mov	r0, r4
 112 0038 38BD     		pop	{r3, r4, r5, pc}
 113              	.L9:
 114 003a 0C20     		movs	r0, #12
ARM GAS  C:\Users\pc\AppData\Local\Temp\ccXIeS81.s 			page 3


 115 003c FFF7FEFF 		bl	chSchGoSleepS
 116 0040 AA69     		ldr	r2, [r5, #24]
 117 0042 D46A     		ldr	r4, [r2, #44]
 118 0044 02F12C03 		add	r3, r2, #44
 119 0048 EAE7     		b	.L8
 120              		.size	chMsgWait, .-chMsgWait
 121 004a 00BFAFF3 		.section	.text.chMsgRelease,"ax",%progbits
 121      0080
 122              		.align	2
 123              		.p2align 4,,15
 124              		.global	chMsgRelease
 125              		.thumb
 126              		.thumb_func
 127              		.type	chMsgRelease, %function
 128              	chMsgRelease:
 129              		@ args = 0, pretend = 0, frame = 0
 130              		@ frame_needed = 0, uses_anonymous_args = 0
 131 0000 38B5     		push	{r3, r4, r5, lr}
 132 0002 0446     		mov	r4, r0
 133 0004 0D46     		mov	r5, r1
 134 0006 2023     		movs	r3, #32
 135              	@ 130 "chibios/os/kernel/src/chmsg.c" 1
 136 0008 83F31188 		msr     BASEPRI, r3
 137              	@ 0 "" 2
 138              		.thumb
 139 000c FFF7FEFF 		bl	dbg_check_lock
 140 0010 94F82030 		ldrb	r3, [r4, #32]	@ zero_extendqisi2
 141 0014 0B2B     		cmp	r3, #11
 142 0016 05D0     		beq	.L11
 143 0018 40F20000 		movw	r0, #:lower16:.LC2
 144 001c C0F20000 		movt	r0, #:upper16:.LC2
 145 0020 FFF7FEFF 		bl	chDbgPanic
 146              	.L11:
 147 0024 2046     		mov	r0, r4
 148 0026 2946     		mov	r1, r5
 149 0028 FFF7FEFF 		bl	chSchWakeupS
 150 002c FFF7FEFF 		bl	dbg_check_unlock
 151 0030 0023     		movs	r3, #0
 152              	@ 134 "chibios/os/kernel/src/chmsg.c" 1
 153 0032 83F31188 		msr     BASEPRI, r3
 154              	@ 0 "" 2
 155              		.thumb
 156 0036 38BD     		pop	{r3, r4, r5, pc}
 157              		.size	chMsgRelease, .-chMsgRelease
 158 0038 AFF30080 		.section	.rodata.str1.4,"aMS",%progbits,1
 158      AFF30080 
 159              		.align	2
 160              	.LC0:
 161 0000 2263684D 		.ascii	"\"chMsgSend\"()\000"
 161      73675365 
 161      6E642228 
 161      2900
 162 000e 0000     		.space	2
 163              	.LC1:
 164 0010 63686962 		.ascii	"chibios/os/kernel/src/chmsg.c\000"
 164      696F732F 
 164      6F732F6B 
ARM GAS  C:\Users\pc\AppData\Local\Temp\ccXIeS81.s 			page 4


 164      65726E65 
 164      6C2F7372 
 165 002e 0000     		.space	2
 166              	.LC2:
 167 0030 63684D73 		.ascii	"chMsgRelease(), #1\000"
 167      6752656C 
 167      65617365 
 167      28292C20 
 167      233100
 168 0043 00       		.ident	"GCC: (Sourcery CodeBench Lite 2013.11-24) 4.8.1"
ARM GAS  C:\Users\pc\AppData\Local\Temp\ccXIeS81.s 			page 5

