ARM GAS  C:\Users\pc\AppData\Local\Temp\ccIyxjV7.s 			page 1


   1              		.syntax unified
   2              		.cpu cortex-m4
   3              		.eabi_attribute 27, 3
   4              		.fpu fpv4-sp-d16
   5              		.eabi_attribute 20, 1
   6              		.eabi_attribute 21, 1
   7              		.eabi_attribute 23, 3
   8              		.eabi_attribute 24, 1
   9              		.eabi_attribute 25, 1
  10              		.eabi_attribute 26, 1
  11              		.eabi_attribute 30, 2
  12              		.eabi_attribute 34, 1
  13              		.eabi_attribute 18, 4
  14              		.thumb
  15              		.file	"chregistry.c"
  16              		.section	.text.chRegFirstThread,"ax",%progbits
  17              		.align	2
  18              		.p2align 4,,15
  19              		.global	chRegFirstThread
  20              		.thumb
  21              		.thumb_func
  22              		.type	chRegFirstThread, %function
  23              	chRegFirstThread:
  24              		@ args = 0, pretend = 0, frame = 0
  25              		@ frame_needed = 0, uses_anonymous_args = 0
  26 0000 10B5     		push	{r4, lr}
  27 0002 2023     		movs	r3, #32
  28              	@ 120 "chibios/os/kernel/src/chregistry.c" 1
  29 0004 83F31188 		msr     BASEPRI, r3
  30              	@ 0 "" 2
  31              		.thumb
  32 0008 FFF7FEFF 		bl	dbg_check_lock
  33 000c 40F20003 		movw	r3, #:lower16:rlist
  34 0010 C0F20003 		movt	r3, #:upper16:rlist
  35 0014 1C69     		ldr	r4, [r3, #16]
  36 0016 FFF7FEFF 		bl	dbg_check_unlock
  37 001a 0023     		movs	r3, #0
  38              	@ 125 "chibios/os/kernel/src/chregistry.c" 1
  39 001c 83F31188 		msr     BASEPRI, r3
  40              	@ 0 "" 2
  41              		.thumb
  42 0020 2046     		mov	r0, r4
  43 0022 10BD     		pop	{r4, pc}
  44              		.size	chRegFirstThread, .-chRegFirstThread
  45 0024 AFF30080 		.section	.text.chRegNextThread,"ax",%progbits
  45      AFF30080 
  45      AFF30080 
  46              		.align	2
  47              		.p2align 4,,15
  48              		.global	chRegNextThread
  49              		.thumb
  50              		.thumb_func
  51              		.type	chRegNextThread, %function
  52              	chRegNextThread:
  53              		@ args = 0, pretend = 0, frame = 0
  54              		@ frame_needed = 0, uses_anonymous_args = 0
  55 0000 10B5     		push	{r4, lr}
ARM GAS  C:\Users\pc\AppData\Local\Temp\ccIyxjV7.s 			page 2


  56 0002 2023     		movs	r3, #32
  57 0004 0446     		mov	r4, r0
  58              	@ 143 "chibios/os/kernel/src/chregistry.c" 1
  59 0006 83F31188 		msr     BASEPRI, r3
  60              	@ 0 "" 2
  61              		.thumb
  62 000a FFF7FEFF 		bl	dbg_check_lock
  63 000e 2469     		ldr	r4, [r4, #16]
  64 0010 40F20003 		movw	r3, #:lower16:rlist
  65 0014 C0F20003 		movt	r3, #:upper16:rlist
  66 0018 9C42     		cmp	r4, r3
  67 001a 08BF     		it	eq
  68 001c 0024     		moveq	r4, #0
  69 001e FFF7FEFF 		bl	dbg_check_unlock
  70 0022 0023     		movs	r3, #0
  71              	@ 154 "chibios/os/kernel/src/chregistry.c" 1
  72 0024 83F31188 		msr     BASEPRI, r3
  73              	@ 0 "" 2
  74              		.thumb
  75 0028 2046     		mov	r0, r4
  76 002a 10BD     		pop	{r4, pc}
  77              		.size	chRegNextThread, .-chRegNextThread
  78              		.global	ch_debug
  79 002c AFF30080 		.section	.rodata.ch_debug,"a",%progbits
  80              		.align	2
  81              		.type	ch_debug, %object
  82              		.size	ch_debug, 22
  83              	ch_debug:
  84 0000 6D61696E 		.ascii	"main"
  85 0004 00       		.byte	0
  86 0005 16       		.byte	22
  87 0006 8811     		.short	4488
  88 0008 04       		.byte	4
  89 0009 04       		.byte	4
  90 000a 4C       		.byte	76
  91 000b 08       		.byte	8
  92 000c 0C       		.byte	12
  93 000d 10       		.byte	16
  94 000e 14       		.byte	20
  95 000f 18       		.byte	24
  96 0010 1C       		.byte	28
  97 0011 20       		.byte	32
  98 0012 21       		.byte	33
  99 0013 00       		.byte	0
 100 0014 22       		.byte	34
 101 0015 24       		.byte	36
 102 0016 0000     		.ident	"GCC: (Sourcery CodeBench Lite 2013.11-24) 4.8.1"
ARM GAS  C:\Users\pc\AppData\Local\Temp\ccIyxjV7.s 			page 3


DEFINED SYMBOLS
                            *ABS*:00000000 chregistry.c
C:\Users\pc\AppData\Local\Temp\ccIyxjV7.s:17     .text.chRegFirstThread:00000000 $t
C:\Users\pc\AppData\Local\Temp\ccIyxjV7.s:23     .text.chRegFirstThread:00000000 chRegFirstThread
C:\Users\pc\AppData\Local\Temp\ccIyxjV7.s:46     .text.chRegNextThread:00000000 $t
C:\Users\pc\AppData\Local\Temp\ccIyxjV7.s:52     .text.chRegNextThread:00000000 chRegNextThread
C:\Users\pc\AppData\Local\Temp\ccIyxjV7.s:83     .rodata.ch_debug:00000000 ch_debug
C:\Users\pc\AppData\Local\Temp\ccIyxjV7.s:80     .rodata.ch_debug:00000000 $d

UNDEFINED SYMBOLS
dbg_check_lock
rlist
dbg_check_unlock
