ARM GAS  C:\Users\pc\AppData\Local\Temp\cc7Utwa7.s 			page 1


   1              		.syntax unified
   2              		.cpu cortex-m4
   3              		.eabi_attribute 27, 3
   4              		.fpu fpv4-sp-d16
   5              		.eabi_attribute 20, 1
   6              		.eabi_attribute 21, 1
   7              		.eabi_attribute 23, 3
   8              		.eabi_attribute 24, 1
   9              		.eabi_attribute 25, 1
  10              		.eabi_attribute 26, 1
  11              		.eabi_attribute 30, 2
  12              		.eabi_attribute 34, 1
  13              		.eabi_attribute 18, 4
  14              		.thumb
  15              		.file	"citroenBerlingoTU3JP.cpp"
  16              		.section	.text._Z6setLCDP21board_configuration_s,"ax",%progbits
  17              		.align	2
  18              		.p2align 4,,15
  19              		.global	_Z6setLCDP21board_configuration_s
  20              		.thumb
  21              		.thumb_func
  22              		.type	_Z6setLCDP21board_configuration_s, %function
  23              	_Z6setLCDP21board_configuration_s:
  24              		@ args = 0, pretend = 0, frame = 0
  25              		@ frame_needed = 0, uses_anonymous_args = 0
  26              		@ link register save eliminated.
  27 0000 70B4     		push	{r4, r5, r6}
  28 0002 4D21     		movs	r1, #77
  29 0004 4726     		movs	r6, #71
  30 0006 4925     		movs	r5, #73
  31 0008 4B24     		movs	r4, #75
  32 000a 4F22     		movs	r2, #79
  33 000c 1A23     		movs	r3, #26
  34 000e C0F8B060 		str	r6, [r0, #176]
  35 0012 C0F8B450 		str	r5, [r0, #180]
  36 0016 C0F8B840 		str	r4, [r0, #184]
  37 001a C0F8BC10 		str	r1, [r0, #188]
  38 001e C0F8C020 		str	r2, [r0, #192]
  39 0022 C0F8C430 		str	r3, [r0, #196]
  40 0026 70BC     		pop	{r4, r5, r6}
  41 0028 7047     		bx	lr
  42              		.size	_Z6setLCDP21board_configuration_s, .-_Z6setLCDP21board_configuration_s
  43 002a 00BFAFF3 		.section	.text._Z36setCitroenBerlingoTU3JPConfigurationv,"ax",%progbits
  43      0080
  44              		.align	2
  45              		.p2align 4,,15
  46              		.global	_Z36setCitroenBerlingoTU3JPConfigurationv
  47              		.thumb
  48              		.thumb_func
  49              		.type	_Z36setCitroenBerlingoTU3JPConfigurationv, %function
  50              	_Z36setCitroenBerlingoTU3JPConfigurationv:
  51              		@ args = 0, pretend = 0, frame = 0
  52              		@ frame_needed = 0, uses_anonymous_args = 0
  53 0000 2DE9F04F 		push	{r4, r5, r6, r7, r8, r9, r10, fp, lr}
  54 0004 40F20006 		movw	r6, #:lower16:engineConfiguration
  55 0008 C0F20006 		movt	r6, #:upper16:engineConfiguration
  56 000c 0F23     		movs	r3, #15
ARM GAS  C:\Users\pc\AppData\Local\Temp\cc7Utwa7.s 			page 2


  57 000e 3068     		ldr	r0, [r6]
  58 0010 85B0     		sub	sp, sp, #20
  59 0012 0360     		str	r3, [r0]
  60 0014 0121     		movs	r1, #1
  61 0016 FFF7FEFF 		bl	_Z16setOperationModeP22engine_configuration_s16operation_mode_e
  62 001a 0025     		movs	r5, #0
  63 001c 3368     		ldr	r3, [r6]
  64 001e 4FF0000C 		mov	ip, #0
  65 0022 41F27B4E 		movw	lr, #5243
  66 0026 0222     		movs	r2, #2
  67 0028 0027     		movs	r7, #0
  68 002a C4F2E42C 		movt	ip, 17124
  69 002e C3F6AE7E 		movt	lr, 16302
  70 0032 4FF0010B 		mov	fp, #1
  71 0036 4FF41671 		mov	r1, #600
  72 003a 4FF0080A 		mov	r10, #8
  73 003e 0424     		movs	r4, #4
  74 0040 41F28830 		movw	r0, #5000
  75 0044 C4F27015 		movt	r5, 16752
  76 0048 4FF00009 		mov	r9, #0
  77 004c C3F8CCC1 		str	ip, [r3, #460]	@ float
  78 0050 C3F89441 		str	r4, [r3, #404]
  79 0054 C3F890E1 		str	lr, [r3, #400]	@ float
  80 0058 C3F8A401 		str	r0, [r3, #420]
  81 005c A3F86010 		strh	r1, [r3, #96]	@ movhi
  82 0060 DD65     		str	r5, [r3, #92]	@ float
  83 0062 C3F818A2 		str	r10, [r3, #536]
  84 0066 C3F898B1 		str	fp, [r3, #408]
  85 006a C3F8BC21 		str	r2, [r3, #444]
  86 006e C3F8B021 		str	r2, [r3, #432]
  87 0072 C3F8AC71 		str	r7, [r3, #428]
  88 0076 C4F2C829 		movt	r9, 17096
  89 007a 5846     		mov	r0, fp
  90 007c 0025     		movs	r5, #0
  91 007e 4FF44044 		mov	r4, #49152
  92 0082 FFF7FEFF 		bl	_Z12setAlgorithm18engine_load_mode_e
  93 0086 C4F24845 		movt	r5, 17480
  94 008a C4F2DA54 		movt	r4, 17882
  95 008e 4946     		mov	r1, r9	@ float
  96 0090 0020     		movs	r0, #0
  97 0092 40F20008 		movw	r8, #:lower16:boardConfiguration
  98 0096 FFF7FEFF 		bl	_Z14setFuelLoadBinff
  99 009a C0F20008 		movt	r8, #:upper16:boardConfiguration
 100 009e 2846     		mov	r0, r5	@ float
 101 00a0 2146     		mov	r1, r4	@ float
 102 00a2 FFF7FEFF 		bl	_Z13setFuelRpmBinff
 103 00a6 2846     		mov	r0, r5	@ float
 104 00a8 2146     		mov	r1, r4	@ float
 105 00aa FFF7FEFF 		bl	_Z15setTimingRpmBinff
 106 00ae D8F80040 		ldr	r4, [r8]
 107 00b2 3568     		ldr	r5, [r6]
 108 00b4 2E20     		movs	r0, #46
 109 00b6 6065     		str	r0, [r4, #84]
 110 00b8 4FF0000E 		mov	lr, #0
 111 00bc 2F20     		movs	r0, #47
 112 00be E065     		str	r0, [r4, #92]
 113 00c0 C4F2093E 		movt	lr, 17161
ARM GAS  C:\Users\pc\AppData\Local\Temp\cc7Utwa7.s 			page 3


 114 00c4 5020     		movs	r0, #80
 115 00c6 A065     		str	r0, [r4, #88]
 116 00c8 2066     		str	r0, [r4, #96]
 117 00ca C5F808E0 		str	lr, [r5, #8]	@ float
 118 00ce A062     		str	r0, [r4, #40]
 119 00d0 E062     		str	r0, [r4, #44]
 120 00d2 4620     		movs	r0, #70
 121 00d4 2062     		str	r0, [r4, #32]
 122 00d6 2D20     		movs	r0, #45
 123 00d8 6062     		str	r0, [r4, #36]
 124 00da 4020     		movs	r0, #64
 125 00dc C4F89000 		str	r0, [r4, #144]
 126 00e0 4120     		movs	r0, #65
 127 00e2 C4F88800 		str	r0, [r4, #136]
 128 00e6 1820     		movs	r0, #24
 129 00e8 C4F83401 		str	r0, [r4, #308]
 130 00ec 1920     		movs	r0, #25
 131 00ee A061     		str	r0, [r4, #24]
 132 00f0 4720     		movs	r0, #71
 133 00f2 C4F8B000 		str	r0, [r4, #176]
 134 00f6 4920     		movs	r0, #73
 135 00f8 C4F8B400 		str	r0, [r4, #180]
 136 00fc 4B20     		movs	r0, #75
 137 00fe C4F8B800 		str	r0, [r4, #184]
 138 0102 4D20     		movs	r0, #77
 139 0104 C4F8BC00 		str	r0, [r4, #188]
 140 0108 4F20     		movs	r0, #79
 141 010a C4F8C000 		str	r0, [r4, #192]
 142 010e 1A20     		movs	r0, #26
 143 0110 C4F8C400 		str	r0, [r4, #196]
 144 0114 0020     		movs	r0, #0
 145 0116 C4F22010 		movt	r0, 16672
 146 011a C4F89470 		str	r7, [r4, #148]
 147 011e C4F88C70 		str	r7, [r4, #140]
 148 0122 E761     		str	r7, [r4, #28]
 149 0124 9FED467A 		flds	s14, .L3
 150 0128 DFED467A 		flds	s15, .L3+4
 151 012c C5F8F000 		str	r0, [r5, #240]	@ float
 152 0130 0324     		movs	r4, #3
 153 0132 6C20     		movs	r0, #108
 154 0134 4FF0000C 		mov	ip, #0
 155 0138 4FF0000E 		mov	lr, #0
 156 013c C5F80C42 		str	r4, [r5, #524]
 157 0140 A5F85200 		strh	r0, [r5, #82]	@ movhi
 158 0144 C4F2B82C 		movt	ip, 17080
 159 0148 C4F2703E 		movt	lr, 17264
 160 014c 4FF44B74 		mov	r4, #812
 161 0150 0D20     		movs	r0, #13
 162 0152 0021     		movs	r1, #0
 163 0154 4FF44042 		mov	r2, #49152
 164 0158 0023     		movs	r3, #0
 165 015a 85ED3D7A 		fsts	s14, [r5, #244]
 166 015e C5F8FCB0 		str	fp, [r5, #252]
 167 0162 C5F8F870 		str	r7, [r5, #248]
 168 0166 A5F85440 		strh	r4, [r5, #84]	@ movhi
 169 016a C5F83C01 		str	r0, [r5, #316]
 170 016e CCF2A011 		movt	r1, 49568
ARM GAS  C:\Users\pc\AppData\Local\Temp\cc7Utwa7.s 			page 4


 171 0172 CDED007A 		fsts	s15, [sp]
 172 0176 05F59070 		add	r0, r5, #288
 173 017a CDF804C0 		str	ip, [sp, #4]	@ float
 174 017e C4F27362 		movt	r2, 18035
 175 0182 CDF808E0 		str	lr, [sp, #8]	@ float
 176 0186 C4F2B813 		movt	r3, 16824
 177 018a FFF7FEFF 		bl	_Z26setThermistorConfigurationP14ThermistorConfffffff
 178 018e 4FF48044 		mov	r4, #16384
 179 0192 3068     		ldr	r0, [r6]
 180 0194 4FF4404C 		mov	ip, #49152
 181 0198 4FF0000E 		mov	lr, #0
 182 019c C4F22E5C 		movt	ip, 17710
 183 01a0 C4F2313E 		movt	lr, 17201
 184 01a4 C4F22654 		movt	r4, 17702
 185 01a8 0B25     		movs	r5, #11
 186 01aa 0021     		movs	r1, #0
 187 01ac 4FF48052 		mov	r2, #4096
 188 01b0 0023     		movs	r3, #0
 189 01b2 C0F81C51 		str	r5, [r0, #284]
 190 01b6 C0F83841 		str	r4, [r0, #312]	@ float
 191 01ba CCF2A011 		movt	r1, 49568
 192 01be CDF800C0 		str	ip, [sp]	@ float
 193 01c2 CDF808E0 		str	lr, [sp, #8]	@ float
 194 01c6 C4F2E062 		movt	r2, 18144
 195 01ca C4F2C813 		movt	r3, 16840
 196 01ce 00F58070 		add	r0, r0, #256
 197 01d2 CDF80490 		str	r9, [sp, #4]	@ float
 198 01d6 FFF7FEFF 		bl	_Z26setThermistorConfigurationP14ThermistorConfffffff
 199 01da 3368     		ldr	r3, [r6]
 200 01dc D8F80020 		ldr	r2, [r8]
 201 01e0 C3F83841 		str	r4, [r3, #312]	@ float
 202 01e4 44F6C660 		movw	r0, #20166
 203 01e8 C4F21C10 		movt	r0, 16668
 204 01ec 0C21     		movs	r1, #12
 205 01ee C3F8D401 		str	r0, [r3, #468]	@ float
 206 01f2 C3F84812 		str	r1, [r3, #584]
 207 01f6 C3F8D871 		str	r7, [r3, #472]
 208 01fa C2F818A3 		str	r10, [r2, #792]
 209 01fe 93F8D925 		ldrb	r2, [r3, #1497]	@ zero_extendqisi2
 210 0202 40F20004 		movw	r4, #:lower16:config
 211 0206 42F00402 		orr	r2, r2, #4
 212 020a C0F20004 		movt	r4, #:upper16:config
 213 020e 83F8D925 		strb	r2, [r3, #1497]
 214 0212 2168     		ldr	r1, [r4]
 215 0214 40F20000 		movw	r0, #:lower16:.LANCHOR0
 216 0218 01F52651 		add	r1, r1, #10624
 217 021c 3831     		adds	r1, r1, #56
 218 021e C0F20000 		movt	r0, #:upper16:.LANCHOR0
 219 0222 FFF7FEFF 		bl	_Z13copyFuelTablePA16_KfPA16_f
 220 0226 2168     		ldr	r1, [r4]
 221 0228 40F20000 		movw	r0, #:lower16:.LANCHOR1
 222 022c 01F53851 		add	r1, r1, #11776
 223 0230 3831     		adds	r1, r1, #56
 224 0232 C0F20000 		movt	r0, #:upper16:.LANCHOR1
 225 0236 05B0     		add	sp, sp, #20
 226              		@ sp needed
 227 0238 BDE8F04F 		pop	{r4, r5, r6, r7, r8, r9, r10, fp, lr}
ARM GAS  C:\Users\pc\AppData\Local\Temp\cc7Utwa7.s 			page 5


 228 023c FFF7FEBF 		b	_Z15copyTimingTablePA16_KfPA16_f
 229              	.L4:
 230              		.align	2
 231              	.L3:
 232 0240 0000DC42 		.word	1121714176
 233 0244 00A00C45 		.word	1158455296
 234              		.size	_Z36setCitroenBerlingoTU3JPConfigurationv, .-_Z36setCitroenBerlingoTU3JPConfigurationv
 235 0248 AFF30080 		.section	.rodata._ZL14tps_fuel_table,"a",%progbits
 235      AFF30080 
 236              		.align	2
 237              		.set	.LANCHOR0,. + 0
 238              		.type	_ZL14tps_fuel_table, %object
 239              		.size	_ZL14tps_fuel_table, 1024
 240              	_ZL14tps_fuel_table:
 241 0000 00008040 		.word	1082130432
 242 0004 00008040 		.word	1082130432
 243 0008 00008040 		.word	1082130432
 244 000c 00008040 		.word	1082130432
 245 0010 00008040 		.word	1082130432
 246 0014 00008040 		.word	1082130432
 247 0018 00008040 		.word	1082130432
 248 001c 00008040 		.word	1082130432
 249 0020 00008040 		.word	1082130432
 250 0024 00008040 		.word	1082130432
 251 0028 00008040 		.word	1082130432
 252 002c 00008040 		.word	1082130432
 253 0030 00008040 		.word	1082130432
 254 0034 00008040 		.word	1082130432
 255 0038 00008040 		.word	1082130432
 256 003c 00008040 		.word	1082130432
 257 0040 713DA240 		.word	1084374385
 258 0044 713DA240 		.word	1084374385
 259 0048 713DA240 		.word	1084374385
 260 004c 713DA240 		.word	1084374385
 261 0050 713DA240 		.word	1084374385
 262 0054 713DA240 		.word	1084374385
 263 0058 713DA240 		.word	1084374385
 264 005c 713DA240 		.word	1084374385
 265 0060 713DA240 		.word	1084374385
 266 0064 713DA240 		.word	1084374385
 267 0068 713DA240 		.word	1084374385
 268 006c 713DA240 		.word	1084374385
 269 0070 713DA240 		.word	1084374385
 270 0074 713DA240 		.word	1084374385
 271 0078 713DA240 		.word	1084374385
 272 007c 713DA240 		.word	1084374385
 273 0080 F628C440 		.word	1086597366
 274 0084 F628C440 		.word	1086597366
 275 0088 F628C440 		.word	1086597366
 276 008c F628C440 		.word	1086597366
 277 0090 F628C440 		.word	1086597366
 278 0094 F628C440 		.word	1086597366
 279 0098 F628C440 		.word	1086597366
 280 009c F628C440 		.word	1086597366
 281 00a0 F628C440 		.word	1086597366
 282 00a4 F628C440 		.word	1086597366
 283 00a8 F628C440 		.word	1086597366
ARM GAS  C:\Users\pc\AppData\Local\Temp\cc7Utwa7.s 			page 6


 284 00ac F628C440 		.word	1086597366
 285 00b0 F628C440 		.word	1086597366
 286 00b4 F628C440 		.word	1086597366
 287 00b8 F628C440 		.word	1086597366
 288 00bc F628C440 		.word	1086597366
 289 00c0 6666E640 		.word	1088841318
 290 00c4 6666E640 		.word	1088841318
 291 00c8 6666E640 		.word	1088841318
 292 00cc 6666E640 		.word	1088841318
 293 00d0 6666E640 		.word	1088841318
 294 00d4 6666E640 		.word	1088841318
 295 00d8 6666E640 		.word	1088841318
 296 00dc 6666E640 		.word	1088841318
 297 00e0 6666E640 		.word	1088841318
 298 00e4 6666E640 		.word	1088841318
 299 00e8 6666E640 		.word	1088841318
 300 00ec 6666E640 		.word	1088841318
 301 00f0 6666E640 		.word	1088841318
 302 00f4 6666E640 		.word	1088841318
 303 00f8 6666E640 		.word	1088841318
 304 00fc 6666E640 		.word	1088841318
 305 0100 EC510441 		.word	1090802156
 306 0104 EC510441 		.word	1090802156
 307 0108 EC510441 		.word	1090802156
 308 010c EC510441 		.word	1090802156
 309 0110 EC510441 		.word	1090802156
 310 0114 EC510441 		.word	1090802156
 311 0118 EC510441 		.word	1090802156
 312 011c EC510441 		.word	1090802156
 313 0120 EC510441 		.word	1090802156
 314 0124 EC510441 		.word	1090802156
 315 0128 EC510441 		.word	1090802156
 316 012c EC510441 		.word	1090802156
 317 0130 EC510441 		.word	1090802156
 318 0134 EC510441 		.word	1090802156
 319 0138 EC510441 		.word	1090802156
 320 013c EC510441 		.word	1090802156
 321 0140 AE471541 		.word	1091913646
 322 0144 AE471541 		.word	1091913646
 323 0148 AE471541 		.word	1091913646
 324 014c AE471541 		.word	1091913646
 325 0150 AE471541 		.word	1091913646
 326 0154 AE471541 		.word	1091913646
 327 0158 AE471541 		.word	1091913646
 328 015c AE471541 		.word	1091913646
 329 0160 AE471541 		.word	1091913646
 330 0164 AE471541 		.word	1091913646
 331 0168 AE471541 		.word	1091913646
 332 016c AE471541 		.word	1091913646
 333 0170 AE471541 		.word	1091913646
 334 0174 AE471541 		.word	1091913646
 335 0178 AE471541 		.word	1091913646
 336 017c AE471541 		.word	1091913646
 337 0180 66662641 		.word	1093035622
 338 0184 66662641 		.word	1093035622
 339 0188 66662641 		.word	1093035622
 340 018c 66662641 		.word	1093035622
ARM GAS  C:\Users\pc\AppData\Local\Temp\cc7Utwa7.s 			page 7


 341 0190 66662641 		.word	1093035622
 342 0194 66662641 		.word	1093035622
 343 0198 66662641 		.word	1093035622
 344 019c 66662641 		.word	1093035622
 345 01a0 66662641 		.word	1093035622
 346 01a4 66662641 		.word	1093035622
 347 01a8 66662641 		.word	1093035622
 348 01ac 66662641 		.word	1093035622
 349 01b0 66662641 		.word	1093035622
 350 01b4 66662641 		.word	1093035622
 351 01b8 66662641 		.word	1093035622
 352 01bc 66662641 		.word	1093035622
 353 01c0 1F853741 		.word	1094157599
 354 01c4 1F853741 		.word	1094157599
 355 01c8 1F853741 		.word	1094157599
 356 01cc 1F853741 		.word	1094157599
 357 01d0 1F853741 		.word	1094157599
 358 01d4 1F853741 		.word	1094157599
 359 01d8 1F853741 		.word	1094157599
 360 01dc 1F853741 		.word	1094157599
 361 01e0 1F853741 		.word	1094157599
 362 01e4 1F853741 		.word	1094157599
 363 01e8 1F853741 		.word	1094157599
 364 01ec 1F853741 		.word	1094157599
 365 01f0 1F853741 		.word	1094157599
 366 01f4 1F853741 		.word	1094157599
 367 01f8 1F853741 		.word	1094157599
 368 01fc 1F853741 		.word	1094157599
 369 0200 E17A4841 		.word	1095269089
 370 0204 E17A4841 		.word	1095269089
 371 0208 E17A4841 		.word	1095269089
 372 020c E17A4841 		.word	1095269089
 373 0210 E17A4841 		.word	1095269089
 374 0214 E17A4841 		.word	1095269089
 375 0218 E17A4841 		.word	1095269089
 376 021c E17A4841 		.word	1095269089
 377 0220 E17A4841 		.word	1095269089
 378 0224 E17A4841 		.word	1095269089
 379 0228 E17A4841 		.word	1095269089
 380 022c E17A4841 		.word	1095269089
 381 0230 E17A4841 		.word	1095269089
 382 0234 E17A4841 		.word	1095269089
 383 0238 E17A4841 		.word	1095269089
 384 023c E17A4841 		.word	1095269089
 385 0240 9A994941 		.word	1095342490
 386 0244 9A995941 		.word	1096391066
 387 0248 9A995941 		.word	1096391066
 388 024c 9A995941 		.word	1096391066
 389 0250 9A995941 		.word	1096391066
 390 0254 9A995941 		.word	1096391066
 391 0258 9A995941 		.word	1096391066
 392 025c 9A995941 		.word	1096391066
 393 0260 9A995941 		.word	1096391066
 394 0264 9A995941 		.word	1096391066
 395 0268 9A995941 		.word	1096391066
 396 026c 9A995941 		.word	1096391066
 397 0270 9A995941 		.word	1096391066
ARM GAS  C:\Users\pc\AppData\Local\Temp\cc7Utwa7.s 			page 8


 398 0274 9A995941 		.word	1096391066
 399 0278 9A995941 		.word	1096391066
 400 027c 9A995941 		.word	1096391066
 401 0280 52B86A41 		.word	1097513042
 402 0284 52B86A41 		.word	1097513042
 403 0288 52B86A41 		.word	1097513042
 404 028c 52B86A41 		.word	1097513042
 405 0290 52B86A41 		.word	1097513042
 406 0294 52B86A41 		.word	1097513042
 407 0298 52B86A41 		.word	1097513042
 408 029c 52B86A41 		.word	1097513042
 409 02a0 52B86A41 		.word	1097513042
 410 02a4 52B86A41 		.word	1097513042
 411 02a8 52B86A41 		.word	1097513042
 412 02ac 52B86A41 		.word	1097513042
 413 02b0 52B86A41 		.word	1097513042
 414 02b4 52B86A41 		.word	1097513042
 415 02b8 52B86A41 		.word	1097513042
 416 02bc 52B86A41 		.word	1097513042
 417 02c0 14AE7B41 		.word	1098624532
 418 02c4 14AE7B41 		.word	1098624532
 419 02c8 14AE7B41 		.word	1098624532
 420 02cc 14AE7B41 		.word	1098624532
 421 02d0 14AE7B41 		.word	1098624532
 422 02d4 14AE7B41 		.word	1098624532
 423 02d8 14AE7B41 		.word	1098624532
 424 02dc 14AE7B41 		.word	1098624532
 425 02e0 14AE7B41 		.word	1098624532
 426 02e4 14AE7B41 		.word	1098624532
 427 02e8 14AE7B41 		.word	1098624532
 428 02ec 14AE7B41 		.word	1098624532
 429 02f0 14AE7B41 		.word	1098624532
 430 02f4 14AE7B41 		.word	1098624532
 431 02f8 14AE7B41 		.word	1098624532
 432 02fc 14AE7B41 		.word	1098624532
 433 0300 66668641 		.word	1099327078
 434 0304 66668641 		.word	1099327078
 435 0308 66668641 		.word	1099327078
 436 030c 66668641 		.word	1099327078
 437 0310 66668641 		.word	1099327078
 438 0314 66668641 		.word	1099327078
 439 0318 66668641 		.word	1099327078
 440 031c 66668641 		.word	1099327078
 441 0320 66668641 		.word	1099327078
 442 0324 66668641 		.word	1099327078
 443 0328 66668641 		.word	1099327078
 444 032c 66668641 		.word	1099327078
 445 0330 66668641 		.word	1099327078
 446 0334 66668641 		.word	1099327078
 447 0338 66668641 		.word	1099327078
 448 033c 66668641 		.word	1099327078
 449 0340 C3F58E41 		.word	1099888067
 450 0344 C3F58E41 		.word	1099888067
 451 0348 C3F58E41 		.word	1099888067
 452 034c C3F58E41 		.word	1099888067
 453 0350 C3F58E41 		.word	1099888067
 454 0354 C3F58E41 		.word	1099888067
ARM GAS  C:\Users\pc\AppData\Local\Temp\cc7Utwa7.s 			page 9


 455 0358 C3F58E41 		.word	1099888067
 456 035c C3F58E41 		.word	1099888067
 457 0360 C3F58E41 		.word	1099888067
 458 0364 C3F58E41 		.word	1099888067
 459 0368 C3F58E41 		.word	1099888067
 460 036c C3F58E41 		.word	1099888067
 461 0370 C3F58E41 		.word	1099888067
 462 0374 C3F58E41 		.word	1099888067
 463 0378 C3F58E41 		.word	1099888067
 464 037c C3F58E41 		.word	1099888067
 465 0380 A4709741 		.word	1100443812
 466 0384 A4709741 		.word	1100443812
 467 0388 A4709741 		.word	1100443812
 468 038c A4709741 		.word	1100443812
 469 0390 A4709741 		.word	1100443812
 470 0394 A4709741 		.word	1100443812
 471 0398 A4709741 		.word	1100443812
 472 039c A4709741 		.word	1100443812
 473 03a0 A4709741 		.word	1100443812
 474 03a4 A4709741 		.word	1100443812
 475 03a8 A4709741 		.word	1100443812
 476 03ac A4709741 		.word	1100443812
 477 03b0 A4709741 		.word	1100443812
 478 03b4 A4709741 		.word	1100443812
 479 03b8 A4709741 		.word	1100443812
 480 03bc A4709741 		.word	1100443812
 481 03c0 0000A041 		.word	1101004800
 482 03c4 0000A041 		.word	1101004800
 483 03c8 0000A041 		.word	1101004800
 484 03cc 0000A041 		.word	1101004800
 485 03d0 0000A041 		.word	1101004800
 486 03d4 0000A041 		.word	1101004800
 487 03d8 0000A041 		.word	1101004800
 488 03dc 0000A041 		.word	1101004800
 489 03e0 0000A041 		.word	1101004800
 490 03e4 0000A041 		.word	1101004800
 491 03e8 0000A041 		.word	1101004800
 492 03ec 0000A041 		.word	1101004800
 493 03f0 0000A041 		.word	1101004800
 494 03f4 0000A041 		.word	1101004800
 495 03f8 0000A041 		.word	1101004800
 496 03fc 0000A041 		.word	1101004800
 497              		.section	.rodata._ZL17tps_advance_table,"a",%progbits
 498              		.align	2
 499              		.set	.LANCHOR1,. + 0
 500              		.type	_ZL17tps_advance_table, %object
 501              		.size	_ZL17tps_advance_table, 1024
 502              	_ZL17tps_advance_table:
 503 0000 00007041 		.word	1097859072
 504 0004 D7A38241 		.word	1099080663
 505 0008 295C8D41 		.word	1099783209
 506 000c 00009841 		.word	1100480512
 507 0010 D7A3A241 		.word	1101177815
 508 0014 295CAD41 		.word	1101880361
 509 0018 0000B841 		.word	1102577664
 510 001c D7A3C241 		.word	1103274967
 511 0020 295CCD41 		.word	1103977513
ARM GAS  C:\Users\pc\AppData\Local\Temp\cc7Utwa7.s 			page 10


 512 0024 0000D841 		.word	1104674816
 513 0028 D7A3E241 		.word	1105372119
 514 002c 295CED41 		.word	1106074665
 515 0030 0000F841 		.word	1106771968
 516 0034 EC510142 		.word	1107382764
 517 0038 14AE0642 		.word	1107734036
 518 003c 00000C42 		.word	1108082688
 519 0040 CDCC6C41 		.word	1097649357
 520 0044 C3F58041 		.word	1098970563
 521 0048 9A998B41 		.word	1099667866
 522 004c F6289641 		.word	1100359926
 523 0050 CDCCA041 		.word	1101057229
 524 0054 295CAB41 		.word	1101749289
 525 0058 0000B641 		.word	1102446592
 526 005c 5C8FC041 		.word	1103138652
 527 0060 3333CB41 		.word	1103835955
 528 0064 8FC2D541 		.word	1104528015
 529 0068 EC51E041 		.word	1105220076
 530 006c C3F5EA41 		.word	1105917379
 531 0070 1F85F541 		.word	1106609439
 532 0074 7B140042 		.word	1107301499
 533 0078 295C0542 		.word	1107647529
 534 007c 14AE0A42 		.word	1107996180
 535 0080 9A996941 		.word	1097439642
 536 0084 52B87E41 		.word	1098823762
 537 0088 0AD78941 		.word	1099552522
 538 008c 66669441 		.word	1100244582
 539 0090 48E19E41 		.word	1100931400
 540 0094 A470A941 		.word	1101623460
 541 0098 85EBB341 		.word	1102310277
 542 009c E17ABE41 		.word	1103002337
 543 00a0 C3F5C841 		.word	1103689155
 544 00a4 1F85D341 		.word	1104381215
 545 00a8 7B14DE41 		.word	1105073275
 546 00ac 5C8FE841 		.word	1105760092
 547 00b0 B81EF341 		.word	1106452152
 548 00b4 9A99FD41 		.word	1107138970
 549 00b8 7B140442 		.word	1107563643
 550 00bc EC510942 		.word	1107907052
 551 00c0 66666641 		.word	1097229926
 552 00c4 295C7B41 		.word	1098603561
 553 00c8 7B148841 		.word	1099437179
 554 00cc 5C8F9241 		.word	1100123996
 555 00d0 3D0A9D41 		.word	1100810813
 556 00d4 A470A741 		.word	1101492388
 557 00d8 85EBB141 		.word	1102179205
 558 00dc 6666BC41 		.word	1102866022
 559 00e0 CDCCC641 		.word	1103547597
 560 00e4 AE47D141 		.word	1104234414
 561 00e8 8FC2DB41 		.word	1104921231
 562 00ec F628E641 		.word	1105602806
 563 00f0 D7A3F041 		.word	1106289623
 564 00f4 B81EFB41 		.word	1106976440
 565 00f8 8FC20242 		.word	1107477135
 566 00fc 00000842 		.word	1107820544
 567 0100 33336341 		.word	1097020211
 568 0104 00007841 		.word	1098383360
ARM GAS  C:\Users\pc\AppData\Local\Temp\cc7Utwa7.s 			page 11


 569 0108 66668641 		.word	1099327078
 570 010c 52B89041 		.word	1100003410
 571 0110 B81E9B41 		.word	1100684984
 572 0114 1F85A541 		.word	1101366559
 573 0118 85EBAF41 		.word	1102048133
 574 011c 713DBA41 		.word	1102724465
 575 0120 D7A3C441 		.word	1103406039
 576 0124 3D0ACF41 		.word	1104087613
 577 0128 A470D941 		.word	1104769188
 578 012c 0AD7E341 		.word	1105450762
 579 0130 F628EE41 		.word	1106127094
 580 0134 5C8FF841 		.word	1106808668
 581 0138 E17A0142 		.word	1107393249
 582 013c 14AE0642 		.word	1107734036
 583 0140 00006041 		.word	1096810496
 584 0144 D7A37441 		.word	1098163159
 585 0148 D7A38441 		.word	1099211735
 586 014c C3F58E41 		.word	1099888067
 587 0150 AE479941 		.word	1100564398
 588 0154 1F85A341 		.word	1101235487
 589 0158 0AD7AD41 		.word	1101911818
 590 015c F628B841 		.word	1102588150
 591 0160 E17AC241 		.word	1103264481
 592 0164 CDCCCC41 		.word	1103940813
 593 0168 B81ED741 		.word	1104617144
 594 016c A470E141 		.word	1105293476
 595 0170 8FC2EB41 		.word	1105969807
 596 0174 7B14F641 		.word	1106646139
 597 0178 F6280042 		.word	1107306742
 598 017c EC510542 		.word	1107644908
 599 0180 CDCC5C41 		.word	1096600781
 600 0184 AE477141 		.word	1097942958
 601 0188 48E18241 		.word	1099096392
 602 018c B81E8D41 		.word	1099767480
 603 0190 295C9741 		.word	1100438569
 604 0194 9A99A141 		.word	1101109658
 605 0198 0AD7AB41 		.word	1101780746
 606 019c 7B14B641 		.word	1102451835
 607 01a0 EC51C041 		.word	1103122924
 608 01a4 5C8FCA41 		.word	1103794012
 609 01a8 CDCCD441 		.word	1104465101
 610 01ac 3D0ADF41 		.word	1105136189
 611 01b0 AE47E941 		.word	1105807278
 612 01b4 1F85F341 		.word	1106478367
 613 01b8 8FC2FD41 		.word	1107149455
 614 01bc 00000442 		.word	1107558400
 615 01c0 9A995941 		.word	1096391066
 616 01c4 85EB6D41 		.word	1097722757
 617 01c8 B81E8141 		.word	1098981048
 618 01cc AE478B41 		.word	1099646894
 619 01d0 A4709541 		.word	1100312740
 620 01d4 14AE9F41 		.word	1100983828
 621 01d8 0AD7A941 		.word	1101649674
 622 01dc 0000B441 		.word	1102315520
 623 01e0 F628BE41 		.word	1102981366
 624 01e4 EC51C841 		.word	1103647212
 625 01e8 E17AD241 		.word	1104313057
ARM GAS  C:\Users\pc\AppData\Local\Temp\cc7Utwa7.s 			page 12


 626 01ec D7A3DC41 		.word	1104978903
 627 01f0 CDCCE641 		.word	1105644749
 628 01f4 C3F5F041 		.word	1106310595
 629 01f8 3333FB41 		.word	1106981683
 630 01fc 14AE0242 		.word	1107471892
 631 0200 66665641 		.word	1096181350
 632 0204 5C8F6A41 		.word	1097502556
 633 0208 52B87E41 		.word	1098823762
 634 020c 1F858941 		.word	1099531551
 635 0210 9A999341 		.word	1100192154
 636 0214 14AE9D41 		.word	1100852756
 637 0218 8FC2A741 		.word	1101513359
 638 021c 85EBB141 		.word	1102179205
 639 0220 0000BC41 		.word	1102839808
 640 0224 7B14C641 		.word	1103500411
 641 0228 F628D041 		.word	1104161014
 642 022c 713DDA41 		.word	1104821617
 643 0230 6666E441 		.word	1105487462
 644 0234 E17AEE41 		.word	1106148065
 645 0238 5C8FF841 		.word	1106808668
 646 023c EC510142 		.word	1107382764
 647 0240 33335341 		.word	1095971635
 648 0244 33336741 		.word	1097282355
 649 0248 295C7B41 		.word	1098603561
 650 024c 14AE8741 		.word	1099410964
 651 0250 14AE9141 		.word	1100066324
 652 0254 8FC29B41 		.word	1100726927
 653 0258 8FC2A541 		.word	1101382287
 654 025c 8FC2AF41 		.word	1102037647
 655 0260 0AD7B941 		.word	1102698250
 656 0264 0AD7C341 		.word	1103353610
 657 0268 0AD7CD41 		.word	1104008970
 658 026c 85EBD741 		.word	1104669573
 659 0270 85EBE141 		.word	1105324933
 660 0274 85EBEB41 		.word	1105980293
 661 0278 0000F641 		.word	1106640896
 662 027c 00000042 		.word	1107296256
 663 0280 00005041 		.word	1095761920
 664 0284 0AD76341 		.word	1097062154
 665 0288 0AD77741 		.word	1098372874
 666 028c 0AD78541 		.word	1099290378
 667 0290 0AD78F41 		.word	1099945738
 668 0294 8FC29941 		.word	1100595855
 669 0298 8FC2A341 		.word	1101251215
 670 029c 14AEAD41 		.word	1101901332
 671 02a0 14AEB741 		.word	1102556692
 672 02a4 9A99C141 		.word	1103206810
 673 02a8 1F85CB41 		.word	1103856927
 674 02ac 1F85D541 		.word	1104512287
 675 02b0 A470DF41 		.word	1105162404
 676 02b4 A470E941 		.word	1105817764
 677 02b8 295CF341 		.word	1106467881
 678 02bc 295CFD41 		.word	1107123241
 679 02c0 CDCC4C41 		.word	1095552205
 680 02c4 D7A36041 		.word	1096852439
 681 02c8 EC517441 		.word	1098142188
 682 02cc 7B148441 		.word	1099175035
ARM GAS  C:\Users\pc\AppData\Local\Temp\cc7Utwa7.s 			page 13


 683 02d0 85EB8D41 		.word	1099819909
 684 02d4 0AD79741 		.word	1100470026
 685 02d8 14AEA141 		.word	1101114900
 686 02dc 9A99AB41 		.word	1101765018
 687 02e0 A470B541 		.word	1102409892
 688 02e4 295CBF41 		.word	1103060009
 689 02e8 AE47C941 		.word	1103710126
 690 02ec B81ED341 		.word	1104355000
 691 02f0 3D0ADD41 		.word	1105005117
 692 02f4 48E1E641 		.word	1105649992
 693 02f8 CDCCF041 		.word	1106300109
 694 02fc D7A3FA41 		.word	1106944983
 695 0300 9A994941 		.word	1095342490
 696 0304 AE475D41 		.word	1096632238
 697 0308 CDCC7041 		.word	1097911501
 698 030c 713D8241 		.word	1099054449
 699 0310 7B148C41 		.word	1099699323
 700 0314 0AD79541 		.word	1100338954
 701 0318 14AE9F41 		.word	1100983828
 702 031c 1F85A941 		.word	1101628703
 703 0320 AE47B341 		.word	1102268334
 704 0324 B81EBD41 		.word	1102913208
 705 0328 C3F5C641 		.word	1103558083
 706 032c 52B8D041 		.word	1104197714
 707 0330 5C8FDA41 		.word	1104842588
 708 0334 6666E441 		.word	1105487462
 709 0338 F628EE41 		.word	1106127094
 710 033c 0000F841 		.word	1106771968
 711 0340 66664641 		.word	1095132774
 712 0344 85EB5941 		.word	1096412037
 713 0348 A4706D41 		.word	1097691300
 714 034c 66668041 		.word	1098933862
 715 0350 F6288A41 		.word	1099573494
 716 0354 85EB9341 		.word	1100213125
 717 0358 14AE9D41 		.word	1100852756
 718 035c 295CA741 		.word	1101487145
 719 0360 B81EB141 		.word	1102126776
 720 0364 48E1BA41 		.word	1102766408
 721 0368 D7A3C441 		.word	1103406039
 722 036c 6666CE41 		.word	1104045670
 723 0370 7B14D841 		.word	1104680059
 724 0374 0AD7E141 		.word	1105319690
 725 0378 9A99EB41 		.word	1105959322
 726 037c 295CF541 		.word	1106598953
 727 0380 33334341 		.word	1094923059
 728 0384 5C8F5641 		.word	1096191836
 729 0388 85EB6941 		.word	1097460613
 730 038c AE477D41 		.word	1098729390
 731 0390 EC518841 		.word	1099452908
 732 0394 85EB9141 		.word	1100082053
 733 0398 9A999B41 		.word	1100716442
 734 039c AE47A541 		.word	1101350830
 735 03a0 C3F5AE41 		.word	1101985219
 736 03a4 D7A3B841 		.word	1102619607
 737 03a8 EC51C241 		.word	1103253996
 738 03ac 0000CC41 		.word	1103888384
 739 03b0 14AED541 		.word	1104522772
ARM GAS  C:\Users\pc\AppData\Local\Temp\cc7Utwa7.s 			page 14


 740 03b4 295CDF41 		.word	1105157161
 741 03b8 C3F5E841 		.word	1105786307
 742 03bc D7A3F241 		.word	1106420695
 743 03c0 00004041 		.word	1094713344
 744 03c4 33335341 		.word	1095971635
 745 03c8 66666641 		.word	1097229926
 746 03cc 9A997941 		.word	1098488218
 747 03d0 66668641 		.word	1099327078
 748 03d4 00009041 		.word	1099956224
 749 03d8 9A999941 		.word	1100585370
 750 03dc 3333A341 		.word	1101214515
 751 03e0 CDCCAC41 		.word	1101843661
 752 03e4 6666B641 		.word	1102472806
 753 03e8 0000C041 		.word	1103101952
 754 03ec 9A99C941 		.word	1103731098
 755 03f0 3333D341 		.word	1104360243
 756 03f4 CDCCDC41 		.word	1104989389
 757 03f8 6666E641 		.word	1105618534
 758 03fc 0000F041 		.word	1106247680
 759              		.ident	"GCC: (Sourcery CodeBench Lite 2013.11-24) 4.8.1"
ARM GAS  C:\Users\pc\AppData\Local\Temp\cc7Utwa7.s 			page 15


DEFINED SYMBOLS
                            *ABS*:00000000 citroenBerlingoTU3JP.cpp
C:\Users\pc\AppData\Local\Temp\cc7Utwa7.s:17     .text._Z6setLCDP21board_configuration_s:00000000 $t
C:\Users\pc\AppData\Local\Temp\cc7Utwa7.s:23     .text._Z6setLCDP21board_configuration_s:00000000 _Z6setLCDP21board_configuration_s
C:\Users\pc\AppData\Local\Temp\cc7Utwa7.s:44     .text._Z36setCitroenBerlingoTU3JPConfigurationv:00000000 $t
C:\Users\pc\AppData\Local\Temp\cc7Utwa7.s:50     .text._Z36setCitroenBerlingoTU3JPConfigurationv:00000000 _Z36setCitroenBerlingoTU3JPConfigurationv
C:\Users\pc\AppData\Local\Temp\cc7Utwa7.s:237    .rodata._ZL14tps_fuel_table:00000000 .LANCHOR0
C:\Users\pc\AppData\Local\Temp\cc7Utwa7.s:499    .rodata._ZL17tps_advance_table:00000000 .LANCHOR1
C:\Users\pc\AppData\Local\Temp\cc7Utwa7.s:232    .text._Z36setCitroenBerlingoTU3JPConfigurationv:00000240 $d
C:\Users\pc\AppData\Local\Temp\cc7Utwa7.s:236    .rodata._ZL14tps_fuel_table:00000000 $d
C:\Users\pc\AppData\Local\Temp\cc7Utwa7.s:240    .rodata._ZL14tps_fuel_table:00000000 _ZL14tps_fuel_table
C:\Users\pc\AppData\Local\Temp\cc7Utwa7.s:498    .rodata._ZL17tps_advance_table:00000000 $d
C:\Users\pc\AppData\Local\Temp\cc7Utwa7.s:502    .rodata._ZL17tps_advance_table:00000000 _ZL17tps_advance_table
C:\Users\pc\AppData\Local\Temp\cc7Utwa7.s:235    .text._Z36setCitroenBerlingoTU3JPConfigurationv:00000248 $t

UNDEFINED SYMBOLS
engineConfiguration
_Z16setOperationModeP22engine_configuration_s16operation_mode_e
_Z12setAlgorithm18engine_load_mode_e
boardConfiguration
_Z14setFuelLoadBinff
_Z13setFuelRpmBinff
_Z15setTimingRpmBinff
_Z26setThermistorConfigurationP14ThermistorConfffffff
config
_Z13copyFuelTablePA16_KfPA16_f
_Z15copyTimingTablePA16_KfPA16_f
