ARM GAS  C:\Users\pc\AppData\Local\Temp\cc39fOZZ.s 			page 1


   1              		.syntax unified
   2              		.cpu cortex-m4
   3              		.eabi_attribute 27, 3
   4              		.fpu fpv4-sp-d16
   5              		.eabi_attribute 20, 1
   6              		.eabi_attribute 21, 1
   7              		.eabi_attribute 23, 3
   8              		.eabi_attribute 24, 1
   9              		.eabi_attribute 25, 1
  10              		.eabi_attribute 26, 1
  11              		.eabi_attribute 30, 2
  12              		.eabi_attribute 34, 1
  13              		.eabi_attribute 18, 4
  14              		.thumb
  15              		.file	"console_io.cpp"
  16              		.section	.text._ZL22switchToBinaryProtocolv,"ax",%progbits
  17              		.align	2
  18              		.p2align 4,,15
  19              		.thumb
  20              		.thumb_func
  21              		.type	_ZL22switchToBinaryProtocolv, %function
  22              	_ZL22switchToBinaryProtocolv:
  23              		@ args = 0, pretend = 0, frame = 0
  24              		@ frame_needed = 0, uses_anonymous_args = 0
  25 0000 08B5     		push	{r3, lr}
  26 0002 40F20003 		movw	r3, #:lower16:.LANCHOR0
  27 0006 C0F20003 		movt	r3, #:upper16:.LANCHOR0
  28 000a 40F20001 		movw	r1, #:lower16:.LC0
  29 000e 1868     		ldr	r0, [r3]
  30 0010 C0F20001 		movt	r1, #:upper16:.LC0
  31 0014 FFF7FEFF 		bl	scheduleMsg
  32 0018 40F20003 		movw	r3, #:lower16:.LANCHOR1
  33 001c C0F20003 		movt	r3, #:upper16:.LANCHOR1
  34 0020 0122     		movs	r2, #1
  35 0022 1A70     		strb	r2, [r3]
  36 0024 08BD     		pop	{r3, pc}
  37              		.size	_ZL22switchToBinaryProtocolv, .-_ZL22switchToBinaryProtocolv
  38 0026 00BFAFF3 		.section	.text._ZL29consoleThreadThreadEntryPointPv,"ax",%progbits
  38      0080AFF3 
  38      0080
  39              		.align	2
  40              		.p2align 4,,15
  41              		.thumb
  42              		.thumb_func
  43              		.type	_ZL29consoleThreadThreadEntryPointPv, %function
  44              	_ZL29consoleThreadThreadEntryPointPv:
  45              		@ args = 0, pretend = 0, frame = 8
  46              		@ frame_needed = 0, uses_anonymous_args = 0
  47 0000 2DE9F04F 		push	{r4, r5, r6, r7, r8, r9, r10, fp, lr}
  48 0004 40F20002 		movw	r2, #:lower16:rlist
  49 0008 C0F20002 		movt	r2, #:upper16:rlist
  50 000c 40F20004 		movw	r4, #:lower16:.LANCHOR3
  51 0010 83B0     		sub	sp, sp, #12
  52 0012 C0F20004 		movt	r4, #:upper16:.LANCHOR3
  53 0016 9069     		ldr	r0, [r2, #24]
  54 0018 0192     		str	r2, [sp, #4]
  55 001a 40F20003 		movw	r3, #:lower16:.LC1
ARM GAS  C:\Users\pc\AppData\Local\Temp\cc39fOZZ.s 			page 2


  56 001e C0F20003 		movt	r3, #:upper16:.LC1
  57 0022 2278     		ldrb	r2, [r4]	@ zero_extendqisi2
  58 0024 8361     		str	r3, [r0, #24]
  59 0026 40F20003 		movw	r3, #:lower16:SD3
  60 002a C0F20003 		movt	r3, #:upper16:SD3
  61 002e 002A     		cmp	r2, #0
  62 0030 00F01381 		beq	.L59
  63              	.L3:
  64 0034 40F20002 		movw	r2, #:lower16:.LANCHOR4
  65 0038 C0F20002 		movt	r2, #:upper16:.LANCHOR4
  66 003c 40F20001 		movw	r1, #:lower16:.LANCHOR5
  67 0040 40F20005 		movw	r5, #:lower16:.LANCHOR2
  68 0044 C0F20001 		movt	r1, #:upper16:.LANCHOR5
  69 0048 C0F20005 		movt	r5, #:upper16:.LANCHOR2
  70 004c 40F2000A 		movw	r10, #:lower16:SD3
  71 0050 40F20009 		movw	r9, #:lower16:SDU1
  72 0054 40F20007 		movw	r7, #:lower16:.LANCHOR6
  73 0058 0095     		str	r5, [sp]
  74 005a 1360     		str	r3, [r2]
  75 005c 5160     		str	r1, [r2, #4]
  76 005e C0F2000A 		movt	r10, #:upper16:SD3
  77 0062 C0F20009 		movt	r9, #:upper16:SDU1
  78 0066 C0F20007 		movt	r7, #:upper16:.LANCHOR6
  79              	.L14:
  80 006a FFF7FEFF 		bl	getRemainingStack
  81 006e B0F5807F 		cmp	r0, #256
  82 0072 40F3D580 		ble	.L56
  83              	.L71:
  84 0076 2378     		ldrb	r3, [r4]	@ zero_extendqisi2
  85 0078 40F20006 		movw	r6, #:lower16:.LANCHOR2
  86 007c 002B     		cmp	r3, #0
  87 007e 14BF     		ite	ne
  88 0080 5546     		movne	r5, r10
  89 0082 4D46     		moveq	r5, r9
  90 0084 C0F20006 		movt	r6, #:upper16:.LANCHOR2
  91 0088 002B     		cmp	r3, #0
  92 008a 33D0     		beq	.L8
  93              	.L66:
  94 008c 3878     		ldrb	r0, [r7]	@ zero_extendqisi2
  95 008e 0028     		cmp	r0, #0
  96 0090 34D0     		beq	.L60
  97              	.L10:
  98 0092 2B68     		ldr	r3, [r5]
  99 0094 2846     		mov	r0, r5
 100 0096 DB68     		ldr	r3, [r3, #12]
 101 0098 9847     		blx	r3
 102 009a 2378     		ldrb	r3, [r4]	@ zero_extendqisi2
 103 009c 8046     		mov	r8, r0
 104 009e 1FFA80FB 		uxth	fp, r0
 105 00a2 7BBB     		cbnz	r3, .L61
 106              	.L12:
 107 00a4 0FFA8BF3 		sxth	r3, fp
 108 00a8 1A1F     		subs	r2, r3, #4
 109 00aa 5142     		rsbs	r1, r2, #0
 110 00ac 5141     		adcs	r1, r1, r2
 111 00ae 51EADB31 		orrs	r1, r1, fp, lsr #15
 112 00b2 40F0AD80 		bne	.L57
ARM GAS  C:\Users\pc\AppData\Local\Temp\cc39fOZZ.s 			page 3


 113 00b6 082B     		cmp	r3, #8
 114 00b8 35D0     		beq	.L62
 115 00ba 0D2B     		cmp	r3, #13
 116 00bc 7DD0     		beq	.L63
 117 00be 0A2B     		cmp	r3, #10
 118 00c0 00F0B880 		beq	.L64
 119 00c4 1F2B     		cmp	r3, #31
 120 00c6 12DD     		ble	.L11
 121 00c8 724B     		ldr	r3, .L73
 122 00ca 9E42     		cmp	r6, r3
 123 00cc 0FD2     		bcs	.L11
 124 00ce 2378     		ldrb	r3, [r4]	@ zero_extendqisi2
 125 00d0 5FFA88F1 		uxtb	r1, r8
 126 00d4 002B     		cmp	r3, #0
 127 00d6 68D0     		beq	.L65
 128 00d8 DAF80030 		ldr	r3, [r10]
 129 00dc 40F20000 		movw	r0, #:lower16:SD3
 130 00e0 9B68     		ldr	r3, [r3, #8]
 131 00e2 C0F20000 		movt	r0, #:upper16:SD3
 132              	.L40:
 133 00e6 9847     		blx	r3
 134 00e8 0136     		adds	r6, r6, #1
 135 00ea 06F8018C 		strb	r8, [r6, #-1]
 136              	.L11:
 137 00ee 2378     		ldrb	r3, [r4]	@ zero_extendqisi2
 138 00f0 002B     		cmp	r3, #0
 139 00f2 CBD1     		bne	.L66
 140              	.L8:
 141 00f4 FFF7FEFF 		bl	is_usb_serial_ready
 142 00f8 0028     		cmp	r0, #0
 143 00fa CAD1     		bne	.L10
 144              	.L60:
 145 00fc 0A20     		movs	r0, #10
 146 00fe FFF7FEFF 		bl	chThdSleep
 147 0102 F4E7     		b	.L11
 148              	.L61:
 149 0104 2023     		movs	r3, #32
 150              	@ 63 "./console/console_io.cpp" 1
 151 0106 83F31188 		msr     BASEPRI, r3
 152              	@ 0 "" 2
 153              		.thumb
 154 010a FFF7FEFF 		bl	dbg_check_lock
 155 010e 40F20000 		movw	r0, #:lower16:.LANCHOR7
 156 0112 C0F20000 		movt	r0, #:upper16:.LANCHOR7
 157 0116 FFF7FEFF 		bl	chEvtGetAndClearFlagsI
 158 011a FFF7FEFF 		bl	dbg_check_unlock
 159 011e 0023     		movs	r3, #0
 160              	@ 67 "./console/console_io.cpp" 1
 161 0120 83F31188 		msr     BASEPRI, r3
 162              	@ 0 "" 2
 163              		.thumb
 164 0124 BEE7     		b	.L12
 165              	.L62:
 166 0126 009A     		ldr	r2, [sp]
 167 0128 9642     		cmp	r6, r2
 168 012a E0D0     		beq	.L11
 169 012c 2378     		ldrb	r3, [r4]	@ zero_extendqisi2
ARM GAS  C:\Users\pc\AppData\Local\Temp\cc39fOZZ.s 			page 4


 170 012e 5FFA88F8 		uxtb	r8, r8
 171 0132 13B3     		cbz	r3, .L67
 172 0134 DAF80030 		ldr	r3, [r10]
 173 0138 40F20000 		movw	r0, #:lower16:SD3
 174 013c 9B68     		ldr	r3, [r3, #8]
 175 013e C0F20000 		movt	r0, #:upper16:SD3
 176              	.L34:
 177 0142 5FFA88F8 		uxtb	r8, r8
 178 0146 4146     		mov	r1, r8
 179 0148 9847     		blx	r3
 180 014a 2378     		ldrb	r3, [r4]	@ zero_extendqisi2
 181 014c 2BB3     		cbz	r3, .L68
 182 014e DAF80030 		ldr	r3, [r10]
 183 0152 40F20000 		movw	r0, #:lower16:SD3
 184 0156 9B68     		ldr	r3, [r3, #8]
 185 0158 C0F20000 		movt	r0, #:upper16:SD3
 186              	.L35:
 187 015c 2021     		movs	r1, #32
 188 015e 9847     		blx	r3
 189 0160 2378     		ldrb	r3, [r4]	@ zero_extendqisi2
 190 0162 93B1     		cbz	r3, .L69
 191 0164 DAF80030 		ldr	r3, [r10]
 192 0168 40F20000 		movw	r0, #:lower16:SD3
 193 016c 9B68     		ldr	r3, [r3, #8]
 194 016e C0F20000 		movt	r0, #:upper16:SD3
 195              	.L36:
 196 0172 4146     		mov	r1, r8
 197 0174 9847     		blx	r3
 198 0176 013E     		subs	r6, r6, #1
 199 0178 B9E7     		b	.L11
 200              	.L67:
 201 017a D9F80030 		ldr	r3, [r9]
 202 017e 40F20000 		movw	r0, #:lower16:SDU1
 203 0182 9B68     		ldr	r3, [r3, #8]
 204 0184 C0F20000 		movt	r0, #:upper16:SDU1
 205 0188 DBE7     		b	.L34
 206              	.L69:
 207 018a D9F80030 		ldr	r3, [r9]
 208 018e 40F20000 		movw	r0, #:lower16:SDU1
 209 0192 9B68     		ldr	r3, [r3, #8]
 210 0194 C0F20000 		movt	r0, #:upper16:SDU1
 211 0198 EBE7     		b	.L36
 212              	.L68:
 213 019a D9F80030 		ldr	r3, [r9]
 214 019e 40F20000 		movw	r0, #:lower16:SDU1
 215 01a2 9B68     		ldr	r3, [r3, #8]
 216 01a4 C0F20000 		movt	r0, #:upper16:SDU1
 217 01a8 D8E7     		b	.L35
 218              	.L65:
 219 01aa D9F80030 		ldr	r3, [r9]
 220 01ae 40F20000 		movw	r0, #:lower16:SDU1
 221 01b2 9B68     		ldr	r3, [r3, #8]
 222 01b4 C0F20000 		movt	r0, #:upper16:SDU1
 223 01b8 95E7     		b	.L40
 224              	.L63:
 225 01ba 2378     		ldrb	r3, [r4]	@ zero_extendqisi2
 226 01bc 002B     		cmp	r3, #0
ARM GAS  C:\Users\pc\AppData\Local\Temp\cc39fOZZ.s 			page 5


 227 01be 44D0     		beq	.L70
 228 01c0 DAF80030 		ldr	r3, [r10]
 229 01c4 40F20000 		movw	r0, #:lower16:SD3
 230 01c8 9B68     		ldr	r3, [r3, #8]
 231 01ca C0F20000 		movt	r0, #:upper16:SD3
 232              	.L37:
 233 01ce 0D21     		movs	r1, #13
 234 01d0 9847     		blx	r3
 235 01d2 2378     		ldrb	r3, [r4]	@ zero_extendqisi2
 236 01d4 8BB3     		cbz	r3, .L54
 237              	.L29:
 238 01d6 DAF80030 		ldr	r3, [r10]
 239 01da 40F20000 		movw	r0, #:lower16:SD3
 240 01de 9B68     		ldr	r3, [r3, #8]
 241 01e0 C0F20000 		movt	r0, #:upper16:SD3
 242              	.L39:
 243 01e4 0A21     		movs	r1, #10
 244 01e6 9847     		blx	r3
 245 01e8 40F20000 		movw	r0, #:lower16:.LANCHOR2
 246 01ec 0023     		movs	r3, #0
 247 01ee C0F20000 		movt	r0, #:upper16:.LANCHOR2
 248 01f2 3370     		strb	r3, [r6]
 249 01f4 FFF7FEFF 		bl	efiTrim
 250 01f8 40F20003 		movw	r3, #:lower16:.LANCHOR8
 251 01fc C0F20003 		movt	r3, #:upper16:.LANCHOR8
 252 0200 1B68     		ldr	r3, [r3]
 253 0202 9847     		blx	r3
 254 0204 40F20003 		movw	r3, #:lower16:.LANCHOR1
 255 0208 C0F20003 		movt	r3, #:upper16:.LANCHOR1
 256 020c 1B78     		ldrb	r3, [r3]	@ zero_extendqisi2
 257 020e 7BBB     		cbnz	r3, .L41
 258              	.L57:
 259 0210 019A     		ldr	r2, [sp, #4]
 260 0212 9069     		ldr	r0, [r2, #24]
 261 0214 FFF7FEFF 		bl	getRemainingStack
 262 0218 B0F5807F 		cmp	r0, #256
 263 021c 3FF72BAF 		bgt	.L71
 264              	.L56:
 265 0220 40F20000 		movw	r0, #:lower16:.LC2
 266 0224 C0F20000 		movt	r0, #:upper16:.LC2
 267 0228 FFF7FEFF 		bl	firmwareError
 268 022c 0020     		movs	r0, #0
 269 022e 03B0     		add	sp, sp, #12
 270              		@ sp needed
 271 0230 BDE8F08F 		pop	{r4, r5, r6, r7, r8, r9, r10, fp, pc}
 272              	.L64:
 273 0234 2378     		ldrb	r3, [r4]	@ zero_extendqisi2
 274 0236 002B     		cmp	r3, #0
 275 0238 CDD1     		bne	.L29
 276              	.L54:
 277 023a D9F80030 		ldr	r3, [r9]
 278 023e 40F20000 		movw	r0, #:lower16:SDU1
 279 0242 9B68     		ldr	r3, [r3, #8]
 280 0244 C0F20000 		movt	r0, #:upper16:SDU1
 281 0248 CCE7     		b	.L39
 282              	.L70:
 283 024a D9F80030 		ldr	r3, [r9]
ARM GAS  C:\Users\pc\AppData\Local\Temp\cc39fOZZ.s 			page 6


 284 024e 40F20000 		movw	r0, #:lower16:SDU1
 285 0252 9B68     		ldr	r3, [r3, #8]
 286 0254 C0F20000 		movt	r0, #:upper16:SDU1
 287 0258 B9E7     		b	.L37
 288              	.L59:
 289 025a FFF7FEFF 		bl	usb_serial_start
 290 025e 2378     		ldrb	r3, [r4]	@ zero_extendqisi2
 291 0260 83B9     		cbnz	r3, .L72
 292 0262 019A     		ldr	r2, [sp, #4]
 293 0264 40F20003 		movw	r3, #:lower16:SDU1
 294 0268 C0F20003 		movt	r3, #:upper16:SDU1
 295 026c 9069     		ldr	r0, [r2, #24]
 296 026e E1E6     		b	.L3
 297              	.L41:
 298 0270 40F20000 		movw	r0, #:lower16:.LANCHOR4
 299 0274 C0F20000 		movt	r0, #:upper16:.LANCHOR4
 300 0278 0121     		movs	r1, #1
 301 027a FFF7FEFF 		bl	_Z21runBinaryProtocolLoopP12ts_channel_sb
 302 027e 019D     		ldr	r5, [sp, #4]
 303 0280 A869     		ldr	r0, [r5, #24]
 304 0282 F2E6     		b	.L14
 305              	.L72:
 306 0284 019D     		ldr	r5, [sp, #4]
 307 0286 40F20003 		movw	r3, #:lower16:SD3
 308 028a C0F20003 		movt	r3, #:upper16:SD3
 309 028e A869     		ldr	r0, [r5, #24]
 310 0290 D0E6     		b	.L3
 311              	.L74:
 312 0292 00BF     		.align	2
 313              	.L73:
 314 0294 4E000000 		.word	.LANCHOR2+78
 315              		.size	_ZL29consoleThreadThreadEntryPointPv, .-_ZL29consoleThreadThreadEntryPointPv
 316 0298 AFF30080 		.section	.text._Z16isSerialOverUartv,"ax",%progbits
 316      AFF30080 
 317              		.align	2
 318              		.p2align 4,,15
 319              		.global	_Z16isSerialOverUartv
 320              		.thumb
 321              		.thumb_func
 322              		.type	_Z16isSerialOverUartv, %function
 323              	_Z16isSerialOverUartv:
 324              		@ args = 0, pretend = 0, frame = 0
 325              		@ frame_needed = 0, uses_anonymous_args = 0
 326              		@ link register save eliminated.
 327 0000 40F20003 		movw	r3, #:lower16:.LANCHOR3
 328 0004 C0F20003 		movt	r3, #:upper16:.LANCHOR3
 329 0008 1878     		ldrb	r0, [r3]	@ zero_extendqisi2
 330 000a 7047     		bx	lr
 331              		.size	_Z16isSerialOverUartv, .-_Z16isSerialOverUartv
 332 000c AFF30080 		.section	.text._Z17getConsoleChannelv,"ax",%progbits
 333              		.align	2
 334              		.p2align 4,,15
 335              		.global	_Z17getConsoleChannelv
 336              		.thumb
 337              		.thumb_func
 338              		.type	_Z17getConsoleChannelv, %function
 339              	_Z17getConsoleChannelv:
ARM GAS  C:\Users\pc\AppData\Local\Temp\cc39fOZZ.s 			page 7


 340              		@ args = 0, pretend = 0, frame = 0
 341              		@ frame_needed = 0, uses_anonymous_args = 0
 342              		@ link register save eliminated.
 343 0000 40F20003 		movw	r3, #:lower16:.LANCHOR3
 344 0004 C0F20003 		movt	r3, #:upper16:.LANCHOR3
 345 0008 40F20002 		movw	r2, #:lower16:SDU1
 346 000c 1878     		ldrb	r0, [r3]	@ zero_extendqisi2
 347 000e 40F20003 		movw	r3, #:lower16:SD3
 348 0012 C0F20002 		movt	r2, #:upper16:SDU1
 349 0016 C0F20003 		movt	r3, #:upper16:SD3
 350 001a 0028     		cmp	r0, #0
 351 001c 0CBF     		ite	eq
 352 001e 1046     		moveq	r0, r2
 353 0020 1846     		movne	r0, r3
 354 0022 7047     		bx	lr
 355              		.size	_Z17getConsoleChannelv, .-_Z17getConsoleChannelv
 356 0024 AFF30080 		.section	.text._Z14isConsoleReadyv,"ax",%progbits
 356      AFF30080 
 356      AFF30080 
 357              		.align	2
 358              		.p2align 4,,15
 359              		.global	_Z14isConsoleReadyv
 360              		.thumb
 361              		.thumb_func
 362              		.type	_Z14isConsoleReadyv, %function
 363              	_Z14isConsoleReadyv:
 364              		@ args = 0, pretend = 0, frame = 0
 365              		@ frame_needed = 0, uses_anonymous_args = 0
 366              		@ link register save eliminated.
 367 0000 40F20003 		movw	r3, #:lower16:.LANCHOR3
 368 0004 C0F20003 		movt	r3, #:upper16:.LANCHOR3
 369 0008 1B78     		ldrb	r3, [r3]	@ zero_extendqisi2
 370 000a 2BB1     		cbz	r3, .L80
 371 000c 40F20003 		movw	r3, #:lower16:.LANCHOR6
 372 0010 C0F20003 		movt	r3, #:upper16:.LANCHOR6
 373 0014 1878     		ldrb	r0, [r3]	@ zero_extendqisi2
 374 0016 7047     		bx	lr
 375              	.L80:
 376 0018 FFF7FEBF 		b	is_usb_serial_ready
 377              		.size	_Z14isConsoleReadyv, .-_Z14isConsoleReadyv
 378 001c AFF30080 		.section	.text._Z14consolePutChari,"ax",%progbits
 379              		.align	2
 380              		.p2align 4,,15
 381              		.global	_Z14consolePutChari
 382              		.thumb
 383              		.thumb_func
 384              		.type	_Z14consolePutChari, %function
 385              	_Z14consolePutChari:
 386              		@ args = 0, pretend = 0, frame = 0
 387              		@ frame_needed = 0, uses_anonymous_args = 0
 388 0000 08B5     		push	{r3, lr}
 389 0002 40F20003 		movw	r3, #:lower16:.LANCHOR3
 390 0006 C0F20003 		movt	r3, #:upper16:.LANCHOR3
 391 000a 0146     		mov	r1, r0
 392 000c 1B78     		ldrb	r3, [r3]	@ zero_extendqisi2
 393 000e 4BB1     		cbz	r3, .L89
 394 0010 40F20003 		movw	r3, #:lower16:SD3
ARM GAS  C:\Users\pc\AppData\Local\Temp\cc39fOZZ.s 			page 8


 395 0014 C0F20003 		movt	r3, #:upper16:SD3
 396 0018 1846     		mov	r0, r3
 397 001a 1B68     		ldr	r3, [r3]
 398 001c C9B2     		uxtb	r1, r1
 399 001e 9B68     		ldr	r3, [r3, #8]
 400 0020 9847     		blx	r3
 401 0022 08BD     		pop	{r3, pc}
 402              	.L89:
 403 0024 40F20003 		movw	r3, #:lower16:SDU1
 404 0028 C0F20003 		movt	r3, #:upper16:SDU1
 405 002c 1846     		mov	r0, r3
 406 002e 1B68     		ldr	r3, [r3]
 407 0030 C9B2     		uxtb	r1, r1
 408 0032 9B68     		ldr	r3, [r3, #8]
 409 0034 9847     		blx	r3
 410 0036 08BD     		pop	{r3, pc}
 411              		.size	_Z14consolePutChari, .-_Z14consolePutChari
 412 0038 AFF30080 		.section	.text._Z19consoleOutputBufferPKhi,"ax",%progbits
 412      AFF30080 
 413              		.align	2
 414              		.p2align 4,,15
 415              		.global	_Z19consoleOutputBufferPKhi
 416              		.thumb
 417              		.thumb_func
 418              		.type	_Z19consoleOutputBufferPKhi, %function
 419              	_Z19consoleOutputBufferPKhi:
 420              		@ args = 0, pretend = 0, frame = 0
 421              		@ frame_needed = 0, uses_anonymous_args = 0
 422 0000 40F20002 		movw	r2, #:lower16:.LANCHOR3
 423 0004 C0F20002 		movt	r2, #:upper16:.LANCHOR3
 424 0008 40F20003 		movw	r3, #:lower16:.LANCHOR9
 425 000c 10B5     		push	{r4, lr}
 426 000e C0F20003 		movt	r3, #:upper16:.LANCHOR9
 427 0012 1478     		ldrb	r4, [r2]	@ zero_extendqisi2
 428 0014 0A46     		mov	r2, r1
 429 0016 1A60     		str	r2, [r3]
 430 0018 0146     		mov	r1, r0
 431 001a 7CB1     		cbz	r4, .L96
 432 001c 40F20003 		movw	r3, #:lower16:SD3
 433 0020 C0F20003 		movt	r3, #:upper16:SD3
 434 0024 1846     		mov	r0, r3
 435 0026 1B68     		ldr	r3, [r3]
 436 0028 9C69     		ldr	r4, [r3, #24]
 437              	.L93:
 438 002a 42F21073 		movw	r3, #10000
 439 002e A047     		blx	r4
 440 0030 40F20003 		movw	r3, #:lower16:.LANCHOR10
 441 0034 C0F20003 		movt	r3, #:upper16:.LANCHOR10
 442 0038 1860     		str	r0, [r3]
 443 003a 10BD     		pop	{r4, pc}
 444              	.L96:
 445 003c 40F20003 		movw	r3, #:lower16:SDU1
 446 0040 C0F20003 		movt	r3, #:upper16:SDU1
 447 0044 1846     		mov	r0, r3
 448 0046 1B68     		ldr	r3, [r3]
 449 0048 9C69     		ldr	r4, [r3, #24]
 450 004a EEE7     		b	.L93
ARM GAS  C:\Users\pc\AppData\Local\Temp\cc39fOZZ.s 			page 9


 451              		.size	_Z19consoleOutputBufferPKhi, .-_Z19consoleOutputBufferPKhi
 452 004c AFF30080 		.section	.text._Z12startConsoleP7LoggingPFvPcE,"ax",%progbits
 453              		.align	2
 454              		.p2align 4,,15
 455              		.global	_Z12startConsoleP7LoggingPFvPcE
 456              		.thumb
 457              		.thumb_func
 458              		.type	_Z12startConsoleP7LoggingPFvPcE, %function
 459              	_Z12startConsoleP7LoggingPFvPcE:
 460              		@ args = 0, pretend = 0, frame = 0
 461              		@ frame_needed = 0, uses_anonymous_args = 0
 462 0000 10B5     		push	{r4, lr}
 463 0002 40F20002 		movw	r2, #:lower16:.LANCHOR0
 464 0006 40F20003 		movw	r3, #:lower16:.LANCHOR8
 465 000a C0F20003 		movt	r3, #:upper16:.LANCHOR8
 466 000e C0F20002 		movt	r2, #:upper16:.LANCHOR0
 467 0012 4FF48064 		mov	r4, #1024
 468 0016 C4F20204 		movt	r4, 16386
 469 001a 1060     		str	r0, [r2]
 470 001c 1960     		str	r1, [r3]
 471 001e 2022     		movs	r2, #32
 472 0020 82B0     		sub	sp, sp, #8
 473 0022 2046     		mov	r0, r4
 474 0024 0221     		movs	r1, #2
 475 0026 FFF7FEFF 		bl	_pal_lld_setgroupmode
 476 002a 2269     		ldr	r2, [r4, #16]
 477 002c 40F20003 		movw	r3, #:lower16:.LANCHOR3
 478 0030 82F00202 		eor	r2, r2, #2
 479 0034 C0F20003 		movt	r3, #:upper16:.LANCHOR3
 480 0038 C2F34002 		ubfx	r2, r2, #1, #1
 481 003c 1A70     		strb	r2, [r3]
 482 003e 5AB3     		cbz	r2, .L98
 483 0040 40F20000 		movw	r0, #:lower16:SD3
 484 0044 40F20001 		movw	r1, #:lower16:.LANCHOR11
 485 0048 C0F20000 		movt	r0, #:upper16:SD3
 486 004c C0F20001 		movt	r1, #:upper16:.LANCHOR11
 487 0050 FFF7FEFF 		bl	sdStart
 488 0054 4FF40060 		mov	r0, #2048
 489 0058 C4F20200 		movt	r0, 16386
 490 005c 4FF40061 		mov	r1, #2048
 491 0060 40F28232 		movw	r2, #898
 492 0064 FFF7FEFF 		bl	_pal_lld_setgroupmode
 493 0068 4FF40060 		mov	r0, #2048
 494 006c C4F20200 		movt	r0, 16386
 495 0070 4FF48061 		mov	r1, #1024
 496 0074 40F28232 		movw	r2, #898
 497 0078 FFF7FEFF 		bl	_pal_lld_setgroupmode
 498 007c 40F20003 		movw	r3, #:lower16:.LANCHOR6
 499 0080 0124     		movs	r4, #1
 500 0082 C0F20003 		movt	r3, #:upper16:.LANCHOR6
 501 0086 40F20001 		movw	r1, #:lower16:.LANCHOR7
 502 008a 2246     		mov	r2, r4
 503 008c C0F20001 		movt	r1, #:upper16:.LANCHOR7
 504 0090 0F48     		ldr	r0, .L102
 505 0092 1C70     		strb	r4, [r3]
 506 0094 FFF7FEFF 		bl	chEvtRegisterMask
 507              	.L98:
ARM GAS  C:\Users\pc\AppData\Local\Temp\cc39fOZZ.s 			page 10


 508 0098 0022     		movs	r2, #0
 509 009a 40F20000 		movw	r0, #:lower16:.LANCHOR12
 510 009e 40F20003 		movw	r3, #:lower16:_ZL29consoleThreadThreadEntryPointPv
 511 00a2 0092     		str	r2, [sp]
 512 00a4 C0F20003 		movt	r3, #:upper16:_ZL29consoleThreadThreadEntryPointPv
 513 00a8 4FF48F61 		mov	r1, #1144
 514 00ac 4022     		movs	r2, #64
 515 00ae C0F20000 		movt	r0, #:upper16:.LANCHOR12
 516 00b2 FFF7FEFF 		bl	chThdCreateStatic
 517 00b6 40F20000 		movw	r0, #:lower16:.LC3
 518 00ba 40F20001 		movw	r1, #:lower16:_ZL22switchToBinaryProtocolv
 519 00be C0F20000 		movt	r0, #:upper16:.LC3
 520 00c2 C0F20001 		movt	r1, #:upper16:_ZL22switchToBinaryProtocolv
 521 00c6 02B0     		add	sp, sp, #8
 522              		@ sp needed
 523 00c8 BDE81040 		pop	{r4, lr}
 524 00cc FFF7FEBF 		b	addConsoleAction
 525              	.L103:
 526              		.align	2
 527              	.L102:
 528 00d0 04000000 		.word	SD3+4
 529              		.size	_Z12startConsoleP7LoggingPFvPcE, .-_Z12startConsoleP7LoggingPFvPcE
 530 00d4 AFF30080 		.section	.text.lockAnyContext,"ax",%progbits
 530      AFF30080 
 530      AFF30080 
 531              		.align	2
 532              		.p2align 4,,15
 533              		.global	lockAnyContext
 534              		.thumb
 535              		.thumb_func
 536              		.type	lockAnyContext, %function
 537              	lockAnyContext:
 538              		@ args = 0, pretend = 0, frame = 0
 539              		@ frame_needed = 0, uses_anonymous_args = 0
 540 0000 08B5     		push	{r3, lr}
 541 0002 40F20003 		movw	r3, #:lower16:dbg_lock_cnt
 542 0006 C0F20003 		movt	r3, #:upper16:dbg_lock_cnt
 543 000a 1B68     		ldr	r3, [r3]
 544 000c 002B     		cmp	r3, #0
 545 000e 01DD     		ble	.L108
 546 0010 0120     		movs	r0, #1
 547 0012 08BD     		pop	{r3, pc}
 548              	.L108:
 549 0014 40F20003 		movw	r3, #:lower16:dbg_isr_cnt
 550 0018 C0F20003 		movt	r3, #:upper16:dbg_isr_cnt
 551 001c 1B68     		ldr	r3, [r3]
 552 001e 002B     		cmp	r3, #0
 553 0020 4FF02003 		mov	r3, #32
 554 0024 05DD     		ble	.L106
 555              	@ 268 "./console/console_io.cpp" 1
 556 0026 83F31188 		msr     BASEPRI, r3
 557              	@ 0 "" 2
 558              		.thumb
 559 002a FFF7FEFF 		bl	dbg_check_lock_from_isr
 560 002e 0020     		movs	r0, #0
 561 0030 08BD     		pop	{r3, pc}
 562              	.L106:
ARM GAS  C:\Users\pc\AppData\Local\Temp\cc39fOZZ.s 			page 11


 563              	@ 271 "./console/console_io.cpp" 1
 564 0032 83F31188 		msr     BASEPRI, r3
 565              	@ 0 "" 2
 566              		.thumb
 567 0036 FFF7FEFF 		bl	dbg_check_lock
 568 003a 0020     		movs	r0, #0
 569 003c 08BD     		pop	{r3, pc}
 570              		.size	lockAnyContext, .-lockAnyContext
 571 003e 00BF     		.section	.text.lockOutputBuffer,"ax",%progbits
 572              		.align	2
 573              		.p2align 4,,15
 574              		.global	lockOutputBuffer
 575              		.thumb
 576              		.thumb_func
 577              		.type	lockOutputBuffer, %function
 578              	lockOutputBuffer:
 579              		@ args = 0, pretend = 0, frame = 0
 580              		@ frame_needed = 0, uses_anonymous_args = 0
 581              		@ link register save eliminated.
 582 0000 FFF7FEBF 		b	lockAnyContext
 583              		.size	lockOutputBuffer, .-lockOutputBuffer
 584 0004 AFF30080 		.section	.text.unlockAnyContext,"ax",%progbits
 584      AFF30080 
 584      AFF30080 
 585              		.align	2
 586              		.p2align 4,,15
 587              		.global	unlockAnyContext
 588              		.thumb
 589              		.thumb_func
 590              		.type	unlockAnyContext, %function
 591              	unlockAnyContext:
 592              		@ args = 0, pretend = 0, frame = 0
 593              		@ frame_needed = 0, uses_anonymous_args = 0
 594 0000 08B5     		push	{r3, lr}
 595 0002 40F20003 		movw	r3, #:lower16:dbg_isr_cnt
 596 0006 C0F20003 		movt	r3, #:upper16:dbg_isr_cnt
 597 000a 1B68     		ldr	r3, [r3]
 598 000c 002B     		cmp	r3, #0
 599 000e 05DD     		ble	.L111
 600 0010 FFF7FEFF 		bl	dbg_check_unlock_from_isr
 601 0014 0023     		movs	r3, #0
 602              	@ 283 "./console/console_io.cpp" 1
 603 0016 83F31188 		msr     BASEPRI, r3
 604              	@ 0 "" 2
 605              		.thumb
 606 001a 08BD     		pop	{r3, pc}
 607              	.L111:
 608 001c FFF7FEFF 		bl	dbg_check_unlock
 609 0020 0023     		movs	r3, #0
 610              	@ 286 "./console/console_io.cpp" 1
 611 0022 83F31188 		msr     BASEPRI, r3
 612              	@ 0 "" 2
 613              		.thumb
 614 0026 08BD     		pop	{r3, pc}
 615              		.size	unlockAnyContext, .-unlockAnyContext
 616 0028 AFF30080 		.section	.text.unlockOutputBuffer,"ax",%progbits
 616      AFF30080 
ARM GAS  C:\Users\pc\AppData\Local\Temp\cc39fOZZ.s 			page 12


 617              		.align	2
 618              		.p2align 4,,15
 619              		.global	unlockOutputBuffer
 620              		.thumb
 621              		.thumb_func
 622              		.type	unlockOutputBuffer, %function
 623              	unlockOutputBuffer:
 624              		@ args = 0, pretend = 0, frame = 0
 625              		@ frame_needed = 0, uses_anonymous_args = 0
 626              		@ link register save eliminated.
 627 0000 FFF7FEBF 		b	unlockAnyContext
 628              		.size	unlockOutputBuffer, .-unlockOutputBuffer
 629              		.global	buffer
 630              		.global	binaryConsole
 631              		.global	consoleInBinaryMode
 632              		.global	console_line_callback
 633              		.global	lastWriteActual
 634              		.global	lastWriteSize
 635 0004 AFF30080 		.section	.bss._ZL22isSerialConsoleStarted,"aw",%nobits
 635      AFF30080 
 635      AFF30080 
 636              		.set	.LANCHOR6,. + 0
 637              		.type	_ZL22isSerialConsoleStarted, %object
 638              		.size	_ZL22isSerialConsoleStarted, 1
 639              	_ZL22isSerialConsoleStarted:
 640 0000 00       		.space	1
 641              		.section	.bss.binaryConsole,"aw",%nobits
 642              		.align	2
 643              		.set	.LANCHOR4,. + 0
 644              		.type	binaryConsole, %object
 645              		.size	binaryConsole, 308
 646              	binaryConsole:
 647 0000 00000000 		.space	308
 647      00000000 
 647      00000000 
 647      00000000 
 647      00000000 
 648              		.section	.bss.lastWriteActual,"aw",%nobits
 649              		.align	2
 650              		.set	.LANCHOR10,. + 0
 651              		.type	lastWriteActual, %object
 652              		.size	lastWriteActual, 4
 653              	lastWriteActual:
 654 0000 00000000 		.space	4
 655              		.section	.bss.lastWriteSize,"aw",%nobits
 656              		.align	2
 657              		.set	.LANCHOR9,. + 0
 658              		.type	lastWriteSize, %object
 659              		.size	lastWriteSize, 4
 660              	lastWriteSize:
 661 0000 00000000 		.space	4
 662              		.section	.data._ZL12consoleInput,"aw",%progbits
 663              		.align	2
 664              		.set	.LANCHOR2,. + 0
 665              		.type	_ZL12consoleInput, %object
 666              		.size	_ZL12consoleInput, 79
 667              	_ZL12consoleInput:
ARM GAS  C:\Users\pc\AppData\Local\Temp\cc39fOZZ.s 			page 13


 668 0000 20202020 		.ascii	"                                                   "
 668      20202020 
 668      20202020 
 668      20202020 
 668      20202020 
 669 0033 20202020 		.ascii	"                           \000"
 669      20202020 
 669      20202020 
 669      20202020 
 669      20202020 
 670 004f 00       		.section	.data._ZL12serialConfig,"aw",%progbits
 671              		.align	2
 672              		.set	.LANCHOR11,. + 0
 673              		.type	_ZL12serialConfig, %object
 674              		.size	_ZL12serialConfig, 12
 675              	_ZL12serialConfig:
 676 0000 00C20100 		.word	115200
 677 0004 0000     		.short	0
 678 0006 0040     		.short	16384
 679 0008 0000     		.short	0
 680 000a 0000     		.space	2
 681              		.section	.bss.buffer,"aw",%nobits
 682              		.align	2
 683              		.set	.LANCHOR5,. + 0
 684              		.type	buffer, %object
 685              		.size	buffer, 6500
 686              	buffer:
 687 0000 00000000 		.space	6500
 687      00000000 
 687      00000000 
 687      00000000 
 687      00000000 
 688              		.section	.bss._ZL18consoleThreadStack,"aw",%nobits
 689              		.align	3
 690              		.set	.LANCHOR12,. + 0
 691              		.type	_ZL18consoleThreadStack, %object
 692              		.size	_ZL18consoleThreadStack, 1144
 693              	_ZL18consoleThreadStack:
 694 0000 00000000 		.space	1144
 694      00000000 
 694      00000000 
 694      00000000 
 694      00000000 
 695              		.section	.rodata.str1.4,"aMS",%progbits,1
 696              		.align	2
 697              	.LC0:
 698 0000 73776974 		.ascii	"switching to binary protocol\000"
 698      6368696E 
 698      6720746F 
 698      2062696E 
 698      61727920 
 699 001d 000000   		.space	3
 700              	.LC1:
 701 0020 636F6E73 		.ascii	"console thread\000"
 701      6F6C6520 
 701      74687265 
 701      616400
ARM GAS  C:\Users\pc\AppData\Local\Temp\cc39fOZZ.s 			page 14


 702 002f 00       		.space	1
 703              	.LC2:
 704 0030 6C6F7773 		.ascii	"lowstck#9e\000"
 704      74636B23 
 704      396500
 705 003b 00       		.space	1
 706              	.LC3:
 707 003c 7E00     		.ascii	"~\000"
 708 003e 0000     		.section	.bss._ZL20consoleEventListener,"aw",%nobits
 709              		.align	2
 710              		.set	.LANCHOR7,. + 0
 711              		.type	_ZL20consoleEventListener, %object
 712              		.size	_ZL20consoleEventListener, 16
 713              	_ZL20consoleEventListener:
 714 0000 00000000 		.space	16
 714      00000000 
 714      00000000 
 714      00000000 
 715              		.section	.bss.console_line_callback,"aw",%nobits
 716              		.align	2
 717              		.set	.LANCHOR8,. + 0
 718              		.type	console_line_callback, %object
 719              		.size	console_line_callback, 4
 720              	console_line_callback:
 721 0000 00000000 		.space	4
 722              		.section	.bss._ZL19is_serial_over_uart,"aw",%nobits
 723              		.set	.LANCHOR3,. + 0
 724              		.type	_ZL19is_serial_over_uart, %object
 725              		.size	_ZL19is_serial_over_uart, 1
 726              	_ZL19is_serial_over_uart:
 727 0000 00       		.space	1
 728              		.section	.bss._ZL6logger,"aw",%nobits
 729              		.align	2
 730              		.set	.LANCHOR0,. + 0
 731              		.type	_ZL6logger, %object
 732              		.size	_ZL6logger, 4
 733              	_ZL6logger:
 734 0000 00000000 		.space	4
 735              		.section	.bss.consoleInBinaryMode,"aw",%nobits
 736              		.set	.LANCHOR1,. + 0
 737              		.type	consoleInBinaryMode, %object
 738              		.size	consoleInBinaryMode, 1
 739              	consoleInBinaryMode:
 740 0000 00       		.space	1
 741              		.ident	"GCC: (Sourcery CodeBench Lite 2013.11-24) 4.8.1"
ARM GAS  C:\Users\pc\AppData\Local\Temp\cc39fOZZ.s 			page 15

