ARM GAS  C:\Users\pc\AppData\Local\Temp\ccRZ8OWf.s 			page 1


   1              		.syntax unified
   2              		.cpu cortex-m4
   3              		.eabi_attribute 27, 3
   4              		.fpu fpv4-sp-d16
   5              		.eabi_attribute 20, 1
   6              		.eabi_attribute 21, 1
   7              		.eabi_attribute 23, 3
   8              		.eabi_attribute 24, 1
   9              		.eabi_attribute 25, 1
  10              		.eabi_attribute 26, 1
  11              		.eabi_attribute 30, 2
  12              		.eabi_attribute 34, 1
  13              		.eabi_attribute 18, 4
  14              		.thumb
  15              		.file	"crc.c"
  16              		.section	.text.calc_crc,"ax",%progbits
  17              		.align	2
  18              		.p2align 4,,15
  19              		.global	calc_crc
  20              		.thumb
  21              		.thumb_func
  22              		.type	calc_crc, %function
  23              	calc_crc:
  24              		@ args = 0, pretend = 0, frame = 0
  25              		@ frame_needed = 0, uses_anonymous_args = 0
  26              		@ link register save eliminated.
  27 0000 0029     		cmp	r1, #0
  28 0002 10B4     		push	{r4}
  29 0004 1CDD     		ble	.L8
  30 0006 0246     		mov	r2, r0
  31 0008 4418     		adds	r4, r0, r1
  32 000a 0020     		movs	r0, #0
  33              	.L7:
  34 000c 12F8011B 		ldrb	r1, [r2], #1	@ zero_extendqisi2
  35 0010 0823     		movs	r3, #8
  36 0012 4840     		eors	r0, r0, r1
  37              	.L6:
  38 0014 10F0800F 		tst	r0, #128
  39 0018 4FEA4000 		lsl	r0, r0, #1
  40 001c 1CBF     		itt	ne
  41 001e 80F02700 		eorne	r0, r0, #39
  42 0022 C043     		mvnne	r0, r0
  43 0024 03F1FF33 		add	r3, r3, #-1
  44 0028 14BF     		ite	ne
  45 002a 00F0FE00 		andne	r0, r0, #254
  46 002e C0B2     		uxtbeq	r0, r0
  47 0030 13F0FF03 		ands	r3, r3, #255
  48 0034 EED1     		bne	.L6
  49 0036 A242     		cmp	r2, r4
  50 0038 E8D1     		bne	.L7
  51              	.L2:
  52 003a 5DF8044B 		ldr	r4, [sp], #4
  53 003e 7047     		bx	lr
  54              	.L8:
  55 0040 0020     		movs	r0, #0
  56 0042 FAE7     		b	.L2
  57              		.size	calc_crc, .-calc_crc
ARM GAS  C:\Users\pc\AppData\Local\Temp\ccRZ8OWf.s 			page 2


  58 0044 AFF30080 		.section	.text.crc32,"ax",%progbits
  58      AFF30080 
  58      AFF30080 
  59              		.align	2
  60              		.p2align 4,,15
  61              		.global	crc32
  62              		.thumb
  63              		.thumb_func
  64              		.type	crc32, %function
  65              	crc32:
  66              		@ args = 0, pretend = 0, frame = 0
  67              		@ frame_needed = 0, uses_anonymous_args = 0
  68              		@ link register save eliminated.
  69 0000 10B4     		push	{r4}
  70 0002 A1B1     		cbz	r1, .L16
  71 0004 40F20004 		movw	r4, #:lower16:.LANCHOR0
  72 0008 0144     		add	r1, r1, r0
  73 000a C0F20004 		movt	r4, #:upper16:.LANCHOR0
  74 000e 4FF0FF33 		mov	r3, #-1
  75              	.L15:
  76 0012 10F8012B 		ldrb	r2, [r0], #1	@ zero_extendqisi2
  77 0016 5A40     		eors	r2, r2, r3
  78 0018 D2B2     		uxtb	r2, r2
  79 001a 8842     		cmp	r0, r1
  80 001c 54F82220 		ldr	r2, [r4, r2, lsl #2]
  81 0020 82EA1323 		eor	r3, r2, r3, lsr #8
  82 0024 F5D1     		bne	.L15
  83 0026 D843     		mvns	r0, r3
  84              	.L13:
  85 0028 5DF8044B 		ldr	r4, [sp], #4
  86 002c 7047     		bx	lr
  87              	.L16:
  88 002e 0846     		mov	r0, r1
  89 0030 FAE7     		b	.L13
  90              		.size	crc32, .-crc32
  91 0032 00BFAFF3 		.section	.rodata.crc32_tab,"a",%progbits
  91      0080AFF3 
  91      0080AFF3 
  91      0080
  92              		.align	2
  93              		.set	.LANCHOR0,. + 0
  94              		.type	crc32_tab, %object
  95              		.size	crc32_tab, 1024
  96              	crc32_tab:
  97 0000 00000000 		.word	0
  98 0004 96300777 		.word	1996959894
  99 0008 2C610EEE 		.word	-301047508
 100 000c BA510999 		.word	-1727442502
 101 0010 19C46D07 		.word	124634137
 102 0014 8FF46A70 		.word	1886057615
 103 0018 35A563E9 		.word	-379345611
 104 001c A395649E 		.word	-1637575261
 105 0020 3288DB0E 		.word	249268274
 106 0024 A4B8DC79 		.word	2044508324
 107 0028 1EE9D5E0 		.word	-522852066
 108 002c 88D9D297 		.word	-1747789432
 109 0030 2B4CB609 		.word	162941995
ARM GAS  C:\Users\pc\AppData\Local\Temp\ccRZ8OWf.s 			page 3


 110 0034 BD7CB17E 		.word	2125561021
 111 0038 072DB8E7 		.word	-407360249
 112 003c 911DBF90 		.word	-1866523247
 113 0040 6410B71D 		.word	498536548
 114 0044 F220B06A 		.word	1789927666
 115 0048 4871B9F3 		.word	-205950648
 116 004c DE41BE84 		.word	-2067906082
 117 0050 7DD4DA1A 		.word	450548861
 118 0054 EBE4DD6D 		.word	1843258603
 119 0058 51B5D4F4 		.word	-187386543
 120 005c C785D383 		.word	-2083289657
 121 0060 56986C13 		.word	325883990
 122 0064 C0A86B64 		.word	1684777152
 123 0068 7AF962FD 		.word	-43845254
 124 006c ECC9658A 		.word	-1973040660
 125 0070 4F5C0114 		.word	335633487
 126 0074 D96C0663 		.word	1661365465
 127 0078 633D0FFA 		.word	-99664541
 128 007c F50D088D 		.word	-1928851979
 129 0080 C8206E3B 		.word	997073096
 130 0084 5E10694C 		.word	1281953886
 131 0088 E44160D5 		.word	-715111964
 132 008c 727167A2 		.word	-1570279054
 133 0090 D1E4033C 		.word	1006888145
 134 0094 47D4044B 		.word	1258607687
 135 0098 FD850DD2 		.word	-770865667
 136 009c 6BB50AA5 		.word	-1526024853
 137 00a0 FAA8B535 		.word	901097722
 138 00a4 6C98B242 		.word	1119000684
 139 00a8 D6C9BBDB 		.word	-608450090
 140 00ac 40F9BCAC 		.word	-1396901568
 141 00b0 E36CD832 		.word	853044451
 142 00b4 755CDF45 		.word	1172266101
 143 00b8 CF0DD6DC 		.word	-589951537
 144 00bc 593DD1AB 		.word	-1412350631
 145 00c0 AC30D926 		.word	651767980
 146 00c4 3A00DE51 		.word	1373503546
 147 00c8 8051D7C8 		.word	-925412992
 148 00cc 1661D0BF 		.word	-1076862698
 149 00d0 B5F4B421 		.word	565507253
 150 00d4 23C4B356 		.word	1454621731
 151 00d8 9995BACF 		.word	-809855591
 152 00dc 0FA5BDB8 		.word	-1195530993
 153 00e0 9EB80228 		.word	671266974
 154 00e4 0888055F 		.word	1594198024
 155 00e8 B2D90CC6 		.word	-972236366
 156 00ec 24E90BB1 		.word	-1324619484
 157 00f0 877C6F2F 		.word	795835527
 158 00f4 114C6858 		.word	1483230225
 159 00f8 AB1D61C1 		.word	-1050600021
 160 00fc 3D2D66B6 		.word	-1234817731
 161 0100 9041DC76 		.word	1994146192
 162 0104 0671DB01 		.word	31158534
 163 0108 BC20D298 		.word	-1731059524
 164 010c 2A10D5EF 		.word	-271249366
 165 0110 8985B171 		.word	1907459465
 166 0114 1FB5B606 		.word	112637215
ARM GAS  C:\Users\pc\AppData\Local\Temp\ccRZ8OWf.s 			page 4


 167 0118 A5E4BF9F 		.word	-1614814043
 168 011c 33D4B8E8 		.word	-390540237
 169 0120 A2C90778 		.word	2013776290
 170 0124 34F9000F 		.word	251722036
 171 0128 8EA80996 		.word	-1777751922
 172 012c 18980EE1 		.word	-519137256
 173 0130 BB0D6A7F 		.word	2137656763
 174 0134 2D3D6D08 		.word	141376813
 175 0138 976C6491 		.word	-1855689577
 176 013c 015C63E6 		.word	-429695999
 177 0140 F4516B6B 		.word	1802195444
 178 0144 62616C1C 		.word	476864866
 179 0148 D8306585 		.word	-2056965928
 180 014c 4E0062F2 		.word	-228458418
 181 0150 ED95066C 		.word	1812370925
 182 0154 7BA5011B 		.word	453092731
 183 0158 C1F40882 		.word	-2113342271
 184 015c 57C40FF5 		.word	-183516073
 185 0160 C6D9B065 		.word	1706088902
 186 0164 50E9B712 		.word	314042704
 187 0168 EAB8BE8B 		.word	-1950435094
 188 016c 7C88B9FC 		.word	-54949764
 189 0170 DF1DDD62 		.word	1658658271
 190 0174 492DDA15 		.word	366619977
 191 0178 F37CD38C 		.word	-1932296973
 192 017c 654CD4FB 		.word	-69972891
 193 0180 5861B24D 		.word	1303535960
 194 0184 CE51B53A 		.word	984961486
 195 0188 7400BCA3 		.word	-1547960204
 196 018c E230BBD4 		.word	-725929758
 197 0190 41A5DF4A 		.word	1256170817
 198 0194 D795D83D 		.word	1037604311
 199 0198 6DC4D1A4 		.word	-1529756563
 200 019c FBF4D6D3 		.word	-740887301
 201 01a0 6AE96943 		.word	1131014506
 202 01a4 FCD96E34 		.word	879679996
 203 01a8 468867AD 		.word	-1385723834
 204 01ac D0B860DA 		.word	-631195440
 205 01b0 732D0444 		.word	1141124467
 206 01b4 E51D0333 		.word	855842277
 207 01b8 5F4C0AAA 		.word	-1442165665
 208 01bc C97C0DDD 		.word	-586318647
 209 01c0 3C710550 		.word	1342533948
 210 01c4 AA410227 		.word	654459306
 211 01c8 10100BBE 		.word	-1106571248
 212 01cc 86200CC9 		.word	-921952122
 213 01d0 25B56857 		.word	1466479909
 214 01d4 B3856F20 		.word	544179635
 215 01d8 09D466B9 		.word	-1184443383
 216 01dc 9FE461CE 		.word	-832445281
 217 01e0 0EF9DE5E 		.word	1591671054
 218 01e4 98C9D929 		.word	702138776
 219 01e8 2298D0B0 		.word	-1328506846
 220 01ec B4A8D7C7 		.word	-942167884
 221 01f0 173DB359 		.word	1504918807
 222 01f4 810DB42E 		.word	783551873
 223 01f8 3B5CBDB7 		.word	-1212326853
ARM GAS  C:\Users\pc\AppData\Local\Temp\ccRZ8OWf.s 			page 5


 224 01fc AD6CBAC0 		.word	-1061524307
 225 0200 2083B8ED 		.word	-306674912
 226 0204 B6B3BF9A 		.word	-1698712650
 227 0208 0CE2B603 		.word	62317068
 228 020c 9AD2B174 		.word	1957810842
 229 0210 3947D5EA 		.word	-355121351
 230 0214 AF77D29D 		.word	-1647151185
 231 0218 1526DB04 		.word	81470997
 232 021c 8316DC73 		.word	1943803523
 233 0220 120B63E3 		.word	-480048366
 234 0224 843B6494 		.word	-1805370492
 235 0228 3E6A6D0D 		.word	225274430
 236 022c A85A6A7A 		.word	2053790376
 237 0230 0BCF0EE4 		.word	-468791541
 238 0234 9DFF0993 		.word	-1828061283
 239 0238 27AE000A 		.word	167816743
 240 023c B19E077D 		.word	2097651377
 241 0240 44930FF0 		.word	-267414716
 242 0244 D2A30887 		.word	-2029476910
 243 0248 68F2011E 		.word	503444072
 244 024c FEC20669 		.word	1762050814
 245 0250 5D5762F7 		.word	-144550051
 246 0254 CB676580 		.word	-2140837941
 247 0258 71366C19 		.word	426522225
 248 025c E7066B6E 		.word	1852507879
 249 0260 761BD4FE 		.word	-19653770
 250 0264 E02BD389 		.word	-1982649376
 251 0268 5A7ADA10 		.word	282753626
 252 026c CC4ADD67 		.word	1742555852
 253 0270 6FDFB9F9 		.word	-105259153
 254 0274 F9EFBE8E 		.word	-1900089351
 255 0278 43BEB717 		.word	397917763
 256 027c D58EB060 		.word	1622183637
 257 0280 E8A3D6D6 		.word	-690576408
 258 0284 7E93D1A1 		.word	-1580100738
 259 0288 C4C2D838 		.word	953729732
 260 028c 52F2DF4F 		.word	1340076626
 261 0290 F167BBD1 		.word	-776247311
 262 0294 6757BCA6 		.word	-1497606297
 263 0298 DD06B53F 		.word	1068828381
 264 029c 4B36B248 		.word	1219638859
 265 02a0 DA2B0DD8 		.word	-670225446
 266 02a4 4C1B0AAF 		.word	-1358292148
 267 02a8 F64A0336 		.word	906185462
 268 02ac 607A0441 		.word	1090812512
 269 02b0 C3EF60DF 		.word	-547295293
 270 02b4 55DF67A8 		.word	-1469587627
 271 02b8 EF8E6E31 		.word	829329135
 272 02bc 79BE6946 		.word	1181335161
 273 02c0 8CB361CB 		.word	-882789492
 274 02c4 1A8366BC 		.word	-1134132454
 275 02c8 A0D26F25 		.word	628085408
 276 02cc 36E26852 		.word	1382605366
 277 02d0 95770CCC 		.word	-871598187
 278 02d4 03470BBB 		.word	-1156888829
 279 02d8 B9160222 		.word	570562233
 280 02dc 2F260555 		.word	1426400815
ARM GAS  C:\Users\pc\AppData\Local\Temp\ccRZ8OWf.s 			page 6


 281 02e0 BE3BBAC5 		.word	-977650754
 282 02e4 280BBDB2 		.word	-1296233688
 283 02e8 925AB42B 		.word	733239954
 284 02ec 046AB35C 		.word	1555261956
 285 02f0 A7FFD7C2 		.word	-1026031705
 286 02f4 31CFD0B5 		.word	-1244606671
 287 02f8 8B9ED92C 		.word	752459403
 288 02fc 1DAEDE5B 		.word	1541320221
 289 0300 B0C2649B 		.word	-1687895376
 290 0304 26F263EC 		.word	-328994266
 291 0308 9CA36A75 		.word	1969922972
 292 030c 0A936D02 		.word	40735498
 293 0310 A906099C 		.word	-1677130071
 294 0314 3F360EEB 		.word	-351390145
 295 0318 85670772 		.word	1913087877
 296 031c 13570005 		.word	83908371
 297 0320 824ABF95 		.word	-1782625662
 298 0324 147AB8E2 		.word	-491226604
 299 0328 AE2BB17B 		.word	2075208622
 300 032c 381BB60C 		.word	213261112
 301 0330 9B8ED292 		.word	-1831694693
 302 0334 0DBED5E5 		.word	-438977011
 303 0338 B7EFDC7C 		.word	2094854071
 304 033c 21DFDB0B 		.word	198958881
 305 0340 D4D2D386 		.word	-2032938284
 306 0344 42E2D4F1 		.word	-237706686
 307 0348 F8B3DD68 		.word	1759359992
 308 034c 6E83DA1F 		.word	534414190
 309 0350 CD16BE81 		.word	-2118248755
 310 0354 5B26B9F6 		.word	-155638181
 311 0358 E177B06F 		.word	1873836001
 312 035c 7747B718 		.word	414664567
 313 0360 E65A0888 		.word	-2012718362
 314 0364 706A0FFF 		.word	-15766928
 315 0368 CA3B0666 		.word	1711684554
 316 036c 5C0B0111 		.word	285281116
 317 0370 FF9E658F 		.word	-1889165569
 318 0374 69AE62F8 		.word	-127750551
 319 0378 D3FF6B61 		.word	1634467795
 320 037c 45CF6C16 		.word	376229701
 321 0380 78E20AA0 		.word	-1609899400
 322 0384 EED20DD7 		.word	-686959890
 323 0388 5483044E 		.word	1308918612
 324 038c C2B30339 		.word	956543938
 325 0390 612667A7 		.word	-1486412191
 326 0394 F71660D0 		.word	-799009033
 327 0398 4D476949 		.word	1231636301
 328 039c DB776E3E 		.word	1047427035
 329 03a0 4A6AD1AE 		.word	-1362007478
 330 03a4 DC5AD6D9 		.word	-640263460
 331 03a8 660BDF40 		.word	1088359270
 332 03ac F03BD837 		.word	936918000
 333 03b0 53AEBCA9 		.word	-1447252397
 334 03b4 C59EBBDE 		.word	-558129467
 335 03b8 7FCFB247 		.word	1202900863
 336 03bc E9FFB530 		.word	817233897
 337 03c0 1CF2BDBD 		.word	-1111625188
ARM GAS  C:\Users\pc\AppData\Local\Temp\ccRZ8OWf.s 			page 7


 338 03c4 8AC2BACA 		.word	-893730166
 339 03c8 3093B353 		.word	1404277552
 340 03cc A6A3B424 		.word	615818150
 341 03d0 0536D0BA 		.word	-1160759803
 342 03d4 9306D7CD 		.word	-841546093
 343 03d8 2957DE54 		.word	1423857449
 344 03dc BF67D923 		.word	601450431
 345 03e0 2E7A66B3 		.word	-1285129682
 346 03e4 B84A61C4 		.word	-1000256840
 347 03e8 021B685D 		.word	1567103746
 348 03ec 942B6F2A 		.word	711928724
 349 03f0 37BE0BB4 		.word	-1274298825
 350 03f4 A18E0CC3 		.word	-1022587231
 351 03f8 1BDF055A 		.word	1510334235
 352 03fc 8DEF022D 		.word	755167117
 353              		.ident	"GCC: (Sourcery CodeBench Lite 2013.11-24) 4.8.1"
ARM GAS  C:\Users\pc\AppData\Local\Temp\ccRZ8OWf.s 			page 8


DEFINED SYMBOLS
                            *ABS*:00000000 crc.c
C:\Users\pc\AppData\Local\Temp\ccRZ8OWf.s:17     .text.calc_crc:00000000 $t
C:\Users\pc\AppData\Local\Temp\ccRZ8OWf.s:23     .text.calc_crc:00000000 calc_crc
C:\Users\pc\AppData\Local\Temp\ccRZ8OWf.s:59     .text.crc32:00000000 $t
C:\Users\pc\AppData\Local\Temp\ccRZ8OWf.s:65     .text.crc32:00000000 crc32
C:\Users\pc\AppData\Local\Temp\ccRZ8OWf.s:93     .rodata.crc32_tab:00000000 .LANCHOR0
C:\Users\pc\AppData\Local\Temp\ccRZ8OWf.s:92     .rodata.crc32_tab:00000000 $d
C:\Users\pc\AppData\Local\Temp\ccRZ8OWf.s:96     .rodata.crc32_tab:00000000 crc32_tab

NO UNDEFINED SYMBOLS
