ARM GAS  C:\Users\pc\AppData\Local\Temp\cctHWE4t.s 			page 1


   1              		.syntax unified
   2              		.cpu cortex-m4
   3              		.eabi_attribute 27, 3
   4              		.fpu fpv4-sp-d16
   5              		.eabi_attribute 20, 1
   6              		.eabi_attribute 21, 1
   7              		.eabi_attribute 23, 3
   8              		.eabi_attribute 24, 1
   9              		.eabi_attribute 25, 1
  10              		.eabi_attribute 26, 1
  11              		.eabi_attribute 30, 2
  12              		.eabi_attribute 34, 1
  13              		.eabi_attribute 18, 4
  14              		.thumb
  15              		.file	"digital_input_hw.cpp"
  16              		.section	.text._ZL16icuWidthCallbackP9ICUDriver,"ax",%progbits
  17              		.align	2
  18              		.p2align 4,,15
  19              		.thumb
  20              		.thumb_func
  21              		.type	_ZL16icuWidthCallbackP9ICUDriver, %function
  22              	_ZL16icuWidthCallbackP9ICUDriver:
  23              		@ args = 0, pretend = 0, frame = 0
  24              		@ frame_needed = 0, uses_anonymous_args = 0
  25 0000 38B5     		push	{r3, r4, r5, lr}
  26 0002 40F20004 		movw	r4, #:lower16:.LANCHOR0
  27 0006 C0F20004 		movt	r4, #:upper16:.LANCHOR0
  28 000a 2568     		ldr	r5, [r4]
  29 000c 002D     		cmp	r5, #0
  30 000e 0EDD     		ble	.L2
  31 0010 6368     		ldr	r3, [r4, #4]
  32 0012 9842     		cmp	r0, r3
  33 0014 18BF     		it	ne
  34 0016 0023     		movne	r3, #0
  35 0018 03D1     		bne	.L5
  36 001a 14E0     		b	.L12
  37              	.L7:
  38 001c 4968     		ldr	r1, [r1, #4]
  39 001e 8842     		cmp	r0, r1
  40 0020 12D0     		beq	.L3
  41              	.L5:
  42 0022 0133     		adds	r3, r3, #1
  43 0024 1A02     		lsls	r2, r3, #8
  44 0026 AB42     		cmp	r3, r5
  45 0028 04EB0201 		add	r1, r4, r2
  46 002c F6D1     		bne	.L7
  47              	.L2:
  48 002e 40F20000 		movw	r0, #:lower16:.LC0
  49 0032 C0F20000 		movt	r0, #:upper16:.LC0
  50 0036 FFF7FEFF 		bl	firmwareError
  51 003a 0020     		movs	r0, #0
  52 003c 0830     		adds	r0, r0, #8
  53 003e BDE83840 		pop	{r3, r4, r5, lr}
  54 0042 FFF7FEBF 		b	_ZN16IntListenerArray22invokeJustArgCallbacksEv
  55              	.L12:
  56 0046 0022     		movs	r2, #0
  57              	.L3:
ARM GAS  C:\Users\pc\AppData\Local\Temp\cctHWE4t.s 			page 2


  58 0048 2244     		add	r2, r2, r4
  59 004a 101D     		adds	r0, r2, #4
  60 004c 0830     		adds	r0, r0, #8
  61 004e BDE83840 		pop	{r3, r4, r5, lr}
  62 0052 FFF7FEBF 		b	_ZN16IntListenerArray22invokeJustArgCallbacksEv
  63              		.size	_ZL16icuWidthCallbackP9ICUDriver, .-_ZL16icuWidthCallbackP9ICUDriver
  64 0056 00BFAFF3 		.section	.text._ZL18icuPeriordCallBackP9ICUDriver,"ax",%progbits
  64      0080AFF3 
  64      0080
  65              		.align	2
  66              		.p2align 4,,15
  67              		.thumb
  68              		.thumb_func
  69              		.type	_ZL18icuPeriordCallBackP9ICUDriver, %function
  70              	_ZL18icuPeriordCallBackP9ICUDriver:
  71              		@ args = 0, pretend = 0, frame = 0
  72              		@ frame_needed = 0, uses_anonymous_args = 0
  73 0000 38B5     		push	{r3, r4, r5, lr}
  74 0002 40F20004 		movw	r4, #:lower16:.LANCHOR0
  75 0006 C0F20004 		movt	r4, #:upper16:.LANCHOR0
  76 000a 2568     		ldr	r5, [r4]
  77 000c 002D     		cmp	r5, #0
  78 000e 0EDD     		ble	.L14
  79 0010 6368     		ldr	r3, [r4, #4]
  80 0012 9842     		cmp	r0, r3
  81 0014 18BF     		it	ne
  82 0016 0023     		movne	r3, #0
  83 0018 03D1     		bne	.L17
  84 001a 14E0     		b	.L23
  85              	.L19:
  86 001c 4968     		ldr	r1, [r1, #4]
  87 001e 8842     		cmp	r0, r1
  88 0020 12D0     		beq	.L15
  89              	.L17:
  90 0022 0133     		adds	r3, r3, #1
  91 0024 1A02     		lsls	r2, r3, #8
  92 0026 AB42     		cmp	r3, r5
  93 0028 04EB0201 		add	r1, r4, r2
  94 002c F6D1     		bne	.L19
  95              	.L14:
  96 002e 40F20000 		movw	r0, #:lower16:.LC0
  97 0032 C0F20000 		movt	r0, #:upper16:.LC0
  98 0036 FFF7FEFF 		bl	firmwareError
  99 003a 0020     		movs	r0, #0
 100 003c 8430     		adds	r0, r0, #132
 101 003e BDE83840 		pop	{r3, r4, r5, lr}
 102 0042 FFF7FEBF 		b	_ZN16IntListenerArray22invokeJustArgCallbacksEv
 103              	.L23:
 104 0046 0022     		movs	r2, #0
 105              	.L15:
 106 0048 2244     		add	r2, r2, r4
 107 004a 101D     		adds	r0, r2, #4
 108 004c 8430     		adds	r0, r0, #132
 109 004e BDE83840 		pop	{r3, r4, r5, lr}
 110 0052 FFF7FEBF 		b	_ZN16IntListenerArray22invokeJustArgCallbacksEv
 111              		.size	_ZL18icuPeriordCallBackP9ICUDriver, .-_ZL18icuPeriordCallBackP9ICUDriver
 112 0056 00BFAFF3 		.section	.text._Z22getInputCaptureChannel11brain_pin_e,"ax",%progbits
ARM GAS  C:\Users\pc\AppData\Local\Temp\cctHWE4t.s 			page 3


 112      0080AFF3 
 112      0080
 113              		.align	2
 114              		.p2align 4,,15
 115              		.global	_Z22getInputCaptureChannel11brain_pin_e
 116              		.thumb
 117              		.thumb_func
 118              		.type	_Z22getInputCaptureChannel11brain_pin_e, %function
 119              	_Z22getInputCaptureChannel11brain_pin_e:
 120              		@ args = 0, pretend = 0, frame = 0
 121              		@ frame_needed = 0, uses_anonymous_args = 0
 122 0000 08B5     		push	{r3, lr}
 123 0002 431F     		subs	r3, r0, #5
 124 0004 0146     		mov	r1, r0
 125 0006 462B     		cmp	r3, #70
 126 0008 25D8     		bhi	.L25
 127 000a DFE803F0 		tbb	[pc, r3]
 128              	.L27:
 129 000e 2A       		.byte	(.L30-.L27)/2
 130 000f 24       		.byte	(.L25-.L27)/2
 131 0010 24       		.byte	(.L25-.L27)/2
 132 0011 2A       		.byte	(.L30-.L27)/2
 133 0012 24       		.byte	(.L25-.L27)/2
 134 0013 24       		.byte	(.L25-.L27)/2
 135 0014 24       		.byte	(.L25-.L27)/2
 136 0015 24       		.byte	(.L25-.L27)/2
 137 0016 24       		.byte	(.L25-.L27)/2
 138 0017 24       		.byte	(.L25-.L27)/2
 139 0018 24       		.byte	(.L25-.L27)/2
 140 0019 24       		.byte	(.L25-.L27)/2
 141 001a 24       		.byte	(.L25-.L27)/2
 142 001b 24       		.byte	(.L25-.L27)/2
 143 001c 24       		.byte	(.L25-.L27)/2
 144 001d 24       		.byte	(.L25-.L27)/2
 145 001e 24       		.byte	(.L25-.L27)/2
 146 001f 24       		.byte	(.L25-.L27)/2
 147 0020 24       		.byte	(.L25-.L27)/2
 148 0021 24       		.byte	(.L25-.L27)/2
 149 0022 24       		.byte	(.L25-.L27)/2
 150 0023 24       		.byte	(.L25-.L27)/2
 151 0024 24       		.byte	(.L25-.L27)/2
 152 0025 24       		.byte	(.L25-.L27)/2
 153 0026 24       		.byte	(.L25-.L27)/2
 154 0027 24       		.byte	(.L25-.L27)/2
 155 0028 24       		.byte	(.L25-.L27)/2
 156 0029 24       		.byte	(.L25-.L27)/2
 157 002a 24       		.byte	(.L25-.L27)/2
 158 002b 24       		.byte	(.L25-.L27)/2
 159 002c 24       		.byte	(.L25-.L27)/2
 160 002d 24       		.byte	(.L25-.L27)/2
 161 002e 24       		.byte	(.L25-.L27)/2
 162 002f 2A       		.byte	(.L30-.L27)/2
 163 0030 24       		.byte	(.L25-.L27)/2
 164 0031 24       		.byte	(.L25-.L27)/2
 165 0032 24       		.byte	(.L25-.L27)/2
 166 0033 24       		.byte	(.L25-.L27)/2
 167 0034 24       		.byte	(.L25-.L27)/2
ARM GAS  C:\Users\pc\AppData\Local\Temp\cctHWE4t.s 			page 4


 168 0035 24       		.byte	(.L25-.L27)/2
 169 0036 24       		.byte	(.L25-.L27)/2
 170 0037 24       		.byte	(.L25-.L27)/2
 171 0038 24       		.byte	(.L25-.L27)/2
 172 0039 24       		.byte	(.L25-.L27)/2
 173 003a 24       		.byte	(.L25-.L27)/2
 174 003b 24       		.byte	(.L25-.L27)/2
 175 003c 24       		.byte	(.L25-.L27)/2
 176 003d 24       		.byte	(.L25-.L27)/2
 177 003e 24       		.byte	(.L25-.L27)/2
 178 003f 24       		.byte	(.L25-.L27)/2
 179 0040 24       		.byte	(.L25-.L27)/2
 180 0041 24       		.byte	(.L25-.L27)/2
 181 0042 24       		.byte	(.L25-.L27)/2
 182 0043 24       		.byte	(.L25-.L27)/2
 183 0044 24       		.byte	(.L25-.L27)/2
 184 0045 24       		.byte	(.L25-.L27)/2
 185 0046 24       		.byte	(.L25-.L27)/2
 186 0047 24       		.byte	(.L25-.L27)/2
 187 0048 24       		.byte	(.L25-.L27)/2
 188 0049 24       		.byte	(.L25-.L27)/2
 189 004a 24       		.byte	(.L25-.L27)/2
 190 004b 24       		.byte	(.L25-.L27)/2
 191 004c 24       		.byte	(.L25-.L27)/2
 192 004d 24       		.byte	(.L25-.L27)/2
 193 004e 2A       		.byte	(.L30-.L27)/2
 194 004f 2C       		.byte	(.L29-.L27)/2
 195 0050 24       		.byte	(.L25-.L27)/2
 196 0051 24       		.byte	(.L25-.L27)/2
 197 0052 2A       		.byte	(.L30-.L27)/2
 198 0053 24       		.byte	(.L25-.L27)/2
 199 0054 2C       		.byte	(.L29-.L27)/2
 200 0055 00       		.align	1
 201              	.L25:
 202 0056 40F20000 		movw	r0, #:lower16:.LC1
 203 005a C0F20000 		movt	r0, #:upper16:.LC1
 204 005e FFF7FEFF 		bl	firmwareError
 205              	.L30:
 206 0062 0020     		movs	r0, #0
 207 0064 08BD     		pop	{r3, pc}
 208              	.L29:
 209 0066 0120     		movs	r0, #1
 210 0068 08BD     		pop	{r3, pc}
 211              		.size	_Z22getInputCaptureChannel11brain_pin_e, .-_Z22getInputCaptureChannel11brain_pin_e
 212 006a 00BFAFF3 		.section	.text._Z21getInputCaptureDriver11brain_pin_e,"ax",%progbits
 212      0080
 213              		.align	2
 214              		.p2align 4,,15
 215              		.global	_Z21getInputCaptureDriver11brain_pin_e
 216              		.thumb
 217              		.thumb_func
 218              		.type	_Z21getInputCaptureDriver11brain_pin_e, %function
 219              	_Z21getInputCaptureDriver11brain_pin_e:
 220              		@ args = 0, pretend = 0, frame = 0
 221              		@ frame_needed = 0, uses_anonymous_args = 0
 222              		@ link register save eliminated.
 223 0000 0828     		cmp	r0, #8
ARM GAS  C:\Users\pc\AppData\Local\Temp\cctHWE4t.s 			page 5


 224 0002 10D0     		beq	.L35
 225 0004 20F00203 		bic	r3, r0, #2
 226 0008 492B     		cmp	r3, #73
 227 000a 0CD0     		beq	.L35
 228 000c 0528     		cmp	r0, #5
 229 000e 0FD0     		beq	.L36
 230 0010 2628     		cmp	r0, #38
 231 0012 12D0     		beq	.L37
 232 0014 40F20003 		movw	r3, #:lower16:ICUD9
 233 0018 C0F20003 		movt	r3, #:upper16:ICUD9
 234 001c 4528     		cmp	r0, #69
 235 001e 0CBF     		ite	eq
 236 0020 1846     		moveq	r0, r3
 237 0022 0020     		movne	r0, #0
 238 0024 7047     		bx	lr
 239              	.L35:
 240 0026 40F20000 		movw	r0, #:lower16:ICUD1
 241 002a C0F20000 		movt	r0, #:upper16:ICUD1
 242 002e 7047     		bx	lr
 243              	.L36:
 244 0030 40F20000 		movw	r0, #:lower16:ICUD2
 245 0034 C0F20000 		movt	r0, #:upper16:ICUD2
 246 0038 7047     		bx	lr
 247              	.L37:
 248 003a 40F20000 		movw	r0, #:lower16:ICUD3
 249 003e C0F20000 		movt	r0, #:upper16:ICUD3
 250 0042 7047     		bx	lr
 251              		.size	_Z21getInputCaptureDriver11brain_pin_e, .-_Z21getInputCaptureDriver11brain_pin_e
 252 0044 AFF30080 		.section	.text._Z16turnOnCapturePinPKc11brain_pin_e,"ax",%progbits
 252      AFF30080 
 252      AFF30080 
 253              		.align	2
 254              		.p2align 4,,15
 255              		.global	_Z16turnOnCapturePinPKc11brain_pin_e
 256              		.thumb
 257              		.thumb_func
 258              		.type	_Z16turnOnCapturePinPKc11brain_pin_e, %function
 259              	_Z16turnOnCapturePinPKc11brain_pin_e:
 260              		@ args = 0, pretend = 0, frame = 0
 261              		@ frame_needed = 0, uses_anonymous_args = 0
 262 0000 2DE9F041 		push	{r4, r5, r6, r7, r8, lr}
 263 0004 0746     		mov	r7, r0
 264 0006 0846     		mov	r0, r1
 265 0008 0C46     		mov	r4, r1
 266 000a FFF7FEFF 		bl	_Z9getHwPort11brain_pin_e
 267 000e 0646     		mov	r6, r0
 268 0010 2046     		mov	r0, r4
 269 0012 FFF7FEFF 		bl	_Z8getHwPin11brain_pin_e
 270 0016 0546     		mov	r5, r0
 271 0018 2046     		mov	r0, r4
 272 001a FFF7FEFF 		bl	_Z21getInputCaptureDriver11brain_pin_e
 273 001e 60B3     		cbz	r0, .L39
 274 0020 40F20004 		movw	r4, #:lower16:ICUD1
 275 0024 C0F20004 		movt	r4, #:upper16:ICUD1
 276 0028 A042     		cmp	r0, r4
 277 002a 28D0     		beq	.L43
 278 002c 40F20004 		movw	r4, #:lower16:ICUD2
ARM GAS  C:\Users\pc\AppData\Local\Temp\cctHWE4t.s 			page 6


 279 0030 C0F20004 		movt	r4, #:upper16:ICUD2
 280 0034 A042     		cmp	r0, r4
 281 0036 22D0     		beq	.L43
 282 0038 40F20004 		movw	r4, #:lower16:ICUD3
 283 003c C0F20004 		movt	r4, #:upper16:ICUD3
 284 0040 A042     		cmp	r0, r4
 285 0042 08BF     		it	eq
 286 0044 4FF48173 		moveq	r3, #258
 287 0048 10D0     		beq	.L41
 288 004a 40F20002 		movw	r2, #:lower16:ICUD9
 289 004e C0F20002 		movt	r2, #:upper16:ICUD9
 290 0052 9042     		cmp	r0, r2
 291 0054 08BF     		it	eq
 292 0056 4FF4C173 		moveq	r3, #386
 293 005a 07D0     		beq	.L41
 294 005c 40F20000 		movw	r0, #:lower16:.LC2
 295 0060 C0F20000 		movt	r0, #:upper16:.LC2
 296 0064 FFF7FEFF 		bl	firmwareError
 297 0068 6FF07D03 		mvn	r3, #125
 298              	.L41:
 299 006c 3846     		mov	r0, r7
 300 006e 3146     		mov	r1, r6
 301 0070 2A46     		mov	r2, r5
 302 0072 BDE8F041 		pop	{r4, r5, r6, r7, r8, lr}
 303 0076 FFF7FEBF 		b	_Z12mySetPadModePKcP12GPIO_TypeDefmm
 304              	.L39:
 305 007a BDE8F081 		pop	{r4, r5, r6, r7, r8, pc}
 306              	.L43:
 307 007e 8223     		movs	r3, #130
 308 0080 F4E7     		b	.L41
 309              		.size	_Z16turnOnCapturePinPKc11brain_pin_e, .-_Z16turnOnCapturePinPKc11brain_pin_e
 310 0082 00BFAFF3 		.section	.text._Z22initWaveAnalyzerDriverPKc11brain_pin_e,"ax",%progbits
 310      0080AFF3 
 310      0080AFF3 
 310      0080
 311              		.align	2
 312              		.p2align 4,,15
 313              		.global	_Z22initWaveAnalyzerDriverPKc11brain_pin_e
 314              		.thumb
 315              		.thumb_func
 316              		.type	_Z22initWaveAnalyzerDriverPKc11brain_pin_e, %function
 317              	_Z22initWaveAnalyzerDriverPKc11brain_pin_e:
 318              		@ args = 0, pretend = 0, frame = 0
 319              		@ frame_needed = 0, uses_anonymous_args = 0
 320 0000 F8B5     		push	{r3, r4, r5, r6, r7, lr}
 321 0002 0646     		mov	r6, r0
 322 0004 0846     		mov	r0, r1
 323 0006 0C46     		mov	r4, r1
 324 0008 FFF7FEFF 		bl	_Z21getInputCaptureDriver11brain_pin_e
 325 000c 40F20003 		movw	r3, #:lower16:.LANCHOR0
 326 0010 C0F20003 		movt	r3, #:upper16:.LANCHOR0
 327 0014 0746     		mov	r7, r0
 328 0016 1A68     		ldr	r2, [r3]
 329 0018 072A     		cmp	r2, #7
 330 001a DFBF     		itttt	le
 331 001c 511C     		addle	r1, r2, #1
 332 001e 03EB0222 		addle	r2, r3, r2, lsl #8
ARM GAS  C:\Users\pc\AppData\Local\Temp\cctHWE4t.s 			page 7


 333 0022 1960     		strle	r1, [r3]
 334 0024 151D     		addle	r5, r2, #4
 335 0026 06DC     		bgt	.L49
 336              	.L48:
 337 0028 3046     		mov	r0, r6
 338 002a 2F60     		str	r7, [r5]
 339 002c 2146     		mov	r1, r4
 340 002e FFF7FEFF 		bl	_Z16turnOnCapturePinPKc11brain_pin_e
 341 0032 2846     		mov	r0, r5
 342 0034 F8BD     		pop	{r3, r4, r5, r6, r7, pc}
 343              	.L49:
 344 0036 40F20000 		movw	r0, #:lower16:.LC3
 345 003a C0F20000 		movt	r0, #:upper16:.LC3
 346 003e FFF7FEFF 		bl	firmwareError
 347 0042 0025     		movs	r5, #0
 348 0044 F0E7     		b	.L48
 349              		.size	_Z22initWaveAnalyzerDriverPKc11brain_pin_e, .-_Z22initWaveAnalyzerDriverPKc11brain_pin_e
 350 0046 00BFAFF3 		.section	.text._Z16startInputDriverP15digital_input_sb,"ax",%progbits
 350      0080AFF3 
 350      0080
 351              		.align	2
 352              		.p2align 4,,15
 353              		.global	_Z16startInputDriverP15digital_input_sb
 354              		.thumb
 355              		.thumb_func
 356              		.type	_Z16startInputDriverP15digital_input_sb, %function
 357              	_Z16startInputDriverP15digital_input_sb:
 358              		@ args = 0, pretend = 0, frame = 0
 359              		@ frame_needed = 0, uses_anonymous_args = 0
 360 0000 38B5     		push	{r3, r4, r5, lr}
 361 0002 40F20003 		movw	r3, #:lower16:.LANCHOR1
 362 0006 0446     		mov	r4, r0
 363 0008 0171     		strb	r1, [r0, #4]
 364 000a C0F20003 		movt	r3, #:upper16:.LANCHOR1
 365 000e 91B1     		cbz	r1, .L51
 366 0010 0022     		movs	r2, #0
 367 0012 1A70     		strb	r2, [r3]
 368              	.L52:
 369 0014 2568     		ldr	r5, [r4]
 370 0016 5DB1     		cbz	r5, .L53
 371 0018 6379     		ldrb	r3, [r4, #5]	@ zero_extendqisi2
 372 001a 7BB9     		cbnz	r3, .L61
 373              	.L54:
 374 001c 40F20001 		movw	r1, #:lower16:.LANCHOR1
 375 0020 2846     		mov	r0, r5
 376 0022 C0F20001 		movt	r1, #:upper16:.LANCHOR1
 377 0026 FFF7FEFF 		bl	_Z11efiIcuStartP9ICUDriverPK9ICUConfig
 378 002a 2846     		mov	r0, r5
 379 002c FFF7FEFF 		bl	icuEnable
 380              	.L53:
 381 0030 0123     		movs	r3, #1
 382 0032 6371     		strb	r3, [r4, #5]
 383 0034 38BD     		pop	{r3, r4, r5, pc}
 384              	.L51:
 385 0036 0122     		movs	r2, #1
 386 0038 1A70     		strb	r2, [r3]
 387 003a EBE7     		b	.L52
ARM GAS  C:\Users\pc\AppData\Local\Temp\cctHWE4t.s 			page 8


 388              	.L61:
 389 003c 2846     		mov	r0, r5
 390 003e FFF7FEFF 		bl	icuDisable
 391 0042 2846     		mov	r0, r5
 392 0044 FFF7FEFF 		bl	icuStop
 393 0048 E8E7     		b	.L54
 394              		.size	_Z16startInputDriverP15digital_input_sb, .-_Z16startInputDriverP15digital_input_sb
 395 004a 00BFAFF3 		.section	.text.startup._GLOBAL__sub_I__Z22getInputCaptureChannel11brain_pin_e,"ax",%progbits
 395      0080
 396              		.align	2
 397              		.p2align 4,,15
 398              		.thumb
 399              		.thumb_func
 400              		.type	_GLOBAL__sub_I__Z22getInputCaptureChannel11brain_pin_e, %function
 401              	_GLOBAL__sub_I__Z22getInputCaptureChannel11brain_pin_e:
 402              		@ args = 0, pretend = 0, frame = 0
 403              		@ frame_needed = 0, uses_anonymous_args = 0
 404 0000 38B5     		push	{r3, r4, r5, lr}
 405 0002 0D4C     		ldr	r4, .L65
 406 0004 04F50065 		add	r5, r4, #2048
 407              	.L64:
 408 0008 2046     		mov	r0, r4
 409 000a FFF7FEFF 		bl	_ZN16IntListenerArrayC1Ev
 410 000e 04F17C00 		add	r0, r4, #124
 411 0012 04F58074 		add	r4, r4, #256
 412 0016 FFF7FEFF 		bl	_ZN16IntListenerArrayC1Ev
 413 001a AC42     		cmp	r4, r5
 414 001c F4D1     		bne	.L64
 415 001e 40F20004 		movw	r4, #:lower16:.LANCHOR0
 416 0022 C0F20004 		movt	r4, #:upper16:.LANCHOR0
 417 0026 201D     		adds	r0, r4, #4
 418 0028 0021     		movs	r1, #0
 419 002a 4FF40062 		mov	r2, #2048
 420 002e FFF7FEFF 		bl	memset
 421 0032 0023     		movs	r3, #0
 422 0034 2360     		str	r3, [r4]
 423 0036 38BD     		pop	{r3, r4, r5, pc}
 424              	.L66:
 425              		.align	2
 426              	.L65:
 427 0038 0C000000 		.word	.LANCHOR0+12
 428              		.size	_GLOBAL__sub_I__Z22getInputCaptureChannel11brain_pin_e, .-_GLOBAL__sub_I__Z22getInputCapture
 429 003c AFF30080 		.section	.init_array,"aw",%init_array
 430              		.align	2
 431 0000 00000000 		.word	_GLOBAL__sub_I__Z22getInputCaptureChannel11brain_pin_e(target1)
 432              		.section	.bss._ZL14registeredIcus,"aw",%nobits
 433              		.align	2
 434              		.set	.LANCHOR0,. + 0
 435              		.type	_ZL14registeredIcus, %object
 436              		.size	_ZL14registeredIcus, 2052
 437              	_ZL14registeredIcus:
 438 0000 00000000 		.space	2052
 438      00000000 
 438      00000000 
 438      00000000 
 438      00000000 
 439              		.section	.data._ZL11wave_icucfg,"aw",%progbits
ARM GAS  C:\Users\pc\AppData\Local\Temp\cctHWE4t.s 			page 9


 440              		.align	2
 441              		.set	.LANCHOR1,. + 0
 442              		.type	_ZL11wave_icucfg, %object
 443              		.size	_ZL11wave_icucfg, 28
 444              	_ZL11wave_icucfg:
 445 0000 01       		.byte	1
 446 0001 000000   		.space	3
 447 0004 80A21900 		.word	1680000
 448 0008 00000000 		.word	_ZL16icuWidthCallbackP9ICUDriver
 449 000c 00000000 		.word	_ZL18icuPeriordCallBackP9ICUDriver
 450 0010 00000000 		.word	0
 451 0014 00       		.byte	0
 452 0015 000000   		.space	3
 453 0018 00000000 		.word	0
 454              		.section	.rodata.str1.4,"aMS",%progbits,1
 455              		.align	2
 456              	.LC0:
 457 0000 72656164 		.ascii	"reader not found\000"
 457      6572206E 
 457      6F742066 
 457      6F756E64 
 457      00
 458 0011 000000   		.space	3
 459              	.LC1:
 460 0014 556E6578 		.ascii	"Unexpected hw pin in getInputCaptureChannel %d\000"
 460      70656374 
 460      65642068 
 460      77207069 
 460      6E20696E 
 461 0043 00       		.space	1
 462              	.LC2:
 463 0044 4E6F2073 		.ascii	"No such driver\000"
 463      75636820 
 463      64726976 
 463      657200
 464 0053 00       		.space	1
 465              	.LC3:
 466 0054 61646428 		.ascii	"add() too many elements\000"
 466      2920746F 
 466      6F206D61 
 466      6E792065 
 466      6C656D65 
 467              		.ident	"GCC: (Sourcery CodeBench Lite 2013.11-24) 4.8.1"
ARM GAS  C:\Users\pc\AppData\Local\Temp\cctHWE4t.s 			page 10

