ARM GAS  C:\Users\pc\AppData\Local\Temp\ccMl2WwT.s 			page 1


   1              		.syntax unified
   2              		.cpu cortex-m4
   3              		.eabi_attribute 27, 3
   4              		.fpu fpv4-sp-d16
   5              		.eabi_attribute 20, 1
   6              		.eabi_attribute 21, 1
   7              		.eabi_attribute 23, 3
   8              		.eabi_attribute 24, 1
   9              		.eabi_attribute 25, 1
  10              		.eabi_attribute 26, 1
  11              		.eabi_attribute 30, 2
  12              		.eabi_attribute 34, 1
  13              		.eabi_attribute 18, 4
  14              		.thumb
  15              		.file	"dodge_neon.cpp"
  16              		.section	.text._Z35setDodgeNeon1995EngineConfigurationv,"ax",%progbits
  17              		.align	2
  18              		.p2align 4,,15
  19              		.global	_Z35setDodgeNeon1995EngineConfigurationv
  20              		.thumb
  21              		.thumb_func
  22              		.type	_Z35setDodgeNeon1995EngineConfigurationv, %function
  23              	_Z35setDodgeNeon1995EngineConfigurationv:
  24              		@ args = 0, pretend = 0, frame = 0
  25              		@ frame_needed = 0, uses_anonymous_args = 0
  26 0000 2DE9F04F 		push	{r4, r5, r6, r7, r8, r9, r10, fp, lr}
  27 0004 40F20004 		movw	r4, #:lower16:engineConfiguration
  28 0008 C0F20004 		movt	r4, #:upper16:engineConfiguration
  29 000c 4FF47A61 		mov	r1, #4000
  30 0010 2368     		ldr	r3, [r4]
  31 0012 93F8D825 		ldrb	r2, [r3, #1496]	@ zero_extendqisi2
  32 0016 C3F8A411 		str	r1, [r3, #420]
  33 001a 0027     		movs	r7, #0
  34 001c 6FF34102 		bfc	r2, #1, #1
  35 0020 40F22621 		movw	r1, #550
  36 0024 0125     		movs	r5, #1
  37 0026 0226     		movs	r6, #2
  38 0028 C4F2A007 		movt	r7, 16544
  39 002c 0020     		movs	r0, #0
  40 002e 85B0     		sub	sp, sp, #20
  41 0030 83F8D825 		strb	r2, [r3, #1496]
  42 0034 A3F86010 		strh	r1, [r3, #96]	@ movhi
  43 0038 DF65     		str	r7, [r3, #92]	@ float
  44 003a C3F81862 		str	r6, [r3, #536]
  45 003e C3F8A851 		str	r5, [r3, #424]
  46 0042 C4F21010 		movt	r0, 16656
  47 0046 FFF7FEFF 		bl	_Z15setWholeFuelMapf
  48 004a 0020     		movs	r0, #0
  49 004c C4F24010 		movt	r0, 16704
  50 0050 FFF7FEFF 		bl	_Z19setWholeTimingTablef
  51 0054 40F20003 		movw	r3, #:lower16:boardConfiguration
  52 0058 2068     		ldr	r0, [r4]
  53 005a C0F20003 		movt	r3, #:upper16:boardConfiguration
  54 005e C0F8BC61 		str	r6, [r0, #444]
  55 0062 1B68     		ldr	r3, [r3]
  56 0064 C0F8B051 		str	r5, [r0, #432]
  57 0068 4FF4004E 		mov	lr, #32768
ARM GAS  C:\Users\pc\AppData\Local\Temp\ccMl2WwT.s 			page 2


  58 006c 0027     		movs	r7, #0
  59 006e 4FF44046 		mov	r6, #49152
  60 0072 4FF00009 		mov	r9, #0
  61 0076 0022     		movs	r2, #0
  62 0078 0021     		movs	r1, #0
  63 007a C4F2F83E 		movt	lr, 17400
  64 007e C4F2AF37 		movt	r7, 17327
  65 0082 C4F27B46 		movt	r6, 17531
  66 0086 C4F28C29 		movt	r9, 17036
  67 008a C0F89851 		str	r5, [r0, #408]
  68 008e C0F8CCE1 		str	lr, [r0, #460]	@ float
  69 0092 C0F8C071 		str	r7, [r0, #448]	@ float
  70 0096 C0F8B461 		str	r6, [r0, #436]	@ float
  71 009a C0F86C90 		str	r9, [r0, #108]	@ float
  72 009e C0F8AC21 		str	r2, [r0, #428]
  73 00a2 C0F8B811 		str	r1, [r0, #440]	@ float
  74 00a6 DFED227A 		flds	s15, .L2
  75 00aa DA61     		str	r2, [r3, #28]
  76 00ac 1A65     		str	r2, [r3, #80]
  77 00ae C3F88420 		str	r2, [r3, #132]
  78 00b2 4FF0180C 		mov	ip, #24
  79 00b6 4FF0430E 		mov	lr, #67
  80 00ba 4FF01908 		mov	r8, #25
  81 00be 4527     		movs	r7, #69
  82 00c0 2D26     		movs	r6, #45
  83 00c2 4825     		movs	r5, #72
  84 00c4 4FF05009 		mov	r9, #80
  85 00c8 4A22     		movs	r2, #74
  86 00ca 4FF0000B 		mov	fp, #0
  87 00ce 4FF0000A 		mov	r10, #0
  88 00d2 C3F82080 		str	r8, [r3, #32]
  89 00d6 C3F824C0 		str	ip, [r3, #36]
  90 00da C3F828E0 		str	lr, [r3, #40]
  91 00de DF62     		str	r7, [r3, #44]
  92 00e0 9E61     		str	r6, [r3, #24]
  93 00e2 5D65     		str	r5, [r3, #84]
  94 00e4 C3F85890 		str	r9, [r3, #88]
  95 00e8 DA65     		str	r2, [r3, #92]
  96 00ea C4F2C82B 		movt	fp, 17096
  97 00ee C4F22F4A 		movt	r10, 17455
  98 00f2 4FF46842 		mov	r2, #59392
  99 00f6 0023     		movs	r3, #0
 100 00f8 00F58070 		add	r0, r0, #256
 101 00fc C4F2FD62 		movt	r2, 18173
 102 0100 C4F2F013 		movt	r3, 16880
 103 0104 CDED007A 		fsts	s15, [sp]
 104 0108 CDF804B0 		str	fp, [sp, #4]	@ float
 105 010c CDF808A0 		str	r10, [sp, #8]	@ float
 106 0110 FFF7FEFF 		bl	_Z26setThermistorConfigurationP14ThermistorConfffffff
 107 0114 2368     		ldr	r3, [r4]
 108 0116 4FF44041 		mov	r1, #49152
 109 011a C4F22851 		movt	r1, 17704
 110 011e 0722     		movs	r2, #7
 111 0120 C3F81811 		str	r1, [r3, #280]	@ float
 112 0124 C3F81422 		str	r2, [r3, #532]
 113 0128 05B0     		add	sp, sp, #20
 114              		@ sp needed
ARM GAS  C:\Users\pc\AppData\Local\Temp\ccMl2WwT.s 			page 3


 115 012a BDE8F08F 		pop	{r4, r5, r6, r7, r8, r9, r10, fp, pc}
 116              	.L3:
 117 012e 00BF     		.align	2
 118              	.L2:
 119 0130 00F0EB45 		.word	1173090304
 120              		.size	_Z35setDodgeNeon1995EngineConfigurationv, .-_Z35setDodgeNeon1995EngineConfigurationv
 121 0134 AFF30080 		.section	.text._Z34setDodgeNeonNGCEngineConfigurationv,"ax",%progbits
 121      AFF30080 
 121      AFF30080 
 122              		.align	2
 123              		.p2align 4,,15
 124              		.global	_Z34setDodgeNeonNGCEngineConfigurationv
 125              		.thumb
 126              		.thumb_func
 127              		.type	_Z34setDodgeNeonNGCEngineConfigurationv, %function
 128              	_Z34setDodgeNeonNGCEngineConfigurationv:
 129              		@ args = 0, pretend = 0, frame = 0
 130              		@ frame_needed = 0, uses_anonymous_args = 0
 131 0000 2DE9F84F 		push	{r3, r4, r5, r6, r7, r8, r9, r10, fp, lr}
 132 0004 40F20004 		movw	r4, #:lower16:engineConfiguration
 133 0008 C0F20004 		movt	r4, #:upper16:engineConfiguration
 134 000c 40F20005 		movw	r5, #:lower16:boardConfiguration
 135 0010 C0F20005 		movt	r5, #:upper16:boardConfiguration
 136 0014 2368     		ldr	r3, [r4]
 137 0016 2868     		ldr	r0, [r5]
 138 0018 0E22     		movs	r2, #14
 139 001a 40F20009 		movw	r9, #:lower16:config
 140 001e 2DED028B 		fstmfdd	sp!, {d8}
 141 0022 C0F20009 		movt	r9, #:upper16:config
 142 0026 C3F81822 		str	r2, [r3, #536]
 143 002a FFF7FEFF 		bl	_Z19setFrankenso_01_LCDP21board_configuration_s
 144 002e 2068     		ldr	r0, [r4]
 145 0030 FFF7FEFF 		bl	_Z24setFrankenso0_1_joystickP22engine_configuration_s
 146 0034 D9F80010 		ldr	r1, [r9]
 147 0038 2368     		ldr	r3, [r4]
 148 003a 4FF0000E 		mov	lr, #0
 149 003e 47F6EE42 		movw	r2, #31982
 150 0042 C4F2482E 		movt	lr, 16968
 151 0046 0026     		movs	r6, #0
 152 0048 C3F6FF72 		movt	r2, 16383
 153 004c 4FF00108 		mov	r8, #1
 154 0050 0027     		movs	r7, #0
 155 0052 4FF0040A 		mov	r10, #4
 156 0056 4FF0020B 		mov	fp, #2
 157 005a B1EE048A 		fconsts	s16, #20
 158 005e 01F52651 		add	r1, r1, #10624
 159 0062 40F20000 		movw	r0, #:lower16:.LANCHOR0
 160 0066 C3F8CCE1 		str	lr, [r3, #460]	@ float
 161 006a C3F89021 		str	r2, [r3, #400]	@ float
 162 006e C3F8AC61 		str	r6, [r3, #428]
 163 0072 C3F8B081 		str	r8, [r3, #432]
 164 0076 C3F8BCB1 		str	fp, [r3, #444]
 165 007a C3F894A1 		str	r10, [r3, #404]
 166 007e 83ED178A 		fsts	s16, [r3, #92]
 167 0082 C3F8B471 		str	r7, [r3, #436]	@ float
 168 0086 3831     		adds	r1, r1, #56
 169 0088 C0F20000 		movt	r0, #:upper16:.LANCHOR0
ARM GAS  C:\Users\pc\AppData\Local\Temp\ccMl2WwT.s 			page 4


 170 008c FFF7FEFF 		bl	_Z13copyFuelTablePA16_KfPA16_f
 171 0090 D9F80010 		ldr	r1, [r9]
 172 0094 40F20000 		movw	r0, #:lower16:.LANCHOR1
 173 0098 01F53851 		add	r1, r1, #11776
 174 009c 3831     		adds	r1, r1, #56
 175 009e C0F20000 		movt	r0, #:upper16:.LANCHOR1
 176 00a2 FFF7FEFF 		bl	_Z15copyTimingTablePA16_KfPA16_f
 177 00a6 D9F80010 		ldr	r1, [r9]
 178 00aa 40F20000 		movw	r0, #:lower16:.LANCHOR2
 179 00ae 01F54A51 		add	r1, r1, #12928
 180 00b2 3831     		adds	r1, r1, #56
 181 00b4 C0F20000 		movt	r0, #:upper16:.LANCHOR2
 182 00b8 FFF7FEFF 		bl	_Z13copyFuelTablePA16_KfPA16_f
 183 00bc 4FF00009 		mov	r9, #0
 184 00c0 2368     		ldr	r3, [r4]
 185 00c2 0020     		movs	r0, #0
 186 00c4 4FF40041 		mov	r1, #32768
 187 00c8 0022     		movs	r2, #0
 188 00ca C4F24732 		movt	r2, 17223
 189 00ce C4F2C829 		movt	r9, 17096
 190 00d2 C4F28C20 		movt	r0, 17036
 191 00d6 CCF23141 		movt	r1, 50225
 192 00da C3F8A881 		str	r8, [r3, #424]
 193 00de D866     		str	r0, [r3, #108]	@ float
 194 00e0 C3F8B811 		str	r1, [r3, #440]	@ float
 195 00e4 9A60     		str	r2, [r3, #8]	@ float
 196 00e6 4946     		mov	r1, r9	@ float
 197 00e8 3846     		mov	r0, r7	@ float
 198 00ea FFF7FEFF 		bl	_Z14setFuelLoadBinff
 199 00ee 4946     		mov	r1, r9	@ float
 200 00f0 3846     		mov	r0, r7	@ float
 201 00f2 FFF7FEFF 		bl	_Z16setTimingLoadBinff
 202 00f6 2268     		ldr	r2, [r4]
 203 00f8 2B68     		ldr	r3, [r5]
 204 00fa 4FF05009 		mov	r9, #80
 205 00fe C3F88890 		str	r9, [r3, #136]
 206 0102 1046     		mov	r0, r2
 207 0104 C2F848A2 		str	r10, [r2, #584]
 208 0108 FFF7FEFF 		bl	_Z27commonFrankensoAnalogInputsP22engine_configuration_s
 209 010c 2B68     		ldr	r3, [r5]
 210 010e 2068     		ldr	r0, [r4]
 211 0110 4CF2CE72 		movw	r2, #51150
 212 0114 C4F22012 		movt	r2, 16672
 213 0118 4FF0370E 		mov	lr, #55
 214 011c C0F8D421 		str	r2, [r0, #468]	@ float
 215 0120 1821     		movs	r1, #24
 216 0122 C3F890E0 		str	lr, [r3, #144]
 217 0126 1922     		movs	r2, #25
 218 0128 4FF0420C 		mov	ip, #66
 219 012c 4FF0170E 		mov	lr, #23
 220 0130 1962     		str	r1, [r3, #32]
 221 0132 5A62     		str	r2, [r3, #36]
 222 0134 C3F828C0 		str	ip, [r3, #40]
 223 0138 C3F82CE0 		str	lr, [r3, #44]
 224 013c 2921     		movs	r1, #41
 225 013e 4822     		movs	r2, #72
 226 0140 4FF0460C 		mov	ip, #70
ARM GAS  C:\Users\pc\AppData\Local\Temp\ccMl2WwT.s 			page 5


 227 0144 4FF02D0E 		mov	lr, #45
 228 0148 5965     		str	r1, [r3, #84]
 229 014a DA65     		str	r2, [r3, #92]
 230 014c 4FF49671 		mov	r1, #300
 231 0150 4322     		movs	r2, #67
 232 0152 C3F834C1 		str	ip, [r3, #308]
 233 0156 C3F800E0 		str	lr, [r3]
 234 015a 4FF0050C 		mov	ip, #5
 235 015e 4FF0260E 		mov	lr, #38
 236 0162 C3F85890 		str	r9, [r3, #88]
 237 0166 C3F86090 		str	r9, [r3, #96]
 238 016a DE61     		str	r6, [r3, #28]
 239 016c 9960     		str	r1, [r3, #8]
 240 016e 9A61     		str	r2, [r3, #24]
 241 0170 C3F828C1 		str	ip, [r3, #296]
 242 0174 C3F82CE1 		str	lr, [r3, #300]
 243 0178 00F58070 		add	r0, r0, #256
 244 017c FFF7FEFF 		bl	_Z14setDodgeSensorP14ThermistorConf
 245 0180 4FF48049 		mov	r9, #16384
 246 0184 2068     		ldr	r0, [r4]
 247 0186 C4F21C69 		movt	r9, 17948
 248 018a C0F81891 		str	r9, [r0, #280]	@ float
 249 018e 00F59070 		add	r0, r0, #288
 250 0192 FFF7FEFF 		bl	_Z14setDodgeSensorP14ThermistorConf
 251 0196 2368     		ldr	r3, [r4]
 252 0198 2A68     		ldr	r2, [r5]
 253 019a C3F83891 		str	r9, [r3, #312]	@ float
 254 019e 0621     		movs	r1, #6
 255 01a0 C3F8FC10 		str	r1, [r3, #252]
 256 01a4 4FF00F0C 		mov	ip, #15
 257 01a8 4FF07D0E 		mov	lr, #125
 258 01ac 40F27120 		movw	r0, #625
 259 01b0 4FF00C09 		mov	r9, #12
 260 01b4 0B21     		movs	r1, #11
 261 01b6 C3F80CC2 		str	ip, [r3, #524]
 262 01ba A3F852E0 		strh	lr, [r3, #82]	@ movhi
 263 01be A3F85400 		strh	r0, [r3, #84]	@ movhi
 264 01c2 C3F83C11 		str	r1, [r3, #316]
 265 01c6 C3F81C91 		str	r9, [r3, #284]
 266 01ca 92F88011 		ldrb	r1, [r2, #384]	@ zero_extendqisi2
 267 01ce C2F810B3 		str	fp, [r2, #784]
 268 01d2 41F01001 		orr	r1, r1, #16
 269 01d6 82F88011 		strb	r1, [r2, #384]
 270 01da C3F8F8A0 		str	r10, [r3, #248]
 271 01de FFF7FEFF 		bl	_Z25setHip9011FrankensoPinoutv
 272 01e2 2268     		ldr	r2, [r4]
 273 01e4 2B68     		ldr	r3, [r5]
 274 01e6 4FF0000A 		mov	r10, #0
 275 01ea 02F20451 		addw	r1, r2, #1284
 276 01ee C4F2AF2A 		movt	r10, 17071
 277 01f2 4CF6CD4C 		movw	ip, #52429
 278 01f6 4CF6CD4E 		movw	lr, #52429
 279 01fa C2F89CA1 		str	r10, [r2, #412]	@ float
 280 01fe C3F64C6C 		movt	ip, 15948
 281 0202 C3F60C7E 		movt	lr, 16140
 282 0206 3320     		movs	r0, #51
 283 0208 40F20002 		movw	r2, #:lower16:.LC0
ARM GAS  C:\Users\pc\AppData\Local\Temp\ccMl2WwT.s 			page 6


 284 020c C3F8A480 		str	r8, [r3, #164]
 285 0210 C3F82083 		str	r8, [r3, #800]
 286 0214 C3F81C03 		str	r0, [r3, #796]
 287 0218 C0F20002 		movt	r2, #:upper16:.LC0
 288 021c C1F800C0 		str	ip, [r1]	@ float
 289 0220 3046     		mov	r0, r6
 290 0222 C3F894E2 		str	lr, [r3, #660]	@ float
 291 0226 4521     		movs	r1, #69
 292 0228 4FF4C873 		mov	r3, #400
 293 022c FFF7FEFF 		bl	_Z10setFsioExti11brain_pin_ePKci
 294 0230 2A68     		ldr	r2, [r5]
 295 0232 2368     		ldr	r3, [r4]
 296 0234 0821     		movs	r1, #8
 297 0236 C2F81813 		str	r1, [r2, #792]
 298 023a 93F8D905 		ldrb	r0, [r3, #1497]	@ zero_extendqisi2
 299 023e 4FF0000B 		mov	fp, #0
 300 0242 4FF0000A 		mov	r10, #0
 301 0246 40F00400 		orr	r0, r0, #4
 302 024a 4FF49641 		mov	r1, #19200
 303 024e 03F67C04 		addw	r4, r3, #2172
 304 0252 C4F2AA2B 		movt	fp, 17066
 305 0256 C4F2A02A 		movt	r10, 17056
 306 025a 4FF00008 		mov	r8, #0
 307 025e 83F8D905 		strb	r0, [r3, #1497]
 308 0262 C3F8DCB1 		str	fp, [r3, #476]	@ float
 309 0266 C3F8E0A1 		str	r10, [r3, #480]	@ float
 310 026a 4FF0030C 		mov	ip, #3
 311 026e C2F84C11 		str	r1, [r2, #332]
 312 0272 3525     		movs	r5, #53
 313 0274 1620     		movs	r0, #22
 314 0276 1C21     		movs	r1, #28
 315 0278 C4F2B018 		movt	r8, 16816
 316 027c C3F8A8C1 		str	ip, [r3, #424]
 317 0280 C2F8A850 		str	r5, [r2, #168]
 318 0284 C4F80080 		str	r8, [r4]	@ float
 319 0288 C2F85801 		str	r0, [r2, #344]
 320 028c C2F85C11 		str	r1, [r2, #348]
 321 0290 93F8D925 		ldrb	r2, [r3, #1497]	@ zero_extendqisi2
 322 0294 C3F8EC61 		str	r6, [r3, #492]
 323 0298 42F00202 		orr	r2, r2, #2
 324 029c 66F30002 		bfi	r2, r6, #0, #1
 325 02a0 83F8D925 		strb	r2, [r3, #1497]
 326 02a4 03F50A65 		add	r5, r3, #2208
 327 02a8 C3F89498 		str	r9, [r3, #2196]
 328 02ac 85ED008A 		fsts	s16, [r5]
 329 02b0 BDEC028B 		fldmfdd	sp!, {d8}
 330 02b4 49F69A1C 		movw	ip, #39322
 331 02b8 03F6A404 		addw	r4, r3, #2212
 332 02bc 03F68C00 		addw	r0, r3, #2188
 333 02c0 03F50961 		add	r1, r3, #2192
 334 02c4 0026     		movs	r6, #0
 335 02c6 C3F6196C 		movt	ip, 15897
 336 02ca C4F22016 		movt	r6, 16672
 337 02ce 2760     		str	r7, [r4]	@ float
 338 02d0 C3F88898 		str	r9, [r3, #2184]
 339 02d4 0660     		str	r6, [r0]	@ float
 340 02d6 C1F800C0 		str	ip, [r1]	@ float
ARM GAS  C:\Users\pc\AppData\Local\Temp\ccMl2WwT.s 			page 7


 341 02da BDE8F88F 		pop	{r3, r4, r5, r6, r7, r8, r9, r10, fp, pc}
 342              		.size	_Z34setDodgeNeonNGCEngineConfigurationv, .-_Z34setDodgeNeonNGCEngineConfigurationv
 343 02de 00BF     		.section	.rodata._ZL14veDefaultTable,"a",%progbits
 344              		.align	2
 345              		.set	.LANCHOR2,. + 0
 346              		.type	_ZL14veDefaultTable, %object
 347              		.size	_ZL14veDefaultTable, 1024
 348              	_ZL14veDefaultTable:
 349 0000 00008242 		.word	1115815936
 350 0004 00008242 		.word	1115815936
 351 0008 7F2A8F42 		.word	1116678783
 352 000c 7FEAA342 		.word	1118038655
 353 0010 AC5C9142 		.word	1116822700
 354 0014 CF777C42 		.word	1115453391
 355 0018 7FEAA142 		.word	1117907583
 356 001c 4676B842 		.word	1119385158
 357 0020 EEFCA942 		.word	1118436590
 358 0024 BAC99E42 		.word	1117702586
 359 0028 2DF2A842 		.word	1118368301
 360 002c 83009F42 		.word	1117716611
 361 0030 12838442 		.word	1115980562
 362 0034 00008242 		.word	1115815936
 363 0038 00008242 		.word	1115815936
 364 003c 00008242 		.word	1115815936
 365 0040 00008242 		.word	1115815936
 366 0044 54A38842 		.word	1116250964
 367 0048 CB218C42 		.word	1116479947
 368 004c 8F029942 		.word	1117323919
 369 0050 2F5D8D42 		.word	1116560687
 370 0054 81157742 		.word	1115100545
 371 0058 3FB58A42 		.word	1116386623
 372 005c 89419942 		.word	1117340041
 373 0060 12C39542 		.word	1117111058
 374 0064 52F88B42 		.word	1116469330
 375 0068 0C428642 		.word	1116094988
 376 006c 00008242 		.word	1115815936
 377 0070 27317E42 		.word	1115566375
 378 0074 504D8042 		.word	1115704656
 379 0078 00008242 		.word	1115815936
 380 007c 00008242 		.word	1115815936
 381 0080 17597D42 		.word	1115511063
 382 0084 62907C42 		.word	1115459682
 383 0088 E9A67942 		.word	1115268841
 384 008c 0EED8642 		.word	1116138766
 385 0090 F4FD8742 		.word	1116208628
 386 0094 B4C88142 		.word	1115801780
 387 0098 52789342 		.word	1116960850
 388 009c BC348E42 		.word	1116615868
 389 00a0 23DB8D42 		.word	1116592931
 390 00a4 3D4A8B42 		.word	1116424765
 391 00a8 5A648542 		.word	1116038234
 392 00ac 00008242 		.word	1115815936
 393 00b0 00008242 		.word	1115815936
 394 00b4 00008242 		.word	1115815936
 395 00b8 00008242 		.word	1115815936
 396 00bc 00008242 		.word	1115815936
 397 00c0 46F68142 		.word	1115813446
ARM GAS  C:\Users\pc\AppData\Local\Temp\ccMl2WwT.s 			page 8


 398 00c4 D1227A42 		.word	1115300561
 399 00c8 66668042 		.word	1115711078
 400 00cc A8868042 		.word	1115719336
 401 00d0 42608642 		.word	1116102722
 402 00d4 F0678242 		.word	1115842544
 403 00d8 BA499442 		.word	1117014458
 404 00dc DD648942 		.word	1116300509
 405 00e0 81158742 		.word	1116149121
 406 00e4 773E8042 		.word	1115700855
 407 00e8 00008242 		.word	1115815936
 408 00ec 00008242 		.word	1115815936
 409 00f0 00008242 		.word	1115815936
 410 00f4 00008242 		.word	1115815936
 411 00f8 00008242 		.word	1115815936
 412 00fc 00008242 		.word	1115815936
 413 0100 79E99E42 		.word	1117710713
 414 0104 6F528842 		.word	1116230255
 415 0108 7D7F8342 		.word	1115914109
 416 010c 44CB8342 		.word	1115933508
 417 0110 3F758342 		.word	1115911487
 418 0114 7B147C42 		.word	1115427963
 419 0118 A6DB8C42 		.word	1116527526
 420 011c 8BAC8842 		.word	1116253323
 421 0120 96438342 		.word	1115898774
 422 0124 6F528442 		.word	1115968111
 423 0128 9CC48342 		.word	1115931804
 424 012c 00008242 		.word	1115815936
 425 0130 00008242 		.word	1115815936
 426 0134 00008242 		.word	1115815936
 427 0138 00008242 		.word	1115815936
 428 013c 00008242 		.word	1115815936
 429 0140 AC9C9342 		.word	1116970156
 430 0144 9EAF8B42 		.word	1116450718
 431 0148 F8538942 		.word	1116296184
 432 014c 2B478742 		.word	1116161835
 433 0150 C5E08342 		.word	1115939013
 434 0154 42A08042 		.word	1115725890
 435 0158 68118742 		.word	1116148072
 436 015c A2458642 		.word	1116095906
 437 0160 4E228442 		.word	1115955790
 438 0164 00008242 		.word	1115815936
 439 0168 93588642 		.word	1116100755
 440 016c 87D68742 		.word	1116198535
 441 0170 00008242 		.word	1115815936
 442 0174 00008242 		.word	1115815936
 443 0178 00008242 		.word	1115815936
 444 017c 00008242 		.word	1115815936
 445 0180 3D8A9742 		.word	1117227581
 446 0184 19C49642 		.word	1117176857
 447 0188 F4FD8642 		.word	1116143092
 448 018c E3658142 		.word	1115776483
 449 0190 19848442 		.word	1115980825
 450 0194 0A178242 		.word	1115821834
 451 0198 00C08642 		.word	1116127232
 452 019c 25C68542 		.word	1116063269
 453 01a0 A8468742 		.word	1116161704
 454 01a4 66E68342 		.word	1115940454
ARM GAS  C:\Users\pc\AppData\Local\Temp\ccMl2WwT.s 			page 9


 455 01a8 81958742 		.word	1116181889
 456 01ac FE548742 		.word	1116165374
 457 01b0 00008242 		.word	1115815936
 458 01b4 00008242 		.word	1115815936
 459 01b8 00008242 		.word	1115815936
 460 01bc 00008242 		.word	1115815936
 461 01c0 3BDF9642 		.word	1117183803
 462 01c4 42209542 		.word	1117069378
 463 01c8 E17A8A42 		.word	1116371681
 464 01cc 8D178342 		.word	1115887501
 465 01d0 A8068642 		.word	1116079784
 466 01d4 B25D8342 		.word	1115905458
 467 01d8 4E628442 		.word	1115972174
 468 01dc F8538742 		.word	1116165112
 469 01e0 31C88A42 		.word	1116391473
 470 01e4 06018642 		.word	1116078342
 471 01e8 1B2F8942 		.word	1116286747
 472 01ec 7B148542 		.word	1116017787
 473 01f0 3F758342 		.word	1115911487
 474 01f4 00008242 		.word	1115815936
 475 01f8 00008242 		.word	1115815936
 476 01fc 00008242 		.word	1115815936
 477 0200 7F2A9542 		.word	1117071999
 478 0204 F2129342 		.word	1116934898
 479 0208 CF778942 		.word	1116305359
 480 020c 71FD8742 		.word	1116208497
 481 0210 231B8A42 		.word	1116347171
 482 0214 E77B8442 		.word	1115978727
 483 0218 42A08642 		.word	1116119106
 484 021c FA3E8D42 		.word	1116552954
 485 0220 17998E42 		.word	1116641559
 486 0224 F47D8C42 		.word	1116503540
 487 0228 C5608B42 		.word	1116430533
 488 022c 7F6A8542 		.word	1116039807
 489 0230 D90E8342 		.word	1115885273
 490 0234 00008242 		.word	1115815936
 491 0238 00008242 		.word	1115815936
 492 023c 00008242 		.word	1115815936
 493 0240 C70B8942 		.word	1116277703
 494 0244 AEC78E42 		.word	1116653486
 495 0248 17998542 		.word	1116051735
 496 024c 2F5D8842 		.word	1116233007
 497 0250 46368E42 		.word	1116616262
 498 0254 CFF78842 		.word	1116272591
 499 0258 DDA48442 		.word	1115989213
 500 025c B85E8A42 		.word	1116364472
 501 0260 F4BD8C42 		.word	1116519924
 502 0264 1F858A42 		.word	1116374303
 503 0268 B6338842 		.word	1116222390
 504 026c D7A38742 		.word	1116185559
 505 0270 1DDA8042 		.word	1115740701
 506 0274 BA497A42 		.word	1115310522
 507 0278 00008242 		.word	1115815936
 508 027c 00008242 		.word	1115815936
 509 0280 00008242 		.word	1115815936
 510 0284 00008242 		.word	1115815936
 511 0288 00008242 		.word	1115815936
ARM GAS  C:\Users\pc\AppData\Local\Temp\ccMl2WwT.s 			page 10


 512 028c 00008242 		.word	1115815936
 513 0290 00008242 		.word	1115815936
 514 0294 00008242 		.word	1115815936
 515 0298 00008242 		.word	1115815936
 516 029c 0E2D8342 		.word	1115893006
 517 02a0 E5108342 		.word	1115885797
 518 02a4 00008242 		.word	1115815936
 519 02a8 A61B8042 		.word	1115691942
 520 02ac 00008242 		.word	1115815936
 521 02b0 00008242 		.word	1115815936
 522 02b4 93D88042 		.word	1115740307
 523 02b8 00008242 		.word	1115815936
 524 02bc 00008242 		.word	1115815936
 525 02c0 00008242 		.word	1115815936
 526 02c4 00008242 		.word	1115815936
 527 02c8 00008242 		.word	1115815936
 528 02cc 00008242 		.word	1115815936
 529 02d0 00008242 		.word	1115815936
 530 02d4 00008242 		.word	1115815936
 531 02d8 00008242 		.word	1115815936
 532 02dc 00008242 		.word	1115815936
 533 02e0 00008242 		.word	1115815936
 534 02e4 00008242 		.word	1115815936
 535 02e8 00008242 		.word	1115815936
 536 02ec 00008242 		.word	1115815936
 537 02f0 00008242 		.word	1115815936
 538 02f4 00008242 		.word	1115815936
 539 02f8 00008242 		.word	1115815936
 540 02fc 00008242 		.word	1115815936
 541 0300 00008242 		.word	1115815936
 542 0304 00008242 		.word	1115815936
 543 0308 00008242 		.word	1115815936
 544 030c 00008242 		.word	1115815936
 545 0310 00008242 		.word	1115815936
 546 0314 00008242 		.word	1115815936
 547 0318 00008242 		.word	1115815936
 548 031c 00008242 		.word	1115815936
 549 0320 00008242 		.word	1115815936
 550 0324 00008242 		.word	1115815936
 551 0328 00008242 		.word	1115815936
 552 032c 00008242 		.word	1115815936
 553 0330 00008242 		.word	1115815936
 554 0334 00008242 		.word	1115815936
 555 0338 00008242 		.word	1115815936
 556 033c 00008242 		.word	1115815936
 557 0340 00008242 		.word	1115815936
 558 0344 00008242 		.word	1115815936
 559 0348 00008242 		.word	1115815936
 560 034c 00008242 		.word	1115815936
 561 0350 00008242 		.word	1115815936
 562 0354 00008242 		.word	1115815936
 563 0358 00008242 		.word	1115815936
 564 035c 00008242 		.word	1115815936
 565 0360 00008242 		.word	1115815936
 566 0364 00008242 		.word	1115815936
 567 0368 00008242 		.word	1115815936
 568 036c 00008242 		.word	1115815936
ARM GAS  C:\Users\pc\AppData\Local\Temp\ccMl2WwT.s 			page 11


 569 0370 00008242 		.word	1115815936
 570 0374 00008242 		.word	1115815936
 571 0378 00008242 		.word	1115815936
 572 037c 00008242 		.word	1115815936
 573 0380 00008242 		.word	1115815936
 574 0384 00008242 		.word	1115815936
 575 0388 00008242 		.word	1115815936
 576 038c 00008242 		.word	1115815936
 577 0390 00008242 		.word	1115815936
 578 0394 00008242 		.word	1115815936
 579 0398 00008242 		.word	1115815936
 580 039c 00008242 		.word	1115815936
 581 03a0 00008242 		.word	1115815936
 582 03a4 00008242 		.word	1115815936
 583 03a8 00008242 		.word	1115815936
 584 03ac 00008242 		.word	1115815936
 585 03b0 00008242 		.word	1115815936
 586 03b4 00008242 		.word	1115815936
 587 03b8 00008242 		.word	1115815936
 588 03bc 00008242 		.word	1115815936
 589 03c0 00008242 		.word	1115815936
 590 03c4 00008242 		.word	1115815936
 591 03c8 00008242 		.word	1115815936
 592 03cc 00008242 		.word	1115815936
 593 03d0 00008242 		.word	1115815936
 594 03d4 00008242 		.word	1115815936
 595 03d8 00008242 		.word	1115815936
 596 03dc 00008242 		.word	1115815936
 597 03e0 00008242 		.word	1115815936
 598 03e4 00008242 		.word	1115815936
 599 03e8 00008242 		.word	1115815936
 600 03ec 00008242 		.word	1115815936
 601 03f0 00008242 		.word	1115815936
 602 03f4 00008242 		.word	1115815936
 603 03f8 00008242 		.word	1115815936
 604 03fc 00008242 		.word	1115815936
 605              		.section	.rodata.str1.4,"aMS",%progbits,1
 606              		.align	2
 607              	.LC0:
 608 0000 30206673 		.ascii	"0 fsio_setting\000"
 608      696F5F73 
 608      65747469 
 608      6E6700
 609 000f 00       		.section	.rodata._ZL10alphaNfuel,"a",%progbits
 610              		.align	2
 611              		.set	.LANCHOR0,. + 0
 612              		.type	_ZL10alphaNfuel, %object
 613              		.size	_ZL10alphaNfuel, 1024
 614              	_ZL10alphaNfuel:
 615 0000 CDCC6C40 		.word	1080872141
 616 0004 66666640 		.word	1080452710
 617 0008 66666640 		.word	1080452710
 618 000c 00008040 		.word	1082130432
 619 0010 00008040 		.word	1082130432
 620 0014 00008040 		.word	1082130432
 621 0018 0000C040 		.word	1086324736
 622 001c 00004041 		.word	1094713344
ARM GAS  C:\Users\pc\AppData\Local\Temp\ccMl2WwT.s 			page 12


 623 0020 00004041 		.word	1094713344
 624 0024 00004041 		.word	1094713344
 625 0028 00004041 		.word	1094713344
 626 002c 00004041 		.word	1094713344
 627 0030 00004041 		.word	1094713344
 628 0034 00004041 		.word	1094713344
 629 0038 00004041 		.word	1094713344
 630 003c 00004041 		.word	1094713344
 631 0040 00008040 		.word	1082130432
 632 0044 00008040 		.word	1082130432
 633 0048 00008040 		.word	1082130432
 634 004c 0000A040 		.word	1084227584
 635 0050 00009040 		.word	1083179008
 636 0054 00009040 		.word	1083179008
 637 0058 0000A040 		.word	1084227584
 638 005c 00004041 		.word	1094713344
 639 0060 00004041 		.word	1094713344
 640 0064 00004041 		.word	1094713344
 641 0068 00004041 		.word	1094713344
 642 006c 00004041 		.word	1094713344
 643 0070 00004041 		.word	1094713344
 644 0074 00004041 		.word	1094713344
 645 0078 00004041 		.word	1094713344
 646 007c 00004041 		.word	1094713344
 647 0080 0000A040 		.word	1084227584
 648 0084 0000A040 		.word	1084227584
 649 0088 0000C040 		.word	1086324736
 650 008c 0000E040 		.word	1088421888
 651 0090 00009040 		.word	1083179008
 652 0094 00004041 		.word	1094713344
 653 0098 00004041 		.word	1094713344
 654 009c 00004041 		.word	1094713344
 655 00a0 00004041 		.word	1094713344
 656 00a4 00004041 		.word	1094713344
 657 00a8 00004041 		.word	1094713344
 658 00ac 00004041 		.word	1094713344
 659 00b0 00004041 		.word	1094713344
 660 00b4 00004041 		.word	1094713344
 661 00b8 00004041 		.word	1094713344
 662 00bc 00004041 		.word	1094713344
 663 00c0 0000C040 		.word	1086324736
 664 00c4 0000E040 		.word	1088421888
 665 00c8 0000E040 		.word	1088421888
 666 00cc 0000E040 		.word	1088421888
 667 00d0 0000A040 		.word	1084227584
 668 00d4 00004041 		.word	1094713344
 669 00d8 00004041 		.word	1094713344
 670 00dc 00004041 		.word	1094713344
 671 00e0 00004041 		.word	1094713344
 672 00e4 00004041 		.word	1094713344
 673 00e8 00004041 		.word	1094713344
 674 00ec 00004041 		.word	1094713344
 675 00f0 00004041 		.word	1094713344
 676 00f4 00004041 		.word	1094713344
 677 00f8 00004041 		.word	1094713344
 678 00fc 00004041 		.word	1094713344
 679 0100 0000E040 		.word	1088421888
ARM GAS  C:\Users\pc\AppData\Local\Temp\ccMl2WwT.s 			page 13


 680 0104 00000041 		.word	1090519040
 681 0108 00000041 		.word	1090519040
 682 010c 00000041 		.word	1090519040
 683 0110 00004041 		.word	1094713344
 684 0114 00004041 		.word	1094713344
 685 0118 00004041 		.word	1094713344
 686 011c 00004041 		.word	1094713344
 687 0120 00004041 		.word	1094713344
 688 0124 00004041 		.word	1094713344
 689 0128 00004041 		.word	1094713344
 690 012c 00004041 		.word	1094713344
 691 0130 00004041 		.word	1094713344
 692 0134 00004041 		.word	1094713344
 693 0138 00004041 		.word	1094713344
 694 013c 00004041 		.word	1094713344
 695 0140 00004041 		.word	1094713344
 696 0144 00004041 		.word	1094713344
 697 0148 00004041 		.word	1094713344
 698 014c 00004041 		.word	1094713344
 699 0150 00004041 		.word	1094713344
 700 0154 00004041 		.word	1094713344
 701 0158 00004041 		.word	1094713344
 702 015c 00004041 		.word	1094713344
 703 0160 00004041 		.word	1094713344
 704 0164 00004041 		.word	1094713344
 705 0168 00004041 		.word	1094713344
 706 016c 00004041 		.word	1094713344
 707 0170 00004041 		.word	1094713344
 708 0174 00004041 		.word	1094713344
 709 0178 00004041 		.word	1094713344
 710 017c 00004041 		.word	1094713344
 711 0180 00004041 		.word	1094713344
 712 0184 00004041 		.word	1094713344
 713 0188 00004041 		.word	1094713344
 714 018c 00004041 		.word	1094713344
 715 0190 00004041 		.word	1094713344
 716 0194 00004041 		.word	1094713344
 717 0198 00004041 		.word	1094713344
 718 019c 00004041 		.word	1094713344
 719 01a0 00004041 		.word	1094713344
 720 01a4 00004041 		.word	1094713344
 721 01a8 00004041 		.word	1094713344
 722 01ac 00004041 		.word	1094713344
 723 01b0 00004041 		.word	1094713344
 724 01b4 00004041 		.word	1094713344
 725 01b8 00004041 		.word	1094713344
 726 01bc 00004041 		.word	1094713344
 727 01c0 00004041 		.word	1094713344
 728 01c4 00004041 		.word	1094713344
 729 01c8 00004041 		.word	1094713344
 730 01cc 00004041 		.word	1094713344
 731 01d0 00004041 		.word	1094713344
 732 01d4 00004041 		.word	1094713344
 733 01d8 00004041 		.word	1094713344
 734 01dc 00004041 		.word	1094713344
 735 01e0 00004041 		.word	1094713344
 736 01e4 00004041 		.word	1094713344
ARM GAS  C:\Users\pc\AppData\Local\Temp\ccMl2WwT.s 			page 14


 737 01e8 00004041 		.word	1094713344
 738 01ec 00004041 		.word	1094713344
 739 01f0 00004041 		.word	1094713344
 740 01f4 00004041 		.word	1094713344
 741 01f8 00004041 		.word	1094713344
 742 01fc 00004041 		.word	1094713344
 743 0200 00004041 		.word	1094713344
 744 0204 00004041 		.word	1094713344
 745 0208 00004041 		.word	1094713344
 746 020c 00004041 		.word	1094713344
 747 0210 00004041 		.word	1094713344
 748 0214 00004041 		.word	1094713344
 749 0218 00004041 		.word	1094713344
 750 021c 00004041 		.word	1094713344
 751 0220 00004041 		.word	1094713344
 752 0224 00004041 		.word	1094713344
 753 0228 00004041 		.word	1094713344
 754 022c 00004041 		.word	1094713344
 755 0230 00004041 		.word	1094713344
 756 0234 00004041 		.word	1094713344
 757 0238 00004041 		.word	1094713344
 758 023c 00004041 		.word	1094713344
 759 0240 00004041 		.word	1094713344
 760 0244 00004041 		.word	1094713344
 761 0248 00004041 		.word	1094713344
 762 024c 00004041 		.word	1094713344
 763 0250 00004041 		.word	1094713344
 764 0254 00004041 		.word	1094713344
 765 0258 00004041 		.word	1094713344
 766 025c 00004041 		.word	1094713344
 767 0260 00004041 		.word	1094713344
 768 0264 00004041 		.word	1094713344
 769 0268 00004041 		.word	1094713344
 770 026c 00004041 		.word	1094713344
 771 0270 00004041 		.word	1094713344
 772 0274 00004041 		.word	1094713344
 773 0278 00004041 		.word	1094713344
 774 027c 00004041 		.word	1094713344
 775 0280 00004041 		.word	1094713344
 776 0284 00004041 		.word	1094713344
 777 0288 00004041 		.word	1094713344
 778 028c 00004041 		.word	1094713344
 779 0290 00004041 		.word	1094713344
 780 0294 00004041 		.word	1094713344
 781 0298 00004041 		.word	1094713344
 782 029c 00004041 		.word	1094713344
 783 02a0 00004041 		.word	1094713344
 784 02a4 00004041 		.word	1094713344
 785 02a8 00004041 		.word	1094713344
 786 02ac 00004041 		.word	1094713344
 787 02b0 00004041 		.word	1094713344
 788 02b4 00004041 		.word	1094713344
 789 02b8 00004041 		.word	1094713344
 790 02bc 00004041 		.word	1094713344
 791 02c0 00004041 		.word	1094713344
 792 02c4 00004041 		.word	1094713344
 793 02c8 00004041 		.word	1094713344
ARM GAS  C:\Users\pc\AppData\Local\Temp\ccMl2WwT.s 			page 15


 794 02cc 00004041 		.word	1094713344
 795 02d0 00004041 		.word	1094713344
 796 02d4 00004041 		.word	1094713344
 797 02d8 00004041 		.word	1094713344
 798 02dc 00004041 		.word	1094713344
 799 02e0 00004041 		.word	1094713344
 800 02e4 00004041 		.word	1094713344
 801 02e8 00004041 		.word	1094713344
 802 02ec 00004041 		.word	1094713344
 803 02f0 00004041 		.word	1094713344
 804 02f4 00004041 		.word	1094713344
 805 02f8 00004041 		.word	1094713344
 806 02fc 00004041 		.word	1094713344
 807 0300 00004041 		.word	1094713344
 808 0304 00004041 		.word	1094713344
 809 0308 00004041 		.word	1094713344
 810 030c 00004041 		.word	1094713344
 811 0310 00004041 		.word	1094713344
 812 0314 00004041 		.word	1094713344
 813 0318 00004041 		.word	1094713344
 814 031c 00004041 		.word	1094713344
 815 0320 00004041 		.word	1094713344
 816 0324 00004041 		.word	1094713344
 817 0328 00004041 		.word	1094713344
 818 032c 00004041 		.word	1094713344
 819 0330 00004041 		.word	1094713344
 820 0334 00004041 		.word	1094713344
 821 0338 00004041 		.word	1094713344
 822 033c 00004041 		.word	1094713344
 823 0340 00004041 		.word	1094713344
 824 0344 00004041 		.word	1094713344
 825 0348 00004041 		.word	1094713344
 826 034c 00004041 		.word	1094713344
 827 0350 00004041 		.word	1094713344
 828 0354 00004041 		.word	1094713344
 829 0358 00004041 		.word	1094713344
 830 035c 00004041 		.word	1094713344
 831 0360 00004041 		.word	1094713344
 832 0364 00004041 		.word	1094713344
 833 0368 00004041 		.word	1094713344
 834 036c 00004041 		.word	1094713344
 835 0370 00004041 		.word	1094713344
 836 0374 00004041 		.word	1094713344
 837 0378 00004041 		.word	1094713344
 838 037c 00004041 		.word	1094713344
 839 0380 00004041 		.word	1094713344
 840 0384 00004041 		.word	1094713344
 841 0388 00004041 		.word	1094713344
 842 038c 00004041 		.word	1094713344
 843 0390 00004041 		.word	1094713344
 844 0394 00004041 		.word	1094713344
 845 0398 00004041 		.word	1094713344
 846 039c 00004041 		.word	1094713344
 847 03a0 00004041 		.word	1094713344
 848 03a4 00004041 		.word	1094713344
 849 03a8 00004041 		.word	1094713344
 850 03ac 00004041 		.word	1094713344
ARM GAS  C:\Users\pc\AppData\Local\Temp\ccMl2WwT.s 			page 16


 851 03b0 00004041 		.word	1094713344
 852 03b4 00004041 		.word	1094713344
 853 03b8 00004041 		.word	1094713344
 854 03bc 00004041 		.word	1094713344
 855 03c0 00004041 		.word	1094713344
 856 03c4 00004041 		.word	1094713344
 857 03c8 00004041 		.word	1094713344
 858 03cc 00004041 		.word	1094713344
 859 03d0 00004041 		.word	1094713344
 860 03d4 00004041 		.word	1094713344
 861 03d8 00004041 		.word	1094713344
 862 03dc 00004041 		.word	1094713344
 863 03e0 00004041 		.word	1094713344
 864 03e4 00004041 		.word	1094713344
 865 03e8 00004041 		.word	1094713344
 866 03ec 00004041 		.word	1094713344
 867 03f0 00004041 		.word	1094713344
 868 03f4 00004041 		.word	1094713344
 869 03f8 00004041 		.word	1094713344
 870 03fc 00004041 		.word	1094713344
 871              		.section	.rodata._ZL8fromDyno,"a",%progbits
 872              		.align	2
 873              		.set	.LANCHOR1,. + 0
 874              		.type	_ZL8fromDyno, %object
 875              		.size	_ZL8fromDyno, 1024
 876              	_ZL8fromDyno:
 877 0000 00004041 		.word	1094713344
 878 0004 00004041 		.word	1094713344
 879 0008 00004041 		.word	1094713344
 880 000c 0000D041 		.word	1104150528
 881 0010 0000E841 		.word	1105723392
 882 0014 0000F841 		.word	1106771968
 883 0018 0000F841 		.word	1106771968
 884 001c 00001842 		.word	1108869120
 885 0020 00002042 		.word	1109393408
 886 0024 00002042 		.word	1109393408
 887 0028 00002042 		.word	1109393408
 888 002c 00002842 		.word	1109917696
 889 0030 00002842 		.word	1109917696
 890 0034 00002842 		.word	1109917696
 891 0038 00002842 		.word	1109917696
 892 003c 00002842 		.word	1109917696
 893 0040 00004041 		.word	1094713344
 894 0044 00004041 		.word	1094713344
 895 0048 00004041 		.word	1094713344
 896 004c 0000D041 		.word	1104150528
 897 0050 0000E841 		.word	1105723392
 898 0054 0000F841 		.word	1106771968
 899 0058 0000F841 		.word	1106771968
 900 005c 00001842 		.word	1108869120
 901 0060 00002042 		.word	1109393408
 902 0064 00002042 		.word	1109393408
 903 0068 00002042 		.word	1109393408
 904 006c 00002842 		.word	1109917696
 905 0070 00002842 		.word	1109917696
 906 0074 00002842 		.word	1109917696
 907 0078 00002842 		.word	1109917696
ARM GAS  C:\Users\pc\AppData\Local\Temp\ccMl2WwT.s 			page 17


 908 007c 00002842 		.word	1109917696
 909 0080 00004041 		.word	1094713344
 910 0084 00004041 		.word	1094713344
 911 0088 00004041 		.word	1094713344
 912 008c 0000D041 		.word	1104150528
 913 0090 0000E841 		.word	1105723392
 914 0094 0000F841 		.word	1106771968
 915 0098 0000F841 		.word	1106771968
 916 009c 00001842 		.word	1108869120
 917 00a0 00002042 		.word	1109393408
 918 00a4 00002042 		.word	1109393408
 919 00a8 00002042 		.word	1109393408
 920 00ac 00002842 		.word	1109917696
 921 00b0 00002842 		.word	1109917696
 922 00b4 00002842 		.word	1109917696
 923 00b8 00002842 		.word	1109917696
 924 00bc 00002842 		.word	1109917696
 925 00c0 00004041 		.word	1094713344
 926 00c4 00004041 		.word	1094713344
 927 00c8 00004041 		.word	1094713344
 928 00cc 0000D041 		.word	1104150528
 929 00d0 0000E841 		.word	1105723392
 930 00d4 0000F841 		.word	1106771968
 931 00d8 0000F841 		.word	1106771968
 932 00dc 00001842 		.word	1108869120
 933 00e0 00002042 		.word	1109393408
 934 00e4 00002042 		.word	1109393408
 935 00e8 00002042 		.word	1109393408
 936 00ec 00002842 		.word	1109917696
 937 00f0 00002842 		.word	1109917696
 938 00f4 00002842 		.word	1109917696
 939 00f8 00002842 		.word	1109917696
 940 00fc 00002842 		.word	1109917696
 941 0100 00004041 		.word	1094713344
 942 0104 00004041 		.word	1094713344
 943 0108 00004041 		.word	1094713344
 944 010c 0000D041 		.word	1104150528
 945 0110 0000E841 		.word	1105723392
 946 0114 0000F841 		.word	1106771968
 947 0118 0000F841 		.word	1106771968
 948 011c 00001842 		.word	1108869120
 949 0120 00002042 		.word	1109393408
 950 0124 00002042 		.word	1109393408
 951 0128 00002042 		.word	1109393408
 952 012c 00002842 		.word	1109917696
 953 0130 00002842 		.word	1109917696
 954 0134 00002842 		.word	1109917696
 955 0138 00002842 		.word	1109917696
 956 013c 00002842 		.word	1109917696
 957 0140 00004041 		.word	1094713344
 958 0144 00004041 		.word	1094713344
 959 0148 00004041 		.word	1094713344
 960 014c 0000D041 		.word	1104150528
 961 0150 0000E841 		.word	1105723392
 962 0154 0000F841 		.word	1106771968
 963 0158 0000F841 		.word	1106771968
 964 015c 00001842 		.word	1108869120
ARM GAS  C:\Users\pc\AppData\Local\Temp\ccMl2WwT.s 			page 18


 965 0160 00002042 		.word	1109393408
 966 0164 00002042 		.word	1109393408
 967 0168 00002042 		.word	1109393408
 968 016c 00002842 		.word	1109917696
 969 0170 00002842 		.word	1109917696
 970 0174 00002842 		.word	1109917696
 971 0178 00002842 		.word	1109917696
 972 017c 00002842 		.word	1109917696
 973 0180 00004041 		.word	1094713344
 974 0184 00004041 		.word	1094713344
 975 0188 00004041 		.word	1094713344
 976 018c 0000D041 		.word	1104150528
 977 0190 0000E841 		.word	1105723392
 978 0194 0000F841 		.word	1106771968
 979 0198 0000F841 		.word	1106771968
 980 019c 00001842 		.word	1108869120
 981 01a0 00002042 		.word	1109393408
 982 01a4 00002042 		.word	1109393408
 983 01a8 00002042 		.word	1109393408
 984 01ac 00002842 		.word	1109917696
 985 01b0 00002842 		.word	1109917696
 986 01b4 00002842 		.word	1109917696
 987 01b8 00002842 		.word	1109917696
 988 01bc 00002842 		.word	1109917696
 989 01c0 00004041 		.word	1094713344
 990 01c4 00004041 		.word	1094713344
 991 01c8 00004041 		.word	1094713344
 992 01cc 0000D041 		.word	1104150528
 993 01d0 0000E841 		.word	1105723392
 994 01d4 0000F841 		.word	1106771968
 995 01d8 0000F841 		.word	1106771968
 996 01dc 00001842 		.word	1108869120
 997 01e0 00002042 		.word	1109393408
 998 01e4 00002042 		.word	1109393408
 999 01e8 00002042 		.word	1109393408
 1000 01ec 00002842 		.word	1109917696
 1001 01f0 00002842 		.word	1109917696
 1002 01f4 00002842 		.word	1109917696
 1003 01f8 00002842 		.word	1109917696
 1004 01fc 00002842 		.word	1109917696
 1005 0200 00004041 		.word	1094713344
 1006 0204 00004041 		.word	1094713344
 1007 0208 00004041 		.word	1094713344
 1008 020c 0000D041 		.word	1104150528
 1009 0210 0000E841 		.word	1105723392
 1010 0214 0000F841 		.word	1106771968
 1011 0218 0000F841 		.word	1106771968
 1012 021c 00001842 		.word	1108869120
 1013 0220 00002042 		.word	1109393408
 1014 0224 00002042 		.word	1109393408
 1015 0228 00002042 		.word	1109393408
 1016 022c 00002842 		.word	1109917696
 1017 0230 00002842 		.word	1109917696
 1018 0234 00002842 		.word	1109917696
 1019 0238 00002842 		.word	1109917696
 1020 023c 00002842 		.word	1109917696
 1021 0240 00004041 		.word	1094713344
ARM GAS  C:\Users\pc\AppData\Local\Temp\ccMl2WwT.s 			page 19


 1022 0244 00004041 		.word	1094713344
 1023 0248 00004041 		.word	1094713344
 1024 024c 0000D041 		.word	1104150528
 1025 0250 0000E841 		.word	1105723392
 1026 0254 0000F841 		.word	1106771968
 1027 0258 0000F841 		.word	1106771968
 1028 025c 00001842 		.word	1108869120
 1029 0260 00002042 		.word	1109393408
 1030 0264 00002042 		.word	1109393408
 1031 0268 00002042 		.word	1109393408
 1032 026c 00002842 		.word	1109917696
 1033 0270 00002842 		.word	1109917696
 1034 0274 00002842 		.word	1109917696
 1035 0278 00002842 		.word	1109917696
 1036 027c 00002842 		.word	1109917696
 1037 0280 00004041 		.word	1094713344
 1038 0284 00004041 		.word	1094713344
 1039 0288 00004041 		.word	1094713344
 1040 028c 0000D041 		.word	1104150528
 1041 0290 0000E841 		.word	1105723392
 1042 0294 0000F841 		.word	1106771968
 1043 0298 0000F841 		.word	1106771968
 1044 029c 00001842 		.word	1108869120
 1045 02a0 00002042 		.word	1109393408
 1046 02a4 00002042 		.word	1109393408
 1047 02a8 00002042 		.word	1109393408
 1048 02ac 00002842 		.word	1109917696
 1049 02b0 00002842 		.word	1109917696
 1050 02b4 00002842 		.word	1109917696
 1051 02b8 00002842 		.word	1109917696
 1052 02bc 00002842 		.word	1109917696
 1053 02c0 00004041 		.word	1094713344
 1054 02c4 00004041 		.word	1094713344
 1055 02c8 00004041 		.word	1094713344
 1056 02cc 0000D041 		.word	1104150528
 1057 02d0 0000E841 		.word	1105723392
 1058 02d4 0000F841 		.word	1106771968
 1059 02d8 0000F841 		.word	1106771968
 1060 02dc 00001842 		.word	1108869120
 1061 02e0 00002042 		.word	1109393408
 1062 02e4 00002042 		.word	1109393408
 1063 02e8 00002042 		.word	1109393408
 1064 02ec 00002842 		.word	1109917696
 1065 02f0 00002842 		.word	1109917696
 1066 02f4 00002842 		.word	1109917696
 1067 02f8 00002842 		.word	1109917696
 1068 02fc 00002842 		.word	1109917696
 1069 0300 00004041 		.word	1094713344
 1070 0304 00004041 		.word	1094713344
 1071 0308 00004041 		.word	1094713344
 1072 030c 0000D041 		.word	1104150528
 1073 0310 0000E841 		.word	1105723392
 1074 0314 0000F841 		.word	1106771968
 1075 0318 0000F841 		.word	1106771968
 1076 031c 00001842 		.word	1108869120
 1077 0320 00002042 		.word	1109393408
 1078 0324 00002042 		.word	1109393408
ARM GAS  C:\Users\pc\AppData\Local\Temp\ccMl2WwT.s 			page 20


 1079 0328 00002042 		.word	1109393408
 1080 032c 00002842 		.word	1109917696
 1081 0330 00002842 		.word	1109917696
 1082 0334 00002842 		.word	1109917696
 1083 0338 00002842 		.word	1109917696
 1084 033c 00002842 		.word	1109917696
 1085 0340 00004041 		.word	1094713344
 1086 0344 00004041 		.word	1094713344
 1087 0348 00004041 		.word	1094713344
 1088 034c 0000D041 		.word	1104150528
 1089 0350 0000E841 		.word	1105723392
 1090 0354 0000F841 		.word	1106771968
 1091 0358 0000F841 		.word	1106771968
 1092 035c 00001842 		.word	1108869120
 1093 0360 00002042 		.word	1109393408
 1094 0364 00002042 		.word	1109393408
 1095 0368 00002042 		.word	1109393408
 1096 036c 00002842 		.word	1109917696
 1097 0370 00002842 		.word	1109917696
 1098 0374 00002842 		.word	1109917696
 1099 0378 00002842 		.word	1109917696
 1100 037c 00002842 		.word	1109917696
 1101 0380 00004041 		.word	1094713344
 1102 0384 00004041 		.word	1094713344
 1103 0388 00004041 		.word	1094713344
 1104 038c 0000D041 		.word	1104150528
 1105 0390 0000E841 		.word	1105723392
 1106 0394 0000F841 		.word	1106771968
 1107 0398 0000F841 		.word	1106771968
 1108 039c 00001842 		.word	1108869120
 1109 03a0 00002042 		.word	1109393408
 1110 03a4 00002042 		.word	1109393408
 1111 03a8 00002042 		.word	1109393408
 1112 03ac 00002842 		.word	1109917696
 1113 03b0 00002842 		.word	1109917696
 1114 03b4 00002842 		.word	1109917696
 1115 03b8 00002842 		.word	1109917696
 1116 03bc 00002842 		.word	1109917696
 1117 03c0 00004041 		.word	1094713344
 1118 03c4 00004041 		.word	1094713344
 1119 03c8 00004041 		.word	1094713344
 1120 03cc 0000D041 		.word	1104150528
 1121 03d0 0000E841 		.word	1105723392
 1122 03d4 0000F841 		.word	1106771968
 1123 03d8 0000F841 		.word	1106771968
 1124 03dc 00001842 		.word	1108869120
 1125 03e0 00002042 		.word	1109393408
 1126 03e4 00002042 		.word	1109393408
 1127 03e8 00002042 		.word	1109393408
 1128 03ec 00002842 		.word	1109917696
 1129 03f0 00002842 		.word	1109917696
 1130 03f4 00002842 		.word	1109917696
 1131 03f8 00002842 		.word	1109917696
 1132 03fc 00002842 		.word	1109917696
 1133              		.ident	"GCC: (Sourcery CodeBench Lite 2013.11-24) 4.8.1"
ARM GAS  C:\Users\pc\AppData\Local\Temp\ccMl2WwT.s 			page 21


DEFINED SYMBOLS
                            *ABS*:00000000 dodge_neon.cpp
C:\Users\pc\AppData\Local\Temp\ccMl2WwT.s:17     .text._Z35setDodgeNeon1995EngineConfigurationv:00000000 $t
C:\Users\pc\AppData\Local\Temp\ccMl2WwT.s:23     .text._Z35setDodgeNeon1995EngineConfigurationv:00000000 _Z35setDodgeNeon1995EngineConfigurationv
C:\Users\pc\AppData\Local\Temp\ccMl2WwT.s:119    .text._Z35setDodgeNeon1995EngineConfigurationv:00000130 $d
C:\Users\pc\AppData\Local\Temp\ccMl2WwT.s:122    .text._Z34setDodgeNeonNGCEngineConfigurationv:00000000 $t
C:\Users\pc\AppData\Local\Temp\ccMl2WwT.s:128    .text._Z34setDodgeNeonNGCEngineConfigurationv:00000000 _Z34setDodgeNeonNGCEngineConfigurationv
C:\Users\pc\AppData\Local\Temp\ccMl2WwT.s:611    .rodata._ZL10alphaNfuel:00000000 .LANCHOR0
C:\Users\pc\AppData\Local\Temp\ccMl2WwT.s:873    .rodata._ZL8fromDyno:00000000 .LANCHOR1
C:\Users\pc\AppData\Local\Temp\ccMl2WwT.s:345    .rodata._ZL14veDefaultTable:00000000 .LANCHOR2
C:\Users\pc\AppData\Local\Temp\ccMl2WwT.s:607    .rodata.str1.4:00000000 .LC0
C:\Users\pc\AppData\Local\Temp\ccMl2WwT.s:344    .rodata._ZL14veDefaultTable:00000000 $d
C:\Users\pc\AppData\Local\Temp\ccMl2WwT.s:348    .rodata._ZL14veDefaultTable:00000000 _ZL14veDefaultTable
C:\Users\pc\AppData\Local\Temp\ccMl2WwT.s:606    .rodata.str1.4:00000000 $d
C:\Users\pc\AppData\Local\Temp\ccMl2WwT.s:610    .rodata._ZL10alphaNfuel:00000000 $d
C:\Users\pc\AppData\Local\Temp\ccMl2WwT.s:614    .rodata._ZL10alphaNfuel:00000000 _ZL10alphaNfuel
C:\Users\pc\AppData\Local\Temp\ccMl2WwT.s:872    .rodata._ZL8fromDyno:00000000 $d
C:\Users\pc\AppData\Local\Temp\ccMl2WwT.s:876    .rodata._ZL8fromDyno:00000000 _ZL8fromDyno
C:\Users\pc\AppData\Local\Temp\ccMl2WwT.s:121    .text._Z35setDodgeNeon1995EngineConfigurationv:00000134 $t

UNDEFINED SYMBOLS
engineConfiguration
_Z15setWholeFuelMapf
_Z19setWholeTimingTablef
boardConfiguration
_Z26setThermistorConfigurationP14ThermistorConfffffff
config
_Z19setFrankenso_01_LCDP21board_configuration_s
_Z24setFrankenso0_1_joystickP22engine_configuration_s
_Z13copyFuelTablePA16_KfPA16_f
_Z15copyTimingTablePA16_KfPA16_f
_Z14setFuelLoadBinff
_Z16setTimingLoadBinff
_Z27commonFrankensoAnalogInputsP22engine_configuration_s
_Z14setDodgeSensorP14ThermistorConf
_Z25setHip9011FrankensoPinoutv
_Z10setFsioExti11brain_pin_ePKci
