ARM GAS  C:\Users\pc\AppData\Local\Temp\cchN2LnY.s 			page 1


   1              		.syntax unified
   2              		.cpu cortex-m4
   3              		.eabi_attribute 27, 3
   4              		.fpu fpv4-sp-d16
   5              		.eabi_attribute 20, 1
   6              		.eabi_attribute 21, 1
   7              		.eabi_attribute 23, 3
   8              		.eabi_attribute 24, 1
   9              		.eabi_attribute 25, 1
  10              		.eabi_attribute 26, 1
  11              		.eabi_attribute 30, 2
  12              		.eabi_attribute 34, 1
  13              		.eabi_attribute 18, 4
  14              		.thumb
  15              		.file	"engine_configuration.cpp"
  16              		.section	.text._Z29getGlobalConfigurationVersionv,"ax",%progbits
  17              		.align	2
  18              		.p2align 4,,15
  19              		.global	_Z29getGlobalConfigurationVersionv
  20              		.thumb
  21              		.thumb_func
  22              		.type	_Z29getGlobalConfigurationVersionv, %function
  23              	_Z29getGlobalConfigurationVersionv:
  24              		@ args = 0, pretend = 0, frame = 0
  25              		@ frame_needed = 0, uses_anonymous_args = 0
  26              		@ link register save eliminated.
  27 0000 40F20003 		movw	r3, #:lower16:.LANCHOR0
  28 0004 C0F20003 		movt	r3, #:upper16:.LANCHOR0
  29 0008 1868     		ldr	r0, [r3]
  30 000a 7047     		bx	lr
  31              		.size	_Z29getGlobalConfigurationVersionv, .-_Z29getGlobalConfigurationVersionv
  32 000c AFF30080 		.section	.text._Z35incrementGlobalConfigurationVersionv,"ax",%progbits
  33              		.align	2
  34              		.p2align 4,,15
  35              		.global	_Z35incrementGlobalConfigurationVersionv
  36              		.thumb
  37              		.thumb_func
  38              		.type	_Z35incrementGlobalConfigurationVersionv, %function
  39              	_Z35incrementGlobalConfigurationVersionv:
  40              		@ args = 0, pretend = 0, frame = 0
  41              		@ frame_needed = 0, uses_anonymous_args = 0
  42              		@ link register save eliminated.
  43 0000 40F20003 		movw	r3, #:lower16:.LANCHOR0
  44 0004 C0F20003 		movt	r3, #:upper16:.LANCHOR0
  45 0008 1A68     		ldr	r2, [r3]
  46 000a 0132     		adds	r2, r2, #1
  47 000c 1A60     		str	r2, [r3]
  48 000e 7047     		bx	lr
  49              		.size	_Z35incrementGlobalConfigurationVersionv, .-_Z35incrementGlobalConfigurationVersionv
  50              		.section	.text._Z16setConstantDwellf,"ax",%progbits
  51              		.align	2
  52              		.p2align 4,,15
  53              		.global	_Z16setConstantDwellf
  54              		.thumb
  55              		.thumb_func
  56              		.type	_Z16setConstantDwellf, %function
  57              	_Z16setConstantDwellf:
ARM GAS  C:\Users\pc\AppData\Local\Temp\cchN2LnY.s 			page 2


  58              		@ args = 0, pretend = 0, frame = 0
  59              		@ frame_needed = 0, uses_anonymous_args = 0
  60              		@ link register save eliminated.
  61 0000 40F20003 		movw	r3, #:lower16:engineConfiguration
  62 0004 C0F20003 		movt	r3, #:upper16:engineConfiguration
  63 0008 1A68     		ldr	r2, [r3]
  64 000a 0023     		movs	r3, #0
  65 000c 02F5B872 		add	r2, r2, #368
  66              	.L5:
  67 0010 07EE103A 		fmsr	s14, r3	@ int
  68 0014 03F57A73 		add	r3, r3, #1000
  69 0018 F8EEC77A 		fsitos	s15, s14
  70 001c B3F5FA5F 		cmp	r3, #8000
  71 0020 42ED087A 		fsts	s15, [r2, #-32]
  72 0024 42F8040B 		str	r0, [r2], #4	@ float
  73 0028 F2D1     		bne	.L5
  74 002a 7047     		bx	lr
  75              		.size	_Z16setConstantDwellf, .-_Z16setConstantDwellf
  76 002c AFF30080 		.section	.text._Z6setMapPA16_ff,"ax",%progbits
  77              		.align	2
  78              		.p2align 4,,15
  79              		.global	_Z6setMapPA16_ff
  80              		.thumb
  81              		.thumb_func
  82              		.type	_Z6setMapPA16_ff, %function
  83              	_Z6setMapPA16_ff:
  84              		@ args = 0, pretend = 0, frame = 0
  85              		@ frame_needed = 0, uses_anonymous_args = 0
  86              		@ link register save eliminated.
  87 0000 10B4     		push	{r4}
  88 0002 0024     		movs	r4, #0
  89              	.L9:
  90 0004 0246     		mov	r2, r0
  91 0006 1023     		movs	r3, #16
  92              	.L12:
  93 0008 013B     		subs	r3, r3, #1
  94 000a 42F8041B 		str	r1, [r2], #4	@ float
  95 000e FBD1     		bne	.L12
  96 0010 0134     		adds	r4, r4, #1
  97 0012 102C     		cmp	r4, #16
  98 0014 00F14000 		add	r0, r0, #64
  99 0018 F4D1     		bne	.L9
 100 001a 5DF8044B 		ldr	r4, [sp], #4
 101 001e 7047     		bx	lr
 102              		.size	_Z6setMapPA16_ff, .-_Z6setMapPA16_ff
 103              		.section	.text._Z15setWholeFuelMapf,"ax",%progbits
 104              		.align	2
 105              		.p2align 4,,15
 106              		.global	_Z15setWholeFuelMapf
 107              		.thumb
 108              		.thumb_func
 109              		.type	_Z15setWholeFuelMapf, %function
 110              	_Z15setWholeFuelMapf:
 111              		@ args = 0, pretend = 0, frame = 0
 112              		@ frame_needed = 0, uses_anonymous_args = 0
 113              		@ link register save eliminated.
 114 0000 40F20003 		movw	r3, #:lower16:config
ARM GAS  C:\Users\pc\AppData\Local\Temp\cchN2LnY.s 			page 3


 115 0004 C0F20003 		movt	r3, #:upper16:config
 116 0008 10B4     		push	{r4}
 117 000a 1968     		ldr	r1, [r3]
 118 000c 01F52651 		add	r1, r1, #10624
 119 0010 3831     		adds	r1, r1, #56
 120 0012 0024     		movs	r4, #0
 121              	.L15:
 122 0014 0A46     		mov	r2, r1
 123 0016 1023     		movs	r3, #16
 124              	.L18:
 125 0018 013B     		subs	r3, r3, #1
 126 001a 42F8040B 		str	r0, [r2], #4	@ float
 127 001e FBD1     		bne	.L18
 128 0020 0134     		adds	r4, r4, #1
 129 0022 102C     		cmp	r4, #16
 130 0024 01F14001 		add	r1, r1, #64
 131 0028 F4D1     		bne	.L15
 132 002a 5DF8044B 		ldr	r4, [sp], #4
 133 002e 7047     		bx	lr
 134              		.size	_Z15setWholeFuelMapf, .-_Z15setWholeFuelMapf
 135              		.section	.text._Z20setFuelTablesLoadBinff,"ax",%progbits
 136              		.align	2
 137              		.p2align 4,,15
 138              		.global	_Z20setFuelTablesLoadBinff
 139              		.thumb
 140              		.thumb_func
 141              		.type	_Z20setFuelTablesLoadBinff, %function
 142              	_Z20setFuelTablesLoadBinff:
 143              		@ args = 0, pretend = 0, frame = 0
 144              		@ frame_needed = 0, uses_anonymous_args = 0
 145 0000 F0B5     		push	{r4, r5, r6, r7, lr}
 146 0002 40F20004 		movw	r4, #:lower16:config
 147 0006 C0F20004 		movt	r4, #:upper16:config
 148 000a 0646     		mov	r6, r0	@ float
 149 000c 2068     		ldr	r0, [r4]
 150 000e 83B0     		sub	sp, sp, #12
 151 0010 4FF07E57 		mov	r7, #1065353216
 152 0014 00F52450 		add	r0, r0, #10496
 153 0018 0D46     		mov	r5, r1	@ float
 154 001a 3246     		mov	r2, r6	@ float
 155 001c 0B46     		mov	r3, r1	@ float
 156 001e 3830     		adds	r0, r0, #56
 157 0020 0097     		str	r7, [sp]	@ float
 158 0022 1021     		movs	r1, #16
 159 0024 FFF7FEFF 		bl	_Z12setTableBin2Pfifff
 160 0028 2068     		ldr	r0, [r4]
 161 002a 0097     		str	r7, [sp]	@ float
 162 002c 00F55A50 		add	r0, r0, #13952
 163 0030 3246     		mov	r2, r6	@ float
 164 0032 2B46     		mov	r3, r5	@ float
 165 0034 3830     		adds	r0, r0, #56
 166 0036 1021     		movs	r1, #16
 167 0038 FFF7FEFF 		bl	_Z12setTableBin2Pfifff
 168 003c 2068     		ldr	r0, [r4]
 169 003e 0097     		str	r7, [sp]	@ float
 170 0040 00F56C50 		add	r0, r0, #15104
 171 0044 3830     		adds	r0, r0, #56
ARM GAS  C:\Users\pc\AppData\Local\Temp\cchN2LnY.s 			page 4


 172 0046 3246     		mov	r2, r6	@ float
 173 0048 2B46     		mov	r3, r5	@ float
 174 004a 1021     		movs	r1, #16
 175 004c FFF7FEFF 		bl	_Z12setTableBin2Pfifff
 176 0050 03B0     		add	sp, sp, #12
 177              		@ sp needed
 178 0052 F0BD     		pop	{r4, r5, r6, r7, pc}
 179              		.size	_Z20setFuelTablesLoadBinff, .-_Z20setFuelTablesLoadBinff
 180 0054 AFF30080 		.section	.text._Z12setTimingMapPA16_ff,"ax",%progbits
 180      AFF30080 
 180      AFF30080 
 181              		.align	2
 182              		.p2align 4,,15
 183              		.global	_Z12setTimingMapPA16_ff
 184              		.thumb
 185              		.thumb_func
 186              		.type	_Z12setTimingMapPA16_ff, %function
 187              	_Z12setTimingMapPA16_ff:
 188              		@ args = 0, pretend = 0, frame = 0
 189              		@ frame_needed = 0, uses_anonymous_args = 0
 190              		@ link register save eliminated.
 191 0000 10B4     		push	{r4}
 192 0002 0024     		movs	r4, #0
 193              	.L22:
 194 0004 0246     		mov	r2, r0
 195 0006 1023     		movs	r3, #16
 196              	.L25:
 197 0008 013B     		subs	r3, r3, #1
 198 000a 42F8041B 		str	r1, [r2], #4	@ float
 199 000e FBD1     		bne	.L25
 200 0010 0134     		adds	r4, r4, #1
 201 0012 102C     		cmp	r4, #16
 202 0014 00F14000 		add	r0, r0, #64
 203 0018 F4D1     		bne	.L22
 204 001a 5DF8044B 		ldr	r4, [sp], #4
 205 001e 7047     		bx	lr
 206              		.size	_Z12setTimingMapPA16_ff, .-_Z12setTimingMapPA16_ff
 207              		.section	.text._Z26setWholeIatCorrTimingTablef,"ax",%progbits
 208              		.align	2
 209              		.p2align 4,,15
 210              		.global	_Z26setWholeIatCorrTimingTablef
 211              		.thumb
 212              		.thumb_func
 213              		.type	_Z26setWholeIatCorrTimingTablef, %function
 214              	_Z26setWholeIatCorrTimingTablef:
 215              		@ args = 0, pretend = 0, frame = 0
 216              		@ frame_needed = 0, uses_anonymous_args = 0
 217              		@ link register save eliminated.
 218 0000 40F20003 		movw	r3, #:lower16:config
 219 0004 C0F20003 		movt	r3, #:upper16:config
 220 0008 10B4     		push	{r4}
 221 000a 1968     		ldr	r1, [r3]
 222 000c 01F50251 		add	r1, r1, #8320
 223 0010 3831     		adds	r1, r1, #56
 224 0012 0024     		movs	r4, #0
 225              	.L28:
 226 0014 0A46     		mov	r2, r1
ARM GAS  C:\Users\pc\AppData\Local\Temp\cchN2LnY.s 			page 5


 227 0016 1023     		movs	r3, #16
 228              	.L31:
 229 0018 013B     		subs	r3, r3, #1
 230 001a 42F8040B 		str	r0, [r2], #4	@ float
 231 001e FBD1     		bne	.L31
 232 0020 0134     		adds	r4, r4, #1
 233 0022 102C     		cmp	r4, #16
 234 0024 01F14001 		add	r1, r1, #64
 235 0028 F4D1     		bne	.L28
 236 002a 5DF8044B 		ldr	r4, [sp], #4
 237 002e 7047     		bx	lr
 238              		.size	_Z26setWholeIatCorrTimingTablef, .-_Z26setWholeIatCorrTimingTablef
 239              		.section	.text._Z19setWholeTimingTablef,"ax",%progbits
 240              		.align	2
 241              		.p2align 4,,15
 242              		.global	_Z19setWholeTimingTablef
 243              		.thumb
 244              		.thumb_func
 245              		.type	_Z19setWholeTimingTablef, %function
 246              	_Z19setWholeTimingTablef:
 247              		@ args = 0, pretend = 0, frame = 0
 248              		@ frame_needed = 0, uses_anonymous_args = 0
 249              		@ link register save eliminated.
 250 0000 40F20003 		movw	r3, #:lower16:config
 251 0004 C0F20003 		movt	r3, #:upper16:config
 252 0008 10B4     		push	{r4}
 253 000a 1968     		ldr	r1, [r3]
 254 000c 01F53851 		add	r1, r1, #11776
 255 0010 3831     		adds	r1, r1, #56
 256 0012 0024     		movs	r4, #0
 257              	.L34:
 258 0014 0A46     		mov	r2, r1
 259 0016 1023     		movs	r3, #16
 260              	.L37:
 261 0018 013B     		subs	r3, r3, #1
 262 001a 42F8040B 		str	r0, [r2], #4	@ float
 263 001e FBD1     		bne	.L37
 264 0020 0134     		adds	r4, r4, #1
 265 0022 102C     		cmp	r4, #16
 266 0024 01F14001 		add	r1, r1, #64
 267 0028 F4D1     		bne	.L34
 268 002a 5DF8044B 		ldr	r4, [sp], #4
 269 002e 7047     		bx	lr
 270              		.size	_Z19setWholeTimingTablef, .-_Z19setWholeTimingTablef
 271              		.section	.text._Z24prepareVoidConfigurationP22engine_configuration_s,"ax",%progbits
 272              		.align	2
 273              		.p2align 4,,15
 274              		.global	_Z24prepareVoidConfigurationP22engine_configuration_s
 275              		.thumb
 276              		.thumb_func
 277              		.type	_Z24prepareVoidConfigurationP22engine_configuration_s, %function
 278              	_Z24prepareVoidConfigurationP22engine_configuration_s:
 279              		@ args = 0, pretend = 0, frame = 0
 280              		@ frame_needed = 0, uses_anonymous_args = 0
 281 0000 38B5     		push	{r3, r4, r5, lr}
 282 0002 0446     		mov	r4, r0
 283 0004 5025     		movs	r5, #80
ARM GAS  C:\Users\pc\AppData\Local\Temp\cchN2LnY.s 			page 6


 284 0006 40F6A802 		movw	r2, #2216
 285 000a 0021     		movs	r1, #0
 286 000c FFF7FEFF 		bl	memset
 287 0010 C4F89853 		str	r5, [r4, #920]
 288 0014 C4F89C53 		str	r5, [r4, #924]
 289 0018 C4F8A053 		str	r5, [r4, #928]
 290 001c C4F8B454 		str	r5, [r4, #1204]
 291 0020 C4F8B854 		str	r5, [r4, #1208]
 292 0024 C4F8BC54 		str	r5, [r4, #1212]
 293 0028 C4F8C054 		str	r5, [r4, #1216]
 294 002c C4F8C454 		str	r5, [r4, #1220]
 295 0030 C4F8D054 		str	r5, [r4, #1232]
 296 0034 FFF7FEFF 		bl	_Z30setDefaultAlternatorParametersv
 297 0038 0023     		movs	r3, #0
 298 003a 0122     		movs	r2, #1
 299 003c C4F81423 		str	r2, [r4, #788]
 300 0040 C4F89025 		str	r2, [r4, #1424]
 301 0044 C4F87453 		str	r5, [r4, #884]
 302 0048 C4F87853 		str	r5, [r4, #888]
 303 004c C4F8A453 		str	r5, [r4, #932]
 304 0050 C4F87052 		str	r5, [r4, #624]
 305 0054 C4F88852 		str	r5, [r4, #648]
 306 0058 C4F86053 		str	r5, [r4, #864]
 307 005c C4F86453 		str	r5, [r4, #868]
 308 0060 C4F85853 		str	r5, [r4, #856]
 309 0064 C4F85C53 		str	r5, [r4, #860]
 310 0068 C4F8E853 		str	r5, [r4, #1000]
 311 006c C4F8F852 		str	r5, [r4, #760]
 312 0070 C4F80053 		str	r5, [r4, #768]
 313 0074 C4F81053 		str	r5, [r4, #784]
 314 0078 C4F88C55 		str	r5, [r4, #1420]
 315 007c C4F80C34 		str	r3, [r4, #1036]
 316 0080 C4F87432 		str	r3, [r4, #628]
 317 0084 C4F88C32 		str	r3, [r4, #652]
 318 0088 C4F8FC32 		str	r3, [r4, #764]
 319 008c C4F80433 		str	r3, [r4, #772]
 320 0090 04F51C72 		add	r2, r4, #624
 321              	.L41:
 322 0094 D118     		adds	r1, r2, r3
 323 0096 0433     		adds	r3, r3, #4
 324 0098 302B     		cmp	r3, #48
 325 009a 0D62     		str	r5, [r1, #32]
 326 009c FAD1     		bne	.L41
 327 009e 0023     		movs	r3, #0
 328 00a0 C4F8C032 		str	r3, [r4, #704]
 329 00a4 5020     		movs	r0, #80
 330              	.L43:
 331 00a6 D118     		adds	r1, r2, r3
 332 00a8 0433     		adds	r3, r3, #4
 333 00aa 302B     		cmp	r3, #48
 334 00ac 4865     		str	r0, [r1, #84]
 335 00ae FAD1     		bne	.L43
 336 00b0 0023     		movs	r3, #0
 337 00b2 C4F8F432 		str	r3, [r4, #756]
 338 00b6 38BD     		pop	{r3, r4, r5, pc}
 339              		.size	_Z24prepareVoidConfigurationP22engine_configuration_s, .-_Z24prepareVoidConfigurationP22engi
 340 00b8 AFF30080 		.section	.text._Z23setDefaultConfigurationv,"ax",%progbits
ARM GAS  C:\Users\pc\AppData\Local\Temp\cchN2LnY.s 			page 7


 340      AFF30080 
 341              		.align	2
 342              		.p2align 4,,15
 343              		.global	_Z23setDefaultConfigurationv
 344              		.thumb
 345              		.thumb_func
 346              		.type	_Z23setDefaultConfigurationv, %function
 347              	_Z23setDefaultConfigurationv:
 348              		@ args = 0, pretend = 0, frame = 8
 349              		@ frame_needed = 0, uses_anonymous_args = 0
 350 0000 2DE9F04F 		push	{r4, r5, r6, r7, r8, r9, r10, fp, lr}
 351 0004 2DED068B 		fstmfdd	sp!, {d8, d9, d10}
 352 0008 40F20006 		movw	r6, #:lower16:engineConfiguration
 353 000c C0F20006 		movt	r6, #:upper16:engineConfiguration
 354 0010 40F20008 		movw	r8, #:lower16:boardConfiguration
 355 0014 0021     		movs	r1, #0
 356 0016 87B0     		sub	sp, sp, #28
 357 0018 43F6B832 		movw	r2, #15288
 358 001c E848     		ldr	r0, .L83
 359 001e C0F20008 		movt	r8, #:upper16:boardConfiguration
 360 0022 FFF7FEFF 		bl	memset
 361 0026 40F20005 		movw	r5, #:lower16:config
 362 002a 3068     		ldr	r0, [r6]
 363 002c FFF7FEFF 		bl	_Z24prepareVoidConfigurationP22engine_configuration_s
 364 0030 C0F20005 		movt	r5, #:upper16:config
 365 0034 D8F80030 		ldr	r3, [r8]
 366 0038 2868     		ldr	r0, [r5]
 367 003a 0122     		movs	r2, #1
 368 003c C3F81423 		str	r2, [r3, #788]
 369 0040 FFF7FEFF 		bl	_Z18setBosch0280218037P19persistent_config_s
 370 0044 2C68     		ldr	r4, [r5]
 371 0046 3368     		ldr	r3, [r6]
 372 0048 4FF07E50 		mov	r0, #1065353216
 373 004c 04F5B951 		add	r1, r4, #5920
 374 0050 04F5BB52 		add	r2, r4, #5984
 375 0054 4FF42F7E 		mov	lr, #700
 376 0058 41F28837 		movw	r7, #5000
 377 005c D860     		str	r0, [r3, #12]	@ float
 378 005e A3F8F8E5 		strh	lr, [r3, #1528]	@ movhi
 379 0062 A3F8FA75 		strh	r7, [r3, #1530]	@ movhi
 380 0066 1831     		adds	r1, r1, #24
 381 0068 1832     		adds	r2, r2, #24
 382 006a 6FF02703 		mvn	r3, #39
 383              	.L48:
 384 006e 07EE103A 		fmsr	s14, r3	@ int
 385 0072 0A33     		adds	r3, r3, #10
 386 0074 F8EEC77A 		fsitos	s15, s14
 387 0078 782B     		cmp	r3, #120
 388 007a E1EC017A 		fstmias	r1!, {s15}
 389 007e 42F8040B 		str	r0, [r2], #4	@ float
 390 0082 F4D1     		bne	.L48
 391 0084 04F5B551 		add	r1, r4, #5792
 392 0088 04F5B752 		add	r2, r4, #5856
 393 008c 1831     		adds	r1, r1, #24
 394 008e 1832     		adds	r2, r2, #24
 395 0090 6FF02703 		mvn	r3, #39
 396 0094 4FF07E50 		mov	r0, #1065353216
ARM GAS  C:\Users\pc\AppData\Local\Temp\cchN2LnY.s 			page 8


 397              	.L50:
 398 0098 07EE103A 		fmsr	s14, r3	@ int
 399 009c 0A33     		adds	r3, r3, #10
 400 009e F8EEC77A 		fsitos	s15, s14
 401 00a2 782B     		cmp	r3, #120
 402 00a4 E1EC017A 		fstmias	r1!, {s15}
 403 00a8 42F8040B 		str	r0, [r2], #4	@ float
 404 00ac F4D1     		bne	.L50
 405 00ae 04F5C150 		add	r0, r4, #6176
 406 00b2 04F5C351 		add	r1, r4, #6240
 407 00b6 1830     		adds	r0, r0, #24
 408 00b8 1831     		adds	r1, r1, #24
 409 00ba 0446     		mov	r4, r0
 410 00bc 0A46     		mov	r2, r1
 411 00be 6FF02703 		mvn	r3, #39
 412 00c2 4FF07E57 		mov	r7, #1065353216
 413              	.L52:
 414 00c6 07EE103A 		fmsr	s14, r3	@ int
 415 00ca 0A33     		adds	r3, r3, #10
 416 00cc F8EEC77A 		fsitos	s15, s14
 417 00d0 782B     		cmp	r3, #120
 418 00d2 E4EC017A 		fstmias	r4!, {s15}
 419 00d6 42F8047B 		str	r7, [r2], #4	@ float
 420 00da F4D1     		bne	.L52
 421 00dc 4FF07F57 		mov	r7, #1069547520
 422 00e0 0023     		movs	r3, #0
 423 00e2 1022     		movs	r2, #16
 424 00e4 CCF22023 		movt	r3, 49696
 425 00e8 0097     		str	r7, [sp]	@ float
 426 00ea FFF7FEFF 		bl	_Z13setTableValuePfS_iff
 427 00ee 2968     		ldr	r1, [r5]
 428 00f0 0097     		str	r7, [sp]	@ float
 429 00f2 01F5C150 		add	r0, r1, #6176
 430 00f6 0023     		movs	r3, #0
 431 00f8 01F5C351 		add	r1, r1, #6240
 432 00fc CCF2F013 		movt	r3, 49648
 433 0100 1830     		adds	r0, r0, #24
 434 0102 1831     		adds	r1, r1, #24
 435 0104 1022     		movs	r2, #16
 436 0106 FFF7FEFF 		bl	_Z13setTableValuePfS_iff
 437 010a 2968     		ldr	r1, [r5]
 438 010c 9FEDADAA 		flds	s20, .L83+4
 439 0110 01F5C150 		add	r0, r1, #6176
 440 0114 0023     		movs	r3, #0
 441 0116 01F5C351 		add	r1, r1, #6240
 442 011a CCF2A013 		movt	r3, 49568
 443 011e 1830     		adds	r0, r0, #24
 444 0120 1831     		adds	r1, r1, #24
 445 0122 1022     		movs	r2, #16
 446 0124 8DED00AA 		fsts	s20, [sp]
 447 0128 FFF7FEFF 		bl	_Z13setTableValuePfS_iff
 448 012c 2968     		ldr	r1, [r5]
 449 012e DFEDA69A 		flds	s19, .L83+8
 450 0132 01F5C150 		add	r0, r1, #6176
 451 0136 0023     		movs	r3, #0
 452 0138 01F5C351 		add	r1, r1, #6240
 453 013c CCF22013 		movt	r3, 49440
ARM GAS  C:\Users\pc\AppData\Local\Temp\cchN2LnY.s 			page 9


 454 0140 1830     		adds	r0, r0, #24
 455 0142 1831     		adds	r1, r1, #24
 456 0144 1022     		movs	r2, #16
 457 0146 CDED009A 		fsts	s19, [sp]
 458 014a FFF7FEFF 		bl	_Z13setTableValuePfS_iff
 459 014e 2968     		ldr	r1, [r5]
 460 0150 9FED9E9A 		flds	s18, .L83+12
 461 0154 01F5C150 		add	r0, r1, #6176
 462 0158 01F5C351 		add	r1, r1, #6240
 463 015c 0023     		movs	r3, #0
 464 015e 1830     		adds	r0, r0, #24
 465 0160 1831     		adds	r1, r1, #24
 466 0162 1022     		movs	r2, #16
 467 0164 8DED009A 		fsts	s18, [sp]
 468 0168 FFF7FEFF 		bl	_Z13setTableValuePfS_iff
 469 016c 2968     		ldr	r1, [r5]
 470 016e DFED988A 		flds	s17, .L83+16
 471 0172 01F5C150 		add	r0, r1, #6176
 472 0176 0023     		movs	r3, #0
 473 0178 01F5C351 		add	r1, r1, #6240
 474 017c C4F22013 		movt	r3, 16672
 475 0180 1830     		adds	r0, r0, #24
 476 0182 1831     		adds	r1, r1, #24
 477 0184 1022     		movs	r2, #16
 478 0186 CDED008A 		fsts	s17, [sp]
 479 018a FFF7FEFF 		bl	_Z13setTableValuePfS_iff
 480 018e 2968     		ldr	r1, [r5]
 481 0190 9FED908A 		flds	s16, .L83+20
 482 0194 01F5C150 		add	r0, r1, #6176
 483 0198 0023     		movs	r3, #0
 484 019a 01F5C351 		add	r1, r1, #6240
 485 019e C4F2A013 		movt	r3, 16800
 486 01a2 1830     		adds	r0, r0, #24
 487 01a4 1831     		adds	r1, r1, #24
 488 01a6 1022     		movs	r2, #16
 489 01a8 8DED008A 		fsts	s16, [sp]
 490 01ac FFF7FEFF 		bl	_Z13setTableValuePfS_iff
 491 01b0 2968     		ldr	r1, [r5]
 492 01b2 4CF6CD4B 		movw	fp, #52429
 493 01b6 C3F68C7B 		movt	fp, 16268
 494 01ba 01F5C150 		add	r0, r1, #6176
 495 01be 0023     		movs	r3, #0
 496 01c0 01F5C351 		add	r1, r1, #6240
 497 01c4 C4F2F013 		movt	r3, 16880
 498 01c8 1830     		adds	r0, r0, #24
 499 01ca 1831     		adds	r1, r1, #24
 500 01cc 1022     		movs	r2, #16
 501 01ce CDF800B0 		str	fp, [sp]	@ float
 502 01d2 FFF7FEFF 		bl	_Z13setTableValuePfS_iff
 503 01d6 2968     		ldr	r1, [r5]
 504 01d8 4AF61464 		movw	r4, #44564
 505 01dc C3F68774 		movt	r4, 16263
 506 01e0 01F5C150 		add	r0, r1, #6176
 507 01e4 0023     		movs	r3, #0
 508 01e6 01F5C351 		add	r1, r1, #6240
 509 01ea C4F22023 		movt	r3, 16928
 510 01ee 1830     		adds	r0, r0, #24
ARM GAS  C:\Users\pc\AppData\Local\Temp\cchN2LnY.s 			page 10


 511 01f0 1831     		adds	r1, r1, #24
 512 01f2 0094     		str	r4, [sp]	@ float
 513 01f4 1022     		movs	r2, #16
 514 01f6 FFF7FEFF 		bl	_Z13setTableValuePfS_iff
 515 01fa 2968     		ldr	r1, [r5]
 516 01fc 0094     		str	r4, [sp]	@ float
 517 01fe 01F5C150 		add	r0, r1, #6176
 518 0202 0023     		movs	r3, #0
 519 0204 01F5C351 		add	r1, r1, #6240
 520 0208 C4F24823 		movt	r3, 16968
 521 020c 1830     		adds	r0, r0, #24
 522 020e 1831     		adds	r1, r1, #24
 523 0210 1022     		movs	r2, #16
 524 0212 FFF7FEFF 		bl	_Z13setTableValuePfS_iff
 525 0216 2968     		ldr	r1, [r5]
 526 0218 4DF20A7A 		movw	r10, #55050
 527 021c C3F6837A 		movt	r10, 16259
 528 0220 01F5C150 		add	r0, r1, #6176
 529 0224 0023     		movs	r3, #0
 530 0226 01F5C351 		add	r1, r1, #6240
 531 022a C4F27023 		movt	r3, 17008
 532 022e 1830     		adds	r0, r0, #24
 533 0230 1831     		adds	r1, r1, #24
 534 0232 1022     		movs	r2, #16
 535 0234 CDF800A0 		str	r10, [sp]	@ float
 536 0238 FFF7FEFF 		bl	_Z13setTableValuePfS_iff
 537 023c 2968     		ldr	r1, [r5]
 538 023e 44F2AE79 		movw	r9, #18350
 539 0242 C3F68179 		movt	r9, 16257
 540 0246 01F5C150 		add	r0, r1, #6176
 541 024a 0023     		movs	r3, #0
 542 024c 01F5C351 		add	r1, r1, #6240
 543 0250 C4F28C23 		movt	r3, 17036
 544 0254 1830     		adds	r0, r0, #24
 545 0256 1831     		adds	r1, r1, #24
 546 0258 1022     		movs	r2, #16
 547 025a CDF80090 		str	r9, [sp]	@ float
 548 025e FFF7FEFF 		bl	_Z13setTableValuePfS_iff
 549 0262 2968     		ldr	r1, [r5]
 550 0264 0097     		str	r7, [sp]	@ float
 551 0266 01F5B550 		add	r0, r1, #5792
 552 026a 0023     		movs	r3, #0
 553 026c 01F5B751 		add	r1, r1, #5856
 554 0270 CCF22023 		movt	r3, 49696
 555 0274 1830     		adds	r0, r0, #24
 556 0276 1831     		adds	r1, r1, #24
 557 0278 1022     		movs	r2, #16
 558 027a FFF7FEFF 		bl	_Z13setTableValuePfS_iff
 559 027e 2968     		ldr	r1, [r5]
 560 0280 0097     		str	r7, [sp]	@ float
 561 0282 01F5B550 		add	r0, r1, #5792
 562 0286 0023     		movs	r3, #0
 563 0288 01F5B751 		add	r1, r1, #5856
 564 028c CCF2F013 		movt	r3, 49648
 565 0290 1830     		adds	r0, r0, #24
 566 0292 1831     		adds	r1, r1, #24
 567 0294 1022     		movs	r2, #16
ARM GAS  C:\Users\pc\AppData\Local\Temp\cchN2LnY.s 			page 11


 568 0296 FFF7FEFF 		bl	_Z13setTableValuePfS_iff
 569 029a 2968     		ldr	r1, [r5]
 570 029c 0023     		movs	r3, #0
 571 029e 01F5B550 		add	r0, r1, #5792
 572 02a2 01F5B751 		add	r1, r1, #5856
 573 02a6 CCF2A013 		movt	r3, 49568
 574 02aa 1830     		adds	r0, r0, #24
 575 02ac 1831     		adds	r1, r1, #24
 576 02ae 1022     		movs	r2, #16
 577 02b0 8DED00AA 		fsts	s20, [sp]
 578 02b4 FFF7FEFF 		bl	_Z13setTableValuePfS_iff
 579 02b8 2968     		ldr	r1, [r5]
 580 02ba 0023     		movs	r3, #0
 581 02bc 01F5B550 		add	r0, r1, #5792
 582 02c0 01F5B751 		add	r1, r1, #5856
 583 02c4 CCF22013 		movt	r3, 49440
 584 02c8 1830     		adds	r0, r0, #24
 585 02ca 1831     		adds	r1, r1, #24
 586 02cc 1022     		movs	r2, #16
 587 02ce CDED009A 		fsts	s19, [sp]
 588 02d2 FFF7FEFF 		bl	_Z13setTableValuePfS_iff
 589 02d6 2968     		ldr	r1, [r5]
 590 02d8 01F5B550 		add	r0, r1, #5792
 591 02dc 01F5B751 		add	r1, r1, #5856
 592 02e0 0023     		movs	r3, #0
 593 02e2 1830     		adds	r0, r0, #24
 594 02e4 1831     		adds	r1, r1, #24
 595 02e6 1022     		movs	r2, #16
 596 02e8 8DED009A 		fsts	s18, [sp]
 597 02ec FFF7FEFF 		bl	_Z13setTableValuePfS_iff
 598 02f0 2968     		ldr	r1, [r5]
 599 02f2 0023     		movs	r3, #0
 600 02f4 01F5B550 		add	r0, r1, #5792
 601 02f8 01F5B751 		add	r1, r1, #5856
 602 02fc C4F22013 		movt	r3, 16672
 603 0300 1830     		adds	r0, r0, #24
 604 0302 1831     		adds	r1, r1, #24
 605 0304 1022     		movs	r2, #16
 606 0306 CDED008A 		fsts	s17, [sp]
 607 030a FFF7FEFF 		bl	_Z13setTableValuePfS_iff
 608 030e 2968     		ldr	r1, [r5]
 609 0310 0023     		movs	r3, #0
 610 0312 01F5B550 		add	r0, r1, #5792
 611 0316 01F5B751 		add	r1, r1, #5856
 612 031a C4F2A013 		movt	r3, 16800
 613 031e 1830     		adds	r0, r0, #24
 614 0320 1831     		adds	r1, r1, #24
 615 0322 1022     		movs	r2, #16
 616 0324 8DED008A 		fsts	s16, [sp]
 617 0328 FFF7FEFF 		bl	_Z13setTableValuePfS_iff
 618 032c 2968     		ldr	r1, [r5]
 619 032e CDF800B0 		str	fp, [sp]	@ float
 620 0332 01F5B550 		add	r0, r1, #5792
 621 0336 0023     		movs	r3, #0
 622 0338 01F5B751 		add	r1, r1, #5856
 623 033c C4F2F013 		movt	r3, 16880
 624 0340 1830     		adds	r0, r0, #24
ARM GAS  C:\Users\pc\AppData\Local\Temp\cchN2LnY.s 			page 12


 625 0342 1831     		adds	r1, r1, #24
 626 0344 1022     		movs	r2, #16
 627 0346 FFF7FEFF 		bl	_Z13setTableValuePfS_iff
 628 034a 2968     		ldr	r1, [r5]
 629 034c 0094     		str	r4, [sp]	@ float
 630 034e 01F5B550 		add	r0, r1, #5792
 631 0352 0023     		movs	r3, #0
 632 0354 01F5B751 		add	r1, r1, #5856
 633 0358 C4F22023 		movt	r3, 16928
 634 035c 1830     		adds	r0, r0, #24
 635 035e 1831     		adds	r1, r1, #24
 636 0360 1022     		movs	r2, #16
 637 0362 FFF7FEFF 		bl	_Z13setTableValuePfS_iff
 638 0366 2968     		ldr	r1, [r5]
 639 0368 0094     		str	r4, [sp]	@ float
 640 036a 01F5B550 		add	r0, r1, #5792
 641 036e 0023     		movs	r3, #0
 642 0370 01F5B751 		add	r1, r1, #5856
 643 0374 C4F24823 		movt	r3, 16968
 644 0378 1830     		adds	r0, r0, #24
 645 037a 1831     		adds	r1, r1, #24
 646 037c 1022     		movs	r2, #16
 647 037e FFF7FEFF 		bl	_Z13setTableValuePfS_iff
 648 0382 2968     		ldr	r1, [r5]
 649 0384 CDF800A0 		str	r10, [sp]	@ float
 650 0388 01F5B550 		add	r0, r1, #5792
 651 038c 0023     		movs	r3, #0
 652 038e 01F5B751 		add	r1, r1, #5856
 653 0392 C4F27023 		movt	r3, 17008
 654 0396 1830     		adds	r0, r0, #24
 655 0398 1831     		adds	r1, r1, #24
 656 039a 1022     		movs	r2, #16
 657 039c FFF7FEFF 		bl	_Z13setTableValuePfS_iff
 658 03a0 2968     		ldr	r1, [r5]
 659 03a2 CDF80090 		str	r9, [sp]	@ float
 660 03a6 01F5B550 		add	r0, r1, #5792
 661 03aa 0023     		movs	r3, #0
 662 03ac 01F5B751 		add	r1, r1, #5856
 663 03b0 C4F28C23 		movt	r3, 17036
 664 03b4 1831     		adds	r1, r1, #24
 665 03b6 1022     		movs	r2, #16
 666 03b8 1830     		adds	r0, r0, #24
 667 03ba FFF7FEFF 		bl	_Z13setTableValuePfS_iff
 668 03be 15E0     		b	.L84
 669              	.L85:
 670              		.align	2
 671              	.L83:
 672 03c0 08000000 		.word	persistentState+8
 673 03c4 8FC2B53F 		.word	1068876431
 674 03c8 7B14AE3F 		.word	1068373115
 675 03cc 0AD7A33F 		.word	1067702026
 676 03d0 EC51983F 		.word	1066947052
 677 03d4 295C8F3F 		.word	1066359849
 678 03d8 66660640 		.word	1074161254
 679 03dc 9A991940 		.word	1075419546
 680 03e0 00000C42 		.word	1108082688
 681 03e4 6666E63F 		.word	1072064102
ARM GAS  C:\Users\pc\AppData\Local\Temp\cchN2LnY.s 			page 13


 682 03e8 00004842 		.word	1112014848
 683              	.L84:
 684 03ec 3468     		ldr	r4, [r6]
 685 03ee 0021     		movs	r1, #0
 686 03f0 04F13002 		add	r2, r4, #48
 687 03f4 0823     		movs	r3, #8
 688              	.L54:
 689 03f6 07EE103A 		fmsr	s14, r3	@ int
 690 03fa 0133     		adds	r3, r3, #1
 691 03fc F8EEC77A 		fsitos	s15, s14
 692 0400 102B     		cmp	r3, #16
 693 0402 42ED087A 		fsts	s15, [r2, #-32]
 694 0406 42F8041B 		str	r1, [r2], #4	@ float
 695 040a F4D1     		bne	.L54
 696 040c 04F5B872 		add	r2, r4, #368
 697 0410 0023     		movs	r3, #0
 698 0412 4FF08141 		mov	r1, #1082130432
 699              	.L56:
 700 0416 07EE103A 		fmsr	s14, r3	@ int
 701 041a 03F57A73 		add	r3, r3, #1000
 702 041e F8EEC77A 		fsitos	s15, s14
 703 0422 B3F5FA5F 		cmp	r3, #8000
 704 0426 42ED087A 		fsts	s15, [r2, #-32]
 705 042a 42F8041B 		str	r1, [r2], #4	@ float
 706 042e F2D1     		bne	.L56
 707 0430 94F8D835 		ldrb	r3, [r4, #1496]	@ zero_extendqisi2
 708 0434 49F69A10 		movw	r0, #39322
 709 0438 6FF30413 		bfc	r3, #4, #1
 710 043c 4CF6CD41 		movw	r1, #52429
 711 0440 84F8D835 		strb	r3, [r4, #1496]
 712 0444 C3F69970 		movt	r0, 16281
 713 0448 C4F28C01 		movt	r1, 16524
 714 044c FFF7FEFF 		bl	_Z14setFuelLoadBinff
 715 0450 0020     		movs	r0, #0
 716 0452 4FF44041 		mov	r1, #49152
 717 0456 C4F24840 		movt	r0, 17480
 718 045a C4F2DA51 		movt	r1, 17882
 719 045e FFF7FEFF 		bl	_Z13setFuelRpmBinff
 720 0462 49F69A10 		movw	r0, #39322
 721 0466 4CF6CD41 		movw	r1, #52429
 722 046a C3F69970 		movt	r0, 16281
 723 046e C4F28C01 		movt	r1, 16524
 724 0472 FFF7FEFF 		bl	_Z16setTimingLoadBinff
 725 0476 0020     		movs	r0, #0
 726 0478 4FF44041 		mov	r1, #49152
 727 047c C4F24840 		movt	r0, 17480
 728 0480 C4F2DA51 		movt	r1, 17882
 729 0484 FFF7FEFF 		bl	_Z15setTimingRpmBinff
 730 0488 3068     		ldr	r0, [r6]
 731 048a 4FF07E54 		mov	r4, #1065353216
 732 048e 0022     		movs	r2, #0
 733 0490 4FF44043 		mov	r3, #49152
 734 0494 C4F24842 		movt	r2, 17480
 735 0498 C4F2DA53 		movt	r3, 17882
 736 049c 7030     		adds	r0, r0, #112
 737 049e 0094     		str	r4, [sp]	@ float
 738 04a0 0821     		movs	r1, #8
ARM GAS  C:\Users\pc\AppData\Local\Temp\cchN2LnY.s 			page 14


 739 04a2 FFF7FEFF 		bl	_Z12setTableBin2Pfifff
 740 04a6 3068     		ldr	r0, [r6]
 741 04a8 0094     		str	r4, [sp]	@ float
 742 04aa 0022     		movs	r2, #0
 743 04ac 0023     		movs	r3, #0
 744 04ae C4F2C822 		movt	r2, 17096
 745 04b2 C4F20233 		movt	r3, 17154
 746 04b6 9030     		adds	r0, r0, #144
 747 04b8 0821     		movs	r1, #8
 748 04ba FFF7FEFF 		bl	_Z12setTableBin2Pfifff
 749 04be 3068     		ldr	r0, [r6]
 750 04c0 0094     		str	r4, [sp]	@ float
 751 04c2 0022     		movs	r2, #0
 752 04c4 4FF44043 		mov	r3, #49152
 753 04c8 C4F24842 		movt	r2, 17480
 754 04cc C4F2DA53 		movt	r3, 17882
 755 04d0 B030     		adds	r0, r0, #176
 756 04d2 0821     		movs	r1, #8
 757 04d4 FFF7FEFF 		bl	_Z12setTableBin2Pfifff
 758 04d8 3068     		ldr	r0, [r6]
 759 04da 0094     		str	r4, [sp]	@ float
 760 04dc 0022     		movs	r2, #0
 761 04de C4F24822 		movt	r2, 16968
 762 04e2 D030     		adds	r0, r0, #208
 763 04e4 0821     		movs	r1, #8
 764 04e6 1346     		mov	r3, r2	@ float
 765 04e8 FFF7FEFF 		bl	_Z12setTableBin2Pfifff
 766 04ec 2868     		ldr	r0, [r5]
 767 04ee 0021     		movs	r1, #0
 768 04f0 00F52654 		add	r4, r0, #10624
 769 04f4 3834     		adds	r4, r4, #56
 770 04f6 0027     		movs	r7, #0
 771 04f8 C4F24001 		movt	r1, 16448
 772              	.L57:
 773 04fc 2246     		mov	r2, r4
 774 04fe 1023     		movs	r3, #16
 775              	.L60:
 776 0500 013B     		subs	r3, r3, #1
 777 0502 42F8041B 		str	r1, [r2], #4	@ float
 778 0506 FBD1     		bne	.L60
 779 0508 0137     		adds	r7, r7, #1
 780 050a 102F     		cmp	r7, #16
 781 050c 04F14004 		add	r4, r4, #64
 782 0510 F4D1     		bne	.L57
 783 0512 00F55C50 		add	r0, r0, #14080
 784 0516 43F23331 		movw	r1, #13107
 785 051a 3830     		adds	r0, r0, #56
 786 051c C4F26B11 		movt	r1, 16747
 787              	.L61:
 788 0520 0246     		mov	r2, r0
 789 0522 1024     		movs	r4, #16
 790              	.L64:
 791 0524 013C     		subs	r4, r4, #1
 792 0526 42F8041B 		str	r1, [r2], #4	@ float
 793 052a FBD1     		bne	.L64
 794 052c 0133     		adds	r3, r3, #1
 795 052e 102B     		cmp	r3, #16
ARM GAS  C:\Users\pc\AppData\Local\Temp\cchN2LnY.s 			page 15


 796 0530 00F14000 		add	r0, r0, #64
 797 0534 F4D1     		bne	.L61
 798 0536 FFF7FEFF 		bl	_Z17setDefaultVETablev
 799 053a 2868     		ldr	r0, [r5]
 800 053c 0022     		movs	r2, #0
 801 053e 00F51457 		add	r7, r0, #9472
 802 0542 2146     		mov	r1, r4
 803 0544 3837     		adds	r7, r7, #56
 804 0546 CCF23432 		movt	r2, 49972
 805              	.L65:
 806 054a 3B46     		mov	r3, r7
 807 054c 1024     		movs	r4, #16
 808              	.L68:
 809 054e 013C     		subs	r4, r4, #1
 810 0550 43F8042B 		str	r2, [r3], #4	@ float
 811 0554 FBD1     		bne	.L68
 812 0556 0131     		adds	r1, r1, #1
 813 0558 1029     		cmp	r1, #16
 814 055a 07F14007 		add	r7, r7, #64
 815 055e F4D1     		bne	.L65
 816 0560 00F52550 		add	r0, r0, #10560
 817 0564 3830     		adds	r0, r0, #56
 818 0566 FFF7FEFF 		bl	_Z14setRpmTableBinPfi
 819 056a 0020     		movs	r0, #0
 820 056c 0021     		movs	r1, #0
 821 056e C4F22010 		movt	r0, 16672
 822 0572 C4F22031 		movt	r1, 17184
 823 0576 FFF7FEFF 		bl	_Z20setFuelTablesLoadBinff
 824 057a 4FF4804A 		mov	r10, #16384
 825 057e FFF7FEFF 		bl	_Z29setDefaultIatTimingCorrectionv
 826 0582 0027     		movs	r7, #0
 827 0584 3068     		ldr	r0, [r6]
 828 0586 48F63C6E 		movw	lr, #36412
 829 058a C4F2035A 		movt	r10, 17667
 830 058e C4F2432E 		movt	lr, 16963
 831 0592 C4F27A47 		movt	r7, 17530
 832 0596 4FF4E042 		mov	r2, #28672
 833 059a 41F67843 		movw	r3, #7288
 834 059e C4F21462 		movt	r2, 17940
 835 05a2 C4F2BF13 		movt	r3, 16831
 836 05a6 00F58070 		add	r0, r0, #256
 837 05aa 0021     		movs	r1, #0
 838 05ac CDF800A0 		str	r10, [sp]	@ float
 839 05b0 CDF804E0 		str	lr, [sp, #4]	@ float
 840 05b4 0297     		str	r7, [sp, #8]	@ float
 841 05b6 FFF7FEFF 		bl	_Z26setThermistorConfigurationP14ThermistorConfffffff
 842 05ba 4FF00009 		mov	r9, #0
 843 05be 3068     		ldr	r0, [r6]
 844 05c0 4FF40043 		mov	r3, #32768
 845 05c4 4FF0000E 		mov	lr, #0
 846 05c8 C4F29629 		movt	r9, 17046
 847 05cc C4F2F02E 		movt	lr, 17136
 848 05d0 C4F2BB43 		movt	r3, 17595
 849 05d4 4FF4E042 		mov	r2, #28672
 850 05d8 C0F81831 		str	r3, [r0, #280]	@ float
 851 05dc 4FF08441 		mov	r1, #1107296256
 852 05e0 4B46     		mov	r3, r9	@ float
ARM GAS  C:\Users\pc\AppData\Local\Temp\cchN2LnY.s 			page 16


 853 05e2 C4F21462 		movt	r2, 17940
 854 05e6 00F59070 		add	r0, r0, #288
 855 05ea CDF800A0 		str	r10, [sp]	@ float
 856 05ee 0297     		str	r7, [sp, #8]	@ float
 857 05f0 CDF804E0 		str	lr, [sp, #4]	@ float
 858 05f4 FFF7FEFF 		bl	_Z26setThermistorConfigurationP14ThermistorConfffffff
 859 05f8 D6F800A0 		ldr	r10, [r6]
 860 05fc 9AF8DA35 		ldrb	r3, [r10, #1498]	@ zero_extendqisi2
 861 0600 43F00303 		orr	r3, r3, #3
 862 0604 8AF8DA35 		strb	r3, [r10, #1498]
 863 0608 0A22     		movs	r2, #10
 864 060a 41F6583E 		movw	lr, #7000
 865 060e 4FF44047 		mov	r7, #49152
 866 0612 CAF84421 		str	r2, [r10, #324]
 867 0616 CAF8A4E1 		str	lr, [r10, #420]
 868 061a 2968     		ldr	r1, [r5]
 869 061c 0AF26C62 		addw	r2, r10, #1644
 870 0620 C4F22857 		movt	r7, 17704
 871 0624 4FF0000E 		mov	lr, #0
 872 0628 CAF83871 		str	r7, [r10, #312]	@ float
 873 062c 40F6B833 		movw	r3, #3000
 874 0630 40F22627 		movw	r7, #550
 875 0634 C4F2400E 		movt	lr, 16448
 876 0638 CAF84031 		str	r3, [r10, #320]
 877 063c AAF86070 		strh	r7, [r10, #96]	@ movhi
 878 0640 01F5BD53 		add	r3, r1, #6048
 879 0644 C2F800E0 		str	lr, [r2]	@ float
 880 0648 4CF6CD4B 		movw	fp, #52429
 881 064c 01F5BE52 		add	r2, r1, #6080
 882 0650 0027     		movs	r7, #0
 883 0652 B1EE048A 		fconsts	s16, #20
 884 0656 C4F26C0B 		movt	fp, 16492
 885 065a CCF2A017 		movt	r7, 49568
 886 065e 83ED068A 		fsts	s16, [r3, #24]
 887 0662 9761     		str	r7, [r2, #24]	@ float
 888 0664 C3F81CB0 		str	fp, [r3, #28]	@ float
 889 0668 0023     		movs	r3, #0
 890 066a CCF22013 		movt	r3, 49440
 891 066e D361     		str	r3, [r2, #28]	@ float
 892 0670 1FEDA77A 		flds	s14, .L83+24
 893 0674 01F5BF53 		add	r3, r1, #6112
 894 0678 5FEDA86A 		flds	s13, .L83+28
 895 067c 1FEDA8AA 		flds	s20, .L83+32
 896 0680 5FEDA87A 		flds	s15, .L83+36
 897 0684 46F2666C 		movw	ip, #26214
 898 0688 0027     		movs	r7, #0
 899 068a 1FEDA99A 		flds	s18, .L83+40
 900 068e C4F2260C 		movt	ip, 16422
 901 0692 C4F2A017 		movt	r7, 16800
 902 0696 4FF0000B 		mov	fp, #0
 903 069a C2F800C0 		str	ip, [r2]	@ float
 904 069e F7EE008A 		fconsts	s17, #112
 905 06a2 83ED008A 		fsts	s16, [r3]
 906 06a6 C4F2822B 		movt	fp, 17026
 907 06aa C2ED016A 		fsts	s13, [r2, #4]
 908 06ae 4FF0000C 		mov	ip, #0
 909 06b2 5F60     		str	r7, [r3, #4]	@ float
ARM GAS  C:\Users\pc\AppData\Local\Temp\cchN2LnY.s 			page 17


 910 06b4 82ED027A 		fsts	s14, [r2, #8]
 911 06b8 83ED02AA 		fsts	s20, [r3, #8]
 912 06bc C2ED037A 		fsts	s15, [r2, #12]
 913 06c0 F7EE087A 		fconsts	s15, #120
 914 06c4 83ED039A 		fsts	s18, [r3, #12]
 915 06c8 C4F2B42C 		movt	ip, 17076
 916 06cc C2ED047A 		fsts	s15, [r2, #16]
 917 06d0 F0EE009A 		fconsts	s19, #0
 918 06d4 C3F810B0 		str	fp, [r3, #16]	@ float
 919 06d8 F2EE04AA 		fconsts	s21, #36
 920 06dc C2ED058A 		fsts	s17, [r2, #20]
 921 06e0 01F5C052 		add	r2, r1, #6144
 922 06e4 C3F814C0 		str	ip, [r3, #20]	@ float
 923 06e8 C3ED069A 		fsts	s19, [r3, #24]
 924 06ec C2ED06AA 		fsts	s21, [r2, #24]
 925 06f0 C3ED078A 		fsts	s17, [r3, #28]
 926 06f4 0023     		movs	r3, #0
 927 06f6 01F5C151 		add	r1, r1, #6176
 928 06fa C4F2F813 		movt	r3, 16888
 929 06fe 4FF0000E 		mov	lr, #0
 930 0702 0027     		movs	r7, #0
 931 0704 D361     		str	r3, [r2, #28]	@ float
 932 0706 C4F2502E 		movt	lr, 16976
 933 070a 4FF07C53 		mov	r3, #1056964608
 934 070e C4F29227 		movt	r7, 17042
 935 0712 C2ED008A 		fsts	s17, [r2]
 936 0716 C1F800E0 		str	lr, [r1]	@ float
 937 071a 5360     		str	r3, [r2, #4]	@ float
 938 071c 4F60     		str	r7, [r1, #4]	@ float
 939 071e 0027     		movs	r7, #0
 940 0720 C4F29427 		movt	r7, 17044
 941 0724 4FF0000E 		mov	lr, #0
 942 0728 9360     		str	r3, [r2, #8]	@ float
 943 072a C4F2982E 		movt	lr, 17048
 944 072e 8F60     		str	r7, [r1, #8]	@ float
 945 0730 0027     		movs	r7, #0
 946 0732 D360     		str	r3, [r2, #12]	@ float
 947 0734 C4F29A27 		movt	r7, 17050
 948 0738 C1F80C90 		str	r9, [r1, #12]	@ float
 949 073c 1361     		str	r3, [r2, #16]	@ float
 950 073e C1F810E0 		str	lr, [r1, #16]	@ float
 951 0742 5361     		str	r3, [r2, #20]	@ float
 952 0744 D8F80030 		ldr	r3, [r8]
 953 0748 4F61     		str	r7, [r1, #20]	@ float
 954 074a 0022     		movs	r2, #0
 955 074c C4F28C22 		movt	r2, 17036
 956 0750 4AF6AB21 		movw	r1, #43691
 957 0754 4FF45E77 		mov	r7, #888
 958 0758 C4F2AA01 		movt	r1, 16554
 959 075c CAF86C20 		str	r2, [r10, #108]	@ float
 960 0760 4FF0040B 		mov	fp, #4
 961 0764 8AED178A 		fsts	s16, [r10, #92]
 962 0768 CAED749A 		fsts	s19, [r10, #464]
 963 076c CAF8C441 		str	r4, [r10, #452]
 964 0770 8AED729A 		fsts	s18, [r10, #456]
 965 0774 0020     		movs	r0, #0
 966 0776 C3F81043 		str	r4, [r3, #784]
ARM GAS  C:\Users\pc\AppData\Local\Temp\cchN2LnY.s 			page 18


 967 077a 0023     		movs	r3, #0
 968 077c CAF8DC91 		str	r9, [r10, #476]	@ float
 969 0780 CAF8E021 		str	r2, [r10, #480]	@ float
 970 0784 4FF00109 		mov	r9, #1
 971 0788 1422     		movs	r2, #20
 972 078a CAF8CC31 		str	r3, [r10, #460]	@ float
 973 078e CAF8B431 		str	r3, [r10, #436]	@ float
 974 0792 CAF8C031 		str	r3, [r10, #448]	@ float
 975 0796 CAF8D411 		str	r1, [r10, #468]	@ float
 976 079a CAF81422 		str	r2, [r10, #532]
 977 079e CAF8FCB0 		str	fp, [r10, #252]
 978 07a2 CAF89891 		str	r9, [r10, #408]
 979 07a6 CAF8B091 		str	r9, [r10, #432]
 980 07aa CAF81092 		str	r9, [r10, #528]
 981 07ae CAF8AC41 		str	r4, [r10, #428]
 982 07b2 CAF8BC41 		str	r4, [r10, #444]
 983 07b6 CAF8A841 		str	r4, [r10, #424]
 984 07ba CAF86C72 		str	r7, [r10, #620]
 985 07be CAF85C72 		str	r7, [r10, #604]
 986 07c2 C3F6A070 		movt	r0, 16288
 987 07c6 0592     		str	r2, [sp, #20]
 988 07c8 FFF7FEFF 		bl	_Z24convertVoltageTo10bitADCf
 989 07cc AAF85200 		strh	r0, [r10, #82]	@ movhi
 990 07d0 43F24C70 		movw	r0, #14156
 991 07d4 C4F29100 		movt	r0, 16529
 992 07d8 D6F800A0 		ldr	r10, [r6]
 993 07dc FFF7FEFF 		bl	_Z24convertVoltageTo10bitADCf
 994 07e0 AAF85400 		strh	r0, [r10, #84]	@ movhi
 995 07e4 4CF6CD40 		movw	r0, #52429
 996 07e8 C3F64C60 		movt	r0, 15948
 997 07ec D6F800A0 		ldr	r10, [r6]
 998 07f0 FFF7FEFF 		bl	_Z24convertVoltageTo10bitADCf
 999 07f4 AAF85600 		strh	r0, [r10, #86]	@ movhi
 1000 07f8 0020     		movs	r0, #0
 1001 07fa C4F2C000 		movt	r0, 16576
 1002 07fe D6F800A0 		ldr	r10, [r6]
 1003 0802 FFF7FEFF 		bl	_Z24convertVoltageTo10bitADCf
 1004 0806 3368     		ldr	r3, [r6]
 1005 0808 AAF85800 		strh	r0, [r10, #88]	@ movhi
 1006 080c 93F8D905 		ldrb	r0, [r3, #1497]	@ zero_extendqisi2
 1007 0810 059A     		ldr	r2, [sp, #20]
 1008 0812 93F85010 		ldrb	r1, [r3, #80]	@ zero_extendqisi2
 1009 0816 C3F80422 		str	r2, [r3, #516]
 1010 081a 40EA0900 		orr	r0, r0, r9
 1011 081e 4FF0000A 		mov	r10, #0
 1012 0822 64F34100 		bfi	r0, r4, #1, #1
 1013 0826 64F30001 		bfi	r1, r4, #0, #1
 1014 082a C4F2483A 		movt	r10, 17224
 1015 082e 3222     		movs	r2, #50
 1016 0830 4FF0000C 		mov	ip, #0
 1017 0834 C4F2AF2C 		movt	ip, 17071
 1018 0838 C3F8F021 		str	r2, [r3, #496]
 1019 083c 4FF0080E 		mov	lr, #8
 1020 0840 83F8D905 		strb	r0, [r3, #1497]
 1021 0844 C3F808A0 		str	r10, [r3, #8]	@ float
 1022 0848 0722     		movs	r2, #7
 1023 084a 4FF0020A 		mov	r10, #2
ARM GAS  C:\Users\pc\AppData\Local\Temp\cchN2LnY.s 			page 19


 1024 084e 83F85010 		strb	r1, [r3, #80]
 1025 0852 0620     		movs	r0, #6
 1026 0854 0E21     		movs	r1, #14
 1027 0856 C3F894B1 		str	fp, [r3, #404]
 1028 085a C3F8F891 		str	r9, [r3, #504]
 1029 085e C3F808B2 		str	fp, [r3, #520]
 1030 0862 C3F818E2 		str	lr, [r3, #536]
 1031 0866 C3F81C01 		str	r0, [r3, #284]
 1032 086a C3F83C21 		str	r2, [r3, #316]
 1033 086e C3F84812 		str	r1, [r3, #584]
 1034 0872 C3F89CC1 		str	ip, [r3, #412]	@ float
 1035 0876 C3F8F4A1 		str	r10, [r3, #500]
 1036 087a 03F51270 		add	r0, r3, #584
 1037 087e 5146     		mov	r1, r10
 1038 0880 C3F8EC41 		str	r4, [r3, #492]
 1039 0884 C3ED649A 		fsts	s19, [r3, #400]
 1040 0888 C3F8FC41 		str	r4, [r3, #508]
 1041 088c C3F80076 		str	r7, [r3, #1536]
 1042 0890 C3F8D871 		str	r7, [r3, #472]
 1043 0894 C3F84472 		str	r7, [r3, #580]
 1044 0898 FFF7FEFF 		bl	_Z13initEgoSensorP12afr_sensor_s12ego_sensor_e
 1045 089c 3368     		ldr	r3, [r6]
 1046 089e 93F8E525 		ldrb	r2, [r3, #1509]	@ zero_extendqisi2
 1047 08a2 93F8D905 		ldrb	r0, [r3, #1497]	@ zero_extendqisi2
 1048 08a6 93F8D815 		ldrb	r1, [r3, #1496]	@ zero_extendqisi2
 1049 08aa C3F8F8A0 		str	r10, [r3, #248]
 1050 08ae 40F0C000 		orr	r0, r0, #192
 1051 08b2 64F38612 		bfi	r2, r4, #6, #1
 1052 08b6 61F07401 		orn	r1, r1, #116
 1053 08ba 83F8E525 		strb	r2, [r3, #1509]
 1054 08be 83F8D905 		strb	r0, [r3, #1497]
 1055 08c2 64F38201 		bfi	r1, r4, #2, #1
 1056 08c6 4FF0000E 		mov	lr, #0
 1057 08ca D8F80000 		ldr	r0, [r8]
 1058 08ce C3F86842 		str	r4, [r3, #616]
 1059 08d2 C4F2FA3E 		movt	lr, 17402
 1060 08d6 CAB2     		uxtb	r2, r1
 1061 08d8 0021     		movs	r1, #0
 1062 08da C3F86012 		str	r1, [r3, #608]	@ float
 1063 08de C3F864E2 		str	lr, [r3, #612]	@ float
 1064 08e2 C3ED8E8A 		fsts	s17, [r3, #568]
 1065 08e6 4FF0C80E 		mov	lr, #200
 1066 08ea 07EE101A 		fmsr	s14, r1
 1067 08ee 42F02002 		orr	r2, r2, #32
 1068 08f2 4FF49661 		mov	r1, #1200
 1069 08f6 83F8D825 		strb	r2, [r3, #1496]
 1070 08fa C0F808E0 		str	lr, [r0, #8]
 1071 08fe 80ED059A 		fsts	s18, [r0, #20]
 1072 0902 C3F8E095 		str	r9, [r3, #1504]
 1073 0906 C3F8F075 		str	r7, [r3, #1520]
 1074 090a C3F85476 		str	r7, [r3, #1620]
 1075 090e C3F8EC15 		str	r1, [r3, #1516]
 1076 0912 90F88121 		ldrb	r2, [r0, #385]	@ zero_extendqisi2
 1077 0916 42EA0902 		orr	r2, r2, r9
 1078 091a 64F34102 		bfi	r2, r4, #1, #1
 1079 091e 4FF04A0B 		mov	fp, #74
 1080 0922 4FF04C0A 		mov	r10, #76
ARM GAS  C:\Users\pc\AppData\Local\Temp\cchN2LnY.s 			page 20


 1081 0926 4FF04E09 		mov	r9, #78
 1082 092a 03F20C6C 		addw	ip, r3, #1548
 1083 092e 80F88121 		strb	r2, [r0, #385]
 1084 0932 C0F80CB0 		str	fp, [r0, #12]
 1085 0936 C0F810A0 		str	r10, [r0, #16]
 1086 093a C3F86896 		str	r9, [r3, #1640]
 1087 093e CCED00AA 		fsts	s21, [ip]
 1088 0942 93F8E4B5 		ldrb	fp, [r3, #1508]	@ zero_extendqisi2
 1089 0946 93F8E5A5 		ldrb	r10, [r3, #1509]	@ zero_extendqisi2
 1090 094a 4FF09609 		mov	r9, #150
 1091 094e 4FF4967C 		mov	ip, #300
 1092 0952 4FF43472 		mov	r2, #720
 1093 0956 DFED8A7A 		flds	s15, .L86
 1094 095a 4AF0070A 		orr	r10, r10, #7
 1095 095e C3F86496 		str	r9, [r3, #1636]
 1096 0962 C3F8E8C5 		str	ip, [r3, #1512]
 1097 0966 C3F8A021 		str	r2, [r3, #416]
 1098 096a 4BF0EF0B 		orr	fp, fp, #239
 1099 096e 5022     		movs	r2, #80
 1100 0970 03F20469 		addw	r9, r3, #1540
 1101 0974 03F5C16C 		add	ip, r3, #1544
 1102 0978 83F8E5A5 		strb	r10, [r3, #1509]
 1103 097c 83ED198A 		fsts	s16, [r3, #100]
 1104 0980 83F8E4B5 		strb	fp, [r3, #1508]
 1105 0984 A246     		mov	r10, r4
 1106 0986 A3F8FCE5 		strh	lr, [r3, #1532]	@ movhi
 1107 098a 89ED00AA 		fsts	s20, [r9]
 1108 098e 9646     		mov	lr, r2
 1109 0990 CCED007A 		fsts	s15, [ip]
 1110 0994 C3F8E471 		str	r7, [r3, #484]
 1111 0998 80ED437A 		fsts	s14, [r0, #268]
 1112 099c 80ED448A 		fsts	s16, [r0, #272]
 1113 09a0 C3F8DC75 		str	r7, [r3, #1500]
 1114 09a4 C0F8D010 		str	r1, [r0, #208]
 1115 09a8 C0F8C041 		str	r4, [r0, #448]
 1116 09ac C0F85822 		str	r2, [r0, #600]
 1117              	.L70:
 1118 09b0 00EB0A02 		add	r2, r0, r10
 1119 09b4 0AF1040A 		add	r10, r10, #4
 1120 09b8 BAF1200F 		cmp	r10, #32
 1121 09bc C2F8A0E1 		str	lr, [r2, #416]
 1122 09c0 F6D1     		bne	.L70
 1123 09c2 0022     		movs	r2, #0
 1124 09c4 2C68     		ldr	r4, [r5]
 1125 09c6 9646     		mov	lr, r2
 1126 09c8 0146     		mov	r1, r0
 1127 09ca 5027     		movs	r7, #80
 1128              	.L72:
 1129 09cc 03EB020C 		add	ip, r3, r2
 1130 09d0 0432     		adds	r2, r2, #4
 1131 09d2 402A     		cmp	r2, #64
 1132 09d4 C1F8C471 		str	r7, [r1, #452]
 1133 09d8 4FF0500A 		mov	r10, #80
 1134 09dc 84F8A8E8 		strb	lr, [r4, #2216]
 1135 09e0 4FF00009 		mov	r9, #0
 1136 09e4 C1F82473 		str	r7, [r1, #804]
 1137 09e8 04F1C804 		add	r4, r4, #200
ARM GAS  C:\Users\pc\AppData\Local\Temp\cchN2LnY.s 			page 21


 1138 09ec 01F10401 		add	r1, r1, #4
 1139 09f0 CCF814E6 		str	lr, [ip, #1556]
 1140 09f4 EAD1     		bne	.L72
 1141 09f6 3123     		movs	r3, #49
 1142 09f8 3224     		movs	r4, #50
 1143 09fa C0F868A1 		str	r10, [r0, #360]
 1144 09fe C0F86C91 		str	r9, [r0, #364]
 1145 0a02 C0F87091 		str	r9, [r0, #368]
 1146 0a06 C0F87491 		str	r9, [r0, #372]
 1147 0a0a C0F86031 		str	r3, [r0, #352]
 1148 0a0e C0F86441 		str	r4, [r0, #356]
 1149 0a12 FFF7FEFF 		bl	_Z22setFrankenstein_01_LCDP21board_configuration_s
 1150 0a16 40F20001 		movw	r1, #:lower16:.LC0
 1151 0a1a 40F20003 		movw	r3, #:lower16:.LC1
 1152 0a1e 2868     		ldr	r0, [r5]
 1153 0a20 3268     		ldr	r2, [r6]
 1154 0a22 C0F20001 		movt	r1, #:upper16:.LC0
 1155 0a26 C0F20003 		movt	r3, #:upper16:.LC1
 1156 0a2a 0D88     		ldrh	r5, [r1]	@ unaligned
 1157 0a2c 1B88     		ldrh	r3, [r3]	@ unaligned
 1158 0a2e 00F5A951 		add	r1, r0, #5408
 1159 0a32 00F5AF50 		add	r0, r0, #5600
 1160 0a36 0D81     		strh	r5, [r1, #8]	@ unaligned
 1161 0a38 0382     		strh	r3, [r0, #16]	@ unaligned
 1162 0a3a 92F8D935 		ldrb	r3, [r2, #1497]	@ zero_extendqisi2
 1163 0a3e 43F02003 		orr	r3, r3, #32
 1164 0a42 69F30413 		bfi	r3, r9, #4, #1
 1165 0a46 82F8D935 		strb	r3, [r2, #1497]
 1166 0a4a D8F80030 		ldr	r3, [r8]
 1167 0a4e 0220     		movs	r0, #2
 1168 0a50 1621     		movs	r1, #22
 1169 0a52 F7EE007A 		fconsts	s15, #112
 1170 0a56 1727     		movs	r7, #23
 1171 0a58 2626     		movs	r6, #38
 1172 0a5a 0525     		movs	r5, #5
 1173 0a5c C2F83402 		str	r0, [r2, #564]
 1174 0a60 4FF0640B 		mov	fp, #100
 1175 0a64 C3F884A1 		str	r10, [r3, #388]
 1176 0a68 C3F888A1 		str	r10, [r3, #392]
 1177 0a6c C3F88CA1 		str	r10, [r3, #396]
 1178 0a70 C3F890A1 		str	r10, [r3, #400]
 1179 0a74 C3F818A3 		str	r10, [r3, #792]
 1180 0a78 C3F8C870 		str	r7, [r3, #200]
 1181 0a7c C3F82861 		str	r6, [r3, #296]
 1182 0a80 C3F82C51 		str	r5, [r3, #300]
 1183 0a84 C3F8CC10 		str	r1, [r3, #204]
 1184 0a88 4FF0C808 		mov	r8, #200
 1185 0a8c C2ED7A7A 		fsts	s15, [r2, #488]
 1186 0a90 4FF4967C 		mov	ip, #300
 1187 0a94 C3F84841 		str	r4, [r3, #328]
 1188 0a98 1027     		movs	r7, #16
 1189 0a9a 1C26     		movs	r6, #28
 1190 0a9c 3725     		movs	r5, #55
 1191 0a9e 3524     		movs	r4, #53
 1192 0aa0 83F89491 		strb	r9, [r3, #404]
 1193 0aa4 83F89591 		strb	r9, [r3, #405]
 1194 0aa8 C3F85401 		str	r0, [r3, #340]
ARM GAS  C:\Users\pc\AppData\Local\Temp\cchN2LnY.s 			page 22


 1195 0aac C3F85811 		str	r1, [r3, #344]
 1196 0ab0 C3F8D490 		str	r9, [r3, #212]
 1197 0ab4 C3F8DCA0 		str	r10, [r3, #220]
 1198 0ab8 C3F838B1 		str	fp, [r3, #312]
 1199 0abc C3F83C81 		str	r8, [r3, #316]
 1200 0ac0 C3F840C1 		str	ip, [r3, #320]
 1201 0ac4 C3F85071 		str	r7, [r3, #336]
 1202 0ac8 C3F85C61 		str	r6, [r3, #348]
 1203 0acc C3F8D850 		str	r5, [r3, #216]
 1204 0ad0 C3F8E040 		str	r4, [r3, #224]
 1205 0ad4 93F88051 		ldrb	r5, [r3, #384]	@ zero_extendqisi2
 1206 0ad8 C3F8E4A0 		str	r10, [r3, #228]
 1207 0adc 05F0FC05 		and	r5, r5, #252
 1208 0ae0 1524     		movs	r4, #21
 1209 0ae2 4FF01D0C 		mov	ip, #29
 1210 0ae6 45F03C05 		orr	r5, r5, #60
 1211 0aea C3F8E8C2 		str	ip, [r3, #744]
 1212 0aee C3F8D442 		str	r4, [r3, #724]
 1213 0af2 C3F8EC42 		str	r4, [r3, #748]
 1214 0af6 69F3C715 		bfi	r5, r9, #7, #1
 1215 0afa 9FED227A 		flds	s14, .L86+4
 1216 0afe 4FF01F0A 		mov	r10, #31
 1217 0b02 4FF01E08 		mov	r8, #30
 1218 0b06 3427     		movs	r7, #52
 1219 0b08 02F6A40C 		addw	ip, r2, #2212
 1220 0b0c 02F50964 		add	r4, r2, #2192
 1221 0b10 4CF6CD4B 		movw	fp, #52429
 1222 0b14 C3EDBE7A 		fsts	s15, [r3, #760]
 1223 0b18 C3F8E0A2 		str	r10, [r3, #736]
 1224 0b1c C3F8E482 		str	r8, [r3, #740]
 1225 0b20 C3F84471 		str	r7, [r3, #324]
 1226 0b24 83F88051 		strb	r5, [r3, #384]
 1227 0b28 1420     		movs	r0, #20
 1228 0b2a 1321     		movs	r1, #19
 1229 0b2c C3F64C5B 		movt	fp, 15692
 1230 0b30 4FF41649 		mov	r9, #38400
 1231 0b34 0626     		movs	r6, #6
 1232 0b36 02F50A6A 		add	r10, r2, #2208
 1233 0b3a F1EE047A 		fconsts	s15, #20
 1234 0b3e 4FF08048 		mov	r8, #1073741824
 1235 0b42 0C27     		movs	r7, #12
 1236 0b44 02F68C05 		addw	r5, r2, #2188
 1237 0b48 C3F84C91 		str	r9, [r3, #332]
 1238 0b4c C3F8D802 		str	r0, [r3, #728]
 1239 0b50 C3F8F002 		str	r0, [r3, #752]
 1240 0b54 C3F8DC12 		str	r1, [r3, #732]
 1241 0b58 C3F8F412 		str	r1, [r3, #756]
 1242 0b5c C2F89468 		str	r6, [r2, #2196]
 1243 0b60 CAED007A 		fsts	s15, [r10]
 1244 0b64 CCF80080 		str	r8, [ip]	@ float
 1245 0b68 C2F88878 		str	r7, [r2, #2184]
 1246 0b6c 85ED007A 		fsts	s14, [r5]
 1247 0b70 C4F800B0 		str	fp, [r4]	@ float
 1248 0b74 07B0     		add	sp, sp, #28
 1249              		@ sp needed
 1250 0b76 BDEC068B 		fldmfdd	sp!, {d8-d10}
 1251 0b7a BDE8F08F 		pop	{r4, r5, r6, r7, r8, r9, r10, fp, pc}
ARM GAS  C:\Users\pc\AppData\Local\Temp\cchN2LnY.s 			page 23


 1252              	.L87:
 1253 0b7e 00BF     		.align	2
 1254              	.L86:
 1255 0b80 00000743 		.word	1124532224
 1256 0b84 00002042 		.word	1109393408
 1257              		.size	_Z23setDefaultConfigurationv, .-_Z23setDefaultConfigurationv
 1258 0b88 AFF30080 		.section	.text._ZN23engine_configuration2_sC2Ev,"ax",%progbits
 1258      AFF30080 
 1259              		.align	2
 1260              		.p2align 4,,15
 1261              		.global	_ZN23engine_configuration2_sC2Ev
 1262              		.thumb
 1263              		.thumb_func
 1264              		.type	_ZN23engine_configuration2_sC2Ev, %function
 1265              	_ZN23engine_configuration2_sC2Ev:
 1266              		@ args = 0, pretend = 0, frame = 0
 1267              		@ frame_needed = 0, uses_anonymous_args = 0
 1268 0000 2DE9F843 		push	{r3, r4, r5, r6, r7, r8, r9, lr}
 1269 0004 8046     		mov	r8, r0
 1270 0006 FFF7FEFF 		bl	_ZN12FuelScheduleC1Ev
 1271 000a 08F5BC50 		add	r0, r8, #6016
 1272 000e 0830     		adds	r0, r0, #8
 1273 0010 08F53D56 		add	r6, r8, #12096
 1274 0014 FFF7FEFF 		bl	_ZN12FuelScheduleC1Ev
 1275 0018 06F57057 		add	r7, r6, #15360
 1276 001c 2837     		adds	r7, r7, #40
 1277 001e 1836     		adds	r6, r6, #24
 1278 0020 4FF00009 		mov	r9, #0
 1279              	.L92:
 1280 0024 06F5F055 		add	r5, r6, #7680
 1281 0028 3446     		mov	r4, r6
 1282              	.L90:
 1283 002a 2046     		mov	r0, r4
 1284 002c 6034     		adds	r4, r4, #96
 1285 002e FFF7FEFF 		bl	_ZN13IgnitionEventC1Ev
 1286 0032 AC42     		cmp	r4, r5
 1287 0034 F9D1     		bne	.L90
 1288 0036 3046     		mov	r0, r6
 1289 0038 0021     		movs	r1, #0
 1290 003a 4FF4F052 		mov	r2, #7680
 1291 003e FFF7FEFF 		bl	memset
 1292 0042 46F8089C 		str	r9, [r6, #-8]
 1293 0046 04F10806 		add	r6, r4, #8
 1294 004a BE42     		cmp	r6, r7
 1295 004c EAD1     		bne	.L92
 1296 004e 4046     		mov	r0, r8
 1297 0050 BDE8F883 		pop	{r3, r4, r5, r6, r7, r8, r9, pc}
 1298              		.size	_ZN23engine_configuration2_sC2Ev, .-_ZN23engine_configuration2_sC2Ev
 1299              		.global	_ZN23engine_configuration2_sC1Ev
 1300              		.thumb_set _ZN23engine_configuration2_sC1Ev,_ZN23engine_configuration2_sC2Ev
 1301 0054 AFF30080 		.section	.text._Z31applyNonPersistentConfigurationP7Logging,"ax",%progbits
 1301      AFF30080 
 1301      AFF30080 
 1302              		.align	2
 1303              		.p2align 4,,15
 1304              		.global	_Z31applyNonPersistentConfigurationP7Logging
 1305              		.thumb
ARM GAS  C:\Users\pc\AppData\Local\Temp\cchN2LnY.s 			page 24


 1306              		.thumb_func
 1307              		.type	_Z31applyNonPersistentConfigurationP7Logging, %function
 1308              	_Z31applyNonPersistentConfigurationP7Logging:
 1309              		@ args = 0, pretend = 0, frame = 0
 1310              		@ frame_needed = 0, uses_anonymous_args = 0
 1311 0000 38B5     		push	{r3, r4, r5, lr}
 1312 0002 40F20004 		movw	r4, #:lower16:engine
 1313 0006 C0F20004 		movt	r4, #:upper16:engine
 1314 000a 40F20001 		movw	r1, #:lower16:.LC2
 1315 000e C0F20001 		movt	r1, #:upper16:.LC2
 1316 0012 0546     		mov	r5, r0
 1317 0014 FFF7FEFF 		bl	scheduleMsg
 1318 0018 2068     		ldr	r0, [r4]
 1319 001a 2946     		mov	r1, r5
 1320 001c 00F52170 		add	r0, r0, #644
 1321 0020 FFF7FEFF 		bl	_ZN12TriggerShape22initializeTriggerShapeEP7Logging
 1322 0024 2068     		ldr	r0, [r4]
 1323 0026 00F52170 		add	r0, r0, #644
 1324 002a FFF7FEFF 		bl	_ZNK12TriggerShape7getSizeEv
 1325 002e C8B1     		cbz	r0, .L96
 1326 0030 2068     		ldr	r0, [r4]
 1327 0032 00F52170 		add	r0, r0, #644
 1328 0036 FFF7FEFF 		bl	_ZNK12TriggerShape7getSizeEv
 1329 003a 58B1     		cbz	r0, .L97
 1330 003c 2468     		ldr	r4, [r4]
 1331 003e 04F52170 		add	r0, r4, #644
 1332 0042 FFF7FEFF 		bl	_ZNK12TriggerShape9getLengthEv
 1333 0046 04F5F754 		add	r4, r4, #7904
 1334 004a E061     		str	r0, [r4, #28]
 1335 004c BDE83840 		pop	{r3, r4, r5, lr}
 1336 0050 FFF7FEBF 		b	_Z22applyFsioConfigurationv
 1337              	.L97:
 1338 0054 40F20000 		movw	r0, #:lower16:.LC4
 1339 0058 C0F20000 		movt	r0, #:upper16:.LC4
 1340 005c BDE83840 		pop	{r3, r4, r5, lr}
 1341 0060 FFF7FEBF 		b	firmwareError
 1342              	.L96:
 1343 0064 40F20000 		movw	r0, #:lower16:.LC3
 1344 0068 C0F20000 		movt	r0, #:upper16:.LC3
 1345 006c BDE83840 		pop	{r3, r4, r5, lr}
 1346 0070 FFF7FEBF 		b	firmwareError
 1347              		.size	_Z31applyNonPersistentConfigurationP7Logging, .-_Z31applyNonPersistentConfigurationP7Logging
 1348 0074 AFF30080 		.section	.text._Z21resetConfigurationExtP7Logging13engine_type_e,"ax",%progbits
 1348      AFF30080 
 1348      AFF30080 
 1349              		.align	2
 1350              		.p2align 4,,15
 1351              		.global	_Z21resetConfigurationExtP7Logging13engine_type_e
 1352              		.thumb
 1353              		.thumb_func
 1354              		.type	_Z21resetConfigurationExtP7Logging13engine_type_e, %function
 1355              	_Z21resetConfigurationExtP7Logging13engine_type_e:
 1356              		@ args = 0, pretend = 0, frame = 0
 1357              		@ frame_needed = 0, uses_anonymous_args = 0
 1358 0000 70B5     		push	{r4, r5, r6, lr}
 1359 0002 40F20004 		movw	r4, #:lower16:engineConfiguration
 1360 0006 C0F20004 		movt	r4, #:upper16:engineConfiguration
ARM GAS  C:\Users\pc\AppData\Local\Temp\cchN2LnY.s 			page 25


 1361 000a 0646     		mov	r6, r0
 1362 000c 0D46     		mov	r5, r1
 1363 000e FFF7FEFF 		bl	_Z23setDefaultConfigurationv
 1364 0012 2068     		ldr	r0, [r4]
 1365 0014 41F23922 		movw	r2, #4665
 1366 0018 C0F22212 		movt	r2, 290
 1367 001c 0560     		str	r5, [r0]
 1368 001e 4260     		str	r2, [r0, #4]
 1369 0020 202D     		cmp	r5, #32
 1370 0022 00F28D80 		bhi	.L99
 1371 0026 DFE805F0 		tbb	[pc, r5]
 1372              	.L101:
 1373 002a 88       		.byte	(.L100-.L101)/2
 1374 002b 8B       		.byte	(.L99-.L101)/2
 1375 002c 85       		.byte	(.L102-.L101)/2
 1376 002d 82       		.byte	(.L103-.L101)/2
 1377 002e 7F       		.byte	(.L104-.L101)/2
 1378 002f 7C       		.byte	(.L105-.L101)/2
 1379 0030 79       		.byte	(.L106-.L101)/2
 1380 0031 76       		.byte	(.L107-.L101)/2
 1381 0032 73       		.byte	(.L108-.L101)/2
 1382 0033 70       		.byte	(.L109-.L101)/2
 1383 0034 6D       		.byte	(.L110-.L101)/2
 1384 0035 6A       		.byte	(.L111-.L101)/2
 1385 0036 67       		.byte	(.L112-.L101)/2
 1386 0037 64       		.byte	(.L113-.L101)/2
 1387 0038 61       		.byte	(.L114-.L101)/2
 1388 0039 5E       		.byte	(.L115-.L101)/2
 1389 003a 5B       		.byte	(.L116-.L101)/2
 1390 003b 58       		.byte	(.L117-.L101)/2
 1391 003c 55       		.byte	(.L118-.L101)/2
 1392 003d 52       		.byte	(.L119-.L101)/2
 1393 003e 4F       		.byte	(.L120-.L101)/2
 1394 003f 4C       		.byte	(.L121-.L101)/2
 1395 0040 49       		.byte	(.L122-.L101)/2
 1396 0041 46       		.byte	(.L123-.L101)/2
 1397 0042 43       		.byte	(.L124-.L101)/2
 1398 0043 40       		.byte	(.L125-.L101)/2
 1399 0044 3D       		.byte	(.L126-.L101)/2
 1400 0045 3A       		.byte	(.L127-.L101)/2
 1401 0046 37       		.byte	(.L128-.L101)/2
 1402 0047 34       		.byte	(.L129-.L101)/2
 1403 0048 31       		.byte	(.L130-.L101)/2
 1404 0049 2E       		.byte	(.L131-.L101)/2
 1405 004a 11       		.byte	(.L132-.L101)/2
 1406 004b 00       		.align	1
 1407              	.L132:
 1408 004c FFF7FEFF 		bl	_Z8setVwAbav
 1409              	.L133:
 1410 0050 3046     		mov	r0, r6
 1411 0052 FFF7FEFF 		bl	_Z31applyNonPersistentConfigurationP7Logging
 1412 0056 40F20003 		movw	r3, #:lower16:engine
 1413 005a C0F20003 		movt	r3, #:upper16:engine
 1414 005e 2268     		ldr	r2, [r4]
 1415 0060 1868     		ldr	r0, [r3]
 1416 0062 D2F8F441 		ldr	r4, [r2, #500]
 1417 0066 00F52170 		add	r0, r0, #644
ARM GAS  C:\Users\pc\AppData\Local\Temp\cchN2LnY.s 			page 26


 1418 006a FFF7FEFF 		bl	_ZN12TriggerShape16getOperationModeEv
 1419 006e 8442     		cmp	r4, r0
 1420 0070 05D0     		beq	.L134
 1421 0072 40F20000 		movw	r0, #:lower16:.LC6
 1422 0076 C0F20000 		movt	r0, #:upper16:.LC6
 1423 007a FFF7FEFF 		bl	firmwareError
 1424              	.L134:
 1425 007e BDE87040 		pop	{r4, r5, r6, lr}
 1426 0082 FFF7FEBF 		b	_Z19syncTunerStudioCopyv
 1427              	.L131:
 1428 0086 FFF7FEFF 		bl	_Z15setDodgeRam1996v
 1429 008a E1E7     		b	.L133
 1430              	.L130:
 1431 008c FFF7FEFF 		bl	_Z8setGm2_2v
 1432 0090 DEE7     		b	.L133
 1433              	.L129:
 1434 0092 FFF7FEFF 		bl	_Z8setSachsv
 1435 0096 DBE7     		b	.L133
 1436              	.L128:
 1437 0098 FFF7FEFF 		bl	_Z30setMazda626EngineConfigurationv
 1438 009c D8E7     		b	.L133
 1439              	.L127:
 1440 009e FFF7FEFF 		bl	_Z11setAcuraRSXP22engine_configuration_s
 1441 00a2 D5E7     		b	.L133
 1442              	.L126:
 1443 00a4 FFF7FEFF 		bl	_Z26setTestEngineConfigurationv
 1444 00a8 D2E7     		b	.L133
 1445              	.L125:
 1446 00aa FFF7FEFF 		bl	_Z9setBmwE34v
 1447 00ae CFE7     		b	.L133
 1448              	.L124:
 1449 00b0 FFF7FEFF 		bl	_Z14setMiata1994_sv
 1450 00b4 CCE7     		b	.L133
 1451              	.L123:
 1452 00b6 FFF7FEFF 		bl	_Z34setDodgeNeonNGCEngineConfigurationv
 1453 00ba C9E7     		b	.L133
 1454              	.L122:
 1455 00bc FFF7FEFF 		bl	_Z16setSubaru2003Wrxv
 1456 00c0 C6E7     		b	.L133
 1457              	.L121:
 1458 00c2 FFF7FEFF 		bl	_Z12setMiata1996v
 1459 00c6 C3E7     		b	.L133
 1460              	.L120:
 1461 00c8 FFF7FEFF 		bl	_Z14setMiata1994_dv
 1462 00cc C0E7     		b	.L133
 1463              	.L119:
 1464 00ce FFF7FEFF 		bl	_Z12setMiata1990v
 1465 00d2 BDE7     		b	.L133
 1466              	.L118:
 1467 00d4 FFF7FEFF 		bl	_Z30setHondaAccordConfigurationDipv
 1468 00d8 BAE7     		b	.L133
 1469              	.L117:
 1470 00da FFF7FEFF 		bl	_Z35setHondaAccordConfigurationTwoWiresv
 1471 00de B7E7     		b	.L133
 1472              	.L116:
 1473 00e0 FFF7FEFF 		bl	_Z26setMitsubishiConfigurationv
 1474 00e4 B4E7     		b	.L133
ARM GAS  C:\Users\pc\AppData\Local\Temp\cchN2LnY.s 			page 27


 1475              	.L115:
 1476 00e6 FFF7FEFF 		bl	_Z36setCitroenBerlingoTU3JPConfigurationv
 1477 00ea B1E7     		b	.L133
 1478              	.L114:
 1479 00ec FFF7FEFF 		bl	_Z15setFordEscortGtv
 1480 00f0 AEE7     		b	.L133
 1481              	.L113:
 1482 00f2 FFF7FEFF 		bl	_Z16setMiniCooperR50P22engine_configuration_s
 1483 00f6 ABE7     		b	.L133
 1484              	.L112:
 1485 00f8 FFF7FEFF 		bl	setSaturnIonEngineConfiguration
 1486 00fc A8E7     		b	.L133
 1487              	.L111:
 1488 00fe FFF7FEFF 		bl	_Z30setMazda323EngineConfigurationP22engine_configuration_s
 1489 0102 A5E7     		b	.L133
 1490              	.L110:
 1491 0104 FFF7FEFF 		bl	_Z10setRoverv8v
 1492 0108 A2E7     		b	.L133
 1493              	.L109:
 1494 010a FFF7FEFF 		bl	_Z34setMazdaMiataNbEngineConfigurationv
 1495 010e 9FE7     		b	.L133
 1496              	.L108:
 1497 0110 FFF7FEFF 		bl	_Z38setGy6139qmbDefaultEngineConfigurationv
 1498 0114 9CE7     		b	.L133
 1499              	.L107:
 1500 0116 FFF7FEFF 		bl	_Z14setFordInline6v
 1501 011a 99E7     		b	.L133
 1502              	.L106:
 1503 011c FFF7FEFF 		bl	_Z37setHondaAccordConfigurationThreeWiresv
 1504 0120 96E7     		b	.L133
 1505              	.L105:
 1506 0122 FFF7FEFF 		bl	_Z35setNissanPrimeraEngineConfigurationP22engine_configuration_s
 1507 0126 93E7     		b	.L133
 1508              	.L104:
 1509 0128 FFF7FEFF 		bl	_Z39setFordFiestaDefaultEngineConfigurationP22engine_configuration_s
 1510 012c 90E7     		b	.L133
 1511              	.L103:
 1512 012e FFF7FEFF 		bl	_Z32setFordAspireEngineConfigurationv
 1513 0132 8DE7     		b	.L133
 1514              	.L102:
 1515 0134 FFF7FEFF 		bl	_Z35setDodgeNeon1995EngineConfigurationv
 1516 0138 8AE7     		b	.L133
 1517              	.L100:
 1518 013a FFF7FEFF 		bl	_Z28setCustomEngineConfigurationv
 1519 013e 87E7     		b	.L133
 1520              	.L99:
 1521 0140 40F20000 		movw	r0, #:lower16:.LC5
 1522 0144 2946     		mov	r1, r5
 1523 0146 C0F20000 		movt	r0, #:upper16:.LC5
 1524 014a FFF7FEFF 		bl	firmwareError
 1525 014e 7FE7     		b	.L133
 1526              		.size	_Z21resetConfigurationExtP7Logging13engine_type_e, .-_Z21resetConfigurationExtP7Logging13eng
 1527              		.section	.text._Z13prepareShapesv,"ax",%progbits
 1528              		.align	2
 1529              		.p2align 4,,15
 1530              		.global	_Z13prepareShapesv
 1531              		.thumb
ARM GAS  C:\Users\pc\AppData\Local\Temp\cchN2LnY.s 			page 28


 1532              		.thumb_func
 1533              		.type	_Z13prepareShapesv, %function
 1534              	_Z13prepareShapesv:
 1535              		@ args = 0, pretend = 0, frame = 0
 1536              		@ frame_needed = 0, uses_anonymous_args = 0
 1537 0000 40F20003 		movw	r3, #:lower16:engine
 1538 0004 C0F20003 		movt	r3, #:upper16:engine
 1539 0008 10B5     		push	{r4, lr}
 1540 000a 1B68     		ldr	r3, [r3]
 1541 000c 9C6A     		ldr	r4, [r3, #40]
 1542 000e FFF7FEFF 		bl	_Z20prepareOutputSignalsv
 1543 0012 04F53D52 		add	r2, r4, #12096
 1544 0016 0020     		movs	r0, #0
 1545 0018 1032     		adds	r2, r2, #16
 1546 001a 0146     		mov	r1, r0	@ float
 1547 001c BDE81040 		pop	{r4, lr}
 1548 0020 FFF7FEBF 		b	_Z25initializeIgnitionActionsffP9ArrayListI13IgnitionEventLi80EE
 1549              		.size	_Z13prepareShapesv, .-_Z13prepareShapesv
 1550 0024 AFF30080 		.section	.text._Z16getRpmMultiplier16operation_mode_e,"ax",%progbits
 1550      AFF30080 
 1550      AFF30080 
 1551              		.align	2
 1552              		.p2align 4,,15
 1553              		.global	_Z16getRpmMultiplier16operation_mode_e
 1554              		.thumb
 1555              		.thumb_func
 1556              		.type	_Z16getRpmMultiplier16operation_mode_e, %function
 1557              	_Z16getRpmMultiplier16operation_mode_e:
 1558              		@ args = 0, pretend = 0, frame = 0
 1559              		@ frame_needed = 0, uses_anonymous_args = 0
 1560              		@ link register save eliminated.
 1561 0000 0228     		cmp	r0, #2
 1562 0002 B7EE007A 		fconsts	s14, #112
 1563 0006 F6EE007A 		fconsts	s15, #96
 1564 000a 0CBF     		ite	eq
 1565 000c 17EE900A 		fmrseq	r0, s15
 1566 0010 17EE100A 		fmrsne	r0, s14
 1567 0014 7047     		bx	lr
 1568              		.size	_Z16getRpmMultiplier16operation_mode_e, .-_Z16getRpmMultiplier16operation_mode_e
 1569 0016 00BFAFF3 		.section	.text._Z16setOperationModeP22engine_configuration_s16operation_mode_e,"ax",%progbits
 1569      0080AFF3 
 1569      0080
 1570              		.align	2
 1571              		.p2align 4,,15
 1572              		.global	_Z16setOperationModeP22engine_configuration_s16operation_mode_e
 1573              		.thumb
 1574              		.thumb_func
 1575              		.type	_Z16setOperationModeP22engine_configuration_s16operation_mode_e, %function
 1576              	_Z16setOperationModeP22engine_configuration_s16operation_mode_e:
 1577              		@ args = 0, pretend = 0, frame = 0
 1578              		@ frame_needed = 0, uses_anonymous_args = 0
 1579              		@ link register save eliminated.
 1580 0000 C0F8F411 		str	r1, [r0, #500]
 1581 0004 7047     		bx	lr
 1582              		.size	_Z16setOperationModeP22engine_configuration_s16operation_mode_e, .-_Z16setOperationModeP22en
 1583 0006 00BFAFF3 		.section	.text._Z16getOperationModePK22engine_configuration_s,"ax",%progbits
 1583      0080AFF3 
ARM GAS  C:\Users\pc\AppData\Local\Temp\cchN2LnY.s 			page 29


 1583      0080
 1584              		.align	2
 1585              		.p2align 4,,15
 1586              		.global	_Z16getOperationModePK22engine_configuration_s
 1587              		.thumb
 1588              		.thumb_func
 1589              		.type	_Z16getOperationModePK22engine_configuration_s, %function
 1590              	_Z16getOperationModePK22engine_configuration_s:
 1591              		@ args = 0, pretend = 0, frame = 0
 1592              		@ frame_needed = 0, uses_anonymous_args = 0
 1593              		@ link register save eliminated.
 1594 0000 D0F8F401 		ldr	r0, [r0, #500]
 1595 0004 7047     		bx	lr
 1596              		.size	_Z16getOperationModePK22engine_configuration_s, .-_Z16getOperationModePK22engine_configurati
 1597 0006 00BFAFF3 		.section	.text._Z27commonFrankensoAnalogInputsP22engine_configuration_s,"ax",%progbits
 1597      0080AFF3 
 1597      0080
 1598              		.align	2
 1599              		.p2align 4,,15
 1600              		.global	_Z27commonFrankensoAnalogInputsP22engine_configuration_s
 1601              		.thumb
 1602              		.thumb_func
 1603              		.type	_Z27commonFrankensoAnalogInputsP22engine_configuration_s, %function
 1604              	_Z27commonFrankensoAnalogInputsP22engine_configuration_s:
 1605              		@ args = 0, pretend = 0, frame = 0
 1606              		@ frame_needed = 0, uses_anonymous_args = 0
 1607              		@ link register save eliminated.
 1608 0000 0E23     		movs	r3, #14
 1609 0002 C0F8D831 		str	r3, [r0, #472]
 1610 0006 7047     		bx	lr
 1611              		.size	_Z27commonFrankensoAnalogInputsP22engine_configuration_s, .-_Z27commonFrankensoAnalogInputsP
 1612 0008 AFF30080 		.section	.text._Z24setFrankenso0_1_joystickP22engine_configuration_s,"ax",%progbits
 1612      AFF30080 
 1613              		.align	2
 1614              		.p2align 4,,15
 1615              		.global	_Z24setFrankenso0_1_joystickP22engine_configuration_s
 1616              		.thumb
 1617              		.thumb_func
 1618              		.type	_Z24setFrankenso0_1_joystickP22engine_configuration_s, %function
 1619              	_Z24setFrankenso0_1_joystickP22engine_configuration_s:
 1620              		@ args = 0, pretend = 0, frame = 0
 1621              		@ frame_needed = 0, uses_anonymous_args = 0
 1622              		@ link register save eliminated.
 1623 0000 10B4     		push	{r4}
 1624 0002 90F8D945 		ldrb	r4, [r0, #1497]	@ zero_extendqisi2
 1625 0006 2823     		movs	r3, #40
 1626 0008 44F00804 		orr	r4, r4, #8
 1627 000c C0F86C35 		str	r3, [r0, #1388]
 1628 0010 3A21     		movs	r1, #58
 1629 0012 5023     		movs	r3, #80
 1630 0014 3B22     		movs	r2, #59
 1631 0016 80F8D945 		strb	r4, [r0, #1497]
 1632 001a C0F87015 		str	r1, [r0, #1392]
 1633 001e C0F87C25 		str	r2, [r0, #1404]
 1634 0022 C0F87435 		str	r3, [r0, #1396]
 1635 0026 C0F87835 		str	r3, [r0, #1400]
 1636 002a 5DF8044B 		ldr	r4, [sp], #4
ARM GAS  C:\Users\pc\AppData\Local\Temp\cchN2LnY.s 			page 30


 1637 002e 7047     		bx	lr
 1638              		.size	_Z24setFrankenso0_1_joystickP22engine_configuration_s, .-_Z24setFrankenso0_1_joystickP22engi
 1639              		.section	.text._Z13copyFuelTablePA16_KfPA16_f,"ax",%progbits
 1640              		.align	2
 1641              		.p2align 4,,15
 1642              		.global	_Z13copyFuelTablePA16_KfPA16_f
 1643              		.thumb
 1644              		.thumb_func
 1645              		.type	_Z13copyFuelTablePA16_KfPA16_f, %function
 1646              	_Z13copyFuelTablePA16_KfPA16_f:
 1647              		@ args = 0, pretend = 0, frame = 0
 1648              		@ frame_needed = 0, uses_anonymous_args = 0
 1649              		@ link register save eliminated.
 1650 0000 70B4     		push	{r4, r5, r6}
 1651 0002 0026     		movs	r6, #0
 1652              	.L144:
 1653 0004 8C19     		adds	r4, r1, r6
 1654 0006 8219     		adds	r2, r0, r6
 1655 0008 1023     		movs	r3, #16
 1656              	.L147:
 1657 000a 52F8045B 		ldr	r5, [r2], #4	@ float
 1658 000e 013B     		subs	r3, r3, #1
 1659 0010 44F8045B 		str	r5, [r4], #4	@ float
 1660 0014 F9D1     		bne	.L147
 1661 0016 4036     		adds	r6, r6, #64
 1662 0018 B6F5806F 		cmp	r6, #1024
 1663 001c F2D1     		bne	.L144
 1664 001e 70BC     		pop	{r4, r5, r6}
 1665 0020 7047     		bx	lr
 1666              		.size	_Z13copyFuelTablePA16_KfPA16_f, .-_Z13copyFuelTablePA16_KfPA16_f
 1667 0022 00BFAFF3 		.section	.text._Z15copyTimingTablePA16_KfPA16_f,"ax",%progbits
 1667      0080AFF3 
 1667      0080AFF3 
 1667      0080
 1668              		.align	2
 1669              		.p2align 4,,15
 1670              		.global	_Z15copyTimingTablePA16_KfPA16_f
 1671              		.thumb
 1672              		.thumb_func
 1673              		.type	_Z15copyTimingTablePA16_KfPA16_f, %function
 1674              	_Z15copyTimingTablePA16_KfPA16_f:
 1675              		@ args = 0, pretend = 0, frame = 0
 1676              		@ frame_needed = 0, uses_anonymous_args = 0
 1677              		@ link register save eliminated.
 1678 0000 70B4     		push	{r4, r5, r6}
 1679 0002 0026     		movs	r6, #0
 1680              	.L150:
 1681 0004 8C19     		adds	r4, r1, r6
 1682 0006 8219     		adds	r2, r0, r6
 1683 0008 1023     		movs	r3, #16
 1684              	.L153:
 1685 000a 52F8045B 		ldr	r5, [r2], #4	@ float
 1686 000e 013B     		subs	r3, r3, #1
 1687 0010 44F8045B 		str	r5, [r4], #4	@ float
 1688 0014 F9D1     		bne	.L153
 1689 0016 4036     		adds	r6, r6, #64
 1690 0018 B6F5806F 		cmp	r6, #1024
ARM GAS  C:\Users\pc\AppData\Local\Temp\cchN2LnY.s 			page 31


 1691 001c F2D1     		bne	.L150
 1692 001e 70BC     		pop	{r4, r5, r6}
 1693 0020 7047     		bx	lr
 1694              		.size	_Z15copyTimingTablePA16_KfPA16_f, .-_Z15copyTimingTablePA16_KfPA16_f
 1695 0022 00BFAFF3 		.section	.rodata.str1.4,"aMS",%progbits,1
 1695      0080AFF3 
 1695      0080AFF3 
 1695      0080
 1696              		.align	2
 1697              	.LC0:
 1698 0000 3100     		.ascii	"1\000"
 1699 0002 0000     		.space	2
 1700              	.LC1:
 1701 0004 3000     		.ascii	"0\000"
 1702 0006 0000     		.space	2
 1703              	.LC2:
 1704 0008 6170706C 		.ascii	"applyNonPersistentConfiguration()\000"
 1704      794E6F6E 
 1704      50657273 
 1704      69737465 
 1704      6E74436F 
 1705 002a 0000     		.space	2
 1706              	.LC3:
 1707 002c 74726967 		.ascii	"triggerShape size is zero\000"
 1707      67657253 
 1707      68617065 
 1707      2073697A 
 1707      65206973 
 1708 0046 0000     		.space	2
 1709              	.LC4:
 1710 0048 73686166 		.ascii	"shaftPositionEventCount is zero\000"
 1710      74506F73 
 1710      6974696F 
 1710      6E457665 
 1710      6E74436F 
 1711              	.LC5:
 1712 0068 556E6578 		.ascii	"Unexpected engine type: %d\000"
 1712      70656374 
 1712      65642065 
 1712      6E67696E 
 1712      65207479 
 1713 0083 00       		.space	1
 1714              	.LC6:
 1715 0084 6F706572 		.ascii	"operationMode mismatch\000"
 1715      6174696F 
 1715      6E4D6F64 
 1715      65206D69 
 1715      736D6174 
 1716 009b 00       		.section	.bss._ZL26globalConfigurationVersion,"aw",%nobits
 1717              		.align	2
 1718              		.set	.LANCHOR0,. + 0
 1719              		.type	_ZL26globalConfigurationVersion, %object
 1720              		.size	_ZL26globalConfigurationVersion, 4
 1721              	_ZL26globalConfigurationVersion:
 1722 0000 00000000 		.space	4
 1723              		.ident	"GCC: (Sourcery CodeBench Lite 2013.11-24) 4.8.1"
ARM GAS  C:\Users\pc\AppData\Local\Temp\cchN2LnY.s 			page 32


DEFINED SYMBOLS
                            *ABS*:00000000 engine_configuration.cpp
C:\Users\pc\AppData\Local\Temp\cchN2LnY.s:17     .text._Z29getGlobalConfigurationVersionv:00000000 $t
C:\Users\pc\AppData\Local\Temp\cchN2LnY.s:23     .text._Z29getGlobalConfigurationVersionv:00000000 _Z29getGlobalConfigurationVersionv
C:\Users\pc\AppData\Local\Temp\cchN2LnY.s:1718   .bss._ZL26globalConfigurationVersion:00000000 .LANCHOR0
C:\Users\pc\AppData\Local\Temp\cchN2LnY.s:33     .text._Z35incrementGlobalConfigurationVersionv:00000000 $t
C:\Users\pc\AppData\Local\Temp\cchN2LnY.s:39     .text._Z35incrementGlobalConfigurationVersionv:00000000 _Z35incrementGlobalConfigurationVersionv
C:\Users\pc\AppData\Local\Temp\cchN2LnY.s:51     .text._Z16setConstantDwellf:00000000 $t
C:\Users\pc\AppData\Local\Temp\cchN2LnY.s:57     .text._Z16setConstantDwellf:00000000 _Z16setConstantDwellf
C:\Users\pc\AppData\Local\Temp\cchN2LnY.s:77     .text._Z6setMapPA16_ff:00000000 $t
C:\Users\pc\AppData\Local\Temp\cchN2LnY.s:83     .text._Z6setMapPA16_ff:00000000 _Z6setMapPA16_ff
C:\Users\pc\AppData\Local\Temp\cchN2LnY.s:104    .text._Z15setWholeFuelMapf:00000000 $t
C:\Users\pc\AppData\Local\Temp\cchN2LnY.s:110    .text._Z15setWholeFuelMapf:00000000 _Z15setWholeFuelMapf
C:\Users\pc\AppData\Local\Temp\cchN2LnY.s:136    .text._Z20setFuelTablesLoadBinff:00000000 $t
C:\Users\pc\AppData\Local\Temp\cchN2LnY.s:142    .text._Z20setFuelTablesLoadBinff:00000000 _Z20setFuelTablesLoadBinff
C:\Users\pc\AppData\Local\Temp\cchN2LnY.s:181    .text._Z12setTimingMapPA16_ff:00000000 $t
C:\Users\pc\AppData\Local\Temp\cchN2LnY.s:187    .text._Z12setTimingMapPA16_ff:00000000 _Z12setTimingMapPA16_ff
C:\Users\pc\AppData\Local\Temp\cchN2LnY.s:208    .text._Z26setWholeIatCorrTimingTablef:00000000 $t
C:\Users\pc\AppData\Local\Temp\cchN2LnY.s:214    .text._Z26setWholeIatCorrTimingTablef:00000000 _Z26setWholeIatCorrTimingTablef
C:\Users\pc\AppData\Local\Temp\cchN2LnY.s:240    .text._Z19setWholeTimingTablef:00000000 $t
C:\Users\pc\AppData\Local\Temp\cchN2LnY.s:246    .text._Z19setWholeTimingTablef:00000000 _Z19setWholeTimingTablef
C:\Users\pc\AppData\Local\Temp\cchN2LnY.s:272    .text._Z24prepareVoidConfigurationP22engine_configuration_s:00000000 $t
C:\Users\pc\AppData\Local\Temp\cchN2LnY.s:278    .text._Z24prepareVoidConfigurationP22engine_configuration_s:00000000 _Z24prepareVoidConfigurationP22engine_configuration_s
C:\Users\pc\AppData\Local\Temp\cchN2LnY.s:341    .text._Z23setDefaultConfigurationv:00000000 $t
C:\Users\pc\AppData\Local\Temp\cchN2LnY.s:347    .text._Z23setDefaultConfigurationv:00000000 _Z23setDefaultConfigurationv
C:\Users\pc\AppData\Local\Temp\cchN2LnY.s:672    .text._Z23setDefaultConfigurationv:000003c0 $d
C:\Users\pc\AppData\Local\Temp\cchN2LnY.s:684    .text._Z23setDefaultConfigurationv:000003ec $t
C:\Users\pc\AppData\Local\Temp\cchN2LnY.s:1697   .rodata.str1.4:00000000 .LC0
C:\Users\pc\AppData\Local\Temp\cchN2LnY.s:1700   .rodata.str1.4:00000004 .LC1
C:\Users\pc\AppData\Local\Temp\cchN2LnY.s:1255   .text._Z23setDefaultConfigurationv:00000b80 $d
C:\Users\pc\AppData\Local\Temp\cchN2LnY.s:1259   .text._ZN23engine_configuration2_sC2Ev:00000000 $t
C:\Users\pc\AppData\Local\Temp\cchN2LnY.s:1265   .text._ZN23engine_configuration2_sC2Ev:00000000 _ZN23engine_configuration2_sC2Ev
C:\Users\pc\AppData\Local\Temp\cchN2LnY.s:1265   .text._ZN23engine_configuration2_sC2Ev:00000000 _ZN23engine_configuration2_sC1Ev
C:\Users\pc\AppData\Local\Temp\cchN2LnY.s:1302   .text._Z31applyNonPersistentConfigurationP7Logging:00000000 $t
C:\Users\pc\AppData\Local\Temp\cchN2LnY.s:1308   .text._Z31applyNonPersistentConfigurationP7Logging:00000000 _Z31applyNonPersistentConfigurationP7Logging
C:\Users\pc\AppData\Local\Temp\cchN2LnY.s:1703   .rodata.str1.4:00000008 .LC2
C:\Users\pc\AppData\Local\Temp\cchN2LnY.s:1709   .rodata.str1.4:00000048 .LC4
C:\Users\pc\AppData\Local\Temp\cchN2LnY.s:1706   .rodata.str1.4:0000002c .LC3
C:\Users\pc\AppData\Local\Temp\cchN2LnY.s:1349   .text._Z21resetConfigurationExtP7Logging13engine_type_e:00000000 $t
C:\Users\pc\AppData\Local\Temp\cchN2LnY.s:1355   .text._Z21resetConfigurationExtP7Logging13engine_type_e:00000000 _Z21resetConfigurationExtP7Logging13engine_type_e
C:\Users\pc\AppData\Local\Temp\cchN2LnY.s:1373   .text._Z21resetConfigurationExtP7Logging13engine_type_e:0000002a $d
C:\Users\pc\AppData\Local\Temp\cchN2LnY.s:1714   .rodata.str1.4:00000084 .LC6
C:\Users\pc\AppData\Local\Temp\cchN2LnY.s:1711   .rodata.str1.4:00000068 .LC5
C:\Users\pc\AppData\Local\Temp\cchN2LnY.s:1528   .text._Z13prepareShapesv:00000000 $t
C:\Users\pc\AppData\Local\Temp\cchN2LnY.s:1534   .text._Z13prepareShapesv:00000000 _Z13prepareShapesv
C:\Users\pc\AppData\Local\Temp\cchN2LnY.s:1551   .text._Z16getRpmMultiplier16operation_mode_e:00000000 $t
C:\Users\pc\AppData\Local\Temp\cchN2LnY.s:1557   .text._Z16getRpmMultiplier16operation_mode_e:00000000 _Z16getRpmMultiplier16operation_mode_e
C:\Users\pc\AppData\Local\Temp\cchN2LnY.s:1570   .text._Z16setOperationModeP22engine_configuration_s16operation_mode_e:00000000 $t
C:\Users\pc\AppData\Local\Temp\cchN2LnY.s:1576   .text._Z16setOperationModeP22engine_configuration_s16operation_mode_e:00000000 _Z16setOperationModeP22engine_configuration_s16operation_mode_e
C:\Users\pc\AppData\Local\Temp\cchN2LnY.s:1584   .text._Z16getOperationModePK22engine_configuration_s:00000000 $t
C:\Users\pc\AppData\Local\Temp\cchN2LnY.s:1590   .text._Z16getOperationModePK22engine_configuration_s:00000000 _Z16getOperationModePK22engine_configuration_s
C:\Users\pc\AppData\Local\Temp\cchN2LnY.s:1598   .text._Z27commonFrankensoAnalogInputsP22engine_configuration_s:00000000 $t
C:\Users\pc\AppData\Local\Temp\cchN2LnY.s:1604   .text._Z27commonFrankensoAnalogInputsP22engine_configuration_s:00000000 _Z27commonFrankensoAnalogInputsP22engine_configuration_s
C:\Users\pc\AppData\Local\Temp\cchN2LnY.s:1613   .text._Z24setFrankenso0_1_joystickP22engine_configuration_s:00000000 $t
C:\Users\pc\AppData\Local\Temp\cchN2LnY.s:1619   .text._Z24setFrankenso0_1_joystickP22engine_configuration_s:00000000 _Z24setFrankenso0_1_joystickP22engine_configuration_s
C:\Users\pc\AppData\Local\Temp\cchN2LnY.s:1640   .text._Z13copyFuelTablePA16_KfPA16_f:00000000 $t
C:\Users\pc\AppData\Local\Temp\cchN2LnY.s:1646   .text._Z13copyFuelTablePA16_KfPA16_f:00000000 _Z13copyFuelTablePA16_KfPA16_f
ARM GAS  C:\Users\pc\AppData\Local\Temp\cchN2LnY.s 			page 33


C:\Users\pc\AppData\Local\Temp\cchN2LnY.s:1668   .text._Z15copyTimingTablePA16_KfPA16_f:00000000 $t
C:\Users\pc\AppData\Local\Temp\cchN2LnY.s:1674   .text._Z15copyTimingTablePA16_KfPA16_f:00000000 _Z15copyTimingTablePA16_KfPA16_f
C:\Users\pc\AppData\Local\Temp\cchN2LnY.s:1696   .rodata.str1.4:00000000 $d
C:\Users\pc\AppData\Local\Temp\cchN2LnY.s:1717   .bss._ZL26globalConfigurationVersion:00000000 $d
C:\Users\pc\AppData\Local\Temp\cchN2LnY.s:1721   .bss._ZL26globalConfigurationVersion:00000000 _ZL26globalConfigurationVersion
C:\Users\pc\AppData\Local\Temp\cchN2LnY.s:1258   .text._Z23setDefaultConfigurationv:00000b88 $t
C:\Users\pc\AppData\Local\Temp\cchN2LnY.s:1406   .text._Z21resetConfigurationExtP7Logging13engine_type_e:0000004b $d
C:\Users\pc\AppData\Local\Temp\cchN2LnY.s:1406   .text._Z21resetConfigurationExtP7Logging13engine_type_e:0000004c $t

UNDEFINED SYMBOLS
engineConfiguration
config
_Z12setTableBin2Pfifff
memset
_Z30setDefaultAlternatorParametersv
boardConfiguration
_Z18setBosch0280218037P19persistent_config_s
_Z13setTableValuePfS_iff
persistentState
_Z14setFuelLoadBinff
_Z13setFuelRpmBinff
_Z16setTimingLoadBinff
_Z15setTimingRpmBinff
_Z17setDefaultVETablev
_Z14setRpmTableBinPfi
_Z29setDefaultIatTimingCorrectionv
_Z26setThermistorConfigurationP14ThermistorConfffffff
_Z24convertVoltageTo10bitADCf
_Z13initEgoSensorP12afr_sensor_s12ego_sensor_e
_Z22setFrankenstein_01_LCDP21board_configuration_s
_ZN12FuelScheduleC1Ev
_ZN13IgnitionEventC1Ev
engine
scheduleMsg
_ZN12TriggerShape22initializeTriggerShapeEP7Logging
_ZNK12TriggerShape7getSizeEv
_ZNK12TriggerShape9getLengthEv
_Z22applyFsioConfigurationv
firmwareError
_Z8setVwAbav
_ZN12TriggerShape16getOperationModeEv
_Z19syncTunerStudioCopyv
_Z15setDodgeRam1996v
_Z8setGm2_2v
_Z8setSachsv
_Z30setMazda626EngineConfigurationv
_Z11setAcuraRSXP22engine_configuration_s
_Z26setTestEngineConfigurationv
_Z9setBmwE34v
_Z14setMiata1994_sv
_Z34setDodgeNeonNGCEngineConfigurationv
_Z16setSubaru2003Wrxv
_Z12setMiata1996v
_Z14setMiata1994_dv
_Z12setMiata1990v
_Z30setHondaAccordConfigurationDipv
_Z35setHondaAccordConfigurationTwoWiresv
ARM GAS  C:\Users\pc\AppData\Local\Temp\cchN2LnY.s 			page 34


_Z26setMitsubishiConfigurationv
_Z36setCitroenBerlingoTU3JPConfigurationv
_Z15setFordEscortGtv
_Z16setMiniCooperR50P22engine_configuration_s
setSaturnIonEngineConfiguration
_Z30setMazda323EngineConfigurationP22engine_configuration_s
_Z10setRoverv8v
_Z34setMazdaMiataNbEngineConfigurationv
_Z38setGy6139qmbDefaultEngineConfigurationv
_Z14setFordInline6v
_Z37setHondaAccordConfigurationThreeWiresv
_Z35setNissanPrimeraEngineConfigurationP22engine_configuration_s
_Z39setFordFiestaDefaultEngineConfigurationP22engine_configuration_s
_Z32setFordAspireEngineConfigurationv
_Z35setDodgeNeon1995EngineConfigurationv
_Z28setCustomEngineConfigurationv
_Z20prepareOutputSignalsv
_Z25initializeIgnitionActionsffP9ArrayListI13IgnitionEventLi80EE
