ARM GAS  C:\Users\pc\AppData\Local\Temp\ccduOfCy.s 			page 1


   1              		.syntax unified
   2              		.cpu cortex-m4
   3              		.eabi_attribute 27, 3
   4              		.fpu fpv4-sp-d16
   5              		.eabi_attribute 20, 1
   6              		.eabi_attribute 21, 1
   7              		.eabi_attribute 23, 3
   8              		.eabi_attribute 24, 1
   9              		.eabi_attribute 25, 1
  10              		.eabi_attribute 26, 1
  11              		.eabi_attribute 30, 2
  12              		.eabi_attribute 34, 1
  13              		.eabi_attribute 18, 4
  14              		.thumb
  15              		.file	"error_handling.cpp"
  16              		.section	.text.chDbgPanic3,"ax",%progbits
  17              		.align	2
  18              		.p2align 4,,15
  19              		.global	chDbgPanic3
  20              		.thumb
  21              		.thumb_func
  22              		.type	chDbgPanic3, %function
  23              	chDbgPanic3:
  24              		@ args = 0, pretend = 0, frame = 0
  25              		@ frame_needed = 0, uses_anonymous_args = 0
  26 0000 F8B5     		push	{r3, r4, r5, r6, r7, lr}
  27 0002 40F20004 		movw	r4, #:lower16:dbg_panic_msg
  28 0006 C0F20004 		movt	r4, #:upper16:dbg_panic_msg
  29 000a 0646     		mov	r6, r0
  30 000c 2368     		ldr	r3, [r4]
  31 000e 0D46     		mov	r5, r1
  32 0010 1746     		mov	r7, r2
  33 0012 03B1     		cbz	r3, .L6
  34              	.L1:
  35 0014 F8BD     		pop	{r3, r4, r5, r6, r7, pc}
  36              	.L6:
  37 0016 40F20002 		movw	r2, #:lower16:.LANCHOR0
  38 001a 40F20003 		movw	r3, #:lower16:.LANCHOR1
  39 001e 4FF44061 		mov	r1, #3072
  40 0022 C0F20003 		movt	r3, #:upper16:.LANCHOR1
  41 0026 C0F20002 		movt	r2, #:upper16:.LANCHOR0
  42 002a C4F20201 		movt	r1, 16386
  43 002e 4FF48040 		mov	r0, #16384
  44 0032 1F60     		str	r7, [r3]
  45 0034 1560     		str	r5, [r2]
  46 0036 2660     		str	r6, [r4]
  47 0038 8861     		str	r0, [r1, #24]
  48 003a FFF7FEFF 		bl	_Z14turnAllPinsOffv
  49 003e 3046     		mov	r0, r6
  50 0040 FFF7FEFF 		bl	lcdShowFatalMessage
  51 0044 40F20003 		movw	r3, #:lower16:main_loop_started
  52 0048 C0F20003 		movt	r3, #:upper16:main_loop_started
  53 004c 1B78     		ldrb	r3, [r3]	@ zero_extendqisi2
  54 004e 002B     		cmp	r3, #0
  55 0050 E0D1     		bne	.L1
  56 0052 40F20000 		movw	r0, #:lower16:.LC0
  57 0056 3146     		mov	r1, r6
ARM GAS  C:\Users\pc\AppData\Local\Temp\ccduOfCy.s 			page 2


  58 0058 2A46     		mov	r2, r5
  59 005a 3B46     		mov	r3, r7
  60 005c C0F20000 		movt	r0, #:upper16:.LC0
  61 0060 FFF7FEFF 		bl	print
  62 0064 4FF47A70 		mov	r0, #1000
  63 0068 FFF7FEFF 		bl	chThdSleep
  64 006c BDE8F840 		pop	{r3, r4, r5, r6, r7, lr}
  65 0070 FFF7FEBF 		b	port_halt
  66              		.size	chDbgPanic3, .-chDbgPanic3
  67 0074 AFF30080 		.section	.text.warning,"ax",%progbits
  67      AFF30080 
  67      AFF30080 
  68              		.align	2
  69              		.p2align 4,,15
  70              		.global	warning
  71              		.thumb
  72              		.thumb_func
  73              		.type	warning, %function
  74              	warning:
  75              		@ args = 4, pretend = 12, frame = 8
  76              		@ frame_needed = 0, uses_anonymous_args = 1
  77 0000 0EB4     		push	{r1, r2, r3}
  78 0002 30B5     		push	{r4, r5, lr}
  79 0004 82B0     		sub	sp, sp, #8
  80 0006 FFF7FEFF 		bl	getTimeNowSeconds
  81 000a 40F20004 		movw	r4, #:lower16:.LANCHOR2
  82 000e C0F20004 		movt	r4, #:upper16:.LANCHOR2
  83 0012 0546     		mov	r5, r0
  84 0014 2068     		ldr	r0, [r4]
  85 0016 281A     		subs	r0, r5, r0
  86 0018 FFF7FEFF 		bl	absI
  87 001c 0928     		cmp	r0, #9
  88 001e 05DD     		ble	.L10
  89 0020 40F20003 		movw	r3, #:lower16:warningEnabled
  90 0024 C0F20003 		movt	r3, #:upper16:warningEnabled
  91 0028 1B68     		ldr	r3, [r3]
  92 002a 2BB9     		cbnz	r3, .L9
  93              	.L10:
  94 002c 0120     		movs	r0, #1
  95 002e 02B0     		add	sp, sp, #8
  96              		@ sp needed
  97 0030 BDE83040 		pop	{r4, r5, lr}
  98 0034 03B0     		add	sp, sp, #12
  99 0036 7047     		bx	lr
 100              	.L9:
 101 0038 40F20000 		movw	r0, #:lower16:.LANCHOR3
 102 003c C0F20000 		movt	r0, #:upper16:.LANCHOR3
 103 0040 2560     		str	r5, [r4]
 104 0042 FFF7FEFF 		bl	resetLogging
 105 0046 40F20000 		movw	r0, #:lower16:.LANCHOR3
 106 004a C0F20000 		movt	r0, #:upper16:.LANCHOR3
 107 004e FFF7FEFF 		bl	appendMsgPrefix
 108 0052 40F20004 		movw	r4, #:lower16:.LANCHOR4
 109 0056 40F20000 		movw	r0, #:lower16:.LANCHOR3
 110 005a 40F20001 		movw	r1, #:lower16:.LC1
 111 005e 06AB     		add	r3, sp, #24
 112 0060 C0F20004 		movt	r4, #:upper16:.LANCHOR4
ARM GAS  C:\Users\pc\AppData\Local\Temp\ccduOfCy.s 			page 3


 113 0064 C0F20000 		movt	r0, #:upper16:.LANCHOR3
 114 0068 C0F20001 		movt	r1, #:upper16:.LC1
 115 006c 0193     		str	r3, [sp, #4]
 116 006e 0025     		movs	r5, #0
 117 0070 FFF7FEFF 		bl	append
 118 0074 2046     		mov	r0, r4
 119 0076 0599     		ldr	r1, [sp, #20]
 120 0078 019A     		ldr	r2, [sp, #4]
 121 007a E560     		str	r5, [r4, #12]
 122 007c FFF7FEFF 		bl	chvprintf
 123 0080 6268     		ldr	r2, [r4, #4]
 124 0082 E368     		ldr	r3, [r4, #12]
 125 0084 40F20000 		movw	r0, #:lower16:.LANCHOR3
 126 0088 40F20001 		movw	r1, #:lower16:.LANCHOR5
 127 008c D554     		strb	r5, [r2, r3]
 128 008e C0F20000 		movt	r0, #:upper16:.LANCHOR3
 129 0092 C0F20001 		movt	r1, #:upper16:.LANCHOR5
 130 0096 FFF7FEFF 		bl	append
 131 009a 40F20000 		movw	r0, #:lower16:.LANCHOR3
 132 009e 40F20001 		movw	r1, #:lower16:.LC2
 133 00a2 C0F20001 		movt	r1, #:upper16:.LC2
 134 00a6 C0F20000 		movt	r0, #:upper16:.LANCHOR3
 135 00aa FFF7FEFF 		bl	append
 136 00ae 40F20000 		movw	r0, #:lower16:.LANCHOR3
 137 00b2 C0F20000 		movt	r0, #:upper16:.LANCHOR3
 138 00b6 FFF7FEFF 		bl	scheduleLogging
 139 00ba 2846     		mov	r0, r5
 140 00bc 02B0     		add	sp, sp, #8
 141              		@ sp needed
 142 00be BDE83040 		pop	{r4, r5, lr}
 143 00c2 03B0     		add	sp, sp, #12
 144 00c4 7047     		bx	lr
 145              		.size	warning, .-warning
 146 00c6 00BFAFF3 		.section	.text.getWarninig,"ax",%progbits
 146      0080AFF3 
 146      0080
 147              		.align	2
 148              		.p2align 4,,15
 149              		.global	getWarninig
 150              		.thumb
 151              		.thumb_func
 152              		.type	getWarninig, %function
 153              	getWarninig:
 154              		@ args = 0, pretend = 0, frame = 0
 155              		@ frame_needed = 0, uses_anonymous_args = 0
 156              		@ link register save eliminated.
 157 0000 40F20000 		movw	r0, #:lower16:.LANCHOR5
 158 0004 C0F20000 		movt	r0, #:upper16:.LANCHOR5
 159 0008 7047     		bx	lr
 160              		.size	getWarninig, .-getWarninig
 161 000a 00BFAFF3 		.section	.text._Z10onLockHookv,"ax",%progbits
 161      0080
 162              		.align	2
 163              		.p2align 4,,15
 164              		.global	_Z10onLockHookv
 165              		.thumb
 166              		.thumb_func
ARM GAS  C:\Users\pc\AppData\Local\Temp\ccduOfCy.s 			page 4


 167              		.type	_Z10onLockHookv, %function
 168              	_Z10onLockHookv:
 169              		@ args = 0, pretend = 0, frame = 0
 170              		@ frame_needed = 0, uses_anonymous_args = 0
 171              		@ link register save eliminated.
 172 0000 4FF48052 		mov	r2, #4096
 173 0004 CEF20002 		movt	r2, 57344
 174 0008 40F20003 		movw	r3, #:lower16:.LANCHOR6
 175 000c 5268     		ldr	r2, [r2, #4]
 176 000e C0F20003 		movt	r3, #:upper16:.LANCHOR6
 177 0012 1A60     		str	r2, [r3]
 178 0014 7047     		bx	lr
 179              		.size	_Z10onLockHookv, .-_Z10onLockHookv
 180 0016 00BFAFF3 		.section	.text._Z12onUnlockHookv,"ax",%progbits
 180      0080AFF3 
 180      0080
 181              		.align	2
 182              		.p2align 4,,15
 183              		.global	_Z12onUnlockHookv
 184              		.thumb
 185              		.thumb_func
 186              		.type	_Z12onUnlockHookv, %function
 187              	_Z12onUnlockHookv:
 188              		@ args = 0, pretend = 0, frame = 0
 189              		@ frame_needed = 0, uses_anonymous_args = 0
 190              		@ link register save eliminated.
 191 0000 4FF48051 		mov	r1, #4096
 192 0004 40F20002 		movw	r2, #:lower16:.LANCHOR6
 193 0008 CEF20001 		movt	r1, 57344
 194 000c C0F20002 		movt	r2, #:upper16:.LANCHOR6
 195 0010 40F20003 		movw	r3, #:lower16:.LANCHOR7
 196 0014 C0F20003 		movt	r3, #:upper16:.LANCHOR7
 197 0018 4868     		ldr	r0, [r1, #4]
 198 001a 1268     		ldr	r2, [r2]
 199 001c 1968     		ldr	r1, [r3]
 200 001e 821A     		subs	r2, r0, r2
 201 0020 8A42     		cmp	r2, r1
 202 0022 88BF     		it	hi
 203 0024 1A60     		strhi	r2, [r3]
 204 0026 7047     		bx	lr
 205              		.size	_Z12onUnlockHookv, .-_Z12onUnlockHookv
 206 0028 AFF30080 		.section	.text.initErrorHandling,"ax",%progbits
 206      AFF30080 
 207              		.align	2
 208              		.p2align 4,,15
 209              		.global	initErrorHandling
 210              		.thumb
 211              		.thumb_func
 212              		.type	initErrorHandling, %function
 213              	initErrorHandling:
 214              		@ args = 0, pretend = 0, frame = 0
 215              		@ frame_needed = 0, uses_anonymous_args = 0
 216              		@ link register save eliminated.
 217 0000 40F20000 		movw	r0, #:lower16:.LANCHOR4
 218 0004 40F20001 		movw	r1, #:lower16:.LANCHOR5
 219 0008 C0F20000 		movt	r0, #:upper16:.LANCHOR4
 220 000c C0F20001 		movt	r1, #:upper16:.LANCHOR5
ARM GAS  C:\Users\pc\AppData\Local\Temp\ccduOfCy.s 			page 5


 221 0010 5022     		movs	r2, #80
 222 0012 0023     		movs	r3, #0
 223 0014 FFF7FEBF 		b	msObjectInit
 224              		.size	initErrorHandling, .-initErrorHandling
 225 0018 AFF30080 		.section	.text.getVtSizeEstimate,"ax",%progbits
 225      AFF30080 
 226              		.align	2
 227              		.p2align 4,,15
 228              		.global	getVtSizeEstimate
 229              		.thumb
 230              		.thumb_func
 231              		.type	getVtSizeEstimate, %function
 232              	getVtSizeEstimate:
 233              		@ args = 0, pretend = 0, frame = 0
 234              		@ frame_needed = 0, uses_anonymous_args = 0
 235              		@ link register save eliminated.
 236 0000 40F20003 		movw	r3, #:lower16:vtlist
 237 0004 C0F20003 		movt	r3, #:upper16:vtlist
 238 0008 1A68     		ldr	r2, [r3]
 239 000a 1368     		ldr	r3, [r2]
 240 000c 9A42     		cmp	r2, r3
 241 000e 08D0     		beq	.L24
 242 0010 1B68     		ldr	r3, [r3]
 243 0012 0220     		movs	r0, #2
 244              	.L22:
 245 0014 9A42     		cmp	r2, r3
 246 0016 03D0     		beq	.L23
 247 0018 0130     		adds	r0, r0, #1
 248 001a 1528     		cmp	r0, #21
 249 001c 1B68     		ldr	r3, [r3]
 250 001e F9D1     		bne	.L22
 251              	.L23:
 252 0020 7047     		bx	lr
 253              	.L24:
 254 0022 0120     		movs	r0, #1
 255 0024 7047     		bx	lr
 256              		.size	getVtSizeEstimate, .-getVtSizeEstimate
 257 0026 00BFAFF3 		.section	.text.assertVtList,"ax",%progbits
 257      0080AFF3 
 257      0080
 258              		.align	2
 259              		.p2align 4,,15
 260              		.global	assertVtList
 261              		.thumb
 262              		.thumb_func
 263              		.type	assertVtList, %function
 264              	assertVtList:
 265              		@ args = 0, pretend = 0, frame = 0
 266              		@ frame_needed = 0, uses_anonymous_args = 0
 267              		@ link register save eliminated.
 268 0000 40F20003 		movw	r3, #:lower16:main_loop_started
 269 0004 C0F20003 		movt	r3, #:upper16:main_loop_started
 270 0008 1B78     		ldrb	r3, [r3]	@ zero_extendqisi2
 271 000a ABB1     		cbz	r3, .L25
 272 000c 40F20003 		movw	r3, #:lower16:vtlist
 273 0010 C0F20003 		movt	r3, #:upper16:vtlist
 274 0014 1968     		ldr	r1, [r3]
ARM GAS  C:\Users\pc\AppData\Local\Temp\ccduOfCy.s 			page 6


 275 0016 0B68     		ldr	r3, [r1]
 276 0018 9942     		cmp	r1, r3
 277 001a 1DD0     		beq	.L38
 278 001c 1A68     		ldr	r2, [r3]
 279 001e 0223     		movs	r3, #2
 280              	.L35:
 281 0020 9142     		cmp	r1, r2
 282 0022 0AD0     		beq	.L39
 283 0024 0133     		adds	r3, r3, #1
 284 0026 152B     		cmp	r3, #21
 285 0028 1268     		ldr	r2, [r2]
 286 002a F9D1     		bne	.L35
 287 002c 40F20002 		movw	r2, #:lower16:.LANCHOR9
 288 0030 C0F20002 		movt	r2, #:upper16:.LANCHOR9
 289 0034 1360     		str	r3, [r2]
 290 0036 7047     		bx	lr
 291              	.L25:
 292 0038 7047     		bx	lr
 293              	.L39:
 294 003a 40F20002 		movw	r2, #:lower16:.LANCHOR9
 295 003e C0F20002 		movt	r2, #:upper16:.LANCHOR9
 296 0042 032B     		cmp	r3, #3
 297 0044 1360     		str	r3, [r2]
 298 0046 0EDC     		bgt	.L40
 299              	.L32:
 300 0048 40F20003 		movw	r3, #:lower16:.LANCHOR8
 301 004c C0F20003 		movt	r3, #:upper16:.LANCHOR8
 302 0050 1A68     		ldr	r2, [r3]
 303 0052 0132     		adds	r2, r2, #1
 304 0054 1A60     		str	r2, [r3]
 305 0056 7047     		bx	lr
 306              	.L38:
 307 0058 40F20003 		movw	r3, #:lower16:.LANCHOR9
 308 005c C0F20003 		movt	r3, #:upper16:.LANCHOR9
 309 0060 0122     		movs	r2, #1
 310 0062 1A60     		str	r2, [r3]
 311 0064 F0E7     		b	.L32
 312              	.L40:
 313 0066 7047     		bx	lr
 314              		.size	assertVtList, .-assertVtList
 315 0068 AFF30080 		.section	.text.startup._GLOBAL__sub_I_dbg_panic_file,"ax",%progbits
 315      AFF30080 
 316              		.align	2
 317              		.p2align 4,,15
 318              		.thumb
 319              		.thumb_func
 320              		.type	_GLOBAL__sub_I_dbg_panic_file, %function
 321              	_GLOBAL__sub_I_dbg_panic_file:
 322              		@ args = 0, pretend = 0, frame = 0
 323              		@ frame_needed = 0, uses_anonymous_args = 0
 324              		@ link register save eliminated.
 325 0000 40F20000 		movw	r0, #:lower16:.LANCHOR3
 326 0004 40F20001 		movw	r1, #:lower16:.LC3
 327 0008 C0F20000 		movt	r0, #:upper16:.LANCHOR3
 328 000c C0F20001 		movt	r1, #:upper16:.LC3
 329 0010 FFF7FEBF 		b	_ZN18LoggingWithStorageC1EPKc
 330              		.size	_GLOBAL__sub_I_dbg_panic_file, .-_GLOBAL__sub_I_dbg_panic_file
ARM GAS  C:\Users\pc\AppData\Local\Temp\ccduOfCy.s 			page 7


 331 0014 AFF30080 		.section	.init_array,"aw",%init_array
 331      AFF30080 
 331      AFF30080 
 332              		.align	2
 333 0000 00000000 		.word	_GLOBAL__sub_I_dbg_panic_file(target1)
 334              		.global	allReady
 335              		.global	globalVt
 336              		.global	isInsideTriggerHandler
 337              		.global	maxLockTime
 338              		.global	lastLockTime
 339              		.global	dbg_panic_line
 340              		.global	dbg_panic_file
 341              		.section	.bss.lastLockTime,"aw",%nobits
 342              		.align	2
 343              		.set	.LANCHOR6,. + 0
 344              		.type	lastLockTime, %object
 345              		.size	lastLockTime, 4
 346              	lastLockTime:
 347 0000 00000000 		.space	4
 348              		.section	.bss.dbg_panic_file,"aw",%nobits
 349              		.align	2
 350              		.set	.LANCHOR0,. + 0
 351              		.type	dbg_panic_file, %object
 352              		.size	dbg_panic_file, 4
 353              	dbg_panic_file:
 354 0000 00000000 		.space	4
 355              		.section	.bss.globalVt,"aw",%nobits
 356              		.align	2
 357              		.set	.LANCHOR9,. + 0
 358              		.type	globalVt, %object
 359              		.size	globalVt, 4
 360              	globalVt:
 361 0000 00000000 		.space	4
 362              		.section	.bss.allReady,"aw",%nobits
 363              		.align	2
 364              		.set	.LANCHOR8,. + 0
 365              		.type	allReady, %object
 366              		.size	allReady, 4
 367              	allReady:
 368 0000 00000000 		.space	4
 369              		.section	.rodata.str1.4,"aMS",%progbits,1
 370              		.align	2
 371              	.LC0:
 372 0000 66617461 		.ascii	"fatal %s %s:%d\015\012\000"
 372      6C202573 
 372      2025733A 
 372      25640D0A 
 372      00
 373 0011 000000   		.space	3
 374              	.LC1:
 375 0014 5741524E 		.ascii	"WARNING: \000"
 375      494E473A 
 375      2000
 376 001e 0000     		.space	2
 377              	.LC2:
 378 0020 2C00     		.ascii	",\000"
 379 0022 0000     		.space	2
ARM GAS  C:\Users\pc\AppData\Local\Temp\ccduOfCy.s 			page 8


 380              	.LC3:
 381 0024 6572726F 		.ascii	"error handling\000"
 381      72206861 
 381      6E646C69 
 381      6E6700
 382 0033 00       		.section	.bss.dbg_panic_line,"aw",%nobits
 383              		.align	2
 384              		.set	.LANCHOR1,. + 0
 385              		.type	dbg_panic_line, %object
 386              		.size	dbg_panic_line, 4
 387              	dbg_panic_line:
 388 0000 00000000 		.space	4
 389              		.section	.bss._ZL13warningStream,"aw",%nobits
 390              		.align	2
 391              		.set	.LANCHOR4,. + 0
 392              		.type	_ZL13warningStream, %object
 393              		.size	_ZL13warningStream, 20
 394              	_ZL13warningStream:
 395 0000 00000000 		.space	20
 395      00000000 
 395      00000000 
 395      00000000 
 395      00000000 
 396              		.section	.bss.isInsideTriggerHandler,"aw",%nobits
 397              		.type	isInsideTriggerHandler, %object
 398              		.size	isInsideTriggerHandler, 1
 399              	isInsideTriggerHandler:
 400 0000 00       		.space	1
 401              		.section	.bss.maxLockTime,"aw",%nobits
 402              		.align	2
 403              		.set	.LANCHOR7,. + 0
 404              		.type	maxLockTime, %object
 405              		.size	maxLockTime, 4
 406              	maxLockTime:
 407 0000 00000000 		.space	4
 408              		.section	.data._ZL21timeOfPreviousWarning,"aw",%progbits
 409              		.align	2
 410              		.set	.LANCHOR2,. + 0
 411              		.type	_ZL21timeOfPreviousWarning, %object
 412              		.size	_ZL21timeOfPreviousWarning, 4
 413              	_ZL21timeOfPreviousWarning:
 414 0000 F6FFFFFF 		.word	-10
 415              		.section	.bss._ZL6logger,"aw",%nobits
 416              		.align	2
 417              		.set	.LANCHOR3,. + 0
 418              		.type	_ZL6logger, %object
 419              		.size	_ZL6logger, 260
 420              	_ZL6logger:
 421 0000 00000000 		.space	260
 421      00000000 
 421      00000000 
 421      00000000 
 421      00000000 
 422              		.section	.bss._ZL13warningBuffer,"aw",%nobits
 423              		.align	2
 424              		.set	.LANCHOR5,. + 0
 425              		.type	_ZL13warningBuffer, %object
ARM GAS  C:\Users\pc\AppData\Local\Temp\ccduOfCy.s 			page 9


 426              		.size	_ZL13warningBuffer, 80
 427              	_ZL13warningBuffer:
 428 0000 00000000 		.space	80
 428      00000000 
 428      00000000 
 428      00000000 
 428      00000000 
 429              		.ident	"GCC: (Sourcery CodeBench Lite 2013.11-24) 4.8.1"
ARM GAS  C:\Users\pc\AppData\Local\Temp\ccduOfCy.s 			page 10

