ARM GAS  C:\Users\pc\AppData\Local\Temp\ccVJgbIW.s 			page 1


   1              		.syntax unified
   2              		.cpu cortex-m4
   3              		.eabi_attribute 27, 3
   4              		.fpu fpv4-sp-d16
   5              		.eabi_attribute 20, 1
   6              		.eabi_attribute 21, 1
   7              		.eabi_attribute 23, 3
   8              		.eabi_attribute 24, 1
   9              		.eabi_attribute 25, 1
  10              		.eabi_attribute 26, 1
  11              		.eabi_attribute 30, 2
  12              		.eabi_attribute 34, 1
  13              		.eabi_attribute 18, 4
  14              		.thumb
  15              		.file	"ext_lld_isr.c"
  16              		.section	.text.Vector58,"ax",%progbits
  17              		.align	2
  18              		.p2align 4,,15
  19              		.global	Vector58
  20              		.thumb
  21              		.thumb_func
  22              		.type	Vector58, %function
  23              	Vector58:
  24              		@ args = 0, pretend = 0, frame = 0
  25              		@ frame_needed = 0, uses_anonymous_args = 0
  26 0000 08B5     		push	{r3, lr}
  27 0002 FFF7FEFF 		bl	dbg_check_enter_isr
  28 0006 40F20000 		movw	r0, #:lower16:EXTD1
  29 000a C0F20000 		movt	r0, #:upper16:EXTD1
  30 000e 4FF47053 		mov	r3, #15360
  31 0012 4268     		ldr	r2, [r0, #4]
  32 0014 C4F20103 		movt	r3, 16385
  33 0018 0121     		movs	r1, #1
  34 001a 5268     		ldr	r2, [r2, #4]
  35 001c 5961     		str	r1, [r3, #20]
  36 001e 0021     		movs	r1, #0
  37 0020 9047     		blx	r2
  38 0022 FFF7FEFF 		bl	dbg_check_leave_isr
  39 0026 BDE80840 		pop	{r3, lr}
  40 002a FFF7FEBF 		b	_port_irq_epilogue
  41              		.size	Vector58, .-Vector58
  42 002e 00BF     		.section	.text.Vector5C,"ax",%progbits
  43              		.align	2
  44              		.p2align 4,,15
  45              		.global	Vector5C
  46              		.thumb
  47              		.thumb_func
  48              		.type	Vector5C, %function
  49              	Vector5C:
  50              		@ args = 0, pretend = 0, frame = 0
  51              		@ frame_needed = 0, uses_anonymous_args = 0
  52 0000 08B5     		push	{r3, lr}
  53 0002 FFF7FEFF 		bl	dbg_check_enter_isr
  54 0006 40F20000 		movw	r0, #:lower16:EXTD1
  55 000a C0F20000 		movt	r0, #:upper16:EXTD1
  56 000e 4FF47053 		mov	r3, #15360
  57 0012 4268     		ldr	r2, [r0, #4]
ARM GAS  C:\Users\pc\AppData\Local\Temp\ccVJgbIW.s 			page 2


  58 0014 C4F20103 		movt	r3, 16385
  59 0018 0221     		movs	r1, #2
  60 001a D268     		ldr	r2, [r2, #12]
  61 001c 5961     		str	r1, [r3, #20]
  62 001e 0121     		movs	r1, #1
  63 0020 9047     		blx	r2
  64 0022 FFF7FEFF 		bl	dbg_check_leave_isr
  65 0026 BDE80840 		pop	{r3, lr}
  66 002a FFF7FEBF 		b	_port_irq_epilogue
  67              		.size	Vector5C, .-Vector5C
  68 002e 00BF     		.section	.text.Vector60,"ax",%progbits
  69              		.align	2
  70              		.p2align 4,,15
  71              		.global	Vector60
  72              		.thumb
  73              		.thumb_func
  74              		.type	Vector60, %function
  75              	Vector60:
  76              		@ args = 0, pretend = 0, frame = 0
  77              		@ frame_needed = 0, uses_anonymous_args = 0
  78 0000 08B5     		push	{r3, lr}
  79 0002 FFF7FEFF 		bl	dbg_check_enter_isr
  80 0006 40F20000 		movw	r0, #:lower16:EXTD1
  81 000a C0F20000 		movt	r0, #:upper16:EXTD1
  82 000e 4FF47053 		mov	r3, #15360
  83 0012 4268     		ldr	r2, [r0, #4]
  84 0014 C4F20103 		movt	r3, 16385
  85 0018 0421     		movs	r1, #4
  86 001a 5269     		ldr	r2, [r2, #20]
  87 001c 5961     		str	r1, [r3, #20]
  88 001e 0221     		movs	r1, #2
  89 0020 9047     		blx	r2
  90 0022 FFF7FEFF 		bl	dbg_check_leave_isr
  91 0026 BDE80840 		pop	{r3, lr}
  92 002a FFF7FEBF 		b	_port_irq_epilogue
  93              		.size	Vector60, .-Vector60
  94 002e 00BF     		.section	.text.Vector64,"ax",%progbits
  95              		.align	2
  96              		.p2align 4,,15
  97              		.global	Vector64
  98              		.thumb
  99              		.thumb_func
 100              		.type	Vector64, %function
 101              	Vector64:
 102              		@ args = 0, pretend = 0, frame = 0
 103              		@ frame_needed = 0, uses_anonymous_args = 0
 104 0000 08B5     		push	{r3, lr}
 105 0002 FFF7FEFF 		bl	dbg_check_enter_isr
 106 0006 40F20000 		movw	r0, #:lower16:EXTD1
 107 000a C0F20000 		movt	r0, #:upper16:EXTD1
 108 000e 4FF47053 		mov	r3, #15360
 109 0012 4268     		ldr	r2, [r0, #4]
 110 0014 C4F20103 		movt	r3, 16385
 111 0018 0821     		movs	r1, #8
 112 001a D269     		ldr	r2, [r2, #28]
 113 001c 5961     		str	r1, [r3, #20]
 114 001e 0321     		movs	r1, #3
ARM GAS  C:\Users\pc\AppData\Local\Temp\ccVJgbIW.s 			page 3


 115 0020 9047     		blx	r2
 116 0022 FFF7FEFF 		bl	dbg_check_leave_isr
 117 0026 BDE80840 		pop	{r3, lr}
 118 002a FFF7FEBF 		b	_port_irq_epilogue
 119              		.size	Vector64, .-Vector64
 120 002e 00BF     		.section	.text.Vector68,"ax",%progbits
 121              		.align	2
 122              		.p2align 4,,15
 123              		.global	Vector68
 124              		.thumb
 125              		.thumb_func
 126              		.type	Vector68, %function
 127              	Vector68:
 128              		@ args = 0, pretend = 0, frame = 0
 129              		@ frame_needed = 0, uses_anonymous_args = 0
 130 0000 08B5     		push	{r3, lr}
 131 0002 FFF7FEFF 		bl	dbg_check_enter_isr
 132 0006 40F20000 		movw	r0, #:lower16:EXTD1
 133 000a C0F20000 		movt	r0, #:upper16:EXTD1
 134 000e 4FF47053 		mov	r3, #15360
 135 0012 4268     		ldr	r2, [r0, #4]
 136 0014 C4F20103 		movt	r3, 16385
 137 0018 1021     		movs	r1, #16
 138 001a 526A     		ldr	r2, [r2, #36]
 139 001c 5961     		str	r1, [r3, #20]
 140 001e 0421     		movs	r1, #4
 141 0020 9047     		blx	r2
 142 0022 FFF7FEFF 		bl	dbg_check_leave_isr
 143 0026 BDE80840 		pop	{r3, lr}
 144 002a FFF7FEBF 		b	_port_irq_epilogue
 145              		.size	Vector68, .-Vector68
 146 002e 00BF     		.section	.text.Vector9C,"ax",%progbits
 147              		.align	2
 148              		.p2align 4,,15
 149              		.global	Vector9C
 150              		.thumb
 151              		.thumb_func
 152              		.type	Vector9C, %function
 153              	Vector9C:
 154              		@ args = 0, pretend = 0, frame = 0
 155              		@ frame_needed = 0, uses_anonymous_args = 0
 156 0000 10B5     		push	{r4, lr}
 157 0002 FFF7FEFF 		bl	dbg_check_enter_isr
 158 0006 4FF47053 		mov	r3, #15360
 159 000a C4F20103 		movt	r3, 16385
 160 000e 5C69     		ldr	r4, [r3, #20]
 161 0010 04F47872 		and	r2, r4, #992
 162 0014 5A61     		str	r2, [r3, #20]
 163 0016 A306     		lsls	r3, r4, #26
 164 0018 34D4     		bmi	.L28
 165              	.L7:
 166 001a 6006     		lsls	r0, r4, #25
 167 001c 28D4     		bmi	.L29
 168              	.L8:
 169 001e 2106     		lsls	r1, r4, #24
 170 0020 1CD4     		bmi	.L30
 171              	.L9:
ARM GAS  C:\Users\pc\AppData\Local\Temp\ccVJgbIW.s 			page 4


 172 0022 E205     		lsls	r2, r4, #23
 173 0024 10D4     		bmi	.L31
 174              	.L10:
 175 0026 A305     		lsls	r3, r4, #22
 176 0028 08D5     		bpl	.L11
 177 002a 40F20003 		movw	r3, #:lower16:EXTD1
 178 002e C0F20003 		movt	r3, #:upper16:EXTD1
 179 0032 1846     		mov	r0, r3
 180 0034 5B68     		ldr	r3, [r3, #4]
 181 0036 0921     		movs	r1, #9
 182 0038 DB6C     		ldr	r3, [r3, #76]
 183 003a 9847     		blx	r3
 184              	.L11:
 185 003c FFF7FEFF 		bl	dbg_check_leave_isr
 186 0040 BDE81040 		pop	{r4, lr}
 187 0044 FFF7FEBF 		b	_port_irq_epilogue
 188              	.L31:
 189 0048 40F20003 		movw	r3, #:lower16:EXTD1
 190 004c C0F20003 		movt	r3, #:upper16:EXTD1
 191 0050 1846     		mov	r0, r3
 192 0052 5B68     		ldr	r3, [r3, #4]
 193 0054 0821     		movs	r1, #8
 194 0056 5B6C     		ldr	r3, [r3, #68]
 195 0058 9847     		blx	r3
 196 005a E4E7     		b	.L10
 197              	.L30:
 198 005c 40F20003 		movw	r3, #:lower16:EXTD1
 199 0060 C0F20003 		movt	r3, #:upper16:EXTD1
 200 0064 1846     		mov	r0, r3
 201 0066 5B68     		ldr	r3, [r3, #4]
 202 0068 0721     		movs	r1, #7
 203 006a DB6B     		ldr	r3, [r3, #60]
 204 006c 9847     		blx	r3
 205 006e D8E7     		b	.L9
 206              	.L29:
 207 0070 40F20003 		movw	r3, #:lower16:EXTD1
 208 0074 C0F20003 		movt	r3, #:upper16:EXTD1
 209 0078 1846     		mov	r0, r3
 210 007a 5B68     		ldr	r3, [r3, #4]
 211 007c 0621     		movs	r1, #6
 212 007e 5B6B     		ldr	r3, [r3, #52]
 213 0080 9847     		blx	r3
 214 0082 CCE7     		b	.L8
 215              	.L28:
 216 0084 40F20003 		movw	r3, #:lower16:EXTD1
 217 0088 C0F20003 		movt	r3, #:upper16:EXTD1
 218 008c 1846     		mov	r0, r3
 219 008e 5B68     		ldr	r3, [r3, #4]
 220 0090 0521     		movs	r1, #5
 221 0092 DB6A     		ldr	r3, [r3, #44]
 222 0094 9847     		blx	r3
 223 0096 C0E7     		b	.L7
 224              		.size	Vector9C, .-Vector9C
 225 0098 AFF30080 		.section	.text.VectorE0,"ax",%progbits
 225      AFF30080 
 226              		.align	2
 227              		.p2align 4,,15
ARM GAS  C:\Users\pc\AppData\Local\Temp\ccVJgbIW.s 			page 5


 228              		.global	VectorE0
 229              		.thumb
 230              		.thumb_func
 231              		.type	VectorE0, %function
 232              	VectorE0:
 233              		@ args = 0, pretend = 0, frame = 0
 234              		@ frame_needed = 0, uses_anonymous_args = 0
 235 0000 10B5     		push	{r4, lr}
 236 0002 FFF7FEFF 		bl	dbg_check_enter_isr
 237 0006 4FF47053 		mov	r3, #15360
 238 000a C4F20103 		movt	r3, 16385
 239 000e 5C69     		ldr	r4, [r3, #20]
 240 0010 04F47C42 		and	r2, r4, #64512
 241 0014 6105     		lsls	r1, r4, #21
 242 0016 5A61     		str	r2, [r3, #20]
 243 0018 40D4     		bmi	.L57
 244              	.L33:
 245 001a 2205     		lsls	r2, r4, #20
 246 001c 34D4     		bmi	.L58
 247              	.L34:
 248 001e E304     		lsls	r3, r4, #19
 249 0020 28D4     		bmi	.L59
 250              	.L35:
 251 0022 A004     		lsls	r0, r4, #18
 252 0024 1CD4     		bmi	.L60
 253              	.L36:
 254 0026 6104     		lsls	r1, r4, #17
 255 0028 10D4     		bmi	.L61
 256              	.L37:
 257 002a 2204     		lsls	r2, r4, #16
 258 002c 08D5     		bpl	.L38
 259 002e 40F20003 		movw	r3, #:lower16:EXTD1
 260 0032 C0F20003 		movt	r3, #:upper16:EXTD1
 261 0036 1846     		mov	r0, r3
 262 0038 5B68     		ldr	r3, [r3, #4]
 263 003a 0F21     		movs	r1, #15
 264 003c DB6F     		ldr	r3, [r3, #124]
 265 003e 9847     		blx	r3
 266              	.L38:
 267 0040 FFF7FEFF 		bl	dbg_check_leave_isr
 268 0044 BDE81040 		pop	{r4, lr}
 269 0048 FFF7FEBF 		b	_port_irq_epilogue
 270              	.L61:
 271 004c 40F20003 		movw	r3, #:lower16:EXTD1
 272 0050 C0F20003 		movt	r3, #:upper16:EXTD1
 273 0054 1846     		mov	r0, r3
 274 0056 5B68     		ldr	r3, [r3, #4]
 275 0058 0E21     		movs	r1, #14
 276 005a 5B6F     		ldr	r3, [r3, #116]
 277 005c 9847     		blx	r3
 278 005e E4E7     		b	.L37
 279              	.L60:
 280 0060 40F20003 		movw	r3, #:lower16:EXTD1
 281 0064 C0F20003 		movt	r3, #:upper16:EXTD1
 282 0068 1846     		mov	r0, r3
 283 006a 5B68     		ldr	r3, [r3, #4]
 284 006c 0D21     		movs	r1, #13
ARM GAS  C:\Users\pc\AppData\Local\Temp\ccVJgbIW.s 			page 6


 285 006e DB6E     		ldr	r3, [r3, #108]
 286 0070 9847     		blx	r3
 287 0072 D8E7     		b	.L36
 288              	.L59:
 289 0074 40F20003 		movw	r3, #:lower16:EXTD1
 290 0078 C0F20003 		movt	r3, #:upper16:EXTD1
 291 007c 1846     		mov	r0, r3
 292 007e 5B68     		ldr	r3, [r3, #4]
 293 0080 0C21     		movs	r1, #12
 294 0082 5B6E     		ldr	r3, [r3, #100]
 295 0084 9847     		blx	r3
 296 0086 CCE7     		b	.L35
 297              	.L58:
 298 0088 40F20003 		movw	r3, #:lower16:EXTD1
 299 008c C0F20003 		movt	r3, #:upper16:EXTD1
 300 0090 1846     		mov	r0, r3
 301 0092 5B68     		ldr	r3, [r3, #4]
 302 0094 0B21     		movs	r1, #11
 303 0096 DB6D     		ldr	r3, [r3, #92]
 304 0098 9847     		blx	r3
 305 009a C0E7     		b	.L34
 306              	.L57:
 307 009c 40F20003 		movw	r3, #:lower16:EXTD1
 308 00a0 C0F20003 		movt	r3, #:upper16:EXTD1
 309 00a4 1846     		mov	r0, r3
 310 00a6 5B68     		ldr	r3, [r3, #4]
 311 00a8 0A21     		movs	r1, #10
 312 00aa 5B6D     		ldr	r3, [r3, #84]
 313 00ac 9847     		blx	r3
 314 00ae B4E7     		b	.L33
 315              		.size	VectorE0, .-VectorE0
 316              		.section	.text.Vector44,"ax",%progbits
 317              		.align	2
 318              		.p2align 4,,15
 319              		.global	Vector44
 320              		.thumb
 321              		.thumb_func
 322              		.type	Vector44, %function
 323              	Vector44:
 324              		@ args = 0, pretend = 0, frame = 0
 325              		@ frame_needed = 0, uses_anonymous_args = 0
 326 0000 08B5     		push	{r3, lr}
 327 0002 FFF7FEFF 		bl	dbg_check_enter_isr
 328 0006 40F20000 		movw	r0, #:lower16:EXTD1
 329 000a C0F20000 		movt	r0, #:upper16:EXTD1
 330 000e 4FF47053 		mov	r3, #15360
 331 0012 4268     		ldr	r2, [r0, #4]
 332 0014 C4F20103 		movt	r3, 16385
 333 0018 4FF48031 		mov	r1, #65536
 334 001c D2F88420 		ldr	r2, [r2, #132]
 335 0020 5961     		str	r1, [r3, #20]
 336 0022 1021     		movs	r1, #16
 337 0024 9047     		blx	r2
 338 0026 FFF7FEFF 		bl	dbg_check_leave_isr
 339 002a BDE80840 		pop	{r3, lr}
 340 002e FFF7FEBF 		b	_port_irq_epilogue
 341              		.size	Vector44, .-Vector44
ARM GAS  C:\Users\pc\AppData\Local\Temp\ccVJgbIW.s 			page 7


 342 0032 00BFAFF3 		.section	.text.VectorE4,"ax",%progbits
 342      0080AFF3 
 342      0080AFF3 
 342      0080
 343              		.align	2
 344              		.p2align 4,,15
 345              		.global	VectorE4
 346              		.thumb
 347              		.thumb_func
 348              		.type	VectorE4, %function
 349              	VectorE4:
 350              		@ args = 0, pretend = 0, frame = 0
 351              		@ frame_needed = 0, uses_anonymous_args = 0
 352 0000 08B5     		push	{r3, lr}
 353 0002 FFF7FEFF 		bl	dbg_check_enter_isr
 354 0006 40F20000 		movw	r0, #:lower16:EXTD1
 355 000a C0F20000 		movt	r0, #:upper16:EXTD1
 356 000e 4FF47053 		mov	r3, #15360
 357 0012 4268     		ldr	r2, [r0, #4]
 358 0014 C4F20103 		movt	r3, 16385
 359 0018 4FF40031 		mov	r1, #131072
 360 001c D2F88C20 		ldr	r2, [r2, #140]
 361 0020 5961     		str	r1, [r3, #20]
 362 0022 1121     		movs	r1, #17
 363 0024 9047     		blx	r2
 364 0026 FFF7FEFF 		bl	dbg_check_leave_isr
 365 002a BDE80840 		pop	{r3, lr}
 366 002e FFF7FEBF 		b	_port_irq_epilogue
 367              		.size	VectorE4, .-VectorE4
 368 0032 00BFAFF3 		.section	.text.VectorE8,"ax",%progbits
 368      0080AFF3 
 368      0080AFF3 
 368      0080
 369              		.align	2
 370              		.p2align 4,,15
 371              		.global	VectorE8
 372              		.thumb
 373              		.thumb_func
 374              		.type	VectorE8, %function
 375              	VectorE8:
 376              		@ args = 0, pretend = 0, frame = 0
 377              		@ frame_needed = 0, uses_anonymous_args = 0
 378 0000 08B5     		push	{r3, lr}
 379 0002 FFF7FEFF 		bl	dbg_check_enter_isr
 380 0006 40F20000 		movw	r0, #:lower16:EXTD1
 381 000a C0F20000 		movt	r0, #:upper16:EXTD1
 382 000e 4FF47053 		mov	r3, #15360
 383 0012 4268     		ldr	r2, [r0, #4]
 384 0014 C4F20103 		movt	r3, 16385
 385 0018 4FF48021 		mov	r1, #262144
 386 001c D2F89420 		ldr	r2, [r2, #148]
 387 0020 5961     		str	r1, [r3, #20]
 388 0022 1221     		movs	r1, #18
 389 0024 9047     		blx	r2
 390 0026 FFF7FEFF 		bl	dbg_check_leave_isr
 391 002a BDE80840 		pop	{r3, lr}
 392 002e FFF7FEBF 		b	_port_irq_epilogue
ARM GAS  C:\Users\pc\AppData\Local\Temp\ccVJgbIW.s 			page 8


 393              		.size	VectorE8, .-VectorE8
 394 0032 00BFAFF3 		.section	.text.Vector138,"ax",%progbits
 394      0080AFF3 
 394      0080AFF3 
 394      0080
 395              		.align	2
 396              		.p2align 4,,15
 397              		.global	Vector138
 398              		.thumb
 399              		.thumb_func
 400              		.type	Vector138, %function
 401              	Vector138:
 402              		@ args = 0, pretend = 0, frame = 0
 403              		@ frame_needed = 0, uses_anonymous_args = 0
 404 0000 08B5     		push	{r3, lr}
 405 0002 FFF7FEFF 		bl	dbg_check_enter_isr
 406 0006 40F20000 		movw	r0, #:lower16:EXTD1
 407 000a C0F20000 		movt	r0, #:upper16:EXTD1
 408 000e 4FF47053 		mov	r3, #15360
 409 0012 4268     		ldr	r2, [r0, #4]
 410 0014 C4F20103 		movt	r3, 16385
 411 0018 4FF40021 		mov	r1, #524288
 412 001c D2F89C20 		ldr	r2, [r2, #156]
 413 0020 5961     		str	r1, [r3, #20]
 414 0022 1321     		movs	r1, #19
 415 0024 9047     		blx	r2
 416 0026 FFF7FEFF 		bl	dbg_check_leave_isr
 417 002a BDE80840 		pop	{r3, lr}
 418 002e FFF7FEBF 		b	_port_irq_epilogue
 419              		.size	Vector138, .-Vector138
 420 0032 00BFAFF3 		.section	.text.Vector170,"ax",%progbits
 420      0080AFF3 
 420      0080AFF3 
 420      0080
 421              		.align	2
 422              		.p2align 4,,15
 423              		.global	Vector170
 424              		.thumb
 425              		.thumb_func
 426              		.type	Vector170, %function
 427              	Vector170:
 428              		@ args = 0, pretend = 0, frame = 0
 429              		@ frame_needed = 0, uses_anonymous_args = 0
 430 0000 08B5     		push	{r3, lr}
 431 0002 FFF7FEFF 		bl	dbg_check_enter_isr
 432 0006 40F20000 		movw	r0, #:lower16:EXTD1
 433 000a C0F20000 		movt	r0, #:upper16:EXTD1
 434 000e 4FF47053 		mov	r3, #15360
 435 0012 4268     		ldr	r2, [r0, #4]
 436 0014 C4F20103 		movt	r3, 16385
 437 0018 4FF48011 		mov	r1, #1048576
 438 001c D2F8A420 		ldr	r2, [r2, #164]
 439 0020 5961     		str	r1, [r3, #20]
 440 0022 1421     		movs	r1, #20
 441 0024 9047     		blx	r2
 442 0026 FFF7FEFF 		bl	dbg_check_leave_isr
 443 002a BDE80840 		pop	{r3, lr}
ARM GAS  C:\Users\pc\AppData\Local\Temp\ccVJgbIW.s 			page 9


 444 002e FFF7FEBF 		b	_port_irq_epilogue
 445              		.size	Vector170, .-Vector170
 446 0032 00BFAFF3 		.section	.text.TAMPER_STAMP_IRQHandler,"ax",%progbits
 446      0080AFF3 
 446      0080AFF3 
 446      0080
 447              		.align	2
 448              		.p2align 4,,15
 449              		.global	TAMPER_STAMP_IRQHandler
 450              		.thumb
 451              		.thumb_func
 452              		.type	TAMPER_STAMP_IRQHandler, %function
 453              	TAMPER_STAMP_IRQHandler:
 454              		@ args = 0, pretend = 0, frame = 0
 455              		@ frame_needed = 0, uses_anonymous_args = 0
 456 0000 08B5     		push	{r3, lr}
 457 0002 FFF7FEFF 		bl	dbg_check_enter_isr
 458 0006 40F20000 		movw	r0, #:lower16:EXTD1
 459 000a C0F20000 		movt	r0, #:upper16:EXTD1
 460 000e 4FF47053 		mov	r3, #15360
 461 0012 4268     		ldr	r2, [r0, #4]
 462 0014 C4F20103 		movt	r3, 16385
 463 0018 4FF40011 		mov	r1, #2097152
 464 001c D2F8AC20 		ldr	r2, [r2, #172]
 465 0020 5961     		str	r1, [r3, #20]
 466 0022 1521     		movs	r1, #21
 467 0024 9047     		blx	r2
 468 0026 FFF7FEFF 		bl	dbg_check_leave_isr
 469 002a BDE80840 		pop	{r3, lr}
 470 002e FFF7FEBF 		b	_port_irq_epilogue
 471              		.size	TAMPER_STAMP_IRQHandler, .-TAMPER_STAMP_IRQHandler
 472 0032 00BFAFF3 		.section	.text.Vector4C,"ax",%progbits
 472      0080AFF3 
 472      0080AFF3 
 472      0080
 473              		.align	2
 474              		.p2align 4,,15
 475              		.global	Vector4C
 476              		.thumb
 477              		.thumb_func
 478              		.type	Vector4C, %function
 479              	Vector4C:
 480              		@ args = 0, pretend = 0, frame = 0
 481              		@ frame_needed = 0, uses_anonymous_args = 0
 482 0000 08B5     		push	{r3, lr}
 483 0002 FFF7FEFF 		bl	dbg_check_enter_isr
 484 0006 40F20000 		movw	r0, #:lower16:EXTD1
 485 000a C0F20000 		movt	r0, #:upper16:EXTD1
 486 000e 4FF47053 		mov	r3, #15360
 487 0012 4268     		ldr	r2, [r0, #4]
 488 0014 C4F20103 		movt	r3, 16385
 489 0018 4FF48001 		mov	r1, #4194304
 490 001c D2F8B420 		ldr	r2, [r2, #180]
 491 0020 5961     		str	r1, [r3, #20]
 492 0022 1621     		movs	r1, #22
 493 0024 9047     		blx	r2
 494 0026 FFF7FEFF 		bl	dbg_check_leave_isr
ARM GAS  C:\Users\pc\AppData\Local\Temp\ccVJgbIW.s 			page 10


 495 002a BDE80840 		pop	{r3, lr}
 496 002e FFF7FEBF 		b	_port_irq_epilogue
 497              		.size	Vector4C, .-Vector4C
 498 0032 00BFAFF3 		.section	.text.ext_lld_exti_irq_enable,"ax",%progbits
 498      0080AFF3 
 498      0080AFF3 
 498      0080
 499              		.align	2
 500              		.p2align 4,,15
 501              		.global	ext_lld_exti_irq_enable
 502              		.thumb
 503              		.thumb_func
 504              		.type	ext_lld_exti_irq_enable, %function
 505              	ext_lld_exti_irq_enable:
 506              		@ args = 0, pretend = 0, frame = 0
 507              		@ frame_needed = 0, uses_anonymous_args = 0
 508 0000 08B5     		push	{r3, lr}
 509 0002 0620     		movs	r0, #6
 510 0004 6021     		movs	r1, #96
 511 0006 FFF7FEFF 		bl	nvicEnableVector
 512 000a 0720     		movs	r0, #7
 513 000c 6021     		movs	r1, #96
 514 000e FFF7FEFF 		bl	nvicEnableVector
 515 0012 0820     		movs	r0, #8
 516 0014 6021     		movs	r1, #96
 517 0016 FFF7FEFF 		bl	nvicEnableVector
 518 001a 0920     		movs	r0, #9
 519 001c 6021     		movs	r1, #96
 520 001e FFF7FEFF 		bl	nvicEnableVector
 521 0022 0A20     		movs	r0, #10
 522 0024 6021     		movs	r1, #96
 523 0026 FFF7FEFF 		bl	nvicEnableVector
 524 002a 1720     		movs	r0, #23
 525 002c 6021     		movs	r1, #96
 526 002e FFF7FEFF 		bl	nvicEnableVector
 527 0032 2820     		movs	r0, #40
 528 0034 6021     		movs	r1, #96
 529 0036 FFF7FEFF 		bl	nvicEnableVector
 530 003a 0120     		movs	r0, #1
 531 003c 6021     		movs	r1, #96
 532 003e FFF7FEFF 		bl	nvicEnableVector
 533 0042 2920     		movs	r0, #41
 534 0044 F021     		movs	r1, #240
 535 0046 FFF7FEFF 		bl	nvicEnableVector
 536 004a 2A20     		movs	r0, #42
 537 004c 6021     		movs	r1, #96
 538 004e FFF7FEFF 		bl	nvicEnableVector
 539 0052 3E20     		movs	r0, #62
 540 0054 6021     		movs	r1, #96
 541 0056 FFF7FEFF 		bl	nvicEnableVector
 542 005a 4C20     		movs	r0, #76
 543 005c 6021     		movs	r1, #96
 544 005e FFF7FEFF 		bl	nvicEnableVector
 545 0062 0220     		movs	r0, #2
 546 0064 F021     		movs	r1, #240
 547 0066 FFF7FEFF 		bl	nvicEnableVector
 548 006a 0320     		movs	r0, #3
ARM GAS  C:\Users\pc\AppData\Local\Temp\ccVJgbIW.s 			page 11


 549 006c F021     		movs	r1, #240
 550 006e BDE80840 		pop	{r3, lr}
 551 0072 FFF7FEBF 		b	nvicEnableVector
 552              		.size	ext_lld_exti_irq_enable, .-ext_lld_exti_irq_enable
 553 0076 00BFAFF3 		.section	.text.ext_lld_exti_irq_disable,"ax",%progbits
 553      0080AFF3 
 553      0080
 554              		.align	2
 555              		.p2align 4,,15
 556              		.global	ext_lld_exti_irq_disable
 557              		.thumb
 558              		.thumb_func
 559              		.type	ext_lld_exti_irq_disable, %function
 560              	ext_lld_exti_irq_disable:
 561              		@ args = 0, pretend = 0, frame = 0
 562              		@ frame_needed = 0, uses_anonymous_args = 0
 563 0000 08B5     		push	{r3, lr}
 564 0002 0620     		movs	r0, #6
 565 0004 FFF7FEFF 		bl	nvicDisableVector
 566 0008 0720     		movs	r0, #7
 567 000a FFF7FEFF 		bl	nvicDisableVector
 568 000e 0820     		movs	r0, #8
 569 0010 FFF7FEFF 		bl	nvicDisableVector
 570 0014 0920     		movs	r0, #9
 571 0016 FFF7FEFF 		bl	nvicDisableVector
 572 001a 0A20     		movs	r0, #10
 573 001c FFF7FEFF 		bl	nvicDisableVector
 574 0020 1720     		movs	r0, #23
 575 0022 FFF7FEFF 		bl	nvicDisableVector
 576 0026 2820     		movs	r0, #40
 577 0028 FFF7FEFF 		bl	nvicDisableVector
 578 002c 0120     		movs	r0, #1
 579 002e FFF7FEFF 		bl	nvicDisableVector
 580 0032 2920     		movs	r0, #41
 581 0034 FFF7FEFF 		bl	nvicDisableVector
 582 0038 2A20     		movs	r0, #42
 583 003a FFF7FEFF 		bl	nvicDisableVector
 584 003e 3E20     		movs	r0, #62
 585 0040 FFF7FEFF 		bl	nvicDisableVector
 586 0044 4C20     		movs	r0, #76
 587 0046 FFF7FEFF 		bl	nvicDisableVector
 588 004a 0220     		movs	r0, #2
 589 004c FFF7FEFF 		bl	nvicDisableVector
 590 0050 0320     		movs	r0, #3
 591 0052 BDE80840 		pop	{r3, lr}
 592 0056 FFF7FEBF 		b	nvicDisableVector
 593              		.size	ext_lld_exti_irq_disable, .-ext_lld_exti_irq_disable
 594 005a 00BFAFF3 		.ident	"GCC: (Sourcery CodeBench Lite 2013.11-24) 4.8.1"
 594      0080
ARM GAS  C:\Users\pc\AppData\Local\Temp\ccVJgbIW.s 			page 12

