ARM GAS  C:\Users\pc\AppData\Local\Temp\cc3eAkQc.s 			page 1


   1              		.syntax unified
   2              		.cpu cortex-m4
   3              		.eabi_attribute 27, 3
   4              		.fpu fpv4-sp-d16
   5              		.eabi_attribute 20, 1
   6              		.eabi_attribute 21, 1
   7              		.eabi_attribute 23, 3
   8              		.eabi_attribute 24, 1
   9              		.eabi_attribute 25, 1
  10              		.eabi_attribute 26, 1
  11              		.eabi_attribute 30, 2
  12              		.eabi_attribute 34, 1
  13              		.eabi_attribute 18, 4
  14              		.thumb
  15              		.file	"ext_lld.c"
  16              		.section	.text.ext_lld_init,"ax",%progbits
  17              		.align	2
  18              		.p2align 4,,15
  19              		.global	ext_lld_init
  20              		.thumb
  21              		.thumb_func
  22              		.type	ext_lld_init, %function
  23              	ext_lld_init:
  24              		@ args = 0, pretend = 0, frame = 0
  25              		@ frame_needed = 0, uses_anonymous_args = 0
  26              		@ link register save eliminated.
  27 0000 40F20000 		movw	r0, #:lower16:.LANCHOR0
  28 0004 C0F20000 		movt	r0, #:upper16:.LANCHOR0
  29 0008 FFF7FEBF 		b	extObjectInit
  30              		.size	ext_lld_init, .-ext_lld_init
  31 000c AFF30080 		.section	.text.ext_lld_stop,"ax",%progbits
  32              		.align	2
  33              		.p2align 4,,15
  34              		.global	ext_lld_stop
  35              		.thumb
  36              		.thumb_func
  37              		.type	ext_lld_stop, %function
  38              	ext_lld_stop:
  39              		@ args = 0, pretend = 0, frame = 0
  40              		@ frame_needed = 0, uses_anonymous_args = 0
  41 0000 08B5     		push	{r3, lr}
  42 0002 0378     		ldrb	r3, [r0]	@ zero_extendqisi2
  43 0004 022B     		cmp	r3, #2
  44 0006 0AD0     		beq	.L5
  45              	.L3:
  46 0008 4FF47053 		mov	r3, #15360
  47 000c C4F20103 		movt	r3, 16385
  48 0010 0022     		movs	r2, #0
  49 0012 4FF0FF31 		mov	r1, #-1
  50 0016 5A60     		str	r2, [r3, #4]
  51 0018 1A60     		str	r2, [r3]
  52 001a 5961     		str	r1, [r3, #20]
  53 001c 08BD     		pop	{r3, pc}
  54              	.L5:
  55 001e FFF7FEFF 		bl	ext_lld_exti_irq_disable
  56 0022 F1E7     		b	.L3
  57              		.size	ext_lld_stop, .-ext_lld_stop
ARM GAS  C:\Users\pc\AppData\Local\Temp\cc3eAkQc.s 			page 2


  58 0024 AFF30080 		.section	.text.ext_lld_channel_enable,"ax",%progbits
  58      AFF30080 
  58      AFF30080 
  59              		.align	2
  60              		.p2align 4,,15
  61              		.global	ext_lld_channel_enable
  62              		.thumb
  63              		.thumb_func
  64              		.type	ext_lld_channel_enable, %function
  65              	ext_lld_channel_enable:
  66              		@ args = 0, pretend = 0, frame = 0
  67              		@ frame_needed = 0, uses_anonymous_args = 0
  68              		@ link register save eliminated.
  69 0000 0F29     		cmp	r1, #15
  70 0002 F0B4     		push	{r4, r5, r6, r7}
  71 0004 29D9     		bls	.L7
  72 0006 4368     		ldr	r3, [r0, #4]
  73 0008 53F83100 		ldr	r0, [r3, r1, lsl #3]
  74 000c C207     		lsls	r2, r0, #31
  75 000e 3DD5     		bpl	.L9
  76              	.L15:
  77 0010 4FF47054 		mov	r4, #15360
  78 0014 C4F20104 		movt	r4, 16385
  79 0018 0122     		movs	r2, #1
  80 001a A568     		ldr	r5, [r4, #8]
  81 001c 8A40     		lsls	r2, r2, r1
  82 001e 1543     		orrs	r5, r5, r2
  83 0020 A560     		str	r5, [r4, #8]
  84 0022 D443     		mvns	r4, r2
  85              	.L10:
  86 0024 10F0020F 		tst	r0, #2
  87 0028 4FF47050 		mov	r0, #15360
  88 002c C4F20100 		movt	r0, 16385
  89 0030 03EBC101 		add	r1, r3, r1, lsl #3
  90 0034 C568     		ldr	r5, [r0, #12]
  91 0036 4B68     		ldr	r3, [r1, #4]
  92 0038 14BF     		ite	ne
  93 003a 1543     		orrne	r5, r2, r5
  94 003c 2540     		andeq	r5, r4, r5
  95 003e C560     		str	r5, [r0, #12]
  96 0040 7BB3     		cbz	r3, .L13
  97 0042 4FF47053 		mov	r3, #15360
  98 0046 C4F20103 		movt	r3, 16385
  99 004a 1968     		ldr	r1, [r3]
 100 004c 0A43     		orrs	r2, r2, r1
 101 004e 1A60     		str	r2, [r3]
 102 0050 5A68     		ldr	r2, [r3, #4]
 103 0052 1440     		ands	r4, r4, r2
 104 0054 5C60     		str	r4, [r3, #4]
 105 0056 F0BC     		pop	{r4, r5, r6, r7}
 106 0058 7047     		bx	lr
 107              	.L7:
 108 005a 21F00302 		bic	r2, r1, #3
 109 005e 4368     		ldr	r3, [r0, #4]
 110 0060 02F18042 		add	r2, r2, #1073741824
 111 0064 02F59C32 		add	r2, r2, #79872
 112 0068 53F83100 		ldr	r0, [r3, r1, lsl #3]
ARM GAS  C:\Users\pc\AppData\Local\Temp\cc3eAkQc.s 			page 3


 113 006c 9768     		ldr	r7, [r2, #8]
 114 006e 01F00304 		and	r4, r1, #3
 115 0072 A400     		lsls	r4, r4, #2
 116 0074 0F25     		movs	r5, #15
 117 0076 A540     		lsls	r5, r5, r4
 118 0078 C0F30316 		ubfx	r6, r0, #4, #4
 119 007c 27EA0505 		bic	r5, r7, r5
 120 0080 06FA04F4 		lsl	r4, r6, r4
 121 0084 2C43     		orrs	r4, r4, r5
 122 0086 9460     		str	r4, [r2, #8]
 123 0088 C207     		lsls	r2, r0, #31
 124 008a C1D4     		bmi	.L15
 125              	.L9:
 126 008c 4FF47055 		mov	r5, #15360
 127 0090 C4F20105 		movt	r5, 16385
 128 0094 0122     		movs	r2, #1
 129 0096 AE68     		ldr	r6, [r5, #8]
 130 0098 8A40     		lsls	r2, r2, r1
 131 009a D443     		mvns	r4, r2
 132 009c 2640     		ands	r6, r6, r4
 133 009e AE60     		str	r6, [r5, #8]
 134 00a0 C0E7     		b	.L10
 135              	.L13:
 136 00a2 4FF47053 		mov	r3, #15360
 137 00a6 C4F20103 		movt	r3, 16385
 138 00aa 5968     		ldr	r1, [r3, #4]
 139 00ac 0A43     		orrs	r2, r2, r1
 140 00ae 5A60     		str	r2, [r3, #4]
 141 00b0 1A68     		ldr	r2, [r3]
 142 00b2 1440     		ands	r4, r4, r2
 143 00b4 1C60     		str	r4, [r3]
 144 00b6 F0BC     		pop	{r4, r5, r6, r7}
 145 00b8 7047     		bx	lr
 146              		.size	ext_lld_channel_enable, .-ext_lld_channel_enable
 147 00ba 00BFAFF3 		.section	.text.ext_lld_channel_disable,"ax",%progbits
 147      0080
 148              		.align	2
 149              		.p2align 4,,15
 150              		.global	ext_lld_channel_disable
 151              		.thumb
 152              		.thumb_func
 153              		.type	ext_lld_channel_disable, %function
 154              	ext_lld_channel_disable:
 155              		@ args = 0, pretend = 0, frame = 0
 156              		@ frame_needed = 0, uses_anonymous_args = 0
 157              		@ link register save eliminated.
 158 0000 4FF47053 		mov	r3, #15360
 159 0004 C4F20103 		movt	r3, 16385
 160 0008 0122     		movs	r2, #1
 161 000a 1868     		ldr	r0, [r3]
 162 000c 02FA01F1 		lsl	r1, r2, r1
 163 0010 CA43     		mvns	r2, r1
 164 0012 1040     		ands	r0, r0, r2
 165 0014 1860     		str	r0, [r3]
 166 0016 5868     		ldr	r0, [r3, #4]
 167 0018 1040     		ands	r0, r0, r2
 168 001a 5860     		str	r0, [r3, #4]
ARM GAS  C:\Users\pc\AppData\Local\Temp\cc3eAkQc.s 			page 4


 169 001c 9868     		ldr	r0, [r3, #8]
 170 001e 1040     		ands	r0, r0, r2
 171 0020 9860     		str	r0, [r3, #8]
 172 0022 D868     		ldr	r0, [r3, #12]
 173 0024 0240     		ands	r2, r2, r0
 174 0026 DA60     		str	r2, [r3, #12]
 175 0028 5961     		str	r1, [r3, #20]
 176 002a 7047     		bx	lr
 177              		.size	ext_lld_channel_disable, .-ext_lld_channel_disable
 178 002c AFF30080 		.section	.text.ext_lld_start,"ax",%progbits
 179              		.align	2
 180              		.p2align 4,,15
 181              		.global	ext_lld_start
 182              		.thumb
 183              		.thumb_func
 184              		.type	ext_lld_start, %function
 185              	ext_lld_start:
 186              		@ args = 0, pretend = 0, frame = 0
 187              		@ frame_needed = 0, uses_anonymous_args = 0
 188 0000 38B5     		push	{r3, r4, r5, lr}
 189 0002 0378     		ldrb	r3, [r0]	@ zero_extendqisi2
 190 0004 012B     		cmp	r3, #1
 191 0006 0546     		mov	r5, r0
 192 0008 14D0     		beq	.L23
 193              	.L18:
 194 000a 0024     		movs	r4, #0
 195 000c 04E0     		b	.L22
 196              	.L25:
 197 000e 0134     		adds	r4, r4, #1
 198 0010 FFF7FEFF 		bl	ext_lld_channel_enable
 199 0014 172C     		cmp	r4, #23
 200 0016 0CD0     		beq	.L24
 201              	.L22:
 202 0018 6B68     		ldr	r3, [r5, #4]
 203 001a 53F83430 		ldr	r3, [r3, r4, lsl #3]
 204 001e 13F0040F 		tst	r3, #4
 205 0022 2146     		mov	r1, r4
 206 0024 2846     		mov	r0, r5
 207 0026 F2D1     		bne	.L25
 208 0028 0134     		adds	r4, r4, #1
 209 002a FFF7FEFF 		bl	ext_lld_channel_disable
 210 002e 172C     		cmp	r4, #23
 211 0030 F2D1     		bne	.L22
 212              	.L24:
 213 0032 38BD     		pop	{r3, r4, r5, pc}
 214              	.L23:
 215 0034 FFF7FEFF 		bl	ext_lld_exti_irq_enable
 216 0038 E7E7     		b	.L18
 217              		.size	ext_lld_start, .-ext_lld_start
 218              		.global	EXTD1
 219 003a 00BFAFF3 		.section	.bss.EXTD1,"aw",%nobits
 219      0080
 220              		.align	2
 221              		.set	.LANCHOR0,. + 0
 222              		.type	EXTD1, %object
 223              		.size	EXTD1, 8
 224              	EXTD1:
ARM GAS  C:\Users\pc\AppData\Local\Temp\cc3eAkQc.s 			page 5


 225 0000 00000000 		.space	8
 225      00000000 
 226              		.ident	"GCC: (Sourcery CodeBench Lite 2013.11-24) 4.8.1"
ARM GAS  C:\Users\pc\AppData\Local\Temp\cc3eAkQc.s 			page 6

