ARM GAS  C:\Users\pc\AppData\Local\Temp\cc6Wqhmv.s 			page 1


   1              		.syntax unified
   2              		.cpu cortex-m4
   3              		.eabi_attribute 27, 3
   4              		.fpu fpv4-sp-d16
   5              		.eabi_attribute 20, 1
   6              		.eabi_attribute 21, 1
   7              		.eabi_attribute 23, 3
   8              		.eabi_attribute 24, 1
   9              		.eabi_attribute 25, 1
  10              		.eabi_attribute 26, 1
  11              		.eabi_attribute 30, 2
  12              		.eabi_attribute 34, 1
  13              		.eabi_attribute 18, 4
  14              		.thumb
  15              		.file	"ford_1995_inline_6.cpp"
  16              		.section	.text._Z14setFordInline6v,"ax",%progbits
  17              		.align	2
  18              		.p2align 4,,15
  19              		.global	_Z14setFordInline6v
  20              		.thumb
  21              		.thumb_func
  22              		.type	_Z14setFordInline6v, %function
  23              	_Z14setFordInline6v:
  24              		@ args = 0, pretend = 0, frame = 0
  25              		@ frame_needed = 0, uses_anonymous_args = 0
  26 0000 2DE9F04F 		push	{r4, r5, r6, r7, r8, r9, r10, fp, lr}
  27 0004 40F20005 		movw	r5, #:lower16:engineConfiguration
  28 0008 C0F20005 		movt	r5, #:upper16:engineConfiguration
  29 000c 2DED048B 		fstmfdd	sp!, {d8, d9}
  30 0010 2868     		ldr	r0, [r5]
  31 0012 0626     		movs	r6, #6
  32 0014 85B0     		sub	sp, sp, #20
  33 0016 0221     		movs	r1, #2
  34 0018 C0F89461 		str	r6, [r0, #404]
  35 001c FFF7FEFF 		bl	_Z16setOperationModeP22engine_configuration_s16operation_mode_e
  36 0020 2B68     		ldr	r3, [r5]
  37 0022 93F8E525 		ldrb	r2, [r3, #1509]	@ zero_extendqisi2
  38 0026 0024     		movs	r4, #0
  39 0028 0227     		movs	r7, #2
  40 002a 42F02002 		orr	r2, r2, #32
  41 002e 4FF00408 		mov	r8, #4
  42 0032 83F8E525 		strb	r2, [r3, #1509]
  43 0036 C3F8BC41 		str	r4, [r3, #444]
  44 003a C3F8AC41 		str	r4, [r3, #428]
  45 003e C3F89881 		str	r8, [r3, #408]
  46 0042 C3F8B071 		str	r7, [r3, #432]
  47 0046 4FF07C50 		mov	r0, #1056964608
  48 004a FFF7FEFF 		bl	_Z16setConstantDwellf
  49 004e 2868     		ldr	r0, [r5]
  50 0050 9FED519A 		flds	s18, .L2
  51 0054 DFED518A 		flds	s17, .L2+4
  52 0058 48F6805A 		movw	r10, #36224
  53 005c 44F21F53 		movw	r3, #17695
  54 0060 4FF00009 		mov	r9, #0
  55 0064 4FF4004B 		mov	fp, #32768
  56 0068 0022     		movs	r2, #0
  57 006a C0F82062 		str	r6, [r0, #544]
ARM GAS  C:\Users\pc\AppData\Local\Temp\cc6Wqhmv.s 			page 2


  58 006e C4F61C0A 		movt	r10, 18460
  59 0072 C4F27029 		movt	r9, 17008
  60 0076 C4F2934B 		movt	fp, 17555
  61 007a 0026     		movs	r6, #0
  62 007c C4F24F33 		movt	r3, 17231
  63 0080 C4F25012 		movt	r2, 16720
  64 0084 0021     		movs	r1, #0
  65 0086 C0F81842 		str	r4, [r0, #536]
  66 008a C0F82442 		str	r4, [r0, #548]
  67 008e C0F8CC61 		str	r6, [r0, #460]	@ float
  68 0092 C0F8C021 		str	r2, [r0, #448]	@ float
  69 0096 C0F8B431 		str	r3, [r0, #436]	@ float
  70 009a 5246     		mov	r2, r10	@ float
  71 009c 4B46     		mov	r3, r9	@ float
  72 009e CDF808B0 		str	fp, [sp, #8]	@ float
  73 00a2 CCF22011 		movt	r1, 49440
  74 00a6 00F58070 		add	r0, r0, #256
  75 00aa 8DED009A 		fsts	s18, [sp]
  76 00ae CDED018A 		fsts	s17, [sp, #4]
  77 00b2 FFF7FEFF 		bl	_Z26setThermistorConfigurationP14ThermistorConfffffff
  78 00b6 9FED3A8A 		flds	s16, .L2+8
  79 00ba 2868     		ldr	r0, [r5]
  80 00bc 0021     		movs	r1, #0
  81 00be 40F20006 		movw	r6, #:lower16:boardConfiguration
  82 00c2 80ED468A 		fsts	s16, [r0, #280]
  83 00c6 C0F20006 		movt	r6, #:upper16:boardConfiguration
  84 00ca 5246     		mov	r2, r10	@ float
  85 00cc 4B46     		mov	r3, r9	@ float
  86 00ce CDF808B0 		str	fp, [sp, #8]	@ float
  87 00d2 CCF22011 		movt	r1, 49440
  88 00d6 00F59070 		add	r0, r0, #288
  89 00da 8DED009A 		fsts	s18, [sp]
  90 00de CDED018A 		fsts	s17, [sp, #4]
  91 00e2 FFF7FEFF 		bl	_Z26setThermistorConfigurationP14ThermistorConfffffff
  92 00e6 2C68     		ldr	r4, [r5]
  93 00e8 3368     		ldr	r3, [r6]
  94 00ea C4F80C82 		str	r8, [r4, #524]
  95 00ee 0720     		movs	r0, #7
  96 00f0 C4F86C02 		str	r0, [r4, #620]
  97 00f4 5022     		movs	r2, #80
  98 00f6 4FF0190C 		mov	ip, #25
  99 00fa 4FF0430E 		mov	lr, #67
 100 00fe 2F21     		movs	r1, #47
 101 0100 4FF00108 		mov	r8, #1
 102 0104 4FF00B0B 		mov	fp, #11
 103 0108 4FF00F0A 		mov	r10, #15
 104 010c 4FF02D09 		mov	r9, #45
 105 0110 0020     		movs	r0, #0
 106 0112 84ED4E8A 		fsts	s16, [r4, #312]
 107 0116 C4F83C71 		str	r7, [r4, #316]
 108 011a C4F8F870 		str	r7, [r4, #248]
 109 011e C4F86872 		str	r7, [r4, #616]
 110 0122 C4F848B2 		str	fp, [r4, #584]
 111 0126 C4F8FCA0 		str	r10, [r4, #252]
 112 012a C4F81C81 		str	r8, [r4, #284]
 113 012e C3F6A070 		movt	r0, 16288
 114 0132 C3F81890 		str	r9, [r3, #24]
ARM GAS  C:\Users\pc\AppData\Local\Temp\cc6Wqhmv.s 			page 3


 115 0136 C3F820C0 		str	ip, [r3, #32]
 116 013a C3F824E0 		str	lr, [r3, #36]
 117 013e 5965     		str	r1, [r3, #84]
 118 0140 9A62     		str	r2, [r3, #40]
 119 0142 C3F89020 		str	r2, [r3, #144]
 120 0146 FFF7FEFF 		bl	_Z24convertVoltageTo10bitADCf
 121 014a A4F85200 		strh	r0, [r4, #82]	@ movhi
 122 014e 43F24C70 		movw	r0, #14156
 123 0152 C4F29100 		movt	r0, 16529
 124 0156 2C68     		ldr	r4, [r5]
 125 0158 FFF7FEFF 		bl	_Z24convertVoltageTo10bitADCf
 126 015c 2B68     		ldr	r3, [r5]
 127 015e A4F85400 		strh	r0, [r4, #84]	@ movhi
 128 0162 93F8D925 		ldrb	r2, [r3, #1497]	@ zero_extendqisi2
 129 0166 C3F84482 		str	r8, [r3, #580]
 130 016a 42F04002 		orr	r2, r2, #64
 131 016e 83F8D925 		strb	r2, [r3, #1497]
 132 0172 3368     		ldr	r3, [r6]
 133 0174 0824     		movs	r4, #8
 134 0176 0520     		movs	r0, #5
 135 0178 2621     		movs	r1, #38
 136 017a 4522     		movs	r2, #69
 137 017c C3F82841 		str	r4, [r3, #296]
 138 0180 C3F82C01 		str	r0, [r3, #300]
 139 0184 C3F88411 		str	r1, [r3, #388]
 140 0188 C3F88821 		str	r2, [r3, #392]
 141 018c 05B0     		add	sp, sp, #20
 142              		@ sp needed
 143 018e BDEC048B 		fldmfdd	sp!, {d8-d9}
 144 0192 BDE8F08F 		pop	{r4, r5, r6, r7, r8, r9, r10, fp, pc}
 145              	.L3:
 146 0196 00BF     		.align	2
 147              	.L2:
 148 0198 00A0F045 		.word	1173397504
 149 019c 0000F042 		.word	1123024896
 150 01a0 00C02845 		.word	1160298496
 151              		.size	_Z14setFordInline6v, .-_Z14setFordInline6v
 152 01a4 AFF30080 		.ident	"GCC: (Sourcery CodeBench Lite 2013.11-24) 4.8.1"
 152      AFF30080 
 152      AFF30080 
ARM GAS  C:\Users\pc\AppData\Local\Temp\cc6Wqhmv.s 			page 4


DEFINED SYMBOLS
                            *ABS*:00000000 ford_1995_inline_6.cpp
C:\Users\pc\AppData\Local\Temp\cc6Wqhmv.s:17     .text._Z14setFordInline6v:00000000 $t
C:\Users\pc\AppData\Local\Temp\cc6Wqhmv.s:23     .text._Z14setFordInline6v:00000000 _Z14setFordInline6v
C:\Users\pc\AppData\Local\Temp\cc6Wqhmv.s:148    .text._Z14setFordInline6v:00000198 $d
C:\Users\pc\AppData\Local\Temp\cc6Wqhmv.s:152    .text._Z14setFordInline6v:000001a4 $t

UNDEFINED SYMBOLS
engineConfiguration
_Z16setOperationModeP22engine_configuration_s16operation_mode_e
_Z16setConstantDwellf
_Z26setThermistorConfigurationP14ThermistorConfffffff
boardConfiguration
_Z24convertVoltageTo10bitADCf
