ARM GAS  C:\Users\pc\AppData\Local\Temp\ccYA1mJ4.s 			page 1


   1              		.syntax unified
   2              		.cpu cortex-m4
   3              		.eabi_attribute 27, 3
   4              		.fpu fpv4-sp-d16
   5              		.eabi_attribute 20, 1
   6              		.eabi_attribute 21, 1
   7              		.eabi_attribute 23, 3
   8              		.eabi_attribute 24, 1
   9              		.eabi_attribute 25, 1
  10              		.eabi_attribute 26, 1
  11              		.eabi_attribute 30, 2
  12              		.eabi_attribute 34, 1
  13              		.eabi_attribute 18, 4
  14              		.thumb
  15              		.file	"ford_aspire.cpp"
  16              		.section	.text._Z32setFordAspireEngineConfigurationv,"ax",%progbits
  17              		.align	2
  18              		.p2align 4,,15
  19              		.global	_Z32setFordAspireEngineConfigurationv
  20              		.thumb
  21              		.thumb_func
  22              		.type	_Z32setFordAspireEngineConfigurationv, %function
  23              	_Z32setFordAspireEngineConfigurationv:
  24              		@ args = 0, pretend = 0, frame = 0
  25              		@ frame_needed = 0, uses_anonymous_args = 0
  26 0000 2DE9F04F 		push	{r4, r5, r6, r7, r8, r9, r10, fp, lr}
  27 0004 40F20004 		movw	r4, #:lower16:engineConfiguration
  28 0008 C0F20004 		movt	r4, #:upper16:engineConfiguration
  29 000c 85B0     		sub	sp, sp, #20
  30 000e 2068     		ldr	r0, [r4]
  31 0010 4FF48048 		mov	r8, #16384
  32 0014 48F63C6C 		movw	ip, #36412
  33 0018 4FF0000E 		mov	lr, #0
  34 001c C4F2432C 		movt	ip, 16963
  35 0020 C4F27A4E 		movt	lr, 17530
  36 0024 C4F20358 		movt	r8, 17667
  37 0028 6427     		movs	r7, #100
  38 002a 40F2EE26 		movw	r6, #750
  39 002e 41F65835 		movw	r5, #7000
  40 0032 0021     		movs	r1, #0
  41 0034 4FF42042 		mov	r2, #40960
  42 0038 41F67843 		movw	r3, #7288
  43 003c A0F85270 		strh	r7, [r0, #82]	@ movhi
  44 0040 A0F85460 		strh	r6, [r0, #84]	@ movhi
  45 0044 C0F8A451 		str	r5, [r0, #420]
  46 0048 CCF2A011 		movt	r1, 49568
  47 004c CDF80080 		str	r8, [sp]	@ float
  48 0050 CDF804C0 		str	ip, [sp, #4]	@ float
  49 0054 CDF808E0 		str	lr, [sp, #8]	@ float
  50 0058 C4F28C62 		movt	r2, 18060
  51 005c C4F2BF13 		movt	r3, 16831
  52 0060 00F58070 		add	r0, r0, #256
  53 0064 FFF7FEFF 		bl	_Z26setThermistorConfigurationP14ThermistorConfffffff
  54 0068 4FF48048 		mov	r8, #16384
  55 006c 2368     		ldr	r3, [r4]
  56 006e C4F24E58 		movt	r8, 17742
  57 0072 49F69A1B 		movw	fp, #39322
ARM GAS  C:\Users\pc\AppData\Local\Temp\ccYA1mJ4.s 			page 2


  58 0076 46F2666E 		movw	lr, #26214
  59 007a 49F69A16 		movw	r6, #39322
  60 007e 0020     		movs	r0, #0
  61 0080 0021     		movs	r1, #0
  62 0082 0022     		movs	r2, #0
  63 0084 4CF6CD4A 		movw	r10, #52429
  64 0088 4FF0000C 		mov	ip, #0
  65 008c C3F6A67E 		movt	lr, 16294
  66 0090 C4F2400C 		movt	ip, 16448
  67 0094 C4F2CF32 		movt	r2, 17359
  68 0098 C3F81881 		str	r8, [r3, #280]	@ float
  69 009c 0125     		movs	r5, #1
  70 009e 0427     		movs	r7, #4
  71 00a0 C3F6997B 		movt	fp, 16281
  72 00a4 C4F28C0A 		movt	r10, 16524
  73 00a8 C4F2EF26 		movt	r6, 17135
  74 00ac C4F22F30 		movt	r0, 17199
  75 00b0 C4F2AE21 		movt	r1, 17070
  76 00b4 4FF00009 		mov	r9, #0
  77 00b8 4FF44048 		mov	r8, #49152
  78 00bc C3F85CC0 		str	ip, [r3, #92]	@ float
  79 00c0 C3F890E1 		str	lr, [r3, #400]	@ float
  80 00c4 9E60     		str	r6, [r3, #8]	@ float
  81 00c6 C3F8CC01 		str	r0, [r3, #460]	@ float
  82 00ca C3F8C011 		str	r1, [r3, #448]	@ float
  83 00ce C3F8B421 		str	r2, [r3, #436]	@ float
  84 00d2 C3F89471 		str	r7, [r3, #404]
  85 00d6 C3F89851 		str	r5, [r3, #408]
  86 00da C4F24849 		movt	r9, 17480
  87 00de C4F2DA58 		movt	r8, 17882
  88 00e2 5846     		mov	r0, fp	@ float
  89 00e4 5146     		mov	r1, r10	@ float
  90 00e6 FFF7FEFF 		bl	_Z14setFuelLoadBinff
  91 00ea 40F20006 		movw	r6, #:lower16:config
  92 00ee 4846     		mov	r0, r9	@ float
  93 00f0 4146     		mov	r1, r8	@ float
  94 00f2 FFF7FEFF 		bl	_Z13setFuelRpmBinff
  95 00f6 C0F20006 		movt	r6, #:upper16:config
  96 00fa 5846     		mov	r0, fp	@ float
  97 00fc 5146     		mov	r1, r10	@ float
  98 00fe FFF7FEFF 		bl	_Z16setTimingLoadBinff
  99 0102 4846     		mov	r0, r9	@ float
 100 0104 4146     		mov	r1, r8	@ float
 101 0106 FFF7FEFF 		bl	_Z15setTimingRpmBinff
 102 010a 3168     		ldr	r1, [r6]
 103 010c 40F20000 		movw	r0, #:lower16:.LANCHOR0
 104 0110 01F52651 		add	r1, r1, #10624
 105 0114 3831     		adds	r1, r1, #56
 106 0116 C0F20000 		movt	r0, #:upper16:.LANCHOR0
 107 011a FFF7FEFF 		bl	_Z13copyFuelTablePA16_KfPA16_f
 108 011e 3168     		ldr	r1, [r6]
 109 0120 40F20000 		movw	r0, #:lower16:.LANCHOR1
 110 0124 01F53851 		add	r1, r1, #11776
 111 0128 3831     		adds	r1, r1, #56
 112 012a C0F20000 		movt	r0, #:upper16:.LANCHOR1
 113 012e FFF7FEFF 		bl	_Z15copyTimingTablePA16_KfPA16_f
 114 0132 2068     		ldr	r0, [r4]
ARM GAS  C:\Users\pc\AppData\Local\Temp\ccYA1mJ4.s 			page 3


 115 0134 0021     		movs	r1, #0
 116 0136 0022     		movs	r2, #0
 117 0138 CCF21422 		movt	r2, 49684
 118 013c 40F22623 		movw	r3, #550
 119 0140 C4F28C21 		movt	r1, 17036
 120 0144 A0F86030 		strh	r3, [r0, #96]	@ movhi
 121 0148 C0F8B821 		str	r2, [r0, #440]	@ float
 122 014c C166     		str	r1, [r0, #108]	@ float
 123 014e FFF7FEFF 		bl	_Z18setSingleCoilDwellP22engine_configuration_s
 124 0152 2068     		ldr	r0, [r4]
 125 0154 0026     		movs	r6, #0
 126 0156 C0F8BC61 		str	r6, [r0, #444]
 127 015a 0221     		movs	r1, #2
 128 015c FFF7FEFF 		bl	_Z16setOperationModeP22engine_configuration_s16operation_mode_e
 129 0160 2368     		ldr	r3, [r4]
 130 0162 93F8E515 		ldrb	r1, [r3, #1509]	@ zero_extendqisi2
 131 0166 C3F81852 		str	r5, [r3, #536]
 132 016a 40F20002 		movw	r2, #:lower16:boardConfiguration
 133 016e 41F04001 		orr	r1, r1, #64
 134 0172 C0F20002 		movt	r2, #:upper16:boardConfiguration
 135 0176 83F8E515 		strb	r1, [r3, #1509]
 136 017a 1268     		ldr	r2, [r2]
 137 017c 5021     		movs	r1, #80
 138 017e 4FF0140C 		mov	ip, #20
 139 0182 0324     		movs	r4, #3
 140 0184 0B20     		movs	r0, #11
 141 0186 1163     		str	r1, [r2, #48]
 142 0188 5163     		str	r1, [r2, #52]
 143 018a C3F80872 		str	r7, [r3, #520]
 144 018e C3F8D861 		str	r6, [r3, #472]
 145 0192 C3F8FC70 		str	r7, [r3, #252]
 146 0196 C3F84452 		str	r5, [r3, #580]
 147 019a C3F8F850 		str	r5, [r3, #248]
 148 019e C3F804C2 		str	ip, [r3, #516]
 149 01a2 C3F80C42 		str	r4, [r3, #524]
 150 01a6 C3F81C01 		str	r0, [r3, #284]
 151 01aa 05B0     		add	sp, sp, #20
 152              		@ sp needed
 153 01ac BDE8F08F 		pop	{r4, r5, r6, r7, r8, r9, r10, fp, pc}
 154              		.size	_Z32setFordAspireEngineConfigurationv, .-_Z32setFordAspireEngineConfigurationv
 155              		.section	.rodata._ZL25default_aspire_fuel_table,"a",%progbits
 156              		.align	2
 157              		.set	.LANCHOR0,. + 0
 158              		.type	_ZL25default_aspire_fuel_table, %object
 159              		.size	_ZL25default_aspire_fuel_table, 1024
 160              	_ZL25default_aspire_fuel_table:
 161 0000 4260C53F 		.word	1069899842
 162 0004 C217C63F 		.word	1069946818
 163 0008 94A3C63F 		.word	1069982612
 164 000c C3F5C83F 		.word	1070134723
 165 0010 6666C63F 		.word	1069966950
 166 0014 569E683F 		.word	1063820886
 167 0018 03784B3F 		.word	1061910531
 168 001c 8273463F 		.word	1061581698
 169 0020 04AF4A3F 		.word	1061859076
 170 0024 CDCC4C3F 		.word	1061997773
 171 0028 71754C3F 		.word	1061975409
ARM GAS  C:\Users\pc\AppData\Local\Temp\ccYA1mJ4.s 			page 4


 172 002c 85444E3F 		.word	1062093957
 173 0030 295C4F3F 		.word	1062165545
 174 0034 295C4F3F 		.word	1062165545
 175 0038 295C4F3F 		.word	1062165545
 176 003c 295C4F3F 		.word	1062165545
 177 0040 EF1CC43F 		.word	1069817071
 178 0044 925CC83F 		.word	1070095506
 179 0048 2A8FC63F 		.word	1069977386
 180 004c 44C1C63F 		.word	1069990212
 181 0050 EBE3C53F 		.word	1069933547
 182 0054 B4554D3F 		.word	1062032820
 183 0058 295C4F3F 		.word	1062165545
 184 005c 98DB493F 		.word	1061804952
 185 0060 F0134F3F 		.word	1062147056
 186 0064 78B73E3F 		.word	1061074808
 187 0068 828D333F 		.word	1060343170
 188 006c 931E363F 		.word	1060511379
 189 0070 7FA23E3F 		.word	1061069439
 190 0074 295C4F3F 		.word	1062165545
 191 0078 295C4F3F 		.word	1062165545
 192 007c 295C4F3F 		.word	1062165545
 193 0080 AF94C53F 		.word	1069913263
 194 0084 56D5C53F 		.word	1069929814
 195 0088 9129C73F 		.word	1070016913
 196 008c 71E2C53F 		.word	1069933169
 197 0090 A229B53F 		.word	1068837282
 198 0094 1D1CEC3D 		.word	1038883869
 199 0098 00000000 		.word	0
 200 009c 00000000 		.word	0
 201 00a0 00000000 		.word	0
 202 00a4 00000000 		.word	0
 203 00a8 00000000 		.word	0
 204 00ac 00000000 		.word	0
 205 00b0 00000000 		.word	0
 206 00b4 00000000 		.word	0
 207 00b8 00000000 		.word	0
 208 00bc 00000000 		.word	0
 209 00c0 66F7C43F 		.word	1069872998
 210 00c4 5AF6DE3F 		.word	1071576666
 211 00c8 817AC73F 		.word	1070037633
 212 00cc 4EB4CB3F 		.word	1070314574
 213 00d0 6F489D3F 		.word	1067272303
 214 00d4 00000000 		.word	0
 215 00d8 00000000 		.word	0
 216 00dc 00000000 		.word	0
 217 00e0 00000000 		.word	0
 218 00e4 00000000 		.word	0
 219 00e8 00000000 		.word	0
 220 00ec 00000000 		.word	0
 221 00f0 00000000 		.word	0
 222 00f4 00000000 		.word	0
 223 00f8 00000000 		.word	0
 224 00fc 00000000 		.word	0
 225 0100 EFAA1440 		.word	1075096303
 226 0104 C8275C40 		.word	1079781320
 227 0108 AE623440 		.word	1077174958
 228 010c 49810F40 		.word	1074757961
ARM GAS  C:\Users\pc\AppData\Local\Temp\ccYA1mJ4.s 			page 5


 229 0110 BF0D0840 		.word	1074269631
 230 0114 56D6983F 		.word	1066980950
 231 0118 D658FA3E 		.word	1056594134
 232 011c 00000000 		.word	0
 233 0120 00000000 		.word	0
 234 0124 00000000 		.word	0
 235 0128 00000000 		.word	0
 236 012c 00000000 		.word	0
 237 0130 00000000 		.word	0
 238 0134 00000000 		.word	0
 239 0138 00000000 		.word	0
 240 013c 00000000 		.word	0
 241 0140 194BF640 		.word	1089882905
 242 0144 ECA3BE40 		.word	1086235628
 243 0148 696E9640 		.word	1083600489
 244 014c D0447840 		.word	1081623760
 245 0150 D95F4640 		.word	1078353881
 246 0154 92CC1940 		.word	1075432594
 247 0158 C95A1D40 		.word	1075665609
 248 015c CD3EE53F 		.word	1071988429
 249 0160 B1310C40 		.word	1074540977
 250 0164 58C70440 		.word	1074055000
 251 0168 B037AF3F 		.word	1068447664
 252 016c A3CEA43F 		.word	1067765411
 253 0170 00000000 		.word	0
 254 0174 00000000 		.word	0
 255 0178 00000000 		.word	0
 256 017c 00000000 		.word	0
 257 0180 AF476541 		.word	1097156527
 258 0184 545F0B41 		.word	1091264340
 259 0188 3CDCD140 		.word	1087495228
 260 018c 88BAAF40 		.word	1085258376
 261 0190 83C2A340 		.word	1084473987
 262 0194 ACE18940 		.word	1082778028
 263 0198 93DF4B40 		.word	1078714259
 264 019c B2BA5540 		.word	1079360178
 265 01a0 59863840 		.word	1077446233
 266 01a4 19C93540 		.word	1077266713
 267 01a8 622C2940 		.word	1076440162
 268 01ac 6D532040 		.word	1075860333
 269 01b0 26FC1240 		.word	1074986022
 270 01b4 00000000 		.word	0
 271 01b8 00000000 		.word	0
 272 01bc 00000000 		.word	0
 273 01c0 00D5AA41 		.word	1101714688
 274 01c4 DCA77641 		.word	1098295260
 275 01c8 02412F41 		.word	1093615874
 276 01cc EA780C41 		.word	1091336426
 277 01d0 36BABB40 		.word	1086044726
 278 01d4 063CA140 		.word	1084308486
 279 01d8 C79FA340 		.word	1084465095
 280 01dc 78A88C40 		.word	1082959992
 281 01e0 BE309140 		.word	1083257022
 282 01e4 FBCC6340 		.word	1080282363
 283 01e8 25087540 		.word	1081411621
 284 01ec 116F4940 		.word	1078554385
 285 01f0 562C5840 		.word	1079520342
ARM GAS  C:\Users\pc\AppData\Local\Temp\ccYA1mJ4.s 			page 6


 286 01f4 85EB3140 		.word	1077013381
 287 01f8 85EB3140 		.word	1077013381
 288 01fc 85EB3140 		.word	1077013381
 289 0200 C829A041 		.word	1101015496
 290 0204 577D8241 		.word	1099070807
 291 0208 06AE8941 		.word	1099542022
 292 020c 939B7941 		.word	1098488723
 293 0210 F3332F41 		.word	1093612531
 294 0214 3AC0F840 		.word	1090043962
 295 0218 B8C8C740 		.word	1086834872
 296 021c D2D1EC40 		.word	1089262034
 297 0220 6281D540 		.word	1087734114
 298 0224 4949C440 		.word	1086605641
 299 0228 C0F5B040 		.word	1085339072
 300 022c 779F9840 		.word	1083744119
 301 0230 79E69040 		.word	1083238009
 302 0234 EC518040 		.word	1082151404
 303 0238 EC518040 		.word	1082151404
 304 023c EC518040 		.word	1082151404
 305 0240 AC1C9241 		.word	1100094636
 306 0244 186D7741 		.word	1098345752
 307 0248 0D867941 		.word	1098483213
 308 024c 08557641 		.word	1098274056
 309 0250 EDCA4F41 		.word	1095748333
 310 0254 5C6D5541 		.word	1096117596
 311 0258 E45C0E41 		.word	1091460324
 312 025c 5BD60E41 		.word	1091491419
 313 0260 AD860041 		.word	1090553517
 314 0264 FA9BD840 		.word	1087937530
 315 0268 C358BA40 		.word	1085954243
 316 026c 7E38CD40 		.word	1087191166
 317 0270 64DBC240 		.word	1086511972
 318 0274 295CB740 		.word	1085758505
 319 0278 295CB740 		.word	1085758505
 320 027c 295CB740 		.word	1085758505
 321 0280 3D518B41 		.word	1099649341
 322 0284 C7DC7541 		.word	1098243271
 323 0288 80FF7241 		.word	1098055552
 324 028c 176A7541 		.word	1098213911
 325 0290 EEE77441 		.word	1098180590
 326 0294 B3307641 		.word	1098264755
 327 0298 66886741 		.word	1097304166
 328 029c 57113F41 		.word	1094652247
 329 02a0 D7C42F41 		.word	1093649623
 330 02a4 6A4D1F41 		.word	1092570474
 331 02a8 474E1041 		.word	1091587655
 332 02ac 9C100741 		.word	1090982044
 333 02b0 837CF040 		.word	1089502339
 334 02b4 CDCCDC40 		.word	1088212173
 335 02b8 CDCCDC40 		.word	1088212173
 336 02bc CDCCDC40 		.word	1088212173
 337 02c0 EC0A8841 		.word	1099434732
 338 02c4 F3F47541 		.word	1098249459
 339 02c8 B4027341 		.word	1098056372
 340 02cc C9737441 		.word	1098150857
 341 02d0 CA367541 		.word	1098200778
 342 02d4 7FFC7841 		.word	1098447999
ARM GAS  C:\Users\pc\AppData\Local\Temp\ccYA1mJ4.s 			page 7


 343 02d8 F5387A41 		.word	1098529013
 344 02dc A5A57641 		.word	1098294693
 345 02e0 17165A41 		.word	1096422935
 346 02e4 4CB32E41 		.word	1093579596
 347 02e8 0E223841 		.word	1094197774
 348 02ec 678F2A41 		.word	1093308263
 349 02f0 3DD41841 		.word	1092146237
 350 02f4 14AE1341 		.word	1091808788
 351 02f8 14AE1341 		.word	1091808788
 352 02fc 14AE1341 		.word	1091808788
 353 0300 95D48741 		.word	1099420821
 354 0304 FAC37541 		.word	1098236922
 355 0308 B9BA7241 		.word	1098037945
 356 030c AED37441 		.word	1098175406
 357 0310 E84D7541 		.word	1098206696
 358 0314 4EF37A41 		.word	1098576718
 359 0318 BAF77C41 		.word	1098708922
 360 031c 403D7B41 		.word	1098595648
 361 0320 ED3F7D41 		.word	1098727405
 362 0324 E4D67141 		.word	1097979620
 363 0328 F1A76A41 		.word	1097508849
 364 032c A38A3E41 		.word	1094617763
 365 0330 61BF4041 		.word	1094762337
 366 0334 14AE1341 		.word	1091808788
 367 0338 14AE1341 		.word	1091808788
 368 033c 14AE1341 		.word	1091808788
 369 0340 07CE8741 		.word	1099419143
 370 0344 467D7541 		.word	1098218822
 371 0348 35E47441 		.word	1098179637
 372 034c 42987441 		.word	1098160194
 373 0350 EE9E7441 		.word	1098161902
 374 0354 D4BE7741 		.word	1098366676
 375 0358 96DC7E41 		.word	1098833046
 376 035c 617C7C41 		.word	1098677345
 377 0360 64B47A41 		.word	1098560612
 378 0364 18637D41 		.word	1098736408
 379 0368 97FC8041 		.word	1098972311
 380 036c F2DF7041 		.word	1097916402
 381 0370 B78F6F41 		.word	1097830327
 382 0374 8FC26941 		.word	1097450127
 383 0378 8FC26941 		.word	1097450127
 384 037c 8FC26941 		.word	1097450127
 385 0380 E8B18741 		.word	1099411944
 386 0384 EEE47541 		.word	1098245358
 387 0388 965D7341 		.word	1098079638
 388 038c 77A67441 		.word	1098163831
 389 0390 25387441 		.word	1098135589
 390 0394 BFC57741 		.word	1098368447
 391 0398 C23C7D41 		.word	1098726594
 392 039c C6D67C41 		.word	1098700486
 393 03a0 9ED87A41 		.word	1098569886
 394 03a4 E23B7D41 		.word	1098726370
 395 03a8 59F47F41 		.word	1098904665
 396 03ac 41388041 		.word	1098922049
 397 03b0 DBA77741 		.word	1098360795
 398 03b4 3D0A7341 		.word	1098058301
 399 03b8 3D0A7341 		.word	1098058301
ARM GAS  C:\Users\pc\AppData\Local\Temp\ccYA1mJ4.s 			page 8


 400 03bc 3D0A7341 		.word	1098058301
 401 03c0 7B148841 		.word	1099437179
 402 03c4 00007441 		.word	1098121216
 403 03c8 48E17A41 		.word	1098572104
 404 03cc 3D0A7741 		.word	1098320445
 405 03d0 EC517441 		.word	1098142188
 406 03d4 1F857741 		.word	1098351903
 407 03d8 CDCC7C41 		.word	1098697933
 408 03dc 14AE7B41 		.word	1098624532
 409 03e0 9A997941 		.word	1098488218
 410 03e4 D7A37C41 		.word	1098687447
 411 03e8 C3F58041 		.word	1098970563
 412 03ec 48E18041 		.word	1098965320
 413 03f0 7B147A41 		.word	1098519675
 414 03f4 66667241 		.word	1098016358
 415 03f8 66667241 		.word	1098016358
 416 03fc 66667241 		.word	1098016358
 417              		.section	.rodata._ZL27default_aspire_timing_table,"a",%progbits
 418              		.align	2
 419              		.set	.LANCHOR1,. + 0
 420              		.type	_ZL27default_aspire_timing_table, %object
 421              		.size	_ZL27default_aspire_timing_table, 1024
 422              	_ZL27default_aspire_timing_table:
 423 0000 D57829BF 		.word	-1087801131
 424 0004 295CF740 		.word	1089952809
 425 0008 A8C68541 		.word	1099286184
 426 000c B81EB941 		.word	1102651064
 427 0010 1B2FEB41 		.word	1105932059
 428 0014 DD24FA41 		.word	1106912477
 429 0018 986E0042 		.word	1107324568
 430 001c EE7CF341 		.word	1106476270
 431 0020 022BF741 		.word	1106717442
 432 0024 7D3FD541 		.word	1104494461
 433 0028 CBA1C541 		.word	1103471051
 434 002c 2FDDC841 		.word	1103682863
 435 0030 560EC941 		.word	1103695446
 436 0034 14AECB41 		.word	1103867412
 437 0038 14AECB41 		.word	1103867412
 438 003c 14AECB41 		.word	1103867412
 439 0040 A8C60BBF 		.word	-1089747288
 440 0044 1B2FF540 		.word	1089810203
 441 0048 560E8741 		.word	1099370070
 442 004c 23DBBB41 		.word	1102830371
 443 0050 F628EC41 		.word	1105996022
 444 0054 8D97FA41 		.word	1106941837
 445 0058 986E0042 		.word	1107324568
 446 005c 7D3FF541 		.word	1106591613
 447 0060 77BEF341 		.word	1106493047
 448 0064 3D0AD741 		.word	1104611901
 449 0068 CFF7C541 		.word	1103493071
 450 006c 9EEFC541 		.word	1103490974
 451 0070 8941E841 		.word	1105740169
 452 0074 FA7ECC41 		.word	1103920890
 453 0078 FA7ECC41 		.word	1103920890
 454 007c FA7ECC41 		.word	1103920890
 455 0080 068115BF 		.word	-1089109754
 456 0084 0AD7FB40 		.word	1090246410
ARM GAS  C:\Users\pc\AppData\Local\Temp\ccYA1mJ4.s 			page 9


 457 0088 46B68541 		.word	1099281990
 458 008c 3F35B841 		.word	1102591295
 459 0090 0456EC41 		.word	1106007556
 460 0094 F853F941 		.word	1106859000
 461 0098 39B40042 		.word	1107342393
 462 009c EC51F441 		.word	1106530796
 463 00a0 DD24F241 		.word	1106388189
 464 00a4 F853D341 		.word	1104368632
 465 00a8 6F12C141 		.word	1103172207
 466 00ac 6210C841 		.word	1103630434
 467 00b0 8195C541 		.word	1103467905
 468 00b4 1058D141 		.word	1104238608
 469 00b8 1058D141 		.word	1104238608
 470 00bc 1058D141 		.word	1104238608
 471 00c0 068115BF 		.word	-1089109754
 472 00c4 560EF540 		.word	1089801814
 473 00c8 46B68541 		.word	1099281990
 474 00cc 3108BA41 		.word	1102710833
 475 00d0 E5D0EA41 		.word	1105907941
 476 00d4 F2D2F741 		.word	1106760434
 477 00d8 68910042 		.word	1107333480
 478 00dc F4FDF641 		.word	1106705908
 479 00e0 022BF741 		.word	1106717442
 480 00e4 6210D441 		.word	1104416866
 481 00e8 C976C441 		.word	1103394505
 482 00ec B81EC341 		.word	1103306424
 483 00f0 9318CE41 		.word	1104025747
 484 00f4 CFF70D42 		.word	1108211663
 485 00f8 CFF70D42 		.word	1108211663
 486 00fc CFF70D42 		.word	1108211663
 487 0100 068115BF 		.word	-1089109754
 488 0104 8195FB40 		.word	1090229633
 489 0108 D34D8441 		.word	1099189715
 490 010c 3108BA41 		.word	1102710833
 491 0110 23DBE941 		.word	1105845027
 492 0114 355EFA41 		.word	1106927157
 493 0118 7B140242 		.word	1107432571
 494 011c D122F141 		.word	1106322129
 495 0120 A01AF341 		.word	1106451104
 496 0124 643BCF41 		.word	1104100196
 497 0128 C3F5C241 		.word	1103295939
 498 012c F0A7C041 		.word	1103144944
 499 0130 0456C641 		.word	1103517188
 500 0134 E5D0C241 		.word	1103286501
 501 0138 E5D0C241 		.word	1103286501
 502 013c E5D0C241 		.word	1103286501
 503 0140 8D97AE3F 		.word	1068406669
 504 0144 643BF740 		.word	1089944420
 505 0148 B0728641 		.word	1099330224
 506 014c 3108BA41 		.word	1102710833
 507 0150 B81EED41 		.word	1106058936
 508 0154 4A0CF841 		.word	1106775114
 509 0158 27310142 		.word	1107374375
 510 015c C74BF741 		.word	1106725831
 511 0160 560EEF41 		.word	1106185814
 512 0164 D122D341 		.word	1104356049
 513 0168 DF4FC541 		.word	1103450079
ARM GAS  C:\Users\pc\AppData\Local\Temp\ccYA1mJ4.s 			page 10


 514 016c 3BDFD941 		.word	1104797499
 515 0170 F4FDCA41 		.word	1103822324
 516 0174 1058CB41 		.word	1103845392
 517 0178 1058CB41 		.word	1103845392
 518 017c 1058CB41 		.word	1103845392
 519 0180 8D97AEBF 		.word	-1079076979
 520 0184 0AD72741 		.word	1093129994
 521 0188 E3A58541 		.word	1099277795
 522 018c 3789B341 		.word	1102285111
 523 0190 E5D0E041 		.word	1105252581
 524 0194 6DE7F141 		.word	1106372461
 525 0198 BC740142 		.word	1107391676
 526 019c 8FC2F541 		.word	1106625167
 527 01a0 022BF741 		.word	1106717442
 528 01a4 2FDDD441 		.word	1104469295
 529 01a8 DF4FC541 		.word	1103450079
 530 01ac BC74C341 		.word	1103328444
 531 01b0 0000C441 		.word	1103364096
 532 01b4 7B14CC41 		.word	1103893627
 533 01b8 7B14CC41 		.word	1103893627
 534 01bc 7B14CC41 		.word	1103893627
 535 01c0 F2D21DC1 		.word	-1055010062
 536 01c4 F0A72641 		.word	1093052400
 537 01c8 48E13A41 		.word	1094377800
 538 01cc 33339941 		.word	1100559155
 539 01d0 3108CE41 		.word	1104021553
 540 01d4 EE7CDF41 		.word	1105165550
 541 01d8 4C370242 		.word	1107441484
 542 01dc 7D3FF541 		.word	1106591613
 543 01e0 643BF141 		.word	1106328420
 544 01e4 D578D941 		.word	1104771285
 545 01e8 1904CA41 		.word	1103758361
 546 01ec FA7EB641 		.word	1102479098
 547 01f0 B29DC341 		.word	1103338930
 548 01f4 8FC2C941 		.word	1103741583
 549 01f8 8FC2C941 		.word	1103741583
 550 01fc 8FC2C941 		.word	1103741583
 551 0200 23DB1DC1 		.word	-1055007965
 552 0204 C976AEC0 		.word	-1062308151
 553 0208 F0A736C0 		.word	-1070159888
 554 020c 2DB28941 		.word	1099543085
 555 0210 7F6A8C41 		.word	1099721343
 556 0214 0681A541 		.word	1101365510
 557 0218 AE47CD41 		.word	1103972270
 558 021c E17ADE41 		.word	1105099489
 559 0220 3789DD41 		.word	1105037623
 560 0224 C1CAD941 		.word	1104792257
 561 0228 560ECF41 		.word	1104088662
 562 022c 48E1CA41 		.word	1103814984
 563 0230 CDCCD041 		.word	1104202957
 564 0234 9EEFDF41 		.word	1105194910
 565 0238 9EEFDF41 		.word	1105194910
 566 023c 9EEFDF41 		.word	1105194910
 567 0240 F2D21DC1 		.word	-1055010062
 568 0244 C976AEC0 		.word	-1062308151
 569 0248 F0A736C0 		.word	-1070159888
 570 024c A01AAF3E 		.word	1051663008
ARM GAS  C:\Users\pc\AppData\Local\Temp\ccYA1mJ4.s 			page 11


 571 0250 7F6A4841 		.word	1095264895
 572 0254 77BE8141 		.word	1099021943
 573 0258 79E9AA41 		.word	1101719929
 574 025c 52B8DC41 		.word	1104984146
 575 0260 713DCE41 		.word	1104035185
 576 0264 295CC141 		.word	1103191081
 577 0268 DF4FC541 		.word	1103450079
 578 026c 08ACCC41 		.word	1103932424
 579 0270 85EBD341 		.word	1104407429
 580 0274 77BEFF41 		.word	1107279479
 581 0278 77BEFF41 		.word	1107279479
 582 027c 77BEFF41 		.word	1107279479
 583 0280 F2D21DC1 		.word	-1055010062
 584 0284 1283B0C0 		.word	-1062173934
 585 0288 F0A736C0 		.word	-1070159888
 586 028c 8B6C673E 		.word	1046965387
 587 0290 643B2F40 		.word	1076837220
 588 0294 58397440 		.word	1081358680
 589 0298 B4C83E41 		.word	1094633652
 590 029c C9769641 		.word	1100379849
 591 02a0 D34DA841 		.word	1101549011
 592 02a4 D34DAC41 		.word	1101811155
 593 02a8 14AEA941 		.word	1101639188
 594 02ac F2D2B141 		.word	1102172914
 595 02b0 355EC841 		.word	1103650357
 596 02b4 7D3FC941 		.word	1103708029
 597 02b8 7D3FC941 		.word	1103708029
 598 02bc 7D3FC941 		.word	1103708029
 599 02c0 23DB1DC1 		.word	-1055007965
 600 02c4 7593B0C0 		.word	-1062169739
 601 02c8 F0A736C0 		.word	-1070159888
 602 02cc 00000080 		.word	-2147483648
 603 02d0 73684140 		.word	1078028403
 604 02d4 58397440 		.word	1081358680
 605 02d8 2DB2CD40 		.word	1087222317
 606 02dc 4C37F940 		.word	1090074444
 607 02e0 73689B41 		.word	1100703859
 608 02e4 48E1A641 		.word	1101455688
 609 02e8 5EBA9F41 		.word	1100986974
 610 02ec 713DA841 		.word	1101544817
 611 02f0 022BAB41 		.word	1101736706
 612 02f4 5C8FAC41 		.word	1101827932
 613 02f8 5C8FAC41 		.word	1101827932
 614 02fc 5C8FAC41 		.word	1101827932
 615 0300 F2D21DC1 		.word	-1055010062
 616 0304 1283B0C0 		.word	-1062173934
 617 0308 736831C0 		.word	-1070503821
 618 030c 8B6C673E 		.word	1046965387
 619 0310 17D92E40 		.word	1076812055
 620 0314 00006040 		.word	1080033280
 621 0318 3789D940 		.word	1087998263
 622 031c CBA10141 		.word	1090625995
 623 0320 5C8F0A41 		.word	1091211100
 624 0324 00001841 		.word	1092091904
 625 0328 A69B3C41 		.word	1094491046
 626 032c 560EA141 		.word	1101074006
 627 0330 7593A041 		.word	1101042549
ARM GAS  C:\Users\pc\AppData\Local\Temp\ccYA1mJ4.s 			page 12


 628 0334 7B14A441 		.word	1101272187
 629 0338 7B14A441 		.word	1101272187
 630 033c 7B14A441 		.word	1101272187
 631 0340 F2D21DC1 		.word	-1055010062
 632 0344 7593B0C0 		.word	-1062169739
 633 0348 F0A736C0 		.word	-1070159888
 634 034c 00000080 		.word	-2147483648
 635 0350 EC513840 		.word	1077432812
 636 0354 58397440 		.word	1081358680
 637 0358 A470CD40 		.word	1087205540
 638 035c B81E0541 		.word	1090854584
 639 0360 E5D00641 		.word	1090965733
 640 0364 12830841 		.word	1091076882
 641 0368 1F853741 		.word	1094157599
 642 036c 6F123741 		.word	1094128239
 643 0370 8FC25941 		.word	1096401551
 644 0374 1D5A4041 		.word	1094736413
 645 0378 1D5A4041 		.word	1094736413
 646 037c 1D5A4041 		.word	1094736413
 647 0380 00001CC1 		.word	-1055129600
 648 0384 7593B0C0 		.word	-1062169739
 649 0388 F0A726C0 		.word	-1071208464
 650 038c 00000080 		.word	-2147483648
 651 0390 EC513840 		.word	1077432812
 652 0394 23DB6940 		.word	1080679203
 653 0398 9A99C140 		.word	1086429594
 654 039c 7F6ADC40 		.word	1088187007
 655 03a0 B6F30541 		.word	1090909110
 656 03a4 F2D21541 		.word	1091949298
 657 03a8 58393C41 		.word	1094465880
 658 03ac 46B63B41 		.word	1094432326
 659 03b0 F2D23D41 		.word	1094570738
 660 03b4 19044641 		.word	1095107609
 661 03b8 19044641 		.word	1095107609
 662 03bc 19044641 		.word	1095107609
 663 03c0 3333B3BE 		.word	-1095552205
 664 03c4 48E1B2C0 		.word	-1062018744
 665 03c8 128300BF 		.word	-1090485486
 666 03cc C3F568BF 		.word	-1083640381
 667 03d0 1B2F5DBF 		.word	-1084412133
 668 03d4 583974BF 		.word	-1082902184
 669 03d8 D578A9BF 		.word	-1079412523
 670 03dc B6F3ED40 		.word	1089336246
 671 03e0 8FC295BF 		.word	-1080704369
 672 03e4 79E986BF 		.word	-1081677447
 673 03e8 46B603C0 		.word	-1073498554
 674 03ec A24506C0 		.word	-1073330782
 675 03f0 39B428C0 		.word	-1071074247
 676 03f4 CBA14541 		.word	1095082443
 677 03f8 CBA14541 		.word	1095082443
 678 03fc CBA14541 		.word	1095082443
 679              		.ident	"GCC: (Sourcery CodeBench Lite 2013.11-24) 4.8.1"
ARM GAS  C:\Users\pc\AppData\Local\Temp\ccYA1mJ4.s 			page 13


DEFINED SYMBOLS
                            *ABS*:00000000 ford_aspire.cpp
C:\Users\pc\AppData\Local\Temp\ccYA1mJ4.s:17     .text._Z32setFordAspireEngineConfigurationv:00000000 $t
C:\Users\pc\AppData\Local\Temp\ccYA1mJ4.s:23     .text._Z32setFordAspireEngineConfigurationv:00000000 _Z32setFordAspireEngineConfigurationv
C:\Users\pc\AppData\Local\Temp\ccYA1mJ4.s:157    .rodata._ZL25default_aspire_fuel_table:00000000 .LANCHOR0
C:\Users\pc\AppData\Local\Temp\ccYA1mJ4.s:419    .rodata._ZL27default_aspire_timing_table:00000000 .LANCHOR1
C:\Users\pc\AppData\Local\Temp\ccYA1mJ4.s:156    .rodata._ZL25default_aspire_fuel_table:00000000 $d
C:\Users\pc\AppData\Local\Temp\ccYA1mJ4.s:160    .rodata._ZL25default_aspire_fuel_table:00000000 _ZL25default_aspire_fuel_table
C:\Users\pc\AppData\Local\Temp\ccYA1mJ4.s:418    .rodata._ZL27default_aspire_timing_table:00000000 $d
C:\Users\pc\AppData\Local\Temp\ccYA1mJ4.s:422    .rodata._ZL27default_aspire_timing_table:00000000 _ZL27default_aspire_timing_table

UNDEFINED SYMBOLS
engineConfiguration
_Z26setThermistorConfigurationP14ThermistorConfffffff
_Z14setFuelLoadBinff
config
_Z13setFuelRpmBinff
_Z16setTimingLoadBinff
_Z15setTimingRpmBinff
_Z13copyFuelTablePA16_KfPA16_f
_Z15copyTimingTablePA16_KfPA16_f
_Z18setSingleCoilDwellP22engine_configuration_s
_Z16setOperationModeP22engine_configuration_s16operation_mode_e
boardConfiguration
