ARM GAS  C:\Users\pc\AppData\Local\Temp\ccYdsL3R.s 			page 1


   1              		.syntax unified
   2              		.cpu cortex-m4
   3              		.eabi_attribute 27, 3
   4              		.fpu fpv4-sp-d16
   5              		.eabi_attribute 20, 1
   6              		.eabi_attribute 21, 1
   7              		.eabi_attribute 23, 3
   8              		.eabi_attribute 24, 1
   9              		.eabi_attribute 25, 1
  10              		.eabi_attribute 26, 1
  11              		.eabi_attribute 30, 2
  12              		.eabi_attribute 34, 1
  13              		.eabi_attribute 18, 4
  14              		.thumb
  15              		.file	"hal_lld.c"
  16              		.section	.text.hal_lld_init,"ax",%progbits
  17              		.align	2
  18              		.p2align 4,,15
  19              		.global	hal_lld_init
  20              		.thumb
  21              		.thumb_func
  22              		.type	hal_lld_init, %function
  23              	hal_lld_init:
  24              		@ args = 0, pretend = 0, frame = 0
  25              		@ frame_needed = 0, uses_anonymous_args = 0
  26              		@ link register save eliminated.
  27 0000 4FF46053 		mov	r3, #14336
  28 0004 C4F20203 		movt	r3, 16386
  29 0008 F0B4     		push	{r4, r5, r6, r7}
  30 000a 0022     		movs	r2, #0
  31 000c 4FF0FF34 		mov	r4, #-1
  32 0010 1969     		ldr	r1, [r3, #16]
  33 0012 1C61     		str	r4, [r3, #16]
  34 0014 1A61     		str	r2, [r3, #16]
  35 0016 5969     		ldr	r1, [r3, #20]
  36 0018 5C61     		str	r4, [r3, #20]
  37 001a 5A61     		str	r2, [r3, #20]
  38 001c 1E6A     		ldr	r6, [r3, #32]
  39 001e 4EF21001 		movw	r1, #57360
  40 0022 CEF20001 		movt	r1, 57344
  41 0026 66F08056 		orn	r6, r6, #268435456
  42 002a 49F23F05 		movw	r5, #36927
  43 002e 4EF6F050 		movw	r0, #60912
  44 0032 1E62     		str	r6, [r3, #32]
  45 0034 CEF20000 		movt	r0, 57344
  46 0038 1A62     		str	r2, [r3, #32]
  47 003a C0F20205 		movt	r5, 2
  48 003e 0726     		movs	r6, #7
  49 0040 5F6A     		ldr	r7, [r3, #36]
  50 0042 5C62     		str	r4, [r3, #36]
  51 0044 5A62     		str	r2, [r3, #36]
  52 0046 4D60     		str	r5, [r1, #4]
  53 0048 8A60     		str	r2, [r1, #8]
  54 004a 0E60     		str	r6, [r1]
  55 004c C468     		ldr	r4, [r0, #12]
  56 004e 4FF48051 		mov	r1, #4096
  57 0052 CEF20001 		movt	r1, 57344
ARM GAS  C:\Users\pc\AppData\Local\Temp\ccYdsL3R.s 			page 2


  58 0056 44F08074 		orr	r4, r4, #16777216
  59 005a C460     		str	r4, [r0, #12]
  60 005c 0868     		ldr	r0, [r1]
  61 005e 40F00100 		orr	r0, r0, #1
  62 0062 0860     		str	r0, [r1]
  63 0064 186C     		ldr	r0, [r3, #64]
  64 0066 4FF4E041 		mov	r1, #28672
  65 006a C4F20001 		movt	r1, 16384
  66 006e 40F08050 		orr	r0, r0, #268435456
  67 0072 1864     		str	r0, [r3, #64]
  68 0074 0868     		ldr	r0, [r1]
  69 0076 40F48070 		orr	r0, r0, #256
  70 007a 0860     		str	r0, [r1]
  71 007c 196F     		ldr	r1, [r3, #112]
  72 007e 01F44071 		and	r1, r1, #768
  73 0082 B1F5807F 		cmp	r1, #256
  74 0086 1CBF     		itt	ne
  75 0088 4FF48031 		movne	r1, #65536
  76 008c 1967     		strne	r1, [r3, #112]
  77 008e 4FF46051 		mov	r1, #14336
  78 0092 C4F20201 		movt	r1, 16386
  79 0096 18BF     		it	ne
  80 0098 1A67     		strne	r2, [r3, #112]
  81 009a 0A6F     		ldr	r2, [r1, #112]
  82 009c 44F24023 		movw	r3, #16960
  83 00a0 42F00102 		orr	r2, r2, #1
  84 00a4 0A67     		str	r2, [r1, #112]
  85 00a6 C0F20F03 		movt	r3, 15
  86 00aa 01E0     		b	.L4
  87              	.L14:
  88 00ac 013B     		subs	r3, r3, #1
  89 00ae 02D0     		beq	.L3
  90              	.L4:
  91 00b0 0A6F     		ldr	r2, [r1, #112]
  92 00b2 9007     		lsls	r0, r2, #30
  93 00b4 FAD5     		bpl	.L14
  94              	.L3:
  95 00b6 4FF46053 		mov	r3, #14336
  96 00ba C4F20203 		movt	r3, 16386
  97 00be 1A6F     		ldr	r2, [r3, #112]
  98 00c0 1204     		lsls	r2, r2, #16
  99 00c2 07D4     		bmi	.L5
 100 00c4 1A6F     		ldr	r2, [r3, #112]
 101 00c6 42F48072 		orr	r2, r2, #256
 102 00ca 1A67     		str	r2, [r3, #112]
 103 00cc 1A6F     		ldr	r2, [r3, #112]
 104 00ce 42F40042 		orr	r2, r2, #32768
 105 00d2 1A67     		str	r2, [r3, #112]
 106              	.L5:
 107 00d4 4FF4E043 		mov	r3, #28672
 108 00d8 C4F20003 		movt	r3, 16384
 109 00dc F0BC     		pop	{r4, r5, r6, r7}
 110 00de 5A68     		ldr	r2, [r3, #4]
 111 00e0 22F40072 		bic	r2, r2, #512
 112 00e4 5A60     		str	r2, [r3, #4]
 113 00e6 FFF7FEBF 		b	dmaInit
 114              		.size	hal_lld_init, .-hal_lld_init
ARM GAS  C:\Users\pc\AppData\Local\Temp\ccYdsL3R.s 			page 3


 115 00ea 00BFAFF3 		.section	.text.stm32_clock_init,"ax",%progbits
 115      0080
 116              		.align	2
 117              		.p2align 4,,15
 118              		.global	stm32_clock_init
 119              		.thumb
 120              		.thumb_func
 121              		.type	stm32_clock_init, %function
 122              	stm32_clock_init:
 123              		@ args = 0, pretend = 0, frame = 0
 124              		@ frame_needed = 0, uses_anonymous_args = 0
 125              		@ link register save eliminated.
 126 0000 4FF46051 		mov	r1, #14336
 127 0004 4FF4E043 		mov	r3, #28672
 128 0008 C4F20201 		movt	r1, 16386
 129 000c C4F20003 		movt	r3, 16384
 130 0010 4FF08050 		mov	r0, #268435456
 131 0014 4FF44042 		mov	r2, #49152
 132 0018 0864     		str	r0, [r1, #64]
 133 001a 1A60     		str	r2, [r3]
 134 001c 0B68     		ldr	r3, [r1]
 135 001e 43F00103 		orr	r3, r3, #1
 136 0022 0B60     		str	r3, [r1]
 137              	.L17:
 138 0024 0A68     		ldr	r2, [r1]
 139 0026 4FF46053 		mov	r3, #14336
 140 002a 9007     		lsls	r0, r2, #30
 141 002c C4F20203 		movt	r3, 16386
 142 0030 F8D5     		bpl	.L17
 143 0032 9A68     		ldr	r2, [r3, #8]
 144 0034 22F00302 		bic	r2, r2, #3
 145 0038 9A60     		str	r2, [r3, #8]
 146 003a 9A68     		ldr	r2, [r3, #8]
 147 003c 1946     		mov	r1, r3
 148 003e 9A60     		str	r2, [r3, #8]
 149              	.L19:
 150 0040 8B68     		ldr	r3, [r1, #8]
 151 0042 4FF46052 		mov	r2, #14336
 152 0046 13F00C03 		ands	r3, r3, #12
 153 004a C4F20202 		movt	r2, 16386
 154 004e F7D1     		bne	.L19
 155 0050 1168     		ldr	r1, [r2]
 156 0052 01F0F901 		and	r1, r1, #249
 157 0056 1160     		str	r1, [r2]
 158 0058 9360     		str	r3, [r2, #8]
 159 005a 1368     		ldr	r3, [r2]
 160 005c 43F48033 		orr	r3, r3, #65536
 161 0060 1360     		str	r3, [r2]
 162              	.L21:
 163 0062 1168     		ldr	r1, [r2]
 164 0064 4FF46053 		mov	r3, #14336
 165 0068 8903     		lsls	r1, r1, #14
 166 006a C4F20203 		movt	r3, 16386
 167 006e F8D5     		bpl	.L21
 168 0070 5A6F     		ldr	r2, [r3, #116]
 169 0072 42F00102 		orr	r2, r2, #1
 170 0076 5A67     		str	r2, [r3, #116]
ARM GAS  C:\Users\pc\AppData\Local\Temp\ccYdsL3R.s 			page 4


 171 0078 1946     		mov	r1, r3
 172              	.L23:
 173 007a 4A6F     		ldr	r2, [r1, #116]
 174 007c 4FF46053 		mov	r3, #14336
 175 0080 9007     		lsls	r0, r2, #30
 176 0082 C4F20203 		movt	r3, 16386
 177 0086 F8D5     		bpl	.L23
 178 0088 45F20842 		movw	r2, #21512
 179 008c C0F24072 		movt	r2, 1856
 180 0090 5A60     		str	r2, [r3, #4]
 181 0092 1968     		ldr	r1, [r3]
 182 0094 4FF4E042 		mov	r2, #28672
 183 0098 41F08071 		orr	r1, r1, #16777216
 184 009c 1960     		str	r1, [r3]
 185 009e C4F20002 		movt	r2, 16384
 186              	.L25:
 187 00a2 5368     		ldr	r3, [r2, #4]
 188 00a4 5904     		lsls	r1, r3, #17
 189 00a6 FCD5     		bpl	.L25
 190 00a8 4FF46051 		mov	r1, #14336
 191 00ac C4F20201 		movt	r1, 16386
 192              	.L27:
 193 00b0 0A68     		ldr	r2, [r1]
 194 00b2 4FF46053 		mov	r3, #14336
 195 00b6 9201     		lsls	r2, r2, #6
 196 00b8 C4F20203 		movt	r3, 16386
 197 00bc F8D5     		bpl	.L27
 198 00be 4FF47052 		mov	r2, #15360
 199 00c2 C4F20202 		movt	r2, 16386
 200 00c6 4FF41441 		mov	r1, #37888
 201 00ca C3F60801 		movt	r1, 14344
 202 00ce 40F20570 		movw	r0, #1797
 203 00d2 9960     		str	r1, [r3, #8]
 204 00d4 1060     		str	r0, [r2]
 205 00d6 9A68     		ldr	r2, [r3, #8]
 206 00d8 42F00202 		orr	r2, r2, #2
 207 00dc 9A60     		str	r2, [r3, #8]
 208 00de 1946     		mov	r1, r3
 209              	.L29:
 210 00e0 8A68     		ldr	r2, [r1, #8]
 211 00e2 02F00C02 		and	r2, r2, #12
 212 00e6 4FF46053 		mov	r3, #14336
 213 00ea 082A     		cmp	r2, #8
 214 00ec C4F20203 		movt	r3, 16386
 215 00f0 F6D1     		bne	.L29
 216 00f2 5A6C     		ldr	r2, [r3, #68]
 217 00f4 42F48042 		orr	r2, r2, #16384
 218 00f8 5A64     		str	r2, [r3, #68]
 219 00fa 5A6E     		ldr	r2, [r3, #100]
 220 00fc 42F48042 		orr	r2, r2, #16384
 221 0100 5A66     		str	r2, [r3, #100]
 222 0102 7047     		bx	lr
 223              		.size	stm32_clock_init, .-stm32_clock_init
 224 0104 AFF30080 		.ident	"GCC: (Sourcery CodeBench Lite 2013.11-24) 4.8.1"
 224      AFF30080 
 224      AFF30080 
ARM GAS  C:\Users\pc\AppData\Local\Temp\ccYdsL3R.s 			page 5


DEFINED SYMBOLS
                            *ABS*:00000000 hal_lld.c
C:\Users\pc\AppData\Local\Temp\ccYdsL3R.s:17     .text.hal_lld_init:00000000 $t
C:\Users\pc\AppData\Local\Temp\ccYdsL3R.s:23     .text.hal_lld_init:00000000 hal_lld_init
C:\Users\pc\AppData\Local\Temp\ccYdsL3R.s:116    .text.stm32_clock_init:00000000 $t
C:\Users\pc\AppData\Local\Temp\ccYdsL3R.s:122    .text.stm32_clock_init:00000000 stm32_clock_init

UNDEFINED SYMBOLS
dmaInit
