ARM GAS  C:\Users\pc\AppData\Local\Temp\ccApb6aw.s 			page 1


   1              		.syntax unified
   2              		.cpu cortex-m4
   3              		.eabi_attribute 27, 3
   4              		.fpu fpv4-sp-d16
   5              		.eabi_attribute 20, 1
   6              		.eabi_attribute 21, 1
   7              		.eabi_attribute 23, 3
   8              		.eabi_attribute 24, 1
   9              		.eabi_attribute 25, 1
  10              		.eabi_attribute 26, 1
  11              		.eabi_attribute 30, 2
  12              		.eabi_attribute 34, 1
  13              		.eabi_attribute 18, 4
  14              		.thumb
  15              		.file	"icu_lld.c"
  16              		.section	.text.icu_lld_serve_interrupt,"ax",%progbits
  17              		.align	2
  18              		.p2align 4,,15
  19              		.thumb
  20              		.thumb_func
  21              		.type	icu_lld_serve_interrupt, %function
  22              	icu_lld_serve_interrupt:
  23              		@ args = 0, pretend = 0, frame = 0
  24              		@ frame_needed = 0, uses_anonymous_args = 0
  25 0000 C368     		ldr	r3, [r0, #12]
  26 0002 4268     		ldr	r2, [r0, #4]
  27 0004 70B5     		push	{r4, r5, r6, lr}
  28 0006 1D69     		ldr	r5, [r3, #16]
  29 0008 DE68     		ldr	r6, [r3, #12]
  30 000a 117D     		ldrb	r1, [r2, #20]	@ zero_extendqisi2
  31 000c 3540     		ands	r5, r5, r6
  32 000e ADB2     		uxth	r5, r5
  33 0010 EEB2     		uxtb	r6, r5
  34 0012 F643     		mvns	r6, r6
  35 0014 0446     		mov	r4, r0
  36 0016 1E61     		str	r6, [r3, #16]
  37 0018 89B9     		cbnz	r1, .L2
  38 001a AE07     		lsls	r6, r5, #30
  39 001c 06D5     		bpl	.L4
  40 001e 0378     		ldrb	r3, [r0]	@ zero_extendqisi2
  41 0020 0421     		movs	r1, #4
  42 0022 032B     		cmp	r3, #3
  43 0024 0170     		strb	r1, [r0]
  44 0026 01D0     		beq	.L4
  45 0028 D368     		ldr	r3, [r2, #12]
  46 002a 9847     		blx	r3
  47              	.L4:
  48 002c 6807     		lsls	r0, r5, #29
  49 002e 1BD4     		bmi	.L33
  50              	.L7:
  51 0030 EB07     		lsls	r3, r5, #31
  52 0032 03D5     		bpl	.L1
  53 0034 6368     		ldr	r3, [r4, #4]
  54 0036 2046     		mov	r0, r4
  55 0038 1B69     		ldr	r3, [r3, #16]
  56 003a 9847     		blx	r3
  57              	.L1:
ARM GAS  C:\Users\pc\AppData\Local\Temp\ccApb6aw.s 			page 2


  58 003c 70BD     		pop	{r4, r5, r6, pc}
  59              	.L2:
  60 003e A907     		lsls	r1, r5, #30
  61 0040 06D5     		bpl	.L9
  62 0042 0378     		ldrb	r3, [r0]	@ zero_extendqisi2
  63 0044 032B     		cmp	r3, #3
  64 0046 03D0     		beq	.L9
  65 0048 0521     		movs	r1, #5
  66 004a 9368     		ldr	r3, [r2, #8]
  67 004c 0170     		strb	r1, [r0]
  68 004e 9847     		blx	r3
  69              	.L9:
  70 0050 6A07     		lsls	r2, r5, #29
  71 0052 EDD5     		bpl	.L7
  72 0054 2378     		ldrb	r3, [r4]	@ zero_extendqisi2
  73 0056 0422     		movs	r2, #4
  74 0058 032B     		cmp	r3, #3
  75 005a 2270     		strb	r2, [r4]
  76 005c E8D0     		beq	.L7
  77 005e 6368     		ldr	r3, [r4, #4]
  78 0060 2046     		mov	r0, r4
  79 0062 DB68     		ldr	r3, [r3, #12]
  80 0064 9847     		blx	r3
  81 0066 E3E7     		b	.L7
  82              	.L33:
  83 0068 2378     		ldrb	r3, [r4]	@ zero_extendqisi2
  84 006a 032B     		cmp	r3, #3
  85 006c E0D0     		beq	.L7
  86 006e 6368     		ldr	r3, [r4, #4]
  87 0070 0522     		movs	r2, #5
  88 0072 9B68     		ldr	r3, [r3, #8]
  89 0074 2270     		strb	r2, [r4]
  90 0076 2046     		mov	r0, r4
  91 0078 9847     		blx	r3
  92 007a D9E7     		b	.L7
  93              		.size	icu_lld_serve_interrupt, .-icu_lld_serve_interrupt
  94 007c AFF30080 		.section	.text.VectorA4,"ax",%progbits
  95              		.align	2
  96              		.p2align 4,,15
  97              		.global	VectorA4
  98              		.thumb
  99              		.thumb_func
 100              		.type	VectorA4, %function
 101              	VectorA4:
 102              		@ args = 0, pretend = 0, frame = 0
 103              		@ frame_needed = 0, uses_anonymous_args = 0
 104 0000 08B5     		push	{r3, lr}
 105 0002 FFF7FEFF 		bl	dbg_check_enter_isr
 106 0006 40F20000 		movw	r0, #:lower16:.LANCHOR0
 107 000a C0F20000 		movt	r0, #:upper16:.LANCHOR0
 108 000e FFF7FEFF 		bl	icu_lld_serve_interrupt
 109 0012 FFF7FEFF 		bl	dbg_check_leave_isr
 110 0016 BDE80840 		pop	{r3, lr}
 111 001a FFF7FEBF 		b	_port_irq_epilogue
 112              		.size	VectorA4, .-VectorA4
 113 001e 00BF     		.section	.text.VectorAC,"ax",%progbits
 114              		.align	2
ARM GAS  C:\Users\pc\AppData\Local\Temp\ccApb6aw.s 			page 3


 115              		.p2align 4,,15
 116              		.global	VectorAC
 117              		.thumb
 118              		.thumb_func
 119              		.type	VectorAC, %function
 120              	VectorAC:
 121              		@ args = 0, pretend = 0, frame = 0
 122              		@ frame_needed = 0, uses_anonymous_args = 0
 123 0000 08B5     		push	{r3, lr}
 124 0002 FFF7FEFF 		bl	dbg_check_enter_isr
 125 0006 40F20000 		movw	r0, #:lower16:.LANCHOR0
 126 000a C0F20000 		movt	r0, #:upper16:.LANCHOR0
 127 000e FFF7FEFF 		bl	icu_lld_serve_interrupt
 128 0012 FFF7FEFF 		bl	dbg_check_leave_isr
 129 0016 BDE80840 		pop	{r3, lr}
 130 001a FFF7FEBF 		b	_port_irq_epilogue
 131              		.size	VectorAC, .-VectorAC
 132 001e 00BF     		.section	.text.VectorB0,"ax",%progbits
 133              		.align	2
 134              		.p2align 4,,15
 135              		.global	VectorB0
 136              		.thumb
 137              		.thumb_func
 138              		.type	VectorB0, %function
 139              	VectorB0:
 140              		@ args = 0, pretend = 0, frame = 0
 141              		@ frame_needed = 0, uses_anonymous_args = 0
 142 0000 08B5     		push	{r3, lr}
 143 0002 FFF7FEFF 		bl	dbg_check_enter_isr
 144 0006 40F20000 		movw	r0, #:lower16:.LANCHOR1
 145 000a C0F20000 		movt	r0, #:upper16:.LANCHOR1
 146 000e FFF7FEFF 		bl	icu_lld_serve_interrupt
 147 0012 FFF7FEFF 		bl	dbg_check_leave_isr
 148 0016 BDE80840 		pop	{r3, lr}
 149 001a FFF7FEBF 		b	_port_irq_epilogue
 150              		.size	VectorB0, .-VectorB0
 151 001e 00BF     		.section	.text.VectorB4,"ax",%progbits
 152              		.align	2
 153              		.p2align 4,,15
 154              		.global	VectorB4
 155              		.thumb
 156              		.thumb_func
 157              		.type	VectorB4, %function
 158              	VectorB4:
 159              		@ args = 0, pretend = 0, frame = 0
 160              		@ frame_needed = 0, uses_anonymous_args = 0
 161 0000 08B5     		push	{r3, lr}
 162 0002 FFF7FEFF 		bl	dbg_check_enter_isr
 163 0006 40F20000 		movw	r0, #:lower16:.LANCHOR2
 164 000a C0F20000 		movt	r0, #:upper16:.LANCHOR2
 165 000e FFF7FEFF 		bl	icu_lld_serve_interrupt
 166 0012 FFF7FEFF 		bl	dbg_check_leave_isr
 167 0016 BDE80840 		pop	{r3, lr}
 168 001a FFF7FEBF 		b	_port_irq_epilogue
 169              		.size	VectorB4, .-VectorB4
 170 001e 00BF     		.section	.text.VectorA0,"ax",%progbits
 171              		.align	2
ARM GAS  C:\Users\pc\AppData\Local\Temp\ccApb6aw.s 			page 4


 172              		.p2align 4,,15
 173              		.global	VectorA0
 174              		.thumb
 175              		.thumb_func
 176              		.type	VectorA0, %function
 177              	VectorA0:
 178              		@ args = 0, pretend = 0, frame = 0
 179              		@ frame_needed = 0, uses_anonymous_args = 0
 180 0000 08B5     		push	{r3, lr}
 181 0002 FFF7FEFF 		bl	dbg_check_enter_isr
 182 0006 40F20000 		movw	r0, #:lower16:.LANCHOR3
 183 000a C0F20000 		movt	r0, #:upper16:.LANCHOR3
 184 000e FFF7FEFF 		bl	icu_lld_serve_interrupt
 185 0012 FFF7FEFF 		bl	dbg_check_leave_isr
 186 0016 BDE80840 		pop	{r3, lr}
 187 001a FFF7FEBF 		b	_port_irq_epilogue
 188              		.size	VectorA0, .-VectorA0
 189 001e 00BF     		.section	.text.icu_lld_init,"ax",%progbits
 190              		.align	2
 191              		.p2align 4,,15
 192              		.global	icu_lld_init
 193              		.thumb
 194              		.thumb_func
 195              		.type	icu_lld_init, %function
 196              	icu_lld_init:
 197              		@ args = 0, pretend = 0, frame = 0
 198              		@ frame_needed = 0, uses_anonymous_args = 0
 199 0000 70B5     		push	{r4, r5, r6, lr}
 200 0002 40F20004 		movw	r4, #:lower16:.LANCHOR0
 201 0006 C0F20004 		movt	r4, #:upper16:.LANCHOR0
 202 000a 2046     		mov	r0, r4
 203 000c 40F20006 		movw	r6, #:lower16:.LANCHOR1
 204 0010 FFF7FEFF 		bl	icuObjectInit
 205 0014 C0F20006 		movt	r6, #:upper16:.LANCHOR1
 206 0018 0023     		movs	r3, #0
 207 001a 40F20005 		movw	r5, #:lower16:.LANCHOR2
 208 001e C4F20103 		movt	r3, 16385
 209 0022 3046     		mov	r0, r6
 210 0024 C0F20005 		movt	r5, #:upper16:.LANCHOR2
 211 0028 E360     		str	r3, [r4, #12]
 212 002a FFF7FEFF 		bl	icuObjectInit
 213 002e 40F20004 		movw	r4, #:lower16:.LANCHOR3
 214 0032 4FF08043 		mov	r3, #1073741824
 215 0036 2846     		mov	r0, r5
 216 0038 F360     		str	r3, [r6, #12]
 217 003a C0F20004 		movt	r4, #:upper16:.LANCHOR3
 218 003e FFF7FEFF 		bl	icuObjectInit
 219 0042 4FF48063 		mov	r3, #1024
 220 0046 C4F20003 		movt	r3, 16384
 221 004a 2046     		mov	r0, r4
 222 004c EB60     		str	r3, [r5, #12]
 223 004e FFF7FEFF 		bl	icuObjectInit
 224 0052 4FF48043 		mov	r3, #16384
 225 0056 C4F20103 		movt	r3, 16385
 226 005a E360     		str	r3, [r4, #12]
 227 005c 70BD     		pop	{r4, r5, r6, pc}
 228              		.size	icu_lld_init, .-icu_lld_init
ARM GAS  C:\Users\pc\AppData\Local\Temp\ccApb6aw.s 			page 5


 229 005e 00BF     		.section	.text.icu_lld_start,"ax",%progbits
 230              		.align	2
 231              		.p2align 4,,15
 232              		.global	icu_lld_start
 233              		.thumb
 234              		.thumb_func
 235              		.type	icu_lld_start, %function
 236              	icu_lld_start:
 237              		@ args = 0, pretend = 0, frame = 0
 238              		@ frame_needed = 0, uses_anonymous_args = 0
 239 0000 F8B5     		push	{r3, r4, r5, r6, r7, lr}
 240 0002 4368     		ldr	r3, [r0, #4]
 241 0004 1B7D     		ldrb	r3, [r3, #20]	@ zero_extendqisi2
 242 0006 012B     		cmp	r3, #1
 243 0008 0446     		mov	r4, r0
 244 000a 05D9     		bls	.L41
 245 000c 40F20000 		movw	r0, #:lower16:.LC0
 246 0010 C0F20000 		movt	r0, #:upper16:.LC0
 247 0014 FFF7FEFF 		bl	chDbgPanic
 248              	.L41:
 249 0018 2378     		ldrb	r3, [r4]	@ zero_extendqisi2
 250 001a 012B     		cmp	r3, #1
 251 001c 4CD0     		beq	.L60
 252 001e E368     		ldr	r3, [r4, #12]
 253 0020 0022     		movs	r2, #0
 254 0022 1A60     		str	r2, [r3]
 255 0024 5A63     		str	r2, [r3, #52]
 256 0026 9A63     		str	r2, [r3, #56]
 257 0028 5A62     		str	r2, [r3, #36]
 258              	.L46:
 259 002a 6268     		ldr	r2, [r4, #4]
 260 002c A168     		ldr	r1, [r4, #8]
 261 002e 5668     		ldr	r6, [r2, #4]
 262 0030 9769     		ldr	r7, [r2, #24]
 263 0032 B1FBF6F0 		udiv	r0, r1, r6
 264 0036 451E     		subs	r5, r0, #1
 265 0038 27F0FF07 		bic	r7, r7, #255
 266 003c 4FF0000C 		mov	ip, #0
 267 0040 B5F5803F 		cmp	r5, #65536
 268 0044 C3F810C0 		str	ip, [r3, #16]
 269 0048 DF60     		str	r7, [r3, #12]
 270 004a 03D2     		bcs	.L49
 271 004c 06FB00F0 		mul	r0, r6, r0
 272 0050 8142     		cmp	r1, r0
 273 0052 07D0     		beq	.L50
 274              	.L49:
 275 0054 40F20000 		movw	r0, #:lower16:.LC0
 276 0058 C0F20000 		movt	r0, #:upper16:.LC0
 277 005c FFF7FEFF 		bl	chDbgPanic
 278 0060 E368     		ldr	r3, [r4, #12]
 279 0062 6268     		ldr	r2, [r4, #4]
 280              	.L50:
 281 0064 117D     		ldrb	r1, [r2, #20]	@ zero_extendqisi2
 282 0066 1278     		ldrb	r2, [r2]	@ zero_extendqisi2
 283 0068 ADB2     		uxth	r5, r5
 284 006a 4FF6FF70 		movw	r0, #65535
 285 006e 9D62     		str	r5, [r3, #40]
ARM GAS  C:\Users\pc\AppData\Local\Temp\ccApb6aw.s 			page 6


 286 0070 D862     		str	r0, [r3, #44]
 287 0072 69B9     		cbnz	r1, .L51
 288 0074 40F20120 		movw	r0, #513
 289 0078 5421     		movs	r1, #84
 290 007a 9861     		str	r0, [r3, #24]
 291 007c 9960     		str	r1, [r3, #8]
 292 007e C2B1     		cbz	r2, .L61
 293 0080 1322     		movs	r2, #19
 294 0082 1A62     		str	r2, [r3, #32]
 295              	.L53:
 296 0084 03F13802 		add	r2, r3, #56
 297 0088 3433     		adds	r3, r3, #52
 298 008a 2261     		str	r2, [r4, #16]
 299 008c 6361     		str	r3, [r4, #20]
 300 008e F8BD     		pop	{r3, r4, r5, r6, r7, pc}
 301              	.L51:
 302 0090 4FF48170 		mov	r0, #258
 303 0094 6421     		movs	r1, #100
 304 0096 9861     		str	r0, [r3, #24]
 305 0098 9960     		str	r1, [r3, #8]
 306 009a 3AB1     		cbz	r2, .L62
 307 009c 3122     		movs	r2, #49
 308 009e 1A62     		str	r2, [r3, #32]
 309              	.L56:
 310 00a0 03F13402 		add	r2, r3, #52
 311 00a4 3833     		adds	r3, r3, #56
 312 00a6 2261     		str	r2, [r4, #16]
 313 00a8 6361     		str	r3, [r4, #20]
 314 00aa F8BD     		pop	{r3, r4, r5, r6, r7, pc}
 315              	.L62:
 316 00ac 1322     		movs	r2, #19
 317 00ae 1A62     		str	r2, [r3, #32]
 318 00b0 F6E7     		b	.L56
 319              	.L61:
 320 00b2 3122     		movs	r2, #49
 321 00b4 1A62     		str	r2, [r3, #32]
 322 00b6 E5E7     		b	.L53
 323              	.L60:
 324 00b8 40F20003 		movw	r3, #:lower16:.LANCHOR0
 325 00bc C0F20003 		movt	r3, #:upper16:.LANCHOR0
 326 00c0 9C42     		cmp	r4, r3
 327 00c2 13D0     		beq	.L63
 328 00c4 40F20003 		movw	r3, #:lower16:.LANCHOR1
 329 00c8 C0F20003 		movt	r3, #:upper16:.LANCHOR1
 330 00cc 9C42     		cmp	r4, r3
 331 00ce 29D0     		beq	.L64
 332 00d0 40F20003 		movw	r3, #:lower16:.LANCHOR2
 333 00d4 C0F20003 		movt	r3, #:upper16:.LANCHOR2
 334 00d8 9C42     		cmp	r4, r3
 335 00da 3CD0     		beq	.L65
 336 00dc 40F20003 		movw	r3, #:lower16:.LANCHOR3
 337 00e0 C0F20003 		movt	r3, #:upper16:.LANCHOR3
 338 00e4 9C42     		cmp	r4, r3
 339 00e6 45D0     		beq	.L48
 340              	.L57:
 341 00e8 E368     		ldr	r3, [r4, #12]
 342 00ea 9EE7     		b	.L46
ARM GAS  C:\Users\pc\AppData\Local\Temp\ccApb6aw.s 			page 7


 343              	.L63:
 344 00ec 4FF46053 		mov	r3, #14336
 345 00f0 C4F20203 		movt	r3, 16386
 346 00f4 0022     		movs	r2, #0
 347 00f6 596C     		ldr	r1, [r3, #68]
 348 00f8 41F00101 		orr	r1, r1, #1
 349 00fc 5964     		str	r1, [r3, #68]
 350 00fe 596A     		ldr	r1, [r3, #36]
 351 0100 41F00101 		orr	r1, r1, #1
 352 0104 5962     		str	r1, [r3, #36]
 353 0106 1920     		movs	r0, #25
 354 0108 5A62     		str	r2, [r3, #36]
 355 010a 3021     		movs	r1, #48
 356 010c FFF7FEFF 		bl	nvicEnableVector
 357 0110 1B20     		movs	r0, #27
 358              	.L59:
 359 0112 3021     		movs	r1, #48
 360 0114 FFF7FEFF 		bl	nvicEnableVector
 361 0118 4FF4F443 		mov	r3, #31232
 362 011c C0F60323 		movt	r3, 2563
 363 0120 A360     		str	r3, [r4, #8]
 364 0122 E1E7     		b	.L57
 365              	.L64:
 366 0124 4FF46053 		mov	r3, #14336
 367 0128 C4F20203 		movt	r3, 16386
 368 012c 0022     		movs	r2, #0
 369 012e 196C     		ldr	r1, [r3, #64]
 370 0130 41F00101 		orr	r1, r1, #1
 371 0134 1964     		str	r1, [r3, #64]
 372 0136 196A     		ldr	r1, [r3, #32]
 373 0138 41F00101 		orr	r1, r1, #1
 374 013c 1962     		str	r1, [r3, #32]
 375 013e 1C20     		movs	r0, #28
 376              	.L58:
 377 0140 1A62     		str	r2, [r3, #32]
 378 0142 3021     		movs	r1, #48
 379 0144 FFF7FEFF 		bl	nvicEnableVector
 380 0148 4FF43D43 		mov	r3, #48384
 381 014c C0F20153 		movt	r3, 1281
 382 0150 A360     		str	r3, [r4, #8]
 383 0152 E368     		ldr	r3, [r4, #12]
 384 0154 69E7     		b	.L46
 385              	.L65:
 386 0156 4FF46053 		mov	r3, #14336
 387 015a C4F20203 		movt	r3, 16386
 388 015e 0022     		movs	r2, #0
 389 0160 196C     		ldr	r1, [r3, #64]
 390 0162 41F00201 		orr	r1, r1, #2
 391 0166 1964     		str	r1, [r3, #64]
 392 0168 196A     		ldr	r1, [r3, #32]
 393 016a 41F00201 		orr	r1, r1, #2
 394 016e 1962     		str	r1, [r3, #32]
 395 0170 1D20     		movs	r0, #29
 396 0172 E5E7     		b	.L58
 397              	.L48:
 398 0174 4FF46053 		mov	r3, #14336
 399 0178 C4F20203 		movt	r3, 16386
ARM GAS  C:\Users\pc\AppData\Local\Temp\ccApb6aw.s 			page 8


 400 017c 0022     		movs	r2, #0
 401 017e 596C     		ldr	r1, [r3, #68]
 402 0180 41F48031 		orr	r1, r1, #65536
 403 0184 5964     		str	r1, [r3, #68]
 404 0186 596A     		ldr	r1, [r3, #36]
 405 0188 41F48031 		orr	r1, r1, #65536
 406 018c 5962     		str	r1, [r3, #36]
 407 018e 1820     		movs	r0, #24
 408 0190 5A62     		str	r2, [r3, #36]
 409 0192 BEE7     		b	.L59
 410              		.size	icu_lld_start, .-icu_lld_start
 411 0194 AFF30080 		.section	.text.icu_lld_stop,"ax",%progbits
 411      AFF30080 
 411      AFF30080 
 412              		.align	2
 413              		.p2align 4,,15
 414              		.global	icu_lld_stop
 415              		.thumb
 416              		.thumb_func
 417              		.type	icu_lld_stop, %function
 418              	icu_lld_stop:
 419              		@ args = 0, pretend = 0, frame = 0
 420              		@ frame_needed = 0, uses_anonymous_args = 0
 421 0000 08B5     		push	{r3, lr}
 422 0002 0378     		ldrb	r3, [r0]	@ zero_extendqisi2
 423 0004 022B     		cmp	r3, #2
 424 0006 00D0     		beq	.L73
 425              	.L66:
 426 0008 08BD     		pop	{r3, pc}
 427              	.L73:
 428 000a 40F20003 		movw	r3, #:lower16:.LANCHOR0
 429 000e C268     		ldr	r2, [r0, #12]
 430 0010 C0F20003 		movt	r3, #:upper16:.LANCHOR0
 431 0014 0021     		movs	r1, #0
 432 0016 9842     		cmp	r0, r3
 433 0018 1160     		str	r1, [r2]
 434 001a D160     		str	r1, [r2, #12]
 435 001c 1161     		str	r1, [r2, #16]
 436 001e 1DD0     		beq	.L74
 437 0020 40F20003 		movw	r3, #:lower16:.LANCHOR1
 438 0024 C0F20003 		movt	r3, #:upper16:.LANCHOR1
 439 0028 9842     		cmp	r0, r3
 440 002a 26D0     		beq	.L75
 441 002c 40F20003 		movw	r3, #:lower16:.LANCHOR2
 442 0030 C0F20003 		movt	r3, #:upper16:.LANCHOR2
 443 0034 9842     		cmp	r0, r3
 444 0036 2CD0     		beq	.L76
 445 0038 40F20003 		movw	r3, #:lower16:.LANCHOR3
 446 003c C0F20003 		movt	r3, #:upper16:.LANCHOR3
 447 0040 9842     		cmp	r0, r3
 448 0042 E1D1     		bne	.L66
 449 0044 1820     		movs	r0, #24
 450 0046 FFF7FEFF 		bl	nvicDisableVector
 451 004a 4FF46053 		mov	r3, #14336
 452 004e C4F20203 		movt	r3, 16386
 453 0052 5A6C     		ldr	r2, [r3, #68]
 454 0054 22F48032 		bic	r2, r2, #65536
ARM GAS  C:\Users\pc\AppData\Local\Temp\ccApb6aw.s 			page 9


 455 0058 5A64     		str	r2, [r3, #68]
 456 005a D5E7     		b	.L66
 457              	.L74:
 458 005c 1920     		movs	r0, #25
 459 005e FFF7FEFF 		bl	nvicDisableVector
 460 0062 1B20     		movs	r0, #27
 461 0064 FFF7FEFF 		bl	nvicDisableVector
 462 0068 4FF46053 		mov	r3, #14336
 463 006c C4F20203 		movt	r3, 16386
 464 0070 5A6C     		ldr	r2, [r3, #68]
 465 0072 22F00102 		bic	r2, r2, #1
 466 0076 5A64     		str	r2, [r3, #68]
 467 0078 08BD     		pop	{r3, pc}
 468              	.L75:
 469 007a 1C20     		movs	r0, #28
 470 007c FFF7FEFF 		bl	nvicDisableVector
 471 0080 4FF46053 		mov	r3, #14336
 472 0084 C4F20203 		movt	r3, 16386
 473 0088 1A6C     		ldr	r2, [r3, #64]
 474 008a 22F00102 		bic	r2, r2, #1
 475 008e 1A64     		str	r2, [r3, #64]
 476 0090 08BD     		pop	{r3, pc}
 477              	.L76:
 478 0092 1D20     		movs	r0, #29
 479 0094 FFF7FEFF 		bl	nvicDisableVector
 480 0098 4FF46053 		mov	r3, #14336
 481 009c C4F20203 		movt	r3, 16386
 482 00a0 1A6C     		ldr	r2, [r3, #64]
 483 00a2 22F00202 		bic	r2, r2, #2
 484 00a6 1A64     		str	r2, [r3, #64]
 485 00a8 08BD     		pop	{r3, pc}
 486              		.size	icu_lld_stop, .-icu_lld_stop
 487 00aa 00BFAFF3 		.section	.text.icu_lld_enable,"ax",%progbits
 487      0080
 488              		.align	2
 489              		.p2align 4,,15
 490              		.global	icu_lld_enable
 491              		.thumb
 492              		.thumb_func
 493              		.type	icu_lld_enable, %function
 494              	icu_lld_enable:
 495              		@ args = 0, pretend = 0, frame = 0
 496              		@ frame_needed = 0, uses_anonymous_args = 0
 497              		@ link register save eliminated.
 498 0000 C368     		ldr	r3, [r0, #12]
 499 0002 4268     		ldr	r2, [r0, #4]
 500 0004 5869     		ldr	r0, [r3, #20]
 501 0006 117D     		ldrb	r1, [r2, #20]	@ zero_extendqisi2
 502 0008 10B4     		push	{r4}
 503 000a 40F00100 		orr	r0, r0, #1
 504 000e 0024     		movs	r4, #0
 505 0010 5861     		str	r0, [r3, #20]
 506 0012 1C61     		str	r4, [r3, #16]
 507 0014 B1B9     		cbnz	r1, .L78
 508 0016 D168     		ldr	r1, [r2, #12]
 509 0018 19B1     		cbz	r1, .L79
 510 001a D968     		ldr	r1, [r3, #12]
ARM GAS  C:\Users\pc\AppData\Local\Temp\ccApb6aw.s 			page 10


 511 001c 41F00201 		orr	r1, r1, #2
 512 0020 D960     		str	r1, [r3, #12]
 513              	.L79:
 514 0022 9168     		ldr	r1, [r2, #8]
 515 0024 19B1     		cbz	r1, .L81
 516              	.L97:
 517 0026 D968     		ldr	r1, [r3, #12]
 518 0028 41F00401 		orr	r1, r1, #4
 519 002c D960     		str	r1, [r3, #12]
 520              	.L81:
 521 002e 1269     		ldr	r2, [r2, #16]
 522 0030 1AB1     		cbz	r2, .L84
 523 0032 DA68     		ldr	r2, [r3, #12]
 524 0034 42F00102 		orr	r2, r2, #1
 525 0038 DA60     		str	r2, [r3, #12]
 526              	.L84:
 527 003a 0522     		movs	r2, #5
 528 003c 1A60     		str	r2, [r3]
 529 003e 5DF8044B 		ldr	r4, [sp], #4
 530 0042 7047     		bx	lr
 531              	.L78:
 532 0044 9168     		ldr	r1, [r2, #8]
 533 0046 19B1     		cbz	r1, .L82
 534 0048 D968     		ldr	r1, [r3, #12]
 535 004a 41F00201 		orr	r1, r1, #2
 536 004e D960     		str	r1, [r3, #12]
 537              	.L82:
 538 0050 D168     		ldr	r1, [r2, #12]
 539 0052 0029     		cmp	r1, #0
 540 0054 E7D1     		bne	.L97
 541 0056 EAE7     		b	.L81
 542              		.size	icu_lld_enable, .-icu_lld_enable
 543 0058 AFF30080 		.section	.text.icu_lld_disable,"ax",%progbits
 543      AFF30080 
 544              		.align	2
 545              		.p2align 4,,15
 546              		.global	icu_lld_disable
 547              		.thumb
 548              		.thumb_func
 549              		.type	icu_lld_disable, %function
 550              	icu_lld_disable:
 551              		@ args = 0, pretend = 0, frame = 0
 552              		@ frame_needed = 0, uses_anonymous_args = 0
 553              		@ link register save eliminated.
 554 0000 C368     		ldr	r3, [r0, #12]
 555 0002 0022     		movs	r2, #0
 556 0004 1A60     		str	r2, [r3]
 557 0006 1A61     		str	r2, [r3, #16]
 558 0008 DA68     		ldr	r2, [r3, #12]
 559 000a 22F0FF02 		bic	r2, r2, #255
 560 000e DA60     		str	r2, [r3, #12]
 561 0010 7047     		bx	lr
 562              		.size	icu_lld_disable, .-icu_lld_disable
 563              		.global	ICUD9
 564              		.global	ICUD3
 565              		.global	ICUD2
 566              		.global	ICUD1
ARM GAS  C:\Users\pc\AppData\Local\Temp\ccApb6aw.s 			page 11


 567              		.section	.bss.ICUD2,"aw",%nobits
 568              		.align	2
 569              		.set	.LANCHOR1,. + 0
 570              		.type	ICUD2, %object
 571              		.size	ICUD2, 24
 572              	ICUD2:
 573 0000 00000000 		.space	24
 573      00000000 
 573      00000000 
 573      00000000 
 573      00000000 
 574              		.section	.bss.ICUD3,"aw",%nobits
 575              		.align	2
 576              		.set	.LANCHOR2,. + 0
 577              		.type	ICUD3, %object
 578              		.size	ICUD3, 24
 579              	ICUD3:
 580 0000 00000000 		.space	24
 580      00000000 
 580      00000000 
 580      00000000 
 580      00000000 
 581              		.section	.bss.ICUD9,"aw",%nobits
 582              		.align	2
 583              		.set	.LANCHOR3,. + 0
 584              		.type	ICUD9, %object
 585              		.size	ICUD9, 24
 586              	ICUD9:
 587 0000 00000000 		.space	24
 587      00000000 
 587      00000000 
 587      00000000 
 587      00000000 
 588              		.section	.rodata.str1.4,"aMS",%progbits,1
 589              		.align	2
 590              	.LC0:
 591 0000 6963755F 		.ascii	"icu_lld_start(), #1\000"
 591      6C6C645F 
 591      73746172 
 591      7428292C 
 591      20233100 
 592              		.section	.bss.ICUD1,"aw",%nobits
 593              		.align	2
 594              		.set	.LANCHOR0,. + 0
 595              		.type	ICUD1, %object
 596              		.size	ICUD1, 24
 597              	ICUD1:
 598 0000 00000000 		.space	24
 598      00000000 
 598      00000000 
 598      00000000 
 598      00000000 
 599              		.ident	"GCC: (Sourcery CodeBench Lite 2013.11-24) 4.8.1"
ARM GAS  C:\Users\pc\AppData\Local\Temp\ccApb6aw.s 			page 12

