ARM GAS  C:\Users\pc\AppData\Local\Temp\ccX7YgIM.s 			page 1


   1              		.syntax unified
   2              		.cpu cortex-m4
   3              		.eabi_attribute 27, 3
   4              		.fpu fpv4-sp-d16
   5              		.eabi_attribute 20, 1
   6              		.eabi_attribute 21, 1
   7              		.eabi_attribute 23, 3
   8              		.eabi_attribute 24, 1
   9              		.eabi_attribute 25, 1
  10              		.eabi_attribute 26, 1
  11              		.eabi_attribute 30, 2
  12              		.eabi_attribute 34, 1
  13              		.eabi_attribute 18, 4
  14              		.thumb
  15              		.file	"io_pins.cpp"
  16              		.section	.text._ZL20outputPinRegisterExtPKcP9OutputPinP12GPIO_TypeDefmP17pin_output_mode_e,"ax",%p
  17              		.align	2
  18              		.p2align 4,,15
  19              		.thumb
  20              		.thumb_func
  21              		.type	_ZL20outputPinRegisterExtPKcP9OutputPinP12GPIO_TypeDefmP17pin_output_mode_e, %function
  22              	_ZL20outputPinRegisterExtPKcP9OutputPinP12GPIO_TypeDefmP17pin_output_mode_e:
  23              		@ args = 4, pretend = 0, frame = 0
  24              		@ frame_needed = 0, uses_anonymous_args = 0
  25 0000 70B5     		push	{r4, r5, r6, lr}
  26 0002 82B0     		sub	sp, sp, #8
  27 0004 0E46     		mov	r6, r1
  28 0006 069C     		ldr	r4, [sp, #24]
  29 0008 CAB1     		cbz	r2, .L9
  30 000a 2568     		ldr	r5, [r4]
  31 000c 032D     		cmp	r5, #3
  32 000e 0DDC     		bgt	.L10
  33 0010 012D     		cmp	r5, #1
  34 0012 8CBF     		ite	hi
  35 0014 0525     		movhi	r5, #5
  36 0016 0125     		movls	r5, #1
  37 0018 0095     		str	r5, [sp]
  38 001a FFF7FEFF 		bl	_Z16initOutputPinExtPKcP9OutputPinP12GPIO_TypeDefmm
  39 001e 3046     		mov	r0, r6
  40 0020 2146     		mov	r1, r4
  41 0022 02B0     		add	sp, sp, #8
  42              		@ sp needed
  43 0024 BDE87040 		pop	{r4, r5, r6, lr}
  44 0028 FFF7FEBF 		b	_ZN9OutputPin18setDefaultPinStateEP17pin_output_mode_e
  45              	.L10:
  46 002c 40F20000 		movw	r0, #:lower16:.LC0
  47 0030 C0F20000 		movt	r0, #:upper16:.LC0
  48 0034 02B0     		add	sp, sp, #8
  49              		@ sp needed
  50 0036 BDE87040 		pop	{r4, r5, r6, lr}
  51 003a FFF7FEBF 		b	firmwareError
  52              	.L9:
  53 003e 3260     		str	r2, [r6]
  54 0040 02B0     		add	sp, sp, #8
  55              		@ sp needed
  56 0042 70BD     		pop	{r4, r5, r6, pc}
  57              		.size	_ZL20outputPinRegisterExtPKcP9OutputPinP12GPIO_TypeDefmP17pin_output_mode_e, .-_ZL20outputPi
ARM GAS  C:\Users\pc\AppData\Local\Temp\ccX7YgIM.s 			page 2


  58 0044 AFF30080 		.section	.text._Z9getHwPort11brain_pin_e,"ax",%progbits
  58      AFF30080 
  58      AFF30080 
  59              		.align	2
  60              		.p2align 4,,15
  61              		.global	_Z9getHwPort11brain_pin_e
  62              		.thumb
  63              		.thumb_func
  64              		.type	_Z9getHwPort11brain_pin_e, %function
  65              	_Z9getHwPort11brain_pin_e:
  66              		@ args = 0, pretend = 0, frame = 0
  67              		@ frame_needed = 0, uses_anonymous_args = 0
  68 0000 5028     		cmp	r0, #80
  69 0002 08B5     		push	{r3, lr}
  70 0004 0146     		mov	r1, r0
  71 0006 10D0     		beq	.L14
  72 0008 07D8     		bhi	.L15
  73 000a 40F20003 		movw	r3, #:lower16:.LANCHOR0
  74 000e 0111     		asrs	r1, r0, #4
  75 0010 C0F20003 		movt	r3, #:upper16:.LANCHOR0
  76 0014 53F82100 		ldr	r0, [r3, r1, lsl #2]
  77 0018 08BD     		pop	{r3, pc}
  78              	.L15:
  79 001a 40F20000 		movw	r0, #:lower16:.LC1
  80 001e C0F20000 		movt	r0, #:upper16:.LC1
  81 0022 FFF7FEFF 		bl	firmwareError
  82 0026 0020     		movs	r0, #0
  83 0028 08BD     		pop	{r3, pc}
  84              	.L14:
  85 002a 0020     		movs	r0, #0
  86 002c 08BD     		pop	{r3, pc}
  87              		.size	_Z9getHwPort11brain_pin_e, .-_Z9getHwPort11brain_pin_e
  88 002e 00BF     		.section	.text._Z21outputPinRegisterExt2PKcP9OutputPin11brain_pin_eP17pin_output_mode_e.part.0,"ax
  89              		.align	2
  90              		.p2align 4,,15
  91              		.thumb
  92              		.thumb_func
  93              		.type	_Z21outputPinRegisterExt2PKcP9OutputPin11brain_pin_eP17pin_output_mode_e.part.0, %function
  94              	_Z21outputPinRegisterExt2PKcP9OutputPin11brain_pin_eP17pin_output_mode_e.part.0:
  95              		@ args = 0, pretend = 0, frame = 0
  96              		@ frame_needed = 0, uses_anonymous_args = 0
  97 0000 2DE9F041 		push	{r4, r5, r6, r7, r8, lr}
  98 0004 0646     		mov	r6, r0
  99 0006 82B0     		sub	sp, sp, #8
 100 0008 1046     		mov	r0, r2
 101 000a 1446     		mov	r4, r2
 102 000c 1F46     		mov	r7, r3
 103 000e 0D46     		mov	r5, r1
 104 0010 FFF7FEFF 		bl	_Z9getHwPort11brain_pin_e
 105 0014 502C     		cmp	r4, #80
 106 0016 8046     		mov	r8, r0
 107 0018 08BF     		it	eq
 108 001a 4FF0FF33 		moveq	r3, #-1
 109 001e 03D0     		beq	.L17
 110 0020 98BF     		it	ls
 111 0022 04F00F03 		andls	r3, r4, #15
 112 0026 08D8     		bhi	.L20
ARM GAS  C:\Users\pc\AppData\Local\Temp\ccX7YgIM.s 			page 3


 113              	.L17:
 114 0028 0097     		str	r7, [sp]
 115 002a 3046     		mov	r0, r6
 116 002c 2946     		mov	r1, r5
 117 002e 4246     		mov	r2, r8
 118 0030 FFF7FEFF 		bl	_ZL20outputPinRegisterExtPKcP9OutputPinP12GPIO_TypeDefmP17pin_output_mode_e
 119 0034 02B0     		add	sp, sp, #8
 120              		@ sp needed
 121 0036 BDE8F081 		pop	{r4, r5, r6, r7, r8, pc}
 122              	.L20:
 123 003a 40F20000 		movw	r0, #:lower16:.LC1
 124 003e 2146     		mov	r1, r4
 125 0040 C0F20000 		movt	r0, #:upper16:.LC1
 126 0044 FFF7FEFF 		bl	firmwareError
 127 0048 4FF0FF33 		mov	r3, #-1
 128 004c ECE7     		b	.L17
 129              		.size	_Z21outputPinRegisterExt2PKcP9OutputPin11brain_pin_eP17pin_output_mode_e.part.0, .-_Z21outpu
 130 004e 00BF     		.section	.text._Z8getHwPin11brain_pin_e,"ax",%progbits
 131              		.align	2
 132              		.p2align 4,,15
 133              		.global	_Z8getHwPin11brain_pin_e
 134              		.thumb
 135              		.thumb_func
 136              		.type	_Z8getHwPin11brain_pin_e, %function
 137              	_Z8getHwPin11brain_pin_e:
 138              		@ args = 0, pretend = 0, frame = 0
 139              		@ frame_needed = 0, uses_anonymous_args = 0
 140 0000 5028     		cmp	r0, #80
 141 0002 08B5     		push	{r3, lr}
 142 0004 0146     		mov	r1, r0
 143 0006 0CD0     		beq	.L24
 144 0008 02D8     		bhi	.L25
 145 000a 00F00F00 		and	r0, r0, #15
 146 000e 08BD     		pop	{r3, pc}
 147              	.L25:
 148 0010 40F20000 		movw	r0, #:lower16:.LC1
 149 0014 C0F20000 		movt	r0, #:upper16:.LC1
 150 0018 FFF7FEFF 		bl	firmwareError
 151 001c 4FF0FF30 		mov	r0, #-1
 152 0020 08BD     		pop	{r3, pc}
 153              	.L24:
 154 0022 4FF0FF30 		mov	r0, #-1
 155 0026 08BD     		pop	{r3, pc}
 156              		.size	_Z8getHwPin11brain_pin_e, .-_Z8getHwPin11brain_pin_e
 157 0028 AFF30080 		.section	.text._Z21outputPinRegisterExt2PKcP9OutputPin11brain_pin_eP17pin_output_mode_e,"ax",%prog
 157      AFF30080 
 158              		.align	2
 159              		.p2align 4,,15
 160              		.global	_Z21outputPinRegisterExt2PKcP9OutputPin11brain_pin_eP17pin_output_mode_e
 161              		.thumb
 162              		.thumb_func
 163              		.type	_Z21outputPinRegisterExt2PKcP9OutputPin11brain_pin_eP17pin_output_mode_e, %function
 164              	_Z21outputPinRegisterExt2PKcP9OutputPin11brain_pin_eP17pin_output_mode_e:
 165              		@ args = 0, pretend = 0, frame = 0
 166              		@ frame_needed = 0, uses_anonymous_args = 0
 167              		@ link register save eliminated.
 168 0000 502A     		cmp	r2, #80
ARM GAS  C:\Users\pc\AppData\Local\Temp\ccX7YgIM.s 			page 4


 169 0002 01D0     		beq	.L26
 170 0004 FFF7FEBF 		b	_Z21outputPinRegisterExt2PKcP9OutputPin11brain_pin_eP17pin_output_mode_e.part.0
 171              	.L26:
 172 0008 7047     		bx	lr
 173              		.size	_Z21outputPinRegisterExt2PKcP9OutputPin11brain_pin_eP17pin_output_mode_e, .-_Z21outputPinReg
 174 000a 00BFAFF3 		.section	.text._Z17outputPinRegisterPKcP9OutputPinP12GPIO_TypeDefm,"ax",%progbits
 174      0080
 175              		.align	2
 176              		.p2align 4,,15
 177              		.global	_Z17outputPinRegisterPKcP9OutputPinP12GPIO_TypeDefm
 178              		.thumb
 179              		.thumb_func
 180              		.type	_Z17outputPinRegisterPKcP9OutputPinP12GPIO_TypeDefm, %function
 181              	_Z17outputPinRegisterPKcP9OutputPinP12GPIO_TypeDefm:
 182              		@ args = 0, pretend = 0, frame = 0
 183              		@ frame_needed = 0, uses_anonymous_args = 0
 184 0000 10B5     		push	{r4, lr}
 185 0002 40F20004 		movw	r4, #:lower16:.LANCHOR1
 186 0006 82B0     		sub	sp, sp, #8
 187 0008 C0F20004 		movt	r4, #:upper16:.LANCHOR1
 188 000c 0094     		str	r4, [sp]
 189 000e FFF7FEFF 		bl	_ZL20outputPinRegisterExtPKcP9OutputPinP12GPIO_TypeDefmP17pin_output_mode_e
 190 0012 02B0     		add	sp, sp, #8
 191              		@ sp needed
 192 0014 10BD     		pop	{r4, pc}
 193              		.size	_Z17outputPinRegisterPKcP9OutputPinP12GPIO_TypeDefm, .-_Z17outputPinRegisterPKcP9OutputPinP1
 194 0016 00BFAFF3 		.section	.text._Z15initPrimaryPinsv,"ax",%progbits
 194      0080AFF3 
 194      0080
 195              		.align	2
 196              		.p2align 4,,15
 197              		.global	_Z15initPrimaryPinsv
 198              		.thumb
 199              		.thumb_func
 200              		.type	_Z15initPrimaryPinsv, %function
 201              	_Z15initPrimaryPinsv:
 202              		@ args = 0, pretend = 0, frame = 0
 203              		@ frame_needed = 0, uses_anonymous_args = 0
 204 0000 00B5     		push	{lr}
 205 0002 40F20003 		movw	r3, #:lower16:.LANCHOR1
 206 0006 83B0     		sub	sp, sp, #12
 207 0008 C0F20003 		movt	r3, #:upper16:.LANCHOR1
 208 000c 40F20000 		movw	r0, #:lower16:.LC2
 209 0010 4FF44062 		mov	r2, #3072
 210 0014 0093     		str	r3, [sp]
 211 0016 C0F20000 		movt	r0, #:upper16:.LC2
 212 001a C4F20202 		movt	r2, 16386
 213 001e 0349     		ldr	r1, .L30
 214 0020 0E23     		movs	r3, #14
 215 0022 FFF7FEFF 		bl	_ZL20outputPinRegisterExtPKcP9OutputPinP12GPIO_TypeDefmP17pin_output_mode_e
 216 0026 03B0     		add	sp, sp, #12
 217              		@ sp needed
 218 0028 5DF804FB 		ldr	pc, [sp], #4
 219              	.L31:
 220              		.align	2
 221              	.L30:
 222 002c 50000000 		.word	enginePins+80
ARM GAS  C:\Users\pc\AppData\Local\Temp\ccX7YgIM.s 			page 5


 223              		.size	_Z15initPrimaryPinsv, .-_Z15initPrimaryPinsv
 224              		.section	.text._Z14initOutputPinsv,"ax",%progbits
 225              		.align	2
 226              		.p2align 4,,15
 227              		.global	_Z14initOutputPinsv
 228              		.thumb
 229              		.thumb_func
 230              		.type	_Z14initOutputPinsv, %function
 231              	_Z14initOutputPinsv:
 232              		@ args = 0, pretend = 0, frame = 0
 233              		@ frame_needed = 0, uses_anonymous_args = 0
 234 0000 10B5     		push	{r4, lr}
 235 0002 40F20004 		movw	r4, #:lower16:boardConfiguration
 236 0006 C0F20004 		movt	r4, #:upper16:boardConfiguration
 237 000a 2368     		ldr	r3, [r4]
 238 000c D3F88820 		ldr	r2, [r3, #136]
 239 0010 502A     		cmp	r2, #80
 240 0012 0ED0     		beq	.L33
 241 0014 40F20000 		movw	r0, #:lower16:.LC3
 242 0018 40F20001 		movw	r1, #:lower16:checkEnginePin
 243 001c 40F20003 		movw	r3, #:lower16:.LANCHOR1
 244 0020 C0F20003 		movt	r3, #:upper16:.LANCHOR1
 245 0024 C0F20000 		movt	r0, #:upper16:.LC3
 246 0028 C0F20001 		movt	r1, #:upper16:checkEnginePin
 247 002c FFF7FEFF 		bl	_Z21outputPinRegisterExt2PKcP9OutputPin11brain_pin_eP17pin_output_mode_e.part.0
 248 0030 2368     		ldr	r3, [r4]
 249              	.L33:
 250 0032 D3F84421 		ldr	r2, [r3, #324]
 251 0036 502A     		cmp	r2, #80
 252 0038 0ED0     		beq	.L34
 253 003a 40F20000 		movw	r0, #:lower16:.LC4
 254 003e 40F20001 		movw	r1, #:lower16:.LANCHOR2
 255 0042 40F20003 		movw	r3, #:lower16:.LANCHOR1
 256 0046 C0F20003 		movt	r3, #:upper16:.LANCHOR1
 257 004a C0F20000 		movt	r0, #:upper16:.LC4
 258 004e C0F20001 		movt	r1, #:upper16:.LANCHOR2
 259 0052 FFF7FEFF 		bl	_Z21outputPinRegisterExt2PKcP9OutputPin11brain_pin_eP17pin_output_mode_e.part.0
 260 0056 2368     		ldr	r3, [r4]
 261              	.L34:
 262 0058 9A69     		ldr	r2, [r3, #24]
 263 005a 502A     		cmp	r2, #80
 264 005c 0BD0     		beq	.L35
 265 005e 40F20000 		movw	r0, #:lower16:.LC5
 266 0062 40F20003 		movw	r3, #:lower16:.LANCHOR1
 267 0066 C0F20003 		movt	r3, #:upper16:.LANCHOR1
 268 006a C0F20000 		movt	r0, #:upper16:.LC5
 269 006e 2249     		ldr	r1, .L56
 270 0070 FFF7FEFF 		bl	_Z21outputPinRegisterExt2PKcP9OutputPin11brain_pin_eP17pin_output_mode_e.part.0
 271 0074 2368     		ldr	r3, [r4]
 272              	.L35:
 273 0076 D3F83421 		ldr	r2, [r3, #308]
 274 007a 502A     		cmp	r2, #80
 275 007c 0CD0     		beq	.L36
 276 007e 40F20000 		movw	r0, #:lower16:.LC6
 277 0082 40F20001 		movw	r1, #:lower16:enginePins
 278 0086 03F5CE73 		add	r3, r3, #412
 279 008a C0F20000 		movt	r0, #:upper16:.LC6
ARM GAS  C:\Users\pc\AppData\Local\Temp\ccX7YgIM.s 			page 6


 280 008e C0F20001 		movt	r1, #:upper16:enginePins
 281 0092 FFF7FEFF 		bl	_Z21outputPinRegisterExt2PKcP9OutputPin11brain_pin_eP17pin_output_mode_e.part.0
 282 0096 2368     		ldr	r3, [r4]
 283              	.L36:
 284 0098 D3F89020 		ldr	r2, [r3, #144]
 285 009c 502A     		cmp	r2, #80
 286 009e 0BD0     		beq	.L37
 287 00a0 40F20000 		movw	r0, #:lower16:.LC7
 288 00a4 40F20003 		movw	r3, #:lower16:.LANCHOR1
 289 00a8 C0F20003 		movt	r3, #:upper16:.LANCHOR1
 290 00ac C0F20000 		movt	r0, #:upper16:.LC7
 291 00b0 1249     		ldr	r1, .L56+4
 292 00b2 FFF7FEFF 		bl	_Z21outputPinRegisterExt2PKcP9OutputPin11brain_pin_eP17pin_output_mode_e.part.0
 293 00b6 2368     		ldr	r3, [r4]
 294              	.L37:
 295 00b8 D3F87821 		ldr	r2, [r3, #376]
 296 00bc 502A     		cmp	r2, #80
 297 00be 0BD0     		beq	.L38
 298 00c0 40F20000 		movw	r0, #:lower16:.LC8
 299 00c4 40F20003 		movw	r3, #:lower16:.LANCHOR1
 300 00c8 C0F20003 		movt	r3, #:upper16:.LANCHOR1
 301 00cc C0F20000 		movt	r0, #:upper16:.LC8
 302 00d0 0B49     		ldr	r1, .L56+8
 303 00d2 FFF7FEFF 		bl	_Z21outputPinRegisterExt2PKcP9OutputPin11brain_pin_eP17pin_output_mode_e.part.0
 304 00d6 2368     		ldr	r3, [r4]
 305              	.L38:
 306 00d8 D3F86022 		ldr	r2, [r3, #608]
 307 00dc 502A     		cmp	r2, #80
 308 00de 0AD0     		beq	.L32
 309 00e0 40F20000 		movw	r0, #:lower16:.LC9
 310 00e4 03F51973 		add	r3, r3, #612
 311 00e8 C0F20000 		movt	r0, #:upper16:.LC9
 312 00ec 0549     		ldr	r1, .L56+12
 313 00ee BDE81040 		pop	{r4, lr}
 314 00f2 FFF7FEBF 		b	_Z21outputPinRegisterExt2PKcP9OutputPin11brain_pin_eP17pin_output_mode_e.part.0
 315              	.L32:
 316 00f6 10BD     		pop	{r4, pc}
 317              	.L57:
 318              		.align	2
 319              	.L56:
 320 00f8 30000000 		.word	enginePins+48
 321 00fc 10000000 		.word	enginePins+16
 322 0100 40000000 		.word	enginePins+64
 323 0104 20000000 		.word	enginePins+32
 324              		.size	_Z14initOutputPinsv, .-_Z14initOutputPinsv
 325 0108 AFF30080 		.section	.text._Z14turnAllPinsOffv,"ax",%progbits
 325      AFF30080 
 326              		.align	2
 327              		.p2align 4,,15
 328              		.global	_Z14turnAllPinsOffv
 329              		.thumb
 330              		.thumb_func
 331              		.type	_Z14turnAllPinsOffv, %function
 332              	_Z14turnAllPinsOffv:
 333              		@ args = 0, pretend = 0, frame = 0
 334              		@ frame_needed = 0, uses_anonymous_args = 0
 335 0000 38B5     		push	{r3, r4, r5, lr}
ARM GAS  C:\Users\pc\AppData\Local\Temp\ccX7YgIM.s 			page 7


 336 0002 0A4C     		ldr	r4, .L63
 337 0004 04F1F005 		add	r5, r4, #240
 338              	.L60:
 339 0008 2046     		mov	r0, r4
 340 000a 0021     		movs	r1, #0
 341 000c 1434     		adds	r4, r4, #20
 342 000e FFF7FEFF 		bl	_ZN9OutputPin8setValueEi
 343 0012 AC42     		cmp	r4, r5
 344 0014 F8D1     		bne	.L60
 345 0016 064C     		ldr	r4, .L63+4
 346 0018 04F1F005 		add	r5, r4, #240
 347              	.L62:
 348 001c 2046     		mov	r0, r4
 349 001e 0021     		movs	r1, #0
 350 0020 1434     		adds	r4, r4, #20
 351 0022 FFF7FEFF 		bl	_ZN9OutputPin8setValueEi
 352 0026 AC42     		cmp	r4, r5
 353 0028 F8D1     		bne	.L62
 354 002a 38BD     		pop	{r3, r4, r5, pc}
 355              	.L64:
 356              		.align	2
 357              	.L63:
 358 002c 60000000 		.word	enginePins+96
 359 0030 50010000 		.word	enginePins+336
 360              		.size	_Z14turnAllPinsOffv, .-_Z14turnAllPinsOffv
 361 0034 AFF30080 		.section	.text.startup._GLOBAL__sub_I_DEFAULT_OUTPUT,"ax",%progbits
 361      AFF30080 
 361      AFF30080 
 362              		.align	2
 363              		.p2align 4,,15
 364              		.thumb
 365              		.thumb_func
 366              		.type	_GLOBAL__sub_I_DEFAULT_OUTPUT, %function
 367              	_GLOBAL__sub_I_DEFAULT_OUTPUT:
 368              		@ args = 0, pretend = 0, frame = 0
 369              		@ frame_needed = 0, uses_anonymous_args = 0
 370 0000 08B5     		push	{r3, lr}
 371 0002 40F20000 		movw	r0, #:lower16:.LANCHOR3
 372 0006 40F20001 		movw	r1, #:lower16:.LC10
 373 000a C0F20000 		movt	r0, #:upper16:.LANCHOR3
 374 000e C0F20001 		movt	r1, #:upper16:.LC10
 375 0012 FFF7FEFF 		bl	_ZN18LoggingWithStorageC1EPKc
 376 0016 40F20000 		movw	r0, #:lower16:.LANCHOR2
 377 001a C0F20000 		movt	r0, #:upper16:.LANCHOR2
 378 001e BDE80840 		pop	{r3, lr}
 379 0022 FFF7FEBF 		b	_ZN9OutputPinC1Ev
 380              		.size	_GLOBAL__sub_I_DEFAULT_OUTPUT, .-_GLOBAL__sub_I_DEFAULT_OUTPUT
 381 0026 00BFAFF3 		.section	.init_array,"aw",%init_array
 381      0080AFF3 
 381      0080
 382              		.align	2
 383 0000 00000000 		.word	_GLOBAL__sub_I_DEFAULT_OUTPUT(target1)
 384              		.global	DEFAULT_OUTPUT
 385              		.section	.bss._ZL7sdCsPin,"aw",%nobits
 386              		.align	2
 387              		.set	.LANCHOR2,. + 0
 388              		.type	_ZL7sdCsPin, %object
ARM GAS  C:\Users\pc\AppData\Local\Temp\ccX7YgIM.s 			page 8


 389              		.size	_ZL7sdCsPin, 16
 390              	_ZL7sdCsPin:
 391 0000 00000000 		.space	16
 391      00000000 
 391      00000000 
 391      00000000 
 392              		.section	.rodata._ZL5PORTS,"a",%progbits
 393              		.align	2
 394              		.set	.LANCHOR0,. + 0
 395              		.type	_ZL5PORTS, %object
 396              		.size	_ZL5PORTS, 32
 397              	_ZL5PORTS:
 398 0000 00000240 		.word	1073872896
 399 0004 00040240 		.word	1073873920
 400 0008 00080240 		.word	1073874944
 401 000c 000C0240 		.word	1073875968
 402 0010 00100240 		.word	1073876992
 403 0014 00140240 		.word	1073878016
 404 0018 00180240 		.word	1073879040
 405 001c 001C0240 		.word	1073880064
 406              		.section	.bss.DEFAULT_OUTPUT,"aw",%nobits
 407              		.align	2
 408              		.set	.LANCHOR1,. + 0
 409              		.type	DEFAULT_OUTPUT, %object
 410              		.size	DEFAULT_OUTPUT, 4
 411              	DEFAULT_OUTPUT:
 412 0000 00000000 		.space	4
 413              		.section	.rodata.str1.4,"aMS",%progbits,1
 414              		.align	2
 415              	.LC0:
 416 0000 696E7661 		.ascii	"invalid pin_output_mode_e\000"
 416      6C696420 
 416      70696E5F 
 416      6F757470 
 416      75745F6D 
 417 001a 0000     		.space	2
 418              	.LC1:
 419 001c 496E7661 		.ascii	"Invalid brain_pin_e: %d\000"
 419      6C696420 
 419      62726169 
 419      6E5F7069 
 419      6E5F653A 
 420              	.LC2:
 421 0034 4C45445F 		.ascii	"LED_ERROR\000"
 421      4552524F 
 421      5200
 422 003e 0000     		.space	2
 423              	.LC3:
 424 0040 4D616C66 		.ascii	"MalfunctionIndicator\000"
 424      756E6374 
 424      696F6E49 
 424      6E646963 
 424      61746F72 
 425 0055 000000   		.space	3
 426              	.LC4:
 427 0058 73706920 		.ascii	"spi CS5\000"
 427      43533500 
ARM GAS  C:\Users\pc\AppData\Local\Temp\ccX7YgIM.s 			page 9


 428              	.LC5:
 429 0060 6675656C 		.ascii	"fuel pump relay\000"
 429      2070756D 
 429      70207265 
 429      6C617900 
 430              	.LC6:
 431 0070 6D61696E 		.ascii	"main relay\000"
 431      2072656C 
 431      617900
 432 007b 00       		.space	1
 433              	.LC7:
 434 007c 66616E20 		.ascii	"fan relay\000"
 434      72656C61 
 434      7900
 435 0086 0000     		.space	2
 436              	.LC8:
 437 0088 6F322068 		.ascii	"o2 heater\000"
 437      65617465 
 437      7200
 438 0092 0000     		.space	2
 439              	.LC9:
 440 0094 412F4320 		.ascii	"A/C relay\000"
 440      72656C61 
 440      7900
 441 009e 0000     		.space	2
 442              	.LC10:
 443 00a0 696F5F70 		.ascii	"io_pins\000"
 443      696E7300 
 444              		.section	.bss._ZL6logger,"aw",%nobits
 445              		.align	2
 446              		.set	.LANCHOR3,. + 0
 447              		.type	_ZL6logger, %object
 448              		.size	_ZL6logger, 260
 449              	_ZL6logger:
 450 0000 00000000 		.space	260
 450      00000000 
 450      00000000 
 450      00000000 
 450      00000000 
 451              		.ident	"GCC: (Sourcery CodeBench Lite 2013.11-24) 4.8.1"
ARM GAS  C:\Users\pc\AppData\Local\Temp\ccX7YgIM.s 			page 10


DEFINED SYMBOLS
                            *ABS*:00000000 io_pins.cpp
C:\Users\pc\AppData\Local\Temp\ccX7YgIM.s:17     .text._ZL20outputPinRegisterExtPKcP9OutputPinP12GPIO_TypeDefmP17pin_output_mode_e:00000000 $t
C:\Users\pc\AppData\Local\Temp\ccX7YgIM.s:22     .text._ZL20outputPinRegisterExtPKcP9OutputPinP12GPIO_TypeDefmP17pin_output_mode_e:00000000 _ZL20outputPinRegisterExtPKcP9OutputPinP12GPIO_TypeDefmP17pin_output_mode_e
C:\Users\pc\AppData\Local\Temp\ccX7YgIM.s:415    .rodata.str1.4:00000000 .LC0
C:\Users\pc\AppData\Local\Temp\ccX7YgIM.s:59     .text._Z9getHwPort11brain_pin_e:00000000 $t
C:\Users\pc\AppData\Local\Temp\ccX7YgIM.s:65     .text._Z9getHwPort11brain_pin_e:00000000 _Z9getHwPort11brain_pin_e
C:\Users\pc\AppData\Local\Temp\ccX7YgIM.s:394    .rodata._ZL5PORTS:00000000 .LANCHOR0
C:\Users\pc\AppData\Local\Temp\ccX7YgIM.s:418    .rodata.str1.4:0000001c .LC1
C:\Users\pc\AppData\Local\Temp\ccX7YgIM.s:89     .text._Z21outputPinRegisterExt2PKcP9OutputPin11brain_pin_eP17pin_output_mode_e.part.0:00000000 $t
C:\Users\pc\AppData\Local\Temp\ccX7YgIM.s:94     .text._Z21outputPinRegisterExt2PKcP9OutputPin11brain_pin_eP17pin_output_mode_e.part.0:00000000 _Z21outputPinRegisterExt2PKcP9OutputPin11brain_pin_eP17pin_output_mode_e.part.0
C:\Users\pc\AppData\Local\Temp\ccX7YgIM.s:131    .text._Z8getHwPin11brain_pin_e:00000000 $t
C:\Users\pc\AppData\Local\Temp\ccX7YgIM.s:137    .text._Z8getHwPin11brain_pin_e:00000000 _Z8getHwPin11brain_pin_e
C:\Users\pc\AppData\Local\Temp\ccX7YgIM.s:158    .text._Z21outputPinRegisterExt2PKcP9OutputPin11brain_pin_eP17pin_output_mode_e:00000000 $t
C:\Users\pc\AppData\Local\Temp\ccX7YgIM.s:164    .text._Z21outputPinRegisterExt2PKcP9OutputPin11brain_pin_eP17pin_output_mode_e:00000000 _Z21outputPinRegisterExt2PKcP9OutputPin11brain_pin_eP17pin_output_mode_e
C:\Users\pc\AppData\Local\Temp\ccX7YgIM.s:175    .text._Z17outputPinRegisterPKcP9OutputPinP12GPIO_TypeDefm:00000000 $t
C:\Users\pc\AppData\Local\Temp\ccX7YgIM.s:181    .text._Z17outputPinRegisterPKcP9OutputPinP12GPIO_TypeDefm:00000000 _Z17outputPinRegisterPKcP9OutputPinP12GPIO_TypeDefm
C:\Users\pc\AppData\Local\Temp\ccX7YgIM.s:408    .bss.DEFAULT_OUTPUT:00000000 .LANCHOR1
C:\Users\pc\AppData\Local\Temp\ccX7YgIM.s:195    .text._Z15initPrimaryPinsv:00000000 $t
C:\Users\pc\AppData\Local\Temp\ccX7YgIM.s:201    .text._Z15initPrimaryPinsv:00000000 _Z15initPrimaryPinsv
C:\Users\pc\AppData\Local\Temp\ccX7YgIM.s:420    .rodata.str1.4:00000034 .LC2
C:\Users\pc\AppData\Local\Temp\ccX7YgIM.s:222    .text._Z15initPrimaryPinsv:0000002c $d
C:\Users\pc\AppData\Local\Temp\ccX7YgIM.s:225    .text._Z14initOutputPinsv:00000000 $t
C:\Users\pc\AppData\Local\Temp\ccX7YgIM.s:231    .text._Z14initOutputPinsv:00000000 _Z14initOutputPinsv
C:\Users\pc\AppData\Local\Temp\ccX7YgIM.s:423    .rodata.str1.4:00000040 .LC3
C:\Users\pc\AppData\Local\Temp\ccX7YgIM.s:426    .rodata.str1.4:00000058 .LC4
C:\Users\pc\AppData\Local\Temp\ccX7YgIM.s:387    .bss._ZL7sdCsPin:00000000 .LANCHOR2
C:\Users\pc\AppData\Local\Temp\ccX7YgIM.s:428    .rodata.str1.4:00000060 .LC5
C:\Users\pc\AppData\Local\Temp\ccX7YgIM.s:430    .rodata.str1.4:00000070 .LC6
C:\Users\pc\AppData\Local\Temp\ccX7YgIM.s:433    .rodata.str1.4:0000007c .LC7
C:\Users\pc\AppData\Local\Temp\ccX7YgIM.s:436    .rodata.str1.4:00000088 .LC8
C:\Users\pc\AppData\Local\Temp\ccX7YgIM.s:439    .rodata.str1.4:00000094 .LC9
C:\Users\pc\AppData\Local\Temp\ccX7YgIM.s:320    .text._Z14initOutputPinsv:000000f8 $d
C:\Users\pc\AppData\Local\Temp\ccX7YgIM.s:326    .text._Z14turnAllPinsOffv:00000000 $t
C:\Users\pc\AppData\Local\Temp\ccX7YgIM.s:332    .text._Z14turnAllPinsOffv:00000000 _Z14turnAllPinsOffv
C:\Users\pc\AppData\Local\Temp\ccX7YgIM.s:358    .text._Z14turnAllPinsOffv:0000002c $d
C:\Users\pc\AppData\Local\Temp\ccX7YgIM.s:362    .text.startup._GLOBAL__sub_I_DEFAULT_OUTPUT:00000000 $t
C:\Users\pc\AppData\Local\Temp\ccX7YgIM.s:367    .text.startup._GLOBAL__sub_I_DEFAULT_OUTPUT:00000000 _GLOBAL__sub_I_DEFAULT_OUTPUT
C:\Users\pc\AppData\Local\Temp\ccX7YgIM.s:446    .bss._ZL6logger:00000000 .LANCHOR3
C:\Users\pc\AppData\Local\Temp\ccX7YgIM.s:442    .rodata.str1.4:000000a0 .LC10
C:\Users\pc\AppData\Local\Temp\ccX7YgIM.s:382    .init_array:00000000 $d
C:\Users\pc\AppData\Local\Temp\ccX7YgIM.s:411    .bss.DEFAULT_OUTPUT:00000000 DEFAULT_OUTPUT
C:\Users\pc\AppData\Local\Temp\ccX7YgIM.s:386    .bss._ZL7sdCsPin:00000000 $d
C:\Users\pc\AppData\Local\Temp\ccX7YgIM.s:390    .bss._ZL7sdCsPin:00000000 _ZL7sdCsPin
C:\Users\pc\AppData\Local\Temp\ccX7YgIM.s:393    .rodata._ZL5PORTS:00000000 $d
C:\Users\pc\AppData\Local\Temp\ccX7YgIM.s:397    .rodata._ZL5PORTS:00000000 _ZL5PORTS
C:\Users\pc\AppData\Local\Temp\ccX7YgIM.s:407    .bss.DEFAULT_OUTPUT:00000000 $d
C:\Users\pc\AppData\Local\Temp\ccX7YgIM.s:414    .rodata.str1.4:00000000 $d
C:\Users\pc\AppData\Local\Temp\ccX7YgIM.s:445    .bss._ZL6logger:00000000 $d
C:\Users\pc\AppData\Local\Temp\ccX7YgIM.s:449    .bss._ZL6logger:00000000 _ZL6logger
C:\Users\pc\AppData\Local\Temp\ccX7YgIM.s:325    .text._Z14initOutputPinsv:00000108 $t
C:\Users\pc\AppData\Local\Temp\ccX7YgIM.s:361    .text._Z14turnAllPinsOffv:00000034 $t

UNDEFINED SYMBOLS
_Z16initOutputPinExtPKcP9OutputPinP12GPIO_TypeDefmm
_ZN9OutputPin18setDefaultPinStateEP17pin_output_mode_e
firmwareError
ARM GAS  C:\Users\pc\AppData\Local\Temp\ccX7YgIM.s 			page 11


enginePins
boardConfiguration
checkEnginePin
_ZN9OutputPin8setValueEi
_ZN18LoggingWithStorageC1EPKc
_ZN9OutputPinC1Ev
