ARM GAS  C:\Users\pc\AppData\Local\Temp\ccjyQPoU.s 			page 1


   1              		.syntax unified
   2              		.cpu cortex-m4
   3              		.eabi_attribute 27, 3
   4              		.fpu fpv4-sp-d16
   5              		.eabi_attribute 20, 1
   6              		.eabi_attribute 21, 1
   7              		.eabi_attribute 23, 3
   8              		.eabi_attribute 24, 1
   9              		.eabi_attribute 25, 1
  10              		.eabi_attribute 26, 1
  11              		.eabi_attribute 30, 2
  12              		.eabi_attribute 34, 1
  13              		.eabi_attribute 18, 4
  14              		.thumb
  15              		.file	"joystick.cpp"
  16              		.section	.text._ZL12joystickInfov,"ax",%progbits
  17              		.align	2
  18              		.p2align 4,,15
  19              		.thumb
  20              		.thumb_func
  21              		.type	_ZL12joystickInfov, %function
  22              	_ZL12joystickInfov:
  23              		@ args = 0, pretend = 0, frame = 0
  24              		@ frame_needed = 0, uses_anonymous_args = 0
  25 0000 2DE9F041 		push	{r4, r5, r6, r7, r8, lr}
  26 0004 40F20005 		movw	r5, #:lower16:boardConfiguration
  27 0008 C0F20005 		movt	r5, #:upper16:boardConfiguration
  28 000c 40F20004 		movw	r4, #:lower16:.LANCHOR0
  29 0010 2968     		ldr	r1, [r5]
  30 0012 40F20002 		movw	r2, #:lower16:.LANCHOR1
  31 0016 40F20003 		movw	r3, #:lower16:.LANCHOR2
  32 001a C0F20004 		movt	r4, #:upper16:.LANCHOR0
  33 001e C0F20002 		movt	r2, #:upper16:.LANCHOR1
  34 0022 C0F20003 		movt	r3, #:upper16:.LANCHOR2
  35 0026 82B0     		sub	sp, sp, #8
  36 0028 D1F8FC02 		ldr	r0, [r1, #764]
  37 002c 2768     		ldr	r7, [r4]
  38 002e D2F80080 		ldr	r8, [r2]
  39 0032 1E68     		ldr	r6, [r3]
  40 0034 FFF7FEFF 		bl	_Z10hwPortname11brain_pin_e
  41 0038 40F20001 		movw	r1, #:lower16:.LC0
  42 003c 0090     		str	r0, [sp]
  43 003e 4246     		mov	r2, r8
  44 0040 3846     		mov	r0, r7
  45 0042 3346     		mov	r3, r6
  46 0044 C0F20001 		movt	r1, #:upper16:.LC0
  47 0048 FFF7FEFF 		bl	scheduleMsg
  48 004c 2A68     		ldr	r2, [r5]
  49 004e 2768     		ldr	r7, [r4]
  50 0050 D2F80003 		ldr	r0, [r2, #768]
  51 0054 40F20003 		movw	r3, #:lower16:.LANCHOR3
  52 0058 C0F20003 		movt	r3, #:upper16:.LANCHOR3
  53 005c 1E68     		ldr	r6, [r3]
  54 005e FFF7FEFF 		bl	_Z10hwPortname11brain_pin_e
  55 0062 40F20001 		movw	r1, #:lower16:.LC1
  56 0066 0346     		mov	r3, r0
  57 0068 3246     		mov	r2, r6
ARM GAS  C:\Users\pc\AppData\Local\Temp\ccjyQPoU.s 			page 2


  58 006a 3846     		mov	r0, r7
  59 006c C0F20001 		movt	r1, #:upper16:.LC1
  60 0070 FFF7FEFF 		bl	scheduleMsg
  61 0074 2A68     		ldr	r2, [r5]
  62 0076 2768     		ldr	r7, [r4]
  63 0078 D2F80403 		ldr	r0, [r2, #772]
  64 007c 40F20003 		movw	r3, #:lower16:.LANCHOR4
  65 0080 C0F20003 		movt	r3, #:upper16:.LANCHOR4
  66 0084 1E68     		ldr	r6, [r3]
  67 0086 FFF7FEFF 		bl	_Z10hwPortname11brain_pin_e
  68 008a 40F20001 		movw	r1, #:lower16:.LC2
  69 008e 0346     		mov	r3, r0
  70 0090 3246     		mov	r2, r6
  71 0092 3846     		mov	r0, r7
  72 0094 C0F20001 		movt	r1, #:upper16:.LC2
  73 0098 FFF7FEFF 		bl	scheduleMsg
  74 009c 2A68     		ldr	r2, [r5]
  75 009e 2768     		ldr	r7, [r4]
  76 00a0 D2F80803 		ldr	r0, [r2, #776]
  77 00a4 40F20003 		movw	r3, #:lower16:.LANCHOR5
  78 00a8 C0F20003 		movt	r3, #:upper16:.LANCHOR5
  79 00ac 1E68     		ldr	r6, [r3]
  80 00ae FFF7FEFF 		bl	_Z10hwPortname11brain_pin_e
  81 00b2 40F20001 		movw	r1, #:lower16:.LC3
  82 00b6 0346     		mov	r3, r0
  83 00b8 3246     		mov	r2, r6
  84 00ba 3846     		mov	r0, r7
  85 00bc C0F20001 		movt	r1, #:upper16:.LC3
  86 00c0 FFF7FEFF 		bl	scheduleMsg
  87 00c4 2A68     		ldr	r2, [r5]
  88 00c6 2568     		ldr	r5, [r4]
  89 00c8 D2F80C03 		ldr	r0, [r2, #780]
  90 00cc 40F20003 		movw	r3, #:lower16:.LANCHOR6
  91 00d0 C0F20003 		movt	r3, #:upper16:.LANCHOR6
  92 00d4 1C68     		ldr	r4, [r3]
  93 00d6 FFF7FEFF 		bl	_Z10hwPortname11brain_pin_e
  94 00da 40F20001 		movw	r1, #:lower16:.LC4
  95 00de 0346     		mov	r3, r0
  96 00e0 2246     		mov	r2, r4
  97 00e2 2846     		mov	r0, r5
  98 00e4 C0F20001 		movt	r1, #:upper16:.LC4
  99 00e8 02B0     		add	sp, sp, #8
 100              		@ sp needed
 101 00ea BDE8F041 		pop	{r4, r5, r6, r7, r8, lr}
 102 00ee FFF7FEBF 		b	scheduleMsg
 103              		.size	_ZL12joystickInfov, .-_ZL12joystickInfov
 104 00f2 00BFAFF3 		.section	.text._ZL11extCallbackP9EXTDriverm,"ax",%progbits
 104      0080AFF3 
 104      0080AFF3 
 104      0080
 105              		.align	2
 106              		.p2align 4,,15
 107              		.thumb
 108              		.thumb_func
 109              		.type	_ZL11extCallbackP9EXTDriverm, %function
 110              	_ZL11extCallbackP9EXTDriverm:
 111              		@ args = 0, pretend = 0, frame = 0
ARM GAS  C:\Users\pc\AppData\Local\Temp\ccjyQPoU.s 			page 3


 112              		@ frame_needed = 0, uses_anonymous_args = 0
 113 0000 F8B5     		push	{r3, r4, r5, r6, r7, lr}
 114 0002 0C46     		mov	r4, r1
 115 0004 FFF7FEFF 		bl	getTimeNowNt
 116 0008 40F20005 		movw	r5, #:lower16:.LANCHOR7
 117 000c C0F20005 		movt	r5, #:upper16:.LANCHOR7
 118 0010 0246     		mov	r2, r0
 119 0012 0B46     		mov	r3, r1
 120 0014 D5E90001 		ldrd	r0, [r5]
 121 0018 49F23F06 		movw	r6, #36927
 122 001c C0F20206 		movt	r6, 2
 123 0020 0027     		movs	r7, #0
 124 0022 101A     		subs	r0, r2, r0
 125 0024 63EB0101 		sbc	r1, r3, r1
 126 0028 8F42     		cmp	r7, r1
 127 002a 08BF     		it eq
 128 002c 8642     		cmpeq	r6, r0
 129 002e 00D3     		bcc	.L12
 130              	.L2:
 131 0030 F8BD     		pop	{r3, r4, r5, r6, r7, pc}
 132              	.L12:
 133 0032 40F20001 		movw	r1, #:lower16:.LANCHOR1
 134 0036 40F20006 		movw	r6, #:lower16:boardConfiguration
 135 003a C0F20001 		movt	r1, #:upper16:.LANCHOR1
 136 003e C0F20006 		movt	r6, #:upper16:boardConfiguration
 137 0042 0F68     		ldr	r7, [r1]
 138 0044 3068     		ldr	r0, [r6]
 139 0046 0137     		adds	r7, r7, #1
 140 0048 D0F8FC02 		ldr	r0, [r0, #764]
 141 004c 0F60     		str	r7, [r1]
 142 004e C5E90023 		strd	r2, [r5]
 143 0052 FFF7FEFF 		bl	_Z8getHwPin11brain_pin_e
 144 0056 A042     		cmp	r0, r4
 145 0058 12D0     		beq	.L13
 146 005a 3368     		ldr	r3, [r6]
 147 005c D3F80003 		ldr	r0, [r3, #768]
 148 0060 FFF7FEFF 		bl	_Z8getHwPin11brain_pin_e
 149 0064 8442     		cmp	r4, r0
 150 0066 17D1     		bne	.L7
 151 0068 40F20003 		movw	r3, #:lower16:.LANCHOR3
 152 006c C0F20003 		movt	r3, #:upper16:.LANCHOR3
 153 0070 0120     		movs	r0, #1
 154 0072 1A68     		ldr	r2, [r3]
 155 0074 0244     		add	r2, r2, r0
 156 0076 1A60     		str	r2, [r3]
 157              	.L6:
 158 0078 BDE8F840 		pop	{r3, r4, r5, r6, r7, lr}
 159 007c FFF7FEBF 		b	_Z10onJoystick17joystick_button_e
 160              	.L13:
 161 0080 40F20003 		movw	r3, #:lower16:.LANCHOR2
 162 0084 C0F20003 		movt	r3, #:upper16:.LANCHOR2
 163 0088 0020     		movs	r0, #0
 164 008a 1A68     		ldr	r2, [r3]
 165 008c 0132     		adds	r2, r2, #1
 166 008e 1A60     		str	r2, [r3]
 167 0090 BDE8F840 		pop	{r3, r4, r5, r6, r7, lr}
 168 0094 FFF7FEBF 		b	_Z10onJoystick17joystick_button_e
ARM GAS  C:\Users\pc\AppData\Local\Temp\ccjyQPoU.s 			page 4


 169              	.L7:
 170 0098 3368     		ldr	r3, [r6]
 171 009a D3F80403 		ldr	r0, [r3, #772]
 172 009e FFF7FEFF 		bl	_Z8getHwPin11brain_pin_e
 173 00a2 8442     		cmp	r4, r0
 174 00a4 1FD0     		beq	.L14
 175 00a6 3368     		ldr	r3, [r6]
 176 00a8 D3F80803 		ldr	r0, [r3, #776]
 177 00ac FFF7FEFF 		bl	_Z8getHwPin11brain_pin_e
 178 00b0 8442     		cmp	r4, r0
 179 00b2 0FD0     		beq	.L15
 180 00b4 3368     		ldr	r3, [r6]
 181 00b6 D3F80C03 		ldr	r0, [r3, #780]
 182 00ba FFF7FEFF 		bl	_Z8getHwPin11brain_pin_e
 183 00be 8442     		cmp	r4, r0
 184 00c0 B6D1     		bne	.L2
 185 00c2 40F20003 		movw	r3, #:lower16:.LANCHOR6
 186 00c6 C0F20003 		movt	r3, #:upper16:.LANCHOR6
 187 00ca 0420     		movs	r0, #4
 188 00cc 1A68     		ldr	r2, [r3]
 189 00ce 0132     		adds	r2, r2, #1
 190 00d0 1A60     		str	r2, [r3]
 191 00d2 D1E7     		b	.L6
 192              	.L15:
 193 00d4 40F20003 		movw	r3, #:lower16:.LANCHOR5
 194 00d8 C0F20003 		movt	r3, #:upper16:.LANCHOR5
 195 00dc 0220     		movs	r0, #2
 196 00de 1A68     		ldr	r2, [r3]
 197 00e0 0132     		adds	r2, r2, #1
 198 00e2 1A60     		str	r2, [r3]
 199 00e4 C8E7     		b	.L6
 200              	.L14:
 201 00e6 40F20003 		movw	r3, #:lower16:.LANCHOR4
 202 00ea C0F20003 		movt	r3, #:upper16:.LANCHOR4
 203 00ee 0320     		movs	r0, #3
 204 00f0 1A68     		ldr	r2, [r3]
 205 00f2 0132     		adds	r2, r2, #1
 206 00f4 1A60     		str	r2, [r3]
 207 00f6 BFE7     		b	.L6
 208              		.size	_ZL11extCallbackP9EXTDriverm, .-_ZL11extCallbackP9EXTDriverm
 209 00f8 AFF30080 		.section	.text._ZL8applyPin11brain_pin_e.part.0,"ax",%progbits
 209      AFF30080 
 210              		.align	2
 211              		.p2align 4,,15
 212              		.thumb
 213              		.thumb_func
 214              		.type	_ZL8applyPin11brain_pin_e.part.0, %function
 215              	_ZL8applyPin11brain_pin_e.part.0:
 216              		@ args = 0, pretend = 0, frame = 0
 217              		@ frame_needed = 0, uses_anonymous_args = 0
 218 0000 38B5     		push	{r3, r4, r5, lr}
 219 0002 0546     		mov	r5, r0
 220 0004 FFF7FEFF 		bl	_Z8getHwPin11brain_pin_e
 221 0008 0446     		mov	r4, r0
 222 000a 2846     		mov	r0, r5
 223 000c FFF7FEFF 		bl	_Z9getHwPort11brain_pin_e
 224 0010 0023     		movs	r3, #0
ARM GAS  C:\Users\pc\AppData\Local\Temp\ccjyQPoU.s 			page 5


 225 0012 C4F20203 		movt	r3, 16386
 226 0016 9842     		cmp	r0, r3
 227 0018 0146     		mov	r1, r0
 228 001a 3CD0     		beq	.L18
 229 001c 4FF48063 		mov	r3, #1024
 230 0020 C4F20203 		movt	r3, 16386
 231 0024 9842     		cmp	r0, r3
 232 0026 08BF     		it	eq
 233 0028 1520     		moveq	r0, #21
 234 002a 26D0     		beq	.L17
 235 002c 4FF40063 		mov	r3, #2048
 236 0030 C4F20203 		movt	r3, 16386
 237 0034 9942     		cmp	r1, r3
 238 0036 08BF     		it	eq
 239 0038 2520     		moveq	r0, #37
 240 003a 1ED0     		beq	.L17
 241 003c 4FF44063 		mov	r3, #3072
 242 0040 C4F20203 		movt	r3, 16386
 243 0044 9942     		cmp	r1, r3
 244 0046 08BF     		it	eq
 245 0048 3520     		moveq	r0, #53
 246 004a 16D0     		beq	.L17
 247 004c 4FF48053 		mov	r3, #4096
 248 0050 C4F20203 		movt	r3, 16386
 249 0054 9942     		cmp	r1, r3
 250 0056 08BF     		it	eq
 251 0058 4520     		moveq	r0, #69
 252 005a 0ED0     		beq	.L17
 253 005c 4FF4A053 		mov	r3, #5120
 254 0060 C4F20203 		movt	r3, 16386
 255 0064 9942     		cmp	r1, r3
 256 0066 08BF     		it	eq
 257 0068 5520     		moveq	r0, #85
 258 006a 06D0     		beq	.L17
 259 006c 40F20000 		movw	r0, #:lower16:.LC5
 260 0070 C0F20000 		movt	r0, #:upper16:.LC5
 261 0074 FFF7FEFF 		bl	firmwareError
 262 0078 0520     		movs	r0, #5
 263              	.L17:
 264 007a 40F20003 		movw	r3, #:lower16:.LANCHOR8
 265 007e C0F20003 		movt	r3, #:upper16:.LANCHOR8
 266 0082 03EBC401 		add	r1, r3, r4, lsl #3
 267 0086 40F20002 		movw	r2, #:lower16:_ZL11extCallbackP9EXTDriverm
 268 008a C0F20002 		movt	r2, #:upper16:_ZL11extCallbackP9EXTDriverm
 269 008e 43F83400 		str	r0, [r3, r4, lsl #3]
 270 0092 4A60     		str	r2, [r1, #4]
 271 0094 38BD     		pop	{r3, r4, r5, pc}
 272              	.L18:
 273 0096 0520     		movs	r0, #5
 274 0098 EFE7     		b	.L17
 275              		.size	_ZL8applyPin11brain_pin_e.part.0, .-_ZL8applyPin11brain_pin_e.part.0
 276 009a 00BFAFF3 		.section	.text._Z12initJoystickP7Logging,"ax",%progbits
 276      0080
 277              		.align	2
 278              		.p2align 4,,15
 279              		.global	_Z12initJoystickP7Logging
 280              		.thumb
ARM GAS  C:\Users\pc\AppData\Local\Temp\ccjyQPoU.s 			page 6


 281              		.thumb_func
 282              		.type	_Z12initJoystickP7Logging, %function
 283              	_Z12initJoystickP7Logging:
 284              		@ args = 0, pretend = 0, frame = 0
 285              		@ frame_needed = 0, uses_anonymous_args = 0
 286 0000 10B5     		push	{r4, lr}
 287 0002 40F20003 		movw	r3, #:lower16:engineConfiguration
 288 0006 C0F20003 		movt	r3, #:upper16:engineConfiguration
 289 000a 1B68     		ldr	r3, [r3]
 290 000c 93F8D935 		ldrb	r3, [r3, #1497]	@ zero_extendqisi2
 291 0010 1B07     		lsls	r3, r3, #28
 292 0012 74D5     		bpl	.L24
 293 0014 40F20004 		movw	r4, #:lower16:boardConfiguration
 294 0018 C0F20004 		movt	r4, #:upper16:boardConfiguration
 295 001c 40F20002 		movw	r2, #:lower16:.LANCHOR0
 296 0020 2368     		ldr	r3, [r4]
 297 0022 D3F8FC12 		ldr	r1, [r3, #764]
 298 0026 C0F20002 		movt	r2, #:upper16:.LANCHOR0
 299 002a 5029     		cmp	r1, #80
 300 002c 1060     		str	r0, [r2]
 301 002e 03D0     		beq	.L26
 302 0030 0846     		mov	r0, r1
 303 0032 FFF7FEFF 		bl	_ZL8applyPin11brain_pin_e.part.0
 304 0036 2368     		ldr	r3, [r4]
 305              	.L26:
 306 0038 D3F80003 		ldr	r0, [r3, #768]
 307 003c 5028     		cmp	r0, #80
 308 003e 02D0     		beq	.L27
 309 0040 FFF7FEFF 		bl	_ZL8applyPin11brain_pin_e.part.0
 310 0044 2368     		ldr	r3, [r4]
 311              	.L27:
 312 0046 D3F80403 		ldr	r0, [r3, #772]
 313 004a 5028     		cmp	r0, #80
 314 004c 02D0     		beq	.L28
 315 004e FFF7FEFF 		bl	_ZL8applyPin11brain_pin_e.part.0
 316 0052 2368     		ldr	r3, [r4]
 317              	.L28:
 318 0054 D3F80803 		ldr	r0, [r3, #776]
 319 0058 5028     		cmp	r0, #80
 320 005a 02D0     		beq	.L29
 321 005c FFF7FEFF 		bl	_ZL8applyPin11brain_pin_e.part.0
 322 0060 2368     		ldr	r3, [r4]
 323              	.L29:
 324 0062 D3F80C03 		ldr	r0, [r3, #780]
 325 0066 5028     		cmp	r0, #80
 326 0068 02D0     		beq	.L30
 327 006a FFF7FEFF 		bl	_ZL8applyPin11brain_pin_e.part.0
 328 006e 2368     		ldr	r3, [r4]
 329              	.L30:
 330 0070 40F20000 		movw	r0, #:lower16:.LC6
 331 0074 D3F8FC12 		ldr	r1, [r3, #764]
 332 0078 C0F20000 		movt	r0, #:upper16:.LC6
 333 007c 2022     		movs	r2, #32
 334 007e FFF7FEFF 		bl	_Z13mySetPadMode2PKc11brain_pin_em
 335 0082 2368     		ldr	r3, [r4]
 336 0084 40F20000 		movw	r0, #:lower16:.LC7
 337 0088 D3F80013 		ldr	r1, [r3, #768]
ARM GAS  C:\Users\pc\AppData\Local\Temp\ccjyQPoU.s 			page 7


 338 008c C0F20000 		movt	r0, #:upper16:.LC7
 339 0090 2022     		movs	r2, #32
 340 0092 FFF7FEFF 		bl	_Z13mySetPadMode2PKc11brain_pin_em
 341 0096 2368     		ldr	r3, [r4]
 342 0098 40F20000 		movw	r0, #:lower16:.LC8
 343 009c D3F80413 		ldr	r1, [r3, #772]
 344 00a0 C0F20000 		movt	r0, #:upper16:.LC8
 345 00a4 2022     		movs	r2, #32
 346 00a6 FFF7FEFF 		bl	_Z13mySetPadMode2PKc11brain_pin_em
 347 00aa 2368     		ldr	r3, [r4]
 348 00ac 40F20000 		movw	r0, #:lower16:.LC9
 349 00b0 D3F80813 		ldr	r1, [r3, #776]
 350 00b4 C0F20000 		movt	r0, #:upper16:.LC9
 351 00b8 2022     		movs	r2, #32
 352 00ba FFF7FEFF 		bl	_Z13mySetPadMode2PKc11brain_pin_em
 353 00be 2368     		ldr	r3, [r4]
 354 00c0 40F20000 		movw	r0, #:lower16:.LC10
 355 00c4 D3F80C13 		ldr	r1, [r3, #780]
 356 00c8 C0F20000 		movt	r0, #:upper16:.LC10
 357 00cc 2022     		movs	r2, #32
 358 00ce FFF7FEFF 		bl	_Z13mySetPadMode2PKc11brain_pin_em
 359 00d2 40F20000 		movw	r0, #:lower16:.LC11
 360 00d6 40F20001 		movw	r1, #:lower16:_ZL12joystickInfov
 361 00da C0F20000 		movt	r0, #:upper16:.LC11
 362 00de C0F20001 		movt	r1, #:upper16:_ZL12joystickInfov
 363 00e2 FFF7FEFF 		bl	addConsoleAction
 364 00e6 40F20000 		movw	r0, #:lower16:EXTD1
 365 00ea 40F20001 		movw	r1, #:lower16:.LANCHOR8
 366 00ee C0F20000 		movt	r0, #:upper16:EXTD1
 367 00f2 C0F20001 		movt	r1, #:upper16:.LANCHOR8
 368 00f6 BDE81040 		pop	{r4, lr}
 369 00fa FFF7FEBF 		b	extStart
 370              	.L24:
 371 00fe 10BD     		pop	{r4, pc}
 372              		.size	_Z12initJoystickP7Logging, .-_Z12initJoystickP7Logging
 373              		.section	.bss._ZL13lastEventTime,"aw",%nobits
 374              		.align	3
 375              		.set	.LANCHOR7,. + 0
 376              		.type	_ZL13lastEventTime, %object
 377              		.size	_ZL13lastEventTime, 8
 378              	_ZL13lastEventTime:
 379 0000 00000000 		.space	8
 379      00000000 
 380              		.section	.bss._ZL12sharedLogger,"aw",%nobits
 381              		.align	2
 382              		.set	.LANCHOR0,. + 0
 383              		.type	_ZL12sharedLogger, %object
 384              		.size	_ZL12sharedLogger, 4
 385              	_ZL12sharedLogger:
 386 0000 00000000 		.space	4
 387              		.section	.bss._ZL8joyTotal,"aw",%nobits
 388              		.align	2
 389              		.set	.LANCHOR1,. + 0
 390              		.type	_ZL8joyTotal, %object
 391              		.size	_ZL8joyTotal, 4
 392              	_ZL8joyTotal:
 393 0000 00000000 		.space	4
ARM GAS  C:\Users\pc\AppData\Local\Temp\ccjyQPoU.s 			page 8


 394              		.section	.bss._ZL6extcfg,"aw",%nobits
 395              		.align	2
 396              		.set	.LANCHOR8,. + 0
 397              		.type	_ZL6extcfg, %object
 398              		.size	_ZL6extcfg, 184
 399              	_ZL6extcfg:
 400 0000 00000000 		.space	184
 400      00000000 
 400      00000000 
 400      00000000 
 400      00000000 
 401              		.section	.rodata.str1.4,"aMS",%progbits,1
 402              		.align	2
 403              	.LC0:
 404 0000 746F7461 		.ascii	"total %d center=%d@%s\000"
 404      6C202564 
 404      2063656E 
 404      7465723D 
 404      25644025 
 405 0016 0000     		.space	2
 406              	.LC1:
 407 0018 613D2564 		.ascii	"a=%d@%s\000"
 407      40257300 
 408              	.LC2:
 409 0020 623D2564 		.ascii	"b=%d@%s\000"
 409      40257300 
 410              	.LC3:
 411 0028 633D2564 		.ascii	"c=%d@%s\000"
 411      40257300 
 412              	.LC4:
 413 0030 643D2564 		.ascii	"d=%d@%s\000"
 413      40257300 
 414              	.LC5:
 415 0038 556E7375 		.ascii	"Unsupported %d\000"
 415      70706F72 
 415      74656420 
 415      256400
 416 0047 00       		.space	1
 417              	.LC6:
 418 0048 6A6F7920 		.ascii	"joy center\000"
 418      63656E74 
 418      657200
 419 0053 00       		.space	1
 420              	.LC7:
 421 0054 6A6F7920 		.ascii	"joy A\000"
 421      4100
 422 005a 0000     		.space	2
 423              	.LC8:
 424 005c 6A6F7920 		.ascii	"joy B\000"
 424      4200
 425 0062 0000     		.space	2
 426              	.LC9:
 427 0064 6A6F7920 		.ascii	"joy C\000"
 427      4300
 428 006a 0000     		.space	2
 429              	.LC10:
 430 006c 6A6F7920 		.ascii	"joy D\000"
ARM GAS  C:\Users\pc\AppData\Local\Temp\ccjyQPoU.s 			page 9


 430      4400
 431 0072 0000     		.space	2
 432              	.LC11:
 433 0074 6A6F7973 		.ascii	"joystickinfo\000"
 433      7469636B 
 433      696E666F 
 433      00
 434 0081 000000   		.section	.bss._ZL4joyB,"aw",%nobits
 435              		.align	2
 436              		.set	.LANCHOR4,. + 0
 437              		.type	_ZL4joyB, %object
 438              		.size	_ZL4joyB, 4
 439              	_ZL4joyB:
 440 0000 00000000 		.space	4
 441              		.section	.bss._ZL4joyC,"aw",%nobits
 442              		.align	2
 443              		.set	.LANCHOR5,. + 0
 444              		.type	_ZL4joyC, %object
 445              		.size	_ZL4joyC, 4
 446              	_ZL4joyC:
 447 0000 00000000 		.space	4
 448              		.section	.bss._ZL4joyA,"aw",%nobits
 449              		.align	2
 450              		.set	.LANCHOR3,. + 0
 451              		.type	_ZL4joyA, %object
 452              		.size	_ZL4joyA, 4
 453              	_ZL4joyA:
 454 0000 00000000 		.space	4
 455              		.section	.bss._ZL4joyD,"aw",%nobits
 456              		.align	2
 457              		.set	.LANCHOR6,. + 0
 458              		.type	_ZL4joyD, %object
 459              		.size	_ZL4joyD, 4
 460              	_ZL4joyD:
 461 0000 00000000 		.space	4
 462              		.section	.bss._ZL9joyCenter,"aw",%nobits
 463              		.align	2
 464              		.set	.LANCHOR2,. + 0
 465              		.type	_ZL9joyCenter, %object
 466              		.size	_ZL9joyCenter, 4
 467              	_ZL9joyCenter:
 468 0000 00000000 		.space	4
 469              		.ident	"GCC: (Sourcery CodeBench Lite 2013.11-24) 4.8.1"
ARM GAS  C:\Users\pc\AppData\Local\Temp\ccjyQPoU.s 			page 10

