ARM GAS  C:\Users\pc\AppData\Local\Temp\ccAzmG9M.s 			page 1


   1              		.syntax unified
   2              		.cpu cortex-m4
   3              		.eabi_attribute 27, 3
   4              		.fpu fpv4-sp-d16
   5              		.eabi_attribute 20, 1
   6              		.eabi_attribute 21, 1
   7              		.eabi_attribute 23, 3
   8              		.eabi_attribute 24, 1
   9              		.eabi_attribute 25, 1
  10              		.eabi_attribute 26, 1
  11              		.eabi_attribute 30, 2
  12              		.eabi_attribute 34, 1
  13              		.eabi_attribute 18, 4
  14              		.thumb
  15              		.file	"listener_array.cpp"
  16              		.section	.text._ZN16IntListenerArrayC2Ev,"ax",%progbits
  17              		.align	2
  18              		.p2align 4,,15
  19              		.global	_ZN16IntListenerArrayC2Ev
  20              		.thumb
  21              		.thumb_func
  22              		.type	_ZN16IntListenerArrayC2Ev, %function
  23              	_ZN16IntListenerArrayC2Ev:
  24              		@ args = 0, pretend = 0, frame = 0
  25              		@ frame_needed = 0, uses_anonymous_args = 0
  26 0000 70B5     		push	{r4, r5, r6, lr}
  27 0002 0025     		movs	r5, #0
  28 0004 3C26     		movs	r6, #60
  29 0006 0446     		mov	r4, r0
  30 0008 2946     		mov	r1, r5
  31 000a 3246     		mov	r2, r6
  32 000c 40F8405B 		str	r5, [r0], #64
  33 0010 FFF7FEFF 		bl	memset
  34 0014 2946     		mov	r1, r5
  35 0016 3246     		mov	r2, r6
  36 0018 201D     		adds	r0, r4, #4
  37 001a FFF7FEFF 		bl	memset
  38 001e 2046     		mov	r0, r4
  39 0020 70BD     		pop	{r4, r5, r6, pc}
  40              		.size	_ZN16IntListenerArrayC2Ev, .-_ZN16IntListenerArrayC2Ev
  41              		.global	_ZN16IntListenerArrayC1Ev
  42              		.thumb_set _ZN16IntListenerArrayC1Ev,_ZN16IntListenerArrayC2Ev
  43 0022 00BFAFF3 		.section	.text._ZN16IntListenerArray16registerCallbackEPFviEPv,"ax",%progbits
  43      0080AFF3 
  43      0080AFF3 
  43      0080
  44              		.align	2
  45              		.p2align 4,,15
  46              		.global	_ZN16IntListenerArray16registerCallbackEPFviEPv
  47              		.thumb
  48              		.thumb_func
  49              		.type	_ZN16IntListenerArray16registerCallbackEPFviEPv, %function
  50              	_ZN16IntListenerArray16registerCallbackEPFviEPv:
  51              		@ args = 0, pretend = 0, frame = 0
  52              		@ frame_needed = 0, uses_anonymous_args = 0
  53              		@ link register save eliminated.
  54 0000 0368     		ldr	r3, [r0]
ARM GAS  C:\Users\pc\AppData\Local\Temp\ccAzmG9M.s 			page 2


  55 0002 0E2B     		cmp	r3, #14
  56 0004 10B4     		push	{r4}
  57 0006 08DC     		bgt	.L5
  58 0008 00EB8304 		add	r4, r0, r3, lsl #2
  59 000c 0133     		adds	r3, r3, #1
  60 000e 0360     		str	r3, [r0]
  61 0010 6160     		str	r1, [r4, #4]
  62 0012 2264     		str	r2, [r4, #64]
  63 0014 5DF8044B 		ldr	r4, [sp], #4
  64 0018 7047     		bx	lr
  65              	.L5:
  66 001a 40F20000 		movw	r0, #:lower16:.LC0
  67 001e C0F20000 		movt	r0, #:upper16:.LC0
  68 0022 5DF8044B 		ldr	r4, [sp], #4
  69 0026 FFF7FEBF 		b	firmwareError
  70              		.size	_ZN16IntListenerArray16registerCallbackEPFviEPv, .-_ZN16IntListenerArray16registerCallbackEP
  71 002a 00BFAFF3 		.section	.text._ZN16IntListenerArray16registerCallbackEPFvvE,"ax",%progbits
  71      0080
  72              		.align	2
  73              		.p2align 4,,15
  74              		.global	_ZN16IntListenerArray16registerCallbackEPFvvE
  75              		.thumb
  76              		.thumb_func
  77              		.type	_ZN16IntListenerArray16registerCallbackEPFvvE, %function
  78              	_ZN16IntListenerArray16registerCallbackEPFvvE:
  79              		@ args = 0, pretend = 0, frame = 0
  80              		@ frame_needed = 0, uses_anonymous_args = 0
  81              		@ link register save eliminated.
  82 0000 0368     		ldr	r3, [r0]
  83 0002 0E2B     		cmp	r3, #14
  84 0004 10B4     		push	{r4}
  85 0006 09DC     		bgt	.L8
  86 0008 00EB8302 		add	r2, r0, r3, lsl #2
  87 000c 0024     		movs	r4, #0
  88 000e 0133     		adds	r3, r3, #1
  89 0010 0360     		str	r3, [r0]
  90 0012 1464     		str	r4, [r2, #64]
  91 0014 5160     		str	r1, [r2, #4]
  92 0016 5DF8044B 		ldr	r4, [sp], #4
  93 001a 7047     		bx	lr
  94              	.L8:
  95 001c 40F20000 		movw	r0, #:lower16:.LC0
  96 0020 C0F20000 		movt	r0, #:upper16:.LC0
  97 0024 5DF8044B 		ldr	r4, [sp], #4
  98 0028 FFF7FEBF 		b	firmwareError
  99              		.size	_ZN16IntListenerArray16registerCallbackEPFvvE, .-_ZN16IntListenerArray16registerCallbackEPFv
 100 002c AFF30080 		.section	.text._Z15invokeCallbacksP16IntListenerArrayi,"ax",%progbits
 101              		.align	2
 102              		.p2align 4,,15
 103              		.global	_Z15invokeCallbacksP16IntListenerArrayi
 104              		.thumb
 105              		.thumb_func
 106              		.type	_Z15invokeCallbacksP16IntListenerArrayi, %function
 107              	_Z15invokeCallbacksP16IntListenerArrayi:
 108              		@ args = 0, pretend = 0, frame = 0
 109              		@ frame_needed = 0, uses_anonymous_args = 0
 110 0000 F8B5     		push	{r3, r4, r5, r6, r7, lr}
ARM GAS  C:\Users\pc\AppData\Local\Temp\ccAzmG9M.s 			page 3


 111 0002 0368     		ldr	r3, [r0]
 112 0004 002B     		cmp	r3, #0
 113 0006 0646     		mov	r6, r0
 114 0008 0F46     		mov	r7, r1
 115 000a 09DD     		ble	.L9
 116 000c 051F     		subs	r5, r0, #4
 117 000e 0024     		movs	r4, #0
 118              	.L12:
 119 0010 0435     		adds	r5, r5, #4
 120 0012 3846     		mov	r0, r7
 121 0014 6B68     		ldr	r3, [r5, #4]
 122 0016 9847     		blx	r3
 123 0018 3368     		ldr	r3, [r6]
 124 001a 0134     		adds	r4, r4, #1
 125 001c A342     		cmp	r3, r4
 126 001e F7DC     		bgt	.L12
 127              	.L9:
 128 0020 F8BD     		pop	{r3, r4, r5, r6, r7, pc}
 129              		.size	_Z15invokeCallbacksP16IntListenerArrayi, .-_Z15invokeCallbacksP16IntListenerArrayi
 130 0022 00BFAFF3 		.section	.text._ZN16IntListenerArray22invokeJustArgCallbacksEv,"ax",%progbits
 130      0080AFF3 
 130      0080AFF3 
 130      0080
 131              		.align	2
 132              		.p2align 4,,15
 133              		.global	_ZN16IntListenerArray22invokeJustArgCallbacksEv
 134              		.thumb
 135              		.thumb_func
 136              		.type	_ZN16IntListenerArray22invokeJustArgCallbacksEv, %function
 137              	_ZN16IntListenerArray22invokeJustArgCallbacksEv:
 138              		@ args = 0, pretend = 0, frame = 0
 139              		@ frame_needed = 0, uses_anonymous_args = 0
 140 0000 0368     		ldr	r3, [r0]
 141 0002 002B     		cmp	r3, #0
 142 0004 70B5     		push	{r4, r5, r6, lr}
 143 0006 0646     		mov	r6, r0
 144 0008 09DD     		ble	.L13
 145 000a 041F     		subs	r4, r0, #4
 146 000c 0025     		movs	r5, #0
 147              	.L16:
 148 000e 0434     		adds	r4, r4, #4
 149 0010 6368     		ldr	r3, [r4, #4]
 150 0012 206C     		ldr	r0, [r4, #64]
 151 0014 9847     		blx	r3
 152 0016 3368     		ldr	r3, [r6]
 153 0018 0135     		adds	r5, r5, #1
 154 001a AB42     		cmp	r3, r5
 155 001c F7DC     		bgt	.L16
 156              	.L13:
 157 001e 70BD     		pop	{r4, r5, r6, pc}
 158              		.size	_ZN16IntListenerArray22invokeJustArgCallbacksEv, .-_ZN16IntListenerArray22invokeJustArgCallb
 159              		.section	.text._Z21invokeArgIntCallbacksP16IntListenerArrayi,"ax",%progbits
 160              		.align	2
 161              		.p2align 4,,15
 162              		.global	_Z21invokeArgIntCallbacksP16IntListenerArrayi
 163              		.thumb
 164              		.thumb_func
ARM GAS  C:\Users\pc\AppData\Local\Temp\ccAzmG9M.s 			page 4


 165              		.type	_Z21invokeArgIntCallbacksP16IntListenerArrayi, %function
 166              	_Z21invokeArgIntCallbacksP16IntListenerArrayi:
 167              		@ args = 0, pretend = 0, frame = 0
 168              		@ frame_needed = 0, uses_anonymous_args = 0
 169 0000 F8B5     		push	{r3, r4, r5, r6, r7, lr}
 170 0002 0368     		ldr	r3, [r0]
 171 0004 002B     		cmp	r3, #0
 172 0006 0646     		mov	r6, r0
 173 0008 0F46     		mov	r7, r1
 174 000a 0ADD     		ble	.L17
 175 000c 041F     		subs	r4, r0, #4
 176 000e 0025     		movs	r5, #0
 177              	.L20:
 178 0010 0434     		adds	r4, r4, #4
 179 0012 3946     		mov	r1, r7
 180 0014 6368     		ldr	r3, [r4, #4]
 181 0016 206C     		ldr	r0, [r4, #64]
 182 0018 9847     		blx	r3
 183 001a 3368     		ldr	r3, [r6]
 184 001c 0135     		adds	r5, r5, #1
 185 001e AB42     		cmp	r3, r5
 186 0020 F6DC     		bgt	.L20
 187              	.L17:
 188 0022 F8BD     		pop	{r3, r4, r5, r6, r7, pc}
 189              		.size	_Z21invokeArgIntCallbacksP16IntListenerArrayi, .-_Z21invokeArgIntCallbacksP16IntListenerArra
 190 0024 AFF30080 		.section	.text._Z21invokeIntIntCallbacksP16IntListenerArrayii,"ax",%progbits
 190      AFF30080 
 190      AFF30080 
 191              		.align	2
 192              		.p2align 4,,15
 193              		.global	_Z21invokeIntIntCallbacksP16IntListenerArrayii
 194              		.thumb
 195              		.thumb_func
 196              		.type	_Z21invokeIntIntCallbacksP16IntListenerArrayii, %function
 197              	_Z21invokeIntIntCallbacksP16IntListenerArrayii:
 198              		@ args = 0, pretend = 0, frame = 0
 199              		@ frame_needed = 0, uses_anonymous_args = 0
 200 0000 0368     		ldr	r3, [r0]
 201 0002 002B     		cmp	r3, #0
 202 0004 2DE9F041 		push	{r4, r5, r6, r7, r8, lr}
 203 0008 0646     		mov	r6, r0
 204 000a 0F46     		mov	r7, r1
 205 000c 9046     		mov	r8, r2
 206 000e 0ADD     		ble	.L21
 207 0010 051F     		subs	r5, r0, #4
 208 0012 0024     		movs	r4, #0
 209              	.L24:
 210 0014 0435     		adds	r5, r5, #4
 211 0016 3846     		mov	r0, r7
 212 0018 6B68     		ldr	r3, [r5, #4]
 213 001a 4146     		mov	r1, r8
 214 001c 9847     		blx	r3
 215 001e 3368     		ldr	r3, [r6]
 216 0020 0134     		adds	r4, r4, #1
 217 0022 A342     		cmp	r3, r4
 218 0024 F6DC     		bgt	.L24
 219              	.L21:
ARM GAS  C:\Users\pc\AppData\Local\Temp\ccAzmG9M.s 			page 5


 220 0026 BDE8F081 		pop	{r4, r5, r6, r7, r8, pc}
 221              		.size	_Z21invokeIntIntCallbacksP16IntListenerArrayii, .-_Z21invokeIntIntCallbacksP16IntListenerArr
 222 002a 00BFAFF3 		.section	.text._Z25invokeIntIntVoidCallbacksP16IntListenerArrayii,"ax",%progbits
 222      0080
 223              		.align	2
 224              		.p2align 4,,15
 225              		.global	_Z25invokeIntIntVoidCallbacksP16IntListenerArrayii
 226              		.thumb
 227              		.thumb_func
 228              		.type	_Z25invokeIntIntVoidCallbacksP16IntListenerArrayii, %function
 229              	_Z25invokeIntIntVoidCallbacksP16IntListenerArrayii:
 230              		@ args = 0, pretend = 0, frame = 0
 231              		@ frame_needed = 0, uses_anonymous_args = 0
 232 0000 0368     		ldr	r3, [r0]
 233 0002 002B     		cmp	r3, #0
 234 0004 2DE9F041 		push	{r4, r5, r6, r7, r8, lr}
 235 0008 0646     		mov	r6, r0
 236 000a 0F46     		mov	r7, r1
 237 000c 9046     		mov	r8, r2
 238 000e 0BDD     		ble	.L25
 239 0010 041F     		subs	r4, r0, #4
 240 0012 0025     		movs	r5, #0
 241              	.L28:
 242 0014 0434     		adds	r4, r4, #4
 243 0016 3846     		mov	r0, r7
 244 0018 6368     		ldr	r3, [r4, #4]
 245 001a 226C     		ldr	r2, [r4, #64]
 246 001c 4146     		mov	r1, r8
 247 001e 9847     		blx	r3
 248 0020 3368     		ldr	r3, [r6]
 249 0022 0135     		adds	r5, r5, #1
 250 0024 AB42     		cmp	r3, r5
 251 0026 F5DC     		bgt	.L28
 252              	.L25:
 253 0028 BDE8F081 		pop	{r4, r5, r6, r7, r8, pc}
 254              		.size	_Z25invokeIntIntVoidCallbacksP16IntListenerArrayii, .-_Z25invokeIntIntVoidCallbacksP16IntLis
 255 002c AFF30080 		.section	.text._Z14clearCallbacksP16IntListenerArray,"ax",%progbits
 256              		.align	2
 257              		.p2align 4,,15
 258              		.global	_Z14clearCallbacksP16IntListenerArray
 259              		.thumb
 260              		.thumb_func
 261              		.type	_Z14clearCallbacksP16IntListenerArray, %function
 262              	_Z14clearCallbacksP16IntListenerArray:
 263              		@ args = 0, pretend = 0, frame = 0
 264              		@ frame_needed = 0, uses_anonymous_args = 0
 265              		@ link register save eliminated.
 266 0000 0023     		movs	r3, #0
 267 0002 0360     		str	r3, [r0]
 268 0004 7047     		bx	lr
 269              		.size	_Z14clearCallbacksP16IntListenerArray, .-_Z14clearCallbacksP16IntListenerArray
 270 0006 00BFAFF3 		.section	.rodata.str1.4,"aMS",%progbits,1
 270      0080AFF3 
 270      0080
 271              		.align	2
 272              	.LC0:
 273 0000 546F6F20 		.ascii	"Too many callbacks\000"
ARM GAS  C:\Users\pc\AppData\Local\Temp\ccAzmG9M.s 			page 6


 273      6D616E79 
 273      2063616C 
 273      6C626163 
 273      6B7300
 274 0013 00       		.ident	"GCC: (Sourcery CodeBench Lite 2013.11-24) 4.8.1"
ARM GAS  C:\Users\pc\AppData\Local\Temp\ccAzmG9M.s 			page 7

