ARM GAS  C:\Users\pc\AppData\Local\Temp\ccJQEbCc.s 			page 1


   1              		.syntax unified
   2              		.cpu cortex-m4
   3              		.eabi_attribute 27, 3
   4              		.fpu fpv4-sp-d16
   5              		.eabi_attribute 20, 1
   6              		.eabi_attribute 21, 1
   7              		.eabi_attribute 23, 3
   8              		.eabi_attribute 24, 1
   9              		.eabi_attribute 25, 1
  10              		.eabi_attribute 26, 1
  11              		.eabi_attribute 30, 2
  12              		.eabi_attribute 34, 1
  13              		.eabi_attribute 18, 4
  14              		.thumb
  15              		.file	"max31855.cpp"
  16              		.section	.text._ZL13readEgtPacketi,"ax",%progbits
  17              		.align	2
  18              		.p2align 4,,15
  19              		.thumb
  20              		.thumb_func
  21              		.type	_ZL13readEgtPacketi, %function
  22              	_ZL13readEgtPacketi:
  23              		@ args = 0, pretend = 0, frame = 8
  24              		@ frame_needed = 0, uses_anonymous_args = 0
  25 0000 10B5     		push	{r4, lr}
  26 0002 40F20004 		movw	r4, #:lower16:.LANCHOR0
  27 0006 C0F20004 		movt	r4, #:upper16:.LANCHOR0
  28 000a 82B0     		sub	sp, sp, #8
  29 000c 2368     		ldr	r3, [r4]
  30 000e EBB1     		cbz	r3, .L3
  31 0010 40F20002 		movw	r2, #:lower16:.LANCHOR1
  32 0014 C0F20002 		movt	r2, #:upper16:.LANCHOR1
  33 0018 00EB4001 		add	r1, r0, r0, lsl #1
  34 001c 02EB8101 		add	r1, r2, r1, lsl #2
  35 0020 1846     		mov	r0, r3
  36 0022 FFF7FEFF 		bl	spiStart
  37 0026 2068     		ldr	r0, [r4]
  38 0028 FFF7FEFF 		bl	spiSelect
  39 002c 0421     		movs	r1, #4
  40 002e 0DEB0102 		add	r2, sp, r1
  41 0032 2068     		ldr	r0, [r4]
  42 0034 FFF7FEFF 		bl	spiReceive
  43 0038 2068     		ldr	r0, [r4]
  44 003a FFF7FEFF 		bl	spiUnselect
  45 003e 2068     		ldr	r0, [r4]
  46 0040 FFF7FEFF 		bl	spiStop
  47 0044 0198     		ldr	r0, [sp, #4]
  48 0046 00BA     		rev	r0, r0
  49 0048 02B0     		add	sp, sp, #8
  50              		@ sp needed
  51 004a 10BD     		pop	{r4, pc}
  52              	.L3:
  53 004c 4FF0FF30 		mov	r0, #-1
  54 0050 02B0     		add	sp, sp, #8
  55              		@ sp needed
  56 0052 10BD     		pop	{r4, pc}
  57              		.size	_ZL13readEgtPacketi, .-_ZL13readEgtPacketi
ARM GAS  C:\Users\pc\AppData\Local\Temp\ccJQEbCc.s 			page 2


  58 0054 AFF30080 		.section	.text._ZL11showEgtInfov,"ax",%progbits
  58      AFF30080 
  58      AFF30080 
  59              		.align	2
  60              		.p2align 4,,15
  61              		.thumb
  62              		.thumb_func
  63              		.type	_ZL11showEgtInfov, %function
  64              	_ZL11showEgtInfov:
  65              		@ args = 0, pretend = 0, frame = 0
  66              		@ frame_needed = 0, uses_anonymous_args = 0
  67 0000 F8B5     		push	{r3, r4, r5, r6, r7, lr}
  68 0002 40F20006 		movw	r6, #:lower16:.LANCHOR2
  69 0006 40F20005 		movw	r5, #:lower16:boardConfiguration
  70 000a C0F20006 		movt	r6, #:upper16:.LANCHOR2
  71 000e C0F20005 		movt	r5, #:upper16:boardConfiguration
  72 0012 3068     		ldr	r0, [r6]
  73 0014 2968     		ldr	r1, [r5]
  74 0016 FFF7FEFF 		bl	_Z13printSpiStateP7LoggingP21board_configuration_s
  75 001a 2B68     		ldr	r3, [r5]
  76 001c 3068     		ldr	r0, [r6]
  77 001e D3F8C021 		ldr	r2, [r3, #448]
  78 0022 40F20001 		movw	r1, #:lower16:.LC0
  79 0026 C0F20001 		movt	r1, #:upper16:.LC0
  80 002a FFF7FEFF 		bl	scheduleMsg
  81 002e 0024     		movs	r4, #0
  82              	.L8:
  83 0030 2B68     		ldr	r3, [r5]
  84 0032 04F16802 		add	r2, r4, #104
  85 0036 53F82230 		ldr	r3, [r3, r2, lsl #2]
  86 003a 502B     		cmp	r3, #80
  87 003c 1846     		mov	r0, r3
  88 003e 0BD0     		beq	.L6
  89 0040 3768     		ldr	r7, [r6]
  90 0042 FFF7FEFF 		bl	_Z10hwPortname11brain_pin_e
  91 0046 40F20001 		movw	r1, #:lower16:.LC1
  92 004a 0346     		mov	r3, r0
  93 004c C0F20001 		movt	r1, #:upper16:.LC1
  94 0050 3846     		mov	r0, r7
  95 0052 2246     		mov	r2, r4
  96 0054 FFF7FEFF 		bl	scheduleMsg
  97              	.L6:
  98 0058 0134     		adds	r4, r4, #1
  99 005a 082C     		cmp	r4, #8
 100 005c E8D1     		bne	.L8
 101 005e F8BD     		pop	{r3, r4, r5, r6, r7, pc}
 102              		.size	_ZL11showEgtInfov, .-_ZL11showEgtInfov
 103              		.section	.text._ZL13getResultCodem,"ax",%progbits
 104              		.align	2
 105              		.p2align 4,,15
 106              		.thumb
 107              		.thumb_func
 108              		.type	_ZL13getResultCodem, %function
 109              	_ZL13getResultCodem:
 110              		@ args = 0, pretend = 0, frame = 0
 111              		@ frame_needed = 0, uses_anonymous_args = 0
 112              		@ link register save eliminated.
ARM GAS  C:\Users\pc\AppData\Local\Temp\ccJQEbCc.s 			page 3


 113 0000 0823     		movs	r3, #8
 114 0002 C0F20203 		movt	r3, 2
 115 0006 0340     		ands	r3, r3, r0
 116 0008 4BB9     		cbnz	r3, .L15
 117 000a C207     		lsls	r2, r0, #31
 118 000c 01D5     		bpl	.L19
 119 000e 0220     		movs	r0, #2
 120 0010 7047     		bx	lr
 121              	.L19:
 122 0012 8307     		lsls	r3, r0, #30
 123 0014 54BF     		ite	pl
 124 0016 00F00400 		andpl	r0, r0, #4
 125 001a 0320     		movmi	r0, #3
 126 001c 7047     		bx	lr
 127              	.L15:
 128 001e 0120     		movs	r0, #1
 129 0020 7047     		bx	lr
 130              		.size	_ZL13getResultCodem, .-_ZL13getResultCodem
 131              		.global	__aeabi_f2d
 132 0022 00BFAFF3 		.section	.text._ZL7egtReadv,"ax",%progbits
 132      0080AFF3 
 132      0080AFF3 
 132      0080
 133              		.align	2
 134              		.p2align 4,,15
 135              		.thumb
 136              		.thumb_func
 137              		.type	_ZL7egtReadv, %function
 138              	_ZL7egtReadv:
 139              		@ args = 0, pretend = 0, frame = 0
 140              		@ frame_needed = 0, uses_anonymous_args = 0
 141 0000 70B5     		push	{r4, r5, r6, lr}
 142 0002 40F20003 		movw	r3, #:lower16:.LANCHOR0
 143 0006 C0F20003 		movt	r3, #:upper16:.LANCHOR0
 144 000a 82B0     		sub	sp, sp, #8
 145 000c 1B68     		ldr	r3, [r3]
 146 000e 002B     		cmp	r3, #0
 147 0010 53D0     		beq	.L25
 148 0012 40F20004 		movw	r4, #:lower16:.LANCHOR2
 149 0016 C0F20004 		movt	r4, #:upper16:.LANCHOR2
 150 001a 40F20001 		movw	r1, #:lower16:.LC3
 151 001e C0F20001 		movt	r1, #:upper16:.LC3
 152 0022 2068     		ldr	r0, [r4]
 153 0024 FFF7FEFF 		bl	scheduleMsg
 154 0028 0020     		movs	r0, #0
 155 002a FFF7FEFF 		bl	_ZL13readEgtPacketi
 156 002e 0646     		mov	r6, r0
 157 0030 FFF7FEFF 		bl	_ZL13getResultCodem
 158 0034 0546     		mov	r5, r0
 159 0036 042D     		cmp	r5, #4
 160 0038 2068     		ldr	r0, [r4]
 161 003a 2BD9     		bls	.L26
 162 003c 40F20002 		movw	r2, #:lower16:.LC7
 163 0040 C0F20002 		movt	r2, #:upper16:.LC7
 164 0044 40F20001 		movw	r1, #:lower16:.LC4
 165 0048 0092     		str	r2, [sp]
 166 004a 2B46     		mov	r3, r5
ARM GAS  C:\Users\pc\AppData\Local\Temp\ccJQEbCc.s 			page 4


 167 004c C0F20001 		movt	r1, #:upper16:.LC4
 168 0050 3246     		mov	r2, r6
 169 0052 FFF7FEFF 		bl	scheduleMsg
 170              	.L24:
 171 0056 C6F30B10 		ubfx	r0, r6, #4, #12
 172 005a 07EE900A 		fmsr	s15, r0	@ int
 173 005e FAEECE7A 		vcvt.f32.s32	s15, s15, #4
 174 0062 2568     		ldr	r5, [r4]
 175 0064 17EE900A 		fmrs	r0, s15
 176 0068 FFF7FEFF 		bl	__aeabi_f2d
 177 006c 0B46     		mov	r3, r1
 178 006e 40F20001 		movw	r1, #:lower16:.LC5
 179 0072 0246     		mov	r2, r0
 180 0074 C0F20001 		movt	r1, #:upper16:.LC5
 181 0078 2846     		mov	r0, r5
 182 007a FFF7FEFF 		bl	scheduleMsg
 183 007e 40F20001 		movw	r1, #:lower16:.LC6
 184 0082 2068     		ldr	r0, [r4]
 185 0084 320D     		lsrs	r2, r6, #20
 186 0086 C0F20001 		movt	r1, #:upper16:.LC6
 187 008a 02B0     		add	sp, sp, #8
 188              		@ sp needed
 189 008c BDE87040 		pop	{r4, r5, r6, lr}
 190 0090 FFF7FEBF 		b	scheduleMsg
 191              	.L26:
 192 0094 40F20003 		movw	r3, #:lower16:.LANCHOR3
 193 0098 C0F20003 		movt	r3, #:upper16:.LANCHOR3
 194 009c 40F20001 		movw	r1, #:lower16:.LC4
 195 00a0 53F82530 		ldr	r3, [r3, r5, lsl #2]
 196 00a4 C0F20001 		movt	r1, #:upper16:.LC4
 197 00a8 0093     		str	r3, [sp]
 198 00aa 3246     		mov	r2, r6
 199 00ac 2B46     		mov	r3, r5
 200 00ae FFF7FEFF 		bl	scheduleMsg
 201 00b2 012D     		cmp	r5, #1
 202 00b4 CFD1     		bne	.L24
 203 00b6 02B0     		add	sp, sp, #8
 204              		@ sp needed
 205 00b8 70BD     		pop	{r4, r5, r6, pc}
 206              	.L25:
 207 00ba 40F20003 		movw	r3, #:lower16:.LANCHOR2
 208 00be C0F20003 		movt	r3, #:upper16:.LANCHOR2
 209 00c2 40F20001 		movw	r1, #:lower16:.LC2
 210 00c6 1868     		ldr	r0, [r3]
 211 00c8 C0F20001 		movt	r1, #:upper16:.LC2
 212 00cc 02B0     		add	sp, sp, #8
 213              		@ sp needed
 214 00ce BDE87040 		pop	{r4, r5, r6, lr}
 215 00d2 FFF7FEBF 		b	scheduleMsg
 216              		.size	_ZL7egtReadv, .-_ZL7egtReadv
 217 00d6 00BFAFF3 		.section	.text._Z11getEgtValuei,"ax",%progbits
 217      0080AFF3 
 217      0080
 218              		.align	2
 219              		.p2align 4,,15
 220              		.global	_Z11getEgtValuei
 221              		.thumb
ARM GAS  C:\Users\pc\AppData\Local\Temp\ccJQEbCc.s 			page 5


 222              		.thumb_func
 223              		.type	_Z11getEgtValuei, %function
 224              	_Z11getEgtValuei:
 225              		@ args = 0, pretend = 0, frame = 0
 226              		@ frame_needed = 0, uses_anonymous_args = 0
 227 0000 08B5     		push	{r3, lr}
 228 0002 FFF7FEFF 		bl	_ZL13readEgtPacketi
 229 0006 0146     		mov	r1, r0
 230 0008 FFF7FEFF 		bl	_ZL13getResultCodem
 231 000c 08B9     		cbnz	r0, .L30
 232 000e 080D     		lsrs	r0, r1, #20
 233 0010 08BD     		pop	{r3, pc}
 234              	.L30:
 235 0012 A0F57A70 		sub	r0, r0, #1000
 236 0016 80B2     		uxth	r0, r0
 237 0018 08BD     		pop	{r3, pc}
 238              		.size	_Z11getEgtValuei, .-_Z11getEgtValuei
 239 001a 00BFAFF3 		.section	.text._Z12initMax31855P7LoggingP9SPIDriverP11brain_pin_e,"ax",%progbits
 239      0080
 240              		.align	2
 241              		.p2align 4,,15
 242              		.global	_Z12initMax31855P7LoggingP9SPIDriverP11brain_pin_e
 243              		.thumb
 244              		.thumb_func
 245              		.type	_Z12initMax31855P7LoggingP9SPIDriverP11brain_pin_e, %function
 246              	_Z12initMax31855P7LoggingP9SPIDriverP11brain_pin_e:
 247              		@ args = 0, pretend = 0, frame = 0
 248              		@ frame_needed = 0, uses_anonymous_args = 0
 249 0000 F8B5     		push	{r3, r4, r5, r6, r7, lr}
 250 0002 40F20004 		movw	r4, #:lower16:.LANCHOR2
 251 0006 40F20003 		movw	r3, #:lower16:.LANCHOR0
 252 000a C0F20003 		movt	r3, #:upper16:.LANCHOR0
 253 000e C0F20004 		movt	r4, #:upper16:.LANCHOR2
 254 0012 1960     		str	r1, [r3]
 255 0014 2060     		str	r0, [r4]
 256 0016 40F20001 		movw	r1, #:lower16:_ZL11showEgtInfov
 257 001a 40F20000 		movw	r0, #:lower16:.LC8
 258 001e C0F20000 		movt	r0, #:upper16:.LC8
 259 0022 C0F20001 		movt	r1, #:upper16:_ZL11showEgtInfov
 260 0026 1546     		mov	r5, r2
 261 0028 FFF7FEFF 		bl	addConsoleAction
 262 002c 40F20000 		movw	r0, #:lower16:.LC9
 263 0030 40F20001 		movw	r1, #:lower16:_ZL7egtReadv
 264 0034 C0F20000 		movt	r0, #:upper16:.LC9
 265 0038 C0F20001 		movt	r1, #:upper16:_ZL7egtReadv
 266 003c 40F20004 		movw	r4, #:lower16:.LANCHOR1
 267 0040 FFF7FEFF 		bl	addConsoleAction
 268 0044 C0F20004 		movt	r4, #:upper16:.LANCHOR1
 269 0048 043D     		subs	r5, r5, #4
 270 004a 04F16006 		add	r6, r4, #96
 271 004e 1027     		movs	r7, #16
 272              	.L34:
 273 0050 55F8041F 		ldr	r1, [r5, #4]!
 274 0054 5029     		cmp	r1, #80
 275 0056 03D0     		beq	.L32
 276 0058 2046     		mov	r0, r4
 277 005a FFF7FEFF 		bl	initSpiCs
ARM GAS  C:\Users\pc\AppData\Local\Temp\ccJQEbCc.s 			page 6


 278 005e 6781     		strh	r7, [r4, #10]	@ movhi
 279              	.L32:
 280 0060 0C34     		adds	r4, r4, #12
 281 0062 B442     		cmp	r4, r6
 282 0064 F4D1     		bne	.L34
 283 0066 F8BD     		pop	{r3, r4, r5, r6, r7, pc}
 284              		.size	_Z12initMax31855P7LoggingP9SPIDriverP11brain_pin_e, .-_Z12initMax31855P7LoggingP9SPIDriverP1
 285 0068 AFF30080 		.section	.rodata.CSWTCH.9,"a",%progbits
 285      AFF30080 
 286              		.align	2
 287              		.set	.LANCHOR3,. + 0
 288              		.type	CSWTCH.9, %object
 289              		.size	CSWTCH.9, 20
 290              	CSWTCH.9:
 291 0000 98000000 		.word	.LC10
 292 0004 80000000 		.word	.LC7
 293 0008 9C000000 		.word	.LC11
 294 000c A4000000 		.word	.LC12
 295 0010 B0000000 		.word	.LC13
 296              		.section	.bss._ZL6driver,"aw",%nobits
 297              		.align	2
 298              		.set	.LANCHOR0,. + 0
 299              		.type	_ZL6driver, %object
 300              		.size	_ZL6driver, 4
 301              	_ZL6driver:
 302 0000 00000000 		.space	4
 303              		.section	.rodata.str1.4,"aMS",%progbits,1
 304              		.align	2
 305              	.LC0:
 306 0000 45475420 		.ascii	"EGT spi: %d\000"
 306      7370693A 
 306      20256400 
 307              	.LC1:
 308 000c 25642045 		.ascii	"%d ETG @ %s\000"
 308      54472040 
 308      20257300 
 309              	.LC2:
 310 0018 4E6F2053 		.ascii	"No SPI selected for EGT\000"
 310      50492073 
 310      656C6563 
 310      74656420 
 310      666F7220 
 311              	.LC3:
 312 0030 52656164 		.ascii	"Reading egt\000"
 312      696E6720 
 312      65677400 
 313              	.LC4:
 314 003c 65677420 		.ascii	"egt %x code=%d %s\000"
 314      25782063 
 314      6F64653D 
 314      25642025 
 314      7300
 315 004e 0000     		.space	2
 316              	.LC5:
 317 0050 72656665 		.ascii	"reference temperature %f\000"
 317      72656E63 
 317      65207465 
ARM GAS  C:\Users\pc\AppData\Local\Temp\ccJQEbCc.s 			page 7


 317      6D706572 
 317      61747572 
 318 0069 000000   		.space	3
 319              	.LC6:
 320 006c 45475420 		.ascii	"EGT temperature %d\000"
 320      74656D70 
 320      65726174 
 320      75726520 
 320      256400
 321 007f 00       		.space	1
 322              	.LC7:
 323 0080 696E7661 		.ascii	"invalid\000"
 323      6C696400 
 324              	.LC8:
 325 0088 65677469 		.ascii	"egtinfo\000"
 325      6E666F00 
 326              	.LC9:
 327 0090 65677472 		.ascii	"egtread\000"
 327      65616400 
 328              	.LC10:
 329 0098 4F6B00   		.ascii	"Ok\000"
 330 009b 00       		.space	1
 331              	.LC11:
 332 009c 4F70656E 		.ascii	"Open\000"
 332      00
 333 00a1 000000   		.space	3
 334              	.LC12:
 335 00a4 73686F72 		.ascii	"short gnd\000"
 335      7420676E 
 335      6400
 336 00ae 0000     		.space	2
 337              	.LC13:
 338 00b0 73686F72 		.ascii	"short VCC\000"
 338      74205643 
 338      4300
 339 00ba 0000     		.section	.bss._ZL9spiConfig,"aw",%nobits
 340              		.align	2
 341              		.set	.LANCHOR1,. + 0
 342              		.type	_ZL9spiConfig, %object
 343              		.size	_ZL9spiConfig, 96
 344              	_ZL9spiConfig:
 345 0000 00000000 		.space	96
 345      00000000 
 345      00000000 
 345      00000000 
 345      00000000 
 346              		.section	.bss._ZL6logger,"aw",%nobits
 347              		.align	2
 348              		.set	.LANCHOR2,. + 0
 349              		.type	_ZL6logger, %object
 350              		.size	_ZL6logger, 4
 351              	_ZL6logger:
 352 0000 00000000 		.space	4
 353              		.ident	"GCC: (Sourcery CodeBench Lite 2013.11-24) 4.8.1"
ARM GAS  C:\Users\pc\AppData\Local\Temp\ccJQEbCc.s 			page 8

