ARM GAS  C:\Users\pc\AppData\Local\Temp\ccIhy9g8.s 			page 1


   1              		.syntax unified
   2              		.cpu cortex-m4
   3              		.eabi_attribute 27, 3
   4              		.fpu fpv4-sp-d16
   5              		.eabi_attribute 20, 1
   6              		.eabi_attribute 21, 1
   7              		.eabi_attribute 23, 3
   8              		.eabi_attribute 24, 1
   9              		.eabi_attribute 25, 1
  10              		.eabi_attribute 26, 1
  11              		.eabi_attribute 30, 2
  12              		.eabi_attribute 34, 1
  13              		.eabi_attribute 18, 4
  14              		.thumb
  15              		.file	"mazda_626.cpp"
  16              		.section	.text._Z30setMazda626EngineConfigurationv,"ax",%progbits
  17              		.align	2
  18              		.p2align 4,,15
  19              		.global	_Z30setMazda626EngineConfigurationv
  20              		.thumb
  21              		.thumb_func
  22              		.type	_Z30setMazda626EngineConfigurationv, %function
  23              	_Z30setMazda626EngineConfigurationv:
  24              		@ args = 0, pretend = 0, frame = 0
  25              		@ frame_needed = 0, uses_anonymous_args = 0
  26 0000 2DE9F04F 		push	{r4, r5, r6, r7, r8, r9, r10, fp, lr}
  27 0004 40F20004 		movw	r4, #:lower16:engineConfiguration
  28 0008 85B0     		sub	sp, sp, #20
  29 000a C0F20004 		movt	r4, #:upper16:engineConfiguration
  30 000e FFF7FEFF 		bl	_Z28setCustomEngineConfigurationv
  31 0012 40F20002 		movw	r2, #:lower16:boardConfiguration
  32 0016 2368     		ldr	r3, [r4]
  33 0018 C0F20002 		movt	r2, #:upper16:boardConfiguration
  34 001c 9626     		movs	r6, #150
  35 001e D2F800E0 		ldr	lr, [r2]
  36 0022 C3F8E865 		str	r6, [r3, #1512]
  37 0026 0F22     		movs	r2, #15
  38 0028 4FF0000B 		mov	fp, #0
  39 002c 4FF00009 		mov	r9, #0
  40 0030 4FF0000C 		mov	ip, #0
  41 0034 0026     		movs	r6, #0
  42 0036 C4F28C2C 		movt	ip, 17036
  43 003a C3F81822 		str	r2, [r3, #536]
  44 003e 0125     		movs	r5, #1
  45 0040 4FF43F72 		mov	r2, #764
  46 0044 5021     		movs	r1, #80
  47 0046 C4F21016 		movt	r6, 16656
  48 004a C4F2A53B 		movt	fp, 17317
  49 004e CCF22829 		movt	r9, 49704
  50 0052 0227     		movs	r7, #2
  51 0054 4FF0804A 		mov	r10, #1073741824
  52 0058 4FF08248 		mov	r8, #1090519040
  53 005c 41F27070 		movw	r0, #6000
  54 0060 CEF81053 		str	r5, [lr, #784]
  55 0064 C3F86CC0 		str	ip, [r3, #108]	@ float
  56 0068 C3F81472 		str	r7, [r3, #532]
  57 006c C3F808B0 		str	fp, [r3, #8]	@ float
ARM GAS  C:\Users\pc\AppData\Local\Temp\ccIhy9g8.s 			page 2


  58 0070 C3F890A1 		str	r10, [r3, #400]	@ float
  59 0074 C3F8CC91 		str	r9, [r3, #460]	@ float
  60 0078 C3F8B881 		str	r8, [r3, #440]	@ float
  61 007c C3F8A401 		str	r0, [r3, #420]
  62 0080 A3F85210 		strh	r1, [r3, #82]	@ movhi
  63 0084 A3F85420 		strh	r2, [r3, #84]	@ movhi
  64 0088 DE65     		str	r6, [r3, #92]	@ float
  65 008a 0320     		movs	r0, #3
  66 008c FFF7FEFF 		bl	_Z12setAlgorithm18engine_load_mode_e
  67 0090 0021     		movs	r1, #0
  68 0092 C4F2C821 		movt	r1, 17096
  69 0096 0020     		movs	r0, #0
  70 0098 FFF7FEFF 		bl	_Z14setFuelLoadBinff
  71 009c 3046     		mov	r0, r6	@ float
  72 009e FFF7FEFF 		bl	_Z15setWholeFuelMapf
  73 00a2 0020     		movs	r0, #0
  74 00a4 C4F22010 		movt	r0, 16672
  75 00a8 FFF7FEFF 		bl	_Z19setWholeTimingTablef
  76 00ac 2068     		ldr	r0, [r4]
  77 00ae 00F58070 		add	r0, r0, #256
  78 00b2 FFF7FEFF 		bl	_Z18setCommonNTCSensorP14ThermistorConf
  79 00b6 0027     		movs	r7, #0
  80 00b8 2068     		ldr	r0, [r4]
  81 00ba 4FF4204E 		mov	lr, #40960
  82 00be 4FF44046 		mov	r6, #49152
  83 00c2 C4F20C6E 		movt	lr, 17932
  84 00c6 C4F2A027 		movt	r7, 17056
  85 00ca C4F22856 		movt	r6, 17704
  86 00ce 0021     		movs	r1, #0
  87 00d0 4FF44042 		mov	r2, #49152
  88 00d4 0023     		movs	r3, #0
  89 00d6 CDF800E0 		str	lr, [sp]	@ float
  90 00da C4F25011 		movt	r1, 16720
  91 00de 0296     		str	r6, [sp, #8]	@ float
  92 00e0 C4F25A72 		movt	r2, 18266
  93 00e4 C4F24823 		movt	r3, 16968
  94 00e8 00F59070 		add	r0, r0, #288
  95 00ec 0197     		str	r7, [sp, #4]	@ float
  96 00ee FFF7FEFF 		bl	_Z26setThermistorConfigurationP14ThermistorConfffffff
  97 00f2 2368     		ldr	r3, [r4]
  98 00f4 4FF42042 		mov	r2, #40960
  99 00f8 C4F28C62 		movt	r2, 18060
 100 00fc 1846     		mov	r0, r3
 101 00fe C3F83821 		str	r2, [r3, #312]	@ float
 102 0102 FFF7FEFF 		bl	_Z27commonFrankensoAnalogInputsP22engine_configuration_s
 103 0106 2368     		ldr	r3, [r4]
 104 0108 49F69A10 		movw	r0, #39322
 105 010c 0522     		movs	r2, #5
 106 010e 0026     		movs	r6, #0
 107 0110 C4F20910 		movt	r0, 16649
 108 0114 C3F8D401 		str	r0, [r3, #468]	@ float
 109 0118 C3F8F820 		str	r2, [r3, #248]
 110 011c C3F84462 		str	r6, [r3, #580]
 111 0120 03F51270 		add	r0, r3, #584
 112 0124 2946     		mov	r1, r5
 113 0126 FFF7FEFF 		bl	_Z13initEgoSensorP12afr_sensor_s12ego_sensor_e
 114 012a 40F20002 		movw	r2, #:lower16:.LC0
ARM GAS  C:\Users\pc\AppData\Local\Temp\ccIhy9g8.s 			page 3


 115 012e 3046     		mov	r0, r6
 116 0130 C0F20002 		movt	r2, #:upper16:.LC0
 117 0134 4621     		movs	r1, #70
 118 0136 FFF7FEFF 		bl	_Z7setFsioi11brain_pin_ePKc
 119 013a 2368     		ldr	r3, [r4]
 120 013c 0422     		movs	r2, #4
 121 013e C3F85426 		str	r2, [r3, #1620]
 122 0142 05B0     		add	sp, sp, #20
 123              		@ sp needed
 124 0144 BDE8F08F 		pop	{r4, r5, r6, r7, r8, r9, r10, fp, pc}
 125              		.size	_Z30setMazda626EngineConfigurationv, .-_Z30setMazda626EngineConfigurationv
 126 0148 AFF30080 		.section	.rodata.str1.4,"aMS",%progbits,1
 126      AFF30080 
 127              		.align	2
 128              	.LC0:
 129 0000 3100     		.ascii	"1\000"
 130 0002 0000     		.ident	"GCC: (Sourcery CodeBench Lite 2013.11-24) 4.8.1"
ARM GAS  C:\Users\pc\AppData\Local\Temp\ccIhy9g8.s 			page 4


DEFINED SYMBOLS
                            *ABS*:00000000 mazda_626.cpp
C:\Users\pc\AppData\Local\Temp\ccIhy9g8.s:17     .text._Z30setMazda626EngineConfigurationv:00000000 $t
C:\Users\pc\AppData\Local\Temp\ccIhy9g8.s:23     .text._Z30setMazda626EngineConfigurationv:00000000 _Z30setMazda626EngineConfigurationv
C:\Users\pc\AppData\Local\Temp\ccIhy9g8.s:128    .rodata.str1.4:00000000 .LC0
C:\Users\pc\AppData\Local\Temp\ccIhy9g8.s:127    .rodata.str1.4:00000000 $d

UNDEFINED SYMBOLS
engineConfiguration
_Z28setCustomEngineConfigurationv
boardConfiguration
_Z12setAlgorithm18engine_load_mode_e
_Z14setFuelLoadBinff
_Z15setWholeFuelMapf
_Z19setWholeTimingTablef
_Z18setCommonNTCSensorP14ThermistorConf
_Z26setThermistorConfigurationP14ThermistorConfffffff
_Z27commonFrankensoAnalogInputsP22engine_configuration_s
_Z13initEgoSensorP12afr_sensor_s12ego_sensor_e
_Z7setFsioi11brain_pin_ePKc
