ARM GAS  C:\Users\pc\AppData\Local\Temp\cco3lRxb.s 			page 1


   1              		.syntax unified
   2              		.cpu cortex-m4
   3              		.eabi_attribute 27, 3
   4              		.fpu fpv4-sp-d16
   5              		.eabi_attribute 20, 1
   6              		.eabi_attribute 21, 1
   7              		.eabi_attribute 23, 3
   8              		.eabi_attribute 24, 1
   9              		.eabi_attribute 25, 1
  10              		.eabi_attribute 26, 1
  11              		.eabi_attribute 30, 2
  12              		.eabi_attribute 34, 1
  13              		.eabi_attribute 18, 4
  14              		.thumb
  15              		.file	"mmcsd.c"
  16              		.section	.text.mmcsd_get_slice,"ax",%progbits
  17              		.align	2
  18              		.p2align 4,,15
  19              		.thumb
  20              		.thumb_func
  21              		.type	mmcsd_get_slice, %function
  22              	mmcsd_get_slice:
  23              		@ args = 0, pretend = 0, frame = 0
  24              		@ frame_needed = 0, uses_anonymous_args = 0
  25 0000 9142     		cmp	r1, r2
  26 0002 70B5     		push	{r4, r5, r6, lr}
  27 0004 0D46     		mov	r5, r1
  28 0006 1446     		mov	r4, r2
  29 0008 0646     		mov	r6, r0
  30 000a 15D3     		bcc	.L2
  31 000c 8B1A     		subs	r3, r1, r2
  32 000e 1F2B     		cmp	r3, #31
  33 0010 12D8     		bhi	.L2
  34              	.L3:
  35 0012 05F01F02 		and	r2, r5, #31
  36 0016 6309     		lsrs	r3, r4, #5
  37 0018 0132     		adds	r2, r2, #1
  38 001a 0120     		movs	r0, #1
  39 001c 6D09     		lsrs	r5, r5, #5
  40 001e 00FA02F2 		lsl	r2, r0, r2
  41 0022 AB42     		cmp	r3, r5
  42 0024 02F1FF32 		add	r2, r2, #-1
  43 0028 04F01F04 		and	r4, r4, #31
  44 002c 10D3     		bcc	.L7
  45 002e 56F82300 		ldr	r0, [r6, r3, lsl #2]
  46 0032 1040     		ands	r0, r0, r2
  47 0034 E040     		lsrs	r0, r0, r4
  48 0036 70BD     		pop	{r4, r5, r6, pc}
  49              	.L2:
  50 0038 40F20000 		movw	r0, #:lower16:.LC0
  51 003c 40F20001 		movw	r1, #:lower16:.LC1
  52 0040 C0F20000 		movt	r0, #:upper16:.LC0
  53 0044 C0F20001 		movt	r1, #:upper16:.LC1
  54 0048 4922     		movs	r2, #73
  55 004a FFF7FEFF 		bl	chDbgPanic3
  56 004e E0E7     		b	.L3
  57              	.L7:
ARM GAS  C:\Users\pc\AppData\Local\Temp\cco3lRxb.s 			page 2


  58 0050 56F82500 		ldr	r0, [r6, r5, lsl #2]
  59 0054 56F82310 		ldr	r1, [r6, r3, lsl #2]
  60 0058 1040     		ands	r0, r0, r2
  61 005a C4F12003 		rsb	r3, r4, #32
  62 005e 9840     		lsls	r0, r0, r3
  63 0060 21FA04F4 		lsr	r4, r1, r4
  64 0064 2043     		orrs	r0, r0, r4
  65 0066 70BD     		pop	{r4, r5, r6, pc}
  66              		.size	mmcsd_get_slice, .-mmcsd_get_slice
  67 0068 AFF30080 		.section	.text.mmcsdGetCapacity,"ax",%progbits
  67      AFF30080 
  68              		.align	2
  69              		.p2align 4,,15
  70              		.global	mmcsdGetCapacity
  71              		.thumb
  72              		.thumb_func
  73              		.type	mmcsdGetCapacity, %function
  74              	mmcsdGetCapacity:
  75              		@ args = 0, pretend = 0, frame = 0
  76              		@ frame_needed = 0, uses_anonymous_args = 0
  77 0000 C368     		ldr	r3, [r0, #12]
  78 0002 9B0F     		lsrs	r3, r3, #30
  79 0004 70B5     		push	{r4, r5, r6, lr}
  80 0006 0446     		mov	r4, r0
  81 0008 0AD0     		beq	.L10
  82 000a 012B     		cmp	r3, #1
  83 000c 06D1     		bne	.L14
  84 000e 4521     		movs	r1, #69
  85 0010 3022     		movs	r2, #48
  86 0012 FFF7FEFF 		bl	mmcsd_get_slice
  87 0016 0130     		adds	r0, r0, #1
  88 0018 8002     		lsls	r0, r0, #10
  89 001a 70BD     		pop	{r4, r5, r6, pc}
  90              	.L14:
  91 001c 0020     		movs	r0, #0
  92 001e 70BD     		pop	{r4, r5, r6, pc}
  93              	.L10:
  94 0020 4921     		movs	r1, #73
  95 0022 3E22     		movs	r2, #62
  96 0024 FFF7FEFF 		bl	mmcsd_get_slice
  97 0028 3121     		movs	r1, #49
  98 002a 0646     		mov	r6, r0
  99 002c 2F22     		movs	r2, #47
 100 002e 2046     		mov	r0, r4
 101 0030 FFF7FEFF 		bl	mmcsd_get_slice
 102 0034 5321     		movs	r1, #83
 103 0036 0546     		mov	r5, r0
 104 0038 5022     		movs	r2, #80
 105 003a 2046     		mov	r0, r4
 106 003c FFF7FEFF 		bl	mmcsd_get_slice
 107 0040 0136     		adds	r6, r6, #1
 108 0042 0235     		adds	r5, r5, #2
 109 0044 06FA05F5 		lsl	r5, r6, r5
 110 0048 0938     		subs	r0, r0, #9
 111 004a 05FA00F0 		lsl	r0, r5, r0
 112 004e 70BD     		pop	{r4, r5, r6, pc}
 113              		.size	mmcsdGetCapacity, .-mmcsdGetCapacity
ARM GAS  C:\Users\pc\AppData\Local\Temp\cco3lRxb.s 			page 3


 114              		.section	.rodata.str1.4,"aMS",%progbits,1
 115              		.align	2
 116              	.LC0:
 117 0000 226D6D63 		.ascii	"\"mmcsd_get_slice\"()\000"
 117      73645F67 
 117      65745F73 
 117      6C696365 
 117      22282900 
 118              	.LC1:
 119 0014 63686962 		.ascii	"chibios/os/hal/src/mmcsd.c\000"
 119      696F732F 
 119      6F732F68 
 119      616C2F73 
 119      72632F6D 
 120 002f 00       		.ident	"GCC: (Sourcery CodeBench Lite 2013.11-24) 4.8.1"
ARM GAS  C:\Users\pc\AppData\Local\Temp\cco3lRxb.s 			page 4


DEFINED SYMBOLS
                            *ABS*:00000000 mmcsd.c
C:\Users\pc\AppData\Local\Temp\cco3lRxb.s:17     .text.mmcsd_get_slice:00000000 $t
C:\Users\pc\AppData\Local\Temp\cco3lRxb.s:22     .text.mmcsd_get_slice:00000000 mmcsd_get_slice
C:\Users\pc\AppData\Local\Temp\cco3lRxb.s:116    .rodata.str1.4:00000000 .LC0
C:\Users\pc\AppData\Local\Temp\cco3lRxb.s:118    .rodata.str1.4:00000014 .LC1
C:\Users\pc\AppData\Local\Temp\cco3lRxb.s:68     .text.mmcsdGetCapacity:00000000 $t
C:\Users\pc\AppData\Local\Temp\cco3lRxb.s:74     .text.mmcsdGetCapacity:00000000 mmcsdGetCapacity
C:\Users\pc\AppData\Local\Temp\cco3lRxb.s:115    .rodata.str1.4:00000000 $d

UNDEFINED SYMBOLS
chDbgPanic3
