ARM GAS  C:\Users\pc\AppData\Local\Temp\ccxgHvXq.s 			page 1


   1              		.syntax unified
   2              		.cpu cortex-m4
   3              		.eabi_attribute 27, 3
   4              		.fpu fpv4-sp-d16
   5              		.eabi_attribute 20, 1
   6              		.eabi_attribute 21, 1
   7              		.eabi_attribute 23, 3
   8              		.eabi_attribute 24, 1
   9              		.eabi_attribute 25, 1
  10              		.eabi_attribute 26, 1
  11              		.eabi_attribute 30, 2
  12              		.eabi_attribute 34, 1
  13              		.eabi_attribute 18, 4
  14              		.thumb
  15              		.file	"nmea.c"
  16              		.section	.text.hex2int,"ax",%progbits
  17              		.align	2
  18              		.p2align 4,,15
  19              		.global	hex2int
  20              		.thumb
  21              		.thumb_func
  22              		.type	hex2int, %function
  23              	hex2int:
  24              		@ args = 0, pretend = 0, frame = 0
  25              		@ frame_needed = 0, uses_anonymous_args = 0
  26              		@ link register save eliminated.
  27 0000 0029     		cmp	r1, #0
  28 0002 30B4     		push	{r4, r5}
  29 0004 0546     		mov	r5, r0
  30 0006 11DD     		ble	.L6
  31 0008 4A1E     		subs	r2, r1, #1
  32 000a 0020     		movs	r0, #0
  33 000c 9200     		lsls	r2, r2, #2
  34 000e 0346     		mov	r3, r0
  35              	.L5:
  36 0010 EC5C     		ldrb	r4, [r5, r3]	@ zero_extendqisi2
  37 0012 392C     		cmp	r4, #57
  38 0014 94BF     		ite	ls
  39 0016 303C     		subls	r4, r4, #48
  40 0018 573C     		subhi	r4, r4, #87
  41 001a 0133     		adds	r3, r3, #1
  42 001c 9440     		lsls	r4, r4, r2
  43 001e 8B42     		cmp	r3, r1
  44 0020 2044     		add	r0, r0, r4
  45 0022 A2F10402 		sub	r2, r2, #4
  46 0026 F3D1     		bne	.L5
  47              	.L2:
  48 0028 30BC     		pop	{r4, r5}
  49 002a 7047     		bx	lr
  50              	.L6:
  51 002c 0020     		movs	r0, #0
  52 002e FBE7     		b	.L2
  53              		.size	hex2int, .-hex2int
  54              		.section	.text.str2int,"ax",%progbits
  55              		.align	2
  56              		.p2align 4,,15
  57              		.global	str2int
ARM GAS  C:\Users\pc\AppData\Local\Temp\ccxgHvXq.s 			page 2


  58              		.thumb
  59              		.thumb_func
  60              		.type	str2int, %function
  61              	str2int:
  62              		@ args = 0, pretend = 0, frame = 0
  63              		@ frame_needed = 0, uses_anonymous_args = 0
  64              		@ link register save eliminated.
  65 0000 0029     		cmp	r1, #0
  66 0002 10B4     		push	{r4}
  67 0004 0FDD     		ble	.L12
  68 0006 4418     		adds	r4, r0, r1
  69 0008 0023     		movs	r3, #0
  70              	.L11:
  71 000a 10F8012B 		ldrb	r2, [r0], #1	@ zero_extendqisi2
  72 000e 5900     		lsls	r1, r3, #1
  73 0010 01EBC303 		add	r3, r1, r3, lsl #3
  74 0014 1344     		add	r3, r3, r2
  75 0016 A042     		cmp	r0, r4
  76 0018 A3F13003 		sub	r3, r3, #48
  77 001c F5D1     		bne	.L11
  78              	.L10:
  79 001e 1846     		mov	r0, r3
  80 0020 5DF8044B 		ldr	r4, [sp], #4
  81 0024 7047     		bx	lr
  82              	.L12:
  83 0026 0023     		movs	r3, #0
  84 0028 F9E7     		b	.L10
  85              		.size	str2int, .-str2int
  86              		.global	__aeabi_f2d
  87              		.global	__aeabi_ddiv
  88              		.global	__aeabi_d2iz
  89              		.global	__aeabi_dmul
  90              		.global	__aeabi_d2f
  91 002a 00BFAFF3 		.section	.text.gps_deg_dec,"ax",%progbits
  91      0080
  92              		.align	2
  93              		.p2align 4,,15
  94              		.global	gps_deg_dec
  95              		.thumb
  96              		.thumb_func
  97              		.type	gps_deg_dec, %function
  98              	gps_deg_dec:
  99              		@ args = 0, pretend = 0, frame = 8
 100              		@ frame_needed = 0, uses_anonymous_args = 0
 101 0000 2DE9F043 		push	{r4, r5, r6, r7, r8, r9, lr}
 102 0004 2DED028B 		fstmfdd	sp!, {d8}
 103 0008 83B0     		sub	sp, sp, #12
 104 000a 08EE900A 		fmsr	s17, r0
 105 000e FFF7FEFF 		bl	__aeabi_f2d
 106 0012 6A46     		mov	r2, sp
 107 0014 FFF7FEFF 		bl	modf
 108 0018 0023     		movs	r3, #0
 109 001a 0022     		movs	r2, #0
 110 001c C4F25903 		movt	r3, 16473
 111 0020 8046     		mov	r8, r0
 112 0022 8946     		mov	r9, r1
 113 0024 DDE90001 		ldrd	r0, [sp]
ARM GAS  C:\Users\pc\AppData\Local\Temp\ccxgHvXq.s 			page 3


 114 0028 FFF7FEFF 		bl	__aeabi_ddiv
 115 002c FFF7FEFF 		bl	__aeabi_d2iz
 116 0030 07EE100A 		fmsr	s14, r0	@ int
 117 0034 9FED368A 		flds	s16, .L15+8
 118 0038 F8EEC77A 		fsitos	s15, s14
 119 003c 0646     		mov	r6, r0
 120 003e 67EE887A 		fmuls	s15, s15, s16
 121 0042 17EE900A 		fmrs	r0, s15
 122 0046 FFF7FEFF 		bl	__aeabi_f2d
 123 004a FFF7FEFF 		bl	round
 124 004e 6423     		movs	r3, #100
 125 0050 03FB06F6 		mul	r6, r3, r6
 126 0054 07EE106A 		fmsr	s14, r6	@ int
 127 0058 F8EEC77A 		fsitos	s15, s14
 128 005c 0446     		mov	r4, r0
 129 005e 78EEE78A 		fsubs	s17, s17, s15
 130 0062 0D46     		mov	r5, r1
 131 0064 FDEEE88A 		ftosizs	s17, s17
 132 0068 F8EEE88A 		fsitos	s17, s17
 133 006c 68EE888A 		fmuls	s17, s17, s16
 134 0070 18EE900A 		fmrs	r0, s17
 135 0074 FFF7FEFF 		bl	__aeabi_f2d
 136 0078 FFF7FEFF 		bl	round
 137 007c 0023     		movs	r3, #0
 138 007e 0646     		mov	r6, r0
 139 0080 0F46     		mov	r7, r1
 140 0082 4046     		mov	r0, r8
 141 0084 4946     		mov	r1, r9
 142 0086 0022     		movs	r2, #0
 143 0088 C4F24E03 		movt	r3, 16462
 144 008c FFF7FEFF 		bl	__aeabi_dmul
 145 0090 1DA3     		adr	r3, .L15
 146 0092 D3E90023 		ldrd	r2, [r3]
 147 0096 FFF7FEFF 		bl	__aeabi_dmul
 148 009a FFF7FEFF 		bl	round
 149 009e 8046     		mov	r8, r0
 150 00a0 8946     		mov	r9, r1
 151 00a2 3046     		mov	r0, r6
 152 00a4 3946     		mov	r1, r7
 153 00a6 FFF7FEFF 		bl	__aeabi_d2f
 154 00aa DFED1A7A 		flds	s15, .L15+12
 155 00ae 07EE100A 		fmsr	s14, r0
 156 00b2 87EE278A 		fdivs	s16, s14, s15
 157 00b6 2946     		mov	r1, r5
 158 00b8 2046     		mov	r0, r4
 159 00ba FFF7FEFF 		bl	__aeabi_d2f
 160 00be 4946     		mov	r1, r9
 161 00c0 07EE900A 		fmsr	s15, r0
 162 00c4 4046     		mov	r0, r8
 163 00c6 38EE278A 		fadds	s16, s16, s15
 164 00ca FFF7FEFF 		bl	__aeabi_d2f
 165 00ce DFED127A 		flds	s15, .L15+16
 166 00d2 07EE100A 		fmsr	s14, r0
 167 00d6 C7EE277A 		fdivs	s15, s14, s15
 168 00da 78EE277A 		fadds	s15, s16, s15
 169 00de 17EE900A 		fmrs	r0, s15
 170 00e2 FFF7FEFF 		bl	__aeabi_f2d
ARM GAS  C:\Users\pc\AppData\Local\Temp\ccxgHvXq.s 			page 4


 171 00e6 FFF7FEFF 		bl	round
 172 00ea 07A3     		adr	r3, .L15
 173 00ec D3E90023 		ldrd	r2, [r3]
 174 00f0 FFF7FEFF 		bl	__aeabi_ddiv
 175 00f4 FFF7FEFF 		bl	__aeabi_d2f
 176 00f8 03B0     		add	sp, sp, #12
 177              		@ sp needed
 178 00fa BDEC028B 		fldmfdd	sp!, {d8}
 179 00fe BDE8F083 		pop	{r4, r5, r6, r7, r8, r9, pc}
 180              	.L16:
 181 0102 00BFAFF3 		.align	3
 181      0080
 182              	.L15:
 183 0108 00000000 		.word	0
 184 010c 80842E41 		.word	1093567616
 185 0110 00247449 		.word	1232348160
 186 0114 00007042 		.word	1114636288
 187 0118 00006145 		.word	1163984896
 188              		.size	gps_deg_dec, .-gps_deg_dec
 189 011c AFF30080 		.section	.text.gps_convert_deg_to_dec,"ax",%progbits
 190              		.align	2
 191              		.p2align 4,,15
 192              		.global	gps_convert_deg_to_dec
 193              		.thumb
 194              		.thumb_func
 195              		.type	gps_convert_deg_to_dec, %function
 196              	gps_convert_deg_to_dec:
 197              		@ args = 0, pretend = 0, frame = 0
 198              		@ frame_needed = 0, uses_anonymous_args = 0
 199 0000 4E29     		cmp	r1, #78
 200 0002 70B5     		push	{r4, r5, r6, lr}
 201 0004 0446     		mov	r4, r0
 202 0006 1DBF     		ittte	ne
 203 0008 D4ED007A 		fldsne	s15, [r4]
 204 000c F1EE677A 		fnegsne	s15, s15
 205 0010 17EE900A 		fmrsne	r0, s15
 206 0014 0068     		ldreq	r0, [r0]	@ float
 207 0016 452B     		cmp	r3, #69
 208 0018 1CBF     		itt	ne
 209 001a D2ED007A 		fldsne	s15, [r2]
 210 001e F1EE677A 		fnegsne	s15, s15
 211 0022 1546     		mov	r5, r2
 212 0024 0CBF     		ite	eq
 213 0026 1668     		ldreq	r6, [r2]	@ float
 214 0028 17EE906A 		fmrsne	r6, s15
 215 002c FFF7FEFF 		bl	gps_deg_dec
 216 0030 2060     		str	r0, [r4]	@ float
 217 0032 3046     		mov	r0, r6	@ float
 218 0034 FFF7FEFF 		bl	gps_deg_dec
 219 0038 2860     		str	r0, [r5]	@ float
 220 003a 70BD     		pop	{r4, r5, r6, pc}
 221              		.size	gps_convert_deg_to_dec, .-gps_convert_deg_to_dec
 222 003c AFF30080 		.section	.text.str_till_comma,"ax",%progbits
 223              		.align	2
 224              		.p2align 4,,15
 225              		.global	str_till_comma
 226              		.thumb
ARM GAS  C:\Users\pc\AppData\Local\Temp\ccxgHvXq.s 			page 5


 227              		.thumb_func
 228              		.type	str_till_comma, %function
 229              	str_till_comma:
 230              		@ args = 0, pretend = 0, frame = 0
 231              		@ frame_needed = 0, uses_anonymous_args = 0
 232 0000 38B5     		push	{r3, r4, r5, lr}
 233 0002 0446     		mov	r4, r0
 234 0004 0D46     		mov	r5, r1
 235 0006 FFF7FEFF 		bl	strlen
 236 000a 2378     		ldrb	r3, [r4]	@ zero_extendqisi2
 237 000c B0F5807F 		cmp	r0, #256
 238 0010 B4BF     		ite	lt
 239 0012 0146     		movlt	r1, r0
 240 0014 4FF48071 		movge	r1, #256
 241 0018 0022     		movs	r2, #0
 242 001a 2C2B     		cmp	r3, #44
 243 001c 1046     		mov	r0, r2
 244 001e 0BD0     		beq	.L23
 245 0020 0029     		cmp	r1, #0
 246 0022 02DC     		bgt	.L24
 247 0024 08E0     		b	.L23
 248              	.L31:
 249 0026 8842     		cmp	r0, r1
 250 0028 06D0     		beq	.L23
 251              	.L24:
 252 002a AB54     		strb	r3, [r5, r2]
 253 002c 14F8013F 		ldrb	r3, [r4, #1]!	@ zero_extendqisi2
 254 0030 0130     		adds	r0, r0, #1
 255 0032 2C2B     		cmp	r3, #44
 256 0034 0246     		mov	r2, r0
 257 0036 F6D1     		bne	.L31
 258              	.L23:
 259 0038 0023     		movs	r3, #0
 260 003a AB54     		strb	r3, [r5, r2]
 261 003c 38BD     		pop	{r3, r4, r5, pc}
 262              		.size	str_till_comma, .-str_till_comma
 263 003e 00BF     		.section	.text.nmea_parse_gpgga,"ax",%progbits
 264              		.align	2
 265              		.p2align 4,,15
 266              		.global	nmea_parse_gpgga
 267              		.thumb
 268              		.thumb_func
 269              		.type	nmea_parse_gpgga, %function
 270              	nmea_parse_gpgga:
 271              		@ args = 0, pretend = 0, frame = 256
 272              		@ frame_needed = 0, uses_anonymous_args = 0
 273 0000 70B5     		push	{r4, r5, r6, lr}
 274 0002 0D46     		mov	r5, r1
 275 0004 C0B0     		sub	sp, sp, #256
 276 0006 2C21     		movs	r1, #44
 277 0008 FFF7FEFF 		bl	strchr
 278 000c 2C21     		movs	r1, #44
 279 000e 0130     		adds	r0, r0, #1
 280 0010 FFF7FEFF 		bl	strchr
 281 0014 0446     		mov	r4, r0
 282 0016 461C     		adds	r6, r0, #1
 283 0018 3046     		mov	r0, r6
ARM GAS  C:\Users\pc\AppData\Local\Temp\ccxgHvXq.s 			page 6


 284 001a 6946     		mov	r1, sp
 285 001c FFF7FEFF 		bl	str_till_comma
 286 0020 6378     		ldrb	r3, [r4, #1]	@ zero_extendqisi2
 287 0022 0BB9     		cbnz	r3, .L48
 288 0024 40B0     		add	sp, sp, #256
 289              		@ sp needed
 290 0026 70BD     		pop	{r4, r5, r6, pc}
 291              	.L48:
 292 0028 6846     		mov	r0, sp
 293 002a FFF7FEFF 		bl	atoff
 294 002e 2C21     		movs	r1, #44
 295 0030 2860     		str	r0, [r5]	@ float
 296 0032 3046     		mov	r0, r6
 297 0034 FFF7FEFF 		bl	strchr
 298 0038 0346     		mov	r3, r0
 299 003a 0130     		adds	r0, r0, #1
 300 003c 5B78     		ldrb	r3, [r3, #1]	@ zero_extendqisi2
 301 003e 4E2B     		cmp	r3, #78
 302 0040 04D0     		beq	.L46
 303 0042 532B     		cmp	r3, #83
 304 0044 02D0     		beq	.L46
 305 0046 2C2B     		cmp	r3, #44
 306 0048 02D1     		bne	.L34
 307 004a 0023     		movs	r3, #0
 308              	.L46:
 309 004c 85F84C30 		strb	r3, [r5, #76]
 310              	.L34:
 311 0050 2C21     		movs	r1, #44
 312 0052 FFF7FEFF 		bl	strchr
 313 0056 441C     		adds	r4, r0, #1
 314 0058 6946     		mov	r1, sp
 315 005a 2046     		mov	r0, r4
 316 005c FFF7FEFF 		bl	str_till_comma
 317 0060 6846     		mov	r0, sp
 318 0062 FFF7FEFF 		bl	atoff
 319 0066 2C21     		movs	r1, #44
 320 0068 6860     		str	r0, [r5, #4]	@ float
 321 006a 2046     		mov	r0, r4
 322 006c FFF7FEFF 		bl	strchr
 323 0070 0346     		mov	r3, r0
 324 0072 0130     		adds	r0, r0, #1
 325 0074 5B78     		ldrb	r3, [r3, #1]	@ zero_extendqisi2
 326 0076 452B     		cmp	r3, #69
 327 0078 04D0     		beq	.L47
 328 007a 572B     		cmp	r3, #87
 329 007c 02D0     		beq	.L47
 330 007e 2C2B     		cmp	r3, #44
 331 0080 02D1     		bne	.L38
 332 0082 0023     		movs	r3, #0
 333              	.L47:
 334 0084 85F84D30 		strb	r3, [r5, #77]
 335              	.L38:
 336 0088 2C21     		movs	r1, #44
 337 008a FFF7FEFF 		bl	strchr
 338 008e 441C     		adds	r4, r0, #1
 339 0090 6946     		mov	r1, sp
 340 0092 2046     		mov	r0, r4
ARM GAS  C:\Users\pc\AppData\Local\Temp\ccxgHvXq.s 			page 7


 341 0094 FFF7FEFF 		bl	str_till_comma
 342 0098 6846     		mov	r0, sp
 343 009a FFF7FEFF 		bl	atoi
 344 009e 2C21     		movs	r1, #44
 345 00a0 6864     		str	r0, [r5, #68]
 346 00a2 2046     		mov	r0, r4
 347 00a4 FFF7FEFF 		bl	strchr
 348 00a8 441C     		adds	r4, r0, #1
 349 00aa 6946     		mov	r1, sp
 350 00ac 2046     		mov	r0, r4
 351 00ae FFF7FEFF 		bl	str_till_comma
 352 00b2 6846     		mov	r0, sp
 353 00b4 FFF7FEFF 		bl	atoi
 354 00b8 2C21     		movs	r1, #44
 355 00ba A864     		str	r0, [r5, #72]
 356 00bc 2046     		mov	r0, r4
 357 00be FFF7FEFF 		bl	strchr
 358 00c2 2C21     		movs	r1, #44
 359 00c4 0130     		adds	r0, r0, #1
 360 00c6 FFF7FEFF 		bl	strchr
 361 00ca 6946     		mov	r1, sp
 362 00cc 0130     		adds	r0, r0, #1
 363 00ce FFF7FEFF 		bl	str_till_comma
 364 00d2 6846     		mov	r0, sp
 365 00d4 FFF7FEFF 		bl	atoff
 366 00d8 E860     		str	r0, [r5, #12]	@ float
 367 00da 40B0     		add	sp, sp, #256
 368              		@ sp needed
 369 00dc 70BD     		pop	{r4, r5, r6, pc}
 370              		.size	nmea_parse_gpgga, .-nmea_parse_gpgga
 371 00de 00BF     		.section	.text.nmea_parse_gprmc,"ax",%progbits
 372              		.align	2
 373              		.p2align 4,,15
 374              		.global	nmea_parse_gprmc
 375              		.thumb
 376              		.thumb_func
 377              		.type	nmea_parse_gprmc, %function
 378              	nmea_parse_gprmc:
 379              		@ args = 0, pretend = 0, frame = 304
 380              		@ frame_needed = 0, uses_anonymous_args = 0
 381 0000 2DE9F041 		push	{r4, r5, r6, r7, r8, lr}
 382 0004 0C46     		mov	r4, r1
 383 0006 CCB0     		sub	sp, sp, #304
 384 0008 2C21     		movs	r1, #44
 385 000a FFF7FEFF 		bl	strchr
 386 000e 451C     		adds	r5, r0, #1
 387 0010 0CA9     		add	r1, sp, #48
 388 0012 2846     		mov	r0, r5
 389 0014 FFF7FEFF 		bl	str_till_comma
 390 0018 0CA8     		add	r0, sp, #48
 391 001a FFF7FEFF 		bl	strlen
 392 001e 0528     		cmp	r0, #5
 393 0020 23D9     		bls	.L50
 394 0022 9DF83010 		ldrb	r1, [sp, #48]	@ zero_extendqisi2
 395 0026 9DF83220 		ldrb	r2, [sp, #50]	@ zero_extendqisi2
 396 002a 9DF83430 		ldrb	r3, [sp, #52]	@ zero_extendqisi2
 397 002e 9DF83170 		ldrb	r7, [sp, #49]	@ zero_extendqisi2
ARM GAS  C:\Users\pc\AppData\Local\Temp\ccxgHvXq.s 			page 8


 398 0032 9DF83360 		ldrb	r6, [sp, #51]	@ zero_extendqisi2
 399 0036 9DF83500 		ldrb	r0, [sp, #53]	@ zero_extendqisi2
 400 003a 3039     		subs	r1, r1, #48
 401 003c 303A     		subs	r2, r2, #48
 402 003e 303B     		subs	r3, r3, #48
 403 0040 4FEA4108 		lsl	r8, r1, #1
 404 0044 4FEA420C 		lsl	ip, r2, #1
 405 0048 4FEA430E 		lsl	lr, r3, #1
 406 004c 08EBC101 		add	r1, r8, r1, lsl #3
 407 0050 0CEBC202 		add	r2, ip, r2, lsl #3
 408 0054 0EEBC303 		add	r3, lr, r3, lsl #3
 409 0058 3944     		add	r1, r1, r7
 410 005a 3244     		add	r2, r2, r6
 411 005c 0344     		add	r3, r3, r0
 412 005e 3039     		subs	r1, r1, #48
 413 0060 303A     		subs	r2, r2, #48
 414 0062 303B     		subs	r3, r3, #48
 415 0064 0391     		str	r1, [sp, #12]
 416 0066 0292     		str	r2, [sp, #8]
 417 0068 0193     		str	r3, [sp, #4]
 418              	.L50:
 419 006a 2846     		mov	r0, r5
 420 006c 2C21     		movs	r1, #44
 421 006e FFF7FEFF 		bl	strchr
 422 0072 451C     		adds	r5, r0, #1
 423 0074 2846     		mov	r0, r5
 424 0076 0CA9     		add	r1, sp, #48
 425 0078 FFF7FEFF 		bl	str_till_comma
 426 007c 9DF83030 		ldrb	r3, [sp, #48]	@ zero_extendqisi2
 427 0080 562B     		cmp	r3, #86
 428 0082 04BF     		itt	eq
 429 0084 0023     		moveq	r3, #0
 430 0086 6364     		streq	r3, [r4, #68]
 431 0088 70D0     		beq	.L49
 432 008a 0423     		movs	r3, #4
 433 008c 6364     		str	r3, [r4, #68]
 434 008e 2846     		mov	r0, r5
 435 0090 2C21     		movs	r1, #44
 436 0092 FFF7FEFF 		bl	strchr
 437 0096 451C     		adds	r5, r0, #1
 438 0098 0CA9     		add	r1, sp, #48
 439 009a 2846     		mov	r0, r5
 440 009c FFF7FEFF 		bl	str_till_comma
 441 00a0 0CA8     		add	r0, sp, #48
 442 00a2 FFF7FEFF 		bl	atoff
 443 00a6 2C21     		movs	r1, #44
 444 00a8 2060     		str	r0, [r4]	@ float
 445 00aa 2846     		mov	r0, r5
 446 00ac FFF7FEFF 		bl	strchr
 447 00b0 0346     		mov	r3, r0
 448 00b2 0130     		adds	r0, r0, #1
 449 00b4 5B78     		ldrb	r3, [r3, #1]	@ zero_extendqisi2
 450 00b6 4E2B     		cmp	r3, #78
 451 00b8 5CD0     		beq	.L66
 452 00ba 532B     		cmp	r3, #83
 453 00bc 5AD0     		beq	.L66
 454 00be 2C2B     		cmp	r3, #44
ARM GAS  C:\Users\pc\AppData\Local\Temp\ccxgHvXq.s 			page 9


 455 00c0 57D0     		beq	.L68
 456              	.L53:
 457 00c2 2C21     		movs	r1, #44
 458 00c4 FFF7FEFF 		bl	strchr
 459 00c8 451C     		adds	r5, r0, #1
 460 00ca 0CA9     		add	r1, sp, #48
 461 00cc 2846     		mov	r0, r5
 462 00ce FFF7FEFF 		bl	str_till_comma
 463 00d2 0CA8     		add	r0, sp, #48
 464 00d4 FFF7FEFF 		bl	atoff
 465 00d8 2C21     		movs	r1, #44
 466 00da 6060     		str	r0, [r4, #4]	@ float
 467 00dc 2846     		mov	r0, r5
 468 00de FFF7FEFF 		bl	strchr
 469 00e2 0346     		mov	r3, r0
 470 00e4 0130     		adds	r0, r0, #1
 471 00e6 5B78     		ldrb	r3, [r3, #1]	@ zero_extendqisi2
 472 00e8 452B     		cmp	r3, #69
 473 00ea 47D0     		beq	.L67
 474 00ec 572B     		cmp	r3, #87
 475 00ee 45D0     		beq	.L67
 476 00f0 2C2B     		cmp	r3, #44
 477 00f2 42D0     		beq	.L69
 478              	.L57:
 479 00f4 2C21     		movs	r1, #44
 480 00f6 FFF7FEFF 		bl	strchr
 481 00fa 451C     		adds	r5, r0, #1
 482 00fc 0CA9     		add	r1, sp, #48
 483 00fe 2846     		mov	r0, r5
 484 0100 FFF7FEFF 		bl	str_till_comma
 485 0104 0CA8     		add	r0, sp, #48
 486 0106 FFF7FEFF 		bl	atoff
 487 010a 2C21     		movs	r1, #44
 488 010c A060     		str	r0, [r4, #8]	@ float
 489 010e 2846     		mov	r0, r5
 490 0110 FFF7FEFF 		bl	strchr
 491 0114 451C     		adds	r5, r0, #1
 492 0116 0CA9     		add	r1, sp, #48
 493 0118 2846     		mov	r0, r5
 494 011a FFF7FEFF 		bl	str_till_comma
 495 011e 0CA8     		add	r0, sp, #48
 496 0120 FFF7FEFF 		bl	atoff
 497 0124 2C21     		movs	r1, #44
 498 0126 2061     		str	r0, [r4, #16]	@ float
 499 0128 2846     		mov	r0, r5
 500 012a FFF7FEFF 		bl	strchr
 501 012e 0CA9     		add	r1, sp, #48
 502 0130 0130     		adds	r0, r0, #1
 503 0132 FFF7FEFF 		bl	str_till_comma
 504 0136 0CA8     		add	r0, sp, #48
 505 0138 FFF7FEFF 		bl	strlen
 506 013c 0528     		cmp	r0, #5
 507 013e 20D8     		bhi	.L61
 508 0140 01AB     		add	r3, sp, #4
 509 0142 5A69     		ldr	r2, [r3, #20]
 510              	.L62:
 511 0144 002A     		cmp	r2, #0
ARM GAS  C:\Users\pc\AppData\Local\Temp\ccxgHvXq.s 			page 10


 512 0146 11DD     		ble	.L49
 513 0148 1E46     		mov	r6, r3
 514 014a 1434     		adds	r4, r4, #20
 515 014c 09AF     		add	r7, sp, #36
 516              	.L64:
 517 014e 3546     		mov	r5, r6
 518 0150 0FCD     		ldmia	r5!, {r0, r1, r2, r3}
 519 0152 BD42     		cmp	r5, r7
 520 0154 2060     		str	r0, [r4]	@ unaligned
 521 0156 6160     		str	r1, [r4, #4]	@ unaligned
 522 0158 A260     		str	r2, [r4, #8]	@ unaligned
 523 015a E360     		str	r3, [r4, #12]	@ unaligned
 524 015c 2E46     		mov	r6, r5
 525 015e 04F11004 		add	r4, r4, #16
 526 0162 F4D1     		bne	.L64
 527 0164 07CE     		ldmia	r6!, {r0, r1, r2}
 528 0166 2060     		str	r0, [r4]	@ unaligned
 529 0168 6160     		str	r1, [r4, #4]	@ unaligned
 530 016a A260     		str	r2, [r4, #8]	@ unaligned
 531              	.L49:
 532 016c 4CB0     		add	sp, sp, #304
 533              		@ sp needed
 534 016e BDE8F081 		pop	{r4, r5, r6, r7, r8, pc}
 535              	.L68:
 536 0172 0023     		movs	r3, #0
 537              	.L66:
 538 0174 84F84C30 		strb	r3, [r4, #76]
 539 0178 A3E7     		b	.L53
 540              	.L69:
 541 017a 0023     		movs	r3, #0
 542              	.L67:
 543 017c 84F84D30 		strb	r3, [r4, #77]
 544 0180 B8E7     		b	.L57
 545              	.L61:
 546 0182 9DF83000 		ldrb	r0, [sp, #48]	@ zero_extendqisi2
 547 0186 9DF83210 		ldrb	r1, [sp, #50]	@ zero_extendqisi2
 548 018a 9DF83430 		ldrb	r3, [sp, #52]	@ zero_extendqisi2
 549 018e 9DF83170 		ldrb	r7, [sp, #49]	@ zero_extendqisi2
 550 0192 9DF83360 		ldrb	r6, [sp, #51]	@ zero_extendqisi2
 551 0196 9DF83550 		ldrb	r5, [sp, #53]	@ zero_extendqisi2
 552 019a 303B     		subs	r3, r3, #48
 553 019c 3038     		subs	r0, r0, #48
 554 019e 3039     		subs	r1, r1, #48
 555 01a0 5A00     		lsls	r2, r3, #1
 556 01a2 4FEA4008 		lsl	r8, r0, #1
 557 01a6 4FEA410C 		lsl	ip, r1, #1
 558 01aa 02EBC302 		add	r2, r2, r3, lsl #3
 559 01ae 08EBC000 		add	r0, r8, r0, lsl #3
 560 01b2 0CEBC101 		add	r1, ip, r1, lsl #3
 561 01b6 3844     		add	r0, r0, r7
 562 01b8 3144     		add	r1, r1, r6
 563 01ba 2A44     		add	r2, r2, r5
 564 01bc 3038     		subs	r0, r0, #48
 565 01be 3039     		subs	r1, r1, #48
 566 01c0 3432     		adds	r2, r2, #52
 567 01c2 01AB     		add	r3, sp, #4
 568 01c4 0490     		str	r0, [sp, #16]
ARM GAS  C:\Users\pc\AppData\Local\Temp\ccxgHvXq.s 			page 11


 569 01c6 0591     		str	r1, [sp, #20]
 570 01c8 0692     		str	r2, [sp, #24]
 571 01ca BBE7     		b	.L62
 572              		.size	nmea_parse_gprmc, .-nmea_parse_gprmc
 573 01cc AFF30080 		.section	.text.nmea_valid_checksum,"ax",%progbits
 574              		.align	2
 575              		.p2align 4,,15
 576              		.global	nmea_valid_checksum
 577              		.thumb
 578              		.thumb_func
 579              		.type	nmea_valid_checksum, %function
 580              	nmea_valid_checksum:
 581              		@ args = 0, pretend = 0, frame = 0
 582              		@ frame_needed = 0, uses_anonymous_args = 0
 583 0000 10B5     		push	{r4, lr}
 584 0002 2A21     		movs	r1, #42
 585 0004 0446     		mov	r4, r0
 586 0006 FFF7FEFF 		bl	strrchr
 587 000a 88B1     		cbz	r0, .L75
 588 000c 0221     		movs	r1, #2
 589 000e 0130     		adds	r0, r0, #1
 590 0010 FFF7FEFF 		bl	hex2int
 591 0014 6378     		ldrb	r3, [r4, #1]	@ zero_extendqisi2
 592 0016 2A2B     		cmp	r3, #42
 593 0018 04F10201 		add	r1, r4, #2
 594 001c 4FF00002 		mov	r2, #0
 595 0020 04D0     		beq	.L73
 596              	.L74:
 597 0022 5A40     		eors	r2, r2, r3
 598 0024 11F8013B 		ldrb	r3, [r1], #1	@ zero_extendqisi2
 599 0028 2A2B     		cmp	r3, #42
 600 002a FAD1     		bne	.L74
 601              	.L73:
 602 002c 8242     		cmp	r2, r0
 603 002e 01D0     		beq	.L80
 604              	.L75:
 605 0030 8020     		movs	r0, #128
 606 0032 10BD     		pop	{r4, pc}
 607              	.L80:
 608 0034 0020     		movs	r0, #0
 609 0036 10BD     		pop	{r4, pc}
 610              		.size	nmea_valid_checksum, .-nmea_valid_checksum
 611 0038 AFF30080 		.section	.text.nmea_get_message_type,"ax",%progbits
 611      AFF30080 
 612              		.align	2
 613              		.p2align 4,,15
 614              		.global	nmea_get_message_type
 615              		.thumb
 616              		.thumb_func
 617              		.type	nmea_get_message_type, %function
 618              	nmea_get_message_type:
 619              		@ args = 0, pretend = 0, frame = 0
 620              		@ frame_needed = 0, uses_anonymous_args = 0
 621 0000 10B5     		push	{r4, lr}
 622 0002 0446     		mov	r4, r0
 623 0004 FFF7FEFF 		bl	nmea_valid_checksum
 624 0008 48B9     		cbnz	r0, .L85
ARM GAS  C:\Users\pc\AppData\Local\Temp\ccxgHvXq.s 			page 12


 625 000a 40F20001 		movw	r1, #:lower16:.LC0
 626 000e C0F20001 		movt	r1, #:upper16:.LC0
 627 0012 2046     		mov	r0, r4
 628 0014 FFF7FEFF 		bl	strstr
 629 0018 18B1     		cbz	r0, .L86
 630 001a 0220     		movs	r0, #2
 631 001c 10BD     		pop	{r4, pc}
 632              	.L85:
 633 001e C0B2     		uxtb	r0, r0
 634 0020 10BD     		pop	{r4, pc}
 635              	.L86:
 636 0022 40F20001 		movw	r1, #:lower16:.LC1
 637 0026 2046     		mov	r0, r4
 638 0028 C0F20001 		movt	r1, #:upper16:.LC1
 639 002c FFF7FEFF 		bl	strstr
 640 0030 0030     		adds	r0, r0, #0
 641 0032 18BF     		it	ne
 642 0034 0120     		movne	r0, #1
 643 0036 10BD     		pop	{r4, pc}
 644              		.size	nmea_get_message_type, .-nmea_get_message_type
 645 0038 AFF30080 		.section	.text.gps_location,"ax",%progbits
 645      AFF30080 
 646              		.align	2
 647              		.p2align 4,,15
 648              		.global	gps_location
 649              		.thumb
 650              		.thumb_func
 651              		.type	gps_location, %function
 652              	gps_location:
 653              		@ args = 0, pretend = 0, frame = 0
 654              		@ frame_needed = 0, uses_anonymous_args = 0
 655 0000 70B5     		push	{r4, r5, r6, lr}
 656 0002 0446     		mov	r4, r0
 657 0004 0846     		mov	r0, r1
 658 0006 0D46     		mov	r5, r1
 659 0008 FFF7FEFF 		bl	nmea_get_message_type
 660 000c 0128     		cmp	r0, #1
 661 000e 84F84000 		strb	r0, [r4, #64]
 662 0012 10D0     		beq	.L89
 663 0014 0228     		cmp	r0, #2
 664 0016 0DD1     		bne	.L91
 665 0018 2846     		mov	r0, r5
 666 001a 2146     		mov	r1, r4
 667 001c FFF7FEFF 		bl	nmea_parse_gpgga
 668 0020 2046     		mov	r0, r4
 669 0022 221D     		adds	r2, r4, #4
 670 0024 94F84C10 		ldrb	r1, [r4, #76]	@ zero_extendqisi2
 671 0028 94F84D30 		ldrb	r3, [r4, #77]	@ zero_extendqisi2
 672 002c BDE87040 		pop	{r4, r5, r6, lr}
 673 0030 FFF7FEBF 		b	gps_convert_deg_to_dec
 674              	.L91:
 675 0034 70BD     		pop	{r4, r5, r6, pc}
 676              	.L89:
 677 0036 2846     		mov	r0, r5
 678 0038 2146     		mov	r1, r4
 679 003a BDE87040 		pop	{r4, r5, r6, lr}
 680 003e FFF7FEBF 		b	nmea_parse_gprmc
ARM GAS  C:\Users\pc\AppData\Local\Temp\ccxgHvXq.s 			page 13


 681              		.size	gps_location, .-gps_location
 682 0042 00BFAFF3 		.section	.rodata.str1.4,"aMS",%progbits,1
 682      0080AFF3 
 682      0080AFF3 
 682      0080
 683              		.align	2
 684              	.LC0:
 685 0000 24475047 		.ascii	"$GPGGA\000"
 685      474100
 686 0007 00       		.space	1
 687              	.LC1:
 688 0008 24475052 		.ascii	"$GPRMC\000"
 688      4D4300
 689 000f 00       		.ident	"GCC: (Sourcery CodeBench Lite 2013.11-24) 4.8.1"
ARM GAS  C:\Users\pc\AppData\Local\Temp\ccxgHvXq.s 			page 14

