ARM GAS  C:\Users\pc\AppData\Local\Temp\cchegMgE.s 			page 1


   1              		.syntax unified
   2              		.cpu cortex-m4
   3              		.eabi_attribute 27, 3
   4              		.fpu fpv4-sp-d16
   5              		.eabi_attribute 20, 1
   6              		.eabi_attribute 21, 1
   7              		.eabi_attribute 23, 3
   8              		.eabi_attribute 24, 1
   9              		.eabi_attribute 25, 1
  10              		.eabi_attribute 26, 1
  11              		.eabi_attribute 30, 2
  12              		.eabi_attribute 34, 1
  13              		.eabi_attribute 18, 4
  14              		.thumb
  15              		.file	"obd2.cpp"
  16              		.section	.text._Z16obdOnCanPacketRxP10CANRxFrame,"ax",%progbits
  17              		.align	2
  18              		.p2align 4,,15
  19              		.global	_Z16obdOnCanPacketRxP10CANRxFrame
  20              		.thumb
  21              		.thumb_func
  22              		.type	_Z16obdOnCanPacketRxP10CANRxFrame, %function
  23              	_Z16obdOnCanPacketRxP10CANRxFrame:
  24              		@ args = 0, pretend = 0, frame = 0
  25              		@ frame_needed = 0, uses_anonymous_args = 0
  26 0000 38B5     		push	{r3, r4, r5, lr}
  27 0002 0289     		ldrh	r2, [r0, #8]
  28 0004 40F2DF73 		movw	r3, #2015
  29 0008 C2F30A02 		ubfx	r2, r2, #0, #11
  30 000c 9A42     		cmp	r2, r3
  31 000e 00D0     		beq	.L14
  32 0010 38BD     		pop	{r3, r4, r5, pc}
  33              	.L14:
  34 0012 8389     		ldrh	r3, [r0, #12]
  35 0014 B3F5817F 		cmp	r3, #258
  36 0018 19D0     		beq	.L15
  37 001a 40F20132 		movw	r2, #769
  38 001e 9342     		cmp	r3, r2
  39 0020 40F20000 		movw	r0, #:lower16:.LANCHOR0
  40 0024 09D0     		beq	.L16
  41 0026 40F20001 		movw	r1, #:lower16:.LC9
  42 002a C0F20000 		movt	r0, #:upper16:.LANCHOR0
  43 002e C0F20001 		movt	r1, #:upper16:.LC9
  44 0032 BDE83840 		pop	{r3, r4, r5, lr}
  45 0036 FFF7FEBF 		b	scheduleMsg
  46              	.L16:
  47 003a 40F20001 		movw	r1, #:lower16:.LC8
  48 003e C0F20000 		movt	r0, #:upper16:.LANCHOR0
  49 0042 C0F20001 		movt	r1, #:upper16:.LC8
  50 0046 BDE83840 		pop	{r3, r4, r5, lr}
  51 004a FFF7FEBF 		b	scheduleMsg
  52              	.L15:
  53 004e 847B     		ldrb	r4, [r0, #14]	@ zero_extendqisi2
  54 0050 40F20000 		movw	r0, #:lower16:.LANCHOR0
  55 0054 C4B1     		cbz	r4, .L17
  56 0056 052C     		cmp	r4, #5
  57 0058 62D0     		beq	.L18
ARM GAS  C:\Users\pc\AppData\Local\Temp\cchegMgE.s 			page 2


  58 005a 0C2C     		cmp	r4, #12
  59 005c 74D0     		beq	.L19
  60 005e 0E2C     		cmp	r4, #14
  61 0060 00F08F80 		beq	.L20
  62 0064 0D2C     		cmp	r4, #13
  63 0066 00F09680 		beq	.L21
  64 006a 0A2C     		cmp	r4, #10
  65 006c 00F0AF80 		beq	.L22
  66 0070 0B2C     		cmp	r4, #11
  67 0072 3AD0     		beq	.L23
  68 0074 40F20001 		movw	r1, #:lower16:.LC7
  69 0078 C0F20000 		movt	r0, #:upper16:.LANCHOR0
  70 007c C0F20001 		movt	r1, #:upper16:.LC7
  71 0080 BDE83840 		pop	{r3, r4, r5, lr}
  72 0084 FFF7FEBF 		b	scheduleMsg
  73              	.L17:
  74 0088 40F20001 		movw	r1, #:lower16:.LC0
  75 008c C0F20001 		movt	r1, #:upper16:.LC0
  76 0090 C0F20000 		movt	r0, #:upper16:.LANCHOR0
  77 0094 FFF7FEFF 		bl	scheduleMsg
  78 0098 4FF4FD60 		mov	r0, #2024
  79 009c FFF7FEFF 		bl	_Z12commonTxIniti
  80 00a0 40F20003 		movw	r3, #:lower16:txmsg
  81 00a4 C0F20003 		movt	r3, #:upper16:txmsg
  82 00a8 4122     		movs	r2, #65
  83 00aa 0625     		movs	r5, #6
  84 00ac 0320     		movs	r0, #3
  85 00ae 0421     		movs	r1, #4
  86 00b0 9C72     		strb	r4, [r3, #10]
  87 00b2 1D72     		strb	r5, [r3, #8]
  88 00b4 5A72     		strb	r2, [r3, #9]
  89 00b6 FFF7FEFF 		bl	_Z8setTxBitii
  90 00ba 0320     		movs	r0, #3
  91 00bc 0146     		mov	r1, r0
  92 00be FFF7FEFF 		bl	_Z8setTxBitii
  93 00c2 0420     		movs	r0, #4
  94 00c4 0146     		mov	r1, r0
  95 00c6 FFF7FEFF 		bl	_Z8setTxBitii
  96 00ca 0420     		movs	r0, #4
  97 00cc 0221     		movs	r1, #2
  98 00ce FFF7FEFF 		bl	_Z8setTxBitii
  99 00d2 0420     		movs	r0, #4
 100 00d4 0121     		movs	r1, #1
 101 00d6 FFF7FEFF 		bl	_Z8setTxBitii
 102 00da 0520     		movs	r0, #5
 103 00dc 0721     		movs	r1, #7
 104 00de FFF7FEFF 		bl	_Z8setTxBitii
 105 00e2 BDE83840 		pop	{r3, r4, r5, lr}
 106 00e6 FFF7FEBF 		b	_Z11sendMessagev
 107              	.L23:
 108 00ea 40F20001 		movw	r1, #:lower16:.LC6
 109 00ee C0F20001 		movt	r1, #:upper16:.LC6
 110 00f2 C0F20000 		movt	r0, #:upper16:.LANCHOR0
 111 00f6 FFF7FEFF 		bl	scheduleMsg
 112 00fa 4FF4FD60 		mov	r0, #2024
 113 00fe FFF7FEFF 		bl	_Z12commonTxIniti
 114 0102 40F20003 		movw	r3, #:lower16:txmsg
ARM GAS  C:\Users\pc\AppData\Local\Temp\cchegMgE.s 			page 3


 115 0106 C0F20003 		movt	r3, #:upper16:txmsg
 116 010a 0320     		movs	r0, #3
 117 010c 4121     		movs	r1, #65
 118 010e 2E22     		movs	r2, #46
 119              	.L12:
 120 0110 9C72     		strb	r4, [r3, #10]
 121 0112 1872     		strb	r0, [r3, #8]
 122 0114 5972     		strb	r1, [r3, #9]
 123 0116 DA72     		strb	r2, [r3, #11]
 124 0118 BDE83840 		pop	{r3, r4, r5, lr}
 125 011c FFF7FEBF 		b	_Z11sendMessagev
 126              	.L18:
 127 0120 40F20001 		movw	r1, #:lower16:.LC1
 128 0124 C0F20001 		movt	r1, #:upper16:.LC1
 129 0128 C0F20000 		movt	r0, #:upper16:.LANCHOR0
 130 012c FFF7FEFF 		bl	scheduleMsg
 131 0130 4FF4FD60 		mov	r0, #2024
 132 0134 FFF7FEFF 		bl	_Z12commonTxIniti
 133 0138 40F20003 		movw	r3, #:lower16:txmsg
 134 013c C0F20003 		movt	r3, #:upper16:txmsg
 135 0140 0320     		movs	r0, #3
 136 0142 4121     		movs	r1, #65
 137 0144 6B22     		movs	r2, #107
 138 0146 E3E7     		b	.L12
 139              	.L19:
 140 0148 40F20001 		movw	r1, #:lower16:.LC2
 141 014c C0F20001 		movt	r1, #:upper16:.LC2
 142 0150 C0F20000 		movt	r0, #:upper16:.LANCHOR0
 143 0154 FFF7FEFF 		bl	scheduleMsg
 144 0158 4FF4FD60 		mov	r0, #2024
 145 015c FFF7FEFF 		bl	_Z12commonTxIniti
 146 0160 40F20003 		movw	r3, #:lower16:txmsg
 147 0164 C0F20003 		movt	r3, #:upper16:txmsg
 148 0168 0425     		movs	r5, #4
 149 016a 4120     		movs	r0, #65
 150 016c 1F21     		movs	r1, #31
 151 016e 4022     		movs	r2, #64
 152 0170 9C72     		strb	r4, [r3, #10]
 153 0172 1D72     		strb	r5, [r3, #8]
 154 0174 5872     		strb	r0, [r3, #9]
 155 0176 D972     		strb	r1, [r3, #11]
 156 0178 1A73     		strb	r2, [r3, #12]
 157 017a BDE83840 		pop	{r3, r4, r5, lr}
 158 017e FFF7FEBF 		b	_Z11sendMessagev
 159              	.L20:
 160 0182 40F20001 		movw	r1, #:lower16:.LC3
 161 0186 C0F20000 		movt	r0, #:upper16:.LANCHOR0
 162 018a C0F20001 		movt	r1, #:upper16:.LC3
 163 018e BDE83840 		pop	{r3, r4, r5, lr}
 164 0192 FFF7FEBF 		b	scheduleMsg
 165              	.L21:
 166 0196 40F20001 		movw	r1, #:lower16:.LC4
 167 019a C0F20001 		movt	r1, #:upper16:.LC4
 168 019e C0F20000 		movt	r0, #:upper16:.LANCHOR0
 169 01a2 FFF7FEFF 		bl	scheduleMsg
 170 01a6 4FF4FD60 		mov	r0, #2024
 171 01aa FFF7FEFF 		bl	_Z12commonTxIniti
ARM GAS  C:\Users\pc\AppData\Local\Temp\cchegMgE.s 			page 4


 172 01ae 40F20003 		movw	r3, #:lower16:txmsg
 173 01b2 C0F20003 		movt	r3, #:upper16:txmsg
 174 01b6 0324     		movs	r4, #3
 175 01b8 4120     		movs	r0, #65
 176 01ba 0B21     		movs	r1, #11
 177 01bc 7B22     		movs	r2, #123
 178 01be 1C72     		strb	r4, [r3, #8]
 179 01c0 5872     		strb	r0, [r3, #9]
 180 01c2 9972     		strb	r1, [r3, #10]
 181 01c4 DA72     		strb	r2, [r3, #11]
 182 01c6 BDE83840 		pop	{r3, r4, r5, lr}
 183 01ca FFF7FEBF 		b	_Z11sendMessagev
 184              	.L22:
 185 01ce 40F20001 		movw	r1, #:lower16:.LC5
 186 01d2 C0F20000 		movt	r0, #:upper16:.LANCHOR0
 187 01d6 C0F20001 		movt	r1, #:upper16:.LC5
 188 01da BDE83840 		pop	{r3, r4, r5, lr}
 189 01de FFF7FEBF 		b	scheduleMsg
 190              		.size	_Z16obdOnCanPacketRxP10CANRxFrame, .-_Z16obdOnCanPacketRxP10CANRxFrame
 191 01e2 00BFAFF3 		.section	.text.startup._GLOBAL__sub_I__Z16obdOnCanPacketRxP10CANRxFrame,"ax",%progbits
 191      0080AFF3 
 191      0080AFF3 
 191      0080
 192              		.align	2
 193              		.p2align 4,,15
 194              		.thumb
 195              		.thumb_func
 196              		.type	_GLOBAL__sub_I__Z16obdOnCanPacketRxP10CANRxFrame, %function
 197              	_GLOBAL__sub_I__Z16obdOnCanPacketRxP10CANRxFrame:
 198              		@ args = 0, pretend = 0, frame = 0
 199              		@ frame_needed = 0, uses_anonymous_args = 0
 200              		@ link register save eliminated.
 201 0000 40F20000 		movw	r0, #:lower16:.LANCHOR0
 202 0004 40F20001 		movw	r1, #:lower16:.LC10
 203 0008 C0F20000 		movt	r0, #:upper16:.LANCHOR0
 204 000c C0F20001 		movt	r1, #:upper16:.LC10
 205 0010 FFF7FEBF 		b	_ZN18LoggingWithStorageC1EPKc
 206              		.size	_GLOBAL__sub_I__Z16obdOnCanPacketRxP10CANRxFrame, .-_GLOBAL__sub_I__Z16obdOnCanPacketRxP10CA
 207 0014 AFF30080 		.section	.init_array,"aw",%init_array
 207      AFF30080 
 207      AFF30080 
 208              		.align	2
 209 0000 00000000 		.word	_GLOBAL__sub_I__Z16obdOnCanPacketRxP10CANRxFrame(target1)
 210              		.section	.rodata.str1.4,"aMS",%progbits,1
 211              		.align	2
 212              	.LC0:
 213 0000 476F7420 		.ascii	"Got lookup request\000"
 213      6C6F6F6B 
 213      75702072 
 213      65717565 
 213      737400
 214 0013 00       		.space	1
 215              	.LC1:
 216 0014 476F7420 		.ascii	"Got CLT request\000"
 216      434C5420 
 216      72657175 
 216      65737400 
ARM GAS  C:\Users\pc\AppData\Local\Temp\cchegMgE.s 			page 5


 217              	.LC2:
 218 0024 476F7420 		.ascii	"Got RPM request\000"
 218      52504D20 
 218      72657175 
 218      65737400 
 219              	.LC3:
 220 0034 476F7420 		.ascii	"Got timing request\000"
 220      74696D69 
 220      6E672072 
 220      65717565 
 220      737400
 221 0047 00       		.space	1
 222              	.LC4:
 223 0048 476F7420 		.ascii	"Got speed request\000"
 223      73706565 
 223      64207265 
 223      71756573 
 223      7400
 224 005a 0000     		.space	2
 225              	.LC5:
 226 005c 476F7420 		.ascii	"Got fuel pressure request\000"
 226      6675656C 
 226      20707265 
 226      73737572 
 226      65207265 
 227 0076 0000     		.space	2
 228              	.LC6:
 229 0078 476F7420 		.ascii	"Got MAP request\000"
 229      4D415020 
 229      72657175 
 229      65737400 
 230              	.LC7:
 231 0088 476F7420 		.ascii	"Got unhandled request\000"
 231      756E6861 
 231      6E646C65 
 231      64207265 
 231      71756573 
 232 009e 0000     		.space	2
 233              	.LC8:
 234 00a0 476F7420 		.ascii	"Got stored DTC request\000"
 234      73746F72 
 234      65642044 
 234      54432072 
 234      65717565 
 235 00b7 00       		.space	1
 236              	.LC9:
 237 00b8 476F7420 		.ascii	"Got unhandled OBD message\000"
 237      756E6861 
 237      6E646C65 
 237      64204F42 
 237      44206D65 
 238 00d2 0000     		.space	2
 239              	.LC10:
 240 00d4 6F626432 		.ascii	"obd2\000"
 240      00
 241 00d9 000000   		.section	.bss._ZL6logger,"aw",%nobits
 242              		.align	2
ARM GAS  C:\Users\pc\AppData\Local\Temp\cchegMgE.s 			page 6


 243              		.set	.LANCHOR0,. + 0
 244              		.type	_ZL6logger, %object
 245              		.size	_ZL6logger, 260
 246              	_ZL6logger:
 247 0000 00000000 		.space	260
 247      00000000 
 247      00000000 
 247      00000000 
 247      00000000 
 248              		.ident	"GCC: (Sourcery CodeBench Lite 2013.11-24) 4.8.1"
ARM GAS  C:\Users\pc\AppData\Local\Temp\cchegMgE.s 			page 7


DEFINED SYMBOLS
                            *ABS*:00000000 obd2.cpp
C:\Users\pc\AppData\Local\Temp\cchegMgE.s:17     .text._Z16obdOnCanPacketRxP10CANRxFrame:00000000 $t
C:\Users\pc\AppData\Local\Temp\cchegMgE.s:23     .text._Z16obdOnCanPacketRxP10CANRxFrame:00000000 _Z16obdOnCanPacketRxP10CANRxFrame
C:\Users\pc\AppData\Local\Temp\cchegMgE.s:243    .bss._ZL6logger:00000000 .LANCHOR0
C:\Users\pc\AppData\Local\Temp\cchegMgE.s:236    .rodata.str1.4:000000b8 .LC9
C:\Users\pc\AppData\Local\Temp\cchegMgE.s:233    .rodata.str1.4:000000a0 .LC8
C:\Users\pc\AppData\Local\Temp\cchegMgE.s:230    .rodata.str1.4:00000088 .LC7
C:\Users\pc\AppData\Local\Temp\cchegMgE.s:212    .rodata.str1.4:00000000 .LC0
C:\Users\pc\AppData\Local\Temp\cchegMgE.s:228    .rodata.str1.4:00000078 .LC6
C:\Users\pc\AppData\Local\Temp\cchegMgE.s:215    .rodata.str1.4:00000014 .LC1
C:\Users\pc\AppData\Local\Temp\cchegMgE.s:217    .rodata.str1.4:00000024 .LC2
C:\Users\pc\AppData\Local\Temp\cchegMgE.s:219    .rodata.str1.4:00000034 .LC3
C:\Users\pc\AppData\Local\Temp\cchegMgE.s:222    .rodata.str1.4:00000048 .LC4
C:\Users\pc\AppData\Local\Temp\cchegMgE.s:225    .rodata.str1.4:0000005c .LC5
C:\Users\pc\AppData\Local\Temp\cchegMgE.s:192    .text.startup._GLOBAL__sub_I__Z16obdOnCanPacketRxP10CANRxFrame:00000000 $t
C:\Users\pc\AppData\Local\Temp\cchegMgE.s:197    .text.startup._GLOBAL__sub_I__Z16obdOnCanPacketRxP10CANRxFrame:00000000 _GLOBAL__sub_I__Z16obdOnCanPacketRxP10CANRxFrame
C:\Users\pc\AppData\Local\Temp\cchegMgE.s:239    .rodata.str1.4:000000d4 .LC10
C:\Users\pc\AppData\Local\Temp\cchegMgE.s:208    .init_array:00000000 $d
C:\Users\pc\AppData\Local\Temp\cchegMgE.s:211    .rodata.str1.4:00000000 $d
C:\Users\pc\AppData\Local\Temp\cchegMgE.s:242    .bss._ZL6logger:00000000 $d
C:\Users\pc\AppData\Local\Temp\cchegMgE.s:246    .bss._ZL6logger:00000000 _ZL6logger

UNDEFINED SYMBOLS
scheduleMsg
_Z12commonTxIniti
txmsg
_Z8setTxBitii
_Z11sendMessagev
_ZN18LoggingWithStorageC1EPKc
