ARM GAS  C:\Users\pc\AppData\Local\Temp\ccri9QiI.s 			page 1


   1              		.syntax unified
   2              		.cpu cortex-m4
   3              		.eabi_attribute 27, 3
   4              		.fpu fpv4-sp-d16
   5              		.eabi_attribute 20, 1
   6              		.eabi_attribute 21, 1
   7              		.eabi_attribute 23, 3
   8              		.eabi_attribute 24, 1
   9              		.eabi_attribute 25, 1
  10              		.eabi_attribute 26, 1
  11              		.eabi_attribute 30, 2
  12              		.eabi_attribute 34, 1
  13              		.eabi_attribute 18, 4
  14              		.thumb
  15              		.file	"pal.c"
  16              		.section	.text.palReadBus,"ax",%progbits
  17              		.align	2
  18              		.p2align 4,,15
  19              		.global	palReadBus
  20              		.thumb
  21              		.thumb_func
  22              		.type	palReadBus, %function
  23              	palReadBus:
  24              		@ args = 0, pretend = 0, frame = 0
  25              		@ frame_needed = 0, uses_anonymous_args = 0
  26 0000 10B5     		push	{r4, lr}
  27 0002 0446     		mov	r4, r0
  28 0004 10B1     		cbz	r0, .L2
  29 0006 8368     		ldr	r3, [r0, #8]
  30 0008 0F2B     		cmp	r3, #15
  31 000a 0BD9     		bls	.L3
  32              	.L2:
  33 000c 40F20000 		movw	r0, #:lower16:.LC0
  34 0010 40F20001 		movw	r1, #:lower16:.LC1
  35 0014 C0F20000 		movt	r0, #:upper16:.LC0
  36 0018 C0F20001 		movt	r1, #:upper16:.LC1
  37 001c 5022     		movs	r2, #80
  38 001e FFF7FEFF 		bl	chDbgPanic3
  39 0022 A368     		ldr	r3, [r4, #8]
  40              	.L3:
  41 0024 94E80600 		ldmia	r4, {r1, r2}
  42 0028 0969     		ldr	r1, [r1, #16]
  43 002a 21FA03F0 		lsr	r0, r1, r3
  44 002e 1040     		ands	r0, r0, r2
  45 0030 10BD     		pop	{r4, pc}
  46              		.size	palReadBus, .-palReadBus
  47 0032 00BFAFF3 		.section	.text.palWriteBus,"ax",%progbits
  47      0080AFF3 
  47      0080AFF3 
  47      0080
  48              		.align	2
  49              		.p2align 4,,15
  50              		.global	palWriteBus
  51              		.thumb
  52              		.thumb_func
  53              		.type	palWriteBus, %function
  54              	palWriteBus:
ARM GAS  C:\Users\pc\AppData\Local\Temp\ccri9QiI.s 			page 2


  55              		@ args = 0, pretend = 0, frame = 0
  56              		@ frame_needed = 0, uses_anonymous_args = 0
  57 0000 38B5     		push	{r3, r4, r5, lr}
  58 0002 0446     		mov	r4, r0
  59 0004 0D46     		mov	r5, r1
  60 0006 10B1     		cbz	r0, .L10
  61 0008 8268     		ldr	r2, [r0, #8]
  62 000a 0F2A     		cmp	r2, #15
  63 000c 0BD9     		bls	.L11
  64              	.L10:
  65 000e 40F20000 		movw	r0, #:lower16:.LC2
  66 0012 40F20001 		movw	r1, #:lower16:.LC1
  67 0016 6A22     		movs	r2, #106
  68 0018 C0F20000 		movt	r0, #:upper16:.LC2
  69 001c C0F20001 		movt	r1, #:upper16:.LC1
  70 0020 FFF7FEFF 		bl	chDbgPanic3
  71 0024 A268     		ldr	r2, [r4, #8]
  72              	.L11:
  73 0026 94E80A00 		ldmia	r4, {r1, r3}
  74 002a 02F11000 		add	r0, r2, #16
  75 002e 23EA0504 		bic	r4, r3, r5
  76 0032 1D40     		ands	r5, r5, r3
  77 0034 05FA02F2 		lsl	r2, r5, r2
  78 0038 04FA00F3 		lsl	r3, r4, r0
  79 003c 1A43     		orrs	r2, r2, r3
  80 003e 8A61     		str	r2, [r1, #24]
  81 0040 38BD     		pop	{r3, r4, r5, pc}
  82              		.size	palWriteBus, .-palWriteBus
  83 0042 00BFAFF3 		.section	.text.palSetBusMode,"ax",%progbits
  83      0080AFF3 
  83      0080AFF3 
  83      0080
  84              		.align	2
  85              		.p2align 4,,15
  86              		.global	palSetBusMode
  87              		.thumb
  88              		.thumb_func
  89              		.type	palSetBusMode, %function
  90              	palSetBusMode:
  91              		@ args = 0, pretend = 0, frame = 0
  92              		@ frame_needed = 0, uses_anonymous_args = 0
  93 0000 38B5     		push	{r3, r4, r5, lr}
  94 0002 0446     		mov	r4, r0
  95 0004 0D46     		mov	r5, r1
  96 0006 10B1     		cbz	r0, .L17
  97 0008 8368     		ldr	r3, [r0, #8]
  98 000a 0F2B     		cmp	r3, #15
  99 000c 0BD9     		bls	.L18
 100              	.L17:
 101 000e 40F20000 		movw	r0, #:lower16:.LC3
 102 0012 40F20001 		movw	r1, #:lower16:.LC1
 103 0016 C0F20000 		movt	r0, #:upper16:.LC3
 104 001a C0F20001 		movt	r1, #:upper16:.LC1
 105 001e 8222     		movs	r2, #130
 106 0020 FFF7FEFF 		bl	chDbgPanic3
 107 0024 A368     		ldr	r3, [r4, #8]
 108              	.L18:
ARM GAS  C:\Users\pc\AppData\Local\Temp\ccri9QiI.s 			page 3


 109 0026 94E80300 		ldmia	r4, {r0, r1}
 110 002a 2A46     		mov	r2, r5
 111 002c 9940     		lsls	r1, r1, r3
 112 002e BDE83840 		pop	{r3, r4, r5, lr}
 113 0032 FFF7FEBF 		b	_pal_lld_setgroupmode
 114              		.size	palSetBusMode, .-palSetBusMode
 115 0036 00BFAFF3 		.section	.rodata.str1.4,"aMS",%progbits,1
 115      0080AFF3 
 115      0080
 116              		.align	2
 117              	.LC0:
 118 0000 2270616C 		.ascii	"\"palReadBus\"()\000"
 118      52656164 
 118      42757322 
 118      282900
 119 000f 00       		.space	1
 120              	.LC1:
 121 0010 63686962 		.ascii	"chibios/os/hal/src/pal.c\000"
 121      696F732F 
 121      6F732F68 
 121      616C2F73 
 121      72632F70 
 122 0029 000000   		.space	3
 123              	.LC2:
 124 002c 2270616C 		.ascii	"\"palWriteBus\"()\000"
 124      57726974 
 124      65427573 
 124      22282900 
 125              	.LC3:
 126 003c 2270616C 		.ascii	"\"palSetBusMode\"()\000"
 126      53657442 
 126      75734D6F 
 126      64652228 
 126      2900
 127 004e 0000     		.ident	"GCC: (Sourcery CodeBench Lite 2013.11-24) 4.8.1"
ARM GAS  C:\Users\pc\AppData\Local\Temp\ccri9QiI.s 			page 4


DEFINED SYMBOLS
                            *ABS*:00000000 pal.c
C:\Users\pc\AppData\Local\Temp\ccri9QiI.s:17     .text.palReadBus:00000000 $t
C:\Users\pc\AppData\Local\Temp\ccri9QiI.s:23     .text.palReadBus:00000000 palReadBus
C:\Users\pc\AppData\Local\Temp\ccri9QiI.s:117    .rodata.str1.4:00000000 .LC0
C:\Users\pc\AppData\Local\Temp\ccri9QiI.s:120    .rodata.str1.4:00000010 .LC1
C:\Users\pc\AppData\Local\Temp\ccri9QiI.s:48     .text.palWriteBus:00000000 $t
C:\Users\pc\AppData\Local\Temp\ccri9QiI.s:54     .text.palWriteBus:00000000 palWriteBus
C:\Users\pc\AppData\Local\Temp\ccri9QiI.s:123    .rodata.str1.4:0000002c .LC2
C:\Users\pc\AppData\Local\Temp\ccri9QiI.s:84     .text.palSetBusMode:00000000 $t
C:\Users\pc\AppData\Local\Temp\ccri9QiI.s:90     .text.palSetBusMode:00000000 palSetBusMode
C:\Users\pc\AppData\Local\Temp\ccri9QiI.s:125    .rodata.str1.4:0000003c .LC3
C:\Users\pc\AppData\Local\Temp\ccri9QiI.s:116    .rodata.str1.4:00000000 $d

UNDEFINED SYMBOLS
chDbgPanic3
_pal_lld_setgroupmode
