ARM GAS  C:\Users\pc\AppData\Local\Temp\ccugqxKP.s 			page 1


   1              		.syntax unified
   2              		.cpu cortex-m4
   3              		.eabi_attribute 27, 3
   4              		.fpu fpv4-sp-d16
   5              		.eabi_attribute 20, 1
   6              		.eabi_attribute 21, 1
   7              		.eabi_attribute 23, 3
   8              		.eabi_attribute 24, 1
   9              		.eabi_attribute 25, 1
  10              		.eabi_attribute 26, 1
  11              		.eabi_attribute 30, 2
  12              		.eabi_attribute 34, 1
  13              		.eabi_attribute 18, 4
  14              		.thumb
  15              		.file	"pid.cpp"
  16              		.section	.text._ZN3PidC2Efffff,"ax",%progbits
  17              		.align	2
  18              		.p2align 4,,15
  19              		.global	_ZN3PidC2Efffff
  20              		.thumb
  21              		.thumb_func
  22              		.type	_ZN3PidC2Efffff, %function
  23              	_ZN3PidC2Efffff:
  24              		@ args = 8, pretend = 0, frame = 0
  25              		@ frame_needed = 0, uses_anonymous_args = 0
  26              		@ link register save eliminated.
  27 0000 70B4     		push	{r4, r5, r6}
  28 0002 039E     		ldr	r6, [sp, #12]	@ float
  29 0004 049D     		ldr	r5, [sp, #16]	@ float
  30 0006 0160     		str	r1, [r0]	@ float
  31 0008 0021     		movs	r1, #0
  32 000a C660     		str	r6, [r0, #12]	@ float
  33 000c 0561     		str	r5, [r0, #16]	@ float
  34 000e 4260     		str	r2, [r0, #4]	@ float
  35 0010 8360     		str	r3, [r0, #8]	@ float
  36 0012 4161     		str	r1, [r0, #20]	@ float
  37 0014 8161     		str	r1, [r0, #24]	@ float
  38 0016 70BC     		pop	{r4, r5, r6}
  39 0018 7047     		bx	lr
  40              		.size	_ZN3PidC2Efffff, .-_ZN3PidC2Efffff
  41              		.global	_ZN3PidC1Efffff
  42              		.thumb_set _ZN3PidC1Efffff,_ZN3PidC2Efffff
  43 001a 00BFAFF3 		.section	.text._ZN3Pid8getValueEfff,"ax",%progbits
  43      0080
  44              		.align	2
  45              		.p2align 4,,15
  46              		.global	_ZN3Pid8getValueEfff
  47              		.thumb
  48              		.thumb_func
  49              		.type	_ZN3Pid8getValueEfff, %function
  50              	_ZN3Pid8getValueEfff:
  51              		@ args = 0, pretend = 0, frame = 0
  52              		@ frame_needed = 0, uses_anonymous_args = 0
  53              		@ link register save eliminated.
  54 0000 07EE903A 		fmsr	s15, r3
  55 0004 90ED027A 		flds	s14, [r0, #8]
  56 0008 87EE275A 		fdivs	s10, s14, s15
ARM GAS  C:\Users\pc\AppData\Local\Temp\ccugqxKP.s 			page 2


  57 000c 90ED017A 		flds	s14, [r0, #4]
  58 0010 05EE901A 		fmsr	s11, r1
  59 0014 67EE877A 		fmuls	s15, s15, s14
  60 0018 07EE102A 		fmsr	s14, r2
  61 001c 90ED056A 		flds	s12, [r0, #20]
  62 0020 75EEC76A 		fsubs	s13, s11, s14
  63 0024 90ED007A 		flds	s14, [r0]
  64 0028 A7EEA66A 		vfma.f32	s12, s15, s13
  65 002c D0ED065A 		flds	s11, [r0, #24]
  66 0030 F0EE467A 		fcpys	s15, s12
  67 0034 E7EE267A 		vfma.f32	s15, s14, s13
  68 0038 76EEE55A 		fsubs	s11, s13, s11
  69 003c B0EE677A 		fcpys	s14, s15
  70 0040 A5EE257A 		vfma.f32	s14, s10, s11
  71 0044 D0ED047A 		flds	s15, [r0, #16]
  72 0048 B4EEE77A 		fcmpes	s14, s15
  73 004c F1EE10FA 		fmstat
  74 0050 80ED056A 		fsts	s12, [r0, #20]
  75 0054 C0ED066A 		fsts	s13, [r0, #24]
  76 0058 08DC     		bgt	.L3
  77 005a D0ED037A 		flds	s15, [r0, #12]
  78 005e B4EEE77A 		fcmpes	s14, s15
  79 0062 F1EE10FA 		fmstat
  80 0066 58BF     		it	pl
  81 0068 F0EE477A 		fcpyspl	s15, s14
  82              	.L3:
  83 006c 17EE900A 		fmrs	r0, s15
  84 0070 7047     		bx	lr
  85              		.size	_ZN3Pid8getValueEfff, .-_ZN3Pid8getValueEfff
  86 0072 00BFAFF3 		.section	.text._ZN3Pid13updateFactorsEfff,"ax",%progbits
  86      0080AFF3 
  86      0080AFF3 
  86      0080
  87              		.align	2
  88              		.p2align 4,,15
  89              		.global	_ZN3Pid13updateFactorsEfff
  90              		.thumb
  91              		.thumb_func
  92              		.type	_ZN3Pid13updateFactorsEfff, %function
  93              	_ZN3Pid13updateFactorsEfff:
  94              		@ args = 0, pretend = 0, frame = 0
  95              		@ frame_needed = 0, uses_anonymous_args = 0
  96              		@ link register save eliminated.
  97 0000 10B4     		push	{r4}
  98 0002 0024     		movs	r4, #0
  99 0004 4461     		str	r4, [r0, #20]	@ float
 100 0006 8461     		str	r4, [r0, #24]	@ float
 101 0008 0160     		str	r1, [r0]	@ float
 102 000a 4260     		str	r2, [r0, #4]	@ float
 103 000c 8360     		str	r3, [r0, #8]	@ float
 104 000e 5DF8044B 		ldr	r4, [sp], #4
 105 0012 7047     		bx	lr
 106              		.size	_ZN3Pid13updateFactorsEfff, .-_ZN3Pid13updateFactorsEfff
 107 0014 AFF30080 		.section	.text._ZN3Pid5resetEv,"ax",%progbits
 107      AFF30080 
 107      AFF30080 
 108              		.align	2
ARM GAS  C:\Users\pc\AppData\Local\Temp\ccugqxKP.s 			page 3


 109              		.p2align 4,,15
 110              		.global	_ZN3Pid5resetEv
 111              		.thumb
 112              		.thumb_func
 113              		.type	_ZN3Pid5resetEv, %function
 114              	_ZN3Pid5resetEv:
 115              		@ args = 0, pretend = 0, frame = 0
 116              		@ frame_needed = 0, uses_anonymous_args = 0
 117              		@ link register save eliminated.
 118 0000 0023     		movs	r3, #0
 119 0002 4361     		str	r3, [r0, #20]	@ float
 120 0004 8361     		str	r3, [r0, #24]	@ float
 121 0006 7047     		bx	lr
 122              		.size	_ZN3Pid5resetEv, .-_ZN3Pid5resetEv
 123 0008 AFF30080 		.section	.text._ZN3Pid4getPEv,"ax",%progbits
 123      AFF30080 
 124              		.align	2
 125              		.p2align 4,,15
 126              		.global	_ZN3Pid4getPEv
 127              		.thumb
 128              		.thumb_func
 129              		.type	_ZN3Pid4getPEv, %function
 130              	_ZN3Pid4getPEv:
 131              		@ args = 0, pretend = 0, frame = 0
 132              		@ frame_needed = 0, uses_anonymous_args = 0
 133              		@ link register save eliminated.
 134 0000 0068     		ldr	r0, [r0]	@ float
 135 0002 7047     		bx	lr
 136              		.size	_ZN3Pid4getPEv, .-_ZN3Pid4getPEv
 137 0004 AFF30080 		.section	.text._ZN3Pid4getIEv,"ax",%progbits
 137      AFF30080 
 137      AFF30080 
 138              		.align	2
 139              		.p2align 4,,15
 140              		.global	_ZN3Pid4getIEv
 141              		.thumb
 142              		.thumb_func
 143              		.type	_ZN3Pid4getIEv, %function
 144              	_ZN3Pid4getIEv:
 145              		@ args = 0, pretend = 0, frame = 0
 146              		@ frame_needed = 0, uses_anonymous_args = 0
 147              		@ link register save eliminated.
 148 0000 4068     		ldr	r0, [r0, #4]	@ float
 149 0002 7047     		bx	lr
 150              		.size	_ZN3Pid4getIEv, .-_ZN3Pid4getIEv
 151 0004 AFF30080 		.section	.text._ZN3Pid14getIntegrationEv,"ax",%progbits
 151      AFF30080 
 151      AFF30080 
 152              		.align	2
 153              		.p2align 4,,15
 154              		.global	_ZN3Pid14getIntegrationEv
 155              		.thumb
 156              		.thumb_func
 157              		.type	_ZN3Pid14getIntegrationEv, %function
 158              	_ZN3Pid14getIntegrationEv:
 159              		@ args = 0, pretend = 0, frame = 0
 160              		@ frame_needed = 0, uses_anonymous_args = 0
ARM GAS  C:\Users\pc\AppData\Local\Temp\ccugqxKP.s 			page 4


 161              		@ link register save eliminated.
 162 0000 4069     		ldr	r0, [r0, #20]	@ float
 163 0002 7047     		bx	lr
 164              		.size	_ZN3Pid14getIntegrationEv, .-_ZN3Pid14getIntegrationEv
 165 0004 AFF30080 		.section	.text._ZN3Pid4getDEv,"ax",%progbits
 165      AFF30080 
 165      AFF30080 
 166              		.align	2
 167              		.p2align 4,,15
 168              		.global	_ZN3Pid4getDEv
 169              		.thumb
 170              		.thumb_func
 171              		.type	_ZN3Pid4getDEv, %function
 172              	_ZN3Pid4getDEv:
 173              		@ args = 0, pretend = 0, frame = 0
 174              		@ frame_needed = 0, uses_anonymous_args = 0
 175              		@ link register save eliminated.
 176 0000 8068     		ldr	r0, [r0, #8]	@ float
 177 0002 7047     		bx	lr
 178              		.size	_ZN3Pid4getDEv, .-_ZN3Pid4getDEv
 179 0004 AFF30080 		.ident	"GCC: (Sourcery CodeBench Lite 2013.11-24) 4.8.1"
 179      AFF30080 
 179      AFF30080 
ARM GAS  C:\Users\pc\AppData\Local\Temp\ccugqxKP.s 			page 5

