ARM GAS  C:\Users\pc\AppData\Local\Temp\ccu9eobd.s 			page 1


   1              		.syntax unified
   2              		.cpu cortex-m4
   3              		.eabi_attribute 27, 3
   4              		.fpu fpv4-sp-d16
   5              		.eabi_attribute 20, 1
   6              		.eabi_attribute 21, 1
   7              		.eabi_attribute 23, 3
   8              		.eabi_attribute 24, 1
   9              		.eabi_attribute 25, 1
  10              		.eabi_attribute 26, 1
  11              		.eabi_attribute 30, 2
  12              		.eabi_attribute 34, 1
  13              		.eabi_attribute 18, 4
  14              		.thumb
  15              		.file	"pwm_generator.cpp"
  16              		.section	.text._Z13applyPinStateP9PwmConfigi,"ax",%progbits
  17              		.align	2
  18              		.p2align 4,,15
  19              		.global	_Z13applyPinStateP9PwmConfigi
  20              		.thumb
  21              		.thumb_func
  22              		.type	_Z13applyPinStateP9PwmConfigi, %function
  23              	_Z13applyPinStateP9PwmConfigi:
  24              		@ args = 0, pretend = 0, frame = 0
  25              		@ frame_needed = 0, uses_anonymous_args = 0
  26 0000 FB29     		cmp	r1, #251
  27 0002 F8B5     		push	{r3, r4, r5, r6, r7, lr}
  28 0004 0F46     		mov	r7, r1
  29 0006 0546     		mov	r5, r0
  30 0008 14DC     		bgt	.L9
  31 000a C368     		ldr	r3, [r0, #12]
  32 000c 032B     		cmp	r3, #3
  33 000e 1ADC     		bgt	.L3
  34 0010 002B     		cmp	r3, #0
  35 0012 C4BF     		itt	gt
  36 0014 0024     		movgt	r4, #0
  37 0016 2646     		movgt	r6, r4
  38 0018 14DD     		ble	.L10
  39              	.L7:
  40 001a 2B69     		ldr	r3, [r5, #16]
  41 001c 2859     		ldr	r0, [r5, r4]
  42 001e 1B59     		ldr	r3, [r3, r4]
  43 0020 D957     		ldrsb	r1, [r3, r7]
  44 0022 FFF7FEFF 		bl	_ZN9OutputPin8setValueEi
  45 0026 EB68     		ldr	r3, [r5, #12]
  46 0028 0136     		adds	r6, r6, #1
  47 002a B342     		cmp	r3, r6
  48 002c 04F10404 		add	r4, r4, #4
  49 0030 F3DC     		bgt	.L7
  50 0032 F8BD     		pop	{r3, r4, r5, r6, r7, pc}
  51              	.L9:
  52 0034 40F20000 		movw	r0, #:lower16:.LC0
  53 0038 C0F20000 		movt	r0, #:upper16:.LC0
  54 003c BDE8F840 		pop	{r3, r4, r5, r6, r7, lr}
  55 0040 FFF7FEBF 		b	firmwareError
  56              	.L10:
  57 0044 F8BD     		pop	{r3, r4, r5, r6, r7, pc}
ARM GAS  C:\Users\pc\AppData\Local\Temp\ccu9eobd.s 			page 2


  58              	.L3:
  59 0046 40F20000 		movw	r0, #:lower16:.LC1
  60 004a C0F20000 		movt	r0, #:upper16:.LC1
  61 004e BDE8F840 		pop	{r3, r4, r5, r6, r7, lr}
  62 0052 FFF7FEBF 		b	firmwareError
  63              		.size	_Z13applyPinStateP9PwmConfigi, .-_Z13applyPinStateP9PwmConfigi
  64              		.global	__aeabi_f2ulz
  65              		.global	__aeabi_ul2f
  66 0056 00BFAFF3 		.section	.text._Z14startSimplePwmP9PwmConfigPKcP9OutputPinffPFvS0_iE,"ax",%progbits
  66      0080AFF3 
  66      0080
  67              		.align	2
  68              		.p2align 4,,15
  69              		.global	_Z14startSimplePwmP9PwmConfigPKcP9OutputPinffPFvS0_iE
  70              		.thumb
  71              		.thumb_func
  72              		.type	_Z14startSimplePwmP9PwmConfigPKcP9OutputPinffPFvS0_iE, %function
  73              	_Z14startSimplePwmP9PwmConfigPKcP9OutputPinffPFvS0_iE:
  74              		@ args = 8, pretend = 0, frame = 16
  75              		@ frame_needed = 0, uses_anonymous_args = 0
  76 0000 F0B5     		push	{r4, r5, r6, r7, lr}
  77 0002 89B0     		sub	sp, sp, #36
  78 0004 DDED0E7A 		flds	s15, [sp, #56]
  79 0008 F5EEC07A 		fcmpezs	s15
  80 000c F1EE10FA 		fmstat
  81 0010 0446     		mov	r4, r0
  82 0012 0D46     		mov	r5, r1
  83 0014 06EE903A 		fmsr	s13, r3
  84 0018 06DB     		blt	.L12
  85 001a B7EE007A 		fconsts	s14, #112
  86 001e F4EEC77A 		fcmpes	s15, s14
  87 0022 F1EE10FA 		fmstat
  88 0026 07D9     		bls	.L14
  89              	.L12:
  90 0028 40F20000 		movw	r0, #:lower16:.LC2
  91 002c C0F20000 		movt	r0, #:upper16:.LC2
  92 0030 FFF7FEFF 		bl	firmwareError
  93 0034 09B0     		add	sp, sp, #36
  94              		@ sp needed
  95 0036 F0BD     		pop	{r4, r5, r6, r7, pc}
  96              	.L14:
  97 0038 9FED166A 		flds	s12, .L17
  98 003c C6EE265A 		fdivs	s11, s12, s13
  99 0040 04AB     		add	r3, sp, #16
 100 0042 0260     		str	r2, [r0]
 101 0044 0026     		movs	r6, #0
 102 0046 0127     		movs	r7, #1
 103 0048 0593     		str	r3, [sp, #20]
 104 004a 8DF81060 		strb	r6, [sp, #16]
 105 004e 8DF81170 		strb	r7, [sp, #17]
 106 0052 8DED077A 		fsts	s14, [sp, #28]
 107 0056 15EE900A 		fmrs	r0, s11
 108 005a CDED067A 		fsts	s15, [sp, #24]
 109 005e FFF7FEFF 		bl	__aeabi_f2ulz
 110 0062 4FF0A80E 		mov	lr, #168
 111 0066 A0FB0E23 		umull	r2, r3, r0, lr
 112 006a 0EFB0133 		mla	r3, lr, r1, r3
ARM GAS  C:\Users\pc\AppData\Local\Temp\ccu9eobd.s 			page 3


 113 006e 1946     		mov	r1, r3
 114 0070 1046     		mov	r0, r2
 115 0072 FFF7FEFF 		bl	__aeabi_ul2f
 116 0076 0F9A     		ldr	r2, [sp, #60]
 117 0078 A061     		str	r0, [r4, #24]	@ float
 118 007a 05AB     		add	r3, sp, #20
 119 007c 0392     		str	r2, [sp, #12]
 120 007e 0193     		str	r3, [sp, #4]
 121 0080 0097     		str	r7, [sp]
 122 0082 0296     		str	r6, [sp, #8]
 123 0084 2046     		mov	r0, r4
 124 0086 2946     		mov	r1, r5
 125 0088 0222     		movs	r2, #2
 126 008a 06AB     		add	r3, sp, #24
 127 008c FFF7FEFF 		bl	_ZN9PwmConfig13weComplexInitEPKciPfiPPaPFvPS_EPFvS5_iE
 128 0090 09B0     		add	sp, sp, #36
 129              		@ sp needed
 130 0092 F0BD     		pop	{r4, r5, r6, r7, pc}
 131              	.L18:
 132              		.align	2
 133              	.L17:
 134 0094 00247449 		.word	1232348160
 135              		.size	_Z14startSimplePwmP9PwmConfigPKcP9OutputPinffPFvS0_iE, .-_Z14startSimplePwmP9PwmConfigPKcP9O
 136 0098 AFF30080 		.section	.text._Z17startSimplePwmExtP9PwmConfigPKc11brain_pin_eP9OutputPinffPFvS0_iE,"ax",%progbit
 136      AFF30080 
 137              		.align	2
 138              		.p2align 4,,15
 139              		.global	_Z17startSimplePwmExtP9PwmConfigPKc11brain_pin_eP9OutputPinffPFvS0_iE
 140              		.thumb
 141              		.thumb_func
 142              		.type	_Z17startSimplePwmExtP9PwmConfigPKc11brain_pin_eP9OutputPinffPFvS0_iE, %function
 143              	_Z17startSimplePwmExtP9PwmConfigPKc11brain_pin_eP9OutputPinffPFvS0_iE:
 144              		@ args = 12, pretend = 0, frame = 0
 145              		@ frame_needed = 0, uses_anonymous_args = 0
 146 0000 2DE9F04F 		push	{r4, r5, r6, r7, r8, r9, r10, fp, lr}
 147 0004 81B0     		sub	sp, sp, #4
 148 0006 8146     		mov	r9, r0
 149 0008 1046     		mov	r0, r2
 150 000a 0D46     		mov	r5, r1
 151 000c 1C46     		mov	r4, r3
 152 000e 1646     		mov	r6, r2
 153 0010 DDF82880 		ldr	r8, [sp, #40]	@ float
 154 0014 DDF82CB0 		ldr	fp, [sp, #44]	@ float
 155 0018 0C9F     		ldr	r7, [sp, #48]
 156 001a FFF7FEFF 		bl	_Z9getHwPort11brain_pin_e
 157 001e 8246     		mov	r10, r0
 158 0020 3046     		mov	r0, r6
 159 0022 FFF7FEFF 		bl	_Z8getHwPin11brain_pin_e
 160 0026 2146     		mov	r1, r4
 161 0028 0346     		mov	r3, r0
 162 002a 5246     		mov	r2, r10
 163 002c 2846     		mov	r0, r5
 164 002e FFF7FEFF 		bl	_Z17outputPinRegisterPKcP9OutputPinP12GPIO_TypeDefm
 165 0032 4846     		mov	r0, r9
 166 0034 2946     		mov	r1, r5
 167 0036 2246     		mov	r2, r4
 168 0038 4346     		mov	r3, r8	@ float
ARM GAS  C:\Users\pc\AppData\Local\Temp\ccu9eobd.s 			page 4


 169 003a CDF828B0 		str	fp, [sp, #40]	@ float
 170 003e 0B97     		str	r7, [sp, #44]
 171 0040 01B0     		add	sp, sp, #4
 172              		@ sp needed
 173 0042 BDE8F04F 		pop	{r4, r5, r6, r7, r8, r9, r10, fp, lr}
 174 0046 FFF7FEBF 		b	_Z14startSimplePwmP9PwmConfigPKcP9OutputPinffPFvS0_iE
 175              		.size	_Z17startSimplePwmExtP9PwmConfigPKc11brain_pin_eP9OutputPinffPFvS0_iE, .-_Z17startSimplePwmE
 176 004a 00BFAFF3 		.section	.text._Z16initPwmGeneratorv,"ax",%progbits
 176      0080
 177              		.align	2
 178              		.p2align 4,,15
 179              		.global	_Z16initPwmGeneratorv
 180              		.thumb
 181              		.thumb_func
 182              		.type	_Z16initPwmGeneratorv, %function
 183              	_Z16initPwmGeneratorv:
 184              		@ args = 0, pretend = 0, frame = 0
 185              		@ frame_needed = 0, uses_anonymous_args = 0
 186              		@ link register save eliminated.
 187 0000 7047     		bx	lr
 188              		.size	_Z16initPwmGeneratorv, .-_Z16initPwmGeneratorv
 189 0002 00BFAFF3 		.section	.rodata.str1.4,"aMS",%progbits,1
 189      0080AFF3 
 189      0080AFF3 
 189      0080
 190              		.align	2
 191              	.LC0:
 192 0000 696E7661 		.ascii	"invalid stateIndex\000"
 192      6C696420 
 192      73746174 
 192      65496E64 
 192      657800
 193 0013 00       		.space	1
 194              	.LC1:
 195 0014 696E7661 		.ascii	"invalid waveCount\000"
 195      6C696420 
 195      77617665 
 195      436F756E 
 195      7400
 196 0026 0000     		.space	2
 197              	.LC2:
 198 0028 64757479 		.ascii	"dutyCycle\000"
 198      4379636C 
 198      6500
 199 0032 0000     		.ident	"GCC: (Sourcery CodeBench Lite 2013.11-24) 4.8.1"
ARM GAS  C:\Users\pc\AppData\Local\Temp\ccu9eobd.s 			page 5

