ARM GAS  C:\Users\pc\AppData\Local\Temp\ccPx068H.s 			page 1


   1              		.syntax unified
   2              		.cpu cortex-m4
   3              		.eabi_attribute 27, 3
   4              		.fpu fpv4-sp-d16
   5              		.eabi_attribute 20, 1
   6              		.eabi_attribute 21, 1
   7              		.eabi_attribute 23, 3
   8              		.eabi_attribute 24, 1
   9              		.eabi_attribute 25, 1
  10              		.eabi_attribute 26, 1
  11              		.eabi_attribute 30, 2
  12              		.eabi_attribute 34, 1
  13              		.eabi_attribute 18, 4
  14              		.thumb
  15              		.file	"rover_v8.cpp"
  16              		.section	.text._Z22setFrankenstein_01_LCDP21board_configuration_s,"ax",%progbits
  17              		.align	2
  18              		.p2align 4,,15
  19              		.global	_Z22setFrankenstein_01_LCDP21board_configuration_s
  20              		.thumb
  21              		.thumb_func
  22              		.type	_Z22setFrankenstein_01_LCDP21board_configuration_s, %function
  23              	_Z22setFrankenstein_01_LCDP21board_configuration_s:
  24              		@ args = 0, pretend = 0, frame = 0
  25              		@ frame_needed = 0, uses_anonymous_args = 0
  26              		@ link register save eliminated.
  27 0000 70B4     		push	{r4, r5, r6}
  28 0002 4F21     		movs	r1, #79
  29 0004 4926     		movs	r6, #73
  30 0006 4B25     		movs	r5, #75
  31 0008 4D24     		movs	r4, #77
  32 000a 1B22     		movs	r2, #27
  33 000c 1D23     		movs	r3, #29
  34 000e C0F8B060 		str	r6, [r0, #176]
  35 0012 C0F8B450 		str	r5, [r0, #180]
  36 0016 C0F8B840 		str	r4, [r0, #184]
  37 001a C0F8BC10 		str	r1, [r0, #188]
  38 001e C0F8C020 		str	r2, [r0, #192]
  39 0022 C0F8C430 		str	r3, [r0, #196]
  40 0026 70BC     		pop	{r4, r5, r6}
  41 0028 7047     		bx	lr
  42              		.size	_Z22setFrankenstein_01_LCDP21board_configuration_s, .-_Z22setFrankenstein_01_LCDP21board_con
  43 002a 00BFAFF3 		.section	.text._Z10setRoverv8v,"ax",%progbits
  43      0080
  44              		.align	2
  45              		.p2align 4,,15
  46              		.global	_Z10setRoverv8v
  47              		.thumb
  48              		.thumb_func
  49              		.type	_Z10setRoverv8v, %function
  50              	_Z10setRoverv8v:
  51              		@ args = 0, pretend = 0, frame = 0
  52              		@ frame_needed = 0, uses_anonymous_args = 0
  53 0000 2DE9F047 		push	{r4, r5, r6, r7, r8, r9, r10, lr}
  54 0004 40F20004 		movw	r4, #:lower16:engineConfiguration
  55 0008 C0F20004 		movt	r4, #:upper16:engineConfiguration
  56 000c 0121     		movs	r1, #1
ARM GAS  C:\Users\pc\AppData\Local\Temp\ccPx068H.s 			page 2


  57 000e 2068     		ldr	r0, [r4]
  58 0010 FFF7FEFF 		bl	_Z16setOperationModeP22engine_configuration_s16operation_mode_e
  59 0014 2368     		ldr	r3, [r4]
  60 0016 4CF6C12E 		movw	lr, #51905
  61 001a 4FF47A61 		mov	r1, #4000
  62 001e 40F22622 		movw	r2, #550
  63 0022 C4F2610E 		movt	lr, 16481
  64 0026 0927     		movs	r7, #9
  65 0028 0826     		movs	r6, #8
  66 002a 0525     		movs	r5, #5
  67 002c 0020     		movs	r0, #0
  68 002e C3F81872 		str	r7, [r3, #536]
  69 0032 C3F89461 		str	r6, [r3, #404]
  70 0036 C3F89851 		str	r5, [r3, #408]
  71 003a C3F8A411 		str	r1, [r3, #420]
  72 003e A3F86020 		strh	r2, [r3, #96]	@ movhi
  73 0042 C4F24000 		movt	r0, 16448
  74 0046 C3F890E1 		str	lr, [r3, #400]	@ float
  75 004a FFF7FEFF 		bl	_Z15setWholeFuelMapf
  76 004e 40F20003 		movw	r3, #:lower16:boardConfiguration
  77 0052 C0F20003 		movt	r3, #:upper16:boardConfiguration
  78 0056 2268     		ldr	r2, [r4]
  79 0058 1B68     		ldr	r3, [r3]
  80 005a 0021     		movs	r1, #0
  81 005c 4FF00209 		mov	r9, #2
  82 0060 1C20     		movs	r0, #28
  83 0062 4FF0010A 		mov	r10, #1
  84 0066 4FF01908 		mov	r8, #25
  85 006a 4FF0180C 		mov	ip, #24
  86 006e 4327     		movs	r7, #67
  87 0070 4526     		movs	r6, #69
  88 0072 2D25     		movs	r5, #45
  89 0074 1624     		movs	r4, #22
  90 0076 C2F8AC11 		str	r1, [r2, #428]
  91 007a C2F8B0A1 		str	r10, [r2, #432]
  92 007e C2F8BC91 		str	r9, [r2, #444]
  93 0082 D961     		str	r1, [r3, #28]
  94 0084 1965     		str	r1, [r3, #80]
  95 0086 C3F82080 		str	r8, [r3, #32]
  96 008a C3F824C0 		str	ip, [r3, #36]
  97 008e 9F62     		str	r7, [r3, #40]
  98 0090 DE62     		str	r6, [r3, #44]
  99 0092 9D61     		str	r5, [r3, #24]
 100 0094 C3F85841 		str	r4, [r3, #344]
 101 0098 C3F85C01 		str	r0, [r3, #348]
 102 009c 92F8D935 		ldrb	r3, [r2, #1497]	@ zero_extendqisi2
 103 00a0 92F8D805 		ldrb	r0, [r2, #1496]	@ zero_extendqisi2
 104 00a4 43EA0903 		orr	r3, r3, r9
 105 00a8 61F30003 		bfi	r3, r1, #0, #1
 106 00ac 40F04000 		orr	r0, r0, #64
 107 00b0 0321     		movs	r1, #3
 108 00b2 82F8D935 		strb	r3, [r2, #1497]
 109 00b6 82F8D805 		strb	r0, [r2, #1496]
 110 00ba C2F8EC11 		str	r1, [r2, #492]
 111 00be BDE8F087 		pop	{r4, r5, r6, r7, r8, r9, r10, pc}
 112              		.size	_Z10setRoverv8v, .-_Z10setRoverv8v
 113 00c2 00BFAFF3 		.ident	"GCC: (Sourcery CodeBench Lite 2013.11-24) 4.8.1"
ARM GAS  C:\Users\pc\AppData\Local\Temp\ccPx068H.s 			page 3


 113      0080AFF3 
 113      0080AFF3 
 113      0080
ARM GAS  C:\Users\pc\AppData\Local\Temp\ccPx068H.s 			page 4


DEFINED SYMBOLS
                            *ABS*:00000000 rover_v8.cpp
C:\Users\pc\AppData\Local\Temp\ccPx068H.s:17     .text._Z22setFrankenstein_01_LCDP21board_configuration_s:00000000 $t
C:\Users\pc\AppData\Local\Temp\ccPx068H.s:23     .text._Z22setFrankenstein_01_LCDP21board_configuration_s:00000000 _Z22setFrankenstein_01_LCDP21board_configuration_s
C:\Users\pc\AppData\Local\Temp\ccPx068H.s:44     .text._Z10setRoverv8v:00000000 $t
C:\Users\pc\AppData\Local\Temp\ccPx068H.s:50     .text._Z10setRoverv8v:00000000 _Z10setRoverv8v

UNDEFINED SYMBOLS
engineConfiguration
_Z16setOperationModeP22engine_configuration_s16operation_mode_e
_Z15setWholeFuelMapf
boardConfiguration
