ARM GAS  C:\Users\pc\AppData\Local\Temp\ccCTLKUA.s 			page 1


   1              		.syntax unified
   2              		.cpu cortex-m4
   3              		.eabi_attribute 27, 3
   4              		.fpu fpv4-sp-d16
   5              		.eabi_attribute 20, 1
   6              		.eabi_attribute 21, 1
   7              		.eabi_attribute 23, 3
   8              		.eabi_attribute 24, 1
   9              		.eabi_attribute 25, 1
  10              		.eabi_attribute 26, 1
  11              		.eabi_attribute 30, 2
  12              		.eabi_attribute 34, 1
  13              		.eabi_attribute 18, 4
  14              		.thumb
  15              		.file	"rtc_lld.c"
  16              		.section	.text.rtc_lld_init,"ax",%progbits
  17              		.align	2
  18              		.p2align 4,,15
  19              		.global	rtc_lld_init
  20              		.thumb
  21              		.thumb_func
  22              		.type	rtc_lld_init, %function
  23              	rtc_lld_init:
  24              		@ args = 0, pretend = 0, frame = 0
  25              		@ frame_needed = 0, uses_anonymous_args = 0
  26              		@ link register save eliminated.
  27 0000 40F20003 		movw	r3, #:lower16:.LANCHOR0
  28 0004 4FF42051 		mov	r1, #10240
  29 0008 C4F20001 		movt	r1, 16384
  30 000c C0F20003 		movt	r3, #:upper16:.LANCHOR0
  31 0010 CA20     		movs	r0, #202
  32 0012 5322     		movs	r2, #83
  33 0014 1960     		str	r1, [r3]
  34 0016 4862     		str	r0, [r1, #36]
  35 0018 4A62     		str	r2, [r1, #36]
  36 001a CB68     		ldr	r3, [r1, #12]
  37 001c D806     		lsls	r0, r3, #27
  38 001e 1AD4     		bmi	.L1
  39 0020 CA68     		ldr	r2, [r1, #12]
  40 0022 44F24023 		movw	r3, #16960
  41 0026 42F08002 		orr	r2, r2, #128
  42 002a CA60     		str	r2, [r1, #12]
  43 002c C0F20F03 		movt	r3, 15
  44 0030 01E0     		b	.L4
  45              	.L10:
  46 0032 013B     		subs	r3, r3, #1
  47 0034 02D0     		beq	.L3
  48              	.L4:
  49 0036 CA68     		ldr	r2, [r1, #12]
  50 0038 5206     		lsls	r2, r2, #25
  51 003a FAD5     		bpl	.L10
  52              	.L3:
  53 003c 4FF42053 		mov	r3, #10240
  54 0040 C4F20003 		movt	r3, 16384
  55 0044 FF22     		movs	r2, #255
  56 0046 C0F27F02 		movt	r2, 127
  57 004a 1A61     		str	r2, [r3, #16]
ARM GAS  C:\Users\pc\AppData\Local\Temp\ccCTLKUA.s 			page 2


  58 004c 1A61     		str	r2, [r3, #16]
  59 004e DA68     		ldr	r2, [r3, #12]
  60 0050 22F08002 		bic	r2, r2, #128
  61 0054 DA60     		str	r2, [r3, #12]
  62              	.L1:
  63 0056 7047     		bx	lr
  64              		.size	rtc_lld_init, .-rtc_lld_init
  65 0058 AFF30080 		.section	.text.rtc_lld_set_time,"ax",%progbits
  65      AFF30080 
  66              		.align	2
  67              		.p2align 4,,15
  68              		.global	rtc_lld_set_time
  69              		.thumb
  70              		.thumb_func
  71              		.type	rtc_lld_set_time, %function
  72              	rtc_lld_set_time:
  73              		@ args = 0, pretend = 0, frame = 0
  74              		@ frame_needed = 0, uses_anonymous_args = 0
  75              		@ link register save eliminated.
  76 0000 40F20002 		movw	r2, #:lower16:.LANCHOR0
  77 0004 C0F20002 		movt	r2, #:upper16:.LANCHOR0
  78 0008 44F24023 		movw	r3, #16960
  79 000c 1068     		ldr	r0, [r2]
  80 000e C268     		ldr	r2, [r0, #12]
  81 0010 42F08002 		orr	r2, r2, #128
  82 0014 C260     		str	r2, [r0, #12]
  83 0016 C0F20F03 		movt	r3, 15
  84 001a 01E0     		b	.L13
  85              	.L20:
  86 001c 013B     		subs	r3, r3, #1
  87 001e 02D0     		beq	.L12
  88              	.L13:
  89 0020 C268     		ldr	r2, [r0, #12]
  90 0022 5206     		lsls	r2, r2, #25
  91 0024 FAD5     		bpl	.L20
  92              	.L12:
  93 0026 0B7A     		ldrb	r3, [r1, #8]	@ zero_extendqisi2
  94 0028 63B9     		cbnz	r3, .L21
  95 002a 8368     		ldr	r3, [r0, #8]
  96 002c 23F04003 		bic	r3, r3, #64
  97 0030 8360     		str	r3, [r0, #8]
  98              	.L15:
  99 0032 0B68     		ldr	r3, [r1]
 100 0034 4A68     		ldr	r2, [r1, #4]
 101 0036 0260     		str	r2, [r0]
 102 0038 4360     		str	r3, [r0, #4]
 103 003a C368     		ldr	r3, [r0, #12]
 104 003c 23F08003 		bic	r3, r3, #128
 105 0040 C360     		str	r3, [r0, #12]
 106 0042 7047     		bx	lr
 107              	.L21:
 108 0044 8368     		ldr	r3, [r0, #8]
 109 0046 43F04003 		orr	r3, r3, #64
 110 004a 8360     		str	r3, [r0, #8]
 111 004c F1E7     		b	.L15
 112              		.size	rtc_lld_set_time, .-rtc_lld_set_time
 113 004e 00BF     		.section	.text.rtc_lld_get_time,"ax",%progbits
ARM GAS  C:\Users\pc\AppData\Local\Temp\ccCTLKUA.s 			page 3


 114              		.align	2
 115              		.p2align 4,,15
 116              		.global	rtc_lld_get_time
 117              		.thumb
 118              		.thumb_func
 119              		.type	rtc_lld_get_time, %function
 120              	rtc_lld_get_time:
 121              		@ args = 0, pretend = 0, frame = 0
 122              		@ frame_needed = 0, uses_anonymous_args = 0
 123              		@ link register save eliminated.
 124 0000 40F20002 		movw	r2, #:lower16:.LANCHOR0
 125 0004 C0F20002 		movt	r2, #:upper16:.LANCHOR0
 126 0008 44F24023 		movw	r3, #16960
 127 000c 30B4     		push	{r4, r5}
 128 000e 1068     		ldr	r0, [r2]
 129 0010 C0F20F03 		movt	r3, 15
 130 0014 01E0     		b	.L25
 131              	.L23:
 132 0016 013B     		subs	r3, r3, #1
 133 0018 02D0     		beq	.L24
 134              	.L25:
 135 001a C268     		ldr	r2, [r0, #12]
 136 001c 9406     		lsls	r4, r2, #26
 137 001e FAD5     		bpl	.L23
 138              	.L24:
 139 0020 0369     		ldr	r3, [r0, #16]
 140 0022 856A     		ldr	r5, [r0, #40]
 141 0024 0468     		ldr	r4, [r0]
 142 0026 4268     		ldr	r2, [r0, #4]
 143 0028 4C60     		str	r4, [r1, #4]
 144 002a C3F30E03 		ubfx	r3, r3, #0, #15
 145 002e 581B     		subs	r0, r3, r5
 146 0030 4FF47A74 		mov	r4, #1000
 147 0034 04FB00F0 		mul	r0, r4, r0
 148 0038 0133     		adds	r3, r3, #1
 149 003a B0FBF3F3 		udiv	r3, r0, r3
 150 003e CB60     		str	r3, [r1, #12]
 151 0040 0A60     		str	r2, [r1]
 152 0042 30BC     		pop	{r4, r5}
 153 0044 7047     		bx	lr
 154              		.size	rtc_lld_get_time, .-rtc_lld_get_time
 155 0046 00BFAFF3 		.section	.text.rtc_lld_set_alarm,"ax",%progbits
 155      0080AFF3 
 155      0080
 156              		.align	2
 157              		.p2align 4,,15
 158              		.global	rtc_lld_set_alarm
 159              		.thumb
 160              		.thumb_func
 161              		.type	rtc_lld_set_alarm, %function
 162              	rtc_lld_set_alarm:
 163              		@ args = 0, pretend = 0, frame = 0
 164              		@ frame_needed = 0, uses_anonymous_args = 0
 165              		@ link register save eliminated.
 166 0000 A1B9     		cbnz	r1, .L32
 167 0002 002A     		cmp	r2, #0
 168 0004 30D0     		beq	.L33
ARM GAS  C:\Users\pc\AppData\Local\Temp\ccCTLKUA.s 			page 4


 169 0006 0168     		ldr	r1, [r0]
 170 0008 8B68     		ldr	r3, [r1, #8]
 171 000a 23F48073 		bic	r3, r3, #256
 172 000e 8B60     		str	r3, [r1, #8]
 173              	.L35:
 174 0010 CB68     		ldr	r3, [r1, #12]
 175 0012 D807     		lsls	r0, r3, #31
 176 0014 FCD5     		bpl	.L35
 177 0016 1368     		ldr	r3, [r2]
 178 0018 CB61     		str	r3, [r1, #28]
 179 001a 8B68     		ldr	r3, [r1, #8]
 180 001c 43F48073 		orr	r3, r3, #256
 181 0020 8B60     		str	r3, [r1, #8]
 182 0022 8B68     		ldr	r3, [r1, #8]
 183 0024 43F48053 		orr	r3, r3, #4096
 184 0028 8B60     		str	r3, [r1, #8]
 185 002a 7047     		bx	lr
 186              	.L32:
 187 002c 92B1     		cbz	r2, .L37
 188 002e 0168     		ldr	r1, [r0]
 189 0030 8B68     		ldr	r3, [r1, #8]
 190 0032 23F40073 		bic	r3, r3, #512
 191 0036 8B60     		str	r3, [r1, #8]
 192              	.L39:
 193 0038 CB68     		ldr	r3, [r1, #12]
 194 003a 9B07     		lsls	r3, r3, #30
 195 003c FCD5     		bpl	.L39
 196 003e 1368     		ldr	r3, [r2]
 197 0040 0B62     		str	r3, [r1, #32]
 198 0042 8B68     		ldr	r3, [r1, #8]
 199 0044 43F40073 		orr	r3, r3, #512
 200 0048 8B60     		str	r3, [r1, #8]
 201 004a 8B68     		ldr	r3, [r1, #8]
 202 004c 43F40053 		orr	r3, r3, #8192
 203 0050 8B60     		str	r3, [r1, #8]
 204 0052 7047     		bx	lr
 205              	.L37:
 206 0054 0368     		ldr	r3, [r0]
 207 0056 9A68     		ldr	r2, [r3, #8]
 208 0058 22F40052 		bic	r2, r2, #8192
 209 005c 9A60     		str	r2, [r3, #8]
 210 005e 9A68     		ldr	r2, [r3, #8]
 211 0060 22F40072 		bic	r2, r2, #512
 212 0064 9A60     		str	r2, [r3, #8]
 213 0066 7047     		bx	lr
 214              	.L33:
 215 0068 0368     		ldr	r3, [r0]
 216 006a 9A68     		ldr	r2, [r3, #8]
 217 006c 22F48052 		bic	r2, r2, #4096
 218 0070 9A60     		str	r2, [r3, #8]
 219 0072 9A68     		ldr	r2, [r3, #8]
 220 0074 22F48072 		bic	r2, r2, #256
 221 0078 9A60     		str	r2, [r3, #8]
 222 007a 7047     		bx	lr
 223              		.size	rtc_lld_set_alarm, .-rtc_lld_set_alarm
 224 007c AFF30080 		.section	.text.rtc_lld_get_alarm,"ax",%progbits
 225              		.align	2
ARM GAS  C:\Users\pc\AppData\Local\Temp\ccCTLKUA.s 			page 5


 226              		.p2align 4,,15
 227              		.global	rtc_lld_get_alarm
 228              		.thumb
 229              		.thumb_func
 230              		.type	rtc_lld_get_alarm, %function
 231              	rtc_lld_get_alarm:
 232              		@ args = 0, pretend = 0, frame = 0
 233              		@ frame_needed = 0, uses_anonymous_args = 0
 234              		@ link register save eliminated.
 235 0000 0368     		ldr	r3, [r0]
 236 0002 11B1     		cbz	r1, .L43
 237 0004 1B6A     		ldr	r3, [r3, #32]
 238 0006 1360     		str	r3, [r2]
 239 0008 7047     		bx	lr
 240              	.L43:
 241 000a DB69     		ldr	r3, [r3, #28]
 242 000c 1360     		str	r3, [r2]
 243 000e 7047     		bx	lr
 244              		.size	rtc_lld_get_alarm, .-rtc_lld_get_alarm
 245              		.section	.text.rtcSetPeriodicWakeup_v2,"ax",%progbits
 246              		.align	2
 247              		.p2align 4,,15
 248              		.global	rtcSetPeriodicWakeup_v2
 249              		.thumb
 250              		.thumb_func
 251              		.type	rtcSetPeriodicWakeup_v2, %function
 252              	rtcSetPeriodicWakeup_v2:
 253              		@ args = 0, pretend = 0, frame = 0
 254              		@ frame_needed = 0, uses_anonymous_args = 0
 255 0000 38B5     		push	{r3, r4, r5, lr}
 256 0002 0C46     		mov	r4, r1
 257 0004 0546     		mov	r5, r0
 258 0006 C9B1     		cbz	r1, .L45
 259 0008 0968     		ldr	r1, [r1]
 260 000a B1F5403F 		cmp	r1, #196608
 261 000e 1FD0     		beq	.L51
 262              	.L46:
 263 0010 2A68     		ldr	r2, [r5]
 264 0012 9368     		ldr	r3, [r2, #8]
 265 0014 23F48063 		bic	r3, r3, #1024
 266 0018 9360     		str	r3, [r2, #8]
 267              	.L48:
 268 001a D368     		ldr	r3, [r2, #12]
 269 001c 5C07     		lsls	r4, r3, #29
 270 001e FCD5     		bpl	.L48
 271 0020 8BB2     		uxth	r3, r1
 272 0022 C1F30241 		ubfx	r1, r1, #16, #3
 273 0026 5361     		str	r3, [r2, #20]
 274 0028 9160     		str	r1, [r2, #8]
 275 002a 9368     		ldr	r3, [r2, #8]
 276 002c 43F48043 		orr	r3, r3, #16384
 277 0030 9360     		str	r3, [r2, #8]
 278 0032 9368     		ldr	r3, [r2, #8]
 279 0034 43F48063 		orr	r3, r3, #1024
 280 0038 9360     		str	r3, [r2, #8]
 281 003a 38BD     		pop	{r3, r4, r5, pc}
 282              	.L45:
ARM GAS  C:\Users\pc\AppData\Local\Temp\ccCTLKUA.s 			page 6


 283 003c 0368     		ldr	r3, [r0]
 284 003e 9A68     		ldr	r2, [r3, #8]
 285 0040 22F48042 		bic	r2, r2, #16384
 286 0044 9A60     		str	r2, [r3, #8]
 287 0046 9A68     		ldr	r2, [r3, #8]
 288 0048 22F48062 		bic	r2, r2, #1024
 289 004c 9A60     		str	r2, [r3, #8]
 290 004e 38BD     		pop	{r3, r4, r5, pc}
 291              	.L51:
 292 0050 40F20000 		movw	r0, #:lower16:.LC0
 293 0054 40F20001 		movw	r1, #:lower16:.LC1
 294 0058 C0F20001 		movt	r1, #:upper16:.LC1
 295 005c C0F20000 		movt	r0, #:upper16:.LC0
 296 0060 FC22     		movs	r2, #252
 297 0062 FFF7FEFF 		bl	chDbgPanic3
 298 0066 2168     		ldr	r1, [r4]
 299 0068 D2E7     		b	.L46
 300              		.size	rtcSetPeriodicWakeup_v2, .-rtcSetPeriodicWakeup_v2
 301 006a 00BFAFF3 		.section	.text.rtcGetPeriodicWakeup_v2,"ax",%progbits
 301      0080
 302              		.align	2
 303              		.p2align 4,,15
 304              		.global	rtcGetPeriodicWakeup_v2
 305              		.thumb
 306              		.thumb_func
 307              		.type	rtcGetPeriodicWakeup_v2, %function
 308              	rtcGetPeriodicWakeup_v2:
 309              		@ args = 0, pretend = 0, frame = 0
 310              		@ frame_needed = 0, uses_anonymous_args = 0
 311              		@ link register save eliminated.
 312 0000 0368     		ldr	r3, [r0]
 313 0002 5A69     		ldr	r2, [r3, #20]
 314 0004 9B68     		ldr	r3, [r3, #8]
 315 0006 03F00703 		and	r3, r3, #7
 316 000a 42EA0343 		orr	r3, r2, r3, lsl #16
 317 000e 0B60     		str	r3, [r1]
 318 0010 7047     		bx	lr
 319              		.size	rtcGetPeriodicWakeup_v2, .-rtcGetPeriodicWakeup_v2
 320 0012 00BFAFF3 		.section	.text.rtc_lld_get_time_fat,"ax",%progbits
 320      0080AFF3 
 320      0080AFF3 
 320      0080
 321              		.align	2
 322              		.p2align 4,,15
 323              		.global	rtc_lld_get_time_fat
 324              		.thumb
 325              		.thumb_func
 326              		.type	rtc_lld_get_time_fat, %function
 327              	rtc_lld_get_time_fat:
 328              		@ args = 0, pretend = 0, frame = 16
 329              		@ frame_needed = 0, uses_anonymous_args = 0
 330 0000 2DE9F043 		push	{r4, r5, r6, r7, r8, r9, lr}
 331 0004 2023     		movs	r3, #32
 332 0006 85B0     		sub	sp, sp, #20
 333 0008 0446     		mov	r4, r0
 334              	@ 303 "chibios/os/hal/platforms/STM32/RTCv2/rtc_lld.c" 1
 335 000a 83F31188 		msr     BASEPRI, r3
ARM GAS  C:\Users\pc\AppData\Local\Temp\ccCTLKUA.s 			page 7


 336              	@ 0 "" 2
 337              		.thumb
 338 000e FFF7FEFF 		bl	dbg_check_lock
 339 0012 2046     		mov	r0, r4
 340 0014 6946     		mov	r1, sp
 341 0016 FFF7FEFF 		bl	rtc_lld_get_time
 342 001a FFF7FEFF 		bl	dbg_check_unlock
 343 001e 0023     		movs	r3, #0
 344              	@ 305 "chibios/os/hal/platforms/STM32/RTCv2/rtc_lld.c" 1
 345 0020 83F31188 		msr     BASEPRI, r3
 346              	@ 0 "" 2
 347              		.thumb
 348 0024 9DE80C00 		ldmia	sp, {r2, r3}
 349 0028 C3F30231 		ubfx	r1, r3, #12, #3
 350 002c C3F30320 		ubfx	r0, r3, #8, #4
 351 0030 01EB8109 		add	r9, r1, r1, lsl #2
 352 0034 C3F30211 		ubfx	r1, r3, #4, #3
 353 0038 03F00F05 		and	r5, r3, #15
 354 003c 00EB4909 		add	r9, r0, r9, lsl #1
 355 0040 01EB8108 		add	r8, r1, r1, lsl #2
 356 0044 C2F30030 		ubfx	r0, r2, #12, #1
 357 0048 C3F38051 		ubfx	r1, r3, #22, #1
 358 004c C2F30114 		ubfx	r4, r2, #4, #2
 359 0050 02F00F0C 		and	ip, r2, #15
 360 0054 4FEA4919 		lsl	r9, r9, #5
 361 0058 05EB4808 		add	r8, r5, r8, lsl #1
 362 005c 04EB8404 		add	r4, r4, r4, lsl #2
 363 0060 8600     		lsls	r6, r0, #2
 364 0062 4D00     		lsls	r5, r1, #1
 365 0064 0CEB4407 		add	r7, ip, r4, lsl #1
 366 0068 3044     		add	r0, r0, r6
 367 006a C2F3032C 		ubfx	ip, r2, #8, #4
 368 006e 49EA5808 		orr	r8, r9, r8, lsr #1
 369 0072 C2F30346 		ubfx	r6, r2, #16, #4
 370 0076 0D44     		add	r5, r5, r1
 371 0078 C2F30352 		ubfx	r2, r2, #20, #4
 372 007c C3F30151 		ubfx	r1, r3, #20, #2
 373 0080 0CEB4004 		add	r4, ip, r0, lsl #1
 374 0084 48EA0747 		orr	r7, r8, r7, lsl #16
 375 0088 1436     		adds	r6, r6, #20
 376 008a AD00     		lsls	r5, r5, #2
 377 008c 01EB8101 		add	r1, r1, r1, lsl #2
 378 0090 02EB8202 		add	r2, r2, r2, lsl #2
 379 0094 47EA4454 		orr	r4, r7, r4, lsl #21
 380 0098 06EB4202 		add	r2, r6, r2, lsl #1
 381 009c 05EB4100 		add	r0, r5, r1, lsl #1
 382 00a0 C3F30343 		ubfx	r3, r3, #16, #4
 383 00a4 44EA4262 		orr	r2, r4, r2, lsl #25
 384 00a8 1844     		add	r0, r0, r3
 385 00aa 42EAC020 		orr	r0, r2, r0, lsl #11
 386 00ae 05B0     		add	sp, sp, #20
 387              		@ sp needed
 388 00b0 BDE8F083 		pop	{r4, r5, r6, r7, r8, r9, pc}
 389              		.size	rtc_lld_get_time_fat, .-rtc_lld_get_time_fat
 390              		.global	RTCD1
 391 00b4 AFF30080 		.section	.bss.RTCD1,"aw",%nobits
 391      AFF30080 
ARM GAS  C:\Users\pc\AppData\Local\Temp\ccCTLKUA.s 			page 8


 391      AFF30080 
 392              		.align	2
 393              		.set	.LANCHOR0,. + 0
 394              		.type	RTCD1, %object
 395              		.size	RTCD1, 4
 396              	RTCD1:
 397 0000 00000000 		.space	4
 398              		.section	.rodata.str1.4,"aMS",%progbits,1
 399              		.align	2
 400              	.LC0:
 401 0000 22727463 		.ascii	"\"rtc_lld_set_periodic_wakeup, forbidden combinatio"
 401      5F6C6C64 
 401      5F736574 
 401      5F706572 
 401      696F6469 
 402 0032 6E222829 		.ascii	"n\"()\000"
 402      00
 403 0037 00       		.space	1
 404              	.LC1:
 405 0038 63686962 		.ascii	"chibios/os/hal/platforms/STM32/RTCv2/rtc_lld.c\000"
 405      696F732F 
 405      6F732F68 
 405      616C2F70 
 405      6C617466 
 406 0067 00       		.ident	"GCC: (Sourcery CodeBench Lite 2013.11-24) 4.8.1"
ARM GAS  C:\Users\pc\AppData\Local\Temp\ccCTLKUA.s 			page 9

