ARM GAS  C:\Users\pc\AppData\Local\Temp\ccgqGuLj.s 			page 1


   1              		.syntax unified
   2              		.cpu cortex-m4
   3              		.eabi_attribute 27, 3
   4              		.fpu fpv4-sp-d16
   5              		.eabi_attribute 20, 1
   6              		.eabi_attribute 21, 1
   7              		.eabi_attribute 23, 3
   8              		.eabi_attribute 24, 1
   9              		.eabi_attribute 25, 1
  10              		.eabi_attribute 26, 1
  11              		.eabi_attribute 30, 2
  12              		.eabi_attribute 34, 1
  13              		.eabi_attribute 18, 4
  14              		.thumb
  15              		.file	"sachs.cpp"
  16              		.section	.text._Z8setSachsv,"ax",%progbits
  17              		.align	2
  18              		.p2align 4,,15
  19              		.global	_Z8setSachsv
  20              		.thumb
  21              		.thumb_func
  22              		.type	_Z8setSachsv, %function
  23              	_Z8setSachsv:
  24              		@ args = 0, pretend = 0, frame = 0
  25              		@ frame_needed = 0, uses_anonymous_args = 0
  26 0000 2DE9F043 		push	{r4, r5, r6, r7, r8, r9, lr}
  27 0004 40F20005 		movw	r5, #:lower16:engineConfiguration
  28 0008 C0F20005 		movt	r5, #:upper16:engineConfiguration
  29 000c 4CF6CD41 		movw	r1, #52429
  30 0010 2868     		ldr	r0, [r5]
  31 0012 0122     		movs	r2, #1
  32 0014 4FF4B473 		mov	r3, #360
  33 0018 C3F6CC51 		movt	r1, 15820
  34 001c 83B0     		sub	sp, sp, #12
  35 001e C0F89011 		str	r1, [r0, #400]	@ float
  36 0022 C0F89421 		str	r2, [r0, #404]
  37 0026 C0F8A031 		str	r3, [r0, #416]
  38 002a 0321     		movs	r1, #3
  39 002c FFF7FEFF 		bl	_Z16setOperationModeP22engine_configuration_s16operation_mode_e
  40 0030 2C68     		ldr	r4, [r5]
  41 0032 40F20006 		movw	r6, #:lower16:boardConfiguration
  42 0036 94F8D815 		ldrb	r1, [r4, #1496]	@ zero_extendqisi2
  43 003a C0F20006 		movt	r6, #:upper16:boardConfiguration
  44 003e 0023     		movs	r3, #0
  45 0040 0022     		movs	r2, #0
  46 0042 01F0F001 		and	r1, r1, #240
  47 0046 4FF4C87C 		mov	ip, #400
  48 004a C4F8B421 		str	r2, [r4, #436]	@ float
  49 004e 4FF0320E 		mov	lr, #50
  50 0052 3268     		ldr	r2, [r6]
  51 0054 C4F8E8C5 		str	ip, [r4, #1512]
  52 0058 63F3C711 		bfi	r1, r3, #7, #1
  53 005c 0227     		movs	r7, #2
  54 005e C4F820E2 		str	lr, [r4, #544]
  55 0062 C4F82472 		str	r7, [r4, #548]
  56 0066 C4F89831 		str	r3, [r4, #408]
  57 006a C4F81832 		str	r3, [r4, #536]
ARM GAS  C:\Users\pc\AppData\Local\Temp\ccgqGuLj.s 			page 2


  58 006e 84F8D815 		strb	r1, [r4, #1496]
  59 0072 92F88111 		ldrb	r1, [r2, #385]	@ zero_extendqisi2
  60 0076 0327     		movs	r7, #3
  61 0078 63F30001 		bfi	r1, r3, #0, #1
  62 007c 0020     		movs	r0, #0
  63 007e 4FF45E73 		mov	r3, #888
  64 0082 82F88111 		strb	r1, [r2, #385]
  65 0086 C3F6A070 		movt	r0, 16288
  66 008a C4F8D831 		str	r3, [r4, #472]
  67 008e C4F80C72 		str	r7, [r4, #524]
  68 0092 FFF7FEFF 		bl	_Z24convertVoltageTo10bitADCf
  69 0096 A4F85200 		strh	r0, [r4, #82]	@ movhi
  70 009a 43F24C70 		movw	r0, #14156
  71 009e C4F29100 		movt	r0, 16529
  72 00a2 2C68     		ldr	r4, [r5]
  73 00a4 FFF7FEFF 		bl	_Z24convertVoltageTo10bitADCf
  74 00a8 4FF00008 		mov	r8, #0
  75 00ac 3368     		ldr	r3, [r6]
  76 00ae A4F85400 		strh	r0, [r4, #84]	@ movhi
  77 00b2 4FF4C044 		mov	r4, #24576
  78 00b6 4FF0050E 		mov	lr, #5
  79 00ba C4F26A64 		movt	r4, 18026
  80 00be 4622     		movs	r2, #70
  81 00c0 C4F24848 		movt	r8, 17480
  82 00c4 5020     		movs	r0, #80
  83 00c6 2F21     		movs	r1, #47
  84 00c8 40F20007 		movw	r7, #:lower16:config
  85 00cc C3F828E1 		str	lr, [r3, #296]
  86 00d0 C3F82C01 		str	r0, [r3, #300]
  87 00d4 1962     		str	r1, [r3, #32]
  88 00d6 9A61     		str	r2, [r3, #24]
  89 00d8 4046     		mov	r0, r8	@ float
  90 00da 2146     		mov	r1, r4	@ float
  91 00dc C0F20007 		movt	r7, #:upper16:config
  92 00e0 FFF7FEFF 		bl	_Z13setFuelRpmBinff
  93 00e4 4046     		mov	r0, r8	@ float
  94 00e6 2146     		mov	r1, r4	@ float
  95 00e8 FFF7FEFF 		bl	_Z15setTimingRpmBinff
  96 00ec 3868     		ldr	r0, [r7]
  97 00ee 4FF44048 		mov	r8, #49152
  98 00f2 C4F2DA58 		movt	r8, 17882
  99 00f6 4FF07E59 		mov	r9, #1065353216
 100 00fa 00F55B50 		add	r0, r0, #14016
 101 00fe 2246     		mov	r2, r4	@ float
 102 0100 4346     		mov	r3, r8	@ float
 103 0102 3830     		adds	r0, r0, #56
 104 0104 CDF80090 		str	r9, [sp]	@ float
 105 0108 1021     		movs	r1, #16
 106 010a FFF7FEFF 		bl	_Z12setTableBin2Pfifff
 107 010e 3868     		ldr	r0, [r7]
 108 0110 CDF80090 		str	r9, [sp]	@ float
 109 0114 00F56D50 		add	r0, r0, #15168
 110 0118 2246     		mov	r2, r4	@ float
 111 011a 4346     		mov	r3, r8	@ float
 112 011c 3830     		adds	r0, r0, #56
 113 011e 1021     		movs	r1, #16
 114 0120 FFF7FEFF 		bl	_Z12setTableBin2Pfifff
ARM GAS  C:\Users\pc\AppData\Local\Temp\ccgqGuLj.s 			page 3


 115 0124 2B68     		ldr	r3, [r5]
 116 0126 93F8DA25 		ldrb	r2, [r3, #1498]	@ zero_extendqisi2
 117 012a 42F00402 		orr	r2, r2, #4
 118 012e 83F8DA25 		strb	r2, [r3, #1498]
 119 0132 3368     		ldr	r3, [r6]
 120 0134 0022     		movs	r2, #0
 121 0136 C4F2A022 		movt	r2, 17056
 122 013a 0021     		movs	r1, #0
 123 013c C4F21F31 		movt	r1, 17183
 124 0140 C3F89820 		str	r2, [r3, #152]	@ float
 125 0144 2622     		movs	r2, #38
 126 0146 C3F89C10 		str	r1, [r3, #156]	@ float
 127 014a C3F86423 		str	r2, [r3, #868]
 128 014e 03B0     		add	sp, sp, #12
 129              		@ sp needed
 130 0150 BDE8F083 		pop	{r4, r5, r6, r7, r8, r9, pc}
 131              		.size	_Z8setSachsv, .-_Z8setSachsv
 132 0154 AFF30080 		.ident	"GCC: (Sourcery CodeBench Lite 2013.11-24) 4.8.1"
 132      AFF30080 
 132      AFF30080 
ARM GAS  C:\Users\pc\AppData\Local\Temp\ccgqGuLj.s 			page 4


DEFINED SYMBOLS
                            *ABS*:00000000 sachs.cpp
C:\Users\pc\AppData\Local\Temp\ccgqGuLj.s:17     .text._Z8setSachsv:00000000 $t
C:\Users\pc\AppData\Local\Temp\ccgqGuLj.s:23     .text._Z8setSachsv:00000000 _Z8setSachsv

UNDEFINED SYMBOLS
engineConfiguration
_Z16setOperationModeP22engine_configuration_s16operation_mode_e
boardConfiguration
_Z24convertVoltageTo10bitADCf
config
_Z13setFuelRpmBinff
_Z15setTimingRpmBinff
_Z12setTableBin2Pfifff
