ARM GAS  C:\Users\pc\AppData\Local\Temp\cchrhDob.s 			page 1


   1              		.syntax unified
   2              		.cpu cortex-m4
   3              		.eabi_attribute 27, 3
   4              		.fpu fpv4-sp-d16
   5              		.eabi_attribute 20, 1
   6              		.eabi_attribute 21, 1
   7              		.eabi_attribute 23, 3
   8              		.eabi_attribute 24, 1
   9              		.eabi_attribute 25, 1
  10              		.eabi_attribute 26, 1
  11              		.eabi_attribute 30, 2
  12              		.eabi_attribute 34, 1
  13              		.eabi_attribute 18, 4
  14              		.thumb
  15              		.file	"settings.cpp"
  16              		.section	.text._ZL24setIdleSolenoidFrequencyi,"ax",%progbits
  17              		.align	2
  18              		.p2align 4,,15
  19              		.thumb
  20              		.thumb_func
  21              		.type	_ZL24setIdleSolenoidFrequencyi, %function
  22              	_ZL24setIdleSolenoidFrequencyi:
  23              		@ args = 0, pretend = 0, frame = 0
  24              		@ frame_needed = 0, uses_anonymous_args = 0
  25              		@ link register save eliminated.
  26 0000 40F20003 		movw	r3, #:lower16:boardConfiguration
  27 0004 C0F20003 		movt	r3, #:upper16:boardConfiguration
  28 0008 1B68     		ldr	r3, [r3]
  29 000a 9860     		str	r0, [r3, #8]
  30 000c 7047     		bx	lr
  31              		.size	_ZL24setIdleSolenoidFrequencyi, .-_ZL24setIdleSolenoidFrequencyi
  32 000e 00BF     		.section	.text._ZL10setCltBiasf,"ax",%progbits
  33              		.align	2
  34              		.p2align 4,,15
  35              		.thumb
  36              		.thumb_func
  37              		.type	_ZL10setCltBiasf, %function
  38              	_ZL10setCltBiasf:
  39              		@ args = 0, pretend = 0, frame = 0
  40              		@ frame_needed = 0, uses_anonymous_args = 0
  41              		@ link register save eliminated.
  42 0000 40F20003 		movw	r3, #:lower16:engineConfiguration
  43 0004 C0F20003 		movt	r3, #:upper16:engineConfiguration
  44 0008 1B68     		ldr	r3, [r3]
  45 000a C3F81801 		str	r0, [r3, #280]	@ float
  46 000e 7047     		bx	lr
  47              		.size	_ZL10setCltBiasf, .-_ZL10setCltBiasf
  48              		.section	.text._ZL10setIatBiasf,"ax",%progbits
  49              		.align	2
  50              		.p2align 4,,15
  51              		.thumb
  52              		.thumb_func
  53              		.type	_ZL10setIatBiasf, %function
  54              	_ZL10setIatBiasf:
  55              		@ args = 0, pretend = 0, frame = 0
  56              		@ frame_needed = 0, uses_anonymous_args = 0
  57              		@ link register save eliminated.
ARM GAS  C:\Users\pc\AppData\Local\Temp\cchrhDob.s 			page 2


  58 0000 40F20003 		movw	r3, #:lower16:engineConfiguration
  59 0004 C0F20003 		movt	r3, #:upper16:engineConfiguration
  60 0008 1B68     		ldr	r3, [r3]
  61 000a C3F83801 		str	r0, [r3, #312]	@ float
  62 000e 7047     		bx	lr
  63              		.size	_ZL10setIatBiasf, .-_ZL10setIatBiasf
  64              		.section	.text._ZL15setVBattDividerf,"ax",%progbits
  65              		.align	2
  66              		.p2align 4,,15
  67              		.thumb
  68              		.thumb_func
  69              		.type	_ZL15setVBattDividerf, %function
  70              	_ZL15setVBattDividerf:
  71              		@ args = 0, pretend = 0, frame = 0
  72              		@ frame_needed = 0, uses_anonymous_args = 0
  73              		@ link register save eliminated.
  74 0000 40F20003 		movw	r3, #:lower16:engineConfiguration
  75 0004 C0F20003 		movt	r3, #:upper16:engineConfiguration
  76 0008 1B68     		ldr	r3, [r3]
  77 000a C3F8D401 		str	r0, [r3, #468]	@ float
  78 000e 7047     		bx	lr
  79              		.size	_ZL15setVBattDividerf, .-_ZL15setVBattDividerf
  80              		.section	.text._ZL9setEgtSpii,"ax",%progbits
  81              		.align	2
  82              		.p2align 4,,15
  83              		.thumb
  84              		.thumb_func
  85              		.type	_ZL9setEgtSpii, %function
  86              	_ZL9setEgtSpii:
  87              		@ args = 0, pretend = 0, frame = 0
  88              		@ frame_needed = 0, uses_anonymous_args = 0
  89              		@ link register save eliminated.
  90 0000 40F20003 		movw	r3, #:lower16:boardConfiguration
  91 0004 C0F20003 		movt	r3, #:upper16:boardConfiguration
  92 0008 1B68     		ldr	r3, [r3]
  93 000a C3F8C001 		str	r0, [r3, #448]
  94 000e 7047     		bx	lr
  95              		.size	_ZL9setEgtSpii, .-_ZL9setEgtSpii
  96              		.section	.text._ZL9setPotSpii,"ax",%progbits
  97              		.align	2
  98              		.p2align 4,,15
  99              		.thumb
 100              		.thumb_func
 101              		.type	_ZL9setPotSpii, %function
 102              	_ZL9setPotSpii:
 103              		@ args = 0, pretend = 0, frame = 0
 104              		@ frame_needed = 0, uses_anonymous_args = 0
 105              		@ link register save eliminated.
 106 0000 40F20003 		movw	r3, #:lower16:boardConfiguration
 107 0004 C0F20003 		movt	r3, #:upper16:boardConfiguration
 108 0008 1B68     		ldr	r3, [r3]
 109 000a C3F8D400 		str	r0, [r3, #212]
 110 000e 7047     		bx	lr
 111              		.size	_ZL9setPotSpii, .-_ZL9setPotSpii
 112              		.section	.text._ZL14setInjectorLagf,"ax",%progbits
 113              		.align	2
 114              		.p2align 4,,15
ARM GAS  C:\Users\pc\AppData\Local\Temp\cchrhDob.s 			page 3


 115              		.thumb
 116              		.thumb_func
 117              		.type	_ZL14setInjectorLagf, %function
 118              	_ZL14setInjectorLagf:
 119              		@ args = 0, pretend = 0, frame = 0
 120              		@ frame_needed = 0, uses_anonymous_args = 0
 121              		@ link register save eliminated.
 122 0000 40F20003 		movw	r3, #:lower16:engineConfiguration
 123 0004 C0F20003 		movt	r3, #:upper16:engineConfiguration
 124 0008 1B68     		ldr	r3, [r3]
 125 000a D860     		str	r0, [r3, #12]	@ float
 126 000c 7047     		bx	lr
 127              		.size	_ZL14setInjectorLagf, .-_ZL14setInjectorLagf
 128 000e 00BF     		.section	.text._ZL15disableIgnitionv,"ax",%progbits
 129              		.align	2
 130              		.p2align 4,,15
 131              		.thumb
 132              		.thumb_func
 133              		.type	_ZL15disableIgnitionv, %function
 134              	_ZL15disableIgnitionv:
 135              		@ args = 0, pretend = 0, frame = 0
 136              		@ frame_needed = 0, uses_anonymous_args = 0
 137              		@ link register save eliminated.
 138 0000 40F20003 		movw	r3, #:lower16:engineConfiguration
 139 0004 C0F20003 		movt	r3, #:upper16:engineConfiguration
 140 0008 40F20000 		movw	r0, #:lower16:.LANCHOR0
 141 000c 1B68     		ldr	r3, [r3]
 142 000e 93F8E425 		ldrb	r2, [r3, #1508]	@ zero_extendqisi2
 143 0012 40F20001 		movw	r1, #:lower16:.LC0
 144 0016 6FF34102 		bfc	r2, #1, #1
 145 001a 83F8E425 		strb	r2, [r3, #1508]
 146 001e C0F20000 		movt	r0, #:upper16:.LANCHOR0
 147 0022 C0F20001 		movt	r1, #:upper16:.LC0
 148 0026 FFF7FEBF 		b	scheduleMsg
 149              		.size	_ZL15disableIgnitionv, .-_ZL15disableIgnitionv
 150 002a 00BFAFF3 		.section	.text._ZL14enableIgnitionv,"ax",%progbits
 150      0080
 151              		.align	2
 152              		.p2align 4,,15
 153              		.thumb
 154              		.thumb_func
 155              		.type	_ZL14enableIgnitionv, %function
 156              	_ZL14enableIgnitionv:
 157              		@ args = 0, pretend = 0, frame = 0
 158              		@ frame_needed = 0, uses_anonymous_args = 0
 159              		@ link register save eliminated.
 160 0000 40F20003 		movw	r3, #:lower16:engineConfiguration
 161 0004 C0F20003 		movt	r3, #:upper16:engineConfiguration
 162 0008 40F20000 		movw	r0, #:lower16:.LANCHOR0
 163 000c 1B68     		ldr	r3, [r3]
 164 000e 93F8E425 		ldrb	r2, [r3, #1508]	@ zero_extendqisi2
 165 0012 40F20001 		movw	r1, #:lower16:.LC1
 166 0016 42F00202 		orr	r2, r2, #2
 167 001a 83F8E425 		strb	r2, [r3, #1508]
 168 001e C0F20000 		movt	r0, #:upper16:.LANCHOR0
 169 0022 C0F20001 		movt	r1, #:upper16:.LC1
 170 0026 FFF7FEBF 		b	scheduleMsg
ARM GAS  C:\Users\pc\AppData\Local\Temp\cchrhDob.s 			page 4


 171              		.size	_ZL14enableIgnitionv, .-_ZL14enableIgnitionv
 172 002a 00BFAFF3 		.section	.text._ZL16disableInjectionv,"ax",%progbits
 172      0080
 173              		.align	2
 174              		.p2align 4,,15
 175              		.thumb
 176              		.thumb_func
 177              		.type	_ZL16disableInjectionv, %function
 178              	_ZL16disableInjectionv:
 179              		@ args = 0, pretend = 0, frame = 0
 180              		@ frame_needed = 0, uses_anonymous_args = 0
 181              		@ link register save eliminated.
 182 0000 40F20003 		movw	r3, #:lower16:engineConfiguration
 183 0004 C0F20003 		movt	r3, #:upper16:engineConfiguration
 184 0008 40F20000 		movw	r0, #:lower16:.LANCHOR0
 185 000c 1B68     		ldr	r3, [r3]
 186 000e 93F8E425 		ldrb	r2, [r3, #1508]	@ zero_extendqisi2
 187 0012 40F20001 		movw	r1, #:lower16:.LC2
 188 0016 6FF30002 		bfc	r2, #0, #1
 189 001a 83F8E425 		strb	r2, [r3, #1508]
 190 001e C0F20000 		movt	r0, #:upper16:.LANCHOR0
 191 0022 C0F20001 		movt	r1, #:upper16:.LC2
 192 0026 FFF7FEBF 		b	scheduleMsg
 193              		.size	_ZL16disableInjectionv, .-_ZL16disableInjectionv
 194 002a 00BFAFF3 		.section	.text._ZL15enableInjectionv,"ax",%progbits
 194      0080
 195              		.align	2
 196              		.p2align 4,,15
 197              		.thumb
 198              		.thumb_func
 199              		.type	_ZL15enableInjectionv, %function
 200              	_ZL15enableInjectionv:
 201              		@ args = 0, pretend = 0, frame = 0
 202              		@ frame_needed = 0, uses_anonymous_args = 0
 203              		@ link register save eliminated.
 204 0000 40F20003 		movw	r3, #:lower16:engineConfiguration
 205 0004 C0F20003 		movt	r3, #:upper16:engineConfiguration
 206 0008 40F20000 		movw	r0, #:lower16:.LANCHOR0
 207 000c 1B68     		ldr	r3, [r3]
 208 000e 93F8E425 		ldrb	r2, [r3, #1508]	@ zero_extendqisi2
 209 0012 40F20001 		movw	r1, #:lower16:.LC3
 210 0016 42F00102 		orr	r2, r2, #1
 211 001a 83F8E425 		strb	r2, [r3, #1508]
 212 001e C0F20000 		movt	r0, #:upper16:.LANCHOR0
 213 0022 C0F20001 		movt	r1, #:upper16:.LC3
 214 0026 FFF7FEBF 		b	scheduleMsg
 215              		.size	_ZL15enableInjectionv, .-_ZL15enableInjectionv
 216              		.global	__aeabi_f2d
 217 002a 00BFAFF3 		.section	.text._ZL17setWholeTimingMapf,"ax",%progbits
 217      0080
 218              		.align	2
 219              		.p2align 4,,15
 220              		.thumb
 221              		.thumb_func
 222              		.type	_ZL17setWholeTimingMapf, %function
 223              	_ZL17setWholeTimingMapf:
 224              		@ args = 0, pretend = 0, frame = 0
ARM GAS  C:\Users\pc\AppData\Local\Temp\cchrhDob.s 			page 5


 225              		@ frame_needed = 0, uses_anonymous_args = 0
 226 0000 10B5     		push	{r4, lr}
 227 0002 0446     		mov	r4, r0	@ float
 228 0004 FFF7FEFF 		bl	__aeabi_f2d
 229 0008 0B46     		mov	r3, r1
 230 000a 0246     		mov	r2, r0
 231 000c 40F20001 		movw	r1, #:lower16:.LC4
 232 0010 40F20000 		movw	r0, #:lower16:.LANCHOR0
 233 0014 C0F20001 		movt	r1, #:upper16:.LC4
 234 0018 C0F20000 		movt	r0, #:upper16:.LANCHOR0
 235 001c FFF7FEFF 		bl	scheduleMsg
 236 0020 40F20003 		movw	r3, #:lower16:config
 237 0024 C0F20003 		movt	r3, #:upper16:config
 238 0028 1968     		ldr	r1, [r3]
 239 002a 01F53853 		add	r3, r1, #11776
 240 002e 01F54851 		add	r1, r1, #12800
 241 0032 3833     		adds	r3, r3, #56
 242 0034 3831     		adds	r1, r1, #56
 243              	.L13:
 244 0036 03F14002 		add	r2, r3, #64
 245              	.L16:
 246 003a 43F8044B 		str	r4, [r3], #4	@ float
 247 003e 9342     		cmp	r3, r2
 248 0040 FBD1     		bne	.L16
 249 0042 8B42     		cmp	r3, r1
 250 0044 F7D1     		bne	.L13
 251 0046 10BD     		pop	{r4, pc}
 252              		.size	_ZL17setWholeTimingMapf, .-_ZL17setWholeTimingMapf
 253 0048 AFF30080 		.section	.text._ZL20setWholeTimingMapCmdf,"ax",%progbits
 253      AFF30080 
 254              		.align	2
 255              		.p2align 4,,15
 256              		.thumb
 257              		.thumb_func
 258              		.type	_ZL20setWholeTimingMapCmdf, %function
 259              	_ZL20setWholeTimingMapCmdf:
 260              		@ args = 0, pretend = 0, frame = 0
 261              		@ frame_needed = 0, uses_anonymous_args = 0
 262 0000 10B5     		push	{r4, lr}
 263 0002 0446     		mov	r4, r0	@ float
 264 0004 FFF7FEFF 		bl	__aeabi_f2d
 265 0008 0246     		mov	r2, r0
 266 000a 0B46     		mov	r3, r1
 267 000c 40F20000 		movw	r0, #:lower16:.LANCHOR0
 268 0010 40F20001 		movw	r1, #:lower16:.LC5
 269 0014 C0F20000 		movt	r0, #:upper16:.LANCHOR0
 270 0018 C0F20001 		movt	r1, #:upper16:.LC5
 271 001c FFF7FEFF 		bl	scheduleMsg
 272 0020 2046     		mov	r0, r4	@ float
 273 0022 BDE81040 		pop	{r4, lr}
 274 0026 FFF7FEBF 		b	_ZL17setWholeTimingMapf
 275              		.size	_ZL20setWholeTimingMapCmdf, .-_ZL20setWholeTimingMapCmdf
 276 002a 00BFAFF3 		.section	.text._Z10stopEnginev,"ax",%progbits
 276      0080
 277              		.align	2
 278              		.p2align 4,,15
 279              		.global	_Z10stopEnginev
ARM GAS  C:\Users\pc\AppData\Local\Temp\cchrhDob.s 			page 6


 280              		.thumb
 281              		.thumb_func
 282              		.type	_Z10stopEnginev, %function
 283              	_Z10stopEnginev:
 284              		@ args = 0, pretend = 0, frame = 0
 285              		@ frame_needed = 0, uses_anonymous_args = 0
 286 0000 40F20003 		movw	r3, #:lower16:engine
 287 0004 10B5     		push	{r4, lr}
 288 0006 C0F20003 		movt	r3, #:upper16:engine
 289 000a 1C68     		ldr	r4, [r3]
 290 000c FFF7FEFF 		bl	getTimeNowNt
 291 0010 C4E90C01 		strd	r0, [r4, #48]
 292 0014 10BD     		pop	{r4, pc}
 293              		.size	_Z10stopEnginev, .-_Z10stopEnginev
 294 0016 00BFAFF3 		.section	.text._ZL17setAnalogInputPinPKcS0_,"ax",%progbits
 294      0080AFF3 
 294      0080
 295              		.align	2
 296              		.p2align 4,,15
 297              		.thumb
 298              		.thumb_func
 299              		.type	_ZL17setAnalogInputPinPKcS0_, %function
 300              	_ZL17setAnalogInputPinPKcS0_:
 301              		@ args = 0, pretend = 0, frame = 0
 302              		@ frame_needed = 0, uses_anonymous_args = 0
 303 0000 70B5     		push	{r4, r5, r6, lr}
 304 0002 0646     		mov	r6, r0
 305 0004 0846     		mov	r0, r1
 306 0006 0C46     		mov	r4, r1
 307 0008 FFF7FEFF 		bl	_Z13parseBrainPinPKc
 308 000c 5128     		cmp	r0, #81
 309 000e 61D0     		beq	.L30
 310 0010 FFF7FEFF 		bl	_Z13getAdcChannel11brain_pin_e
 311 0014 40F2E733 		movw	r3, #999
 312 0018 9842     		cmp	r0, r3
 313 001a 0546     		mov	r5, r0
 314 001c 67D0     		beq	.L31
 315 001e 40F20000 		movw	r0, #:lower16:.LC8
 316 0022 C0F20000 		movt	r0, #:upper16:.LC8
 317 0026 3146     		mov	r1, r6
 318 0028 FFF7FEFF 		bl	strEqual
 319 002c B0B1     		cbz	r0, .L23
 320 002e 40F20003 		movw	r3, #:lower16:engineConfiguration
 321 0032 C0F20003 		movt	r3, #:upper16:engineConfiguration
 322 0036 40F20000 		movw	r0, #:lower16:.LANCHOR0
 323 003a 1B68     		ldr	r3, [r3]
 324 003c 40F20001 		movw	r1, #:lower16:.LC9
 325 0040 C3F8FC50 		str	r5, [r3, #252]
 326 0044 2246     		mov	r2, r4
 327 0046 2B46     		mov	r3, r5
 328 0048 C0F20000 		movt	r0, #:upper16:.LANCHOR0
 329 004c C0F20001 		movt	r1, #:upper16:.LC9
 330 0050 FFF7FEFF 		bl	scheduleMsg
 331              	.L24:
 332 0054 BDE87040 		pop	{r4, r5, r6, lr}
 333 0058 FFF7FEBF 		b	applyNewConfiguration
 334              	.L23:
ARM GAS  C:\Users\pc\AppData\Local\Temp\cchrhDob.s 			page 7


 335 005c 40F20000 		movw	r0, #:lower16:.LC10
 336 0060 C0F20000 		movt	r0, #:upper16:.LC10
 337 0064 3146     		mov	r1, r6
 338 0066 FFF7FEFF 		bl	strEqual
 339 006a E0B9     		cbnz	r0, .L32
 340 006c 40F20000 		movw	r0, #:lower16:.LC12
 341 0070 C0F20000 		movt	r0, #:upper16:.LC12
 342 0074 3146     		mov	r1, r6
 343 0076 FFF7FEFF 		bl	strEqual
 344 007a 0028     		cmp	r0, #0
 345 007c 44D0     		beq	.L26
 346 007e 40F20003 		movw	r3, #:lower16:engineConfiguration
 347 0082 C0F20003 		movt	r3, #:upper16:engineConfiguration
 348 0086 40F20000 		movw	r0, #:lower16:.LANCHOR0
 349 008a 1B68     		ldr	r3, [r3]
 350 008c 40F20001 		movw	r1, #:lower16:.LC13
 351 0090 C3F83C51 		str	r5, [r3, #316]
 352 0094 2246     		mov	r2, r4
 353 0096 2B46     		mov	r3, r5
 354 0098 C0F20000 		movt	r0, #:upper16:.LANCHOR0
 355 009c C0F20001 		movt	r1, #:upper16:.LC13
 356 00a0 FFF7FEFF 		bl	scheduleMsg
 357 00a4 D6E7     		b	.L24
 358              	.L32:
 359 00a6 40F20003 		movw	r3, #:lower16:engineConfiguration
 360 00aa C0F20003 		movt	r3, #:upper16:engineConfiguration
 361 00ae 40F20000 		movw	r0, #:lower16:.LANCHOR0
 362 00b2 1B68     		ldr	r3, [r3]
 363 00b4 40F20001 		movw	r1, #:lower16:.LC11
 364 00b8 C3F81C51 		str	r5, [r3, #284]
 365 00bc 2246     		mov	r2, r4
 366 00be 2B46     		mov	r3, r5
 367 00c0 C0F20000 		movt	r0, #:upper16:.LANCHOR0
 368 00c4 C0F20001 		movt	r1, #:upper16:.LC11
 369 00c8 FFF7FEFF 		bl	scheduleMsg
 370 00cc BDE87040 		pop	{r4, r5, r6, lr}
 371 00d0 FFF7FEBF 		b	applyNewConfiguration
 372              	.L30:
 373 00d4 40F20000 		movw	r0, #:lower16:.LANCHOR0
 374 00d8 40F20001 		movw	r1, #:lower16:.LC6
 375 00dc 2246     		mov	r2, r4
 376 00de C0F20000 		movt	r0, #:upper16:.LANCHOR0
 377 00e2 C0F20001 		movt	r1, #:upper16:.LC6
 378 00e6 BDE87040 		pop	{r4, r5, r6, lr}
 379 00ea FFF7FEBF 		b	scheduleMsg
 380              	.L31:
 381 00ee 40F20000 		movw	r0, #:lower16:.LANCHOR0
 382 00f2 40F20001 		movw	r1, #:lower16:.LC7
 383 00f6 2246     		mov	r2, r4
 384 00f8 C0F20000 		movt	r0, #:upper16:.LANCHOR0
 385 00fc C0F20001 		movt	r1, #:upper16:.LC7
 386 0100 BDE87040 		pop	{r4, r5, r6, lr}
 387 0104 FFF7FEBF 		b	scheduleMsg
 388              	.L26:
 389 0108 40F20000 		movw	r0, #:lower16:.LC14
 390 010c 3146     		mov	r1, r6
 391 010e C0F20000 		movt	r0, #:upper16:.LC14
ARM GAS  C:\Users\pc\AppData\Local\Temp\cchrhDob.s 			page 8


 392 0112 FFF7FEFF 		bl	strEqual
 393 0116 0028     		cmp	r0, #0
 394 0118 9CD0     		beq	.L24
 395 011a 40F20003 		movw	r3, #:lower16:engineConfiguration
 396 011e C0F20003 		movt	r3, #:upper16:engineConfiguration
 397 0122 40F20000 		movw	r0, #:lower16:.LANCHOR0
 398 0126 1B68     		ldr	r3, [r3]
 399 0128 40F20001 		movw	r1, #:lower16:.LC15
 400 012c C3F80C52 		str	r5, [r3, #524]
 401 0130 2246     		mov	r2, r4
 402 0132 2B46     		mov	r3, r5
 403 0134 C0F20000 		movt	r0, #:upper16:.LANCHOR0
 404 0138 C0F20001 		movt	r1, #:upper16:.LC15
 405 013c FFF7FEFF 		bl	scheduleMsg
 406 0140 88E7     		b	.L24
 407              		.size	_ZL17setAnalogInputPinPKcS0_, .-_ZL17setAnalogInputPinPKcS0_
 408 0142 00BFAFF3 		.section	.text._ZL15enableOrDisablePKcb,"ax",%progbits
 408      0080AFF3 
 408      0080AFF3 
 408      0080
 409              		.align	2
 410              		.p2align 4,,15
 411              		.thumb
 412              		.thumb_func
 413              		.type	_ZL15enableOrDisablePKcb, %function
 414              	_ZL15enableOrDisablePKcb:
 415              		@ args = 0, pretend = 0, frame = 0
 416              		@ frame_needed = 0, uses_anonymous_args = 0
 417 0000 70B5     		push	{r4, r5, r6, lr}
 418 0002 0D46     		mov	r5, r1
 419 0004 40F20001 		movw	r1, #:lower16:.LC18
 420 0008 C0F20001 		movt	r1, #:upper16:.LC18
 421 000c 0646     		mov	r6, r0
 422 000e FFF7FEFF 		bl	strEqualCaseInsensitive
 423 0012 10B3     		cbz	r0, .L34
 424 0014 40F20003 		movw	r3, #:lower16:boardConfiguration
 425 0018 C0F20003 		movt	r3, #:upper16:boardConfiguration
 426 001c 1B68     		ldr	r3, [r3]
 427 001e 93F88021 		ldrb	r2, [r3, #384]	@ zero_extendqisi2
 428 0022 65F30412 		bfi	r2, r5, #4, #1
 429 0026 83F88021 		strb	r2, [r3, #384]
 430              	.L35:
 431 002a 40F20003 		movw	r3, #:lower16:.LC17
 432 002e 40F20004 		movw	r4, #:lower16:.LC16
 433 0032 C0F20004 		movt	r4, #:upper16:.LC16
 434 0036 C0F20003 		movt	r3, #:upper16:.LC17
 435 003a 40F20000 		movw	r0, #:lower16:.LANCHOR0
 436 003e 40F20001 		movw	r1, #:lower16:.LC49
 437 0042 3246     		mov	r2, r6
 438 0044 002D     		cmp	r5, #0
 439 0046 18BF     		it	ne
 440 0048 2346     		movne	r3, r4
 441 004a C0F20000 		movt	r0, #:upper16:.LANCHOR0
 442 004e C0F20001 		movt	r1, #:upper16:.LC49
 443 0052 BDE87040 		pop	{r4, r5, r6, lr}
 444 0056 FFF7FEBF 		b	scheduleMsg
 445              	.L34:
ARM GAS  C:\Users\pc\AppData\Local\Temp\cchrhDob.s 			page 9


 446 005a 40F20001 		movw	r1, #:lower16:.LC19
 447 005e C0F20001 		movt	r1, #:upper16:.LC19
 448 0062 3046     		mov	r0, r6
 449 0064 FFF7FEFF 		bl	strEqualCaseInsensitive
 450 0068 58B1     		cbz	r0, .L36
 451 006a 40F20003 		movw	r3, #:lower16:boardConfiguration
 452 006e C0F20003 		movt	r3, #:upper16:boardConfiguration
 453 0072 1B68     		ldr	r3, [r3]
 454 0074 93F88121 		ldrb	r2, [r3, #385]	@ zero_extendqisi2
 455 0078 65F38202 		bfi	r2, r5, #2, #1
 456 007c 83F88121 		strb	r2, [r3, #385]
 457 0080 D3E7     		b	.L35
 458              	.L36:
 459 0082 40F20001 		movw	r1, #:lower16:.LC20
 460 0086 C0F20001 		movt	r1, #:upper16:.LC20
 461 008a 3046     		mov	r0, r6
 462 008c FFF7FEFF 		bl	strEqualCaseInsensitive
 463 0090 58B1     		cbz	r0, .L37
 464 0092 40F20003 		movw	r3, #:lower16:boardConfiguration
 465 0096 C0F20003 		movt	r3, #:upper16:boardConfiguration
 466 009a 1B68     		ldr	r3, [r3]
 467 009c 93F88121 		ldrb	r2, [r3, #385]	@ zero_extendqisi2
 468 00a0 65F30002 		bfi	r2, r5, #0, #1
 469 00a4 83F88121 		strb	r2, [r3, #385]
 470 00a8 BFE7     		b	.L35
 471              	.L37:
 472 00aa 40F20001 		movw	r1, #:lower16:.LC21
 473 00ae C0F20001 		movt	r1, #:upper16:.LC21
 474 00b2 3046     		mov	r0, r6
 475 00b4 FFF7FEFF 		bl	strEqualCaseInsensitive
 476 00b8 58B1     		cbz	r0, .L38
 477 00ba 40F20003 		movw	r3, #:lower16:boardConfiguration
 478 00be C0F20003 		movt	r3, #:upper16:boardConfiguration
 479 00c2 1B68     		ldr	r3, [r3]
 480 00c4 93F88121 		ldrb	r2, [r3, #385]	@ zero_extendqisi2
 481 00c8 65F34102 		bfi	r2, r5, #1, #1
 482 00cc 83F88121 		strb	r2, [r3, #385]
 483 00d0 ABE7     		b	.L35
 484              	.L38:
 485 00d2 40F20001 		movw	r1, #:lower16:.LC22
 486 00d6 C0F20001 		movt	r1, #:upper16:.LC22
 487 00da 3046     		mov	r0, r6
 488 00dc FFF7FEFF 		bl	strEqualCaseInsensitive
 489 00e0 68B1     		cbz	r0, .L39
 490 00e2 40F20003 		movw	r3, #:lower16:engineConfiguration
 491 00e6 C0F20003 		movt	r3, #:upper16:engineConfiguration
 492 00ea 1B68     		ldr	r3, [r3]
 493 00ec 93F8E525 		ldrb	r2, [r3, #1509]	@ zero_extendqisi2
 494 00f0 65F38612 		bfi	r2, r5, #6, #1
 495 00f4 83F8E525 		strb	r2, [r3, #1509]
 496 00f8 FFF7FEFF 		bl	_Z35incrementGlobalConfigurationVersionv
 497 00fc 95E7     		b	.L35
 498              	.L39:
 499 00fe 40F20001 		movw	r1, #:lower16:.LC23
 500 0102 C0F20001 		movt	r1, #:upper16:.LC23
 501 0106 3046     		mov	r0, r6
 502 0108 FFF7FEFF 		bl	strEqualCaseInsensitive
ARM GAS  C:\Users\pc\AppData\Local\Temp\cchrhDob.s 			page 10


 503 010c 68B1     		cbz	r0, .L40
 504 010e 40F20003 		movw	r3, #:lower16:engineConfiguration
 505 0112 C0F20003 		movt	r3, #:upper16:engineConfiguration
 506 0116 1B68     		ldr	r3, [r3]
 507 0118 93F8E525 		ldrb	r2, [r3, #1509]	@ zero_extendqisi2
 508 011c 65F34512 		bfi	r2, r5, #5, #1
 509 0120 83F8E525 		strb	r2, [r3, #1509]
 510 0124 FFF7FEFF 		bl	_Z35incrementGlobalConfigurationVersionv
 511 0128 7FE7     		b	.L35
 512              	.L40:
 513 012a 40F20001 		movw	r1, #:lower16:.LC24
 514 012e C0F20001 		movt	r1, #:upper16:.LC24
 515 0132 3046     		mov	r0, r6
 516 0134 FFF7FEFF 		bl	strEqualCaseInsensitive
 517 0138 58B1     		cbz	r0, .L41
 518 013a 40F20003 		movw	r3, #:lower16:engineConfiguration
 519 013e C0F20003 		movt	r3, #:upper16:engineConfiguration
 520 0142 1B68     		ldr	r3, [r3]
 521 0144 93F8D925 		ldrb	r2, [r3, #1497]	@ zero_extendqisi2
 522 0148 65F3C302 		bfi	r2, r5, #3, #1
 523 014c 83F8D925 		strb	r2, [r3, #1497]
 524 0150 6BE7     		b	.L35
 525              	.L41:
 526 0152 40F20001 		movw	r1, #:lower16:.LC25
 527 0156 C0F20001 		movt	r1, #:upper16:.LC25
 528 015a 3046     		mov	r0, r6
 529 015c FFF7FEFF 		bl	strEqualCaseInsensitive
 530 0160 58B1     		cbz	r0, .L42
 531 0162 40F20003 		movw	r3, #:lower16:boardConfiguration
 532 0166 C0F20003 		movt	r3, #:upper16:boardConfiguration
 533 016a 1B68     		ldr	r3, [r3]
 534 016c 93F88021 		ldrb	r2, [r3, #384]	@ zero_extendqisi2
 535 0170 65F38612 		bfi	r2, r5, #6, #1
 536 0174 83F88021 		strb	r2, [r3, #384]
 537 0178 57E7     		b	.L35
 538              	.L42:
 539 017a 40F20001 		movw	r1, #:lower16:.LC26
 540 017e C0F20001 		movt	r1, #:upper16:.LC26
 541 0182 3046     		mov	r0, r6
 542 0184 FFF7FEFF 		bl	strEqualCaseInsensitive
 543 0188 58B1     		cbz	r0, .L43
 544 018a 40F20003 		movw	r3, #:lower16:boardConfiguration
 545 018e C0F20003 		movt	r3, #:upper16:boardConfiguration
 546 0192 1B68     		ldr	r3, [r3]
 547 0194 93F88021 		ldrb	r2, [r3, #384]	@ zero_extendqisi2
 548 0198 65F3C712 		bfi	r2, r5, #7, #1
 549 019c 83F88021 		strb	r2, [r3, #384]
 550 01a0 43E7     		b	.L35
 551              	.L43:
 552 01a2 40F20001 		movw	r1, #:lower16:.LC27
 553 01a6 C0F20001 		movt	r1, #:upper16:.LC27
 554 01aa 3046     		mov	r0, r6
 555 01ac FFF7FEFF 		bl	strEqualCaseInsensitive
 556 01b0 58B1     		cbz	r0, .L44
 557 01b2 40F20003 		movw	r3, #:lower16:boardConfiguration
 558 01b6 C0F20003 		movt	r3, #:upper16:boardConfiguration
 559 01ba 1B68     		ldr	r3, [r3]
ARM GAS  C:\Users\pc\AppData\Local\Temp\cchrhDob.s 			page 11


 560 01bc 93F88121 		ldrb	r2, [r3, #385]	@ zero_extendqisi2
 561 01c0 65F3C302 		bfi	r2, r5, #3, #1
 562 01c4 83F88121 		strb	r2, [r3, #385]
 563 01c8 2FE7     		b	.L35
 564              	.L44:
 565 01ca 40F20001 		movw	r1, #:lower16:.LC28
 566 01ce C0F20001 		movt	r1, #:upper16:.LC28
 567 01d2 3046     		mov	r0, r6
 568 01d4 FFF7FEFF 		bl	strEqualCaseInsensitive
 569 01d8 38B1     		cbz	r0, .L45
 570 01da 40F20003 		movw	r3, #:lower16:engine
 571 01de C0F20003 		movt	r3, #:upper16:engine
 572 01e2 1B68     		ldr	r3, [r3]
 573 01e4 83F87052 		strb	r5, [r3, #624]
 574 01e8 1FE7     		b	.L35
 575              	.L45:
 576 01ea 40F20001 		movw	r1, #:lower16:.LC29
 577 01ee C0F20001 		movt	r1, #:upper16:.LC29
 578 01f2 3046     		mov	r0, r6
 579 01f4 FFF7FEFF 		bl	strEqualCaseInsensitive
 580 01f8 58B1     		cbz	r0, .L46
 581 01fa 40F20003 		movw	r3, #:lower16:engineConfiguration
 582 01fe C0F20003 		movt	r3, #:upper16:engineConfiguration
 583 0202 1B68     		ldr	r3, [r3]
 584 0204 93F8D925 		ldrb	r2, [r3, #1497]	@ zero_extendqisi2
 585 0208 65F34512 		bfi	r2, r5, #5, #1
 586 020c 83F8D925 		strb	r2, [r3, #1497]
 587 0210 0BE7     		b	.L35
 588              	.L46:
 589 0212 40F20001 		movw	r1, #:lower16:.LC30
 590 0216 C0F20001 		movt	r1, #:upper16:.LC30
 591 021a 3046     		mov	r0, r6
 592 021c FFF7FEFF 		bl	strEqualCaseInsensitive
 593 0220 58B1     		cbz	r0, .L47
 594 0222 40F20003 		movw	r3, #:lower16:boardConfiguration
 595 0226 C0F20003 		movt	r3, #:upper16:boardConfiguration
 596 022a 1B68     		ldr	r3, [r3]
 597 022c 93F88021 		ldrb	r2, [r3, #384]	@ zero_extendqisi2
 598 0230 65F3C302 		bfi	r2, r5, #3, #1
 599 0234 83F88021 		strb	r2, [r3, #384]
 600 0238 F7E6     		b	.L35
 601              	.L47:
 602 023a 40F20001 		movw	r1, #:lower16:.LC31
 603 023e C0F20001 		movt	r1, #:upper16:.LC31
 604 0242 3046     		mov	r0, r6
 605 0244 FFF7FEFF 		bl	strEqualCaseInsensitive
 606 0248 58B1     		cbz	r0, .L48
 607 024a 40F20003 		movw	r3, #:lower16:engineConfiguration
 608 024e C0F20003 		movt	r3, #:upper16:engineConfiguration
 609 0252 1B68     		ldr	r3, [r3]
 610 0254 93F8D825 		ldrb	r2, [r3, #1496]	@ zero_extendqisi2
 611 0258 65F38612 		bfi	r2, r5, #6, #1
 612 025c 83F8D825 		strb	r2, [r3, #1496]
 613 0260 E3E6     		b	.L35
 614              	.L48:
 615 0262 40F20001 		movw	r1, #:lower16:.LC32
 616 0266 C0F20001 		movt	r1, #:upper16:.LC32
ARM GAS  C:\Users\pc\AppData\Local\Temp\cchrhDob.s 			page 12


 617 026a 3046     		mov	r0, r6
 618 026c FFF7FEFF 		bl	strEqualCaseInsensitive
 619 0270 38B1     		cbz	r0, .L49
 620 0272 40F20003 		movw	r3, #:lower16:engine
 621 0276 C0F20003 		movt	r3, #:upper16:engine
 622 027a 1B68     		ldr	r3, [r3]
 623 027c 83F88052 		strb	r5, [r3, #640]
 624 0280 D3E6     		b	.L35
 625              	.L49:
 626 0282 40F20001 		movw	r1, #:lower16:.LC33
 627 0286 C0F20001 		movt	r1, #:upper16:.LC33
 628 028a 3046     		mov	r0, r6
 629 028c FFF7FEFF 		bl	strEqualCaseInsensitive
 630 0290 58B1     		cbz	r0, .L50
 631 0292 40F20003 		movw	r3, #:lower16:engineConfiguration
 632 0296 C0F20003 		movt	r3, #:upper16:engineConfiguration
 633 029a 1B68     		ldr	r3, [r3]
 634 029c 93F8D925 		ldrb	r2, [r3, #1497]	@ zero_extendqisi2
 635 02a0 65F30002 		bfi	r2, r5, #0, #1
 636 02a4 83F8D925 		strb	r2, [r3, #1497]
 637 02a8 BFE6     		b	.L35
 638              	.L50:
 639 02aa 40F20001 		movw	r1, #:lower16:.LC34
 640 02ae C0F20001 		movt	r1, #:upper16:.LC34
 641 02b2 3046     		mov	r0, r6
 642 02b4 FFF7FEFF 		bl	strEqualCaseInsensitive
 643 02b8 58B1     		cbz	r0, .L51
 644 02ba 40F20003 		movw	r3, #:lower16:engineConfiguration
 645 02be C0F20003 		movt	r3, #:upper16:engineConfiguration
 646 02c2 1B68     		ldr	r3, [r3]
 647 02c4 93F8D925 		ldrb	r2, [r3, #1497]	@ zero_extendqisi2
 648 02c8 65F34102 		bfi	r2, r5, #1, #1
 649 02cc 83F8D925 		strb	r2, [r3, #1497]
 650 02d0 ABE6     		b	.L35
 651              	.L51:
 652 02d2 40F20001 		movw	r1, #:lower16:.LC35
 653 02d6 C0F20001 		movt	r1, #:upper16:.LC35
 654 02da 3046     		mov	r0, r6
 655 02dc FFF7FEFF 		bl	strEqualCaseInsensitive
 656 02e0 58B1     		cbz	r0, .L52
 657 02e2 40F20003 		movw	r3, #:lower16:engineConfiguration
 658 02e6 C0F20003 		movt	r3, #:upper16:engineConfiguration
 659 02ea 1B68     		ldr	r3, [r3]
 660 02ec 93F8E425 		ldrb	r2, [r3, #1508]	@ zero_extendqisi2
 661 02f0 65F30002 		bfi	r2, r5, #0, #1
 662 02f4 83F8E425 		strb	r2, [r3, #1508]
 663 02f8 97E6     		b	.L35
 664              	.L52:
 665 02fa 40F20001 		movw	r1, #:lower16:.LC36
 666 02fe C0F20001 		movt	r1, #:upper16:.LC36
 667 0302 3046     		mov	r0, r6
 668 0304 FFF7FEFF 		bl	strEqualCaseInsensitive
 669 0308 58B1     		cbz	r0, .L53
 670 030a 40F20003 		movw	r3, #:lower16:engineConfiguration
 671 030e C0F20003 		movt	r3, #:upper16:engineConfiguration
 672 0312 1B68     		ldr	r3, [r3]
 673 0314 93F8E525 		ldrb	r2, [r3, #1509]	@ zero_extendqisi2
ARM GAS  C:\Users\pc\AppData\Local\Temp\cchrhDob.s 			page 13


 674 0318 65F3C302 		bfi	r2, r5, #3, #1
 675 031c 83F8E525 		strb	r2, [r3, #1509]
 676 0320 83E6     		b	.L35
 677              	.L53:
 678 0322 40F20001 		movw	r1, #:lower16:.LC37
 679 0326 C0F20001 		movt	r1, #:upper16:.LC37
 680 032a 3046     		mov	r0, r6
 681 032c FFF7FEFF 		bl	strEqualCaseInsensitive
 682 0330 58B1     		cbz	r0, .L54
 683 0332 40F20003 		movw	r3, #:lower16:engineConfiguration
 684 0336 C0F20003 		movt	r3, #:upper16:engineConfiguration
 685 033a 1B68     		ldr	r3, [r3]
 686 033c 93F8E425 		ldrb	r2, [r3, #1508]	@ zero_extendqisi2
 687 0340 65F34102 		bfi	r2, r5, #1, #1
 688 0344 83F8E425 		strb	r2, [r3, #1508]
 689 0348 6FE6     		b	.L35
 690              	.L54:
 691 034a 40F20001 		movw	r1, #:lower16:.LC38
 692 034e C0F20001 		movt	r1, #:upper16:.LC38
 693 0352 3046     		mov	r0, r6
 694 0354 FFF7FEFF 		bl	strEqualCaseInsensitive
 695 0358 58B1     		cbz	r0, .L55
 696 035a 40F20003 		movw	r3, #:lower16:engineConfiguration
 697 035e C0F20003 		movt	r3, #:upper16:engineConfiguration
 698 0362 1B68     		ldr	r3, [r3]
 699 0364 93F85020 		ldrb	r2, [r3, #80]	@ zero_extendqisi2
 700 0368 65F30002 		bfi	r2, r5, #0, #1
 701 036c 83F85020 		strb	r2, [r3, #80]
 702 0370 5BE6     		b	.L35
 703              	.L55:
 704 0372 40F20001 		movw	r1, #:lower16:.LC39
 705 0376 C0F20001 		movt	r1, #:upper16:.LC39
 706 037a 3046     		mov	r0, r6
 707 037c FFF7FEFF 		bl	strEqualCaseInsensitive
 708 0380 58B1     		cbz	r0, .L56
 709 0382 40F20003 		movw	r3, #:lower16:boardConfiguration
 710 0386 C0F20003 		movt	r3, #:upper16:boardConfiguration
 711 038a 1B68     		ldr	r3, [r3]
 712 038c 93F88021 		ldrb	r2, [r3, #384]	@ zero_extendqisi2
 713 0390 65F34512 		bfi	r2, r5, #5, #1
 714 0394 83F88021 		strb	r2, [r3, #384]
 715 0398 47E6     		b	.L35
 716              	.L56:
 717 039a 40F20001 		movw	r1, #:lower16:.LC40
 718 039e C0F20001 		movt	r1, #:upper16:.LC40
 719 03a2 3046     		mov	r0, r6
 720 03a4 FFF7FEFF 		bl	strEqualCaseInsensitive
 721 03a8 58B1     		cbz	r0, .L57
 722 03aa 40F20003 		movw	r3, #:lower16:engineConfiguration
 723 03ae C0F20003 		movt	r3, #:upper16:engineConfiguration
 724 03b2 1B68     		ldr	r3, [r3]
 725 03b4 93F8E425 		ldrb	r2, [r3, #1508]	@ zero_extendqisi2
 726 03b8 65F34512 		bfi	r2, r5, #5, #1
 727 03bc 83F8E425 		strb	r2, [r3, #1508]
 728 03c0 33E6     		b	.L35
 729              	.L57:
 730 03c2 40F20001 		movw	r1, #:lower16:.LC41
ARM GAS  C:\Users\pc\AppData\Local\Temp\cchrhDob.s 			page 14


 731 03c6 C0F20001 		movt	r1, #:upper16:.LC41
 732 03ca 3046     		mov	r0, r6
 733 03cc FFF7FEFF 		bl	strEqualCaseInsensitive
 734 03d0 58B1     		cbz	r0, .L58
 735 03d2 40F20003 		movw	r3, #:lower16:engineConfiguration
 736 03d6 C0F20003 		movt	r3, #:upper16:engineConfiguration
 737 03da 1B68     		ldr	r3, [r3]
 738 03dc 93F8E425 		ldrb	r2, [r3, #1508]	@ zero_extendqisi2
 739 03e0 65F38612 		bfi	r2, r5, #6, #1
 740 03e4 83F8E425 		strb	r2, [r3, #1508]
 741 03e8 1FE6     		b	.L35
 742              	.L58:
 743 03ea 40F20001 		movw	r1, #:lower16:.LC42
 744 03ee C0F20001 		movt	r1, #:upper16:.LC42
 745 03f2 3046     		mov	r0, r6
 746 03f4 FFF7FEFF 		bl	strEqualCaseInsensitive
 747 03f8 58B1     		cbz	r0, .L59
 748 03fa 40F20003 		movw	r3, #:lower16:engineConfiguration
 749 03fe C0F20003 		movt	r3, #:upper16:engineConfiguration
 750 0402 1B68     		ldr	r3, [r3]
 751 0404 93F8E425 		ldrb	r2, [r3, #1508]	@ zero_extendqisi2
 752 0408 65F3C712 		bfi	r2, r5, #7, #1
 753 040c 83F8E425 		strb	r2, [r3, #1508]
 754 0410 0BE6     		b	.L35
 755              	.L59:
 756 0412 40F20001 		movw	r1, #:lower16:.LC43
 757 0416 C0F20001 		movt	r1, #:upper16:.LC43
 758 041a 3046     		mov	r0, r6
 759 041c FFF7FEFF 		bl	strEqualCaseInsensitive
 760 0420 58B1     		cbz	r0, .L60
 761 0422 40F20003 		movw	r3, #:lower16:engineConfiguration
 762 0426 C0F20003 		movt	r3, #:upper16:engineConfiguration
 763 042a 1B68     		ldr	r3, [r3]
 764 042c 93F8E525 		ldrb	r2, [r3, #1509]	@ zero_extendqisi2
 765 0430 65F30002 		bfi	r2, r5, #0, #1
 766 0434 83F8E525 		strb	r2, [r3, #1509]
 767 0438 F7E5     		b	.L35
 768              	.L60:
 769 043a 40F20001 		movw	r1, #:lower16:.LC44
 770 043e C0F20001 		movt	r1, #:upper16:.LC44
 771 0442 3046     		mov	r0, r6
 772 0444 FFF7FEFF 		bl	strEqualCaseInsensitive
 773 0448 58B1     		cbz	r0, .L61
 774 044a 40F20003 		movw	r3, #:lower16:engineConfiguration
 775 044e C0F20003 		movt	r3, #:upper16:engineConfiguration
 776 0452 1B68     		ldr	r3, [r3]
 777 0454 93F8E525 		ldrb	r2, [r3, #1509]	@ zero_extendqisi2
 778 0458 65F34102 		bfi	r2, r5, #1, #1
 779 045c 83F8E525 		strb	r2, [r3, #1509]
 780 0460 E3E5     		b	.L35
 781              	.L61:
 782 0462 40F20001 		movw	r1, #:lower16:.LC45
 783 0466 C0F20001 		movt	r1, #:upper16:.LC45
 784 046a 3046     		mov	r0, r6
 785 046c FFF7FEFF 		bl	strEqualCaseInsensitive
 786 0470 58B1     		cbz	r0, .L62
 787 0472 40F20003 		movw	r3, #:lower16:engineConfiguration
ARM GAS  C:\Users\pc\AppData\Local\Temp\cchrhDob.s 			page 15


 788 0476 C0F20003 		movt	r3, #:upper16:engineConfiguration
 789 047a 1B68     		ldr	r3, [r3]
 790 047c 93F8E525 		ldrb	r2, [r3, #1509]	@ zero_extendqisi2
 791 0480 65F38202 		bfi	r2, r5, #2, #1
 792 0484 83F8E525 		strb	r2, [r3, #1509]
 793 0488 CFE5     		b	.L35
 794              	.L62:
 795 048a 40F20001 		movw	r1, #:lower16:.LC46
 796 048e C0F20001 		movt	r1, #:upper16:.LC46
 797 0492 3046     		mov	r0, r6
 798 0494 FFF7FEFF 		bl	strEqualCaseInsensitive
 799 0498 58B1     		cbz	r0, .L63
 800 049a 40F20003 		movw	r3, #:lower16:engineConfiguration
 801 049e C0F20003 		movt	r3, #:upper16:engineConfiguration
 802 04a2 1B68     		ldr	r3, [r3]
 803 04a4 93F8E525 		ldrb	r2, [r3, #1509]	@ zero_extendqisi2
 804 04a8 65F30412 		bfi	r2, r5, #4, #1
 805 04ac 83F8E525 		strb	r2, [r3, #1509]
 806 04b0 BBE5     		b	.L35
 807              	.L63:
 808 04b2 40F20001 		movw	r1, #:lower16:.LC47
 809 04b6 C0F20001 		movt	r1, #:upper16:.LC47
 810 04ba 3046     		mov	r0, r6
 811 04bc FFF7FEFF 		bl	strEqualCaseInsensitive
 812 04c0 58B1     		cbz	r0, .L64
 813 04c2 40F20003 		movw	r3, #:lower16:engineConfiguration
 814 04c6 C0F20003 		movt	r3, #:upper16:engineConfiguration
 815 04ca 1B68     		ldr	r3, [r3]
 816 04cc 93F8E425 		ldrb	r2, [r3, #1508]	@ zero_extendqisi2
 817 04d0 65F38202 		bfi	r2, r5, #2, #1
 818 04d4 83F8E425 		strb	r2, [r3, #1508]
 819 04d8 A7E5     		b	.L35
 820              	.L64:
 821 04da 40F20000 		movw	r0, #:lower16:.LANCHOR0
 822 04de 40F20001 		movw	r1, #:lower16:.LC48
 823 04e2 3246     		mov	r2, r6
 824 04e4 C0F20000 		movt	r0, #:upper16:.LANCHOR0
 825 04e8 C0F20001 		movt	r1, #:upper16:.LC48
 826 04ec BDE87040 		pop	{r4, r5, r6, lr}
 827 04f0 FFF7FEBF 		b	scheduleMsg
 828              		.size	_ZL15enableOrDisablePKcb, .-_ZL15enableOrDisablePKcb
 829 04f4 AFF30080 		.section	.text._ZL7disablePKc,"ax",%progbits
 829      AFF30080 
 829      AFF30080 
 830              		.align	2
 831              		.p2align 4,,15
 832              		.thumb
 833              		.thumb_func
 834              		.type	_ZL7disablePKc, %function
 835              	_ZL7disablePKc:
 836              		@ args = 0, pretend = 0, frame = 0
 837              		@ frame_needed = 0, uses_anonymous_args = 0
 838              		@ link register save eliminated.
 839 0000 0021     		movs	r1, #0
 840 0002 FFF7FEBF 		b	_ZL15enableOrDisablePKcb
 841              		.size	_ZL7disablePKc, .-_ZL7disablePKc
 842 0006 00BFAFF3 		.section	.text._ZL6enablePKc,"ax",%progbits
ARM GAS  C:\Users\pc\AppData\Local\Temp\cchrhDob.s 			page 16


 842      0080AFF3 
 842      0080
 843              		.align	2
 844              		.p2align 4,,15
 845              		.thumb
 846              		.thumb_func
 847              		.type	_ZL6enablePKc, %function
 848              	_ZL6enablePKc:
 849              		@ args = 0, pretend = 0, frame = 0
 850              		@ frame_needed = 0, uses_anonymous_args = 0
 851              		@ link register save eliminated.
 852 0000 0121     		movs	r1, #1
 853 0002 FFF7FEBF 		b	_ZL15enableOrDisablePKcb
 854              		.size	_ZL6enablePKc, .-_ZL6enablePKc
 855 0006 00BFAFF3 		.section	.text._ZL8setValuePKcS0_,"ax",%progbits
 855      0080AFF3 
 855      0080
 856              		.align	2
 857              		.p2align 4,,15
 858              		.thumb
 859              		.thumb_func
 860              		.type	_ZL8setValuePKcS0_, %function
 861              	_ZL8setValuePKcS0_:
 862              		@ args = 0, pretend = 0, frame = 0
 863              		@ frame_needed = 0, uses_anonymous_args = 0
 864 0000 F8B5     		push	{r3, r4, r5, r6, r7, lr}
 865 0002 0546     		mov	r5, r0
 866 0004 0846     		mov	r0, r1
 867 0006 0C46     		mov	r4, r1
 868 0008 FFF7FEFF 		bl	atoff
 869 000c 0646     		mov	r6, r0	@ float
 870 000e 2046     		mov	r0, r4
 871 0010 FFF7FEFF 		bl	atoi
 872 0014 40F20001 		movw	r1, #:lower16:.LC50
 873 0018 0746     		mov	r7, r0
 874 001a C0F20001 		movt	r1, #:upper16:.LC50
 875 001e 2846     		mov	r0, r5
 876 0020 FFF7FEFF 		bl	strEqualCaseInsensitive
 877 0024 38B1     		cbz	r0, .L70
 878 0026 40F20003 		movw	r3, #:lower16:engineConfiguration
 879 002a C0F20003 		movt	r3, #:upper16:engineConfiguration
 880 002e 1B68     		ldr	r3, [r3]
 881 0030 C3F8E861 		str	r6, [r3, #488]	@ float
 882 0034 F8BD     		pop	{r3, r4, r5, r6, r7, pc}
 883              	.L70:
 884 0036 40F20001 		movw	r1, #:lower16:.LC51
 885 003a C0F20001 		movt	r1, #:upper16:.LC51
 886 003e 2846     		mov	r0, r5
 887 0040 FFF7FEFF 		bl	strEqualCaseInsensitive
 888 0044 60B1     		cbz	r0, .L72
 889 0046 0A2F     		cmp	r7, #10
 890 0048 C1BF     		itttt	gt
 891 004a 40F20003 		movwgt	r3, #:lower16:engineConfiguration
 892 004e C0F20003 		movtgt	r3, #:upper16:engineConfiguration
 893 0052 1B68     		ldrgt	r3, [r3]
 894 0054 C3F87478 		strgt	r7, [r3, #2164]
 895 0058 BDE8F840 		pop	{r3, r4, r5, r6, r7, lr}
ARM GAS  C:\Users\pc\AppData\Local\Temp\cchrhDob.s 			page 17


 896 005c FFF7FEBF 		b	_Z11showAltInfov
 897              	.L72:
 898 0060 40F20001 		movw	r1, #:lower16:.LC52
 899 0064 C0F20001 		movt	r1, #:upper16:.LC52
 900 0068 2846     		mov	r0, r5
 901 006a FFF7FEFF 		bl	strEqualCaseInsensitive
 902 006e 68B1     		cbz	r0, .L74
 903 0070 40F20003 		movw	r3, #:lower16:engineConfiguration
 904 0074 C0F20003 		movt	r3, #:upper16:engineConfiguration
 905 0078 07EE107A 		fmsr	s14, r7	@ int
 906 007c 1B68     		ldr	r3, [r3]
 907 007e F8EEC77A 		fsitos	s15, s14
 908 0082 03F67803 		addw	r3, r3, #2168
 909 0086 C3ED007A 		fsts	s15, [r3]
 910 008a F8BD     		pop	{r3, r4, r5, r6, r7, pc}
 911              	.L74:
 912 008c 40F20001 		movw	r1, #:lower16:.LC53
 913 0090 C0F20001 		movt	r1, #:upper16:.LC53
 914 0094 2846     		mov	r0, r5
 915 0096 FFF7FEFF 		bl	strEqualCaseInsensitive
 916 009a 78B9     		cbnz	r0, .L82
 917 009c 40F20001 		movw	r1, #:lower16:.LC54
 918 00a0 C0F20001 		movt	r1, #:upper16:.LC54
 919 00a4 2846     		mov	r0, r5
 920 00a6 FFF7FEFF 		bl	strEqualCaseInsensitive
 921 00aa 60B1     		cbz	r0, .L76
 922 00ac 40F20003 		movw	r3, #:lower16:engineConfiguration
 923 00b0 C0F20003 		movt	r3, #:upper16:engineConfiguration
 924 00b4 1B68     		ldr	r3, [r3]
 925 00b6 C3F84071 		str	r7, [r3, #320]
 926 00ba F8BD     		pop	{r3, r4, r5, r6, r7, pc}
 927              	.L82:
 928 00bc 3046     		mov	r0, r6	@ float
 929 00be BDE8F840 		pop	{r3, r4, r5, r6, r7, lr}
 930 00c2 FFF7FEBF 		b	_Z13setAltPFactorf
 931              	.L76:
 932 00c6 40F20001 		movw	r1, #:lower16:.LC55
 933 00ca C0F20001 		movt	r1, #:upper16:.LC55
 934 00ce 2846     		mov	r0, r5
 935 00d0 FFF7FEFF 		bl	strEqualCaseInsensitive
 936 00d4 38B1     		cbz	r0, .L77
 937 00d6 40F20003 		movw	r3, #:lower16:engineConfiguration
 938 00da C0F20003 		movt	r3, #:upper16:engineConfiguration
 939 00de 1B68     		ldr	r3, [r3]
 940 00e0 C3F84471 		str	r7, [r3, #324]
 941 00e4 F8BD     		pop	{r3, r4, r5, r6, r7, pc}
 942              	.L77:
 943 00e6 40F20001 		movw	r1, #:lower16:.LC56
 944 00ea C0F20001 		movt	r1, #:upper16:.LC56
 945 00ee 2846     		mov	r0, r5
 946 00f0 FFF7FEFF 		bl	strEqualCaseInsensitive
 947 00f4 40B1     		cbz	r0, .L78
 948 00f6 40F20003 		movw	r3, #:lower16:engineConfiguration
 949 00fa C0F20003 		movt	r3, #:upper16:engineConfiguration
 950 00fe 1B68     		ldr	r3, [r3]
 951 0100 03F66C03 		addw	r3, r3, #2156
 952 0104 1E60     		str	r6, [r3]	@ float
ARM GAS  C:\Users\pc\AppData\Local\Temp\cchrhDob.s 			page 18


 953 0106 F8BD     		pop	{r3, r4, r5, r6, r7, pc}
 954              	.L78:
 955 0108 40F20001 		movw	r1, #:lower16:.LC57
 956 010c 2846     		mov	r0, r5
 957 010e C0F20001 		movt	r1, #:upper16:.LC57
 958 0112 FFF7FEFF 		bl	strEqualCaseInsensitive
 959 0116 00B9     		cbnz	r0, .L83
 960 0118 F8BD     		pop	{r3, r4, r5, r6, r7, pc}
 961              	.L83:
 962 011a 2046     		mov	r0, r4
 963 011c BDE8F840 		pop	{r3, r4, r5, r6, r7, lr}
 964 0120 FFF7FEBF 		b	_Z11setDateTimePKc
 965              		.size	_ZL8setValuePKcS0_, .-_ZL8setValuePKcS0_
 966 0124 AFF30080 		.section	.text._ZL23setTriggerSimulatorModePKcS0_,"ax",%progbits
 966      AFF30080 
 966      AFF30080 
 967              		.align	2
 968              		.p2align 4,,15
 969              		.thumb
 970              		.thumb_func
 971              		.type	_ZL23setTriggerSimulatorModePKcS0_, %function
 972              	_ZL23setTriggerSimulatorModePKcS0_:
 973              		@ args = 0, pretend = 0, frame = 0
 974              		@ frame_needed = 0, uses_anonymous_args = 0
 975 0000 70B5     		push	{r4, r5, r6, lr}
 976 0002 0D46     		mov	r5, r1
 977 0004 FFF7FEFF 		bl	atoi
 978 0008 0228     		cmp	r0, #2
 979 000a 0446     		mov	r4, r0
 980 000c 00D9     		bls	.L91
 981              	.L84:
 982 000e 70BD     		pop	{r4, r5, r6, pc}
 983              	.L91:
 984 0010 FFF7FEFF 		bl	absI
 985 0014 4EF23046 		movw	r6, #58416
 986 0018 C1F28C26 		movt	r6, 4748
 987 001c B042     		cmp	r0, r6
 988 001e 11D0     		beq	.L92
 989 0020 2846     		mov	r0, r5
 990 0022 FFF7FEFF 		bl	atoi
 991 0026 0546     		mov	r5, r0
 992 0028 FFF7FEFF 		bl	absI
 993 002c B042     		cmp	r0, r6
 994 002e EED0     		beq	.L84
 995 0030 40F20003 		movw	r3, #:lower16:boardConfiguration
 996 0034 C0F20003 		movt	r3, #:upper16:boardConfiguration
 997 0038 1B68     		ldr	r3, [r3]
 998 003a 03EB8404 		add	r4, r3, r4, lsl #2
 999 003e C4F86C51 		str	r5, [r4, #364]
 1000 0042 70BD     		pop	{r4, r5, r6, pc}
 1001              	.L92:
 1002 0044 70BD     		pop	{r4, r5, r6, pc}
 1003              		.size	_ZL23setTriggerSimulatorModePKcS0_, .-_ZL23setTriggerSimulatorModePKcS0_
 1004 0046 00BFAFF3 		.section	.text._ZL12setTimingMapPKcS0_S0_,"ax",%progbits
 1004      0080AFF3 
 1004      0080
 1005              		.align	2
ARM GAS  C:\Users\pc\AppData\Local\Temp\cchrhDob.s 			page 19


 1006              		.p2align 4,,15
 1007              		.thumb
 1008              		.thumb_func
 1009              		.type	_ZL12setTimingMapPKcS0_S0_, %function
 1010              	_ZL12setTimingMapPKcS0_S0_:
 1011              		@ args = 0, pretend = 0, frame = 0
 1012              		@ frame_needed = 0, uses_anonymous_args = 0
 1013 0000 2DE9F041 		push	{r4, r5, r6, r7, r8, lr}
 1014 0004 82B0     		sub	sp, sp, #8
 1015 0006 0D46     		mov	r5, r1
 1016 0008 1746     		mov	r7, r2
 1017 000a FFF7FEFF 		bl	atoff
 1018 000e 8046     		mov	r8, r0	@ float
 1019 0010 2846     		mov	r0, r5
 1020 0012 FFF7FEFF 		bl	atoff
 1021 0016 0646     		mov	r6, r0	@ float
 1022 0018 3846     		mov	r0, r7
 1023 001a FFF7FEFF 		bl	atoff
 1024 001e 40F20004 		movw	r4, #:lower16:config
 1025 0022 C0F20004 		movt	r4, #:upper16:config
 1026 0026 0746     		mov	r7, r0	@ float
 1027 0028 2068     		ldr	r0, [r4]
 1028 002a 00F54950 		add	r0, r0, #12864
 1029 002e 4246     		mov	r2, r8	@ float
 1030 0030 1021     		movs	r1, #16
 1031 0032 3830     		adds	r0, r0, #56
 1032 0034 FFF7FEFF 		bl	_Z9findIndexPKfif
 1033 0038 2368     		ldr	r3, [r4]
 1034 003a 20EAE075 		bic	r5, r0, r0, asr #31
 1035 003e 03F54850 		add	r0, r3, #12800
 1036 0042 3246     		mov	r2, r6	@ float
 1037 0044 1021     		movs	r1, #16
 1038 0046 3830     		adds	r0, r0, #56
 1039 0048 FFF7FEFF 		bl	_Z9findIndexPKfif
 1040 004c 20EAE076 		bic	r6, r0, r0, asr #31
 1041 0050 2268     		ldr	r2, [r4]
 1042 0052 05EB0613 		add	r3, r5, r6, lsl #4
 1043 0056 03F68E33 		addw	r3, r3, #2958
 1044 005a 02EB8303 		add	r3, r2, r3, lsl #2
 1045 005e 3846     		mov	r0, r7	@ float
 1046 0060 1F60     		str	r7, [r3]	@ float
 1047 0062 FFF7FEFF 		bl	__aeabi_f2d
 1048 0066 CDE90001 		strd	r0, [sp]
 1049 006a 40F20000 		movw	r0, #:lower16:.LANCHOR0
 1050 006e 40F20001 		movw	r1, #:lower16:.LC58
 1051 0072 2A46     		mov	r2, r5
 1052 0074 3346     		mov	r3, r6
 1053 0076 C0F20000 		movt	r0, #:upper16:.LANCHOR0
 1054 007a C0F20001 		movt	r1, #:upper16:.LC58
 1055 007e FFF7FEFF 		bl	scheduleMsg
 1056 0082 02B0     		add	sp, sp, #8
 1057              		@ sp needed
 1058 0084 BDE8F081 		pop	{r4, r5, r6, r7, r8, pc}
 1059              		.size	_ZL12setTimingMapPKcS0_S0_, .-_ZL12setTimingMapPKcS0_S0_
 1060 0088 AFF30080 		.section	.text._ZL10setFuelMapPKcS0_S0_,"ax",%progbits
 1060      AFF30080 
 1061              		.align	2
ARM GAS  C:\Users\pc\AppData\Local\Temp\cchrhDob.s 			page 20


 1062              		.p2align 4,,15
 1063              		.thumb
 1064              		.thumb_func
 1065              		.type	_ZL10setFuelMapPKcS0_S0_, %function
 1066              	_ZL10setFuelMapPKcS0_S0_:
 1067              		@ args = 0, pretend = 0, frame = 0
 1068              		@ frame_needed = 0, uses_anonymous_args = 0
 1069 0000 2DE9F041 		push	{r4, r5, r6, r7, r8, lr}
 1070 0004 82B0     		sub	sp, sp, #8
 1071 0006 0D46     		mov	r5, r1
 1072 0008 1746     		mov	r7, r2
 1073 000a FFF7FEFF 		bl	atoff
 1074 000e 8046     		mov	r8, r0	@ float
 1075 0010 2846     		mov	r0, r5
 1076 0012 FFF7FEFF 		bl	atoff
 1077 0016 0646     		mov	r6, r0	@ float
 1078 0018 3846     		mov	r0, r7
 1079 001a FFF7FEFF 		bl	atoff
 1080 001e 40F20004 		movw	r4, #:lower16:config
 1081 0022 C0F20004 		movt	r4, #:upper16:config
 1082 0026 0746     		mov	r7, r0	@ float
 1083 0028 2068     		ldr	r0, [r4]
 1084 002a 00F53750 		add	r0, r0, #11712
 1085 002e 4246     		mov	r2, r8	@ float
 1086 0030 1021     		movs	r1, #16
 1087 0032 3830     		adds	r0, r0, #56
 1088 0034 FFF7FEFF 		bl	_Z9findIndexPKfif
 1089 0038 2368     		ldr	r3, [r4]
 1090 003a 20EAE075 		bic	r5, r0, r0, asr #31
 1091 003e 03F53650 		add	r0, r3, #11648
 1092 0042 3246     		mov	r2, r6	@ float
 1093 0044 1021     		movs	r1, #16
 1094 0046 3830     		adds	r0, r0, #56
 1095 0048 FFF7FEFF 		bl	_Z9findIndexPKfif
 1096 004c 20EAE076 		bic	r6, r0, r0, asr #31
 1097 0050 2268     		ldr	r2, [r4]
 1098 0052 05EB0613 		add	r3, r5, r6, lsl #4
 1099 0056 03F66E23 		addw	r3, r3, #2670
 1100 005a 02EB8303 		add	r3, r2, r3, lsl #2
 1101 005e 3846     		mov	r0, r7	@ float
 1102 0060 1F60     		str	r7, [r3]	@ float
 1103 0062 FFF7FEFF 		bl	__aeabi_f2d
 1104 0066 CDE90001 		strd	r0, [sp]
 1105 006a 40F20000 		movw	r0, #:lower16:.LANCHOR0
 1106 006e 40F20001 		movw	r1, #:lower16:.LC59
 1107 0072 2A46     		mov	r2, r5
 1108 0074 3346     		mov	r3, r6
 1109 0076 C0F20000 		movt	r0, #:upper16:.LANCHOR0
 1110 007a C0F20001 		movt	r1, #:upper16:.LC59
 1111 007e FFF7FEFF 		bl	scheduleMsg
 1112 0082 02B0     		add	sp, sp, #8
 1113              		@ sp needed
 1114 0084 BDE8F081 		pop	{r4, r5, r6, r7, r8, pc}
 1115              		.size	_ZL10setFuelMapPKcS0_S0_, .-_ZL10setFuelMapPKcS0_S0_
 1116 0088 AFF30080 		.section	.text._ZL13setWholeVeCmdf,"ax",%progbits
 1116      AFF30080 
 1117              		.align	2
ARM GAS  C:\Users\pc\AppData\Local\Temp\cchrhDob.s 			page 21


 1118              		.p2align 4,,15
 1119              		.thumb
 1120              		.thumb_func
 1121              		.type	_ZL13setWholeVeCmdf, %function
 1122              	_ZL13setWholeVeCmdf:
 1123              		@ args = 0, pretend = 0, frame = 0
 1124              		@ frame_needed = 0, uses_anonymous_args = 0
 1125 0000 10B5     		push	{r4, lr}
 1126 0002 0446     		mov	r4, r0	@ float
 1127 0004 FFF7FEFF 		bl	__aeabi_f2d
 1128 0008 0B46     		mov	r3, r1
 1129 000a 0246     		mov	r2, r0
 1130 000c 40F20001 		movw	r1, #:lower16:.LC60
 1131 0010 40F20000 		movw	r0, #:lower16:.LANCHOR0
 1132 0014 C0F20000 		movt	r0, #:upper16:.LANCHOR0
 1133 0018 C0F20001 		movt	r1, #:upper16:.LC60
 1134 001c FFF7FEFF 		bl	scheduleMsg
 1135 0020 40F20003 		movw	r3, #:lower16:engineConfiguration
 1136 0024 C0F20003 		movt	r3, #:upper16:engineConfiguration
 1137 0028 1B68     		ldr	r3, [r3]
 1138 002a D3F8A831 		ldr	r3, [r3, #424]
 1139 002e 032B     		cmp	r3, #3
 1140 0030 09D0     		beq	.L96
 1141 0032 40F20000 		movw	r0, #:lower16:.LANCHOR0
 1142 0036 40F20001 		movw	r1, #:lower16:.LC61
 1143 003a C0F20000 		movt	r0, #:upper16:.LANCHOR0
 1144 003e C0F20001 		movt	r1, #:upper16:.LC61
 1145 0042 FFF7FEFF 		bl	scheduleMsg
 1146              	.L96:
 1147 0046 40F20003 		movw	r3, #:lower16:config
 1148 004a C0F20003 		movt	r3, #:upper16:config
 1149 004e 2146     		mov	r1, r4	@ float
 1150 0050 1868     		ldr	r0, [r3]
 1151 0052 00F54A50 		add	r0, r0, #12928
 1152 0056 3830     		adds	r0, r0, #56
 1153 0058 BDE81040 		pop	{r4, lr}
 1154 005c FFF7FEBF 		b	_Z6setMapPA16_ff
 1155              		.size	_ZL13setWholeVeCmdf, .-_ZL13setWholeVeCmdf
 1156              		.section	.text._ZL19setWholePhaseMapCmdf,"ax",%progbits
 1157              		.align	2
 1158              		.p2align 4,,15
 1159              		.thumb
 1160              		.thumb_func
 1161              		.type	_ZL19setWholePhaseMapCmdf, %function
 1162              	_ZL19setWholePhaseMapCmdf:
 1163              		@ args = 0, pretend = 0, frame = 0
 1164              		@ frame_needed = 0, uses_anonymous_args = 0
 1165 0000 10B5     		push	{r4, lr}
 1166 0002 0446     		mov	r4, r0	@ float
 1167 0004 FFF7FEFF 		bl	__aeabi_f2d
 1168 0008 0B46     		mov	r3, r1
 1169 000a 0246     		mov	r2, r0
 1170 000c 40F20001 		movw	r1, #:lower16:.LC62
 1171 0010 40F20000 		movw	r0, #:lower16:.LANCHOR0
 1172 0014 C0F20000 		movt	r0, #:upper16:.LANCHOR0
 1173 0018 C0F20001 		movt	r1, #:upper16:.LC62
 1174 001c FFF7FEFF 		bl	scheduleMsg
ARM GAS  C:\Users\pc\AppData\Local\Temp\cchrhDob.s 			page 22


 1175 0020 40F20003 		movw	r3, #:lower16:config
 1176 0024 C0F20003 		movt	r3, #:upper16:config
 1177 0028 2146     		mov	r1, r4	@ float
 1178 002a 1868     		ldr	r0, [r3]
 1179 002c 00F51450 		add	r0, r0, #9472
 1180 0030 3830     		adds	r0, r0, #56
 1181 0032 BDE81040 		pop	{r4, lr}
 1182 0036 FFF7FEBF 		b	_Z6setMapPA16_ff
 1183              		.size	_ZL19setWholePhaseMapCmdf, .-_ZL19setWholePhaseMapCmdf
 1184 003a 00BFAFF3 		.section	.text._ZL18setWholeFuelMapCmdf,"ax",%progbits
 1184      0080
 1185              		.align	2
 1186              		.p2align 4,,15
 1187              		.thumb
 1188              		.thumb_func
 1189              		.type	_ZL18setWholeFuelMapCmdf, %function
 1190              	_ZL18setWholeFuelMapCmdf:
 1191              		@ args = 0, pretend = 0, frame = 0
 1192              		@ frame_needed = 0, uses_anonymous_args = 0
 1193 0000 10B5     		push	{r4, lr}
 1194 0002 0446     		mov	r4, r0	@ float
 1195 0004 FFF7FEFF 		bl	__aeabi_f2d
 1196 0008 0B46     		mov	r3, r1
 1197 000a 0246     		mov	r2, r0
 1198 000c 40F20001 		movw	r1, #:lower16:.LC63
 1199 0010 40F20000 		movw	r0, #:lower16:.LANCHOR0
 1200 0014 C0F20000 		movt	r0, #:upper16:.LANCHOR0
 1201 0018 C0F20001 		movt	r1, #:upper16:.LC63
 1202 001c FFF7FEFF 		bl	scheduleMsg
 1203 0020 40F20003 		movw	r3, #:lower16:engineConfiguration
 1204 0024 C0F20003 		movt	r3, #:upper16:engineConfiguration
 1205 0028 1B68     		ldr	r3, [r3]
 1206 002a D3F8A831 		ldr	r3, [r3, #424]
 1207 002e 032B     		cmp	r3, #3
 1208 0030 04D0     		beq	.L103
 1209 0032 2046     		mov	r0, r4	@ float
 1210 0034 BDE81040 		pop	{r4, lr}
 1211 0038 FFF7FEBF 		b	_Z15setWholeFuelMapf
 1212              	.L103:
 1213 003c 40F20000 		movw	r0, #:lower16:.LANCHOR0
 1214 0040 40F20001 		movw	r1, #:lower16:.LC64
 1215 0044 C0F20000 		movt	r0, #:upper16:.LANCHOR0
 1216 0048 C0F20001 		movt	r1, #:upper16:.LC64
 1217 004c FFF7FEFF 		bl	scheduleMsg
 1218 0050 2046     		mov	r0, r4	@ float
 1219 0052 BDE81040 		pop	{r4, lr}
 1220 0056 FFF7FEBF 		b	_Z15setWholeFuelMapf
 1221              		.size	_ZL18setWholeFuelMapCmdf, .-_ZL18setWholeFuelMapCmdf
 1222 005a 00BFAFF3 		.section	.text._ZL12printTPSInfov,"ax",%progbits
 1222      0080
 1223              		.align	2
 1224              		.p2align 4,,15
 1225              		.thumb
 1226              		.thumb_func
 1227              		.type	_ZL12printTPSInfov, %function
 1228              	_ZL12printTPSInfov:
 1229              		@ args = 0, pretend = 0, frame = 0
ARM GAS  C:\Users\pc\AppData\Local\Temp\cchrhDob.s 			page 23


 1230              		@ frame_needed = 0, uses_anonymous_args = 0
 1231 0000 2DE9F043 		push	{r4, r5, r6, r7, r8, r9, lr}
 1232 0004 40F20004 		movw	r4, #:lower16:engineConfiguration
 1233 0008 C0F20004 		movt	r4, #:upper16:engineConfiguration
 1234 000c 85B0     		sub	sp, sp, #20
 1235 000e 2368     		ldr	r3, [r4]
 1236 0010 93F8D925 		ldrb	r2, [r3, #1497]	@ zero_extendqisi2
 1237 0014 D209     		lsrs	r2, r2, #7
 1238 0016 4AD0     		beq	.L106
 1239 0018 D3F80C02 		ldr	r0, [r3, #524]
 1240 001c FFF7FEFF 		bl	_Z17getAdcChannelPort13adc_channel_e
 1241 0020 2368     		ldr	r3, [r4]
 1242 0022 8146     		mov	r9, r0
 1243 0024 D3F80C02 		ldr	r0, [r3, #524]
 1244 0028 FFF7FEFF 		bl	_Z16getAdcChannelPin13adc_channel_e
 1245 002c 2368     		ldr	r3, [r4]
 1246 002e 0646     		mov	r6, r0
 1247 0030 B3F95270 		ldrsh	r7, [r3, #82]
 1248 0034 B3F95450 		ldrsh	r5, [r3, #84]
 1249 0038 FFF7FEFF 		bl	_Z13getTPSVoltagev
 1250 003c 8046     		mov	r8, r0	@ float
 1251 003e 4846     		mov	r0, r9
 1252 0040 FFF7FEFF 		bl	_Z8portnameP12GPIO_TypeDef
 1253 0044 0446     		mov	r4, r0
 1254 0046 4046     		mov	r0, r8	@ float
 1255 0048 FFF7FEFF 		bl	__aeabi_f2d
 1256 004c CDE90001 		strd	r0, [sp]
 1257 0050 40F20000 		movw	r0, #:lower16:.LANCHOR0
 1258 0054 40F20001 		movw	r1, #:lower16:.LC66
 1259 0058 2B46     		mov	r3, r5
 1260 005a 3A46     		mov	r2, r7
 1261 005c C0F20001 		movt	r1, #:upper16:.LC66
 1262 0060 0396     		str	r6, [sp, #12]
 1263 0062 0294     		str	r4, [sp, #8]
 1264 0064 C0F20000 		movt	r0, #:upper16:.LANCHOR0
 1265 0068 FFF7FEFF 		bl	scheduleMsg
 1266 006c FFF7FEFF 		bl	_Z14getTPS10bitAdcv
 1267 0070 0446     		mov	r4, r0
 1268 0072 FFF7FEFF 		bl	_Z6getTPSv
 1269 0076 0646     		mov	r6, r0	@ float
 1270 0078 FFF7FEFF 		bl	_Z18getTpsRateOfChangev
 1271 007c 0546     		mov	r5, r0	@ float
 1272 007e 3046     		mov	r0, r6	@ float
 1273 0080 FFF7FEFF 		bl	__aeabi_f2d
 1274 0084 CDE90001 		strd	r0, [sp]
 1275 0088 2846     		mov	r0, r5	@ float
 1276 008a FFF7FEFF 		bl	__aeabi_f2d
 1277 008e CDE90201 		strd	r0, [sp, #8]
 1278 0092 40F20000 		movw	r0, #:lower16:.LANCHOR0
 1279 0096 40F20001 		movw	r1, #:lower16:.LC67
 1280 009a 2246     		mov	r2, r4
 1281 009c C0F20000 		movt	r0, #:upper16:.LANCHOR0
 1282 00a0 C0F20001 		movt	r1, #:upper16:.LC67
 1283 00a4 FFF7FEFF 		bl	scheduleMsg
 1284 00a8 05B0     		add	sp, sp, #20
 1285              		@ sp needed
 1286 00aa BDE8F083 		pop	{r4, r5, r6, r7, r8, r9, pc}
ARM GAS  C:\Users\pc\AppData\Local\Temp\cchrhDob.s 			page 24


 1287              	.L106:
 1288 00ae 40F20000 		movw	r0, #:lower16:.LANCHOR0
 1289 00b2 40F20001 		movw	r1, #:lower16:.LC65
 1290 00b6 C0F20000 		movt	r0, #:upper16:.LANCHOR0
 1291 00ba C0F20001 		movt	r1, #:upper16:.LC65
 1292 00be 05B0     		add	sp, sp, #20
 1293              		@ sp needed
 1294 00c0 BDE8F043 		pop	{r4, r5, r6, r7, r8, r9, lr}
 1295 00c4 FFF7FEBF 		b	scheduleMsg
 1296              		.size	_ZL12printTPSInfov, .-_ZL12printTPSInfov
 1297 00c8 AFF30080 		.section	.text._ZL15printThermistorPKcP14ThermistorConfP14ThermistorMath,"ax",%progbits
 1297      AFF30080 
 1298              		.align	2
 1299              		.p2align 4,,15
 1300              		.thumb
 1301              		.thumb_func
 1302              		.type	_ZL15printThermistorPKcP14ThermistorConfP14ThermistorMath, %function
 1303              	_ZL15printThermistorPKcP14ThermistorConfP14ThermistorMath:
 1304              		@ args = 0, pretend = 0, frame = 0
 1305              		@ frame_needed = 0, uses_anonymous_args = 0
 1306 0000 2DE9F043 		push	{r4, r5, r6, r7, r8, r9, lr}
 1307 0004 2DED028B 		fstmfdd	sp!, {d8}
 1308 0008 CC69     		ldr	r4, [r1, #28]
 1309 000a 0546     		mov	r5, r0
 1310 000c 40F20000 		movw	r0, #:lower16:.LC68
 1311 0010 8BB0     		sub	sp, sp, #44
 1312 0012 0E46     		mov	r6, r1
 1313 0014 C0F20000 		movt	r0, #:upper16:.LC68
 1314 0018 2146     		mov	r1, r4
 1315 001a 9046     		mov	r8, r2
 1316 001c FFF7FEFF 		bl	_Z19getInternalAdcValuePKc13adc_channel_e
 1317 0020 40F20003 		movw	r3, #:lower16:engineConfiguration
 1318 0024 06EE900A 		fmsr	s13, r0	@ int
 1319 0028 C0F20003 		movt	r3, #:upper16:engineConfiguration
 1320 002c B8EEE68A 		fsitos	s16, s13
 1321 0030 1B68     		ldr	r3, [r3]
 1322 0032 DFED4B7A 		flds	s15, .L108
 1323 0036 28EE278A 		fmuls	s16, s16, s15
 1324 003a D3ED747A 		flds	s15, [r3, #464]
 1325 003e 3046     		mov	r0, r6
 1326 0040 28EE278A 		fmuls	s16, s16, s15
 1327 0044 FFF7FEFF 		bl	_Z13getResistanceP14ThermistorConf
 1328 0048 4146     		mov	r1, r8
 1329 004a 0746     		mov	r7, r0	@ float
 1330 004c 3046     		mov	r0, r6
 1331 004e FFF7FEFF 		bl	_Z15getTemperatureCP14ThermistorConfP14ThermistorMath
 1332 0052 8146     		mov	r9, r0	@ float
 1333 0054 18EE100A 		fmrs	r0, s16
 1334 0058 FFF7FEFF 		bl	__aeabi_f2d
 1335 005c CDE90001 		strd	r0, [sp]
 1336 0060 4846     		mov	r0, r9	@ float
 1337 0062 FFF7FEFF 		bl	__aeabi_f2d
 1338 0066 CDE90201 		strd	r0, [sp, #8]
 1339 006a 3846     		mov	r0, r7	@ float
 1340 006c FFF7FEFF 		bl	__aeabi_f2d
 1341 0070 40F20007 		movw	r7, #:lower16:.LANCHOR0
 1342 0074 C0F20007 		movt	r7, #:upper16:.LANCHOR0
ARM GAS  C:\Users\pc\AppData\Local\Temp\cchrhDob.s 			page 25


 1343 0078 CDE90401 		strd	r0, [sp, #16]
 1344 007c 40F20001 		movw	r1, #:lower16:.LC69
 1345 0080 2A46     		mov	r2, r5
 1346 0082 0694     		str	r4, [sp, #24]
 1347 0084 3846     		mov	r0, r7
 1348 0086 C0F20001 		movt	r1, #:upper16:.LC69
 1349 008a FFF7FEFF 		bl	scheduleMsg
 1350 008e 40F20001 		movw	r1, #:lower16:.LANCHOR1
 1351 0092 2046     		mov	r0, r4
 1352 0094 C0F20001 		movt	r1, #:upper16:.LANCHOR1
 1353 0098 FFF7FEFF 		bl	_Z22getPinNameByAdcChannel13adc_channel_ePc
 1354 009c 40F20001 		movw	r1, #:lower16:.LC70
 1355 00a0 0246     		mov	r2, r0
 1356 00a2 C0F20001 		movt	r1, #:upper16:.LC70
 1357 00a6 3846     		mov	r0, r7
 1358 00a8 FFF7FEFF 		bl	scheduleMsg
 1359 00ac 3068     		ldr	r0, [r6]	@ float
 1360 00ae FFF7FEFF 		bl	__aeabi_f2d
 1361 00b2 0446     		mov	r4, r0
 1362 00b4 F068     		ldr	r0, [r6, #12]	@ float
 1363 00b6 0D46     		mov	r5, r1
 1364 00b8 FFF7FEFF 		bl	__aeabi_f2d
 1365 00bc CDE90001 		strd	r0, [sp]
 1366 00c0 7068     		ldr	r0, [r6, #4]	@ float
 1367 00c2 FFF7FEFF 		bl	__aeabi_f2d
 1368 00c6 CDE90201 		strd	r0, [sp, #8]
 1369 00ca 3069     		ldr	r0, [r6, #16]	@ float
 1370 00cc FFF7FEFF 		bl	__aeabi_f2d
 1371 00d0 CDE90401 		strd	r0, [sp, #16]
 1372 00d4 B068     		ldr	r0, [r6, #8]	@ float
 1373 00d6 FFF7FEFF 		bl	__aeabi_f2d
 1374 00da CDE90601 		strd	r0, [sp, #24]
 1375 00de 7069     		ldr	r0, [r6, #20]	@ float
 1376 00e0 FFF7FEFF 		bl	__aeabi_f2d
 1377 00e4 CDE90801 		strd	r0, [sp, #32]
 1378 00e8 40F20001 		movw	r1, #:lower16:.LC71
 1379 00ec 2246     		mov	r2, r4
 1380 00ee 2B46     		mov	r3, r5
 1381 00f0 3846     		mov	r0, r7
 1382 00f2 C0F20001 		movt	r1, #:upper16:.LC71
 1383 00f6 FFF7FEFF 		bl	scheduleMsg
 1384 00fa 96ED067A 		flds	s14, [r6, #24]
 1385 00fe DFED197A 		flds	s15, .L108+4
 1386 0102 C7EE276A 		fdivs	s13, s14, s15
 1387 0106 16EE900A 		fmrs	r0, s13
 1388 010a FFF7FEFF 		bl	__aeabi_f2d
 1389 010e 0446     		mov	r4, r0
 1390 0110 D8F80000 		ldr	r0, [r8]	@ float
 1391 0114 0D46     		mov	r5, r1
 1392 0116 FFF7FEFF 		bl	__aeabi_f2d
 1393 011a CDE90001 		strd	r0, [sp]
 1394 011e D8F80400 		ldr	r0, [r8, #4]	@ float
 1395 0122 FFF7FEFF 		bl	__aeabi_f2d
 1396 0126 CDE90201 		strd	r0, [sp, #8]
 1397 012a D8F80800 		ldr	r0, [r8, #8]	@ float
 1398 012e FFF7FEFF 		bl	__aeabi_f2d
 1399 0132 CDE90401 		strd	r0, [sp, #16]
ARM GAS  C:\Users\pc\AppData\Local\Temp\cchrhDob.s 			page 26


 1400 0136 40F20001 		movw	r1, #:lower16:.LC72
 1401 013a 3846     		mov	r0, r7
 1402 013c 2246     		mov	r2, r4
 1403 013e 2B46     		mov	r3, r5
 1404 0140 C0F20001 		movt	r1, #:upper16:.LC72
 1405 0144 FFF7FEFF 		bl	scheduleMsg
 1406 0148 40F20001 		movw	r1, #:lower16:.LC73
 1407 014c 3846     		mov	r0, r7
 1408 014e C0F20001 		movt	r1, #:upper16:.LC73
 1409 0152 0BB0     		add	sp, sp, #44
 1410              		@ sp needed
 1411 0154 BDEC028B 		fldmfdd	sp!, {d8}
 1412 0158 BDE8F043 		pop	{r4, r5, r6, r7, r8, r9, lr}
 1413 015c FFF7FEBF 		b	scheduleMsg
 1414              	.L109:
 1415              		.align	2
 1416              	.L108:
 1417 0160 010C403A 		.word	977275905
 1418 0164 00007A44 		.word	1148846080
 1419              		.size	_ZL15printThermistorPKcP14ThermistorConfP14ThermistorMath, .-_ZL15printThermistorPKcP14Therm
 1420 0168 AFF30080 		.section	.text._ZL20printTemperatureInfov,"ax",%progbits
 1420      AFF30080 
 1421              		.align	2
 1422              		.p2align 4,,15
 1423              		.thumb
 1424              		.thumb_func
 1425              		.type	_ZL20printTemperatureInfov, %function
 1426              	_ZL20printTemperatureInfov:
 1427              		@ args = 0, pretend = 0, frame = 0
 1428              		@ frame_needed = 0, uses_anonymous_args = 0
 1429 0000 70B5     		push	{r4, r5, r6, lr}
 1430 0002 40F20005 		movw	r5, #:lower16:engine
 1431 0006 C0F20005 		movt	r5, #:upper16:engine
 1432 000a 40F20004 		movw	r4, #:lower16:engineConfiguration
 1433 000e C0F20004 		movt	r4, #:upper16:engineConfiguration
 1434 0012 2A68     		ldr	r2, [r5]
 1435 0014 2168     		ldr	r1, [r4]
 1436 0016 02F5F452 		add	r2, r2, #7808
 1437 001a 40F20000 		movw	r0, #:lower16:.LC74
 1438 001e 0432     		adds	r2, r2, #4
 1439 0020 01F58071 		add	r1, r1, #256
 1440 0024 C0F20000 		movt	r0, #:upper16:.LC74
 1441 0028 FFF7FEFF 		bl	_ZL15printThermistorPKcP14ThermistorConfP14ThermistorMath
 1442 002c FFF7FEFF 		bl	_Z21getCoolantTemperaturev
 1443 0030 FFF7FEFF 		bl	_Z25isValidCoolantTemperaturef
 1444 0034 0028     		cmp	r0, #0
 1445 0036 4FD0     		beq	.L113
 1446              	.L111:
 1447 0038 2A68     		ldr	r2, [r5]
 1448 003a 2168     		ldr	r1, [r4]
 1449 003c 02F5F252 		add	r2, r2, #7744
 1450 0040 40F20000 		movw	r0, #:lower16:.LC76
 1451 0044 1C32     		adds	r2, r2, #28
 1452 0046 01F59071 		add	r1, r1, #288
 1453 004a C0F20000 		movt	r0, #:upper16:.LC76
 1454 004e FFF7FEFF 		bl	_ZL15printThermistorPKcP14ThermistorConfP14ThermistorMath
 1455 0052 FFF7FEFF 		bl	_Z23getIntakeAirTemperaturev
ARM GAS  C:\Users\pc\AppData\Local\Temp\cchrhDob.s 			page 27


 1456 0056 FFF7FEFF 		bl	_Z27isValidIntakeAirTemperaturef
 1457 005a 48B9     		cbnz	r0, .L112
 1458 005c 40F20000 		movw	r0, #:lower16:.LANCHOR0
 1459 0060 40F20001 		movw	r1, #:lower16:.LC77
 1460 0064 C0F20000 		movt	r0, #:upper16:.LANCHOR0
 1461 0068 C0F20001 		movt	r1, #:upper16:.LC77
 1462 006c FFF7FEFF 		bl	scheduleMsg
 1463              	.L112:
 1464 0070 40F20004 		movw	r4, #:lower16:boardConfiguration
 1465 0074 1E48     		ldr	r0, .L114
 1466 0076 FFF7FEFF 		bl	_ZN9OutputPin13getLogicValueEv
 1467 007a C0F20004 		movt	r4, #:upper16:boardConfiguration
 1468 007e FFF7FEFF 		bl	_Z12boolToStringb
 1469 0082 2368     		ldr	r3, [r4]
 1470 0084 0546     		mov	r5, r0
 1471 0086 D3F89000 		ldr	r0, [r3, #144]
 1472 008a FFF7FEFF 		bl	_Z10hwPortname11brain_pin_e
 1473 008e 40F20001 		movw	r1, #:lower16:.LC78
 1474 0092 0346     		mov	r3, r0
 1475 0094 40F20000 		movw	r0, #:lower16:.LANCHOR0
 1476 0098 2A46     		mov	r2, r5
 1477 009a C0F20001 		movt	r1, #:upper16:.LC78
 1478 009e C0F20000 		movt	r0, #:upper16:.LANCHOR0
 1479 00a2 FFF7FEFF 		bl	scheduleMsg
 1480 00a6 1348     		ldr	r0, .L114+4
 1481 00a8 FFF7FEFF 		bl	_ZN9OutputPin13getLogicValueEv
 1482 00ac FFF7FEFF 		bl	_Z12boolToStringb
 1483 00b0 2368     		ldr	r3, [r4]
 1484 00b2 0546     		mov	r5, r0
 1485 00b4 D3F86002 		ldr	r0, [r3, #608]
 1486 00b8 FFF7FEFF 		bl	_Z10hwPortname11brain_pin_e
 1487 00bc 40F20001 		movw	r1, #:lower16:.LC79
 1488 00c0 0346     		mov	r3, r0
 1489 00c2 40F20000 		movw	r0, #:lower16:.LANCHOR0
 1490 00c6 2A46     		mov	r2, r5
 1491 00c8 C0F20000 		movt	r0, #:upper16:.LANCHOR0
 1492 00cc C0F20001 		movt	r1, #:upper16:.LC79
 1493 00d0 BDE87040 		pop	{r4, r5, r6, lr}
 1494 00d4 FFF7FEBF 		b	scheduleMsg
 1495              	.L113:
 1496 00d8 40F20000 		movw	r0, #:lower16:.LANCHOR0
 1497 00dc 40F20001 		movw	r1, #:lower16:.LC75
 1498 00e0 C0F20000 		movt	r0, #:upper16:.LANCHOR0
 1499 00e4 C0F20001 		movt	r1, #:upper16:.LC75
 1500 00e8 FFF7FEFF 		bl	scheduleMsg
 1501 00ec A4E7     		b	.L111
 1502              	.L115:
 1503 00ee 00BF     		.align	2
 1504              	.L114:
 1505 00f0 10000000 		.word	enginePins+16
 1506 00f4 20000000 		.word	enginePins+32
 1507              		.size	_ZL20printTemperatureInfov, .-_ZL20printTemperatureInfov
 1508 00f8 AFF30080 		.section	.text._ZL15setCrankingFuelf,"ax",%progbits
 1508      AFF30080 
 1509              		.align	2
 1510              		.p2align 4,,15
 1511              		.thumb
ARM GAS  C:\Users\pc\AppData\Local\Temp\cchrhDob.s 			page 28


 1512              		.thumb_func
 1513              		.type	_ZL15setCrankingFuelf, %function
 1514              	_ZL15setCrankingFuelf:
 1515              		@ args = 0, pretend = 0, frame = 0
 1516              		@ frame_needed = 0, uses_anonymous_args = 0
 1517              		@ link register save eliminated.
 1518 0000 40F20003 		movw	r3, #:lower16:engineConfiguration
 1519 0004 C0F20003 		movt	r3, #:upper16:engineConfiguration
 1520 0008 1B68     		ldr	r3, [r3]
 1521 000a D865     		str	r0, [r3, #92]	@ float
 1522 000c FFF7FEBF 		b	_ZL20printTemperatureInfov
 1523              		.size	_ZL15setCrankingFuelf, .-_ZL15setCrankingFuelf
 1524              		.section	.text._ZL12printAllInfov,"ax",%progbits
 1525              		.align	2
 1526              		.p2align 4,,15
 1527              		.thumb
 1528              		.thumb_func
 1529              		.type	_ZL12printAllInfov, %function
 1530              	_ZL12printAllInfov:
 1531              		@ args = 0, pretend = 0, frame = 0
 1532              		@ frame_needed = 0, uses_anonymous_args = 0
 1533 0000 38B5     		push	{r3, r4, r5, lr}
 1534 0002 FFF7FEFF 		bl	_ZL20printTemperatureInfov
 1535 0006 FFF7FEFF 		bl	_ZL12printTPSInfov
 1536 000a 40F20003 		movw	r3, #:lower16:waveChartUsedSize
 1537 000e C0F20003 		movt	r3, #:upper16:waveChartUsedSize
 1538 0012 40F20004 		movw	r4, #:lower16:.LANCHOR0
 1539 0016 C0F20004 		movt	r4, #:upper16:.LANCHOR0
 1540 001a 40F20001 		movw	r1, #:lower16:.LC80
 1541 001e 1A68     		ldr	r2, [r3]
 1542 0020 2046     		mov	r0, r4
 1543 0022 C0F20001 		movt	r1, #:upper16:.LC80
 1544 0026 FFF7FEFF 		bl	scheduleMsg
 1545 002a 4FF48063 		mov	r3, #1024
 1546 002e C4F20203 		movt	r3, 16386
 1547 0032 40F20005 		movw	r5, #:lower16:boardConfiguration
 1548 0036 1869     		ldr	r0, [r3, #16]
 1549 0038 80F00200 		eor	r0, r0, #2
 1550 003c C0F34000 		ubfx	r0, r0, #1, #1
 1551 0040 FFF7FEFF 		bl	_Z12boolToStringb
 1552 0044 C0F20005 		movt	r5, #:upper16:boardConfiguration
 1553 0048 40F20001 		movw	r1, #:lower16:.LC81
 1554 004c 0246     		mov	r2, r0
 1555 004e C0F20001 		movt	r1, #:upper16:.LC81
 1556 0052 2046     		mov	r0, r4
 1557 0054 FFF7FEFF 		bl	scheduleMsg
 1558 0058 2B68     		ldr	r3, [r5]
 1559 005a D3F85001 		ldr	r0, [r3, #336]
 1560 005e FFF7FEFF 		bl	_Z9getHwPort11brain_pin_e
 1561 0062 2B68     		ldr	r3, [r5]
 1562 0064 0569     		ldr	r5, [r0, #16]
 1563 0066 D3F85001 		ldr	r0, [r3, #336]
 1564 006a FFF7FEFF 		bl	_Z8getHwPin11brain_pin_e
 1565 006e 25FA00F0 		lsr	r0, r5, r0
 1566 0072 00F00100 		and	r0, r0, #1
 1567 0076 80F00100 		eor	r0, r0, #1
 1568 007a FFF7FEFF 		bl	_Z12boolToStringb
ARM GAS  C:\Users\pc\AppData\Local\Temp\cchrhDob.s 			page 29


 1569 007e 40F20001 		movw	r1, #:lower16:.LC82
 1570 0082 0246     		mov	r2, r0
 1571 0084 C0F20001 		movt	r1, #:upper16:.LC82
 1572 0088 2046     		mov	r0, r4
 1573 008a BDE83840 		pop	{r3, r4, r5, lr}
 1574 008e FFF7FEBF 		b	scheduleMsg
 1575              		.size	_ZL12printAllInfov, .-_ZL12printAllInfov
 1576 0092 00BFAFF3 		.section	.text._ZL13setFanSettingff,"ax",%progbits
 1576      0080AFF3 
 1576      0080AFF3 
 1576      0080
 1577              		.align	2
 1578              		.p2align 4,,15
 1579              		.thumb
 1580              		.thumb_func
 1581              		.type	_ZL13setFanSettingff, %function
 1582              	_ZL13setFanSettingff:
 1583              		@ args = 0, pretend = 0, frame = 0
 1584              		@ frame_needed = 0, uses_anonymous_args = 0
 1585 0000 30B5     		push	{r4, r5, lr}
 1586 0002 07EE900A 		fmsr	s15, r0
 1587 0006 2DED028B 		fstmfdd	sp!, {d8}
 1588 000a 08EE101A 		fmsr	s16, r1
 1589 000e F4EEC87A 		fcmpes	s15, s16
 1590 0012 F1EE10FA 		fmstat
 1591 0016 83B0     		sub	sp, sp, #12
 1592 0018 0CD9     		bls	.L124
 1593 001a 40F20003 		movw	r3, #:lower16:engineConfiguration
 1594 001e C0F20003 		movt	r3, #:upper16:engineConfiguration
 1595 0022 1B68     		ldr	r3, [r3]
 1596 0024 C3F8DC01 		str	r0, [r3, #476]	@ float
 1597 0028 C3F8E011 		str	r1, [r3, #480]	@ float
 1598 002c 03B0     		add	sp, sp, #12
 1599              		@ sp needed
 1600 002e BDEC028B 		fldmfdd	sp!, {d8}
 1601 0032 30BD     		pop	{r4, r5, pc}
 1602              	.L124:
 1603 0034 FFF7FEFF 		bl	__aeabi_f2d
 1604 0038 0446     		mov	r4, r0
 1605 003a 18EE100A 		fmrs	r0, s16
 1606 003e 0D46     		mov	r5, r1
 1607 0040 FFF7FEFF 		bl	__aeabi_f2d
 1608 0044 CDE90001 		strd	r0, [sp]
 1609 0048 40F20000 		movw	r0, #:lower16:.LANCHOR0
 1610 004c 40F20001 		movw	r1, #:lower16:.LC83
 1611 0050 2246     		mov	r2, r4
 1612 0052 2B46     		mov	r3, r5
 1613 0054 C0F20000 		movt	r0, #:upper16:.LANCHOR0
 1614 0058 C0F20001 		movt	r1, #:upper16:.LC83
 1615 005c FFF7FEFF 		bl	scheduleMsg
 1616 0060 03B0     		add	sp, sp, #12
 1617              		@ sp needed
 1618 0062 BDEC028B 		fldmfdd	sp!, {d8}
 1619 0066 30BD     		pop	{r4, r5, pc}
 1620              		.size	_ZL13setFanSettingff, .-_ZL13setFanSettingff
 1621 0068 AFF30080 		.section	.text._ZL23setGlobalFuelCorrectionf,"ax",%progbits
 1621      AFF30080 
ARM GAS  C:\Users\pc\AppData\Local\Temp\cchrhDob.s 			page 30


 1622              		.align	2
 1623              		.p2align 4,,15
 1624              		.thumb
 1625              		.thumb_func
 1626              		.type	_ZL23setGlobalFuelCorrectionf, %function
 1627              	_ZL23setGlobalFuelCorrectionf:
 1628              		@ args = 0, pretend = 0, frame = 0
 1629              		@ frame_needed = 0, uses_anonymous_args = 0
 1630 0000 08B5     		push	{r3, lr}
 1631 0002 DFED167A 		flds	s15, .L128
 1632 0006 2DED028B 		fstmfdd	sp!, {d8}
 1633 000a 08EE100A 		fmsr	s16, r0
 1634 000e B4EEE78A 		fcmpes	s16, s15
 1635 0012 F1EE10FA 		fmstat
 1636 0016 06D4     		bmi	.L125
 1637 0018 DFED117A 		flds	s15, .L128+4
 1638 001c B4EEE78A 		fcmpes	s16, s15
 1639 0020 F1EE10FA 		fmstat
 1640 0024 02DD     		ble	.L127
 1641              	.L125:
 1642 0026 BDEC028B 		fldmfdd	sp!, {d8}
 1643 002a 08BD     		pop	{r3, pc}
 1644              	.L127:
 1645 002c FFF7FEFF 		bl	__aeabi_f2d
 1646 0030 0B46     		mov	r3, r1
 1647 0032 0246     		mov	r2, r0
 1648 0034 40F20001 		movw	r1, #:lower16:.LC84
 1649 0038 40F20000 		movw	r0, #:lower16:.LANCHOR0
 1650 003c C0F20000 		movt	r0, #:upper16:.LANCHOR0
 1651 0040 C0F20001 		movt	r1, #:upper16:.LC84
 1652 0044 FFF7FEFF 		bl	scheduleMsg
 1653 0048 40F20003 		movw	r3, #:lower16:engineConfiguration
 1654 004c C0F20003 		movt	r3, #:upper16:engineConfiguration
 1655 0050 1B68     		ldr	r3, [r3]
 1656 0052 83ED8E8A 		fsts	s16, [r3, #568]
 1657 0056 BDEC028B 		fldmfdd	sp!, {d8}
 1658 005a 08BD     		pop	{r3, pc}
 1659              	.L129:
 1660              		.align	2
 1661              	.L128:
 1662 005c 0AD7233C 		.word	1008981770
 1663 0060 00004842 		.word	1112014848
 1664              		.size	_ZL23setGlobalFuelCorrectionf, .-_ZL23setGlobalFuelCorrectionf
 1665 0064 AFF30080 		.section	.text._ZL16setLogicInputPinPKcS0_,"ax",%progbits
 1665      AFF30080 
 1665      AFF30080 
 1666              		.align	2
 1667              		.p2align 4,,15
 1668              		.thumb
 1669              		.thumb_func
 1670              		.type	_ZL16setLogicInputPinPKcS0_, %function
 1671              	_ZL16setLogicInputPinPKcS0_:
 1672              		@ args = 0, pretend = 0, frame = 0
 1673              		@ frame_needed = 0, uses_anonymous_args = 0
 1674 0000 70B5     		push	{r4, r5, r6, lr}
 1675 0002 0D46     		mov	r5, r1
 1676 0004 FFF7FEFF 		bl	atoi
ARM GAS  C:\Users\pc\AppData\Local\Temp\cchrhDob.s 			page 31


 1677 0008 0228     		cmp	r0, #2
 1678 000a 0446     		mov	r4, r0
 1679 000c 00D9     		bls	.L133
 1680 000e 70BD     		pop	{r4, r5, r6, pc}
 1681              	.L133:
 1682 0010 2846     		mov	r0, r5
 1683 0012 FFF7FEFF 		bl	_Z13parseBrainPinPKc
 1684 0016 5128     		cmp	r0, #81
 1685 0018 0646     		mov	r6, r0
 1686 001a 17D0     		beq	.L134
 1687 001c FFF7FEFF 		bl	_Z10hwPortname11brain_pin_e
 1688 0020 40F20001 		movw	r1, #:lower16:.LC85
 1689 0024 0346     		mov	r3, r0
 1690 0026 40F20000 		movw	r0, #:lower16:.LANCHOR0
 1691 002a 2246     		mov	r2, r4
 1692 002c C0F20000 		movt	r0, #:upper16:.LANCHOR0
 1693 0030 C0F20001 		movt	r1, #:upper16:.LC85
 1694 0034 FFF7FEFF 		bl	scheduleMsg
 1695 0038 40F20003 		movw	r3, #:lower16:boardConfiguration
 1696 003c C0F20003 		movt	r3, #:upper16:boardConfiguration
 1697 0040 1B68     		ldr	r3, [r3]
 1698 0042 03EB8404 		add	r4, r3, r4, lsl #2
 1699 0046 C4F88461 		str	r6, [r4, #388]
 1700 004a 70BD     		pop	{r4, r5, r6, pc}
 1701              	.L134:
 1702 004c 40F20000 		movw	r0, #:lower16:.LANCHOR0
 1703 0050 40F20001 		movw	r1, #:lower16:.LC6
 1704 0054 2A46     		mov	r2, r5
 1705 0056 C0F20000 		movt	r0, #:upper16:.LANCHOR0
 1706 005a C0F20001 		movt	r1, #:upper16:.LC6
 1707 005e BDE87040 		pop	{r4, r5, r6, lr}
 1708 0062 FFF7FEBF 		b	scheduleMsg
 1709              		.size	_ZL16setLogicInputPinPKcS0_, .-_ZL16setLogicInputPinPKcS0_
 1710 0066 00BFAFF3 		.section	.text._ZL16setIndividualPinPKcP11brain_pin_eS0_,"ax",%progbits
 1710      0080AFF3 
 1710      0080
 1711              		.align	2
 1712              		.p2align 4,,15
 1713              		.thumb
 1714              		.thumb_func
 1715              		.type	_ZL16setIndividualPinPKcP11brain_pin_eS0_, %function
 1716              	_ZL16setIndividualPinPKcP11brain_pin_eS0_:
 1717              		@ args = 0, pretend = 0, frame = 0
 1718              		@ frame_needed = 0, uses_anonymous_args = 0
 1719 0000 F8B5     		push	{r3, r4, r5, r6, r7, lr}
 1720 0002 0D46     		mov	r5, r1
 1721 0004 1646     		mov	r6, r2
 1722 0006 0746     		mov	r7, r0
 1723 0008 FFF7FEFF 		bl	_Z13parseBrainPinPKc
 1724 000c 5128     		cmp	r0, #81
 1725 000e 0446     		mov	r4, r0
 1726 0010 12D0     		beq	.L137
 1727 0012 FFF7FEFF 		bl	_Z10hwPortname11brain_pin_e
 1728 0016 40F20001 		movw	r1, #:lower16:.LC86
 1729 001a 0346     		mov	r3, r0
 1730 001c 40F20000 		movw	r0, #:lower16:.LANCHOR0
 1731 0020 3246     		mov	r2, r6
ARM GAS  C:\Users\pc\AppData\Local\Temp\cchrhDob.s 			page 32


 1732 0022 C0F20000 		movt	r0, #:upper16:.LANCHOR0
 1733 0026 C0F20001 		movt	r1, #:upper16:.LC86
 1734 002a FFF7FEFF 		bl	scheduleMsg
 1735 002e 2C60     		str	r4, [r5]
 1736 0030 BDE8F840 		pop	{r3, r4, r5, r6, r7, lr}
 1737 0034 FFF7FEBF 		b	applyNewConfiguration
 1738              	.L137:
 1739 0038 40F20000 		movw	r0, #:lower16:.LANCHOR0
 1740 003c 40F20001 		movw	r1, #:lower16:.LC6
 1741 0040 3A46     		mov	r2, r7
 1742 0042 C0F20000 		movt	r0, #:upper16:.LANCHOR0
 1743 0046 C0F20001 		movt	r1, #:upper16:.LC6
 1744 004a BDE8F840 		pop	{r3, r4, r5, r6, r7, lr}
 1745 004e FFF7FEBF 		b	scheduleMsg
 1746              		.size	_ZL16setIndividualPinPKcP11brain_pin_eS0_, .-_ZL16setIndividualPinPKcP11brain_pin_eS0_
 1747 0052 00BFAFF3 		.section	.text._ZL15setMainRelayPinPKc,"ax",%progbits
 1747      0080AFF3 
 1747      0080AFF3 
 1747      0080
 1748              		.align	2
 1749              		.p2align 4,,15
 1750              		.thumb
 1751              		.thumb_func
 1752              		.type	_ZL15setMainRelayPinPKc, %function
 1753              	_ZL15setMainRelayPinPKc:
 1754              		@ args = 0, pretend = 0, frame = 0
 1755              		@ frame_needed = 0, uses_anonymous_args = 0
 1756              		@ link register save eliminated.
 1757 0000 40F20003 		movw	r3, #:lower16:boardConfiguration
 1758 0004 C0F20003 		movt	r3, #:upper16:boardConfiguration
 1759 0008 40F20002 		movw	r2, #:lower16:.LC87
 1760 000c 1968     		ldr	r1, [r3]
 1761 000e C0F20002 		movt	r2, #:upper16:.LC87
 1762 0012 01F59A71 		add	r1, r1, #308
 1763 0016 FFF7FEBF 		b	_ZL16setIndividualPinPKcP11brain_pin_eS0_
 1764              		.size	_ZL15setMainRelayPinPKc, .-_ZL15setMainRelayPinPKc
 1765 001a 00BFAFF3 		.section	.text._ZL10setIdlePinPKc,"ax",%progbits
 1765      0080
 1766              		.align	2
 1767              		.p2align 4,,15
 1768              		.thumb
 1769              		.thumb_func
 1770              		.type	_ZL10setIdlePinPKc, %function
 1771              	_ZL10setIdlePinPKc:
 1772              		@ args = 0, pretend = 0, frame = 0
 1773              		@ frame_needed = 0, uses_anonymous_args = 0
 1774              		@ link register save eliminated.
 1775 0000 40F20003 		movw	r3, #:lower16:boardConfiguration
 1776 0004 C0F20003 		movt	r3, #:upper16:boardConfiguration
 1777 0008 40F20002 		movw	r2, #:lower16:.LC88
 1778 000c 1968     		ldr	r1, [r3]
 1779 000e C0F20002 		movt	r2, #:upper16:.LC88
 1780 0012 FFF7FEBF 		b	_ZL16setIndividualPinPKcP11brain_pin_eS0_
 1781              		.size	_ZL10setIdlePinPKc, .-_ZL10setIdlePinPKc
 1782 0016 00BFAFF3 		.section	.text._ZL16setAlternatorPinPKc,"ax",%progbits
 1782      0080AFF3 
 1782      0080
ARM GAS  C:\Users\pc\AppData\Local\Temp\cchrhDob.s 			page 33


 1783              		.align	2
 1784              		.p2align 4,,15
 1785              		.thumb
 1786              		.thumb_func
 1787              		.type	_ZL16setAlternatorPinPKc, %function
 1788              	_ZL16setAlternatorPinPKc:
 1789              		@ args = 0, pretend = 0, frame = 0
 1790              		@ frame_needed = 0, uses_anonymous_args = 0
 1791              		@ link register save eliminated.
 1792 0000 40F20003 		movw	r3, #:lower16:boardConfiguration
 1793 0004 C0F20003 		movt	r3, #:upper16:boardConfiguration
 1794 0008 40F20002 		movw	r2, #:lower16:.LC89
 1795 000c 1968     		ldr	r1, [r3]
 1796 000e C0F20002 		movt	r2, #:upper16:.LC89
 1797 0012 A831     		adds	r1, r1, #168
 1798 0014 FFF7FEBF 		b	_ZL16setIndividualPinPKcP11brain_pin_eS0_
 1799              		.size	_ZL16setAlternatorPinPKc, .-_ZL16setAlternatorPinPKc
 1800 0018 AFF30080 		.section	.text._ZL8setACPinPKc,"ax",%progbits
 1800      AFF30080 
 1801              		.align	2
 1802              		.p2align 4,,15
 1803              		.thumb
 1804              		.thumb_func
 1805              		.type	_ZL8setACPinPKc, %function
 1806              	_ZL8setACPinPKc:
 1807              		@ args = 0, pretend = 0, frame = 0
 1808              		@ frame_needed = 0, uses_anonymous_args = 0
 1809              		@ link register save eliminated.
 1810 0000 40F20003 		movw	r3, #:lower16:boardConfiguration
 1811 0004 C0F20003 		movt	r3, #:upper16:boardConfiguration
 1812 0008 40F20002 		movw	r2, #:lower16:.LC90
 1813 000c 1968     		ldr	r1, [r3]
 1814 000e C0F20002 		movt	r2, #:upper16:.LC90
 1815 0012 01F51871 		add	r1, r1, #608
 1816 0016 FFF7FEBF 		b	_ZL16setIndividualPinPKcP11brain_pin_eS0_
 1817              		.size	_ZL8setACPinPKc, .-_ZL8setACPinPKc
 1818 001a 00BFAFF3 		.section	.text._ZL14setFuelPumpPinPKc,"ax",%progbits
 1818      0080
 1819              		.align	2
 1820              		.p2align 4,,15
 1821              		.thumb
 1822              		.thumb_func
 1823              		.type	_ZL14setFuelPumpPinPKc, %function
 1824              	_ZL14setFuelPumpPinPKc:
 1825              		@ args = 0, pretend = 0, frame = 0
 1826              		@ frame_needed = 0, uses_anonymous_args = 0
 1827              		@ link register save eliminated.
 1828 0000 40F20003 		movw	r3, #:lower16:boardConfiguration
 1829 0004 C0F20003 		movt	r3, #:upper16:boardConfiguration
 1830 0008 40F20002 		movw	r2, #:lower16:.LC91
 1831 000c 1968     		ldr	r1, [r3]
 1832 000e C0F20002 		movt	r2, #:upper16:.LC91
 1833 0012 1831     		adds	r1, r1, #24
 1834 0014 FFF7FEBF 		b	_ZL16setIndividualPinPKcP11brain_pin_eS0_
 1835              		.size	_ZL14setFuelPumpPinPKc, .-_ZL14setFuelPumpPinPKc
 1836 0018 AFF30080 		.section	.text._ZL18setTriggerInputPinPKcS0_,"ax",%progbits
 1836      AFF30080 
ARM GAS  C:\Users\pc\AppData\Local\Temp\cchrhDob.s 			page 34


 1837              		.align	2
 1838              		.p2align 4,,15
 1839              		.thumb
 1840              		.thumb_func
 1841              		.type	_ZL18setTriggerInputPinPKcS0_, %function
 1842              	_ZL18setTriggerInputPinPKcS0_:
 1843              		@ args = 0, pretend = 0, frame = 0
 1844              		@ frame_needed = 0, uses_anonymous_args = 0
 1845 0000 70B5     		push	{r4, r5, r6, lr}
 1846 0002 0D46     		mov	r5, r1
 1847 0004 FFF7FEFF 		bl	atoi
 1848 0008 0228     		cmp	r0, #2
 1849 000a 0446     		mov	r4, r0
 1850 000c 00D9     		bls	.L146
 1851 000e 70BD     		pop	{r4, r5, r6, pc}
 1852              	.L146:
 1853 0010 2846     		mov	r0, r5
 1854 0012 FFF7FEFF 		bl	_Z13parseBrainPinPKc
 1855 0016 5128     		cmp	r0, #81
 1856 0018 0646     		mov	r6, r0
 1857 001a 19D0     		beq	.L147
 1858 001c FFF7FEFF 		bl	_Z10hwPortname11brain_pin_e
 1859 0020 40F20001 		movw	r1, #:lower16:.LC92
 1860 0024 0346     		mov	r3, r0
 1861 0026 40F20000 		movw	r0, #:lower16:.LANCHOR0
 1862 002a 2246     		mov	r2, r4
 1863 002c C0F20000 		movt	r0, #:upper16:.LANCHOR0
 1864 0030 C0F20001 		movt	r1, #:upper16:.LC92
 1865 0034 FFF7FEFF 		bl	scheduleMsg
 1866 0038 40F20003 		movw	r3, #:lower16:boardConfiguration
 1867 003c C0F20003 		movt	r3, #:upper16:boardConfiguration
 1868 0040 4A34     		adds	r4, r4, #74
 1869 0042 1B68     		ldr	r3, [r3]
 1870 0044 43F82460 		str	r6, [r3, r4, lsl #2]
 1871 0048 BDE87040 		pop	{r4, r5, r6, lr}
 1872 004c FFF7FEBF 		b	applyNewConfiguration
 1873              	.L147:
 1874 0050 40F20000 		movw	r0, #:lower16:.LANCHOR0
 1875 0054 40F20001 		movw	r1, #:lower16:.LC6
 1876 0058 2A46     		mov	r2, r5
 1877 005a C0F20000 		movt	r0, #:upper16:.LANCHOR0
 1878 005e C0F20001 		movt	r1, #:upper16:.LC6
 1879 0062 BDE87040 		pop	{r4, r5, r6, lr}
 1880 0066 FFF7FEBF 		b	scheduleMsg
 1881              		.size	_ZL18setTriggerInputPinPKcS0_, .-_ZL18setTriggerInputPinPKcS0_
 1882 006a 00BFAFF3 		.section	.text._ZL14setIgnitionPinPKcS0_,"ax",%progbits
 1882      0080
 1883              		.align	2
 1884              		.p2align 4,,15
 1885              		.thumb
 1886              		.thumb_func
 1887              		.type	_ZL14setIgnitionPinPKcS0_, %function
 1888              	_ZL14setIgnitionPinPKcS0_:
 1889              		@ args = 0, pretend = 0, frame = 0
 1890              		@ frame_needed = 0, uses_anonymous_args = 0
 1891 0000 F8B5     		push	{r3, r4, r5, r6, r7, lr}
 1892 0002 0E46     		mov	r6, r1
ARM GAS  C:\Users\pc\AppData\Local\Temp\cchrhDob.s 			page 35


 1893 0004 FFF7FEFF 		bl	atoi
 1894 0008 451E     		subs	r5, r0, #1
 1895 000a 0B2D     		cmp	r5, #11
 1896 000c 0446     		mov	r4, r0
 1897 000e 00D9     		bls	.L151
 1898 0010 F8BD     		pop	{r3, r4, r5, r6, r7, pc}
 1899              	.L151:
 1900 0012 3046     		mov	r0, r6
 1901 0014 FFF7FEFF 		bl	_Z13parseBrainPinPKc
 1902 0018 5128     		cmp	r0, #81
 1903 001a 0746     		mov	r7, r0
 1904 001c 19D0     		beq	.L152
 1905 001e FFF7FEFF 		bl	_Z10hwPortname11brain_pin_e
 1906 0022 40F20001 		movw	r1, #:lower16:.LC93
 1907 0026 0346     		mov	r3, r0
 1908 0028 40F20000 		movw	r0, #:lower16:.LANCHOR0
 1909 002c 2A46     		mov	r2, r5
 1910 002e C0F20000 		movt	r0, #:upper16:.LANCHOR0
 1911 0032 C0F20001 		movt	r1, #:upper16:.LC93
 1912 0036 FFF7FEFF 		bl	scheduleMsg
 1913 003a 40F20003 		movw	r3, #:lower16:boardConfiguration
 1914 003e C0F20003 		movt	r3, #:upper16:boardConfiguration
 1915 0042 1B68     		ldr	r3, [r3]
 1916 0044 03EB8404 		add	r4, r3, r4, lsl #2
 1917 0048 2765     		str	r7, [r4, #80]
 1918 004a BDE8F840 		pop	{r3, r4, r5, r6, r7, lr}
 1919 004e FFF7FEBF 		b	applyNewConfiguration
 1920              	.L152:
 1921 0052 40F20000 		movw	r0, #:lower16:.LANCHOR0
 1922 0056 40F20001 		movw	r1, #:lower16:.LC6
 1923 005a 3246     		mov	r2, r6
 1924 005c C0F20000 		movt	r0, #:upper16:.LANCHOR0
 1925 0060 C0F20001 		movt	r1, #:upper16:.LC6
 1926 0064 BDE8F840 		pop	{r3, r4, r5, r6, r7, lr}
 1927 0068 FFF7FEBF 		b	scheduleMsg
 1928              		.size	_ZL14setIgnitionPinPKcS0_, .-_ZL14setIgnitionPinPKcS0_
 1929 006c AFF30080 		.section	.text._ZL15setInjectionPinPKcS0_,"ax",%progbits
 1930              		.align	2
 1931              		.p2align 4,,15
 1932              		.thumb
 1933              		.thumb_func
 1934              		.type	_ZL15setInjectionPinPKcS0_, %function
 1935              	_ZL15setInjectionPinPKcS0_:
 1936              		@ args = 0, pretend = 0, frame = 0
 1937              		@ frame_needed = 0, uses_anonymous_args = 0
 1938 0000 F8B5     		push	{r3, r4, r5, r6, r7, lr}
 1939 0002 0E46     		mov	r6, r1
 1940 0004 FFF7FEFF 		bl	atoi
 1941 0008 451E     		subs	r5, r0, #1
 1942 000a 0B2D     		cmp	r5, #11
 1943 000c 0446     		mov	r4, r0
 1944 000e 00D9     		bls	.L156
 1945 0010 F8BD     		pop	{r3, r4, r5, r6, r7, pc}
 1946              	.L156:
 1947 0012 3046     		mov	r0, r6
 1948 0014 FFF7FEFF 		bl	_Z13parseBrainPinPKc
 1949 0018 5128     		cmp	r0, #81
ARM GAS  C:\Users\pc\AppData\Local\Temp\cchrhDob.s 			page 36


 1950 001a 0746     		mov	r7, r0
 1951 001c 19D0     		beq	.L157
 1952 001e FFF7FEFF 		bl	_Z10hwPortname11brain_pin_e
 1953 0022 40F20001 		movw	r1, #:lower16:.LC94
 1954 0026 0346     		mov	r3, r0
 1955 0028 40F20000 		movw	r0, #:lower16:.LANCHOR0
 1956 002c 2A46     		mov	r2, r5
 1957 002e C0F20000 		movt	r0, #:upper16:.LANCHOR0
 1958 0032 C0F20001 		movt	r1, #:upper16:.LC94
 1959 0036 FFF7FEFF 		bl	scheduleMsg
 1960 003a 40F20003 		movw	r3, #:lower16:boardConfiguration
 1961 003e C0F20003 		movt	r3, #:upper16:boardConfiguration
 1962 0042 0734     		adds	r4, r4, #7
 1963 0044 1B68     		ldr	r3, [r3]
 1964 0046 43F82470 		str	r7, [r3, r4, lsl #2]
 1965 004a BDE8F840 		pop	{r3, r4, r5, r6, r7, lr}
 1966 004e FFF7FEBF 		b	applyNewConfiguration
 1967              	.L157:
 1968 0052 40F20000 		movw	r0, #:lower16:.LANCHOR0
 1969 0056 40F20001 		movw	r1, #:lower16:.LC6
 1970 005a 3246     		mov	r2, r6
 1971 005c C0F20000 		movt	r0, #:upper16:.LANCHOR0
 1972 0060 C0F20001 		movt	r1, #:upper16:.LC6
 1973 0064 BDE8F840 		pop	{r3, r4, r5, r6, r7, lr}
 1974 0068 FFF7FEBF 		b	scheduleMsg
 1975              		.size	_ZL15setInjectionPinPKcS0_, .-_ZL15setInjectionPinPKcS0_
 1976 006c AFF30080 		.section	.text._ZL8getValuePKc,"ax",%progbits
 1977              		.align	2
 1978              		.p2align 4,,15
 1979              		.thumb
 1980              		.thumb_func
 1981              		.type	_ZL8getValuePKc, %function
 1982              	_ZL8getValuePKc:
 1983              		@ args = 0, pretend = 0, frame = 0
 1984              		@ frame_needed = 0, uses_anonymous_args = 0
 1985 0000 40F20001 		movw	r1, #:lower16:.LC95
 1986 0004 10B5     		push	{r4, lr}
 1987 0006 C0F20001 		movt	r1, #:upper16:.LC95
 1988 000a 0446     		mov	r4, r0
 1989 000c FFF7FEFF 		bl	strEqualCaseInsensitive
 1990 0010 60B9     		cbnz	r0, .L161
 1991 0012 40F20001 		movw	r1, #:lower16:.LC57
 1992 0016 2046     		mov	r0, r4
 1993 0018 C0F20001 		movt	r1, #:upper16:.LC57
 1994 001c FFF7FEFF 		bl	strEqualCaseInsensitive
 1995 0020 00B9     		cbnz	r0, .L162
 1996 0022 10BD     		pop	{r4, pc}
 1997              	.L162:
 1998 0024 BDE81040 		pop	{r4, lr}
 1999 0028 FFF7FEBF 		b	_Z13printDateTimev
 2000              	.L161:
 2001 002c 40F20000 		movw	r0, #:lower16:.LANCHOR0
 2002 0030 40F20001 		movw	r1, #:lower16:.LC96
 2003 0034 C0F20000 		movt	r0, #:upper16:.LANCHOR0
 2004 0038 C0F20001 		movt	r1, #:upper16:.LC96
 2005 003c BDE81040 		pop	{r4, lr}
 2006 0040 FFF7FEBF 		b	scheduleMsg
ARM GAS  C:\Users\pc\AppData\Local\Temp\cchrhDob.s 			page 37


 2007              		.size	_ZL8getValuePKc, .-_ZL8getValuePKc
 2008 0044 AFF30080 		.section	.text._ZL11setEgtCSPinPKcS0_P21board_configuration_s,"ax",%progbits
 2008      AFF30080 
 2008      AFF30080 
 2009              		.align	2
 2010              		.p2align 4,,15
 2011              		.thumb
 2012              		.thumb_func
 2013              		.type	_ZL11setEgtCSPinPKcS0_P21board_configuration_s, %function
 2014              	_ZL11setEgtCSPinPKcS0_P21board_configuration_s:
 2015              		@ args = 0, pretend = 0, frame = 0
 2016              		@ frame_needed = 0, uses_anonymous_args = 0
 2017 0000 70B5     		push	{r4, r5, r6, lr}
 2018 0002 0D46     		mov	r5, r1
 2019 0004 FFF7FEFF 		bl	atoi
 2020 0008 0728     		cmp	r0, #7
 2021 000a 0446     		mov	r4, r0
 2022 000c 00D9     		bls	.L171
 2023 000e 70BD     		pop	{r4, r5, r6, pc}
 2024              	.L171:
 2025 0010 FFF7FEFF 		bl	absI
 2026 0014 4EF23043 		movw	r3, #58416
 2027 0018 C1F28C23 		movt	r3, 4748
 2028 001c 9842     		cmp	r0, r3
 2029 001e 2CD0     		beq	.L172
 2030 0020 2846     		mov	r0, r5
 2031 0022 FFF7FEFF 		bl	_Z13parseBrainPinPKc
 2032 0026 5128     		cmp	r0, #81
 2033 0028 0646     		mov	r6, r0
 2034 002a 19D0     		beq	.L173
 2035 002c FFF7FEFF 		bl	_Z10hwPortname11brain_pin_e
 2036 0030 40F20001 		movw	r1, #:lower16:.LC97
 2037 0034 0346     		mov	r3, r0
 2038 0036 40F20000 		movw	r0, #:lower16:.LANCHOR0
 2039 003a 2246     		mov	r2, r4
 2040 003c C0F20000 		movt	r0, #:upper16:.LANCHOR0
 2041 0040 C0F20001 		movt	r1, #:upper16:.LC97
 2042 0044 FFF7FEFF 		bl	scheduleMsg
 2043 0048 40F20003 		movw	r3, #:lower16:boardConfiguration
 2044 004c C0F20003 		movt	r3, #:upper16:boardConfiguration
 2045 0050 6834     		adds	r4, r4, #104
 2046 0052 1B68     		ldr	r3, [r3]
 2047 0054 43F82460 		str	r6, [r3, r4, lsl #2]
 2048 0058 BDE87040 		pop	{r4, r5, r6, lr}
 2049 005c FFF7FEBF 		b	applyNewConfiguration
 2050              	.L173:
 2051 0060 40F20000 		movw	r0, #:lower16:.LANCHOR0
 2052 0064 40F20001 		movw	r1, #:lower16:.LC6
 2053 0068 2A46     		mov	r2, r5
 2054 006a C0F20000 		movt	r0, #:upper16:.LANCHOR0
 2055 006e C0F20001 		movt	r1, #:upper16:.LC6
 2056 0072 BDE87040 		pop	{r4, r5, r6, lr}
 2057 0076 FFF7FEBF 		b	scheduleMsg
 2058              	.L172:
 2059 007a 70BD     		pop	{r4, r5, r6, pc}
 2060              		.size	_ZL11setEgtCSPinPKcS0_P21board_configuration_s, .-_ZL11setEgtCSPinPKcS0_P21board_configurati
 2061 007c AFF30080 		.section	.text._ZL22setTriggerSimulatorPinPKcS0_,"ax",%progbits
ARM GAS  C:\Users\pc\AppData\Local\Temp\cchrhDob.s 			page 38


 2062              		.align	2
 2063              		.p2align 4,,15
 2064              		.thumb
 2065              		.thumb_func
 2066              		.type	_ZL22setTriggerSimulatorPinPKcS0_, %function
 2067              	_ZL22setTriggerSimulatorPinPKcS0_:
 2068              		@ args = 0, pretend = 0, frame = 0
 2069              		@ frame_needed = 0, uses_anonymous_args = 0
 2070 0000 70B5     		push	{r4, r5, r6, lr}
 2071 0002 0D46     		mov	r5, r1
 2072 0004 FFF7FEFF 		bl	atoi
 2073 0008 0228     		cmp	r0, #2
 2074 000a 0446     		mov	r4, r0
 2075 000c 00D9     		bls	.L182
 2076 000e 70BD     		pop	{r4, r5, r6, pc}
 2077              	.L182:
 2078 0010 FFF7FEFF 		bl	absI
 2079 0014 4EF23043 		movw	r3, #58416
 2080 0018 C1F28C23 		movt	r3, 4748
 2081 001c 9842     		cmp	r0, r3
 2082 001e 2CD0     		beq	.L183
 2083 0020 2846     		mov	r0, r5
 2084 0022 FFF7FEFF 		bl	_Z13parseBrainPinPKc
 2085 0026 5128     		cmp	r0, #81
 2086 0028 0646     		mov	r6, r0
 2087 002a 19D0     		beq	.L184
 2088 002c FFF7FEFF 		bl	_Z10hwPortname11brain_pin_e
 2089 0030 40F20001 		movw	r1, #:lower16:.LC98
 2090 0034 0346     		mov	r3, r0
 2091 0036 40F20000 		movw	r0, #:lower16:.LANCHOR0
 2092 003a 2246     		mov	r2, r4
 2093 003c C0F20000 		movt	r0, #:upper16:.LANCHOR0
 2094 0040 C0F20001 		movt	r1, #:upper16:.LC98
 2095 0044 FFF7FEFF 		bl	scheduleMsg
 2096 0048 40F20003 		movw	r3, #:lower16:boardConfiguration
 2097 004c C0F20003 		movt	r3, #:upper16:boardConfiguration
 2098 0050 5834     		adds	r4, r4, #88
 2099 0052 1B68     		ldr	r3, [r3]
 2100 0054 43F82460 		str	r6, [r3, r4, lsl #2]
 2101 0058 BDE87040 		pop	{r4, r5, r6, lr}
 2102 005c FFF7FEBF 		b	applyNewConfiguration
 2103              	.L184:
 2104 0060 40F20000 		movw	r0, #:lower16:.LANCHOR0
 2105 0064 40F20001 		movw	r1, #:lower16:.LC6
 2106 0068 2A46     		mov	r2, r5
 2107 006a C0F20000 		movt	r0, #:upper16:.LANCHOR0
 2108 006e C0F20001 		movt	r1, #:upper16:.LC6
 2109 0072 BDE87040 		pop	{r4, r5, r6, lr}
 2110 0076 FFF7FEBF 		b	scheduleMsg
 2111              	.L183:
 2112 007a 70BD     		pop	{r4, r5, r6, pc}
 2113              		.size	_ZL22setTriggerSimulatorPinPKcS0_, .-_ZL22setTriggerSimulatorPinPKcS0_
 2114 007c AFF30080 		.section	.text._ZL15showPinFunctionPKc,"ax",%progbits
 2115              		.align	2
 2116              		.p2align 4,,15
 2117              		.thumb
 2118              		.thumb_func
ARM GAS  C:\Users\pc\AppData\Local\Temp\cchrhDob.s 			page 39


 2119              		.type	_ZL15showPinFunctionPKc, %function
 2120              	_ZL15showPinFunctionPKc:
 2121              		@ args = 0, pretend = 0, frame = 0
 2122              		@ frame_needed = 0, uses_anonymous_args = 0
 2123 0000 10B5     		push	{r4, lr}
 2124 0002 0446     		mov	r4, r0
 2125 0004 FFF7FEFF 		bl	_Z13parseBrainPinPKc
 2126 0008 5128     		cmp	r0, #81
 2127 000a 0FD0     		beq	.L187
 2128 000c FFF7FEFF 		bl	_Z14getPinFunction11brain_pin_e
 2129 0010 40F20001 		movw	r1, #:lower16:.LC99
 2130 0014 0346     		mov	r3, r0
 2131 0016 40F20000 		movw	r0, #:lower16:.LANCHOR0
 2132 001a 2246     		mov	r2, r4
 2133 001c C0F20000 		movt	r0, #:upper16:.LANCHOR0
 2134 0020 C0F20001 		movt	r1, #:upper16:.LC99
 2135 0024 BDE81040 		pop	{r4, lr}
 2136 0028 FFF7FEBF 		b	scheduleMsg
 2137              	.L187:
 2138 002c 40F20000 		movw	r0, #:lower16:.LANCHOR0
 2139 0030 40F20001 		movw	r1, #:lower16:.LC6
 2140 0034 2246     		mov	r2, r4
 2141 0036 C0F20000 		movt	r0, #:upper16:.LANCHOR0
 2142 003a C0F20001 		movt	r1, #:upper16:.LC6
 2143 003e BDE81040 		pop	{r4, lr}
 2144 0042 FFF7FEBF 		b	scheduleMsg
 2145              		.size	_ZL15showPinFunctionPKc, .-_ZL15showPinFunctionPKc
 2146 0046 00BFAFF3 		.section	.text._Z15printFloatArrayPKcPfi,"ax",%progbits
 2146      0080AFF3 
 2146      0080
 2147              		.align	2
 2148              		.p2align 4,,15
 2149              		.global	_Z15printFloatArrayPKcPfi
 2150              		.thumb
 2151              		.thumb_func
 2152              		.type	_Z15printFloatArrayPKcPfi, %function
 2153              	_Z15printFloatArrayPKcPfi:
 2154              		@ args = 0, pretend = 0, frame = 0
 2155              		@ frame_needed = 0, uses_anonymous_args = 0
 2156 0000 70B5     		push	{r4, r5, r6, lr}
 2157 0002 0446     		mov	r4, r0
 2158 0004 40F20000 		movw	r0, #:lower16:.LANCHOR0
 2159 0008 C0F20000 		movt	r0, #:upper16:.LANCHOR0
 2160 000c 1646     		mov	r6, r2
 2161 000e 0D46     		mov	r5, r1
 2162 0010 FFF7FEFF 		bl	appendMsgPrefix
 2163 0014 40F20000 		movw	r0, #:lower16:.LANCHOR0
 2164 0018 2146     		mov	r1, r4
 2165 001a C0F20000 		movt	r0, #:upper16:.LANCHOR0
 2166 001e FFF7FEFF 		bl	appendPrintf
 2167 0022 002E     		cmp	r6, #0
 2168 0024 C8BF     		it	gt
 2169 0026 0024     		movgt	r4, #0
 2170 0028 12DD     		ble	.L190
 2171              	.L191:
 2172 002a 55F8040B 		ldr	r0, [r5], #4	@ float
 2173 002e FFF7FEFF 		bl	__aeabi_f2d
ARM GAS  C:\Users\pc\AppData\Local\Temp\cchrhDob.s 			page 40


 2174 0032 0246     		mov	r2, r0
 2175 0034 0B46     		mov	r3, r1
 2176 0036 40F20000 		movw	r0, #:lower16:.LANCHOR0
 2177 003a 40F20001 		movw	r1, #:lower16:.LC100
 2178 003e 0134     		adds	r4, r4, #1
 2179 0040 C0F20000 		movt	r0, #:upper16:.LANCHOR0
 2180 0044 C0F20001 		movt	r1, #:upper16:.LC100
 2181 0048 FFF7FEFF 		bl	appendPrintf
 2182 004c B442     		cmp	r4, r6
 2183 004e ECD1     		bne	.L191
 2184              	.L190:
 2185 0050 40F20000 		movw	r0, #:lower16:.LANCHOR0
 2186 0054 C0F20000 		movt	r0, #:upper16:.LANCHOR0
 2187 0058 FFF7FEFF 		bl	appendMsgPostfix
 2188 005c 40F20000 		movw	r0, #:lower16:.LANCHOR0
 2189 0060 C0F20000 		movt	r0, #:upper16:.LANCHOR0
 2190 0064 BDE87040 		pop	{r4, r5, r6, lr}
 2191 0068 FFF7FEBF 		b	scheduleLogging
 2192              		.size	_Z15printFloatArrayPKcPfi, .-_Z15printFloatArrayPKcPfi
 2193 006c AFF30080 		.section	.text._Z13printSpiStateP7LoggingP21board_configuration_s,"ax",%progbits
 2194              		.align	2
 2195              		.p2align 4,,15
 2196              		.global	_Z13printSpiStateP7LoggingP21board_configuration_s
 2197              		.thumb
 2198              		.thumb_func
 2199              		.type	_Z13printSpiStateP7LoggingP21board_configuration_s, %function
 2200              	_Z13printSpiStateP7LoggingP21board_configuration_s:
 2201              		@ args = 0, pretend = 0, frame = 0
 2202              		@ frame_needed = 0, uses_anonymous_args = 0
 2203 0000 F0B5     		push	{r4, r5, r6, r7, lr}
 2204 0002 0646     		mov	r6, r0
 2205 0004 91F88001 		ldrb	r0, [r1, #384]	@ zero_extendqisi2
 2206 0008 83B0     		sub	sp, sp, #12
 2207 000a 00F00100 		and	r0, r0, #1
 2208 000e 0C46     		mov	r4, r1
 2209 0010 FFF7FEFF 		bl	_Z12boolToStringb
 2210 0014 0746     		mov	r7, r0
 2211 0016 94F88001 		ldrb	r0, [r4, #384]	@ zero_extendqisi2
 2212 001a C0F34000 		ubfx	r0, r0, #1, #1
 2213 001e FFF7FEFF 		bl	_Z12boolToStringb
 2214 0022 0546     		mov	r5, r0
 2215 0024 94F88001 		ldrb	r0, [r4, #384]	@ zero_extendqisi2
 2216 0028 C0F38000 		ubfx	r0, r0, #2, #1
 2217 002c FFF7FEFF 		bl	_Z12boolToStringb
 2218 0030 40F20001 		movw	r1, #:lower16:.LC101
 2219 0034 0090     		str	r0, [sp]
 2220 0036 3A46     		mov	r2, r7
 2221 0038 3046     		mov	r0, r6
 2222 003a 2B46     		mov	r3, r5
 2223 003c C0F20001 		movt	r1, #:upper16:.LC101
 2224 0040 FFF7FEFF 		bl	scheduleMsg
 2225 0044 03B0     		add	sp, sp, #12
 2226              		@ sp needed
 2227 0046 F0BD     		pop	{r4, r5, r6, r7, pc}
 2228              		.size	_Z13printSpiStateP7LoggingP21board_configuration_s, .-_Z13printSpiStateP7LoggingP21board_con
 2229 0048 AFF30080 		.section	.text._ZL10setSpiModeib,"ax",%progbits
 2229      AFF30080 
ARM GAS  C:\Users\pc\AppData\Local\Temp\cchrhDob.s 			page 41


 2230              		.align	2
 2231              		.p2align 4,,15
 2232              		.thumb
 2233              		.thumb_func
 2234              		.type	_ZL10setSpiModeib, %function
 2235              	_ZL10setSpiModeib:
 2236              		@ args = 0, pretend = 0, frame = 0
 2237              		@ frame_needed = 0, uses_anonymous_args = 0
 2238              		@ link register save eliminated.
 2239 0000 0228     		cmp	r0, #2
 2240 0002 0246     		mov	r2, r0
 2241 0004 31D0     		beq	.L195
 2242 0006 0328     		cmp	r0, #3
 2243 0008 1DD0     		beq	.L196
 2244 000a 0128     		cmp	r0, #1
 2245 000c 09D0     		beq	.L200
 2246 000e 40F20000 		movw	r0, #:lower16:.LANCHOR0
 2247 0012 40F20001 		movw	r1, #:lower16:.LC102
 2248 0016 C0F20000 		movt	r0, #:upper16:.LANCHOR0
 2249 001a C0F20001 		movt	r1, #:upper16:.LC102
 2250 001e FFF7FEBF 		b	scheduleMsg
 2251              	.L200:
 2252 0022 40F20003 		movw	r3, #:lower16:boardConfiguration
 2253 0026 C0F20003 		movt	r3, #:upper16:boardConfiguration
 2254 002a 40F20000 		movw	r0, #:lower16:.LANCHOR0
 2255 002e 1B68     		ldr	r3, [r3]
 2256 0030 93F88021 		ldrb	r2, [r3, #384]	@ zero_extendqisi2
 2257 0034 61F30002 		bfi	r2, r1, #0, #1
 2258 0038 83F88021 		strb	r2, [r3, #384]
 2259 003c 1946     		mov	r1, r3
 2260 003e C0F20000 		movt	r0, #:upper16:.LANCHOR0
 2261 0042 FFF7FEBF 		b	_Z13printSpiStateP7LoggingP21board_configuration_s
 2262              	.L196:
 2263 0046 40F20003 		movw	r3, #:lower16:boardConfiguration
 2264 004a C0F20003 		movt	r3, #:upper16:boardConfiguration
 2265 004e 40F20000 		movw	r0, #:lower16:.LANCHOR0
 2266 0052 1B68     		ldr	r3, [r3]
 2267 0054 93F88021 		ldrb	r2, [r3, #384]	@ zero_extendqisi2
 2268 0058 61F38202 		bfi	r2, r1, #2, #1
 2269 005c 83F88021 		strb	r2, [r3, #384]
 2270 0060 1946     		mov	r1, r3
 2271 0062 C0F20000 		movt	r0, #:upper16:.LANCHOR0
 2272 0066 FFF7FEBF 		b	_Z13printSpiStateP7LoggingP21board_configuration_s
 2273              	.L195:
 2274 006a 40F20003 		movw	r3, #:lower16:boardConfiguration
 2275 006e C0F20003 		movt	r3, #:upper16:boardConfiguration
 2276 0072 40F20000 		movw	r0, #:lower16:.LANCHOR0
 2277 0076 1B68     		ldr	r3, [r3]
 2278 0078 93F88021 		ldrb	r2, [r3, #384]	@ zero_extendqisi2
 2279 007c 61F34102 		bfi	r2, r1, #1, #1
 2280 0080 83F88021 		strb	r2, [r3, #384]
 2281 0084 1946     		mov	r1, r3
 2282 0086 C0F20000 		movt	r0, #:upper16:.LANCHOR0
 2283 008a FFF7FEBF 		b	_Z13printSpiStateP7LoggingP21board_configuration_s
 2284              		.size	_ZL10setSpiModeib, .-_ZL10setSpiModeib
 2285 008e 00BF     		.section	.text._ZL10disableSpii,"ax",%progbits
 2286              		.align	2
ARM GAS  C:\Users\pc\AppData\Local\Temp\cchrhDob.s 			page 42


 2287              		.p2align 4,,15
 2288              		.thumb
 2289              		.thumb_func
 2290              		.type	_ZL10disableSpii, %function
 2291              	_ZL10disableSpii:
 2292              		@ args = 0, pretend = 0, frame = 0
 2293              		@ frame_needed = 0, uses_anonymous_args = 0
 2294              		@ link register save eliminated.
 2295 0000 0021     		movs	r1, #0
 2296 0002 FFF7FEBF 		b	_ZL10setSpiModeib
 2297              		.size	_ZL10disableSpii, .-_ZL10disableSpii
 2298 0006 00BFAFF3 		.section	.text._ZL9enableSpii,"ax",%progbits
 2298      0080AFF3 
 2298      0080
 2299              		.align	2
 2300              		.p2align 4,,15
 2301              		.thumb
 2302              		.thumb_func
 2303              		.type	_ZL9enableSpii, %function
 2304              	_ZL9enableSpii:
 2305              		@ args = 0, pretend = 0, frame = 0
 2306              		@ frame_needed = 0, uses_anonymous_args = 0
 2307              		@ link register save eliminated.
 2308 0000 0121     		movs	r1, #1
 2309 0002 FFF7FEBF 		b	_ZL10setSpiModeib
 2310              		.size	_ZL9enableSpii, .-_ZL9enableSpii
 2311 0006 00BFAFF3 		.section	.text._Z20getConfigurationName13engine_type_e,"ax",%progbits
 2311      0080AFF3 
 2311      0080
 2312              		.align	2
 2313              		.p2align 4,,15
 2314              		.global	_Z20getConfigurationName13engine_type_e
 2315              		.thumb
 2316              		.thumb_func
 2317              		.type	_Z20getConfigurationName13engine_type_e, %function
 2318              	_Z20getConfigurationName13engine_type_e:
 2319              		@ args = 0, pretend = 0, frame = 0
 2320              		@ frame_needed = 0, uses_anonymous_args = 0
 2321 0000 08B5     		push	{r3, lr}
 2322 0002 0146     		mov	r1, r0
 2323 0004 2028     		cmp	r0, #32
 2324 0006 00F2A980 		bhi	.L204
 2325 000a DFE800F0 		tbb	[pc, r0]
 2326              	.L206:
 2327 000e 16       		.byte	(.L205-.L206)/2
 2328 000f A7       		.byte	(.L204-.L206)/2
 2329 0010 11       		.byte	(.L236-.L206)/2
 2330 0011 A2       		.byte	(.L208-.L206)/2
 2331 0012 9D       		.byte	(.L209-.L206)/2
 2332 0013 98       		.byte	(.L210-.L206)/2
 2333 0014 93       		.byte	(.L211-.L206)/2
 2334 0015 8E       		.byte	(.L212-.L206)/2
 2335 0016 89       		.byte	(.L213-.L206)/2
 2336 0017 84       		.byte	(.L214-.L206)/2
 2337 0018 7F       		.byte	(.L215-.L206)/2
 2338 0019 7A       		.byte	(.L216-.L206)/2
 2339 001a 75       		.byte	(.L217-.L206)/2
ARM GAS  C:\Users\pc\AppData\Local\Temp\cchrhDob.s 			page 43


 2340 001b 70       		.byte	(.L218-.L206)/2
 2341 001c 6B       		.byte	(.L219-.L206)/2
 2342 001d 66       		.byte	(.L220-.L206)/2
 2343 001e 61       		.byte	(.L221-.L206)/2
 2344 001f 5C       		.byte	(.L222-.L206)/2
 2345 0020 57       		.byte	(.L223-.L206)/2
 2346 0021 52       		.byte	(.L224-.L206)/2
 2347 0022 4D       		.byte	(.L225-.L206)/2
 2348 0023 48       		.byte	(.L226-.L206)/2
 2349 0024 A7       		.byte	(.L204-.L206)/2
 2350 0025 43       		.byte	(.L227-.L206)/2
 2351 0026 3E       		.byte	(.L228-.L206)/2
 2352 0027 39       		.byte	(.L229-.L206)/2
 2353 0028 34       		.byte	(.L230-.L206)/2
 2354 0029 A7       		.byte	(.L204-.L206)/2
 2355 002a 2F       		.byte	(.L231-.L206)/2
 2356 002b 2A       		.byte	(.L232-.L206)/2
 2357 002c 25       		.byte	(.L233-.L206)/2
 2358 002d 20       		.byte	(.L234-.L206)/2
 2359 002e 1B       		.byte	(.L235-.L206)/2
 2360 002f 00       		.align	1
 2361              	.L236:
 2362 0030 40F20000 		movw	r0, #:lower16:.LC104
 2363 0034 C0F20000 		movt	r0, #:upper16:.LC104
 2364 0038 08BD     		pop	{r3, pc}
 2365              	.L205:
 2366 003a 40F20000 		movw	r0, #:lower16:.LC103
 2367 003e C0F20000 		movt	r0, #:upper16:.LC103
 2368 0042 08BD     		pop	{r3, pc}
 2369              	.L235:
 2370 0044 40F20000 		movw	r0, #:lower16:.LC128
 2371 0048 C0F20000 		movt	r0, #:upper16:.LC128
 2372 004c 08BD     		pop	{r3, pc}
 2373              	.L234:
 2374 004e 40F20000 		movw	r0, #:lower16:.LC131
 2375 0052 C0F20000 		movt	r0, #:upper16:.LC131
 2376 0056 08BD     		pop	{r3, pc}
 2377              	.L233:
 2378 0058 40F20000 		movw	r0, #:lower16:.LC130
 2379 005c C0F20000 		movt	r0, #:upper16:.LC130
 2380 0060 08BD     		pop	{r3, pc}
 2381              	.L232:
 2382 0062 40F20000 		movw	r0, #:lower16:.LC129
 2383 0066 C0F20000 		movt	r0, #:upper16:.LC129
 2384 006a 08BD     		pop	{r3, pc}
 2385              	.L231:
 2386 006c 40F20000 		movw	r0, #:lower16:.LC132
 2387 0070 C0F20000 		movt	r0, #:upper16:.LC132
 2388 0074 08BD     		pop	{r3, pc}
 2389              	.L230:
 2390 0076 40F20000 		movw	r0, #:lower16:.LC127
 2391 007a C0F20000 		movt	r0, #:upper16:.LC127
 2392 007e 08BD     		pop	{r3, pc}
 2393              	.L229:
 2394 0080 40F20000 		movw	r0, #:lower16:.LC126
 2395 0084 C0F20000 		movt	r0, #:upper16:.LC126
 2396 0088 08BD     		pop	{r3, pc}
ARM GAS  C:\Users\pc\AppData\Local\Temp\cchrhDob.s 			page 44


 2397              	.L228:
 2398 008a 40F20000 		movw	r0, #:lower16:.LC124
 2399 008e C0F20000 		movt	r0, #:upper16:.LC124
 2400 0092 08BD     		pop	{r3, pc}
 2401              	.L227:
 2402 0094 40F20000 		movw	r0, #:lower16:.LC105
 2403 0098 C0F20000 		movt	r0, #:upper16:.LC105
 2404 009c 08BD     		pop	{r3, pc}
 2405              	.L226:
 2406 009e 40F20000 		movw	r0, #:lower16:.LC125
 2407 00a2 C0F20000 		movt	r0, #:upper16:.LC125
 2408 00a6 08BD     		pop	{r3, pc}
 2409              	.L225:
 2410 00a8 40F20000 		movw	r0, #:lower16:.LC123
 2411 00ac C0F20000 		movt	r0, #:upper16:.LC123
 2412 00b0 08BD     		pop	{r3, pc}
 2413              	.L224:
 2414 00b2 40F20000 		movw	r0, #:lower16:.LC122
 2415 00b6 C0F20000 		movt	r0, #:upper16:.LC122
 2416 00ba 08BD     		pop	{r3, pc}
 2417              	.L223:
 2418 00bc 40F20000 		movw	r0, #:lower16:.LC111
 2419 00c0 C0F20000 		movt	r0, #:upper16:.LC111
 2420 00c4 08BD     		pop	{r3, pc}
 2421              	.L222:
 2422 00c6 40F20000 		movw	r0, #:lower16:.LC110
 2423 00ca C0F20000 		movt	r0, #:upper16:.LC110
 2424 00ce 08BD     		pop	{r3, pc}
 2425              	.L221:
 2426 00d0 40F20000 		movw	r0, #:lower16:.LC121
 2427 00d4 C0F20000 		movt	r0, #:upper16:.LC121
 2428 00d8 08BD     		pop	{r3, pc}
 2429              	.L220:
 2430 00da 40F20000 		movw	r0, #:lower16:.LC119
 2431 00de C0F20000 		movt	r0, #:upper16:.LC119
 2432 00e2 08BD     		pop	{r3, pc}
 2433              	.L219:
 2434 00e4 40F20000 		movw	r0, #:lower16:.LC118
 2435 00e8 C0F20000 		movt	r0, #:upper16:.LC118
 2436 00ec 08BD     		pop	{r3, pc}
 2437              	.L218:
 2438 00ee 40F20000 		movw	r0, #:lower16:.LC117
 2439 00f2 C0F20000 		movt	r0, #:upper16:.LC117
 2440 00f6 08BD     		pop	{r3, pc}
 2441              	.L217:
 2442 00f8 40F20000 		movw	r0, #:lower16:.LC116
 2443 00fc C0F20000 		movt	r0, #:upper16:.LC116
 2444 0100 08BD     		pop	{r3, pc}
 2445              	.L216:
 2446 0102 40F20000 		movw	r0, #:lower16:.LC115
 2447 0106 C0F20000 		movt	r0, #:upper16:.LC115
 2448 010a 08BD     		pop	{r3, pc}
 2449              	.L215:
 2450 010c 40F20000 		movw	r0, #:lower16:.LC120
 2451 0110 C0F20000 		movt	r0, #:upper16:.LC120
 2452 0114 08BD     		pop	{r3, pc}
 2453              	.L214:
ARM GAS  C:\Users\pc\AppData\Local\Temp\cchrhDob.s 			page 45


 2454 0116 40F20000 		movw	r0, #:lower16:.LC114
 2455 011a C0F20000 		movt	r0, #:upper16:.LC114
 2456 011e 08BD     		pop	{r3, pc}
 2457              	.L213:
 2458 0120 40F20000 		movw	r0, #:lower16:.LC113
 2459 0124 C0F20000 		movt	r0, #:upper16:.LC113
 2460 0128 08BD     		pop	{r3, pc}
 2461              	.L212:
 2462 012a 40F20000 		movw	r0, #:lower16:.LC112
 2463 012e C0F20000 		movt	r0, #:upper16:.LC112
 2464 0132 08BD     		pop	{r3, pc}
 2465              	.L211:
 2466 0134 40F20000 		movw	r0, #:lower16:.LC109
 2467 0138 C0F20000 		movt	r0, #:upper16:.LC109
 2468 013c 08BD     		pop	{r3, pc}
 2469              	.L210:
 2470 013e 40F20000 		movw	r0, #:lower16:.LC108
 2471 0142 C0F20000 		movt	r0, #:upper16:.LC108
 2472 0146 08BD     		pop	{r3, pc}
 2473              	.L209:
 2474 0148 40F20000 		movw	r0, #:lower16:.LC107
 2475 014c C0F20000 		movt	r0, #:upper16:.LC107
 2476 0150 08BD     		pop	{r3, pc}
 2477              	.L208:
 2478 0152 40F20000 		movw	r0, #:lower16:.LC106
 2479 0156 C0F20000 		movt	r0, #:upper16:.LC106
 2480 015a 08BD     		pop	{r3, pc}
 2481              	.L204:
 2482 015c 40F20000 		movw	r0, #:lower16:.LC133
 2483 0160 C0F20000 		movt	r0, #:upper16:.LC133
 2484 0164 FFF7FEFF 		bl	firmwareError
 2485 0168 0020     		movs	r0, #0
 2486 016a 08BD     		pop	{r3, pc}
 2487              		.size	_Z20getConfigurationName13engine_type_e, .-_Z20getConfigurationName13engine_type_e
 2488 016c AFF30080 		.section	.text._Z18printConfigurationP22engine_configuration_s,"ax",%progbits
 2489              		.align	2
 2490              		.p2align 4,,15
 2491              		.global	_Z18printConfigurationP22engine_configuration_s
 2492              		.thumb
 2493              		.thumb_func
 2494              		.type	_Z18printConfigurationP22engine_configuration_s, %function
 2495              	_Z18printConfigurationP22engine_configuration_s:
 2496              		@ args = 0, pretend = 0, frame = 0
 2497              		@ frame_needed = 0, uses_anonymous_args = 0
 2498 0000 2DE9F04F 		push	{r4, r5, r6, r7, r8, r9, r10, fp, lr}
 2499 0004 0646     		mov	r6, r0
 2500 0006 87B0     		sub	sp, sp, #28
 2501 0008 0068     		ldr	r0, [r0]
 2502 000a FFF7FEFF 		bl	_Z20getConfigurationName13engine_type_e
 2503 000e 0546     		mov	r5, r0
 2504 0010 D6F81802 		ldr	r0, [r6, #536]
 2505 0014 3768     		ldr	r7, [r6]
 2506 0016 FFF7FEFF 		bl	_Z17getTrigger_type_e14trigger_type_e
 2507 001a 0446     		mov	r4, r0
 2508 001c D6F8A801 		ldr	r0, [r6, #424]
 2509 0020 FFF7FEFF 		bl	_Z21getEngine_load_mode_e18engine_load_mode_e
 2510 0024 D6F8A831 		ldr	r3, [r6, #424]
ARM GAS  C:\Users\pc\AppData\Local\Temp\cchrhDob.s 			page 46


 2511 0028 0190     		str	r0, [sp, #4]
 2512 002a 40F20001 		movw	r1, #:lower16:.LC134
 2513 002e 40F20000 		movw	r0, #:lower16:.LANCHOR0
 2514 0032 2A46     		mov	r2, r5
 2515 0034 C0F20001 		movt	r1, #:upper16:.LC134
 2516 0038 0293     		str	r3, [sp, #8]
 2517 003a C0F20000 		movt	r0, #:upper16:.LANCHOR0
 2518 003e 3B46     		mov	r3, r7
 2519 0040 0094     		str	r4, [sp]
 2520 0042 FFF7FEFF 		bl	scheduleMsg
 2521 0046 FFF7FEFF 		bl	_Z29getGlobalConfigurationVersionv
 2522 004a 40F20001 		movw	r1, #:lower16:.LC135
 2523 004e 0246     		mov	r2, r0
 2524 0050 40F20000 		movw	r0, #:lower16:.LANCHOR0
 2525 0054 C0F20000 		movt	r0, #:upper16:.LANCHOR0
 2526 0058 C0F20001 		movt	r1, #:upper16:.LC135
 2527 005c FFF7FEFF 		bl	scheduleMsg
 2528 0060 40F20000 		movw	r0, #:lower16:.LANCHOR0
 2529 0064 40F20001 		movw	r1, #:lower16:.LC136
 2530 0068 D6F8A421 		ldr	r2, [r6, #420]
 2531 006c D6F8F431 		ldr	r3, [r6, #500]
 2532 0070 C0F20000 		movt	r0, #:upper16:.LANCHOR0
 2533 0074 C0F20001 		movt	r1, #:upper16:.LC136
 2534 0078 FFF7FEFF 		bl	scheduleMsg
 2535 007c D6F8CC01 		ldr	r0, [r6, #460]	@ float
 2536 0080 FFF7FEFF 		bl	__aeabi_f2d
 2537 0084 0B46     		mov	r3, r1
 2538 0086 0246     		mov	r2, r0
 2539 0088 40F20001 		movw	r1, #:lower16:.LC137
 2540 008c 40F20000 		movw	r0, #:lower16:.LANCHOR0
 2541 0090 C0F20000 		movt	r0, #:upper16:.LANCHOR0
 2542 0094 C0F20001 		movt	r1, #:upper16:.LC137
 2543 0098 FFF7FEFF 		bl	scheduleMsg
 2544 009c 40F20000 		movw	r0, #:lower16:.LANCHOR0
 2545 00a0 40F20001 		movw	r1, #:lower16:.LC138
 2546 00a4 C0F20000 		movt	r0, #:upper16:.LANCHOR0
 2547 00a8 C0F20001 		movt	r1, #:upper16:.LC138
 2548 00ac FFF7FEFF 		bl	scheduleMsg
 2549 00b0 40F20000 		movw	r0, #:lower16:.LANCHOR0
 2550 00b4 40F20001 		movw	r1, #:lower16:.LC139
 2551 00b8 B6F96020 		ldrsh	r2, [r6, #96]
 2552 00bc C0F20001 		movt	r1, #:upper16:.LC139
 2553 00c0 C0F20000 		movt	r0, #:upper16:.LANCHOR0
 2554 00c4 FFF7FEFF 		bl	scheduleMsg
 2555 00c8 D6F8AC01 		ldr	r0, [r6, #428]
 2556 00cc FFF7FEFF 		bl	_Z19getInjection_mode_e16injection_mode_e
 2557 00d0 40F20001 		movw	r1, #:lower16:.LC140
 2558 00d4 0246     		mov	r2, r0
 2559 00d6 40F20000 		movw	r0, #:lower16:.LANCHOR0
 2560 00da C0F20000 		movt	r0, #:upper16:.LANCHOR0
 2561 00de C0F20001 		movt	r1, #:upper16:.LC140
 2562 00e2 FFF7FEFF 		bl	scheduleMsg
 2563 00e6 96F8D835 		ldrb	r3, [r6, #1496]	@ zero_extendqisi2
 2564 00ea DB06     		lsls	r3, r3, #27
 2565 00ec 40F13A82 		bpl	.L238
 2566 00f0 B06E     		ldr	r0, [r6, #104]	@ float
 2567 00f2 FFF7FEFF 		bl	__aeabi_f2d
ARM GAS  C:\Users\pc\AppData\Local\Temp\cchrhDob.s 			page 47


 2568 00f6 0246     		mov	r2, r0
 2569 00f8 0B46     		mov	r3, r1
 2570 00fa 40F20000 		movw	r0, #:lower16:.LANCHOR0
 2571 00fe 40F20001 		movw	r1, #:lower16:.LC141
 2572 0102 C0F20000 		movt	r0, #:upper16:.LANCHOR0
 2573 0106 C0F20001 		movt	r1, #:upper16:.LC141
 2574 010a FFF7FEFF 		bl	scheduleMsg
 2575              	.L239:
 2576 010e 40F20000 		movw	r0, #:lower16:.LANCHOR0
 2577 0112 40F20001 		movw	r1, #:lower16:.LC143
 2578 0116 C0F20001 		movt	r1, #:upper16:.LC143
 2579 011a C0F20000 		movt	r0, #:upper16:.LANCHOR0
 2580 011e FFF7FEFF 		bl	scheduleMsg
 2581 0122 D6F8BC01 		ldr	r0, [r6, #444]
 2582 0126 FFF7FEFF 		bl	_Z18getIgnition_mode_e15ignition_mode_e
 2583 012a 0446     		mov	r4, r0
 2584 012c 96F8E405 		ldrb	r0, [r6, #1508]	@ zero_extendqisi2
 2585 0130 C0F34000 		ubfx	r0, r0, #1, #1
 2586 0134 FFF7FEFF 		bl	_Z12boolToStringb
 2587 0138 40F20001 		movw	r1, #:lower16:.LC144
 2588 013c 0346     		mov	r3, r0
 2589 013e 40F20000 		movw	r0, #:lower16:.LANCHOR0
 2590 0142 2246     		mov	r2, r4
 2591 0144 C0F20001 		movt	r1, #:upper16:.LC144
 2592 0148 C0F20000 		movt	r0, #:upper16:.LANCHOR0
 2593 014c FFF7FEFF 		bl	scheduleMsg
 2594 0150 D6F8C401 		ldr	r0, [r6, #452]
 2595 0154 FFF7FEFF 		bl	_Z16getTiming_mode_e13timing_mode_e
 2596 0158 40F20001 		movw	r1, #:lower16:.LC145
 2597 015c 0246     		mov	r2, r0
 2598 015e 40F20000 		movw	r0, #:lower16:.LANCHOR0
 2599 0162 C0F20000 		movt	r0, #:upper16:.LANCHOR0
 2600 0166 C0F20001 		movt	r1, #:upper16:.LC145
 2601 016a FFF7FEFF 		bl	scheduleMsg
 2602 016e D6F8C431 		ldr	r3, [r6, #452]
 2603 0172 012B     		cmp	r3, #1
 2604 0174 00F00E82 		beq	.L249
 2605              	.L240:
 2606 0178 D6F8C001 		ldr	r0, [r6, #448]	@ float
 2607 017c FFF7FEFF 		bl	__aeabi_f2d
 2608 0180 0B46     		mov	r3, r1
 2609 0182 0246     		mov	r2, r0
 2610 0184 40F20001 		movw	r1, #:lower16:.LC147
 2611 0188 40F20000 		movw	r0, #:lower16:.LANCHOR0
 2612 018c C0F20000 		movt	r0, #:upper16:.LANCHOR0
 2613 0190 C0F20001 		movt	r1, #:upper16:.LC147
 2614 0194 FFF7FEFF 		bl	scheduleMsg
 2615 0198 40F20000 		movw	r0, #:lower16:.LANCHOR0
 2616 019c 40F20001 		movw	r1, #:lower16:.LC148
 2617 01a0 C0F20001 		movt	r1, #:upper16:.LC148
 2618 01a4 C0F20000 		movt	r0, #:upper16:.LANCHOR0
 2619 01a8 FFF7FEFF 		bl	scheduleMsg
 2620 01ac D6F8B001 		ldr	r0, [r6, #432]
 2621 01b0 FFF7FEFF 		bl	_Z19getInjection_mode_e16injection_mode_e
 2622 01b4 8046     		mov	r8, r0
 2623 01b6 D6F8B401 		ldr	r0, [r6, #436]	@ float
 2624 01ba FFF7FEFF 		bl	__aeabi_f2d
ARM GAS  C:\Users\pc\AppData\Local\Temp\cchrhDob.s 			page 48


 2625 01be 0446     		mov	r4, r0
 2626 01c0 96F8E405 		ldrb	r0, [r6, #1508]	@ zero_extendqisi2
 2627 01c4 00F00100 		and	r0, r0, #1
 2628 01c8 0D46     		mov	r5, r1
 2629 01ca FFF7FEFF 		bl	_Z12boolToStringb
 2630 01ce 40F20007 		movw	r7, #:lower16:boardConfiguration
 2631 01d2 0290     		str	r0, [sp, #8]
 2632 01d4 40F20001 		movw	r1, #:lower16:.LC149
 2633 01d8 40F20000 		movw	r0, #:lower16:.LANCHOR0
 2634 01dc C0F20007 		movt	r7, #:upper16:boardConfiguration
 2635 01e0 4246     		mov	r2, r8
 2636 01e2 C0F20001 		movt	r1, #:upper16:.LC149
 2637 01e6 CDE90045 		strd	r4, [sp]
 2638 01ea C0F20000 		movt	r0, #:upper16:.LANCHOR0
 2639 01ee FFF7FEFF 		bl	scheduleMsg
 2640 01f2 3B68     		ldr	r3, [r7]
 2641 01f4 186D     		ldr	r0, [r3, #80]
 2642 01f6 FFF7FEFF 		bl	_Z20getPin_output_mode_e17pin_output_mode_e
 2643 01fa 40F20001 		movw	r1, #:lower16:.LC150
 2644 01fe 0246     		mov	r2, r0
 2645 0200 40F20000 		movw	r0, #:lower16:.LANCHOR0
 2646 0204 C0F20000 		movt	r0, #:upper16:.LANCHOR0
 2647 0208 C0F20001 		movt	r1, #:upper16:.LC150
 2648 020c FFF7FEFF 		bl	scheduleMsg
 2649 0210 D6F89431 		ldr	r3, [r6, #404]
 2650 0214 002B     		cmp	r3, #0
 2651 0216 C8BF     		it	gt
 2652 0218 0024     		movgt	r4, #0
 2653 021a 17DD     		ble	.L244
 2654              	.L245:
 2655 021c 04F10802 		add	r2, r4, #8
 2656 0220 3B68     		ldr	r3, [r7]
 2657 0222 53F82200 		ldr	r0, [r3, r2, lsl #2]
 2658 0226 FFF7FEFF 		bl	_Z10hwPortname11brain_pin_e
 2659 022a 0134     		adds	r4, r4, #1
 2660 022c 0346     		mov	r3, r0
 2661 022e 40F20001 		movw	r1, #:lower16:.LC152
 2662 0232 40F20000 		movw	r0, #:lower16:.LANCHOR0
 2663 0236 2246     		mov	r2, r4
 2664 0238 C0F20000 		movt	r0, #:upper16:.LANCHOR0
 2665 023c C0F20001 		movt	r1, #:upper16:.LC152
 2666 0240 FFF7FEFF 		bl	scheduleMsg
 2667 0244 D6F89431 		ldr	r3, [r6, #404]
 2668 0248 9C42     		cmp	r4, r3
 2669 024a E7DB     		blt	.L245
 2670              	.L244:
 2671 024c 3B68     		ldr	r3, [r7]
 2672 024e D3F88400 		ldr	r0, [r3, #132]
 2673 0252 FFF7FEFF 		bl	_Z20getPin_output_mode_e17pin_output_mode_e
 2674 0256 40F20001 		movw	r1, #:lower16:.LC151
 2675 025a 0246     		mov	r2, r0
 2676 025c 40F20000 		movw	r0, #:lower16:.LANCHOR0
 2677 0260 C0F20000 		movt	r0, #:upper16:.LANCHOR0
 2678 0264 C0F20001 		movt	r1, #:upper16:.LC151
 2679 0268 FFF7FEFF 		bl	scheduleMsg
 2680 026c D6F89431 		ldr	r3, [r6, #404]
 2681 0270 002B     		cmp	r3, #0
ARM GAS  C:\Users\pc\AppData\Local\Temp\cchrhDob.s 			page 49


 2682 0272 C8BF     		it	gt
 2683 0274 0024     		movgt	r4, #0
 2684 0276 16DD     		ble	.L243
 2685              	.L247:
 2686 0278 3B68     		ldr	r3, [r7]
 2687 027a 03EB8403 		add	r3, r3, r4, lsl #2
 2688 027e 0134     		adds	r4, r4, #1
 2689 0280 586D     		ldr	r0, [r3, #84]
 2690 0282 FFF7FEFF 		bl	_Z10hwPortname11brain_pin_e
 2691 0286 40F20001 		movw	r1, #:lower16:.LC165
 2692 028a 0346     		mov	r3, r0
 2693 028c 40F20000 		movw	r0, #:lower16:.LANCHOR0
 2694 0290 2246     		mov	r2, r4
 2695 0292 C0F20000 		movt	r0, #:upper16:.LANCHOR0
 2696 0296 C0F20001 		movt	r1, #:upper16:.LC165
 2697 029a FFF7FEFF 		bl	scheduleMsg
 2698 029e D6F89431 		ldr	r3, [r6, #404]
 2699 02a2 9C42     		cmp	r4, r3
 2700 02a4 E8DB     		blt	.L247
 2701              	.L243:
 2702 02a6 3B68     		ldr	r3, [r7]
 2703 02a8 5868     		ldr	r0, [r3, #4]
 2704 02aa FFF7FEFF 		bl	_Z20getPin_output_mode_e17pin_output_mode_e
 2705 02ae 3B68     		ldr	r3, [r7]
 2706 02b0 0546     		mov	r5, r0
 2707 02b2 1868     		ldr	r0, [r3]
 2708 02b4 FFF7FEFF 		bl	_Z10hwPortname11brain_pin_e
 2709 02b8 3A68     		ldr	r2, [r7]
 2710 02ba 9468     		ldr	r4, [r2, #8]
 2711 02bc 0346     		mov	r3, r0
 2712 02be 40F20001 		movw	r1, #:lower16:.LC153
 2713 02c2 40F20000 		movw	r0, #:lower16:.LANCHOR0
 2714 02c6 2A46     		mov	r2, r5
 2715 02c8 C0F20001 		movt	r1, #:upper16:.LC153
 2716 02cc 0094     		str	r4, [sp]
 2717 02ce C0F20000 		movt	r0, #:upper16:.LANCHOR0
 2718 02d2 FFF7FEFF 		bl	scheduleMsg
 2719 02d6 3B68     		ldr	r3, [r7]
 2720 02d8 D3F88800 		ldr	r0, [r3, #136]
 2721 02dc FFF7FEFF 		bl	_Z10hwPortname11brain_pin_e
 2722 02e0 3B68     		ldr	r3, [r7]
 2723 02e2 0446     		mov	r4, r0
 2724 02e4 D3F88C00 		ldr	r0, [r3, #140]
 2725 02e8 FFF7FEFF 		bl	_Z20getPin_output_mode_e17pin_output_mode_e
 2726 02ec 40F20001 		movw	r1, #:lower16:.LC154
 2727 02f0 0346     		mov	r3, r0
 2728 02f2 40F20000 		movw	r0, #:lower16:.LANCHOR0
 2729 02f6 2246     		mov	r2, r4
 2730 02f8 C0F20001 		movt	r1, #:upper16:.LC154
 2731 02fc C0F20000 		movt	r0, #:upper16:.LANCHOR0
 2732 0300 FFF7FEFF 		bl	scheduleMsg
 2733 0304 3B68     		ldr	r3, [r7]
 2734 0306 D869     		ldr	r0, [r3, #28]
 2735 0308 FFF7FEFF 		bl	_Z20getPin_output_mode_e17pin_output_mode_e
 2736 030c 3B68     		ldr	r3, [r7]
 2737 030e 0446     		mov	r4, r0
 2738 0310 9869     		ldr	r0, [r3, #24]
ARM GAS  C:\Users\pc\AppData\Local\Temp\cchrhDob.s 			page 50


 2739 0312 FFF7FEFF 		bl	_Z10hwPortname11brain_pin_e
 2740 0316 40F20001 		movw	r1, #:lower16:.LC155
 2741 031a 0346     		mov	r3, r0
 2742 031c 40F20000 		movw	r0, #:lower16:.LANCHOR0
 2743 0320 2246     		mov	r2, r4
 2744 0322 C0F20001 		movt	r1, #:upper16:.LC155
 2745 0326 C0F20000 		movt	r0, #:upper16:.LANCHOR0
 2746 032a FFF7FEFF 		bl	scheduleMsg
 2747 032e 3B68     		ldr	r3, [r7]
 2748 0330 D3F89400 		ldr	r0, [r3, #148]
 2749 0334 FFF7FEFF 		bl	_Z20getPin_output_mode_e17pin_output_mode_e
 2750 0338 3B68     		ldr	r3, [r7]
 2751 033a 0446     		mov	r4, r0
 2752 033c D3F89000 		ldr	r0, [r3, #144]
 2753 0340 FFF7FEFF 		bl	_Z10hwPortname11brain_pin_e
 2754 0344 40F20001 		movw	r1, #:lower16:.LC156
 2755 0348 0346     		mov	r3, r0
 2756 034a 40F20000 		movw	r0, #:lower16:.LANCHOR0
 2757 034e 2246     		mov	r2, r4
 2758 0350 C0F20001 		movt	r1, #:upper16:.LC156
 2759 0354 C0F20000 		movt	r0, #:upper16:.LANCHOR0
 2760 0358 FFF7FEFF 		bl	scheduleMsg
 2761 035c 3B68     		ldr	r3, [r7]
 2762 035e D3F89C01 		ldr	r0, [r3, #412]
 2763 0362 FFF7FEFF 		bl	_Z20getPin_output_mode_e17pin_output_mode_e
 2764 0366 3B68     		ldr	r3, [r7]
 2765 0368 0446     		mov	r4, r0
 2766 036a D3F83401 		ldr	r0, [r3, #308]
 2767 036e FFF7FEFF 		bl	_Z10hwPortname11brain_pin_e
 2768 0372 40F20001 		movw	r1, #:lower16:.LC157
 2769 0376 0346     		mov	r3, r0
 2770 0378 40F20000 		movw	r0, #:lower16:.LANCHOR0
 2771 037c 2246     		mov	r2, r4
 2772 037e C0F20001 		movt	r1, #:upper16:.LC157
 2773 0382 C0F20000 		movt	r0, #:upper16:.LANCHOR0
 2774 0386 FFF7FEFF 		bl	scheduleMsg
 2775 038a 3B68     		ldr	r3, [r7]
 2776 038c D3F8AC00 		ldr	r0, [r3, #172]
 2777 0390 FFF7FEFF 		bl	_Z20getPin_output_mode_e17pin_output_mode_e
 2778 0394 3B68     		ldr	r3, [r7]
 2779 0396 0446     		mov	r4, r0
 2780 0398 D3F8A800 		ldr	r0, [r3, #168]
 2781 039c FFF7FEFF 		bl	_Z10hwPortname11brain_pin_e
 2782 03a0 40F20001 		movw	r1, #:lower16:.LC158
 2783 03a4 0346     		mov	r3, r0
 2784 03a6 40F20000 		movw	r0, #:lower16:.LANCHOR0
 2785 03aa 2246     		mov	r2, r4
 2786 03ac C0F20001 		movt	r1, #:upper16:.LC158
 2787 03b0 C0F20000 		movt	r0, #:upper16:.LANCHOR0
 2788 03b4 FFF7FEFF 		bl	scheduleMsg
 2789 03b8 96F8E405 		ldrb	r0, [r6, #1508]	@ zero_extendqisi2
 2790 03bc C0F34010 		ubfx	r0, r0, #5, #1
 2791 03c0 FFF7FEFF 		bl	_Z12boolToStringb
 2792 03c4 8346     		mov	fp, r0
 2793 03c6 96F8E405 		ldrb	r0, [r6, #1508]	@ zero_extendqisi2
 2794 03ca C0F38010 		ubfx	r0, r0, #6, #1
 2795 03ce FFF7FEFF 		bl	_Z12boolToStringb
ARM GAS  C:\Users\pc\AppData\Local\Temp\cchrhDob.s 			page 51


 2796 03d2 0446     		mov	r4, r0
 2797 03d4 96F8E405 		ldrb	r0, [r6, #1508]	@ zero_extendqisi2
 2798 03d8 C009     		lsrs	r0, r0, #7
 2799 03da FFF7FEFF 		bl	_Z12boolToStringb
 2800 03de 8246     		mov	r10, r0
 2801 03e0 96F8E505 		ldrb	r0, [r6, #1509]	@ zero_extendqisi2
 2802 03e4 00F00100 		and	r0, r0, #1
 2803 03e8 FFF7FEFF 		bl	_Z12boolToStringb
 2804 03ec 8146     		mov	r9, r0
 2805 03ee 96F8E505 		ldrb	r0, [r6, #1509]	@ zero_extendqisi2
 2806 03f2 C0F34000 		ubfx	r0, r0, #1, #1
 2807 03f6 FFF7FEFF 		bl	_Z12boolToStringb
 2808 03fa 8046     		mov	r8, r0
 2809 03fc 96F8E505 		ldrb	r0, [r6, #1509]	@ zero_extendqisi2
 2810 0400 C0F38000 		ubfx	r0, r0, #2, #1
 2811 0404 FFF7FEFF 		bl	_Z12boolToStringb
 2812 0408 3968     		ldr	r1, [r7]
 2813 040a 0546     		mov	r5, r0
 2814 040c 91F88001 		ldrb	r0, [r1, #384]	@ zero_extendqisi2
 2815 0410 C0F30010 		ubfx	r0, r0, #4, #1
 2816 0414 FFF7FEFF 		bl	_Z12boolToStringb
 2817 0418 40F20001 		movw	r1, #:lower16:.LC159
 2818 041c 0490     		str	r0, [sp, #16]
 2819 041e 40F20000 		movw	r0, #:lower16:.LANCHOR0
 2820 0422 2346     		mov	r3, r4
 2821 0424 5A46     		mov	r2, fp
 2822 0426 C0F20001 		movt	r1, #:upper16:.LC159
 2823 042a 0395     		str	r5, [sp, #12]
 2824 042c C0F20000 		movt	r0, #:upper16:.LANCHOR0
 2825 0430 CDF800A0 		str	r10, [sp]
 2826 0434 CDF80490 		str	r9, [sp, #4]
 2827 0438 CDF80880 		str	r8, [sp, #8]
 2828 043c FFF7FEFF 		bl	scheduleMsg
 2829 0440 96F8E505 		ldrb	r0, [r6, #1509]	@ zero_extendqisi2
 2830 0444 C0F30010 		ubfx	r0, r0, #4, #1
 2831 0448 FFF7FEFF 		bl	_Z12boolToStringb
 2832 044c 0446     		mov	r4, r0
 2833 044e 96F8E405 		ldrb	r0, [r6, #1508]	@ zero_extendqisi2
 2834 0452 C0F38000 		ubfx	r0, r0, #2, #1
 2835 0456 FFF7FEFF 		bl	_Z12boolToStringb
 2836 045a 40F20001 		movw	r1, #:lower16:.LC160
 2837 045e 0346     		mov	r3, r0
 2838 0460 40F20000 		movw	r0, #:lower16:.LANCHOR0
 2839 0464 2246     		mov	r2, r4
 2840 0466 C0F20001 		movt	r1, #:upper16:.LC160
 2841 046a C0F20000 		movt	r0, #:upper16:.LANCHOR0
 2842 046e FFF7FEFF 		bl	scheduleMsg
 2843 0472 3B68     		ldr	r3, [r7]
 2844 0474 40F20004 		movw	r4, #:lower16:engine
 2845 0478 C0F20004 		movt	r4, #:upper16:engine
 2846 047c D3F81C03 		ldr	r0, [r3, #796]
 2847 0480 FFF7FEFF 		bl	_Z10hwPortname11brain_pin_e
 2848 0484 2368     		ldr	r3, [r4]
 2849 0486 0546     		mov	r5, r0
 2850 0488 93F86402 		ldrb	r0, [r3, #612]	@ zero_extendqisi2
 2851 048c FFF7FEFF 		bl	_Z12boolToStringb
 2852 0490 40F20001 		movw	r1, #:lower16:.LC161
ARM GAS  C:\Users\pc\AppData\Local\Temp\cchrhDob.s 			page 52


 2853 0494 0346     		mov	r3, r0
 2854 0496 40F20000 		movw	r0, #:lower16:.LANCHOR0
 2855 049a 2A46     		mov	r2, r5
 2856 049c C0F20001 		movt	r1, #:upper16:.LC161
 2857 04a0 C0F20000 		movt	r0, #:upper16:.LANCHOR0
 2858 04a4 FFF7FEFF 		bl	scheduleMsg
 2859 04a8 3B68     		ldr	r3, [r7]
 2860 04aa D3F8A000 		ldr	r0, [r3, #160]
 2861 04ae FFF7FEFF 		bl	_Z10hwPortname11brain_pin_e
 2862 04b2 2368     		ldr	r3, [r4]
 2863 04b4 0546     		mov	r5, r0
 2864 04b6 93F86502 		ldrb	r0, [r3, #613]	@ zero_extendqisi2
 2865 04ba FFF7FEFF 		bl	_Z12boolToStringb
 2866 04be 40F20001 		movw	r1, #:lower16:.LC162
 2867 04c2 0346     		mov	r3, r0
 2868 04c4 40F20000 		movw	r0, #:lower16:.LANCHOR0
 2869 04c8 2A46     		mov	r2, r5
 2870 04ca C0F20001 		movt	r1, #:upper16:.LC162
 2871 04ce C0F20000 		movt	r0, #:upper16:.LANCHOR0
 2872 04d2 FFF7FEFF 		bl	scheduleMsg
 2873 04d6 3B68     		ldr	r3, [r7]
 2874 04d8 D3F85001 		ldr	r0, [r3, #336]
 2875 04dc FFF7FEFF 		bl	_Z10hwPortname11brain_pin_e
 2876 04e0 40F20003 		movw	r3, #:lower16:maxNesting
 2877 04e4 C0F20003 		movt	r3, #:upper16:maxNesting
 2878 04e8 0246     		mov	r2, r0
 2879 04ea 40F20001 		movw	r1, #:lower16:.LC163
 2880 04ee 40F20000 		movw	r0, #:lower16:.LANCHOR0
 2881 04f2 1B68     		ldr	r3, [r3]
 2882 04f4 C0F20000 		movt	r0, #:upper16:.LANCHOR0
 2883 04f8 C0F20001 		movt	r1, #:upper16:.LC163
 2884 04fc FFF7FEFF 		bl	scheduleMsg
 2885 0500 3B68     		ldr	r3, [r7]
 2886 0502 40F20000 		movw	r0, #:lower16:.LANCHOR0
 2887 0506 40F20001 		movw	r1, #:lower16:.LC164
 2888 050a D3F8D420 		ldr	r2, [r3, #212]
 2889 050e C0F20000 		movt	r0, #:upper16:.LANCHOR0
 2890 0512 C0F20001 		movt	r1, #:upper16:.LC164
 2891 0516 FFF7FEFF 		bl	scheduleMsg
 2892 051a 0024     		movs	r4, #0
 2893              	.L246:
 2894 051c 04F13602 		add	r2, r4, #54
 2895 0520 3B68     		ldr	r3, [r7]
 2896 0522 53F82200 		ldr	r0, [r3, r2, lsl #2]
 2897 0526 FFF7FEFF 		bl	_Z10hwPortname11brain_pin_e
 2898 052a 40F20001 		movw	r1, #:lower16:.LC166
 2899 052e 0346     		mov	r3, r0
 2900 0530 40F20000 		movw	r0, #:lower16:.LANCHOR0
 2901 0534 2246     		mov	r2, r4
 2902 0536 C0F20000 		movt	r0, #:upper16:.LANCHOR0
 2903 053a C0F20001 		movt	r1, #:upper16:.LC166
 2904 053e 0134     		adds	r4, r4, #1
 2905 0540 40F20005 		movw	r5, #:lower16:boardConfiguration
 2906 0544 FFF7FEFF 		bl	scheduleMsg
 2907 0548 042C     		cmp	r4, #4
 2908 054a C0F20005 		movt	r5, #:upper16:boardConfiguration
 2909 054e E5D1     		bne	.L246
ARM GAS  C:\Users\pc\AppData\Local\Temp\cchrhDob.s 			page 53


 2910 0550 40F20000 		movw	r0, #:lower16:.LANCHOR0
 2911 0554 2968     		ldr	r1, [r5]
 2912 0556 C0F20000 		movt	r0, #:upper16:.LANCHOR0
 2913 055a 07B0     		add	sp, sp, #28
 2914              		@ sp needed
 2915 055c BDE8F04F 		pop	{r4, r5, r6, r7, r8, r9, r10, fp, lr}
 2916 0560 FFF7FEBF 		b	_Z13printSpiStateP7LoggingP21board_configuration_s
 2917              	.L238:
 2918 0564 F06E     		ldr	r0, [r6, #108]	@ float
 2919 0566 FFF7FEFF 		bl	__aeabi_f2d
 2920 056a 0446     		mov	r4, r0
 2921 056c D6F8B801 		ldr	r0, [r6, #440]	@ float
 2922 0570 0D46     		mov	r5, r1
 2923 0572 FFF7FEFF 		bl	__aeabi_f2d
 2924 0576 CDE90001 		strd	r0, [sp]
 2925 057a 40F20000 		movw	r0, #:lower16:.LANCHOR0
 2926 057e 40F20001 		movw	r1, #:lower16:.LC142
 2927 0582 2246     		mov	r2, r4
 2928 0584 2B46     		mov	r3, r5
 2929 0586 C0F20000 		movt	r0, #:upper16:.LANCHOR0
 2930 058a C0F20001 		movt	r1, #:upper16:.LC142
 2931 058e FFF7FEFF 		bl	scheduleMsg
 2932 0592 BCE5     		b	.L239
 2933              	.L249:
 2934 0594 D6ED727A 		flds	s15, [r6, #456]
 2935 0598 FDEEE77A 		ftosizs	s15, s15
 2936 059c 40F20000 		movw	r0, #:lower16:.LANCHOR0
 2937 05a0 40F20001 		movw	r1, #:lower16:.LC146
 2938 05a4 17EE902A 		fmrs	r2, s15	@ int
 2939 05a8 C0F20000 		movt	r0, #:upper16:.LANCHOR0
 2940 05ac C0F20001 		movt	r1, #:upper16:.LC146
 2941 05b0 FFF7FEFF 		bl	scheduleMsg
 2942 05b4 E0E5     		b	.L240
 2943              		.size	_Z18printConfigurationP22engine_configuration_s, .-_Z18printConfigurationP22engine_configura
 2944 05b6 00BFAFF3 		.section	.text._ZL20doPrintConfigurationP6Engine,"ax",%progbits
 2944      0080AFF3 
 2944      0080
 2945              		.align	2
 2946              		.p2align 4,,15
 2947              		.thumb
 2948              		.thumb_func
 2949              		.type	_ZL20doPrintConfigurationP6Engine, %function
 2950              	_ZL20doPrintConfigurationP6Engine:
 2951              		@ args = 0, pretend = 0, frame = 0
 2952              		@ frame_needed = 0, uses_anonymous_args = 0
 2953              		@ link register save eliminated.
 2954 0000 40F20003 		movw	r3, #:lower16:engineConfiguration
 2955 0004 C0F20003 		movt	r3, #:upper16:engineConfiguration
 2956 0008 1868     		ldr	r0, [r3]
 2957 000a FFF7FEBF 		b	_Z18printConfigurationP22engine_configuration_s
 2958              		.size	_ZL20doPrintConfigurationP6Engine, .-_ZL20doPrintConfigurationP6Engine
 2959 000e 00BF     		.section	.text._Z13setEngineTypei,"ax",%progbits
 2960              		.align	2
 2961              		.p2align 4,,15
 2962              		.global	_Z13setEngineTypei
 2963              		.thumb
 2964              		.thumb_func
ARM GAS  C:\Users\pc\AppData\Local\Temp\cchrhDob.s 			page 54


 2965              		.type	_Z13setEngineTypei, %function
 2966              	_Z13setEngineTypei:
 2967              		@ args = 0, pretend = 0, frame = 0
 2968              		@ frame_needed = 0, uses_anonymous_args = 0
 2969 0000 10B5     		push	{r4, lr}
 2970 0002 40F20004 		movw	r4, #:lower16:engineConfiguration
 2971 0006 C0F20004 		movt	r4, #:upper16:engineConfiguration
 2972 000a 0146     		mov	r1, r0
 2973 000c 2368     		ldr	r3, [r4]
 2974 000e 40F20000 		movw	r0, #:lower16:.LANCHOR0
 2975 0012 1960     		str	r1, [r3]
 2976 0014 C0F20000 		movt	r0, #:upper16:.LANCHOR0
 2977 0018 FFF7FEFF 		bl	_Z21resetConfigurationExtP7Logging13engine_type_e
 2978 001c 40F20003 		movw	r3, #:lower16:engine
 2979 0020 C0F20003 		movt	r3, #:upper16:engine
 2980 0024 1B68     		ldr	r3, [r3]
 2981 0026 93F88032 		ldrb	r3, [r3, #640]	@ zero_extendqisi2
 2982 002a 2BB1     		cbz	r3, .L252
 2983 002c 40F20000 		movw	r0, #:lower16:waveChart
 2984 0030 C0F20000 		movt	r0, #:upper16:waveChart
 2985 0034 FFF7FEFF 		bl	_ZN9WaveChart14resetWaveChartEv
 2986              	.L252:
 2987 0038 FFF7FEFF 		bl	_Z15writeToFlashNowv
 2988 003c FFF7FEFF 		bl	_Z35incrementGlobalConfigurationVersionv
 2989 0040 2068     		ldr	r0, [r4]
 2990 0042 BDE81040 		pop	{r4, lr}
 2991 0046 FFF7FEBF 		b	_Z18printConfigurationP22engine_configuration_s
 2992              		.size	_Z13setEngineTypei, .-_Z13setEngineTypei
 2993 004a 00BFAFF3 		.section	.text._ZL14setTriggerTypei,"ax",%progbits
 2993      0080
 2994              		.align	2
 2995              		.p2align 4,,15
 2996              		.thumb
 2997              		.thumb_func
 2998              		.type	_ZL14setTriggerTypei, %function
 2999              	_ZL14setTriggerTypei:
 3000              		@ args = 0, pretend = 0, frame = 0
 3001              		@ frame_needed = 0, uses_anonymous_args = 0
 3002 0000 10B5     		push	{r4, lr}
 3003 0002 40F20004 		movw	r4, #:lower16:engineConfiguration
 3004 0006 C0F20004 		movt	r4, #:upper16:engineConfiguration
 3005 000a 2368     		ldr	r3, [r4]
 3006 000c C3F81802 		str	r0, [r3, #536]
 3007 0010 FFF7FEFF 		bl	_Z35incrementGlobalConfigurationVersionv
 3008 0014 2068     		ldr	r0, [r4]
 3009 0016 BDE81040 		pop	{r4, lr}
 3010 001a FFF7FEBF 		b	_Z18printConfigurationP22engine_configuration_s
 3011              		.size	_ZL14setTriggerTypei, .-_ZL14setTriggerTypei
 3012 001e 00BF     		.section	.text._ZL15setToothedWheelii,"ax",%progbits
 3013              		.align	2
 3014              		.p2align 4,,15
 3015              		.thumb
 3016              		.thumb_func
 3017              		.type	_ZL15setToothedWheelii, %function
 3018              	_ZL15setToothedWheelii:
 3019              		@ args = 0, pretend = 0, frame = 0
 3020              		@ frame_needed = 0, uses_anonymous_args = 0
ARM GAS  C:\Users\pc\AppData\Local\Temp\cchrhDob.s 			page 55


 3021 0000 F8B5     		push	{r3, r4, r5, r6, r7, lr}
 3022 0002 40F20004 		movw	r4, #:lower16:engineConfiguration
 3023 0006 40F20005 		movw	r5, #:lower16:engine
 3024 000a 0746     		mov	r7, r0
 3025 000c 0E46     		mov	r6, r1
 3026 000e C0F20004 		movt	r4, #:upper16:engineConfiguration
 3027 0012 C0F20005 		movt	r5, #:upper16:engine
 3028 0016 40F20000 		movw	r0, #:lower16:.LANCHOR0
 3029 001a 40F20001 		movw	r1, #:lower16:.LC167
 3030 001e 3A46     		mov	r2, r7
 3031 0020 3346     		mov	r3, r6
 3032 0022 C0F20000 		movt	r0, #:upper16:.LANCHOR0
 3033 0026 C0F20001 		movt	r1, #:upper16:.LC167
 3034 002a FFF7FEFF 		bl	scheduleMsg
 3035 002e 2868     		ldr	r0, [r5]
 3036 0030 2368     		ldr	r3, [r4]
 3037 0032 3946     		mov	r1, r7
 3038 0034 3246     		mov	r2, r6
 3039 0036 00F52170 		add	r0, r0, #644
 3040 003a D3F8F431 		ldr	r3, [r3, #500]
 3041 003e FFF7FEFF 		bl	_Z28setToothedWheelConfigurationP12TriggerShapeii16operation_mode_e
 3042 0042 FFF7FEFF 		bl	_Z35incrementGlobalConfigurationVersionv
 3043 0046 2068     		ldr	r0, [r4]
 3044 0048 BDE8F840 		pop	{r3, r4, r5, r6, r7, lr}
 3045 004c FFF7FEBF 		b	_Z18printConfigurationP22engine_configuration_s
 3046              		.size	_ZL15setToothedWheelii, .-_ZL15setToothedWheelii
 3047              		.section	.text._ZL15setAlgorithmInti,"ax",%progbits
 3048              		.align	2
 3049              		.p2align 4,,15
 3050              		.thumb
 3051              		.thumb_func
 3052              		.type	_ZL15setAlgorithmInti, %function
 3053              	_ZL15setAlgorithmInti:
 3054              		@ args = 0, pretend = 0, frame = 0
 3055              		@ frame_needed = 0, uses_anonymous_args = 0
 3056 0000 08B5     		push	{r3, lr}
 3057 0002 FFF7FEFF 		bl	_Z12setAlgorithm18engine_load_mode_e
 3058 0006 40F20003 		movw	r3, #:lower16:engineConfiguration
 3059 000a C0F20003 		movt	r3, #:upper16:engineConfiguration
 3060 000e 1868     		ldr	r0, [r3]
 3061 0010 BDE80840 		pop	{r3, lr}
 3062 0014 FFF7FEBF 		b	_Z18printConfigurationP22engine_configuration_s
 3063              		.size	_ZL15setAlgorithmInti, .-_ZL15setAlgorithmInti
 3064 0018 AFF30080 		.section	.text._ZL14setFiringOrderi,"ax",%progbits
 3064      AFF30080 
 3065              		.align	2
 3066              		.p2align 4,,15
 3067              		.thumb
 3068              		.thumb_func
 3069              		.type	_ZL14setFiringOrderi, %function
 3070              	_ZL14setFiringOrderi:
 3071              		@ args = 0, pretend = 0, frame = 0
 3072              		@ frame_needed = 0, uses_anonymous_args = 0
 3073              		@ link register save eliminated.
 3074 0000 40F20003 		movw	r3, #:lower16:engineConfiguration
 3075 0004 C0F20003 		movt	r3, #:upper16:engineConfiguration
 3076 0008 1B68     		ldr	r3, [r3]
ARM GAS  C:\Users\pc\AppData\Local\Temp\cchrhDob.s 			page 56


 3077 000a C3F89801 		str	r0, [r3, #408]
 3078 000e 1846     		mov	r0, r3
 3079 0010 FFF7FEBF 		b	_Z18printConfigurationP22engine_configuration_s
 3080              		.size	_ZL14setFiringOrderi, .-_ZL14setFiringOrderi
 3081 0014 AFF30080 		.section	.text._ZL15setRpmHardLimiti,"ax",%progbits
 3081      AFF30080 
 3081      AFF30080 
 3082              		.align	2
 3083              		.p2align 4,,15
 3084              		.thumb
 3085              		.thumb_func
 3086              		.type	_ZL15setRpmHardLimiti, %function
 3087              	_ZL15setRpmHardLimiti:
 3088              		@ args = 0, pretend = 0, frame = 0
 3089              		@ frame_needed = 0, uses_anonymous_args = 0
 3090              		@ link register save eliminated.
 3091 0000 40F20003 		movw	r3, #:lower16:engineConfiguration
 3092 0004 C0F20003 		movt	r3, #:upper16:engineConfiguration
 3093 0008 1B68     		ldr	r3, [r3]
 3094 000a C3F8A401 		str	r0, [r3, #420]
 3095 000e 1846     		mov	r0, r3
 3096 0010 FFF7FEBF 		b	_Z18printConfigurationP22engine_configuration_s
 3097              		.size	_ZL15setRpmHardLimiti, .-_ZL15setRpmHardLimiti
 3098 0014 AFF30080 		.section	.text._ZL16setInjectionModei,"ax",%progbits
 3098      AFF30080 
 3098      AFF30080 
 3099              		.align	2
 3100              		.p2align 4,,15
 3101              		.thumb
 3102              		.thumb_func
 3103              		.type	_ZL16setInjectionModei, %function
 3104              	_ZL16setInjectionModei:
 3105              		@ args = 0, pretend = 0, frame = 0
 3106              		@ frame_needed = 0, uses_anonymous_args = 0
 3107 0000 10B5     		push	{r4, lr}
 3108 0002 40F20004 		movw	r4, #:lower16:engineConfiguration
 3109 0006 C0F20004 		movt	r4, #:upper16:engineConfiguration
 3110 000a 2368     		ldr	r3, [r4]
 3111 000c C3F8B001 		str	r0, [r3, #432]
 3112 0010 FFF7FEFF 		bl	_Z35incrementGlobalConfigurationVersionv
 3113 0014 2068     		ldr	r0, [r4]
 3114 0016 BDE81040 		pop	{r4, lr}
 3115 001a FFF7FEBF 		b	_Z18printConfigurationP22engine_configuration_s
 3116              		.size	_ZL16setInjectionModei, .-_ZL16setInjectionModei
 3117 001e 00BF     		.section	.text._ZL24setCrankingInjectionModei,"ax",%progbits
 3118              		.align	2
 3119              		.p2align 4,,15
 3120              		.thumb
 3121              		.thumb_func
 3122              		.type	_ZL24setCrankingInjectionModei, %function
 3123              	_ZL24setCrankingInjectionModei:
 3124              		@ args = 0, pretend = 0, frame = 0
 3125              		@ frame_needed = 0, uses_anonymous_args = 0
 3126 0000 10B5     		push	{r4, lr}
 3127 0002 40F20004 		movw	r4, #:lower16:engineConfiguration
 3128 0006 C0F20004 		movt	r4, #:upper16:engineConfiguration
 3129 000a 2368     		ldr	r3, [r4]
ARM GAS  C:\Users\pc\AppData\Local\Temp\cchrhDob.s 			page 57


 3130 000c C3F8AC01 		str	r0, [r3, #428]
 3131 0010 FFF7FEFF 		bl	_Z35incrementGlobalConfigurationVersionv
 3132 0014 2068     		ldr	r0, [r4]
 3133 0016 BDE81040 		pop	{r4, lr}
 3134 001a FFF7FEBF 		b	_Z18printConfigurationP22engine_configuration_s
 3135              		.size	_ZL24setCrankingInjectionModei, .-_ZL24setCrankingInjectionModei
 3136 001e 00BF     		.section	.text._ZL15setIgnitionModei,"ax",%progbits
 3137              		.align	2
 3138              		.p2align 4,,15
 3139              		.thumb
 3140              		.thumb_func
 3141              		.type	_ZL15setIgnitionModei, %function
 3142              	_ZL15setIgnitionModei:
 3143              		@ args = 0, pretend = 0, frame = 0
 3144              		@ frame_needed = 0, uses_anonymous_args = 0
 3145 0000 10B5     		push	{r4, lr}
 3146 0002 40F20004 		movw	r4, #:lower16:engineConfiguration
 3147 0006 C0F20004 		movt	r4, #:upper16:engineConfiguration
 3148 000a 2368     		ldr	r3, [r4]
 3149 000c C3F8BC01 		str	r0, [r3, #444]
 3150 0010 FFF7FEFF 		bl	_Z35incrementGlobalConfigurationVersionv
 3151 0014 2068     		ldr	r0, [r4]
 3152 0016 BDE81040 		pop	{r4, lr}
 3153 001a FFF7FEBF 		b	_Z18printConfigurationP22engine_configuration_s
 3154              		.size	_ZL15setIgnitionModei, .-_ZL15setIgnitionModei
 3155 001e 00BF     		.section	.text._ZL22setCrankingChargeAnglef,"ax",%progbits
 3156              		.align	2
 3157              		.p2align 4,,15
 3158              		.thumb
 3159              		.thumb_func
 3160              		.type	_ZL22setCrankingChargeAnglef, %function
 3161              	_ZL22setCrankingChargeAnglef:
 3162              		@ args = 0, pretend = 0, frame = 0
 3163              		@ frame_needed = 0, uses_anonymous_args = 0
 3164 0000 10B5     		push	{r4, lr}
 3165 0002 40F20004 		movw	r4, #:lower16:engineConfiguration
 3166 0006 C0F20004 		movt	r4, #:upper16:engineConfiguration
 3167 000a 2368     		ldr	r3, [r4]
 3168 000c D866     		str	r0, [r3, #108]	@ float
 3169 000e FFF7FEFF 		bl	_Z35incrementGlobalConfigurationVersionv
 3170 0012 2068     		ldr	r0, [r4]
 3171 0014 BDE81040 		pop	{r4, lr}
 3172 0018 FFF7FEBF 		b	_Z18printConfigurationP22engine_configuration_s
 3173              		.size	_ZL22setCrankingChargeAnglef, .-_ZL22setCrankingChargeAnglef
 3174 001c AFF30080 		.section	.text._ZL22setCrankingTimingAnglef,"ax",%progbits
 3175              		.align	2
 3176              		.p2align 4,,15
 3177              		.thumb
 3178              		.thumb_func
 3179              		.type	_ZL22setCrankingTimingAnglef, %function
 3180              	_ZL22setCrankingTimingAnglef:
 3181              		@ args = 0, pretend = 0, frame = 0
 3182              		@ frame_needed = 0, uses_anonymous_args = 0
 3183 0000 10B5     		push	{r4, lr}
 3184 0002 40F20004 		movw	r4, #:lower16:engineConfiguration
 3185 0006 C0F20004 		movt	r4, #:upper16:engineConfiguration
 3186 000a 2368     		ldr	r3, [r4]
ARM GAS  C:\Users\pc\AppData\Local\Temp\cchrhDob.s 			page 58


 3187 000c C3F8B801 		str	r0, [r3, #440]	@ float
 3188 0010 FFF7FEFF 		bl	_Z35incrementGlobalConfigurationVersionv
 3189 0014 2068     		ldr	r0, [r4]
 3190 0016 BDE81040 		pop	{r4, lr}
 3191 001a FFF7FEBF 		b	_Z18printConfigurationP22engine_configuration_s
 3192              		.size	_ZL22setCrankingTimingAnglef, .-_ZL22setCrankingTimingAnglef
 3193 001e 00BF     		.section	.text._ZL14setCrankingRpmi,"ax",%progbits
 3194              		.align	2
 3195              		.p2align 4,,15
 3196              		.thumb
 3197              		.thumb_func
 3198              		.type	_ZL14setCrankingRpmi, %function
 3199              	_ZL14setCrankingRpmi:
 3200              		@ args = 0, pretend = 0, frame = 0
 3201              		@ frame_needed = 0, uses_anonymous_args = 0
 3202              		@ link register save eliminated.
 3203 0000 40F20003 		movw	r3, #:lower16:engineConfiguration
 3204 0004 C0F20003 		movt	r3, #:upper16:engineConfiguration
 3205 0008 1B68     		ldr	r3, [r3]
 3206 000a A3F86000 		strh	r0, [r3, #96]	@ movhi
 3207 000e 1846     		mov	r0, r3
 3208 0010 FFF7FEBF 		b	_Z18printConfigurationP22engine_configuration_s
 3209              		.size	_ZL14setCrankingRpmi, .-_ZL14setCrankingRpmi
 3210 0014 AFF30080 		.section	.text._ZL5setOMi,"ax",%progbits
 3210      AFF30080 
 3210      AFF30080 
 3211              		.align	2
 3212              		.p2align 4,,15
 3213              		.thumb
 3214              		.thumb_func
 3215              		.type	_ZL5setOMi, %function
 3216              	_ZL5setOMi:
 3217              		@ args = 0, pretend = 0, frame = 0
 3218              		@ frame_needed = 0, uses_anonymous_args = 0
 3219              		@ link register save eliminated.
 3220 0000 40F20003 		movw	r3, #:lower16:engineConfiguration
 3221 0004 C0F20003 		movt	r3, #:upper16:engineConfiguration
 3222 0008 1B68     		ldr	r3, [r3]
 3223 000a C3F8F401 		str	r0, [r3, #500]
 3224 000e 1846     		mov	r0, r3
 3225 0010 FFF7FEBF 		b	_Z18printConfigurationP22engine_configuration_s
 3226              		.size	_ZL5setOMi, .-_ZL5setOMi
 3227 0014 AFF30080 		.section	.text._ZL30setMalfunctionIndicatorPinModei,"ax",%progbits
 3227      AFF30080 
 3227      AFF30080 
 3228              		.align	2
 3229              		.p2align 4,,15
 3230              		.thumb
 3231              		.thumb_func
 3232              		.type	_ZL30setMalfunctionIndicatorPinModei, %function
 3233              	_ZL30setMalfunctionIndicatorPinModei:
 3234              		@ args = 0, pretend = 0, frame = 0
 3235              		@ frame_needed = 0, uses_anonymous_args = 0
 3236              		@ link register save eliminated.
 3237 0000 40F20002 		movw	r2, #:lower16:boardConfiguration
 3238 0004 C0F20002 		movt	r2, #:upper16:boardConfiguration
 3239 0008 40F20003 		movw	r3, #:lower16:engineConfiguration
ARM GAS  C:\Users\pc\AppData\Local\Temp\cchrhDob.s 			page 59


 3240 000c 1268     		ldr	r2, [r2]
 3241 000e C0F20003 		movt	r3, #:upper16:engineConfiguration
 3242 0012 C2F88C00 		str	r0, [r2, #140]
 3243 0016 1868     		ldr	r0, [r3]
 3244 0018 FFF7FEBF 		b	_Z18printConfigurationP22engine_configuration_s
 3245              		.size	_ZL30setMalfunctionIndicatorPinModei, .-_ZL30setMalfunctionIndicatorPinModei
 3246 001c AFF30080 		.section	.text._ZL18setFuelPumpPinModei,"ax",%progbits
 3247              		.align	2
 3248              		.p2align 4,,15
 3249              		.thumb
 3250              		.thumb_func
 3251              		.type	_ZL18setFuelPumpPinModei, %function
 3252              	_ZL18setFuelPumpPinModei:
 3253              		@ args = 0, pretend = 0, frame = 0
 3254              		@ frame_needed = 0, uses_anonymous_args = 0
 3255              		@ link register save eliminated.
 3256 0000 40F20002 		movw	r2, #:lower16:boardConfiguration
 3257 0004 C0F20002 		movt	r2, #:upper16:boardConfiguration
 3258 0008 40F20003 		movw	r3, #:lower16:engineConfiguration
 3259 000c 1268     		ldr	r2, [r2]
 3260 000e C0F20003 		movt	r3, #:upper16:engineConfiguration
 3261 0012 D061     		str	r0, [r2, #28]
 3262 0014 1868     		ldr	r0, [r3]
 3263 0016 FFF7FEBF 		b	_Z18printConfigurationP22engine_configuration_s
 3264              		.size	_ZL18setFuelPumpPinModei, .-_ZL18setFuelPumpPinModei
 3265 001a 00BFAFF3 		.section	.text._ZL14setIdlePinModei,"ax",%progbits
 3265      0080
 3266              		.align	2
 3267              		.p2align 4,,15
 3268              		.thumb
 3269              		.thumb_func
 3270              		.type	_ZL14setIdlePinModei, %function
 3271              	_ZL14setIdlePinModei:
 3272              		@ args = 0, pretend = 0, frame = 0
 3273              		@ frame_needed = 0, uses_anonymous_args = 0
 3274              		@ link register save eliminated.
 3275 0000 40F20002 		movw	r2, #:lower16:boardConfiguration
 3276 0004 C0F20002 		movt	r2, #:upper16:boardConfiguration
 3277 0008 40F20003 		movw	r3, #:lower16:engineConfiguration
 3278 000c 1268     		ldr	r2, [r2]
 3279 000e C0F20003 		movt	r3, #:upper16:engineConfiguration
 3280 0012 5060     		str	r0, [r2, #4]
 3281 0014 1868     		ldr	r0, [r3]
 3282 0016 FFF7FEBF 		b	_Z18printConfigurationP22engine_configuration_s
 3283              		.size	_ZL14setIdlePinModei, .-_ZL14setIdlePinModei
 3284 001a 00BFAFF3 		.section	.text._ZL18setIgnitionPinModei,"ax",%progbits
 3284      0080
 3285              		.align	2
 3286              		.p2align 4,,15
 3287              		.thumb
 3288              		.thumb_func
 3289              		.type	_ZL18setIgnitionPinModei, %function
 3290              	_ZL18setIgnitionPinModei:
 3291              		@ args = 0, pretend = 0, frame = 0
 3292              		@ frame_needed = 0, uses_anonymous_args = 0
 3293              		@ link register save eliminated.
 3294 0000 40F20002 		movw	r2, #:lower16:boardConfiguration
ARM GAS  C:\Users\pc\AppData\Local\Temp\cchrhDob.s 			page 60


 3295 0004 C0F20002 		movt	r2, #:upper16:boardConfiguration
 3296 0008 40F20003 		movw	r3, #:lower16:engineConfiguration
 3297 000c 1268     		ldr	r2, [r2]
 3298 000e C0F20003 		movt	r3, #:upper16:engineConfiguration
 3299 0012 C2F88400 		str	r0, [r2, #132]
 3300 0016 1868     		ldr	r0, [r3]
 3301 0018 FFF7FEBF 		b	_Z18printConfigurationP22engine_configuration_s
 3302              		.size	_ZL18setIgnitionPinModei, .-_ZL18setIgnitionPinModei
 3303 001c AFF30080 		.section	.text._ZL19setInjectionPinModei,"ax",%progbits
 3304              		.align	2
 3305              		.p2align 4,,15
 3306              		.thumb
 3307              		.thumb_func
 3308              		.type	_ZL19setInjectionPinModei, %function
 3309              	_ZL19setInjectionPinModei:
 3310              		@ args = 0, pretend = 0, frame = 0
 3311              		@ frame_needed = 0, uses_anonymous_args = 0
 3312              		@ link register save eliminated.
 3313 0000 40F20002 		movw	r2, #:lower16:boardConfiguration
 3314 0004 C0F20002 		movt	r2, #:upper16:boardConfiguration
 3315 0008 40F20003 		movw	r3, #:lower16:engineConfiguration
 3316 000c 1268     		ldr	r2, [r2]
 3317 000e C0F20003 		movt	r3, #:upper16:engineConfiguration
 3318 0012 1065     		str	r0, [r2, #80]
 3319 0014 1868     		ldr	r0, [r3]
 3320 0016 FFF7FEBF 		b	_Z18printConfigurationP22engine_configuration_s
 3321              		.size	_ZL19setInjectionPinModei, .-_ZL19setInjectionPinModei
 3322 001a 00BFAFF3 		.section	.text._ZL13setTimingModei,"ax",%progbits
 3322      0080
 3323              		.align	2
 3324              		.p2align 4,,15
 3325              		.thumb
 3326              		.thumb_func
 3327              		.type	_ZL13setTimingModei, %function
 3328              	_ZL13setTimingModei:
 3329              		@ args = 0, pretend = 0, frame = 0
 3330              		@ frame_needed = 0, uses_anonymous_args = 0
 3331 0000 08B5     		push	{r3, lr}
 3332 0002 40F20003 		movw	r3, #:lower16:engineConfiguration
 3333 0006 C0F20003 		movt	r3, #:upper16:engineConfiguration
 3334 000a 1B68     		ldr	r3, [r3]
 3335 000c C3F8C401 		str	r0, [r3, #452]
 3336 0010 1846     		mov	r0, r3
 3337 0012 FFF7FEFF 		bl	_Z18printConfigurationP22engine_configuration_s
 3338 0016 BDE80840 		pop	{r3, lr}
 3339 001a FFF7FEBF 		b	_Z35incrementGlobalConfigurationVersionv
 3340              		.size	_ZL13setTimingModei, .-_ZL13setTimingModei
 3341 001e 00BF     		.section	.text._ZL18setFixedModeTimingi,"ax",%progbits
 3342              		.align	2
 3343              		.p2align 4,,15
 3344              		.thumb
 3345              		.thumb_func
 3346              		.type	_ZL18setFixedModeTimingi, %function
 3347              	_ZL18setFixedModeTimingi:
 3348              		@ args = 0, pretend = 0, frame = 0
 3349              		@ frame_needed = 0, uses_anonymous_args = 0
 3350 0000 08B5     		push	{r3, lr}
ARM GAS  C:\Users\pc\AppData\Local\Temp\cchrhDob.s 			page 61


 3351 0002 40F20003 		movw	r3, #:lower16:engineConfiguration
 3352 0006 C0F20003 		movt	r3, #:upper16:engineConfiguration
 3353 000a 07EE100A 		fmsr	s14, r0	@ int
 3354 000e 1868     		ldr	r0, [r3]
 3355 0010 F8EEC77A 		fsitos	s15, s14
 3356 0014 C0ED727A 		fsts	s15, [r0, #456]
 3357 0018 FFF7FEFF 		bl	_Z18printConfigurationP22engine_configuration_s
 3358 001c BDE80840 		pop	{r3, lr}
 3359 0020 FFF7FEBF 		b	_Z35incrementGlobalConfigurationVersionv
 3360              		.size	_ZL18setFixedModeTimingi, .-_ZL18setFixedModeTimingi
 3361 0024 AFF30080 		.section	.text._ZL18setSensorChartModei,"ax",%progbits
 3361      AFF30080 
 3361      AFF30080 
 3362              		.align	2
 3363              		.p2align 4,,15
 3364              		.thumb
 3365              		.thumb_func
 3366              		.type	_ZL18setSensorChartModei, %function
 3367              	_ZL18setSensorChartModei:
 3368              		@ args = 0, pretend = 0, frame = 0
 3369              		@ frame_needed = 0, uses_anonymous_args = 0
 3370              		@ link register save eliminated.
 3371 0000 40F20002 		movw	r2, #:lower16:boardConfiguration
 3372 0004 C0F20002 		movt	r2, #:upper16:boardConfiguration
 3373 0008 40F20003 		movw	r3, #:lower16:engineConfiguration
 3374 000c 1268     		ldr	r2, [r2]
 3375 000e C0F20003 		movt	r3, #:upper16:engineConfiguration
 3376 0012 C2F81003 		str	r0, [r2, #784]
 3377 0016 1868     		ldr	r0, [r3]
 3378 0018 FFF7FEBF 		b	_Z18printConfigurationP22engine_configuration_s
 3379              		.size	_ZL18setSensorChartModei, .-_ZL18setSensorChartModei
 3380 001c AFF30080 		.section	.text._ZL27setGlobalTriggerAngleOffsetf,"ax",%progbits
 3381              		.align	2
 3382              		.p2align 4,,15
 3383              		.thumb
 3384              		.thumb_func
 3385              		.type	_ZL27setGlobalTriggerAngleOffsetf, %function
 3386              	_ZL27setGlobalTriggerAngleOffsetf:
 3387              		@ args = 0, pretend = 0, frame = 0
 3388              		@ frame_needed = 0, uses_anonymous_args = 0
 3389 0000 10B5     		push	{r4, lr}
 3390 0002 40F20004 		movw	r4, #:lower16:engineConfiguration
 3391 0006 C0F20004 		movt	r4, #:upper16:engineConfiguration
 3392 000a 2368     		ldr	r3, [r4]
 3393 000c C3F8CC01 		str	r0, [r3, #460]	@ float
 3394 0010 FFF7FEFF 		bl	_Z35incrementGlobalConfigurationVersionv
 3395 0014 2068     		ldr	r0, [r4]
 3396 0016 BDE81040 		pop	{r4, lr}
 3397 001a FFF7FEBF 		b	_Z18printConfigurationP22engine_configuration_s
 3398              		.size	_ZL27setGlobalTriggerAngleOffsetf, .-_ZL27setGlobalTriggerAngleOffsetf
 3399 001e 00BF     		.section	.text._ZL18setInjectionOffsetf,"ax",%progbits
 3400              		.align	2
 3401              		.p2align 4,,15
 3402              		.thumb
 3403              		.thumb_func
 3404              		.type	_ZL18setInjectionOffsetf, %function
 3405              	_ZL18setInjectionOffsetf:
ARM GAS  C:\Users\pc\AppData\Local\Temp\cchrhDob.s 			page 62


 3406              		@ args = 0, pretend = 0, frame = 0
 3407              		@ frame_needed = 0, uses_anonymous_args = 0
 3408 0000 08B5     		push	{r3, lr}
 3409 0002 40F20003 		movw	r3, #:lower16:engineConfiguration
 3410 0006 C0F20003 		movt	r3, #:upper16:engineConfiguration
 3411 000a 1B68     		ldr	r3, [r3]
 3412 000c C3F8B401 		str	r0, [r3, #436]	@ float
 3413 0010 1846     		mov	r0, r3
 3414 0012 FFF7FEFF 		bl	_Z18printConfigurationP22engine_configuration_s
 3415 0016 BDE80840 		pop	{r3, lr}
 3416 001a FFF7FEBF 		b	_Z35incrementGlobalConfigurationVersionv
 3417              		.size	_ZL18setInjectionOffsetf, .-_ZL18setInjectionOffsetf
 3418 001e 00BF     		.section	.text._ZL17setIgnitionOffsetf,"ax",%progbits
 3419              		.align	2
 3420              		.p2align 4,,15
 3421              		.thumb
 3422              		.thumb_func
 3423              		.type	_ZL17setIgnitionOffsetf, %function
 3424              	_ZL17setIgnitionOffsetf:
 3425              		@ args = 0, pretend = 0, frame = 0
 3426              		@ frame_needed = 0, uses_anonymous_args = 0
 3427 0000 08B5     		push	{r3, lr}
 3428 0002 40F20003 		movw	r3, #:lower16:engineConfiguration
 3429 0006 C0F20003 		movt	r3, #:upper16:engineConfiguration
 3430 000a 1B68     		ldr	r3, [r3]
 3431 000c C3F8C001 		str	r0, [r3, #448]	@ float
 3432 0010 1846     		mov	r0, r3
 3433 0012 FFF7FEFF 		bl	_Z18printConfigurationP22engine_configuration_s
 3434 0016 BDE80840 		pop	{r3, lr}
 3435 001a FFF7FEBF 		b	_Z35incrementGlobalConfigurationVersionv
 3436              		.size	_ZL17setIgnitionOffsetf, .-_ZL17setIgnitionOffsetf
 3437 001e 00BF     		.section	.text._Z12initSettingsP22engine_configuration_s,"ax",%progbits
 3438              		.align	2
 3439              		.p2align 4,,15
 3440              		.global	_Z12initSettingsP22engine_configuration_s
 3441              		.thumb
 3442              		.thumb_func
 3443              		.type	_Z12initSettingsP22engine_configuration_s, %function
 3444              	_Z12initSettingsP22engine_configuration_s:
 3445              		@ args = 0, pretend = 0, frame = 0
 3446              		@ frame_needed = 0, uses_anonymous_args = 0
 3447 0000 40F20000 		movw	r0, #:lower16:.LC168
 3448 0004 40F20001 		movw	r1, #:lower16:_ZL20doPrintConfigurationP6Engine
 3449 0008 40F20002 		movw	r2, #:lower16:engine
 3450 000c 10B5     		push	{r4, lr}
 3451 000e C0F20002 		movt	r2, #:upper16:engine
 3452 0012 C0F20000 		movt	r0, #:upper16:.LC168
 3453 0016 C0F20001 		movt	r1, #:upper16:_ZL20doPrintConfigurationP6Engine
 3454 001a FFF7FEFF 		bl	addConsoleActionP
 3455 001e 40F20000 		movw	r0, #:lower16:.LC169
 3456 0022 40F20001 		movw	r1, #:lower16:_ZL20printTemperatureInfov
 3457 0026 C0F20000 		movt	r0, #:upper16:.LC169
 3458 002a C0F20001 		movt	r1, #:upper16:_ZL20printTemperatureInfov
 3459 002e FFF7FEFF 		bl	addConsoleAction
 3460 0032 40F20000 		movw	r0, #:lower16:.LC170
 3461 0036 40F20001 		movw	r1, #:lower16:_ZL12printTPSInfov
 3462 003a C0F20000 		movt	r0, #:upper16:.LC170
ARM GAS  C:\Users\pc\AppData\Local\Temp\cchrhDob.s 			page 63


 3463 003e C0F20001 		movt	r1, #:upper16:_ZL12printTPSInfov
 3464 0042 FFF7FEFF 		bl	addConsoleAction
 3465 0046 40F20000 		movw	r0, #:lower16:.LC171
 3466 004a 40F20001 		movw	r1, #:lower16:_ZL12printAllInfov
 3467 004e C0F20000 		movt	r0, #:upper16:.LC171
 3468 0052 C0F20001 		movt	r1, #:upper16:_ZL12printAllInfov
 3469 0056 FFF7FEFF 		bl	addConsoleAction
 3470 005a 40F20000 		movw	r0, #:lower16:.LC172
 3471 005e 40F20001 		movw	r1, #:lower16:_ZL17setIgnitionOffsetf
 3472 0062 C0F20000 		movt	r0, #:upper16:.LC172
 3473 0066 C0F20001 		movt	r1, #:upper16:_ZL17setIgnitionOffsetf
 3474 006a FFF7FEFF 		bl	addConsoleActionF
 3475 006e 40F20000 		movw	r0, #:lower16:.LC173
 3476 0072 40F20001 		movw	r1, #:lower16:_ZL18setInjectionOffsetf
 3477 0076 C0F20000 		movt	r0, #:upper16:.LC173
 3478 007a C0F20001 		movt	r1, #:upper16:_ZL18setInjectionOffsetf
 3479 007e FFF7FEFF 		bl	addConsoleActionF
 3480 0082 40F20000 		movw	r0, #:lower16:.LC174
 3481 0086 40F20001 		movw	r1, #:lower16:_ZL27setGlobalTriggerAngleOffsetf
 3482 008a C0F20000 		movt	r0, #:upper16:.LC174
 3483 008e C0F20001 		movt	r1, #:upper16:_ZL27setGlobalTriggerAngleOffsetf
 3484 0092 FFF7FEFF 		bl	addConsoleActionF
 3485 0096 40F20000 		movw	r0, #:lower16:.LC175
 3486 009a 40F20001 		movw	r1, #:lower16:_ZL18setSensorChartModei
 3487 009e C0F20000 		movt	r0, #:upper16:.LC175
 3488 00a2 C0F20001 		movt	r1, #:upper16:_ZL18setSensorChartModei
 3489 00a6 FFF7FEFF 		bl	addConsoleActionI
 3490 00aa 40F20000 		movw	r0, #:lower16:.LC176
 3491 00ae 40F20001 		movw	r1, #:lower16:_ZL18setFixedModeTimingi
 3492 00b2 C0F20000 		movt	r0, #:upper16:.LC176
 3493 00b6 C0F20001 		movt	r1, #:upper16:_ZL18setFixedModeTimingi
 3494 00ba FFF7FEFF 		bl	addConsoleActionI
 3495 00be 40F20000 		movw	r0, #:lower16:.LC177
 3496 00c2 40F20001 		movw	r1, #:lower16:_ZL13setTimingModei
 3497 00c6 C0F20000 		movt	r0, #:upper16:.LC177
 3498 00ca C0F20001 		movt	r1, #:upper16:_ZL13setTimingModei
 3499 00ce FFF7FEFF 		bl	addConsoleActionI
 3500 00d2 40F20000 		movw	r0, #:lower16:.LC178
 3501 00d6 40F20001 		movw	r1, #:lower16:_Z13setEngineTypei
 3502 00da C0F20000 		movt	r0, #:upper16:.LC178
 3503 00de C0F20001 		movt	r1, #:upper16:_Z13setEngineTypei
 3504 00e2 FFF7FEFF 		bl	addConsoleActionI
 3505 00e6 40F20000 		movw	r0, #:lower16:.LC179
 3506 00ea 40F20001 		movw	r1, #:lower16:_ZL19setInjectionPinModei
 3507 00ee C0F20000 		movt	r0, #:upper16:.LC179
 3508 00f2 C0F20001 		movt	r1, #:upper16:_ZL19setInjectionPinModei
 3509 00f6 FFF7FEFF 		bl	addConsoleActionI
 3510 00fa 40F20000 		movw	r0, #:lower16:.LC180
 3511 00fe 40F20001 		movw	r1, #:lower16:_ZL18setIgnitionPinModei
 3512 0102 C0F20000 		movt	r0, #:upper16:.LC180
 3513 0106 C0F20001 		movt	r1, #:upper16:_ZL18setIgnitionPinModei
 3514 010a FFF7FEFF 		bl	addConsoleActionI
 3515 010e 40F20000 		movw	r0, #:lower16:.LC181
 3516 0112 40F20001 		movw	r1, #:lower16:_ZL14setIdlePinModei
 3517 0116 C0F20000 		movt	r0, #:upper16:.LC181
 3518 011a C0F20001 		movt	r1, #:upper16:_ZL14setIdlePinModei
 3519 011e FFF7FEFF 		bl	addConsoleActionI
ARM GAS  C:\Users\pc\AppData\Local\Temp\cchrhDob.s 			page 64


 3520 0122 40F20000 		movw	r0, #:lower16:.LC182
 3521 0126 40F20001 		movw	r1, #:lower16:_ZL18setFuelPumpPinModei
 3522 012a C0F20000 		movt	r0, #:upper16:.LC182
 3523 012e C0F20001 		movt	r1, #:upper16:_ZL18setFuelPumpPinModei
 3524 0132 FFF7FEFF 		bl	addConsoleActionI
 3525 0136 40F20000 		movw	r0, #:lower16:.LC183
 3526 013a 40F20001 		movw	r1, #:lower16:_ZL30setMalfunctionIndicatorPinModei
 3527 013e C0F20000 		movt	r0, #:upper16:.LC183
 3528 0142 C0F20001 		movt	r1, #:upper16:_ZL30setMalfunctionIndicatorPinModei
 3529 0146 FFF7FEFF 		bl	addConsoleActionI
 3530 014a 40F20000 		movw	r0, #:lower16:.LC184
 3531 014e 40F20001 		movw	r1, #:lower16:_ZL5setOMi
 3532 0152 C0F20000 		movt	r0, #:upper16:.LC184
 3533 0156 C0F20001 		movt	r1, #:upper16:_ZL5setOMi
 3534 015a FFF7FEFF 		bl	addConsoleActionI
 3535 015e 40F20000 		movw	r0, #:lower16:.LC185
 3536 0162 40F20001 		movw	r1, #:lower16:_ZL23setGlobalFuelCorrectionf
 3537 0166 C0F20000 		movt	r0, #:upper16:.LC185
 3538 016a C0F20001 		movt	r1, #:upper16:_ZL23setGlobalFuelCorrectionf
 3539 016e FFF7FEFF 		bl	addConsoleActionF
 3540 0172 40F20000 		movw	r0, #:lower16:.LC186
 3541 0176 40F20001 		movw	r1, #:lower16:_ZL15setCrankingFuelf
 3542 017a C0F20000 		movt	r0, #:upper16:.LC186
 3543 017e C0F20001 		movt	r1, #:upper16:_ZL15setCrankingFuelf
 3544 0182 FFF7FEFF 		bl	addConsoleActionF
 3545 0186 40F20000 		movw	r0, #:lower16:.LC187
 3546 018a 40F20001 		movw	r1, #:lower16:_ZL14setCrankingRpmi
 3547 018e C0F20000 		movt	r0, #:upper16:.LC187
 3548 0192 C0F20001 		movt	r1, #:upper16:_ZL14setCrankingRpmi
 3549 0196 FFF7FEFF 		bl	addConsoleActionI
 3550 019a 40F20000 		movw	r0, #:lower16:.LC188
 3551 019e 40F20001 		movw	r1, #:lower16:_ZL22setCrankingTimingAnglef
 3552 01a2 C0F20000 		movt	r0, #:upper16:.LC188
 3553 01a6 C0F20001 		movt	r1, #:upper16:_ZL22setCrankingTimingAnglef
 3554 01aa FFF7FEFF 		bl	addConsoleActionF
 3555 01ae 40F20000 		movw	r0, #:lower16:.LC189
 3556 01b2 40F20001 		movw	r1, #:lower16:_ZL22setCrankingChargeAnglef
 3557 01b6 C0F20000 		movt	r0, #:upper16:.LC189
 3558 01ba C0F20001 		movt	r1, #:upper16:_ZL22setCrankingChargeAnglef
 3559 01be FFF7FEFF 		bl	addConsoleActionF
 3560 01c2 40F20000 		movw	r0, #:lower16:.LC190
 3561 01c6 40F20001 		movw	r1, #:lower16:_ZL15setIgnitionModei
 3562 01ca C0F20000 		movt	r0, #:upper16:.LC190
 3563 01ce C0F20001 		movt	r1, #:upper16:_ZL15setIgnitionModei
 3564 01d2 FFF7FEFF 		bl	addConsoleActionI
 3565 01d6 40F20000 		movw	r0, #:lower16:.LC191
 3566 01da 40F20001 		movw	r1, #:lower16:_ZL24setCrankingInjectionModei
 3567 01de C0F20000 		movt	r0, #:upper16:.LC191
 3568 01e2 C0F20001 		movt	r1, #:upper16:_ZL24setCrankingInjectionModei
 3569 01e6 FFF7FEFF 		bl	addConsoleActionI
 3570 01ea 40F20000 		movw	r0, #:lower16:.LC192
 3571 01ee 40F20001 		movw	r1, #:lower16:_ZL16setInjectionModei
 3572 01f2 C0F20000 		movt	r0, #:upper16:.LC192
 3573 01f6 C0F20001 		movt	r1, #:upper16:_ZL16setInjectionModei
 3574 01fa FFF7FEFF 		bl	addConsoleActionI
 3575 01fe 40F20000 		movw	r0, #:lower16:.LC193
 3576 0202 40F20001 		movw	r1, #:lower16:_ZL19setWholePhaseMapCmdf
ARM GAS  C:\Users\pc\AppData\Local\Temp\cchrhDob.s 			page 65


 3577 0206 C0F20000 		movt	r0, #:upper16:.LC193
 3578 020a C0F20001 		movt	r1, #:upper16:_ZL19setWholePhaseMapCmdf
 3579 020e 40F20004 		movw	r4, #:lower16:.LC194
 3580 0212 FFF7FEFF 		bl	addConsoleActionF
 3581 0216 C0F20004 		movt	r4, #:upper16:.LC194
 3582 021a 40F20001 		movw	r1, #:lower16:_ZL20setWholeTimingMapCmdf
 3583 021e 2046     		mov	r0, r4
 3584 0220 C0F20001 		movt	r1, #:upper16:_ZL20setWholeTimingMapCmdf
 3585 0224 FFF7FEFF 		bl	addConsoleActionF
 3586 0228 40F20000 		movw	r0, #:lower16:.LC195
 3587 022c 40F20001 		movw	r1, #:lower16:_ZL18setWholeFuelMapCmdf
 3588 0230 C0F20000 		movt	r0, #:upper16:.LC195
 3589 0234 C0F20001 		movt	r1, #:upper16:_ZL18setWholeFuelMapCmdf
 3590 0238 FFF7FEFF 		bl	addConsoleActionF
 3591 023c 40F20000 		movw	r0, #:lower16:.LC196
 3592 0240 40F20001 		movw	r1, #:lower16:_ZL13setWholeVeCmdf
 3593 0244 C0F20000 		movt	r0, #:upper16:.LC196
 3594 0248 C0F20001 		movt	r1, #:upper16:_ZL13setWholeVeCmdf
 3595 024c FFF7FEFF 		bl	addConsoleActionF
 3596 0250 40F20000 		movw	r0, #:lower16:.LC197
 3597 0254 40F20001 		movw	r1, #:lower16:_ZL10setFuelMapPKcS0_S0_
 3598 0258 C0F20000 		movt	r0, #:upper16:.LC197
 3599 025c C0F20001 		movt	r1, #:upper16:_ZL10setFuelMapPKcS0_S0_
 3600 0260 FFF7FEFF 		bl	addConsoleActionSSS
 3601 0264 40F20001 		movw	r1, #:lower16:_ZL17setWholeTimingMapf
 3602 0268 2046     		mov	r0, r4
 3603 026a C0F20001 		movt	r1, #:upper16:_ZL17setWholeTimingMapf
 3604 026e FFF7FEFF 		bl	addConsoleActionF
 3605 0272 40F20000 		movw	r0, #:lower16:.LC198
 3606 0276 40F20001 		movw	r1, #:lower16:_ZL12setTimingMapPKcS0_S0_
 3607 027a C0F20000 		movt	r0, #:upper16:.LC198
 3608 027e C0F20001 		movt	r1, #:upper16:_ZL12setTimingMapPKcS0_S0_
 3609 0282 FFF7FEFF 		bl	addConsoleActionSSS
 3610 0286 40F20000 		movw	r0, #:lower16:.LC199
 3611 028a 40F20001 		movw	r1, #:lower16:_ZL15setRpmHardLimiti
 3612 028e C0F20000 		movt	r0, #:upper16:.LC199
 3613 0292 C0F20001 		movt	r1, #:upper16:_ZL15setRpmHardLimiti
 3614 0296 FFF7FEFF 		bl	addConsoleActionI
 3615 029a 40F20000 		movw	r0, #:lower16:.LC200
 3616 029e 40F20001 		movw	r1, #:lower16:_ZL14setFiringOrderi
 3617 02a2 C0F20000 		movt	r0, #:upper16:.LC200
 3618 02a6 C0F20001 		movt	r1, #:upper16:_ZL14setFiringOrderi
 3619 02aa FFF7FEFF 		bl	addConsoleActionI
 3620 02ae 40F20000 		movw	r0, #:lower16:.LC201
 3621 02b2 40F20001 		movw	r1, #:lower16:_ZL15setAlgorithmInti
 3622 02b6 C0F20000 		movt	r0, #:upper16:.LC201
 3623 02ba C0F20001 		movt	r1, #:upper16:_ZL15setAlgorithmInti
 3624 02be FFF7FEFF 		bl	addConsoleActionI
 3625 02c2 40F20000 		movw	r0, #:lower16:.LC202
 3626 02c6 40F20001 		movw	r1, #:lower16:_Z10stopEnginev
 3627 02ca C0F20000 		movt	r0, #:upper16:.LC202
 3628 02ce C0F20001 		movt	r1, #:upper16:_Z10stopEnginev
 3629 02d2 FFF7FEFF 		bl	addConsoleAction
 3630 02d6 40F20000 		movw	r0, #:lower16:.LC203
 3631 02da 40F20001 		movw	r1, #:lower16:_ZL15enableInjectionv
 3632 02de C0F20000 		movt	r0, #:upper16:.LC203
 3633 02e2 C0F20001 		movt	r1, #:upper16:_ZL15enableInjectionv
ARM GAS  C:\Users\pc\AppData\Local\Temp\cchrhDob.s 			page 66


 3634 02e6 FFF7FEFF 		bl	addConsoleAction
 3635 02ea 40F20000 		movw	r0, #:lower16:.LC204
 3636 02ee 40F20001 		movw	r1, #:lower16:_ZL16disableInjectionv
 3637 02f2 C0F20000 		movt	r0, #:upper16:.LC204
 3638 02f6 C0F20001 		movt	r1, #:upper16:_ZL16disableInjectionv
 3639 02fa FFF7FEFF 		bl	addConsoleAction
 3640 02fe 40F20000 		movw	r0, #:lower16:.LC205
 3641 0302 40F20001 		movw	r1, #:lower16:_ZL14enableIgnitionv
 3642 0306 C0F20000 		movt	r0, #:upper16:.LC205
 3643 030a C0F20001 		movt	r1, #:upper16:_ZL14enableIgnitionv
 3644 030e FFF7FEFF 		bl	addConsoleAction
 3645 0312 40F20000 		movw	r0, #:lower16:.LC206
 3646 0316 40F20001 		movw	r1, #:lower16:_ZL15disableIgnitionv
 3647 031a C0F20000 		movt	r0, #:upper16:.LC206
 3648 031e C0F20001 		movt	r1, #:upper16:_ZL15disableIgnitionv
 3649 0322 FFF7FEFF 		bl	addConsoleAction
 3650 0326 40F20000 		movw	r0, #:lower16:.LC207
 3651 032a 40F20001 		movw	r1, #:lower16:_ZL9enableSpii
 3652 032e C0F20000 		movt	r0, #:upper16:.LC207
 3653 0332 C0F20001 		movt	r1, #:upper16:_ZL9enableSpii
 3654 0336 FFF7FEFF 		bl	addConsoleActionI
 3655 033a 40F20000 		movw	r0, #:lower16:.LC208
 3656 033e 40F20001 		movw	r1, #:lower16:_ZL10disableSpii
 3657 0342 C0F20000 		movt	r0, #:upper16:.LC208
 3658 0346 C0F20001 		movt	r1, #:upper16:_ZL10disableSpii
 3659 034a FFF7FEFF 		bl	addConsoleActionI
 3660 034e 40F20000 		movw	r0, #:lower16:.LC209
 3661 0352 40F20001 		movw	r1, #:lower16:_ZL6enablePKc
 3662 0356 C0F20000 		movt	r0, #:upper16:.LC209
 3663 035a C0F20001 		movt	r1, #:upper16:_ZL6enablePKc
 3664 035e FFF7FEFF 		bl	addConsoleActionS
 3665 0362 40F20000 		movw	r0, #:lower16:.LC210
 3666 0366 40F20001 		movw	r1, #:lower16:_ZL7disablePKc
 3667 036a C0F20000 		movt	r0, #:upper16:.LC210
 3668 036e C0F20001 		movt	r1, #:upper16:_ZL7disablePKc
 3669 0372 FFF7FEFF 		bl	addConsoleActionS
 3670 0376 40F20000 		movw	r0, #:lower16:.LC211
 3671 037a 40F20001 		movw	r1, #:lower16:_ZL15setToothedWheelii
 3672 037e C0F20000 		movt	r0, #:upper16:.LC211
 3673 0382 C0F20001 		movt	r1, #:upper16:_ZL15setToothedWheelii
 3674 0386 FFF7FEFF 		bl	addConsoleActionII
 3675 038a 40F20000 		movw	r0, #:lower16:.LC212
 3676 038e 40F20001 		movw	r1, #:lower16:_ZL14setTriggerTypei
 3677 0392 C0F20000 		movt	r0, #:upper16:.LC212
 3678 0396 C0F20001 		movt	r1, #:upper16:_ZL14setTriggerTypei
 3679 039a FFF7FEFF 		bl	addConsoleActionI
 3680 039e 40F20000 		movw	r0, #:lower16:.LC213
 3681 03a2 40F20001 		movw	r1, #:lower16:_ZL15setVBattDividerf
 3682 03a6 C0F20000 		movt	r0, #:upper16:.LC213
 3683 03aa C0F20001 		movt	r1, #:upper16:_ZL15setVBattDividerf
 3684 03ae FFF7FEFF 		bl	addConsoleActionF
 3685 03b2 40F20000 		movw	r0, #:lower16:.LC214
 3686 03b6 40F20001 		movw	r1, #:lower16:_ZL14setInjectorLagf
 3687 03ba C0F20000 		movt	r0, #:upper16:.LC214
 3688 03be C0F20001 		movt	r1, #:upper16:_ZL14setInjectorLagf
 3689 03c2 FFF7FEFF 		bl	addConsoleActionF
 3690 03c6 40F20000 		movw	r0, #:lower16:.LC215
ARM GAS  C:\Users\pc\AppData\Local\Temp\cchrhDob.s 			page 67


 3691 03ca 40F20001 		movw	r1, #:lower16:_ZL10setCltBiasf
 3692 03ce C0F20000 		movt	r0, #:upper16:.LC215
 3693 03d2 C0F20001 		movt	r1, #:upper16:_ZL10setCltBiasf
 3694 03d6 FFF7FEFF 		bl	addConsoleActionF
 3695 03da 40F20000 		movw	r0, #:lower16:.LC216
 3696 03de 40F20001 		movw	r1, #:lower16:_ZL10setIatBiasf
 3697 03e2 C0F20000 		movt	r0, #:upper16:.LC216
 3698 03e6 C0F20001 		movt	r1, #:upper16:_ZL10setIatBiasf
 3699 03ea FFF7FEFF 		bl	addConsoleActionF
 3700 03ee 40F20000 		movw	r0, #:lower16:.LC217
 3701 03f2 40F20001 		movw	r1, #:lower16:_ZL24setIdleSolenoidFrequencyi
 3702 03f6 C0F20000 		movt	r0, #:upper16:.LC217
 3703 03fa C0F20001 		movt	r1, #:upper16:_ZL24setIdleSolenoidFrequencyi
 3704 03fe FFF7FEFF 		bl	addConsoleActionI
 3705 0402 40F20000 		movw	r0, #:lower16:.LC218
 3706 0406 40F20001 		movw	r1, #:lower16:_ZL13setFanSettingff
 3707 040a C0F20000 		movt	r0, #:upper16:.LC218
 3708 040e C0F20001 		movt	r1, #:upper16:_ZL13setFanSettingff
 3709 0412 FFF7FEFF 		bl	addConsoleActionFF
 3710 0416 40F20000 		movw	r0, #:lower16:.LC219
 3711 041a 40F20001 		movw	r1, #:lower16:_ZL15showPinFunctionPKc
 3712 041e C0F20000 		movt	r0, #:upper16:.LC219
 3713 0422 C0F20001 		movt	r1, #:upper16:_ZL15showPinFunctionPKc
 3714 0426 FFF7FEFF 		bl	addConsoleActionS
 3715 042a 40F20000 		movw	r0, #:lower16:.LC220
 3716 042e 40F20001 		movw	r1, #:lower16:_ZL15setInjectionPinPKcS0_
 3717 0432 C0F20000 		movt	r0, #:upper16:.LC220
 3718 0436 C0F20001 		movt	r1, #:upper16:_ZL15setInjectionPinPKcS0_
 3719 043a FFF7FEFF 		bl	addConsoleActionSS
 3720 043e 40F20000 		movw	r0, #:lower16:.LC221
 3721 0442 40F20001 		movw	r1, #:lower16:_ZL14setIgnitionPinPKcS0_
 3722 0446 C0F20000 		movt	r0, #:upper16:.LC221
 3723 044a C0F20001 		movt	r1, #:upper16:_ZL14setIgnitionPinPKcS0_
 3724 044e FFF7FEFF 		bl	addConsoleActionSS
 3725 0452 40F20000 		movw	r0, #:lower16:.LC222
 3726 0456 40F20001 		movw	r1, #:lower16:_ZL18setTriggerInputPinPKcS0_
 3727 045a C0F20000 		movt	r0, #:upper16:.LC222
 3728 045e C0F20001 		movt	r1, #:upper16:_ZL18setTriggerInputPinPKcS0_
 3729 0462 FFF7FEFF 		bl	addConsoleActionSS
 3730 0466 40F20000 		movw	r0, #:lower16:.LC223
 3731 046a 40F20001 		movw	r1, #:lower16:_ZL22setTriggerSimulatorPinPKcS0_
 3732 046e C0F20000 		movt	r0, #:upper16:.LC223
 3733 0472 C0F20001 		movt	r1, #:upper16:_ZL22setTriggerSimulatorPinPKcS0_
 3734 0476 FFF7FEFF 		bl	addConsoleActionSS
 3735 047a 40F20003 		movw	r3, #:lower16:boardConfiguration
 3736 047e C0F20003 		movt	r3, #:upper16:boardConfiguration
 3737 0482 40F20000 		movw	r0, #:lower16:.LC224
 3738 0486 40F20001 		movw	r1, #:lower16:_ZL11setEgtCSPinPKcS0_P21board_configuration_s
 3739 048a 1A68     		ldr	r2, [r3]
 3740 048c C0F20000 		movt	r0, #:upper16:.LC224
 3741 0490 C0F20001 		movt	r1, #:upper16:_ZL11setEgtCSPinPKcS0_P21board_configuration_s
 3742 0494 FFF7FEFF 		bl	addConsoleActionSSP
 3743 0498 40F20000 		movw	r0, #:lower16:.LC225
 3744 049c 40F20001 		movw	r1, #:lower16:_ZL9setEgtSpii
 3745 04a0 C0F20000 		movt	r0, #:upper16:.LC225
 3746 04a4 C0F20001 		movt	r1, #:upper16:_ZL9setEgtSpii
 3747 04a8 FFF7FEFF 		bl	addConsoleActionI
ARM GAS  C:\Users\pc\AppData\Local\Temp\cchrhDob.s 			page 68


 3748 04ac 40F20000 		movw	r0, #:lower16:.LC226
 3749 04b0 40F20001 		movw	r1, #:lower16:_ZL23setTriggerSimulatorModePKcS0_
 3750 04b4 C0F20000 		movt	r0, #:upper16:.LC226
 3751 04b8 C0F20001 		movt	r1, #:upper16:_ZL23setTriggerSimulatorModePKcS0_
 3752 04bc FFF7FEFF 		bl	addConsoleActionSS
 3753 04c0 40F20000 		movw	r0, #:lower16:.LC227
 3754 04c4 40F20001 		movw	r1, #:lower16:_ZL14setFuelPumpPinPKc
 3755 04c8 C0F20000 		movt	r0, #:upper16:.LC227
 3756 04cc C0F20001 		movt	r1, #:upper16:_ZL14setFuelPumpPinPKc
 3757 04d0 FFF7FEFF 		bl	addConsoleActionS
 3758 04d4 40F20000 		movw	r0, #:lower16:.LC228
 3759 04d8 40F20001 		movw	r1, #:lower16:_ZL8setACPinPKc
 3760 04dc C0F20000 		movt	r0, #:upper16:.LC228
 3761 04e0 C0F20001 		movt	r1, #:upper16:_ZL8setACPinPKc
 3762 04e4 FFF7FEFF 		bl	addConsoleActionS
 3763 04e8 40F20000 		movw	r0, #:lower16:.LC229
 3764 04ec 40F20001 		movw	r1, #:lower16:_ZL16setAlternatorPinPKc
 3765 04f0 C0F20000 		movt	r0, #:upper16:.LC229
 3766 04f4 C0F20001 		movt	r1, #:upper16:_ZL16setAlternatorPinPKc
 3767 04f8 FFF7FEFF 		bl	addConsoleActionS
 3768 04fc 40F20000 		movw	r0, #:lower16:.LC230
 3769 0500 40F20001 		movw	r1, #:lower16:_ZL10setIdlePinPKc
 3770 0504 C0F20000 		movt	r0, #:upper16:.LC230
 3771 0508 C0F20001 		movt	r1, #:upper16:_ZL10setIdlePinPKc
 3772 050c FFF7FEFF 		bl	addConsoleActionS
 3773 0510 40F20000 		movw	r0, #:lower16:.LC231
 3774 0514 40F20001 		movw	r1, #:lower16:_ZL15setMainRelayPinPKc
 3775 0518 C0F20000 		movt	r0, #:upper16:.LC231
 3776 051c C0F20001 		movt	r1, #:upper16:_ZL15setMainRelayPinPKc
 3777 0520 FFF7FEFF 		bl	addConsoleActionS
 3778 0524 40F20000 		movw	r0, #:lower16:.LC232
 3779 0528 40F20001 		movw	r1, #:lower16:_ZL8setValuePKcS0_
 3780 052c C0F20000 		movt	r0, #:upper16:.LC232
 3781 0530 C0F20001 		movt	r1, #:upper16:_ZL8setValuePKcS0_
 3782 0534 FFF7FEFF 		bl	addConsoleActionSS
 3783 0538 40F20000 		movw	r0, #:lower16:.LC233
 3784 053c 40F20001 		movw	r1, #:lower16:_ZL8getValuePKc
 3785 0540 C0F20000 		movt	r0, #:upper16:.LC233
 3786 0544 C0F20001 		movt	r1, #:upper16:_ZL8getValuePKc
 3787 0548 FFF7FEFF 		bl	addConsoleActionS
 3788 054c 40F20000 		movw	r0, #:lower16:.LC234
 3789 0550 40F20001 		movw	r1, #:lower16:_ZL17setAnalogInputPinPKcS0_
 3790 0554 C0F20000 		movt	r0, #:upper16:.LC234
 3791 0558 C0F20001 		movt	r1, #:upper16:_ZL17setAnalogInputPinPKcS0_
 3792 055c FFF7FEFF 		bl	addConsoleActionSS
 3793 0560 40F20000 		movw	r0, #:lower16:.LC235
 3794 0564 40F20001 		movw	r1, #:lower16:_ZL16setLogicInputPinPKcS0_
 3795 0568 C0F20000 		movt	r0, #:upper16:.LC235
 3796 056c C0F20001 		movt	r1, #:upper16:_ZL16setLogicInputPinPKcS0_
 3797 0570 FFF7FEFF 		bl	addConsoleActionSS
 3798 0574 40F20000 		movw	r0, #:lower16:.LC236
 3799 0578 40F20001 		movw	r1, #:lower16:_ZL9setPotSpii
 3800 057c C0F20000 		movt	r0, #:upper16:.LC236
 3801 0580 C0F20001 		movt	r1, #:upper16:_ZL9setPotSpii
 3802 0584 BDE81040 		pop	{r4, lr}
 3803 0588 FFF7FEBF 		b	addConsoleActionI
 3804              		.size	_Z12initSettingsP22engine_configuration_s, .-_Z12initSettingsP22engine_configuration_s
ARM GAS  C:\Users\pc\AppData\Local\Temp\cchrhDob.s 			page 69


 3805 058c AFF30080 		.section	.text.startup._GLOBAL__sub_I__Z15printFloatArrayPKcPfi,"ax",%progbits
 3806              		.align	2
 3807              		.p2align 4,,15
 3808              		.thumb
 3809              		.thumb_func
 3810              		.type	_GLOBAL__sub_I__Z15printFloatArrayPKcPfi, %function
 3811              	_GLOBAL__sub_I__Z15printFloatArrayPKcPfi:
 3812              		@ args = 0, pretend = 0, frame = 0
 3813              		@ frame_needed = 0, uses_anonymous_args = 0
 3814              		@ link register save eliminated.
 3815 0000 40F20000 		movw	r0, #:lower16:.LANCHOR0
 3816 0004 40F20001 		movw	r1, #:lower16:.LC237
 3817 0008 40F20002 		movw	r2, #:lower16:.LANCHOR2
 3818 000c C0F20000 		movt	r0, #:upper16:.LANCHOR0
 3819 0010 C0F20001 		movt	r1, #:upper16:.LC237
 3820 0014 C0F20002 		movt	r2, #:upper16:.LANCHOR2
 3821 0018 4FF47A73 		mov	r3, #1000
 3822 001c FFF7FEBF 		b	_ZN7LoggingC1EPKcPci
 3823              		.size	_GLOBAL__sub_I__Z15printFloatArrayPKcPfi, .-_GLOBAL__sub_I__Z15printFloatArrayPKcPfi
 3824              		.section	.init_array,"aw",%init_array
 3825              		.align	2
 3826 0000 00000000 		.word	_GLOBAL__sub_I__Z15printFloatArrayPKcPfi(target1)
 3827              		.section	.bss._ZL13pinNameBuffer,"aw",%nobits
 3828              		.align	2
 3829              		.set	.LANCHOR1,. + 0
 3830              		.type	_ZL13pinNameBuffer, %object
 3831              		.size	_ZL13pinNameBuffer, 16
 3832              	_ZL13pinNameBuffer:
 3833 0000 00000000 		.space	16
 3833      00000000 
 3833      00000000 
 3833      00000000 
 3834              		.section	.bss._ZL14LOGGING_BUFFER,"aw",%nobits
 3835              		.align	2
 3836              		.set	.LANCHOR2,. + 0
 3837              		.type	_ZL14LOGGING_BUFFER, %object
 3838              		.size	_ZL14LOGGING_BUFFER, 1000
 3839              	_ZL14LOGGING_BUFFER:
 3840 0000 00000000 		.space	1000
 3840      00000000 
 3840      00000000 
 3840      00000000 
 3840      00000000 
 3841              		.section	.rodata.str1.4,"aMS",%progbits,1
 3842              		.align	2
 3843              	.LC0:
 3844 0000 69676E69 		.ascii	"ignition disabled\000"
 3844      74696F6E 
 3844      20646973 
 3844      61626C65 
 3844      6400
 3845 0012 0000     		.space	2
 3846              	.LC1:
 3847 0014 69676E69 		.ascii	"ignition enabled\000"
 3847      74696F6E 
 3847      20656E61 
 3847      626C6564 
ARM GAS  C:\Users\pc\AppData\Local\Temp\cchrhDob.s 			page 70


 3847      00
 3848 0025 000000   		.space	3
 3849              	.LC2:
 3850 0028 696E6A65 		.ascii	"injection disabled\000"
 3850      6374696F 
 3850      6E206469 
 3850      7361626C 
 3850      656400
 3851 003b 00       		.space	1
 3852              	.LC3:
 3853 003c 696E6A65 		.ascii	"injection enabled\000"
 3853      6374696F 
 3853      6E20656E 
 3853      61626C65 
 3853      6400
 3854 004e 0000     		.space	2
 3855              	.LC4:
 3856 0050 53657474 		.ascii	"Setting whole timing map to %f\000"
 3856      696E6720 
 3856      77686F6C 
 3856      65207469 
 3856      6D696E67 
 3857 006f 00       		.space	1
 3858              	.LC5:
 3859 0070 53657474 		.ascii	"Setting whole timing advance map to %f\000"
 3859      696E6720 
 3859      77686F6C 
 3859      65207469 
 3859      6D696E67 
 3860 0097 00       		.space	1
 3861              	.LC6:
 3862 0098 696E7661 		.ascii	"invalid pin name [%s]\000"
 3862      6C696420 
 3862      70696E20 
 3862      6E616D65 
 3862      205B2573 
 3863 00ae 0000     		.space	2
 3864              	.LC7:
 3865 00b0 4572726F 		.ascii	"Error with [%s]\000"
 3865      72207769 
 3865      7468205B 
 3865      25735D00 
 3866              	.LC8:
 3867 00c0 6D617000 		.ascii	"map\000"
 3868              	.LC9:
 3869 00c4 73657474 		.ascii	"setting MAP to %s/%d\000"
 3869      696E6720 
 3869      4D415020 
 3869      746F2025 
 3869      732F2564 
 3870 00d9 000000   		.space	3
 3871              	.LC10:
 3872 00dc 636C7400 		.ascii	"clt\000"
 3873              	.LC11:
 3874 00e0 73657474 		.ascii	"setting CLT to %s/%d\000"
 3874      696E6720 
 3874      434C5420 
ARM GAS  C:\Users\pc\AppData\Local\Temp\cchrhDob.s 			page 71


 3874      746F2025 
 3874      732F2564 
 3875 00f5 000000   		.space	3
 3876              	.LC12:
 3877 00f8 69617400 		.ascii	"iat\000"
 3878              	.LC13:
 3879 00fc 73657474 		.ascii	"setting IAT to %s/%d\000"
 3879      696E6720 
 3879      49415420 
 3879      746F2025 
 3879      732F2564 
 3880 0111 000000   		.space	3
 3881              	.LC14:
 3882 0114 74707300 		.ascii	"tps\000"
 3883              	.LC15:
 3884 0118 73657474 		.ascii	"setting TPS to %s/%d\000"
 3884      696E6720 
 3884      54505320 
 3884      746F2025 
 3884      732F2564 
 3885 012d 000000   		.space	3
 3886              	.LC16:
 3887 0130 656E6162 		.ascii	"enabled\000"
 3887      6C656400 
 3888              	.LC17:
 3889 0138 64697361 		.ascii	"disabled\000"
 3889      626C6564 
 3889      00
 3890 0141 000000   		.space	3
 3891              	.LC18:
 3892 0144 66617374 		.ascii	"fastadc\000"
 3892      61646300 
 3893              	.LC19:
 3894 014c 73746570 		.ascii	"step1limimter\000"
 3894      316C696D 
 3894      696D7465 
 3894      7200
 3895 015a 0000     		.space	2
 3896              	.LC20:
 3897 015c 73657269 		.ascii	"serial\000"
 3897      616C00
 3898 0163 00       		.space	1
 3899              	.LC21:
 3900 0164 73746570 		.ascii	"stepperidle\000"
 3900      70657269 
 3900      646C6500 
 3901              	.LC22:
 3902 0170 74726967 		.ascii	"trigger_only_front\000"
 3902      6765725F 
 3902      6F6E6C79 
 3902      5F66726F 
 3902      6E7400
 3903 0183 00       		.space	1
 3904              	.LC23:
 3905 0184 74776F5F 		.ascii	"two_wire_batch\000"
 3905      77697265 
 3905      5F626174 
ARM GAS  C:\Users\pc\AppData\Local\Temp\cchrhDob.s 			page 72


 3905      636800
 3906 0193 00       		.space	1
 3907              	.LC24:
 3908 0194 6A6F7973 		.ascii	"joystick\000"
 3908      7469636B 
 3908      00
 3909 019d 000000   		.space	3
 3910              	.LC25:
 3911 01a0 48495039 		.ascii	"HIP9011\000"
 3911      30313100 
 3912              	.LC26:
 3913 01a8 616C7464 		.ascii	"altdebug\000"
 3913      65627567 
 3913      00
 3914 01b1 000000   		.space	3
 3915              	.LC27:
 3916 01b4 74706963 		.ascii	"tpic_advanced_mode\000"
 3916      5F616476 
 3916      616E6365 
 3916      645F6D6F 
 3916      646500
 3917 01c7 00       		.space	1
 3918              	.LC28:
 3919 01c8 6B6E6F63 		.ascii	"knockdebug\000"
 3919      6B646562 
 3919      756700
 3920 01d3 00       		.space	1
 3921              	.LC29:
 3922 01d4 616C7463 		.ascii	"altcontrol\000"
 3922      6F6E7472 
 3922      6F6C00
 3923 01df 00       		.space	1
 3924              	.LC30:
 3925 01e0 736400   		.ascii	"sd\000"
 3926 01e3 00       		.space	1
 3927              	.LC31:
 3928 01e4 63616E00 		.ascii	"can\000"
 3929              	.LC32:
 3930 01e8 74657374 		.ascii	"test_mode\000"
 3930      5F6D6F64 
 3930      6500
 3931 01f2 0000     		.space	2
 3932              	.LC33:
 3933 01f4 63616E5F 		.ascii	"can_read\000"
 3933      72656164 
 3933      00
 3934 01fd 000000   		.space	3
 3935              	.LC34:
 3936 0200 63616E5F 		.ascii	"can_write\000"
 3936      77726974 
 3936      6500
 3937 020a 0000     		.space	2
 3938              	.LC35:
 3939 020c 696E6A65 		.ascii	"injection\000"
 3939      6374696F 
 3939      6E00
 3940 0216 0000     		.space	2
ARM GAS  C:\Users\pc\AppData\Local\Temp\cchrhDob.s 			page 73


 3941              	.LC36:
 3942 0218 74726967 		.ascii	"trigger_details\000"
 3942      6765725F 
 3942      64657461 
 3942      696C7300 
 3943              	.LC37:
 3944 0228 69676E69 		.ascii	"ignition\000"
 3944      74696F6E 
 3944      00
 3945 0231 000000   		.space	3
 3946              	.LC38:
 3947 0234 73656C66 		.ascii	"self_stimulation\000"
 3947      5F737469 
 3947      6D756C61 
 3947      74696F6E 
 3947      00
 3948 0245 000000   		.space	3
 3949              	.LC39:
 3950 0248 656E6769 		.ascii	"engine_control\000"
 3950      6E655F63 
 3950      6F6E7472 
 3950      6F6C00
 3951 0257 00       		.space	1
 3952              	.LC40:
 3953 0258 6D61705F 		.ascii	"map_avg\000"
 3953      61766700 
 3954              	.LC41:
 3955 0260 6D696C00 		.ascii	"mil\000"
 3956              	.LC42:
 3957 0264 6675656C 		.ascii	"fuel_pump\000"
 3957      5F70756D 
 3957      7000
 3958 026e 0000     		.space	2
 3959              	.LC43:
 3960 0270 74756E65 		.ascii	"tunerstudio\000"
 3960      72737475 
 3960      64696F00 
 3961              	.LC44:
 3962 027c 77617665 		.ascii	"wave_analyzer\000"
 3962      5F616E61 
 3962      6C797A65 
 3962      7200
 3963 028a 0000     		.space	2
 3964              	.LC45:
 3965 028c 69646C65 		.ascii	"idle_thread\000"
 3965      5F746872 
 3965      65616400 
 3966              	.LC46:
 3967 0298 6D616E75 		.ascii	"manual_spinning\000"
 3967      616C5F73 
 3967      70696E6E 
 3967      696E6700 
 3968              	.LC47:
 3969 02a8 63796C69 		.ascii	"cylinder_cleanup\000"
 3969      6E646572 
 3969      5F636C65 
 3969      616E7570 
ARM GAS  C:\Users\pc\AppData\Local\Temp\cchrhDob.s 			page 74


 3969      00
 3970 02b9 000000   		.space	3
 3971              	.LC48:
 3972 02bc 756E6578 		.ascii	"unexpected [%s]\000"
 3972      70656374 
 3972      6564205B 
 3972      25735D00 
 3973              	.LC49:
 3974 02cc 5B25735D 		.ascii	"[%s] %s\000"
 3974      20257300 
 3975              	.LC50:
 3976 02d4 76737363 		.ascii	"vsscoeff\000"
 3976      6F656666 
 3976      00
 3977 02dd 000000   		.space	3
 3978              	.LC51:
 3979 02e0 616C745F 		.ascii	"alt_t\000"
 3979      7400
 3980 02e6 0000     		.space	2
 3981              	.LC52:
 3982 02e8 616C745F 		.ascii	"alt_offset\000"
 3982      6F666673 
 3982      657400
 3983 02f3 00       		.space	1
 3984              	.LC53:
 3985 02f4 616C745F 		.ascii	"alt_p\000"
 3985      7000
 3986 02fa 0000     		.space	2
 3987              	.LC54:
 3988 02fc 73746570 		.ascii	"step1rpm\000"
 3988      3172706D 
 3988      00
 3989 0305 000000   		.space	3
 3990              	.LC55:
 3991 0308 73746570 		.ascii	"step1timing\000"
 3991      3174696D 
 3991      696E6700 
 3992              	.LC56:
 3993 0314 74617267 		.ascii	"targetvbatt\000"
 3993      65747662 
 3993      61747400 
 3994              	.LC57:
 3995 0320 64617465 		.ascii	"date\000"
 3995      00
 3996 0325 000000   		.space	3
 3997              	.LC58:
 3998 0328 53657474 		.ascii	"Setting timing map entry %d:%d to %f\000"
 3998      696E6720 
 3998      74696D69 
 3998      6E67206D 
 3998      61702065 
 3999 034d 000000   		.space	3
 4000              	.LC59:
 4001 0350 53657474 		.ascii	"Setting fuel map entry %d:%d to %f\000"
 4001      696E6720 
 4001      6675656C 
 4001      206D6170 
ARM GAS  C:\Users\pc\AppData\Local\Temp\cchrhDob.s 			page 75


 4001      20656E74 
 4002 0373 00       		.space	1
 4003              	.LC60:
 4004 0374 53657474 		.ascii	"Setting whole VE map to %f\000"
 4004      696E6720 
 4004      77686F6C 
 4004      65205645 
 4004      206D6170 
 4005 038f 00       		.space	1
 4006              	.LC61:
 4007 0390 5741524E 		.ascii	"WARNING: setting VE map not in SD mode is pointless"
 4007      494E473A 
 4007      20736574 
 4007      74696E67 
 4007      20564520 
 4008 03c3 00       		.ascii	"\000"
 4009              	.LC62:
 4010 03c4 53657474 		.ascii	"Setting whole injection phase map to %f\000"
 4010      696E6720 
 4010      77686F6C 
 4010      6520696E 
 4010      6A656374 
 4011              	.LC63:
 4012 03ec 53657474 		.ascii	"Setting whole fuel map to %f\000"
 4012      696E6720 
 4012      77686F6C 
 4012      65206675 
 4012      656C206D 
 4013 0409 000000   		.space	3
 4014              	.LC64:
 4015 040c 5741524E 		.ascii	"WARNING: setting fuel map in SD mode is pointless\000"
 4015      494E473A 
 4015      20736574 
 4015      74696E67 
 4015      20667565 
 4016 043e 0000     		.space	2
 4017              	.LC65:
 4018 0440 4E4F2054 		.ascii	"NO TPS SENSOR\000"
 4018      50532053 
 4018      454E534F 
 4018      5200
 4019 044e 0000     		.space	2
 4020              	.LC66:
 4021 0450 74707320 		.ascii	"tps min %d/max %d v=%f @%s%d\000"
 4021      6D696E20 
 4021      25642F6D 
 4021      61782025 
 4021      6420763D 
 4022 046d 000000   		.space	3
 4023              	.LC67:
 4024 0470 63757272 		.ascii	"current 10bit=%d value=%f rate=%f\000"
 4024      656E7420 
 4024      31306269 
 4024      743D2564 
 4024      2076616C 
 4025 0492 0000     		.space	2
 4026              	.LC68:
ARM GAS  C:\Users\pc\AppData\Local\Temp\cchrhDob.s 			page 76


 4027 0494 7465726D 		.ascii	"term\000"
 4027      00
 4028 0499 000000   		.space	3
 4029              	.LC69:
 4030 049c 25732076 		.ascii	"%s volts=%f Celsius=%f sensorR=%f on channel %d\000"
 4030      6F6C7473 
 4030      3D256620 
 4030      43656C73 
 4030      6975733D 
 4031              	.LC70:
 4032 04cc 40257300 		.ascii	"@%s\000"
 4033              	.LC71:
 4034 04d0 433D2566 		.ascii	"C=%f/R=%f C=%f/R=%f C=%f/R=%f\000"
 4034      2F523D25 
 4034      6620433D 
 4034      25662F52 
 4034      3D256620 
 4035 04ee 0000     		.space	2
 4036              	.LC72:
 4037 04f0 62696173 		.ascii	"bias resistor=%fK A=%..100000f B=%..100000f C=%..10"
 4037      20726573 
 4037      6973746F 
 4037      723D2566 
 4037      4B20413D 
 4038 0523 30303030 		.ascii	"0000f\000"
 4038      6600
 4039 0529 000000   		.space	3
 4040              	.LC73:
 4041 052c 3D3D3D3D 		.ascii	"==============================\000"
 4041      3D3D3D3D 
 4041      3D3D3D3D 
 4041      3D3D3D3D 
 4041      3D3D3D3D 
 4042 054b 00       		.space	1
 4043              	.LC74:
 4044 054c 434C5400 		.ascii	"CLT\000"
 4045              	.LC75:
 4046 0550 434C5420 		.ascii	"CLT sensing error\000"
 4046      73656E73 
 4046      696E6720 
 4046      6572726F 
 4046      7200
 4047 0562 0000     		.space	2
 4048              	.LC76:
 4049 0564 49415400 		.ascii	"IAT\000"
 4050              	.LC77:
 4051 0568 49415420 		.ascii	"IAT sensing error\000"
 4051      73656E73 
 4051      696E6720 
 4051      6572726F 
 4051      7200
 4052 057a 0000     		.space	2
 4053              	.LC78:
 4054 057c 66616E3D 		.ascii	"fan=%s @ %s\000"
 4054      25732040 
 4054      20257300 
 4055              	.LC79:
ARM GAS  C:\Users\pc\AppData\Local\Temp\cchrhDob.s 			page 77


 4056 0588 412F4320 		.ascii	"A/C relay=%s @ %s\000"
 4056      72656C61 
 4056      793D2573 
 4056      20402025 
 4056      7300
 4057 059a 0000     		.space	2
 4058              	.LC80:
 4059 059c 77617665 		.ascii	"waveChartUsedSize=%d\000"
 4059      43686172 
 4059      74557365 
 4059      6453697A 
 4059      653D2564 
 4060 05b1 000000   		.space	3
 4061              	.LC81:
 4062 05b4 636F6E73 		.ascii	"console mode jumper: %s\000"
 4062      6F6C6520 
 4062      6D6F6465 
 4062      206A756D 
 4062      7065723A 
 4063              	.LC82:
 4064 05cc 626F6172 		.ascii	"board test mode jumper: %s\000"
 4064      64207465 
 4064      7374206D 
 4064      6F646520 
 4064      6A756D70 
 4065 05e7 00       		.space	1
 4066              	.LC83:
 4067 05e8 4F4E2074 		.ascii	"ON temp [%f] should be above OFF temp [%f]\000"
 4067      656D7020 
 4067      5B25665D 
 4067      2073686F 
 4067      756C6420 
 4068 0613 00       		.space	1
 4069              	.LC84:
 4070 0614 73657474 		.ascii	"setting fuel mult=%f\000"
 4070      696E6720 
 4070      6675656C 
 4070      206D756C 
 4070      743D2566 
 4071 0629 000000   		.space	3
 4072              	.LC85:
 4073 062c 73657474 		.ascii	"setting logic input pin[%d] to %s please save&resta"
 4073      696E6720 
 4073      6C6F6769 
 4073      6320696E 
 4073      70757420 
 4074 065f 727400   		.ascii	"rt\000"
 4075 0662 0000     		.space	2
 4076              	.LC86:
 4077 0664 73657474 		.ascii	"setting %s pin to %s please save&restart\000"
 4077      696E6720 
 4077      25732070 
 4077      696E2074 
 4077      6F202573 
 4078 068d 000000   		.space	3
 4079              	.LC87:
 4080 0690 6D61696E 		.ascii	"main relay\000"
ARM GAS  C:\Users\pc\AppData\Local\Temp\cchrhDob.s 			page 78


 4080      2072656C 
 4080      617900
 4081 069b 00       		.space	1
 4082              	.LC88:
 4083 069c 69646C65 		.ascii	"idle\000"
 4083      00
 4084 06a1 000000   		.space	3
 4085              	.LC89:
 4086 06a4 616C7465 		.ascii	"alternator\000"
 4086      726E6174 
 4086      6F7200
 4087 06af 00       		.space	1
 4088              	.LC90:
 4089 06b0 412F4300 		.ascii	"A/C\000"
 4090              	.LC91:
 4091 06b4 6675656C 		.ascii	"fuelPump\000"
 4091      50756D70 
 4091      00
 4092 06bd 000000   		.space	3
 4093              	.LC92:
 4094 06c0 73657474 		.ascii	"setting trigger pin[%d] to %s please save&restart\000"
 4094      696E6720 
 4094      74726967 
 4094      67657220 
 4094      70696E5B 
 4095 06f2 0000     		.space	2
 4096              	.LC93:
 4097 06f4 73657474 		.ascii	"setting ignition pin[%d] to %s please save&restart\000"
 4097      696E6720 
 4097      69676E69 
 4097      74696F6E 
 4097      2070696E 
 4098 0727 00       		.space	1
 4099              	.LC94:
 4100 0728 73657474 		.ascii	"setting injection pin[%d] to %s please save&restart"
 4100      696E6720 
 4100      696E6A65 
 4100      6374696F 
 4100      6E207069 
 4101 075b 00       		.ascii	"\000"
 4102              	.LC95:
 4103 075c 746F646F 		.ascii	"todo\000"
 4103      00
 4104 0761 000000   		.space	3
 4105              	.LC96:
 4106 0764 736F6D65 		.ascii	"something\000"
 4106      7468696E 
 4106      6700
 4107 076e 0000     		.space	2
 4108              	.LC97:
 4109 0770 73657474 		.ascii	"setting EGT CS pin[%d] to %s please save&restart\000"
 4109      696E6720 
 4109      45475420 
 4109      43532070 
 4109      696E5B25 
 4110 07a1 000000   		.space	3
 4111              	.LC98:
ARM GAS  C:\Users\pc\AppData\Local\Temp\cchrhDob.s 			page 79


 4112 07a4 73657474 		.ascii	"setting trigger simulator pin[%d] to %s please save"
 4112      696E6720 
 4112      74726967 
 4112      67657220 
 4112      73696D75 
 4113 07d7 26726573 		.ascii	"&restart\000"
 4113      74617274 
 4113      00
 4114              	.LC99:
 4115 07e0 50696E20 		.ascii	"Pin %s: [%s]\000"
 4115      25733A20 
 4115      5B25735D 
 4115      00
 4116 07ed 000000   		.space	3
 4117              	.LC100:
 4118 07f0 25662000 		.ascii	"%f \000"
 4119              	.LC101:
 4120 07f4 73706920 		.ascii	"spi 1=%s/2=%s/3=%s\000"
 4120      313D2573 
 4120      2F323D25 
 4120      732F333D 
 4120      257300
 4121 0807 00       		.space	1
 4122              	.LC102:
 4123 0808 696E7661 		.ascii	"invalid spi index %d\000"
 4123      6C696420 
 4123      73706920 
 4123      696E6465 
 4123      78202564 
 4124 081d 000000   		.space	3
 4125              	.LC103:
 4126 0820 43555354 		.ascii	"CUSTOM\000"
 4126      4F4D00
 4127 0827 00       		.space	1
 4128              	.LC104:
 4129 0828 4E656F6E 		.ascii	"Neon95\000"
 4129      393500
 4130 082f 00       		.space	1
 4131              	.LC105:
 4132 0830 4E656F6E 		.ascii	"Neon03\000"
 4132      303300
 4133 0837 00       		.space	1
 4134              	.LC106:
 4135 0838 41737069 		.ascii	"Aspire\000"
 4135      726500
 4136 083f 00       		.space	1
 4137              	.LC107:
 4138 0840 46696573 		.ascii	"Fiesta\000"
 4138      746100
 4139 0847 00       		.space	1
 4140              	.LC108:
 4141 0848 5072696D 		.ascii	"Primera\000"
 4141      65726100 
 4142              	.LC109:
 4143 0850 4163636F 		.ascii	"Accord3\000"
 4143      72643300 
 4144              	.LC110:
ARM GAS  C:\Users\pc\AppData\Local\Temp\cchrhDob.s 			page 80


 4145 0858 4163636F 		.ascii	"Accord2\000"
 4145      72643200 
 4146              	.LC111:
 4147 0860 486F6E64 		.ascii	"HondaD\000"
 4147      614400
 4148 0867 00       		.space	1
 4149              	.LC112:
 4150 0868 466F7264 		.ascii	"Fordi6\000"
 4150      693600
 4151 086f 00       		.space	1
 4152              	.LC113:
 4153 0870 47793631 		.ascii	"Gy6139\000"
 4153      333900
 4154 0877 00       		.space	1
 4155              	.LC114:
 4156 0878 4D696174 		.ascii	"MiataNB\000"
 4156      614E4200 
 4157              	.LC115:
 4158 0880 4D333233 		.ascii	"M323\000"
 4158      00
 4159 0885 000000   		.space	3
 4160              	.LC116:
 4161 0888 53617475 		.ascii	"Saturn Ion\000"
 4161      726E2049 
 4161      6F6E00
 4162 0893 00       		.space	1
 4163              	.LC117:
 4164 0894 436F6F70 		.ascii	"CoopR50\000"
 4164      52353000 
 4165              	.LC118:
 4166 089c 45736372 		.ascii	"EscrtGT\000"
 4166      74475400 
 4167              	.LC119:
 4168 08a4 5455334A 		.ascii	"TU3JP\000"
 4168      5000
 4169 08aa 0000     		.space	2
 4170              	.LC120:
 4171 08ac 52767276 		.ascii	"Rvrv8\000"
 4171      3800
 4172 08b2 0000     		.space	2
 4173              	.LC121:
 4174 08b4 4D693447 		.ascii	"Mi4G93\000"
 4174      393300
 4175 08bb 00       		.space	1
 4176              	.LC122:
 4177 08bc 4D583539 		.ascii	"MX590\000"
 4177      3000
 4178 08c2 0000     		.space	2
 4179              	.LC123:
 4180 08c4 4D583539 		.ascii	"MX594d\000"
 4180      346400
 4181 08cb 00       		.space	1
 4182              	.LC124:
 4183 08cc 4D583539 		.ascii	"MX594s\000"
 4183      347300
 4184 08d3 00       		.space	1
 4185              	.LC125:
ARM GAS  C:\Users\pc\AppData\Local\Temp\cchrhDob.s 			page 81


 4186 08d4 4D583539 		.ascii	"MX596\000"
 4186      3600
 4187 08da 0000     		.space	2
 4188              	.LC126:
 4189 08dc 424D5765 		.ascii	"BMWe34\000"
 4189      333400
 4190 08e3 00       		.space	1
 4191              	.LC127:
 4192 08e4 54657374 		.ascii	"Test\000"
 4192      00
 4193 08e9 000000   		.space	3
 4194              	.LC128:
 4195 08ec 56575F41 		.ascii	"VW_ABA\000"
 4195      424100
 4196 08f3 00       		.space	1
 4197              	.LC129:
 4198 08f4 53414348 		.ascii	"SACHS\000"
 4198      5300
 4199 08fa 0000     		.space	2
 4200              	.LC130:
 4201 08fc 474D5F32 		.ascii	"GM_2_2\000"
 4201      5F3200
 4202 0903 00       		.space	1
 4203              	.LC131:
 4204 0904 444F4447 		.ascii	"DODGE_RAM\000"
 4204      455F5241 
 4204      4D00
 4205 090e 0000     		.space	2
 4206              	.LC132:
 4207 0910 4D617A64 		.ascii	"Mazda626\000"
 4207      61363236 
 4207      00
 4208 0919 000000   		.space	3
 4209              	.LC133:
 4210 091c 556E6578 		.ascii	"Unexpected: engineType %d\000"
 4210      70656374 
 4210      65643A20 
 4210      656E6769 
 4210      6E655479 
 4211 0936 0000     		.space	2
 4212              	.LC134:
 4213 0938 54656D70 		.ascii	"Template %s/%d trigger %s/%s/%d\000"
 4213      6C617465 
 4213      2025732F 
 4213      25642074 
 4213      72696767 
 4214              	.LC135:
 4215 0958 636F6E66 		.ascii	"configurationVersion=%d\000"
 4215      69677572 
 4215      6174696F 
 4215      6E566572 
 4215      73696F6E 
 4216              	.LC136:
 4217 0970 72706D48 		.ascii	"rpmHardLimit: %d/operationMode=%d\000"
 4217      6172644C 
 4217      696D6974 
 4217      3A202564 
ARM GAS  C:\Users\pc\AppData\Local\Temp\cchrhDob.s 			page 82


 4217      2F6F7065 
 4218 0992 0000     		.space	2
 4219              	.LC137:
 4220 0994 676C6F62 		.ascii	"globalTriggerAngleOffset=%f\000"
 4220      616C5472 
 4220      69676765 
 4220      72416E67 
 4220      6C654F66 
 4221              	.LC138:
 4222 09b0 3D3D3D20 		.ascii	"=== cranking ===\000"
 4222      6372616E 
 4222      6B696E67 
 4222      203D3D3D 
 4222      00
 4223 09c1 000000   		.space	3
 4224              	.LC139:
 4225 09c4 6372616E 		.ascii	"crankingRpm: %d\000"
 4225      6B696E67 
 4225      52706D3A 
 4225      20256400 
 4226              	.LC140:
 4227 09d4 6372616E 		.ascii	"cranking injection %s\000"
 4227      6B696E67 
 4227      20696E6A 
 4227      65637469 
 4227      6F6E2025 
 4228 09ea 0000     		.space	2
 4229              	.LC141:
 4230 09ec 69676E69 		.ascii	"ignitionDwellForCrankingMs=%f\000"
 4230      74696F6E 
 4230      4477656C 
 4230      6C466F72 
 4230      4372616E 
 4231 0a0a 0000     		.space	2
 4232              	.LC142:
 4233 0a0c 6372616E 		.ascii	"cranking charge charge angle=%f fire at %f\000"
 4233      6B696E67 
 4233      20636861 
 4233      72676520 
 4233      63686172 
 4234 0a37 00       		.space	1
 4235              	.LC143:
 4236 0a38 3D3D3D20 		.ascii	"=== ignition ===\000"
 4236      69676E69 
 4236      74696F6E 
 4236      203D3D3D 
 4236      00
 4237 0a49 000000   		.space	3
 4238              	.LC144:
 4239 0a4c 69676E69 		.ascii	"ignitionMode: %s/enabled=%s\000"
 4239      74696F6E 
 4239      4D6F6465 
 4239      3A202573 
 4239      2F656E61 
 4240              	.LC145:
 4241 0a68 74696D69 		.ascii	"timingMode: %s\000"
 4241      6E674D6F 
ARM GAS  C:\Users\pc\AppData\Local\Temp\cchrhDob.s 			page 83


 4241      64653A20 
 4241      257300
 4242 0a77 00       		.space	1
 4243              	.LC146:
 4244 0a78 66697865 		.ascii	"fixedModeTiming: %d\000"
 4244      644D6F64 
 4244      6554696D 
 4244      696E673A 
 4244      20256400 
 4245              	.LC147:
 4246 0a8c 69676E69 		.ascii	"ignitionOffset=%f\000"
 4246      74696F6E 
 4246      4F666673 
 4246      65743D25 
 4246      6600
 4247 0a9e 0000     		.space	2
 4248              	.LC148:
 4249 0aa0 3D3D3D20 		.ascii	"=== injection ===\000"
 4249      696E6A65 
 4249      6374696F 
 4249      6E203D3D 
 4249      3D00
 4250 0ab2 0000     		.space	2
 4251              	.LC149:
 4252 0ab4 696E6A65 		.ascii	"injection %s offset=%f/enabled=%s\000"
 4252      6374696F 
 4252      6E202573 
 4252      206F6666 
 4252      7365743D 
 4253 0ad6 0000     		.space	2
 4254              	.LC150:
 4255 0ad8 696E6A65 		.ascii	"injectionPins: mode %s\000"
 4255      6374696F 
 4255      6E50696E 
 4255      733A206D 
 4255      6F646520 
 4256 0aef 00       		.space	1
 4257              	.LC151:
 4258 0af0 69676E69 		.ascii	"ignitionPins: mode %s\000"
 4258      74696F6E 
 4258      50696E73 
 4258      3A206D6F 
 4258      64652025 
 4259 0b06 0000     		.space	2
 4260              	.LC152:
 4261 0b08 696E6A65 		.ascii	"injection #%d @ %s\000"
 4261      6374696F 
 4261      6E202325 
 4261      64204020 
 4261      257300
 4262 0b1b 00       		.space	1
 4263              	.LC153:
 4264 0b1c 69646C65 		.ascii	"idlePin: mode %s @ %s freq=%d\000"
 4264      50696E3A 
 4264      206D6F64 
 4264      65202573 
 4264      20402025 
ARM GAS  C:\Users\pc\AppData\Local\Temp\cchrhDob.s 			page 84


 4265 0b3a 0000     		.space	2
 4266              	.LC154:
 4267 0b3c 6D616C66 		.ascii	"malfunctionIndicatorn: %s mode=%s\000"
 4267      756E6374 
 4267      696F6E49 
 4267      6E646963 
 4267      61746F72 
 4268 0b5e 0000     		.space	2
 4269              	.LC155:
 4270 0b60 6675656C 		.ascii	"fuelPumpPin: mode %s @ %s\000"
 4270      50756D70 
 4270      50696E3A 
 4270      206D6F64 
 4270      65202573 
 4271 0b7a 0000     		.space	2
 4272              	.LC156:
 4273 0b7c 66616E50 		.ascii	"fanPin: mode %s @ %s\000"
 4273      696E3A20 
 4273      6D6F6465 
 4273      20257320 
 4273      40202573 
 4274 0b91 000000   		.space	3
 4275              	.LC157:
 4276 0b94 6D61696E 		.ascii	"mainRelay: mode %s @ %s\000"
 4276      52656C61 
 4276      793A206D 
 4276      6F646520 
 4276      25732040 
 4277              	.LC158:
 4278 0bac 616C7465 		.ascii	"alternator field: mode %s @ %s\000"
 4278      726E6174 
 4278      6F722066 
 4278      69656C64 
 4278      3A206D6F 
 4279 0bcb 00       		.space	1
 4280              	.LC159:
 4281 0bcc 6D61705F 		.ascii	"map_avg=%s/mil=%s/fp=%s/ts=%s/wa=%s/it=%s/fastAdc=%"
 4281      6176673D 
 4281      25732F6D 
 4281      696C3D25 
 4281      732F6670 
 4282 0bff 7300     		.ascii	"s\000"
 4283 0c01 000000   		.space	3
 4284              	.LC160:
 4285 0c04 69734D61 		.ascii	"isManualSpinningMode=%s/isCylinderCleanupEnabled=%s"
 4285      6E75616C 
 4285      5370696E 
 4285      6E696E67 
 4285      4D6F6465 
 4286 0c37 00       		.ascii	"\000"
 4287              	.LC161:
 4288 0c38 636C7574 		.ascii	"clutchUp@%s: %s\000"
 4288      63685570 
 4288      4025733A 
 4288      20257300 
 4289              	.LC162:
 4290 0c48 636C7574 		.ascii	"clutchDown@%s: %s\000"
ARM GAS  C:\Users\pc\AppData\Local\Temp\cchrhDob.s 			page 85


 4290      6368446F 
 4290      776E4025 
 4290      733A2025 
 4290      7300
 4291 0c5a 0000     		.space	2
 4292              	.LC163:
 4293 0c5c 626F6172 		.ascii	"boardTestModeJumperPin: %s/nesting=%d\000"
 4293      64546573 
 4293      744D6F64 
 4293      654A756D 
 4293      70657250 
 4294 0c82 0000     		.space	2
 4295              	.LC164:
 4296 0c84 64696769 		.ascii	"digitalPotentiometerSpiDevice %d\000"
 4296      74616C50 
 4296      6F74656E 
 4296      74696F6D 
 4296      65746572 
 4297 0ca5 000000   		.space	3
 4298              	.LC165:
 4299 0ca8 69676E69 		.ascii	"ignition #%d @ %s\000"
 4299      74696F6E 
 4299      20232564 
 4299      20402025 
 4299      7300
 4300 0cba 0000     		.space	2
 4301              	.LC166:
 4302 0cbc 64696769 		.ascii	"digitalPotentiometer CS%d %s\000"
 4302      74616C50 
 4302      6F74656E 
 4302      74696F6D 
 4302      65746572 
 4303 0cd9 000000   		.space	3
 4304              	.LC167:
 4305 0cdc 746F6F74 		.ascii	"toothed: total=%d/skipped=%d\000"
 4305      6865643A 
 4305      20746F74 
 4305      616C3D25 
 4305      642F736B 
 4306 0cf9 000000   		.space	3
 4307              	.LC168:
 4308 0cfc 73686F77 		.ascii	"showconfig\000"
 4308      636F6E66 
 4308      696700
 4309 0d07 00       		.space	1
 4310              	.LC169:
 4311 0d08 74656D70 		.ascii	"tempinfo\000"
 4311      696E666F 
 4311      00
 4312 0d11 000000   		.space	3
 4313              	.LC170:
 4314 0d14 74707369 		.ascii	"tpsinfo\000"
 4314      6E666F00 
 4315              	.LC171:
 4316 0d1c 696E666F 		.ascii	"info\000"
 4316      00
 4317 0d21 000000   		.space	3
ARM GAS  C:\Users\pc\AppData\Local\Temp\cchrhDob.s 			page 86


 4318              	.LC172:
 4319 0d24 7365745F 		.ascii	"set_ignition_offset\000"
 4319      69676E69 
 4319      74696F6E 
 4319      5F6F6666 
 4319      73657400 
 4320              	.LC173:
 4321 0d38 7365745F 		.ascii	"set_injection_offset\000"
 4321      696E6A65 
 4321      6374696F 
 4321      6E5F6F66 
 4321      66736574 
 4322 0d4d 000000   		.space	3
 4323              	.LC174:
 4324 0d50 7365745F 		.ascii	"set_global_trigger_offset_angle\000"
 4324      676C6F62 
 4324      616C5F74 
 4324      72696767 
 4324      65725F6F 
 4325              	.LC175:
 4326 0d70 7365745F 		.ascii	"set_sensor_chart_mode\000"
 4326      73656E73 
 4326      6F725F63 
 4326      68617274 
 4326      5F6D6F64 
 4327 0d86 0000     		.space	2
 4328              	.LC176:
 4329 0d88 7365745F 		.ascii	"set_fixed_mode_timing\000"
 4329      66697865 
 4329      645F6D6F 
 4329      64655F74 
 4329      696D696E 
 4330 0d9e 0000     		.space	2
 4331              	.LC177:
 4332 0da0 7365745F 		.ascii	"set_timing_mode\000"
 4332      74696D69 
 4332      6E675F6D 
 4332      6F646500 
 4333              	.LC178:
 4334 0db0 7365745F 		.ascii	"set_engine_type\000"
 4334      656E6769 
 4334      6E655F74 
 4334      79706500 
 4335              	.LC179:
 4336 0dc0 7365745F 		.ascii	"set_injection_pin_mode\000"
 4336      696E6A65 
 4336      6374696F 
 4336      6E5F7069 
 4336      6E5F6D6F 
 4337 0dd7 00       		.space	1
 4338              	.LC180:
 4339 0dd8 7365745F 		.ascii	"set_ignition_pin_mode\000"
 4339      69676E69 
 4339      74696F6E 
 4339      5F70696E 
 4339      5F6D6F64 
 4340 0dee 0000     		.space	2
ARM GAS  C:\Users\pc\AppData\Local\Temp\cchrhDob.s 			page 87


 4341              	.LC181:
 4342 0df0 7365745F 		.ascii	"set_idle_pin_mode\000"
 4342      69646C65 
 4342      5F70696E 
 4342      5F6D6F64 
 4342      6500
 4343 0e02 0000     		.space	2
 4344              	.LC182:
 4345 0e04 7365745F 		.ascii	"set_fuel_pump_pin_mode\000"
 4345      6675656C 
 4345      5F70756D 
 4345      705F7069 
 4345      6E5F6D6F 
 4346 0e1b 00       		.space	1
 4347              	.LC183:
 4348 0e1c 7365745F 		.ascii	"set_malfunction_indicator_pin_mode\000"
 4348      6D616C66 
 4348      756E6374 
 4348      696F6E5F 
 4348      696E6469 
 4349 0e3f 00       		.space	1
 4350              	.LC184:
 4351 0e40 7365745F 		.ascii	"set_operation_mode\000"
 4351      6F706572 
 4351      6174696F 
 4351      6E5F6D6F 
 4351      646500
 4352 0e53 00       		.space	1
 4353              	.LC185:
 4354 0e54 7365745F 		.ascii	"set_global_fuel_correction\000"
 4354      676C6F62 
 4354      616C5F66 
 4354      75656C5F 
 4354      636F7272 
 4355 0e6f 00       		.space	1
 4356              	.LC186:
 4357 0e70 7365745F 		.ascii	"set_cranking_fuel\000"
 4357      6372616E 
 4357      6B696E67 
 4357      5F667565 
 4357      6C00
 4358 0e82 0000     		.space	2
 4359              	.LC187:
 4360 0e84 7365745F 		.ascii	"set_cranking_rpm\000"
 4360      6372616E 
 4360      6B696E67 
 4360      5F72706D 
 4360      00
 4361 0e95 000000   		.space	3
 4362              	.LC188:
 4363 0e98 7365745F 		.ascii	"set_cranking_timing_angle\000"
 4363      6372616E 
 4363      6B696E67 
 4363      5F74696D 
 4363      696E675F 
 4364 0eb2 0000     		.space	2
 4365              	.LC189:
ARM GAS  C:\Users\pc\AppData\Local\Temp\cchrhDob.s 			page 88


 4366 0eb4 7365745F 		.ascii	"set_cranking_charge_angle\000"
 4366      6372616E 
 4366      6B696E67 
 4366      5F636861 
 4366      7267655F 
 4367 0ece 0000     		.space	2
 4368              	.LC190:
 4369 0ed0 7365745F 		.ascii	"set_ignition_mode\000"
 4369      69676E69 
 4369      74696F6E 
 4369      5F6D6F64 
 4369      6500
 4370 0ee2 0000     		.space	2
 4371              	.LC191:
 4372 0ee4 7365745F 		.ascii	"set_cranking_injection_mode\000"
 4372      6372616E 
 4372      6B696E67 
 4372      5F696E6A 
 4372      65637469 
 4373              	.LC192:
 4374 0f00 7365745F 		.ascii	"set_injection_mode\000"
 4374      696E6A65 
 4374      6374696F 
 4374      6E5F6D6F 
 4374      646500
 4375 0f13 00       		.space	1
 4376              	.LC193:
 4377 0f14 7365745F 		.ascii	"set_whole_phase_map\000"
 4377      77686F6C 
 4377      655F7068 
 4377      6173655F 
 4377      6D617000 
 4378              	.LC194:
 4379 0f28 7365745F 		.ascii	"set_whole_timing_map\000"
 4379      77686F6C 
 4379      655F7469 
 4379      6D696E67 
 4379      5F6D6170 
 4380 0f3d 000000   		.space	3
 4381              	.LC195:
 4382 0f40 7365745F 		.ascii	"set_whole_fuel_map\000"
 4382      77686F6C 
 4382      655F6675 
 4382      656C5F6D 
 4382      617000
 4383 0f53 00       		.space	1
 4384              	.LC196:
 4385 0f54 7365745F 		.ascii	"set_whole_ve_map\000"
 4385      77686F6C 
 4385      655F7665 
 4385      5F6D6170 
 4385      00
 4386 0f65 000000   		.space	3
 4387              	.LC197:
 4388 0f68 7365745F 		.ascii	"set_fuel_map\000"
 4388      6675656C 
 4388      5F6D6170 
ARM GAS  C:\Users\pc\AppData\Local\Temp\cchrhDob.s 			page 89


 4388      00
 4389 0f75 000000   		.space	3
 4390              	.LC198:
 4391 0f78 7365745F 		.ascii	"set_timing_map\000"
 4391      74696D69 
 4391      6E675F6D 
 4391      617000
 4392 0f87 00       		.space	1
 4393              	.LC199:
 4394 0f88 7365745F 		.ascii	"set_rpm_hard_limit\000"
 4394      72706D5F 
 4394      68617264 
 4394      5F6C696D 
 4394      697400
 4395 0f9b 00       		.space	1
 4396              	.LC200:
 4397 0f9c 7365745F 		.ascii	"set_firing_order\000"
 4397      66697269 
 4397      6E675F6F 
 4397      72646572 
 4397      00
 4398 0fad 000000   		.space	3
 4399              	.LC201:
 4400 0fb0 7365745F 		.ascii	"set_algorithm\000"
 4400      616C676F 
 4400      72697468 
 4400      6D00
 4401 0fbe 0000     		.space	2
 4402              	.LC202:
 4403 0fc0 73746F70 		.ascii	"stopengine\000"
 4403      656E6769 
 4403      6E6500
 4404 0fcb 00       		.space	1
 4405              	.LC203:
 4406 0fcc 656E6162 		.ascii	"enable_injection\000"
 4406      6C655F69 
 4406      6E6A6563 
 4406      74696F6E 
 4406      00
 4407 0fdd 000000   		.space	3
 4408              	.LC204:
 4409 0fe0 64697361 		.ascii	"disable_injection\000"
 4409      626C655F 
 4409      696E6A65 
 4409      6374696F 
 4409      6E00
 4410 0ff2 0000     		.space	2
 4411              	.LC205:
 4412 0ff4 656E6162 		.ascii	"enable_ignition\000"
 4412      6C655F69 
 4412      676E6974 
 4412      696F6E00 
 4413              	.LC206:
 4414 1004 64697361 		.ascii	"disable_ignition\000"
 4414      626C655F 
 4414      69676E69 
 4414      74696F6E 
ARM GAS  C:\Users\pc\AppData\Local\Temp\cchrhDob.s 			page 90


 4414      00
 4415 1015 000000   		.space	3
 4416              	.LC207:
 4417 1018 656E6162 		.ascii	"enable_spi\000"
 4417      6C655F73 
 4417      706900
 4418 1023 00       		.space	1
 4419              	.LC208:
 4420 1024 64697361 		.ascii	"disable_spi\000"
 4420      626C655F 
 4420      73706900 
 4421              	.LC209:
 4422 1030 656E6162 		.ascii	"enable\000"
 4422      6C6500
 4423 1037 00       		.space	1
 4424              	.LC210:
 4425 1038 64697361 		.ascii	"disable\000"
 4425      626C6500 
 4426              	.LC211:
 4427 1040 7365745F 		.ascii	"set_toothed_wheel\000"
 4427      746F6F74 
 4427      6865645F 
 4427      77686565 
 4427      6C00
 4428 1052 0000     		.space	2
 4429              	.LC212:
 4430 1054 7365745F 		.ascii	"set_trigger_type\000"
 4430      74726967 
 4430      6765725F 
 4430      74797065 
 4430      00
 4431 1065 000000   		.space	3
 4432              	.LC213:
 4433 1068 7365745F 		.ascii	"set_vbatt_divider\000"
 4433      76626174 
 4433      745F6469 
 4433      76696465 
 4433      7200
 4434 107a 0000     		.space	2
 4435              	.LC214:
 4436 107c 7365745F 		.ascii	"set_injector_lag\000"
 4436      696E6A65 
 4436      63746F72 
 4436      5F6C6167 
 4436      00
 4437 108d 000000   		.space	3
 4438              	.LC215:
 4439 1090 7365745F 		.ascii	"set_clt_bias\000"
 4439      636C745F 
 4439      62696173 
 4439      00
 4440 109d 000000   		.space	3
 4441              	.LC216:
 4442 10a0 7365745F 		.ascii	"set_iat_bias\000"
 4442      6961745F 
 4442      62696173 
 4442      00
ARM GAS  C:\Users\pc\AppData\Local\Temp\cchrhDob.s 			page 91


 4443 10ad 000000   		.space	3
 4444              	.LC217:
 4445 10b0 7365745F 		.ascii	"set_idle_solenoid_freq\000"
 4445      69646C65 
 4445      5F736F6C 
 4445      656E6F69 
 4445      645F6672 
 4446 10c7 00       		.space	1
 4447              	.LC218:
 4448 10c8 7365745F 		.ascii	"set_fan\000"
 4448      66616E00 
 4449              	.LC219:
 4450 10d0 73686F77 		.ascii	"showpin\000"
 4450      70696E00 
 4451              	.LC220:
 4452 10d8 7365745F 		.ascii	"set_injection_pin\000"
 4452      696E6A65 
 4452      6374696F 
 4452      6E5F7069 
 4452      6E00
 4453 10ea 0000     		.space	2
 4454              	.LC221:
 4455 10ec 7365745F 		.ascii	"set_ignition_pin\000"
 4455      69676E69 
 4455      74696F6E 
 4455      5F70696E 
 4455      00
 4456 10fd 000000   		.space	3
 4457              	.LC222:
 4458 1100 7365745F 		.ascii	"set_trigger_input_pin\000"
 4458      74726967 
 4458      6765725F 
 4458      696E7075 
 4458      745F7069 
 4459 1116 0000     		.space	2
 4460              	.LC223:
 4461 1118 7365745F 		.ascii	"set_trigger_simulator_pin\000"
 4461      74726967 
 4461      6765725F 
 4461      73696D75 
 4461      6C61746F 
 4462 1132 0000     		.space	2
 4463              	.LC224:
 4464 1134 7365745F 		.ascii	"set_egt_cs_pin\000"
 4464      6567745F 
 4464      63735F70 
 4464      696E00
 4465 1143 00       		.space	1
 4466              	.LC225:
 4467 1144 7365745F 		.ascii	"set_egt_spi\000"
 4467      6567745F 
 4467      73706900 
 4468              	.LC226:
 4469 1150 7365745F 		.ascii	"set_trigger_simulator_mode\000"
 4469      74726967 
 4469      6765725F 
 4469      73696D75 
ARM GAS  C:\Users\pc\AppData\Local\Temp\cchrhDob.s 			page 92


 4469      6C61746F 
 4470 116b 00       		.space	1
 4471              	.LC227:
 4472 116c 7365745F 		.ascii	"set_fuel_pump_pin\000"
 4472      6675656C 
 4472      5F70756D 
 4472      705F7069 
 4472      6E00
 4473 117e 0000     		.space	2
 4474              	.LC228:
 4475 1180 7365745F 		.ascii	"set_ac_pin\000"
 4475      61635F70 
 4475      696E00
 4476 118b 00       		.space	1
 4477              	.LC229:
 4478 118c 7365745F 		.ascii	"set_alternator_pin\000"
 4478      616C7465 
 4478      726E6174 
 4478      6F725F70 
 4478      696E00
 4479 119f 00       		.space	1
 4480              	.LC230:
 4481 11a0 7365745F 		.ascii	"set_idle_pin\000"
 4481      69646C65 
 4481      5F70696E 
 4481      00
 4482 11ad 000000   		.space	3
 4483              	.LC231:
 4484 11b0 7365745F 		.ascii	"set_main_relay_pin\000"
 4484      6D61696E 
 4484      5F72656C 
 4484      61795F70 
 4484      696E00
 4485 11c3 00       		.space	1
 4486              	.LC232:
 4487 11c4 73657400 		.ascii	"set\000"
 4488              	.LC233:
 4489 11c8 67657400 		.ascii	"get\000"
 4490              	.LC234:
 4491 11cc 7365745F 		.ascii	"set_analog_input_pin\000"
 4491      616E616C 
 4491      6F675F69 
 4491      6E707574 
 4491      5F70696E 
 4492 11e1 000000   		.space	3
 4493              	.LC235:
 4494 11e4 7365745F 		.ascii	"set_logic_input_pin\000"
 4494      6C6F6769 
 4494      635F696E 
 4494      7075745F 
 4494      70696E00 
 4495              	.LC236:
 4496 11f8 7365745F 		.ascii	"set_pot_spi\000"
 4496      706F745F 
 4496      73706900 
 4497              	.LC237:
 4498 1204 73657474 		.ascii	"settings control\000"
ARM GAS  C:\Users\pc\AppData\Local\Temp\cchrhDob.s 			page 93


 4498      696E6773 
 4498      20636F6E 
 4498      74726F6C 
 4498      00
 4499 1215 000000   		.section	.bss._ZL6logger,"aw",%nobits
 4500              		.align	2
 4501              		.set	.LANCHOR0,. + 0
 4502              		.type	_ZL6logger, %object
 4503              		.size	_ZL6logger, 60
 4504              	_ZL6logger:
 4505 0000 00000000 		.space	60
 4505      00000000 
 4505      00000000 
 4505      00000000 
 4505      00000000 
 4506              		.ident	"GCC: (Sourcery CodeBench Lite 2013.11-24) 4.8.1"
ARM GAS  C:\Users\pc\AppData\Local\Temp\cchrhDob.s 			page 94

