ARM GAS  C:\Users\pc\AppData\Local\Temp\ccowpuCz.s 			page 1


   1              		.syntax unified
   2              		.cpu cortex-m4
   3              		.eabi_attribute 27, 3
   4              		.fpu fpv4-sp-d16
   5              		.eabi_attribute 20, 1
   6              		.eabi_attribute 21, 1
   7              		.eabi_attribute 23, 3
   8              		.eabi_attribute 24, 1
   9              		.eabi_attribute 25, 1
  10              		.eabi_attribute 26, 1
  11              		.eabi_attribute 30, 2
  12              		.eabi_attribute 34, 1
  13              		.eabi_attribute 18, 4
  14              		.thumb
  15              		.file	"signal_executor.cpp"
  16              		.section	.text._Z11turnPinHighP14NamedOutputPin,"ax",%progbits
  17              		.align	2
  18              		.p2align 4,,15
  19              		.global	_Z11turnPinHighP14NamedOutputPin
  20              		.thumb
  21              		.thumb_func
  22              		.type	_Z11turnPinHighP14NamedOutputPin, %function
  23              	_Z11turnPinHighP14NamedOutputPin:
  24              		@ args = 0, pretend = 0, frame = 0
  25              		@ frame_needed = 0, uses_anonymous_args = 0
  26              		@ link register save eliminated.
  27 0000 30B4     		push	{r4, r5}
  28 0002 0346     		mov	r3, r0
  29 0004 0028     		cmp	r0, #0
  30 0006 39D0     		beq	.L14
  31 0008 0168     		ldr	r1, [r0]
  32 000a D1B1     		cbz	r1, .L3
  33 000c 8268     		ldr	r2, [r0, #8]
  34 000e 002A     		cmp	r2, #0
  35 0010 3BD0     		beq	.L15
  36 0012 1268     		ldr	r2, [r2]
  37 0014 032A     		cmp	r2, #3
  38 0016 2ADC     		bgt	.L16
  39 0018 C068     		ldr	r0, [r0, #12]
  40 001a 32F00204 		bics	r4, r2, #2
  41 001e 14BF     		ite	ne
  42 0020 0022     		movne	r2, #0
  43 0022 0122     		moveq	r2, #1
  44 0024 0128     		cmp	r0, #1
  45 0026 0CD0     		beq	.L3
  46 0028 5868     		ldr	r0, [r3, #4]
  47 002a 82F00105 		eor	r5, r2, #1
  48 002e 00F11004 		add	r4, r0, #16
  49 0032 02FA00F0 		lsl	r0, r2, r0
  50 0036 05FA04F2 		lsl	r2, r5, r4
  51 003a 0243     		orrs	r2, r2, r0
  52 003c 0124     		movs	r4, #1
  53 003e 8A61     		str	r2, [r1, #24]
  54 0040 DC60     		str	r4, [r3, #12]
  55              	.L3:
  56 0042 40F20002 		movw	r2, #:lower16:persistentState
  57 0046 C0F20002 		movt	r2, #:upper16:persistentState
ARM GAS  C:\Users\pc\AppData\Local\Temp\ccowpuCz.s 			page 2


  58 004a 92F8E025 		ldrb	r2, [r2, #1504]	@ zero_extendqisi2
  59 004e 9206     		lsls	r2, r2, #26
  60 0050 01D4     		bmi	.L17
  61 0052 30BC     		pop	{r4, r5}
  62 0054 7047     		bx	lr
  63              	.L17:
  64 0056 40F20000 		movw	r0, #:lower16:waveChart
  65 005a 40F20002 		movw	r2, #:lower16:.LC3
  66 005e 1969     		ldr	r1, [r3, #16]
  67 0060 C0F20000 		movt	r0, #:upper16:waveChart
  68 0064 C0F20002 		movt	r2, #:upper16:.LC3
  69 0068 30BC     		pop	{r4, r5}
  70 006a FFF7FEBF 		b	_ZN9WaveChart18addWaveChartEvent3EPKcS1_
  71              	.L16:
  72 006e 40F20000 		movw	r0, #:lower16:.LC2
  73 0072 C0F20000 		movt	r0, #:upper16:.LC2
  74 0076 30BC     		pop	{r4, r5}
  75 0078 FFF7FEBF 		b	firmwareError
  76              	.L14:
  77 007c 40F20000 		movw	r0, #:lower16:.LC0
  78 0080 C0F20000 		movt	r0, #:upper16:.LC0
  79 0084 30BC     		pop	{r4, r5}
  80 0086 FFF7FEBF 		b	firmwareError
  81              	.L15:
  82 008a 40F20000 		movw	r0, #:lower16:.LC1
  83 008e C0F20000 		movt	r0, #:upper16:.LC1
  84 0092 30BC     		pop	{r4, r5}
  85 0094 FFF7FEBF 		b	firmwareError
  86              		.size	_Z11turnPinHighP14NamedOutputPin, .-_Z11turnPinHighP14NamedOutputPin
  87 0098 AFF30080 		.section	.text._Z10turnPinLowP14NamedOutputPin,"ax",%progbits
  87      AFF30080 
  88              		.align	2
  89              		.p2align 4,,15
  90              		.global	_Z10turnPinLowP14NamedOutputPin
  91              		.thumb
  92              		.thumb_func
  93              		.type	_Z10turnPinLowP14NamedOutputPin, %function
  94              	_Z10turnPinLowP14NamedOutputPin:
  95              		@ args = 0, pretend = 0, frame = 0
  96              		@ frame_needed = 0, uses_anonymous_args = 0
  97              		@ link register save eliminated.
  98 0000 30B4     		push	{r4, r5}
  99 0002 0346     		mov	r3, r0
 100 0004 0028     		cmp	r0, #0
 101 0006 38D0     		beq	.L30
 102 0008 0168     		ldr	r1, [r0]
 103 000a C9B1     		cbz	r1, .L20
 104 000c 8268     		ldr	r2, [r0, #8]
 105 000e 002A     		cmp	r2, #0
 106 0010 3AD0     		beq	.L31
 107 0012 1268     		ldr	r2, [r2]
 108 0014 032A     		cmp	r2, #3
 109 0016 29DC     		bgt	.L32
 110 0018 22F00202 		bic	r2, r2, #2
 111 001c 541E     		subs	r4, r2, #1
 112 001e C068     		ldr	r0, [r0, #12]
 113 0020 6242     		rsbs	r2, r4, #0
ARM GAS  C:\Users\pc\AppData\Local\Temp\ccowpuCz.s 			page 3


 114 0022 6241     		adcs	r2, r2, r4
 115 0024 60B1     		cbz	r0, .L20
 116 0026 5868     		ldr	r0, [r3, #4]
 117 0028 82F00105 		eor	r5, r2, #1
 118 002c 00F11004 		add	r4, r0, #16
 119 0030 02FA00F0 		lsl	r0, r2, r0
 120 0034 05FA04F2 		lsl	r2, r5, r4
 121 0038 0243     		orrs	r2, r2, r0
 122 003a 0024     		movs	r4, #0
 123 003c 8A61     		str	r2, [r1, #24]
 124 003e DC60     		str	r4, [r3, #12]
 125              	.L20:
 126 0040 40F20002 		movw	r2, #:lower16:persistentState
 127 0044 C0F20002 		movt	r2, #:upper16:persistentState
 128 0048 92F8E025 		ldrb	r2, [r2, #1504]	@ zero_extendqisi2
 129 004c 9106     		lsls	r1, r2, #26
 130 004e 01D4     		bmi	.L33
 131 0050 30BC     		pop	{r4, r5}
 132 0052 7047     		bx	lr
 133              	.L33:
 134 0054 40F20000 		movw	r0, #:lower16:waveChart
 135 0058 40F20002 		movw	r2, #:lower16:.LC5
 136 005c 1969     		ldr	r1, [r3, #16]
 137 005e C0F20000 		movt	r0, #:upper16:waveChart
 138 0062 C0F20002 		movt	r2, #:upper16:.LC5
 139 0066 30BC     		pop	{r4, r5}
 140 0068 FFF7FEBF 		b	_ZN9WaveChart18addWaveChartEvent3EPKcS1_
 141              	.L32:
 142 006c 40F20000 		movw	r0, #:lower16:.LC2
 143 0070 C0F20000 		movt	r0, #:upper16:.LC2
 144 0074 30BC     		pop	{r4, r5}
 145 0076 FFF7FEBF 		b	firmwareError
 146              	.L30:
 147 007a 40F20000 		movw	r0, #:lower16:.LC4
 148 007e C0F20000 		movt	r0, #:upper16:.LC4
 149 0082 30BC     		pop	{r4, r5}
 150 0084 FFF7FEBF 		b	firmwareError
 151              	.L31:
 152 0088 40F20000 		movw	r0, #:lower16:.LC1
 153 008c C0F20000 		movt	r0, #:upper16:.LC1
 154 0090 30BC     		pop	{r4, r5}
 155 0092 FFF7FEBF 		b	firmwareError
 156              		.size	_Z10turnPinLowP14NamedOutputPin, .-_Z10turnPinLowP14NamedOutputPin
 157 0096 00BFAFF3 		.section	.text._Z18initSignalExecutorv,"ax",%progbits
 157      0080AFF3 
 157      0080
 158              		.align	2
 159              		.p2align 4,,15
 160              		.global	_Z18initSignalExecutorv
 161              		.thumb
 162              		.thumb_func
 163              		.type	_Z18initSignalExecutorv, %function
 164              	_Z18initSignalExecutorv:
 165              		@ args = 0, pretend = 0, frame = 0
 166              		@ frame_needed = 0, uses_anonymous_args = 0
 167 0000 08B5     		push	{r3, lr}
 168 0002 FFF7FEFF 		bl	_Z22initSignalExecutorImplv
ARM GAS  C:\Users\pc\AppData\Local\Temp\ccowpuCz.s 			page 4


 169 0006 0F4A     		ldr	r2, .L41
 170 0008 40F20003 		movw	r3, #:lower16:enginePins
 171 000c 02F13000 		add	r0, r2, #48
 172 0010 C0F20003 		movt	r3, #:upper16:enginePins
 173              	.L36:
 174 0014 52F8041F 		ldr	r1, [r2, #4]!
 175 0018 8242     		cmp	r2, r0
 176 001a C3F86011 		str	r1, [r3, #352]
 177 001e 03F11403 		add	r3, r3, #20
 178 0022 F7D1     		bne	.L36
 179 0024 084A     		ldr	r2, .L41+4
 180 0026 40F20003 		movw	r3, #:lower16:enginePins
 181 002a 02F13000 		add	r0, r2, #48
 182 002e C0F20003 		movt	r3, #:upper16:enginePins
 183              	.L38:
 184 0032 52F8041F 		ldr	r1, [r2, #4]!
 185 0036 8242     		cmp	r2, r0
 186 0038 1967     		str	r1, [r3, #112]
 187 003a 03F11403 		add	r3, r3, #20
 188 003e F8D1     		bne	.L38
 189 0040 08BD     		pop	{r3, pc}
 190              	.L42:
 191 0042 00BF     		.align	2
 192              	.L41:
 193 0044 FCFFFFFF 		.word	.LANCHOR0-4
 194 0048 FCFFFFFF 		.word	.LANCHOR1-4
 195              		.size	_Z18initSignalExecutorv, .-_Z18initSignalExecutorv
 196              		.global	__aeabi_f2d
 197 004c AFF30080 		.section	.text._Z14scheduleOutputP19OutputSignal_structyff,"ax",%progbits
 198              		.align	2
 199              		.p2align 4,,15
 200              		.global	_Z14scheduleOutputP19OutputSignal_structyff
 201              		.thumb
 202              		.thumb_func
 203              		.type	_Z14scheduleOutputP19OutputSignal_structyff, %function
 204              	_Z14scheduleOutputP19OutputSignal_structyff:
 205              		@ args = 8, pretend = 0, frame = 0
 206              		@ frame_needed = 0, uses_anonymous_args = 0
 207 0000 2DE9F043 		push	{r4, r5, r6, r7, r8, r9, lr}
 208 0004 2DED028B 		fstmfdd	sp!, {d8}
 209 0008 83B0     		sub	sp, sp, #12
 210 000a 9DED0D8A 		flds	s16, [sp, #52]
 211 000e B5EEC08A 		fcmpezs	s16
 212 0012 F1EE10FA 		fmstat
 213 0016 0646     		mov	r6, r0
 214 0018 DDED0C8A 		flds	s17, [sp, #48]
 215 001c 1446     		mov	r4, r2
 216 001e 1D46     		mov	r5, r3
 217 0020 18EE100A 		fmrs	r0, s16
 218 0024 4ED4     		bmi	.L51
 219 0026 FFF7FEFF 		bl	__fpclassifyf
 220 002a 0028     		cmp	r0, #0
 221 002c 5BD0     		beq	.L52
 222 002e 002E     		cmp	r6, #0
 223 0030 64D0     		beq	.L53
 224 0032 FFF7FEFF 		bl	_Z20getRevolutionCounterv
 225 0036 FDEEE87A 		ftosizs	s15, s17
ARM GAS  C:\Users\pc\AppData\Local\Temp\ccowpuCz.s 			page 5


 226 003a 00EBD07E 		add	lr, r0, r0, lsr #31
 227 003e 0EF0010E 		and	lr, lr, #1
 228 0042 17EE902A 		fmrs	r2, s15	@ int
 229 0046 AEEBD070 		sub	r0, lr, r0, lsr #31
 230 004a 00EB4000 		add	r0, r0, r0, lsl #1
 231 004e 3768     		ldr	r7, [r6]
 232 0050 14EB0208 		adds	r8, r4, r2
 233 0054 4FEAC00E 		lsl	lr, r0, #3
 234 0058 40F20003 		movw	r3, #:lower16:_Z11turnPinHighP14NamedOutputPin
 235 005c 45EBE279 		adc	r9, r5, r2, asr #31
 236 0060 0EF10801 		add	r1, lr, #8
 237 0064 C0F20003 		movt	r3, #:upper16:_Z11turnPinHighP14NamedOutputPin
 238 0068 40F20000 		movw	r0, #:lower16:.LC9
 239 006c 3144     		add	r1, r1, r6
 240 006e 0EF1380E 		add	lr, lr, #56
 241 0072 0093     		str	r3, [sp]
 242 0074 4246     		mov	r2, r8
 243 0076 4B46     		mov	r3, r9
 244 0078 0197     		str	r7, [sp, #4]
 245 007a C0F20000 		movt	r0, #:upper16:.LC9
 246 007e 06EB0E07 		add	r7, r6, lr
 247 0082 FFF7FEFF 		bl	_Z14scheduleByTimePKcP12scheduling_syPFvPvES3_
 248 0086 38EE888A 		fadds	s16, s17, s16
 249 008a 3368     		ldr	r3, [r6]
 250 008c BDEEC88A 		ftosizs	s16, s16
 251 0090 40F20006 		movw	r6, #:lower16:_Z10turnPinLowP14NamedOutputPin
 252 0094 18EE102A 		fmrs	r2, s16	@ int
 253 0098 14EB0208 		adds	r8, r4, r2
 254 009c 45EBE279 		adc	r9, r5, r2, asr #31
 255 00a0 40F20000 		movw	r0, #:lower16:.LC10
 256 00a4 C0F20006 		movt	r6, #:upper16:_Z10turnPinLowP14NamedOutputPin
 257 00a8 0D93     		str	r3, [sp, #52]
 258 00aa 3946     		mov	r1, r7
 259 00ac 4246     		mov	r2, r8
 260 00ae 4B46     		mov	r3, r9
 261 00b0 C0F20000 		movt	r0, #:upper16:.LC10
 262 00b4 0C96     		str	r6, [sp, #48]
 263 00b6 03B0     		add	sp, sp, #12
 264              		@ sp needed
 265 00b8 BDEC028B 		fldmfdd	sp!, {d8}
 266 00bc BDE8F043 		pop	{r4, r5, r6, r7, r8, r9, lr}
 267 00c0 FFF7FEBF 		b	_Z14scheduleByTimePKcP12scheduling_syPFvPvES3_
 268              	.L51:
 269 00c4 FFF7FEFF 		bl	__aeabi_f2d
 270 00c8 0B46     		mov	r3, r1
 271 00ca 40F20001 		movw	r1, #:lower16:.LC6
 272 00ce 0246     		mov	r2, r0
 273 00d0 C0F20001 		movt	r1, #:upper16:.LC6
 274              	.L50:
 275 00d4 40F25E20 		movw	r0, #606
 276 00d8 03B0     		add	sp, sp, #12
 277              		@ sp needed
 278 00da BDEC028B 		fldmfdd	sp!, {d8}
 279 00de BDE8F043 		pop	{r4, r5, r6, r7, r8, r9, lr}
 280 00e2 FFF7FEBF 		b	warning
 281              	.L52:
 282 00e6 18EE100A 		fmrs	r0, s16
ARM GAS  C:\Users\pc\AppData\Local\Temp\ccowpuCz.s 			page 6


 283 00ea FFF7FEFF 		bl	__aeabi_f2d
 284 00ee 0B46     		mov	r3, r1
 285 00f0 40F20001 		movw	r1, #:lower16:.LC7
 286 00f4 0246     		mov	r2, r0
 287 00f6 C0F20001 		movt	r1, #:upper16:.LC7
 288 00fa EBE7     		b	.L50
 289              	.L53:
 290 00fc 40F20000 		movw	r0, #:lower16:.LC8
 291 0100 C0F20000 		movt	r0, #:upper16:.LC8
 292 0104 03B0     		add	sp, sp, #12
 293              		@ sp needed
 294 0106 BDEC028B 		fldmfdd	sp!, {d8}
 295 010a BDE8F043 		pop	{r4, r5, r6, r7, r8, r9, lr}
 296 010e FFF7FEBF 		b	firmwareError
 297              		.size	_Z14scheduleOutputP19OutputSignal_structyff, .-_Z14scheduleOutputP19OutputSignal_structyff
 298 0112 00BFAFF3 		.section	.rodata.str1.4,"aMS",%progbits,1
 298      0080AFF3 
 298      0080AFF3 
 298      0080
 299              		.align	2
 300              	.LC0:
 301 0000 4E554C4C 		.ascii	"NULL @ turnPinHigh\000"
 301      20402074 
 301      75726E50 
 301      696E4869 
 301      676800
 302 0013 00       		.space	1
 303              	.LC1:
 304 0014 70696E20 		.ascii	"pin mode not initialized\000"
 304      6D6F6465 
 304      206E6F74 
 304      20696E69 
 304      7469616C 
 305 002d 000000   		.space	3
 306              	.LC2:
 307 0030 696E7661 		.ascii	"invalid pin_output_mode_e\000"
 307      6C696420 
 307      70696E5F 
 307      6F757470 
 307      75745F6D 
 308 004a 0000     		.space	2
 309              	.LC3:
 310 004c 7500     		.ascii	"u\000"
 311 004e 0000     		.space	2
 312              	.LC4:
 313 0050 4E554C4C 		.ascii	"NULL turnPinLow\000"
 313      20747572 
 313      6E50696E 
 313      4C6F7700 
 314              	.LC5:
 315 0060 6400     		.ascii	"d\000"
 316 0062 0000     		.space	2
 317              	.LC6:
 318 0064 64757261 		.ascii	"duration cannot be negative: %d\000"
 318      74696F6E 
 318      2063616E 
 318      6E6F7420 
ARM GAS  C:\Users\pc\AppData\Local\Temp\ccowpuCz.s 			page 7


 318      6265206E 
 319              	.LC7:
 320 0084 4E614E20 		.ascii	"NaN in scheduleOutput\000"
 320      696E2073 
 320      63686564 
 320      756C654F 
 320      75747075 
 321 009a 0000     		.space	2
 322              	.LC8:
 323 009c 7369676E 		.ascii	"signal is NULL\000"
 323      616C2069 
 323      73204E55 
 323      4C4C00
 324 00ab 00       		.space	1
 325              	.LC9:
 326 00ac 6F757420 		.ascii	"out up\000"
 326      757000
 327 00b3 00       		.space	1
 328              	.LC10:
 329 00b4 6F757420 		.ascii	"out down\000"
 329      646F776E 
 329      00
 330 00bd 000000   		.space	3
 331              	.LC11:
 332 00c0 693100   		.ascii	"i1\000"
 333 00c3 00       		.space	1
 334              	.LC12:
 335 00c4 693200   		.ascii	"i2\000"
 336 00c7 00       		.space	1
 337              	.LC13:
 338 00c8 693300   		.ascii	"i3\000"
 339 00cb 00       		.space	1
 340              	.LC14:
 341 00cc 693400   		.ascii	"i4\000"
 342 00cf 00       		.space	1
 343              	.LC15:
 344 00d0 693500   		.ascii	"i5\000"
 345 00d3 00       		.space	1
 346              	.LC16:
 347 00d4 693600   		.ascii	"i6\000"
 348 00d7 00       		.space	1
 349              	.LC17:
 350 00d8 693700   		.ascii	"i7\000"
 351 00db 00       		.space	1
 352              	.LC18:
 353 00dc 693800   		.ascii	"i8\000"
 354 00df 00       		.space	1
 355              	.LC19:
 356 00e0 6A3900   		.ascii	"j9\000"
 357 00e3 00       		.space	1
 358              	.LC20:
 359 00e4 694100   		.ascii	"iA\000"
 360 00e7 00       		.space	1
 361              	.LC21:
 362 00e8 694200   		.ascii	"iB\000"
 363 00eb 00       		.space	1
 364              	.LC22:
ARM GAS  C:\Users\pc\AppData\Local\Temp\ccowpuCz.s 			page 8


 365 00ec 694300   		.ascii	"iC\000"
 366 00ef 00       		.space	1
 367              	.LC23:
 368 00f0 633100   		.ascii	"c1\000"
 369 00f3 00       		.space	1
 370              	.LC24:
 371 00f4 633200   		.ascii	"c2\000"
 372 00f7 00       		.space	1
 373              	.LC25:
 374 00f8 633300   		.ascii	"c3\000"
 375 00fb 00       		.space	1
 376              	.LC26:
 377 00fc 633400   		.ascii	"c4\000"
 378 00ff 00       		.space	1
 379              	.LC27:
 380 0100 633500   		.ascii	"c5\000"
 381 0103 00       		.space	1
 382              	.LC28:
 383 0104 633600   		.ascii	"c6\000"
 384 0107 00       		.space	1
 385              	.LC29:
 386 0108 633700   		.ascii	"c7\000"
 387 010b 00       		.space	1
 388              	.LC30:
 389 010c 633800   		.ascii	"c8\000"
 390 010f 00       		.space	1
 391              	.LC31:
 392 0110 633900   		.ascii	"c9\000"
 393 0113 00       		.space	1
 394              	.LC32:
 395 0114 634100   		.ascii	"cA\000"
 396 0117 00       		.space	1
 397              	.LC33:
 398 0118 634200   		.ascii	"cB\000"
 399 011b 00       		.space	1
 400              	.LC34:
 401 011c 634400   		.ascii	"cD\000"
 402 011f 00       		.section	.rodata._ZL10sparkNames,"a",%progbits
 403              		.align	2
 404              		.set	.LANCHOR0,. + 0
 405              		.type	_ZL10sparkNames, %object
 406              		.size	_ZL10sparkNames, 48
 407              	_ZL10sparkNames:
 408 0000 F0000000 		.word	.LC23
 409 0004 F4000000 		.word	.LC24
 410 0008 F8000000 		.word	.LC25
 411 000c FC000000 		.word	.LC26
 412 0010 00010000 		.word	.LC27
 413 0014 04010000 		.word	.LC28
 414 0018 08010000 		.word	.LC29
 415 001c 0C010000 		.word	.LC30
 416 0020 10010000 		.word	.LC31
 417 0024 14010000 		.word	.LC32
 418 0028 18010000 		.word	.LC33
 419 002c 1C010000 		.word	.LC34
 420              		.section	.rodata._ZL13injectorNames,"a",%progbits
 421              		.align	2
ARM GAS  C:\Users\pc\AppData\Local\Temp\ccowpuCz.s 			page 9


 422              		.set	.LANCHOR1,. + 0
 423              		.type	_ZL13injectorNames, %object
 424              		.size	_ZL13injectorNames, 48
 425              	_ZL13injectorNames:
 426 0000 C0000000 		.word	.LC11
 427 0004 C4000000 		.word	.LC12
 428 0008 C8000000 		.word	.LC13
 429 000c CC000000 		.word	.LC14
 430 0010 D0000000 		.word	.LC15
 431 0014 D4000000 		.word	.LC16
 432 0018 D8000000 		.word	.LC17
 433 001c DC000000 		.word	.LC18
 434 0020 E0000000 		.word	.LC19
 435 0024 E4000000 		.word	.LC20
 436 0028 E8000000 		.word	.LC21
 437 002c EC000000 		.word	.LC22
 438              		.ident	"GCC: (Sourcery CodeBench Lite 2013.11-24) 4.8.1"
ARM GAS  C:\Users\pc\AppData\Local\Temp\ccowpuCz.s 			page 10


DEFINED SYMBOLS
                            *ABS*:00000000 signal_executor.cpp
C:\Users\pc\AppData\Local\Temp\ccowpuCz.s:17     .text._Z11turnPinHighP14NamedOutputPin:00000000 $t
C:\Users\pc\AppData\Local\Temp\ccowpuCz.s:23     .text._Z11turnPinHighP14NamedOutputPin:00000000 _Z11turnPinHighP14NamedOutputPin
C:\Users\pc\AppData\Local\Temp\ccowpuCz.s:309    .rodata.str1.4:0000004c .LC3
C:\Users\pc\AppData\Local\Temp\ccowpuCz.s:306    .rodata.str1.4:00000030 .LC2
C:\Users\pc\AppData\Local\Temp\ccowpuCz.s:300    .rodata.str1.4:00000000 .LC0
C:\Users\pc\AppData\Local\Temp\ccowpuCz.s:303    .rodata.str1.4:00000014 .LC1
C:\Users\pc\AppData\Local\Temp\ccowpuCz.s:88     .text._Z10turnPinLowP14NamedOutputPin:00000000 $t
C:\Users\pc\AppData\Local\Temp\ccowpuCz.s:94     .text._Z10turnPinLowP14NamedOutputPin:00000000 _Z10turnPinLowP14NamedOutputPin
C:\Users\pc\AppData\Local\Temp\ccowpuCz.s:314    .rodata.str1.4:00000060 .LC5
C:\Users\pc\AppData\Local\Temp\ccowpuCz.s:312    .rodata.str1.4:00000050 .LC4
C:\Users\pc\AppData\Local\Temp\ccowpuCz.s:158    .text._Z18initSignalExecutorv:00000000 $t
C:\Users\pc\AppData\Local\Temp\ccowpuCz.s:164    .text._Z18initSignalExecutorv:00000000 _Z18initSignalExecutorv
C:\Users\pc\AppData\Local\Temp\ccowpuCz.s:193    .text._Z18initSignalExecutorv:00000044 $d
C:\Users\pc\AppData\Local\Temp\ccowpuCz.s:198    .text._Z14scheduleOutputP19OutputSignal_structyff:00000000 $t
C:\Users\pc\AppData\Local\Temp\ccowpuCz.s:204    .text._Z14scheduleOutputP19OutputSignal_structyff:00000000 _Z14scheduleOutputP19OutputSignal_structyff
C:\Users\pc\AppData\Local\Temp\ccowpuCz.s:325    .rodata.str1.4:000000ac .LC9
C:\Users\pc\AppData\Local\Temp\ccowpuCz.s:328    .rodata.str1.4:000000b4 .LC10
C:\Users\pc\AppData\Local\Temp\ccowpuCz.s:317    .rodata.str1.4:00000064 .LC6
C:\Users\pc\AppData\Local\Temp\ccowpuCz.s:319    .rodata.str1.4:00000084 .LC7
C:\Users\pc\AppData\Local\Temp\ccowpuCz.s:322    .rodata.str1.4:0000009c .LC8
C:\Users\pc\AppData\Local\Temp\ccowpuCz.s:299    .rodata.str1.4:00000000 $d
C:\Users\pc\AppData\Local\Temp\ccowpuCz.s:403    .rodata._ZL10sparkNames:00000000 $d
C:\Users\pc\AppData\Local\Temp\ccowpuCz.s:407    .rodata._ZL10sparkNames:00000000 _ZL10sparkNames
C:\Users\pc\AppData\Local\Temp\ccowpuCz.s:421    .rodata._ZL13injectorNames:00000000 $d
C:\Users\pc\AppData\Local\Temp\ccowpuCz.s:425    .rodata._ZL13injectorNames:00000000 _ZL13injectorNames
C:\Users\pc\AppData\Local\Temp\ccowpuCz.s:197    .text._Z18initSignalExecutorv:0000004c $t

UNDEFINED SYMBOLS
persistentState
waveChart
_ZN9WaveChart18addWaveChartEvent3EPKcS1_
firmwareError
_Z22initSignalExecutorImplv
enginePins
__aeabi_f2d
__fpclassifyf
_Z20getRevolutionCounterv
_Z14scheduleByTimePKcP12scheduling_syPFvPvES3_
warning
