ARM GAS  C:\Users\pc\AppData\Local\Temp\ccAy7kQc.s 			page 1


   1              		.syntax unified
   2              		.cpu cortex-m4
   3              		.eabi_attribute 27, 3
   4              		.fpu fpv4-sp-d16
   5              		.eabi_attribute 20, 1
   6              		.eabi_attribute 21, 1
   7              		.eabi_attribute 23, 3
   8              		.eabi_attribute 24, 1
   9              		.eabi_attribute 25, 1
  10              		.eabi_attribute 26, 1
  11              		.eabi_attribute 30, 2
  12              		.eabi_attribute 34, 1
  13              		.eabi_attribute 18, 4
  14              		.thumb
  15              		.file	"SingleTimerExecutor.cpp"
  16              		.section	.text._ZN8ExecutorC2Ev,"ax",%progbits
  17              		.align	2
  18              		.p2align 4,,15
  19              		.global	_ZN8ExecutorC2Ev
  20              		.thumb
  21              		.thumb_func
  22              		.type	_ZN8ExecutorC2Ev, %function
  23              	_ZN8ExecutorC2Ev:
  24              		@ args = 0, pretend = 0, frame = 0
  25              		@ frame_needed = 0, uses_anonymous_args = 0
  26 0000 10B5     		push	{r4, lr}
  27 0002 0446     		mov	r4, r0
  28 0004 FFF7FEFF 		bl	_ZN10EventQueueC1Ev
  29 0008 0023     		movs	r3, #0
  30 000a 2046     		mov	r0, r4
  31 000c 2374     		strb	r3, [r4, #16]
  32 000e 44F2A011 		movw	r1, #16800
  33 0012 FFF7FEFF 		bl	_ZN10EventQueue12setLateDelayEi
  34 0016 2046     		mov	r0, r4
  35 0018 10BD     		pop	{r4, pc}
  36              		.size	_ZN8ExecutorC2Ev, .-_ZN8ExecutorC2Ev
  37              		.global	_ZN8ExecutorC1Ev
  38              		.thumb_set _ZN8ExecutorC1Ev,_ZN8ExecutorC2Ev
  39 001a 00BFAFF3 		.section	.text._ZN8Executor9doExecuteEv,"ax",%progbits
  39      0080
  40              		.align	2
  41              		.p2align 4,,15
  42              		.global	_ZN8Executor9doExecuteEv
  43              		.thumb
  44              		.thumb_func
  45              		.type	_ZN8Executor9doExecuteEv, %function
  46              	_ZN8Executor9doExecuteEv:
  47              		@ args = 0, pretend = 0, frame = 0
  48              		@ frame_needed = 0, uses_anonymous_args = 0
  49 0000 38B5     		push	{r3, r4, r5, lr}
  50 0002 0123     		movs	r3, #1
  51 0004 0546     		mov	r5, r0
  52 0006 0374     		strb	r3, [r0, #16]
  53 0008 0024     		movs	r4, #0
  54              	.L4:
  55 000a FFF7FEFF 		bl	getTimeNowNt
  56 000e 0246     		mov	r2, r0
ARM GAS  C:\Users\pc\AppData\Local\Temp\ccAy7kQc.s 			page 2


  57 0010 0B46     		mov	r3, r1
  58 0012 2846     		mov	r0, r5
  59 0014 FFF7FEFF 		bl	_ZN10EventQueue10executeAllEy
  60 0018 0028     		cmp	r0, #0
  61 001a 0444     		add	r4, r4, r0
  62 001c F5DC     		bgt	.L4
  63 001e 40F20002 		movw	r2, #:lower16:dbg_lock_cnt
  64 0022 C0F20002 		movt	r2, #:upper16:dbg_lock_cnt
  65 0026 40F20003 		movw	r3, #:lower16:.LANCHOR0
  66 002a 1268     		ldr	r2, [r2]
  67 002c C0F20003 		movt	r3, #:upper16:.LANCHOR0
  68 0030 002A     		cmp	r2, #0
  69 0032 1C60     		str	r4, [r3]
  70 0034 02DD     		ble	.L7
  71 0036 0023     		movs	r3, #0
  72 0038 2B74     		strb	r3, [r5, #16]
  73 003a 38BD     		pop	{r3, r4, r5, pc}
  74              	.L7:
  75 003c 40F20000 		movw	r0, #:lower16:.LC0
  76 0040 C0F20000 		movt	r0, #:upper16:.LC0
  77 0044 BDE83840 		pop	{r3, r4, r5, lr}
  78 0048 FFF7FEBF 		b	firmwareError
  79              		.size	_ZN8Executor9doExecuteEv, .-_ZN8Executor9doExecuteEv
  80 004c AFF30080 		.section	.text._ZN8Executor21scheduleTimerCallbackEv,"ax",%progbits
  81              		.align	2
  82              		.p2align 4,,15
  83              		.global	_ZN8Executor21scheduleTimerCallbackEv
  84              		.thumb
  85              		.thumb_func
  86              		.type	_ZN8Executor21scheduleTimerCallbackEv, %function
  87              	_ZN8Executor21scheduleTimerCallbackEv:
  88              		@ args = 0, pretend = 0, frame = 0
  89              		@ frame_needed = 0, uses_anonymous_args = 0
  90 0000 70B5     		push	{r4, r5, r6, lr}
  91 0002 0646     		mov	r6, r0
  92 0004 FFF7FEFF 		bl	getTimeNowNt
  93 0008 0446     		mov	r4, r0
  94 000a 0B46     		mov	r3, r1
  95 000c 3046     		mov	r0, r6
  96 000e 2246     		mov	r2, r4
  97 0010 0D46     		mov	r5, r1
  98 0012 FFF7FEFF 		bl	_ZN10EventQueue16getNextEventTimeEy
  99 0016 40F20003 		movw	r3, #:lower16:.LANCHOR1
 100 001a C0F20003 		movt	r3, #:upper16:.LANCHOR1
 101 001e 8D42     		cmp	r5, r1
 102 0020 08BF     		it eq
 103 0022 8442     		cmpeq	r4, r0
 104 0024 C3E90001 		strd	r0, [r3]
 105 0028 28D2     		bcs	.L13
 106 002a 4FF0FF32 		mov	r2, #-1
 107 002e 6FF07043 		mvn	r3, #-268435456
 108 0032 9942     		cmp	r1, r3
 109 0034 08BF     		it eq
 110 0036 9042     		cmpeq	r0, r2
 111 0038 1FD0     		beq	.L8
 112 003a 40F63143 		movw	r3, #3121
 113 003e 4FF48056 		mov	r6, #4096
ARM GAS  C:\Users\pc\AppData\Local\Temp\ccAy7kQc.s 			page 3


 114 0042 001B     		subs	r0, r0, r4
 115 0044 CEF20006 		movt	r6, 57344
 116 0048 C3F2C303 		movt	r3, 12483
 117 004c 83FB0023 		smull	r2, r3, r3, r0
 118 0050 40F20005 		movw	r5, #:lower16:.LANCHOR2
 119 0054 C017     		asrs	r0, r0, #31
 120 0056 D0EB6310 		rsbs	r0, r0, r3, asr #5
 121 005a 7268     		ldr	r2, [r6, #4]
 122 005c C0F20005 		movt	r5, #:upper16:.LANCHOR2
 123 0060 08BF     		it	eq
 124 0062 0120     		moveq	r0, #1
 125 0064 2A60     		str	r2, [r5]
 126 0066 FFF7FEFF 		bl	setHardwareUsTimer
 127 006a 7168     		ldr	r1, [r6, #4]
 128 006c 2A68     		ldr	r2, [r5]
 129 006e 40F20003 		movw	r3, #:lower16:.LANCHOR3
 130 0072 C0F20003 		movt	r3, #:upper16:.LANCHOR3
 131 0076 8A1A     		subs	r2, r1, r2
 132 0078 1A60     		str	r2, [r3]
 133              	.L8:
 134 007a 70BD     		pop	{r4, r5, r6, pc}
 135              	.L13:
 136 007c 40F20000 		movw	r0, #:lower16:.LC1
 137 0080 C0F20000 		movt	r0, #:upper16:.LC1
 138 0084 BDE87040 		pop	{r4, r5, r6, lr}
 139 0088 FFF7FEBF 		b	firmwareError
 140              		.size	_ZN8Executor21scheduleTimerCallbackEv, .-_ZN8Executor21scheduleTimerCallbackEv
 141 008c AFF30080 		.section	.text._ZN8Executor14scheduleByTimeEP12scheduling_syPFvPvES2_,"ax",%progbits
 142              		.align	2
 143              		.p2align 4,,15
 144              		.global	_ZN8Executor14scheduleByTimeEP12scheduling_syPFvPvES2_
 145              		.thumb
 146              		.thumb_func
 147              		.type	_ZN8Executor14scheduleByTimeEP12scheduling_syPFvPvES2_, %function
 148              	_ZN8Executor14scheduleByTimeEP12scheduling_syPFvPvES2_:
 149              		@ args = 8, pretend = 0, frame = 8
 150              		@ frame_needed = 0, uses_anonymous_args = 0
 151 0000 2DE9F041 		push	{r4, r5, r6, r7, r8, lr}
 152 0004 0446     		mov	r4, r0
 153 0006 84B0     		sub	sp, sp, #16
 154 0008 007C     		ldrb	r0, [r0, #16]	@ zero_extendqisi2
 155 000a 0A9E     		ldr	r6, [sp, #40]
 156 000c 0B9D     		ldr	r5, [sp, #44]
 157 000e 1746     		mov	r7, r2
 158 0010 9846     		mov	r8, r3
 159 0012 C0B1     		cbz	r0, .L21
 160              	.L15:
 161 0014 A820     		movs	r0, #168
 162 0016 A7FB0023 		umull	r2, r3, r7, r0
 163 001a 00FB0833 		mla	r3, r0, r8, r3
 164 001e 0195     		str	r5, [sp, #4]
 165 0020 0096     		str	r6, [sp]
 166 0022 2046     		mov	r0, r4
 167 0024 FFF7FEFF 		bl	_ZN10EventQueue10insertTaskEP12scheduling_syPFvPvES2_
 168 0028 237C     		ldrb	r3, [r4, #16]	@ zero_extendqisi2
 169 002a 0546     		mov	r5, r0
 170 002c 13B1     		cbz	r3, .L22
ARM GAS  C:\Users\pc\AppData\Local\Temp\ccAy7kQc.s 			page 4


 171 002e 04B0     		add	sp, sp, #16
 172              		@ sp needed
 173 0030 BDE8F081 		pop	{r4, r5, r6, r7, r8, pc}
 174              	.L22:
 175 0034 2046     		mov	r0, r4
 176 0036 FFF7FEFF 		bl	_ZN8Executor9doExecuteEv
 177 003a 4DB9     		cbnz	r5, .L23
 178 003c 04B0     		add	sp, sp, #16
 179              		@ sp needed
 180 003e BDE8F041 		pop	{r4, r5, r6, r7, r8, lr}
 181 0042 FFF7FEBF 		b	unlockAnyContext
 182              	.L21:
 183 0046 0391     		str	r1, [sp, #12]
 184 0048 FFF7FEFF 		bl	lockAnyContext
 185 004c 0399     		ldr	r1, [sp, #12]
 186 004e E1E7     		b	.L15
 187              	.L23:
 188 0050 2046     		mov	r0, r4
 189 0052 FFF7FEFF 		bl	_ZN8Executor21scheduleTimerCallbackEv
 190 0056 04B0     		add	sp, sp, #16
 191              		@ sp needed
 192 0058 BDE8F041 		pop	{r4, r5, r6, r7, r8, lr}
 193 005c FFF7FEBF 		b	unlockAnyContext
 194              		.size	_ZN8Executor14scheduleByTimeEP12scheduling_syPFvPvES2_, .-_ZN8Executor14scheduleByTimeEP12sc
 195              		.section	.text._ZN8Executor8scheduleEP12scheduling_syiPFvPvES2_,"ax",%progbits
 196              		.align	2
 197              		.p2align 4,,15
 198              		.global	_ZN8Executor8scheduleEP12scheduling_syiPFvPvES2_
 199              		.thumb
 200              		.thumb_func
 201              		.type	_ZN8Executor8scheduleEP12scheduling_syiPFvPvES2_, %function
 202              	_ZN8Executor8scheduleEP12scheduling_syiPFvPvES2_:
 203              		@ args = 12, pretend = 0, frame = 0
 204              		@ frame_needed = 0, uses_anonymous_args = 0
 205              		@ link register save eliminated.
 206 0000 70B4     		push	{r4, r5, r6}
 207 0002 039E     		ldr	r6, [sp, #12]
 208 0004 049D     		ldr	r5, [sp, #16]
 209 0006 059C     		ldr	r4, [sp, #20]
 210 0008 0395     		str	r5, [sp, #12]
 211 000a 9219     		adds	r2, r2, r6
 212 000c 43EBE673 		adc	r3, r3, r6, asr #31
 213 0010 0494     		str	r4, [sp, #16]
 214 0012 70BC     		pop	{r4, r5, r6}
 215 0014 FFF7FEBF 		b	_ZN8Executor14scheduleByTimeEP12scheduling_syPFvPvES2_
 216              		.size	_ZN8Executor8scheduleEP12scheduling_syiPFvPvES2_, .-_ZN8Executor8scheduleEP12scheduling_syiP
 217 0018 AFF30080 		.section	.text._ZN8Executor15onTimerCallbackEv,"ax",%progbits
 217      AFF30080 
 218              		.align	2
 219              		.p2align 4,,15
 220              		.global	_ZN8Executor15onTimerCallbackEv
 221              		.thumb
 222              		.thumb_func
 223              		.type	_ZN8Executor15onTimerCallbackEv, %function
 224              	_ZN8Executor15onTimerCallbackEv:
 225              		@ args = 0, pretend = 0, frame = 0
 226              		@ frame_needed = 0, uses_anonymous_args = 0
ARM GAS  C:\Users\pc\AppData\Local\Temp\ccAy7kQc.s 			page 5


 227 0000 10B5     		push	{r4, lr}
 228 0002 0446     		mov	r4, r0
 229 0004 FFF7FEFF 		bl	lockAnyContext
 230 0008 2046     		mov	r0, r4
 231 000a FFF7FEFF 		bl	_ZN8Executor9doExecuteEv
 232 000e 2046     		mov	r0, r4
 233 0010 FFF7FEFF 		bl	_ZN8Executor21scheduleTimerCallbackEv
 234 0014 BDE81040 		pop	{r4, lr}
 235 0018 FFF7FEBF 		b	unlockAnyContext
 236              		.size	_ZN8Executor15onTimerCallbackEv, .-_ZN8Executor15onTimerCallbackEv
 237 001c AFF30080 		.section	.text._ZL16executorCallbackPv,"ax",%progbits
 238              		.align	2
 239              		.p2align 4,,15
 240              		.thumb
 241              		.thumb_func
 242              		.type	_ZL16executorCallbackPv, %function
 243              	_ZL16executorCallbackPv:
 244              		@ args = 0, pretend = 0, frame = 0
 245              		@ frame_needed = 0, uses_anonymous_args = 0
 246 0000 08B5     		push	{r3, lr}
 247 0002 40F20003 		movw	r3, #:lower16:rlist
 248 0006 C0F20003 		movt	r3, #:upper16:rlist
 249 000a 9869     		ldr	r0, [r3, #24]
 250 000c FFF7FEFF 		bl	getRemainingStack
 251 0010 B0F5807F 		cmp	r0, #256
 252 0014 07DD     		ble	.L28
 253 0016 40F20000 		movw	r0, #:lower16:.LANCHOR4
 254 001a C0F20000 		movt	r0, #:upper16:.LANCHOR4
 255 001e BDE80840 		pop	{r3, lr}
 256 0022 FFF7FEBF 		b	_ZN8Executor15onTimerCallbackEv
 257              	.L28:
 258 0026 40F20000 		movw	r0, #:lower16:.LC2
 259 002a C0F20000 		movt	r0, #:upper16:.LC2
 260 002e BDE80840 		pop	{r3, lr}
 261 0032 FFF7FEBF 		b	firmwareError
 262              		.size	_ZL16executorCallbackPv, .-_ZL16executorCallbackPv
 263 0036 00BFAFF3 		.section	.text._Z12scheduleTaskPKcP12scheduling_siPFvPvES3_,"ax",%progbits
 263      0080AFF3 
 263      0080
 264              		.align	2
 265              		.p2align 4,,15
 266              		.global	_Z12scheduleTaskPKcP12scheduling_siPFvPvES3_
 267              		.thumb
 268              		.thumb_func
 269              		.type	_Z12scheduleTaskPKcP12scheduling_siPFvPvES3_, %function
 270              	_Z12scheduleTaskPKcP12scheduling_siPFvPvES3_:
 271              		@ args = 4, pretend = 0, frame = 0
 272              		@ frame_needed = 0, uses_anonymous_args = 0
 273 0000 F0B5     		push	{r4, r5, r6, r7, lr}
 274 0002 83B0     		sub	sp, sp, #12
 275 0004 1746     		mov	r7, r2
 276 0006 1D46     		mov	r5, r3
 277 0008 0E46     		mov	r6, r1
 278 000a 089C     		ldr	r4, [sp, #32]
 279 000c FFF7FEFF 		bl	getTimeNowUs
 280 0010 C219     		adds	r2, r0, r7
 281 0012 40F20000 		movw	r0, #:lower16:.LANCHOR4
ARM GAS  C:\Users\pc\AppData\Local\Temp\ccAy7kQc.s 			page 6


 282 0016 41EBE773 		adc	r3, r1, r7, asr #31
 283 001a 0095     		str	r5, [sp]
 284 001c 0194     		str	r4, [sp, #4]
 285 001e 3146     		mov	r1, r6
 286 0020 C0F20000 		movt	r0, #:upper16:.LANCHOR4
 287 0024 FFF7FEFF 		bl	_ZN8Executor14scheduleByTimeEP12scheduling_syPFvPvES2_
 288 0028 03B0     		add	sp, sp, #12
 289              		@ sp needed
 290 002a F0BD     		pop	{r4, r5, r6, r7, pc}
 291              		.size	_Z12scheduleTaskPKcP12scheduling_siPFvPvES3_, .-_Z12scheduleTaskPKcP12scheduling_siPFvPvES3_
 292 002c AFF30080 		.section	.text._Z14scheduleByTimePKcP12scheduling_syPFvPvES3_,"ax",%progbits
 293              		.align	2
 294              		.p2align 4,,15
 295              		.global	_Z14scheduleByTimePKcP12scheduling_syPFvPvES3_
 296              		.thumb
 297              		.thumb_func
 298              		.type	_Z14scheduleByTimePKcP12scheduling_syPFvPvES3_, %function
 299              	_Z14scheduleByTimePKcP12scheduling_syPFvPvES3_:
 300              		@ args = 8, pretend = 0, frame = 0
 301              		@ frame_needed = 0, uses_anonymous_args = 0
 302              		@ link register save eliminated.
 303 0000 10B4     		push	{r4}
 304 0002 40F20000 		movw	r0, #:lower16:.LANCHOR4
 305 0006 C0F20000 		movt	r0, #:upper16:.LANCHOR4
 306 000a 5DF8044B 		ldr	r4, [sp], #4
 307 000e FFF7FEBF 		b	_ZN8Executor14scheduleByTimeEP12scheduling_syPFvPvES2_
 308              		.size	_Z14scheduleByTimePKcP12scheduling_syPFvPvES3_, .-_Z14scheduleByTimePKcP12scheduling_syPFvPv
 309 0012 00BFAFF3 		.section	.text._Z22initSignalExecutorImplv,"ax",%progbits
 309      0080AFF3 
 309      0080AFF3 
 309      0080
 310              		.align	2
 311              		.p2align 4,,15
 312              		.global	_Z22initSignalExecutorImplv
 313              		.thumb
 314              		.thumb_func
 315              		.type	_Z22initSignalExecutorImplv, %function
 316              	_Z22initSignalExecutorImplv:
 317              		@ args = 0, pretend = 0, frame = 0
 318              		@ frame_needed = 0, uses_anonymous_args = 0
 319              		@ link register save eliminated.
 320 0000 40F20003 		movw	r3, #:lower16:globalTimerCallback
 321 0004 C0F20003 		movt	r3, #:upper16:globalTimerCallback
 322 0008 40F20002 		movw	r2, #:lower16:_ZL16executorCallbackPv
 323 000c C0F20002 		movt	r2, #:upper16:_ZL16executorCallbackPv
 324 0010 1A60     		str	r2, [r3]
 325 0012 FFF7FEBF 		b	initMicrosecondTimer
 326              		.size	_Z22initSignalExecutorImplv, .-_Z22initSignalExecutorImplv
 327 0016 00BFAFF3 		.section	.text.startup._GLOBAL__sub_I_beforeHwSetTimer,"ax",%progbits
 327      0080AFF3 
 327      0080
 328              		.align	2
 329              		.p2align 4,,15
 330              		.thumb
 331              		.thumb_func
 332              		.type	_GLOBAL__sub_I_beforeHwSetTimer, %function
 333              	_GLOBAL__sub_I_beforeHwSetTimer:
ARM GAS  C:\Users\pc\AppData\Local\Temp\ccAy7kQc.s 			page 7


 334              		@ args = 0, pretend = 0, frame = 0
 335              		@ frame_needed = 0, uses_anonymous_args = 0
 336              		@ link register save eliminated.
 337 0000 40F20000 		movw	r0, #:lower16:.LANCHOR4
 338 0004 C0F20000 		movt	r0, #:upper16:.LANCHOR4
 339 0008 FFF7FEBF 		b	_ZN8ExecutorC1Ev
 340              		.size	_GLOBAL__sub_I_beforeHwSetTimer, .-_GLOBAL__sub_I_beforeHwSetTimer
 341 000c AFF30080 		.section	.init_array,"aw",%init_array
 342              		.align	2
 343 0000 00000000 		.word	_GLOBAL__sub_I_beforeHwSetTimer(target1)
 344              		.global	lastExecutionCount
 345              		.global	hwSetTimerTime
 346              		.global	beforeHwSetTimer
 347              		.section	.bss._ZL8instance,"aw",%nobits
 348              		.align	3
 349              		.set	.LANCHOR4,. + 0
 350              		.type	_ZL8instance, %object
 351              		.size	_ZL8instance, 24
 352              	_ZL8instance:
 353 0000 00000000 		.space	24
 353      00000000 
 353      00000000 
 353      00000000 
 353      00000000 
 354              		.section	.bss.hwSetTimerTime,"aw",%nobits
 355              		.align	2
 356              		.set	.LANCHOR3,. + 0
 357              		.type	hwSetTimerTime, %object
 358              		.size	hwSetTimerTime, 4
 359              	hwSetTimerTime:
 360 0000 00000000 		.space	4
 361              		.section	.bss.lastExecutionCount,"aw",%nobits
 362              		.align	2
 363              		.set	.LANCHOR0,. + 0
 364              		.type	lastExecutionCount, %object
 365              		.size	lastExecutionCount, 4
 366              	lastExecutionCount:
 367 0000 00000000 		.space	4
 368              		.section	.rodata.str1.4,"aMS",%progbits,1
 369              		.align	2
 370              	.LC0:
 371 0000 536F6D65 		.ascii	"Someone has stolen my lock\000"
 371      6F6E6520 
 371      68617320 
 371      73746F6C 
 371      656E206D 
 372 001b 00       		.space	1
 373              	.LC1:
 374 001c 73657454 		.ascii	"setTimer constraint\000"
 374      696D6572 
 374      20636F6E 
 374      73747261 
 374      696E7400 
 375              	.LC2:
 376 0030 6C6F7773 		.ascii	"lowstck#2y\000"
 376      74636B23 
 376      327900
ARM GAS  C:\Users\pc\AppData\Local\Temp\ccAy7kQc.s 			page 8


 377 003b 00       		.section	.bss._ZL15nextEventTimeNt,"aw",%nobits
 378              		.align	3
 379              		.set	.LANCHOR1,. + 0
 380              		.type	_ZL15nextEventTimeNt, %object
 381              		.size	_ZL15nextEventTimeNt, 8
 382              	_ZL15nextEventTimeNt:
 383 0000 00000000 		.space	8
 383      00000000 
 384              		.section	.bss.beforeHwSetTimer,"aw",%nobits
 385              		.align	2
 386              		.set	.LANCHOR2,. + 0
 387              		.type	beforeHwSetTimer, %object
 388              		.size	beforeHwSetTimer, 4
 389              	beforeHwSetTimer:
 390 0000 00000000 		.space	4
 391              		.ident	"GCC: (Sourcery CodeBench Lite 2013.11-24) 4.8.1"
ARM GAS  C:\Users\pc\AppData\Local\Temp\ccAy7kQc.s 			page 9

