ARM GAS  C:\Users\pc\AppData\Local\Temp\ccwBLdPh.s 			page 1


   1              		.syntax unified
   2              		.cpu cortex-m4
   3              		.eabi_attribute 27, 3
   4              		.fpu fpv4-sp-d16
   5              		.eabi_attribute 20, 1
   6              		.eabi_attribute 21, 1
   7              		.eabi_attribute 23, 3
   8              		.eabi_attribute 24, 1
   9              		.eabi_attribute 25, 1
  10              		.eabi_attribute 26, 1
  11              		.eabi_attribute 30, 2
  12              		.eabi_attribute 34, 1
  13              		.eabi_attribute 18, 4
  14              		.thumb
  15              		.file	"speed_density.cpp"
  16              		.section	.text._Z10getTChargeifff,"ax",%progbits
  17              		.align	2
  18              		.p2align 4,,15
  19              		.global	_Z10getTChargeifff
  20              		.thumb
  21              		.thumb_func
  22              		.type	_Z10getTChargeifff, %function
  23              	_Z10getTChargeifff:
  24              		@ args = 0, pretend = 0, frame = 0
  25              		@ frame_needed = 0, uses_anonymous_args = 0
  26 0000 2DE9F041 		push	{r4, r5, r6, r7, r8, lr}
  27 0004 2DED028B 		fstmfdd	sp!, {d8}
  28 0008 0025     		movs	r5, #0
  29 000a 82B0     		sub	sp, sp, #8
  30 000c 0E46     		mov	r6, r1	@ float
  31 000e 0024     		movs	r4, #0
  32 0010 C4F2C825 		movt	r5, 17096
  33 0014 4FF07A51 		mov	r1, #1048576000
  34 0018 8046     		mov	r8, r0
  35 001a 08EE102A 		fmsr	s16, r2
  36 001e 0096     		str	r6, [sp]	@ float
  37 0020 2A46     		mov	r2, r5	@ float
  38 0022 2046     		mov	r0, r4	@ float
  39 0024 08EE903A 		fmsr	s17, r3
  40 0028 0B46     		mov	r3, r1	@ float
  41 002a FFF7FEFF 		bl	_Z11interpolatefffff
  42 002e 46F26663 		movw	r3, #26214
  43 0032 0746     		mov	r7, r0	@ float
  44 0034 2A46     		mov	r2, r5	@ float
  45 0036 0096     		str	r6, [sp]	@ float
  46 0038 2046     		mov	r0, r4	@ float
  47 003a 4FF07A51 		mov	r1, #1048576000
  48 003e C3F66673 		movt	r3, 16230
  49 0042 FFF7FEFF 		bl	_Z11interpolatefffff
  50 0046 07EE108A 		fmsr	s14, r8	@ int
  51 004a F8EEC77A 		fsitos	s15, s14
  52 004e 0346     		mov	r3, r0	@ float
  53 0050 0022     		movs	r2, #0
  54 0052 0020     		movs	r0, #0
  55 0054 CDED007A 		fsts	s15, [sp]
  56 0058 3946     		mov	r1, r7	@ float
  57 005a C4F2FA52 		movt	r2, 17914
ARM GAS  C:\Users\pc\AppData\Local\Temp\ccwBLdPh.s 			page 2


  58 005e C4F2FA30 		movt	r0, 17402
  59 0062 FFF7FEFF 		bl	_Z11interpolatefffff
  60 0066 07EE900A 		fmsr	s15, r0
  61 006a B7EE007A 		fconsts	s14, #112
  62 006e 68EEA78A 		fmuls	s17, s17, s15
  63 0072 77EE677A 		fsubs	s15, s14, s15
  64 0076 E7EE888A 		vfma.f32	s17, s15, s16
  65 007a 18EE900A 		fmrs	r0, s17
  66 007e 02B0     		add	sp, sp, #8
  67              		@ sp needed
  68 0080 BDEC028B 		fldmfdd	sp!, {d8}
  69 0084 BDE8F081 		pop	{r4, r5, r6, r7, r8, pc}
  70              		.size	_Z10getTChargeifff, .-_Z10getTChargeifff
  71 0088 AFF30080 		.section	.text._Z6sdMathP22engine_configuration_sffff,"ax",%progbits
  71      AFF30080 
  72              		.align	2
  73              		.p2align 4,,15
  74              		.global	_Z6sdMathP22engine_configuration_sffff
  75              		.thumb
  76              		.thumb_func
  77              		.type	_Z6sdMathP22engine_configuration_sffff, %function
  78              	_Z6sdMathP22engine_configuration_sffff:
  79              		@ args = 4, pretend = 0, frame = 0
  80              		@ frame_needed = 0, uses_anonymous_args = 0
  81 0000 10B5     		push	{r4, lr}
  82 0002 DFED237A 		flds	s15, .L12
  83 0006 2DED048B 		fstmfdd	sp!, {d8, d9}
  84 000a 08EE102A 		fmsr	s16, r2
  85 000e B4EEE78A 		fcmpes	s16, s15
  86 0012 F1EE10FA 		fmstat
  87 0016 0446     		mov	r4, r0
  88 0018 09EE101A 		fmsr	s18, r1
  89 001c 08EE903A 		fmsr	s17, r3
  90 0020 0ED5     		bpl	.L11
  91              	.L3:
  92 0022 40F20001 		movw	r1, #:lower16:.LC0
  93 0026 C0F20001 		movt	r1, #:upper16:.LC0
  94 002a 40F25E20 		movw	r0, #606
  95 002e FFF7FEFF 		bl	warning
  96 0032 BDEC048B 		fldmfdd	sp!, {d8-d9}
  97 0036 DFED177A 		flds	s15, .L12+4
  98 003a 17EE900A 		fmrs	r0, s15
  99 003e 10BD     		pop	{r4, pc}
 100              	.L11:
 101 0040 1046     		mov	r0, r2	@ float
 102 0042 FFF7FEFF 		bl	__fpclassifyf
 103 0046 0028     		cmp	r0, #0
 104 0048 EBD0     		beq	.L3
 105 004a D4ED657A 		flds	s15, [r4, #404]	@ int
 106 004e D4ED646A 		flds	s13, [r4, #400]
 107 0052 B8EEE77A 		fsitos	s14, s15
 108 0056 DFED107A 		flds	s15, .L12+8
 109 005a 86EE877A 		fdivs	s14, s13, s14
 110 005e DDED066A 		flds	s13, [sp, #24]
 111 0062 27EE099A 		fmuls	s18, s14, s18
 112 0066 66EEA77A 		fmuls	s15, s13, s15
 113 006a 29EE088A 		fmuls	s16, s18, s16
ARM GAS  C:\Users\pc\AppData\Local\Temp\ccwBLdPh.s 			page 3


 114 006e D4ED026A 		flds	s13, [r4, #8]
 115 0072 C8EE277A 		fdivs	s15, s16, s15
 116 0076 9FED097A 		flds	s14, .L12+12
 117 007a 26EE877A 		fmuls	s14, s13, s14
 118 007e 68EE878A 		fmuls	s17, s17, s14
 119 0082 C7EEA87A 		fdivs	s15, s15, s17
 120 0086 BDEC048B 		fldmfdd	sp!, {d8-d9}
 121 008a 17EE900A 		fmrs	r0, s15
 122 008e 10BD     		pop	{r4, pc}
 123              	.L13:
 124              		.align	2
 125              	.L12:
 126 0090 6F12833A 		.word	981668463
 127 0094 00000000 		.word	0
 128 0098 38F8923E 		.word	1049819192
 129 009c CD9A443C 		.word	1011129037
 130              		.size	_Z6sdMathP22engine_configuration_sffff, .-_Z6sdMathP22engine_configuration_sffff
 131              		.section	.text._Z19getSpeedDensityFueli,"ax",%progbits
 132              		.align	2
 133              		.p2align 4,,15
 134              		.global	_Z19getSpeedDensityFueli
 135              		.thumb
 136              		.thumb_func
 137              		.type	_Z19getSpeedDensityFueli, %function
 138              	_Z19getSpeedDensityFueli:
 139              		@ args = 0, pretend = 0, frame = 0
 140              		@ frame_needed = 0, uses_anonymous_args = 0
 141 0000 30B5     		push	{r4, r5, lr}
 142 0002 2DED028B 		fstmfdd	sp!, {d8}
 143 0006 154C     		ldr	r4, .L15
 144 0008 83B0     		sub	sp, sp, #12
 145 000a 6569     		ldr	r5, [r4, #20]	@ float
 146 000c FFF7FEFF 		bl	_Z6getMapv
 147 0010 40F20003 		movw	r3, #:lower16:engine
 148 0014 C0F20003 		movt	r3, #:upper16:engine
 149 0018 08EE100A 		fmsr	s16, r0
 150 001c 1868     		ldr	r0, [r3]
 151 001e 3830     		adds	r0, r0, #56
 152 0020 FFF7FEFF 		bl	_ZN16AccelEnrichmemnt16getMapEnrichmentEv
 153 0024 07EE100A 		fmsr	s14, r0
 154 0028 40F20003 		movw	r3, #:lower16:engineConfiguration
 155 002c 37EE088A 		fadds	s16, s14, s16
 156 0030 C0F20003 		movt	r3, #:upper16:engineConfiguration
 157 0034 A169     		ldr	r1, [r4, #24]	@ float
 158 0036 1868     		ldr	r0, [r3]
 159 0038 E369     		ldr	r3, [r4, #28]	@ float
 160 003a 0095     		str	r5, [sp]	@ float
 161 003c 18EE102A 		fmrs	r2, s16
 162 0040 FFF7FEFF 		bl	_Z6sdMathP22engine_configuration_sffff
 163 0044 DFED067A 		flds	s15, .L15+4
 164 0048 07EE100A 		fmsr	s14, r0
 165 004c 27EE277A 		fmuls	s14, s14, s15
 166 0050 17EE100A 		fmrs	r0, s14
 167 0054 03B0     		add	sp, sp, #12
 168              		@ sp needed
 169 0056 BDEC028B 		fldmfdd	sp!, {d8}
 170 005a 30BD     		pop	{r4, r5, pc}
ARM GAS  C:\Users\pc\AppData\Local\Temp\ccwBLdPh.s 			page 4


 171              	.L16:
 172              		.align	2
 173              	.L15:
 174 005c C01E0000 		.word	_engine+7872
 175 0060 00007A44 		.word	1148846080
 176              		.size	_Z19getSpeedDensityFueli, .-_Z19getSpeedDensityFueli
 177 0064 AFF30080 		.section	.text._Z16initSpeedDensityv,"ax",%progbits
 177      AFF30080 
 177      AFF30080 
 178              		.align	2
 179              		.p2align 4,,15
 180              		.global	_Z16initSpeedDensityv
 181              		.thumb
 182              		.thumb_func
 183              		.type	_Z16initSpeedDensityv, %function
 184              	_Z16initSpeedDensityv:
 185              		@ args = 0, pretend = 0, frame = 0
 186              		@ frame_needed = 0, uses_anonymous_args = 0
 187              		@ link register save eliminated.
 188 0000 40F20003 		movw	r3, #:lower16:config
 189 0004 C0F20003 		movt	r3, #:upper16:config
 190 0008 2F49     		ldr	r1, .L24
 191 000a 1B68     		ldr	r3, [r3]
 192 000c 2DE9F003 		push	{r4, r5, r6, r7, r8, r9}
 193 0010 03F54A52 		add	r2, r3, #12928
 194 0014 03F55A54 		add	r4, r3, #13952
 195 0018 03F55B55 		add	r5, r3, #14016
 196 001c 3834     		adds	r4, r4, #56
 197 001e 3835     		adds	r5, r5, #56
 198 0020 3832     		adds	r2, r2, #56
 199 0022 01F14000 		add	r0, r1, #64
 200              	.L19:
 201 0026 41F8042F 		str	r2, [r1, #4]!
 202 002a 8142     		cmp	r1, r0
 203 002c 02F14002 		add	r2, r2, #64
 204 0030 F9D1     		bne	.L19
 205 0032 40F20001 		movw	r1, #:lower16:.LANCHOR0
 206 0036 C0F20001 		movt	r1, #:upper16:.LANCHOR0
 207 003a 4FF25856 		movw	r6, #62808
 208 003e 234A     		ldr	r2, .L24+4
 209 0040 0C64     		str	r4, [r1, #64]
 210 0042 03F56D50 		add	r0, r3, #15168
 211 0046 03F56C54 		add	r4, r3, #15104
 212 004a C0F62316 		movt	r6, 2339
 213 004e 03F55C53 		add	r3, r3, #14080
 214 0052 4D64     		str	r5, [r1, #68]
 215 0054 8E64     		str	r6, [r1, #72]
 216 0056 3834     		adds	r4, r4, #56
 217 0058 02F14001 		add	r1, r2, #64
 218 005c 3830     		adds	r0, r0, #56
 219 005e 3833     		adds	r3, r3, #56
 220              	.L21:
 221 0060 42F8043F 		str	r3, [r2, #4]!
 222 0064 8A42     		cmp	r2, r1
 223 0066 03F14003 		add	r3, r3, #64
 224 006a F9D1     		bne	.L21
 225 006c 40F20002 		movw	r2, #:lower16:engineConfiguration
ARM GAS  C:\Users\pc\AppData\Local\Temp\ccwBLdPh.s 			page 5


 226 0070 C0F20002 		movt	r2, #:upper16:engineConfiguration
 227 0074 40F20003 		movw	r3, #:lower16:.LANCHOR2
 228 0078 1268     		ldr	r2, [r2]
 229 007a 40F20001 		movw	r1, #:lower16:.LANCHOR1
 230 007e C0F20003 		movt	r3, #:upper16:.LANCHOR2
 231 0082 C0F20001 		movt	r1, #:upper16:.LANCHOR1
 232 0086 4FF25855 		movw	r5, #62808
 233 008a 02F29469 		addw	r9, r2, #1684
 234 008e 02F2A468 		addw	r8, r2, #1700
 235 0092 02F2C467 		addw	r7, r2, #1732
 236 0096 02F27466 		addw	r6, r2, #1652
 237 009a C0F62315 		movt	r5, 2339
 238 009e 02F2B46C 		addw	ip, r2, #1716
 239 00a2 02F28462 		addw	r2, r2, #1668
 240 00a6 C3F80090 		str	r9, [r3]
 241 00aa C3F80480 		str	r8, [r3, #4]
 242 00ae DF60     		str	r7, [r3, #12]
 243 00b0 1E61     		str	r6, [r3, #16]
 244 00b2 9D61     		str	r5, [r3, #24]
 245 00b4 8D64     		str	r5, [r1, #72]
 246 00b6 0C64     		str	r4, [r1, #64]
 247 00b8 C3F808C0 		str	ip, [r3, #8]
 248 00bc 5A61     		str	r2, [r3, #20]
 249 00be 4864     		str	r0, [r1, #68]
 250 00c0 BDE8F003 		pop	{r4, r5, r6, r7, r8, r9}
 251 00c4 7047     		bx	lr
 252              	.L25:
 253 00c6 00BF     		.align	2
 254              	.L24:
 255 00c8 FCFFFFFF 		.word	.LANCHOR0-4
 256 00cc FCFFFFFF 		.word	.LANCHOR1-4
 257              		.size	_Z16initSpeedDensityv, .-_Z16initSpeedDensityv
 258              		.section	.text._ZN5Map3DILi16ELi16EE6setAllEf,"axG",%progbits,_ZN5Map3DILi16ELi16EE6setAllEf,comda
 259              		.align	2
 260              		.p2align 4,,15
 261              		.weak	_ZN5Map3DILi16ELi16EE6setAllEf
 262              		.thumb
 263              		.thumb_func
 264              		.type	_ZN5Map3DILi16ELi16EE6setAllEf, %function
 265              	_ZN5Map3DILi16ELi16EE6setAllEf:
 266              		@ args = 0, pretend = 0, frame = 0
 267              		@ frame_needed = 0, uses_anonymous_args = 0
 268              		@ link register save eliminated.
 269 0000 4FF25853 		movw	r3, #62808
 270 0004 826C     		ldr	r2, [r0, #72]
 271 0006 C0F62313 		movt	r3, 2339
 272 000a 9A42     		cmp	r2, r3
 273 000c 10B4     		push	{r4}
 274 000e 08BF     		it	eq
 275 0010 0024     		moveq	r4, #0
 276 0012 0BD1     		bne	.L33
 277              	.L28:
 278 0014 0259     		ldr	r2, [r0, r4]
 279 0016 1023     		movs	r3, #16
 280              	.L31:
 281 0018 013B     		subs	r3, r3, #1
 282 001a 42F8041B 		str	r1, [r2], #4	@ float
ARM GAS  C:\Users\pc\AppData\Local\Temp\ccwBLdPh.s 			page 6


 283 001e FBD1     		bne	.L31
 284 0020 0434     		adds	r4, r4, #4
 285 0022 402C     		cmp	r4, #64
 286 0024 F6D1     		bne	.L28
 287 0026 5DF8044B 		ldr	r4, [sp], #4
 288 002a 7047     		bx	lr
 289              	.L33:
 290 002c 40F20000 		movw	r0, #:lower16:.LC1
 291 0030 C0F20000 		movt	r0, #:upper16:.LC1
 292 0034 5DF8044B 		ldr	r4, [sp], #4
 293 0038 FFF7FEBF 		b	firmwareError
 294              		.size	_ZN5Map3DILi16ELi16EE6setAllEf, .-_ZN5Map3DILi16ELi16EE6setAllEf
 295 003c AFF30080 		.section	.text._Z17setDefaultVETablev,"ax",%progbits
 296              		.align	2
 297              		.p2align 4,,15
 298              		.global	_Z17setDefaultVETablev
 299              		.thumb
 300              		.thumb_func
 301              		.type	_Z17setDefaultVETablev, %function
 302              	_Z17setDefaultVETablev:
 303              		@ args = 0, pretend = 0, frame = 0
 304              		@ frame_needed = 0, uses_anonymous_args = 0
 305 0000 F0B5     		push	{r4, r5, r6, r7, lr}
 306 0002 40F20004 		movw	r4, #:lower16:config
 307 0006 C0F20004 		movt	r4, #:upper16:config
 308 000a 83B0     		sub	sp, sp, #12
 309 000c 2068     		ldr	r0, [r4]
 310 000e 00F55B50 		add	r0, r0, #14016
 311 0012 1021     		movs	r1, #16
 312 0014 3830     		adds	r0, r0, #56
 313 0016 FFF7FEFF 		bl	_Z14setRpmTableBinPfi
 314 001a 40F20000 		movw	r0, #:lower16:.LANCHOR0
 315 001e 0021     		movs	r1, #0
 316 0020 C0F20000 		movt	r0, #:upper16:.LANCHOR0
 317 0024 C4F2A021 		movt	r1, 17056
 318 0028 FFF7FEFF 		bl	_ZN5Map3DILi16ELi16EE6setAllEf
 319 002c 2068     		ldr	r0, [r4]
 320 002e 00F56D50 		add	r0, r0, #15168
 321 0032 3830     		adds	r0, r0, #56
 322 0034 1021     		movs	r1, #16
 323 0036 40F20004 		movw	r4, #:lower16:engineConfiguration
 324 003a FFF7FEFF 		bl	_Z14setRpmTableBinPfi
 325 003e C0F20004 		movt	r4, #:upper16:engineConfiguration
 326 0042 40F20000 		movw	r0, #:lower16:.LANCHOR1
 327 0046 43F23331 		movw	r1, #13107
 328 004a C0F20000 		movt	r0, #:upper16:.LANCHOR1
 329 004e C4F26B11 		movt	r1, 16747
 330 0052 FFF7FEFF 		bl	_ZN5Map3DILi16ELi16EE6setAllEf
 331 0056 2068     		ldr	r0, [r4]
 332 0058 0421     		movs	r1, #4
 333 005a 00F28460 		addw	r0, r0, #1668
 334 005e FFF7FEFF 		bl	_Z14setRpmTableBinPfi
 335 0062 2068     		ldr	r0, [r4]
 336 0064 4FF07E51 		mov	r1, #1065353216
 337 0068 0022     		movs	r2, #0
 338 006a 0023     		movs	r3, #0
 339 006c 0091     		str	r1, [sp]	@ float
ARM GAS  C:\Users\pc\AppData\Local\Temp\ccwBLdPh.s 			page 7


 340 006e C4F29622 		movt	r2, 17046
 341 0072 C4F2D223 		movt	r3, 17106
 342 0076 00F27460 		addw	r0, r0, #1652
 343 007a 0421     		movs	r1, #4
 344 007c FFF7FEFF 		bl	_Z12setTableBin2Pfifff
 345 0080 40F20005 		movw	r5, #:lower16:.LANCHOR3
 346 0084 2668     		ldr	r6, [r4]
 347 0086 C0F20005 		movt	r5, #:upper16:.LANCHOR3
 348 008a 06F29466 		addw	r6, r6, #1684
 349 008e 05F14007 		add	r7, r5, #64
 350              	.L35:
 351 0092 2C46     		mov	r4, r5
 352 0094 0FCC     		ldmia	r4!, {r0, r1, r2, r3}
 353 0096 BC42     		cmp	r4, r7
 354 0098 3060     		str	r0, [r6]	@ unaligned
 355 009a 7160     		str	r1, [r6, #4]	@ unaligned
 356 009c B260     		str	r2, [r6, #8]	@ unaligned
 357 009e F360     		str	r3, [r6, #12]	@ unaligned
 358 00a0 2546     		mov	r5, r4
 359 00a2 06F11006 		add	r6, r6, #16
 360 00a6 F4D1     		bne	.L35
 361 00a8 03B0     		add	sp, sp, #12
 362              		@ sp needed
 363 00aa F0BD     		pop	{r4, r5, r6, r7, pc}
 364              		.size	_Z17setDefaultVETablev, .-_Z17setDefaultVETablev
 365 00ac AFF30080 		.section	.text.startup._GLOBAL__sub_I_veMap,"ax",%progbits
 366              		.align	2
 367              		.p2align 4,,15
 368              		.thumb
 369              		.thumb_func
 370              		.type	_GLOBAL__sub_I_veMap, %function
 371              	_GLOBAL__sub_I_veMap:
 372              		@ args = 0, pretend = 0, frame = 0
 373              		@ frame_needed = 0, uses_anonymous_args = 0
 374 0000 2DE9F041 		push	{r4, r5, r6, r7, r8, lr}
 375 0004 40F20007 		movw	r7, #:lower16:.LANCHOR0
 376 0008 0024     		movs	r4, #0
 377 000a C0F20007 		movt	r7, #:upper16:.LANCHOR0
 378 000e 4FF04008 		mov	r8, #64
 379 0012 40F20006 		movw	r6, #:lower16:.LANCHOR4
 380 0016 C0F20006 		movt	r6, #:upper16:.LANCHOR4
 381 001a 2146     		mov	r1, r4
 382 001c 4246     		mov	r2, r8
 383 001e 3846     		mov	r0, r7
 384 0020 40F20005 		movw	r5, #:lower16:.LANCHOR1
 385 0024 C0F20005 		movt	r5, #:upper16:.LANCHOR1
 386 0028 BC64     		str	r4, [r7, #72]
 387 002a FFF7FEFF 		bl	memset
 388 002e 2146     		mov	r1, r4
 389 0030 4246     		mov	r2, r8
 390 0032 3046     		mov	r0, r6
 391 0034 3C64     		str	r4, [r7, #64]
 392 0036 7C64     		str	r4, [r7, #68]
 393 0038 B464     		str	r4, [r6, #72]
 394 003a FFF7FEFF 		bl	memset
 395 003e 4246     		mov	r2, r8
 396 0040 2846     		mov	r0, r5
ARM GAS  C:\Users\pc\AppData\Local\Temp\ccwBLdPh.s 			page 8


 397 0042 2146     		mov	r1, r4
 398 0044 3464     		str	r4, [r6, #64]
 399 0046 7464     		str	r4, [r6, #68]
 400 0048 AC64     		str	r4, [r5, #72]
 401 004a FFF7FEFF 		bl	memset
 402 004e 40F20003 		movw	r3, #:lower16:.LANCHOR2
 403 0052 C0F20003 		movt	r3, #:upper16:.LANCHOR2
 404 0056 1A46     		mov	r2, r3
 405 0058 9C61     		str	r4, [r3, #24]
 406 005a 42F8044B 		str	r4, [r2], #4
 407 005e 0432     		adds	r2, r2, #4
 408 0060 5C60     		str	r4, [r3, #4]
 409 0062 42F8044B 		str	r4, [r2], #4
 410 0066 1460     		str	r4, [r2]
 411 0068 2C64     		str	r4, [r5, #64]
 412 006a 6C64     		str	r4, [r5, #68]
 413 006c 1C61     		str	r4, [r3, #16]
 414 006e 5C61     		str	r4, [r3, #20]
 415 0070 BDE8F081 		pop	{r4, r5, r6, r7, r8, pc}
 416              		.size	_GLOBAL__sub_I_veMap, .-_GLOBAL__sub_I_veMap
 417 0074 AFF30080 		.section	.init_array,"aw",%init_array
 417      AFF30080 
 417      AFF30080 
 418              		.align	2
 419 0000 00000000 		.word	_GLOBAL__sub_I_veMap(target1)
 420              		.global	baroCorrMap
 421              		.global	afrMap
 422              		.global	ve2Map
 423              		.global	veMap
 424              		.section	.rodata._ZL17default_baro_corr,"a",%progbits
 425              		.align	2
 426              		.set	.LANCHOR3,. + 0
 427              		.type	_ZL17default_baro_corr, %object
 428              		.size	_ZL17default_baro_corr, 64
 429              	_ZL17default_baro_corr:
 430 0000 4A0C923F 		.word	1066536010
 431 0004 0C028B3F 		.word	1066074636
 432 0008 F4FD843F 		.word	1065680372
 433 000c 0000803F 		.word	1065353216
 434 0010 4A0C923F 		.word	1066536010
 435 0014 0C028B3F 		.word	1066074636
 436 0018 F4FD843F 		.word	1065680372
 437 001c 0000803F 		.word	1065353216
 438 0020 4A0C923F 		.word	1066536010
 439 0024 0C028B3F 		.word	1066074636
 440 0028 F4FD843F 		.word	1065680372
 441 002c 0000803F 		.word	1065353216
 442 0030 4A0C923F 		.word	1066536010
 443 0034 0C028B3F 		.word	1066074636
 444 0038 F4FD843F 		.word	1065680372
 445 003c 0000803F 		.word	1065353216
 446              		.section	.bss.ve2Map,"aw",%nobits
 447              		.align	2
 448              		.set	.LANCHOR4,. + 0
 449              		.type	ve2Map, %object
 450              		.size	ve2Map, 76
 451              	ve2Map:
ARM GAS  C:\Users\pc\AppData\Local\Temp\ccwBLdPh.s 			page 9


 452 0000 00000000 		.space	76
 452      00000000 
 452      00000000 
 452      00000000 
 452      00000000 
 453              		.section	.bss.veMap,"aw",%nobits
 454              		.align	2
 455              		.set	.LANCHOR0,. + 0
 456              		.type	veMap, %object
 457              		.size	veMap, 76
 458              	veMap:
 459 0000 00000000 		.space	76
 459      00000000 
 459      00000000 
 459      00000000 
 459      00000000 
 460              		.section	.rodata.str1.4,"aMS",%progbits,1
 461              		.align	2
 462              	.LC0:
 463 0000 696E7661 		.ascii	"invalid MAP value\000"
 463      6C696420 
 463      4D415020 
 463      76616C75 
 463      6500
 464 0012 0000     		.space	2
 465              	.LC1:
 466 0014 6D617020 		.ascii	"map not initialized\000"
 466      6E6F7420 
 466      696E6974 
 466      69616C69 
 466      7A656400 
 467              		.section	.bss.afrMap,"aw",%nobits
 468              		.align	2
 469              		.set	.LANCHOR1,. + 0
 470              		.type	afrMap, %object
 471              		.size	afrMap, 76
 472              	afrMap:
 473 0000 00000000 		.space	76
 473      00000000 
 473      00000000 
 473      00000000 
 473      00000000 
 474              		.section	.bss.baroCorrMap,"aw",%nobits
 475              		.align	2
 476              		.set	.LANCHOR2,. + 0
 477              		.type	baroCorrMap, %object
 478              		.size	baroCorrMap, 28
 479              	baroCorrMap:
 480 0000 00000000 		.space	28
 480      00000000 
 480      00000000 
 480      00000000 
 480      00000000 
 481              		.ident	"GCC: (Sourcery CodeBench Lite 2013.11-24) 4.8.1"
ARM GAS  C:\Users\pc\AppData\Local\Temp\ccwBLdPh.s 			page 10


DEFINED SYMBOLS
                            *ABS*:00000000 speed_density.cpp
C:\Users\pc\AppData\Local\Temp\ccwBLdPh.s:17     .text._Z10getTChargeifff:00000000 $t
C:\Users\pc\AppData\Local\Temp\ccwBLdPh.s:23     .text._Z10getTChargeifff:00000000 _Z10getTChargeifff
C:\Users\pc\AppData\Local\Temp\ccwBLdPh.s:72     .text._Z6sdMathP22engine_configuration_sffff:00000000 $t
C:\Users\pc\AppData\Local\Temp\ccwBLdPh.s:78     .text._Z6sdMathP22engine_configuration_sffff:00000000 _Z6sdMathP22engine_configuration_sffff
C:\Users\pc\AppData\Local\Temp\ccwBLdPh.s:462    .rodata.str1.4:00000000 .LC0
C:\Users\pc\AppData\Local\Temp\ccwBLdPh.s:126    .text._Z6sdMathP22engine_configuration_sffff:00000090 $d
C:\Users\pc\AppData\Local\Temp\ccwBLdPh.s:132    .text._Z19getSpeedDensityFueli:00000000 $t
C:\Users\pc\AppData\Local\Temp\ccwBLdPh.s:138    .text._Z19getSpeedDensityFueli:00000000 _Z19getSpeedDensityFueli
C:\Users\pc\AppData\Local\Temp\ccwBLdPh.s:174    .text._Z19getSpeedDensityFueli:0000005c $d
C:\Users\pc\AppData\Local\Temp\ccwBLdPh.s:178    .text._Z16initSpeedDensityv:00000000 $t
C:\Users\pc\AppData\Local\Temp\ccwBLdPh.s:184    .text._Z16initSpeedDensityv:00000000 _Z16initSpeedDensityv
C:\Users\pc\AppData\Local\Temp\ccwBLdPh.s:455    .bss.veMap:00000000 .LANCHOR0
C:\Users\pc\AppData\Local\Temp\ccwBLdPh.s:476    .bss.baroCorrMap:00000000 .LANCHOR2
C:\Users\pc\AppData\Local\Temp\ccwBLdPh.s:469    .bss.afrMap:00000000 .LANCHOR1
C:\Users\pc\AppData\Local\Temp\ccwBLdPh.s:255    .text._Z16initSpeedDensityv:000000c8 $d
C:\Users\pc\AppData\Local\Temp\ccwBLdPh.s:259    .text._ZN5Map3DILi16ELi16EE6setAllEf:00000000 $t
C:\Users\pc\AppData\Local\Temp\ccwBLdPh.s:265    .text._ZN5Map3DILi16ELi16EE6setAllEf:00000000 _ZN5Map3DILi16ELi16EE6setAllEf
C:\Users\pc\AppData\Local\Temp\ccwBLdPh.s:465    .rodata.str1.4:00000014 .LC1
C:\Users\pc\AppData\Local\Temp\ccwBLdPh.s:296    .text._Z17setDefaultVETablev:00000000 $t
C:\Users\pc\AppData\Local\Temp\ccwBLdPh.s:302    .text._Z17setDefaultVETablev:00000000 _Z17setDefaultVETablev
C:\Users\pc\AppData\Local\Temp\ccwBLdPh.s:426    .rodata._ZL17default_baro_corr:00000000 .LANCHOR3
C:\Users\pc\AppData\Local\Temp\ccwBLdPh.s:366    .text.startup._GLOBAL__sub_I_veMap:00000000 $t
C:\Users\pc\AppData\Local\Temp\ccwBLdPh.s:371    .text.startup._GLOBAL__sub_I_veMap:00000000 _GLOBAL__sub_I_veMap
C:\Users\pc\AppData\Local\Temp\ccwBLdPh.s:448    .bss.ve2Map:00000000 .LANCHOR4
C:\Users\pc\AppData\Local\Temp\ccwBLdPh.s:418    .init_array:00000000 $d
C:\Users\pc\AppData\Local\Temp\ccwBLdPh.s:479    .bss.baroCorrMap:00000000 baroCorrMap
C:\Users\pc\AppData\Local\Temp\ccwBLdPh.s:472    .bss.afrMap:00000000 afrMap
C:\Users\pc\AppData\Local\Temp\ccwBLdPh.s:451    .bss.ve2Map:00000000 ve2Map
C:\Users\pc\AppData\Local\Temp\ccwBLdPh.s:458    .bss.veMap:00000000 veMap
C:\Users\pc\AppData\Local\Temp\ccwBLdPh.s:425    .rodata._ZL17default_baro_corr:00000000 $d
C:\Users\pc\AppData\Local\Temp\ccwBLdPh.s:429    .rodata._ZL17default_baro_corr:00000000 _ZL17default_baro_corr
C:\Users\pc\AppData\Local\Temp\ccwBLdPh.s:447    .bss.ve2Map:00000000 $d
C:\Users\pc\AppData\Local\Temp\ccwBLdPh.s:454    .bss.veMap:00000000 $d
C:\Users\pc\AppData\Local\Temp\ccwBLdPh.s:461    .rodata.str1.4:00000000 $d
C:\Users\pc\AppData\Local\Temp\ccwBLdPh.s:468    .bss.afrMap:00000000 $d
C:\Users\pc\AppData\Local\Temp\ccwBLdPh.s:475    .bss.baroCorrMap:00000000 $d
C:\Users\pc\AppData\Local\Temp\ccwBLdPh.s:177    .text._Z19getSpeedDensityFueli:00000064 $t

UNDEFINED SYMBOLS
_Z11interpolatefffff
warning
__fpclassifyf
_Z6getMapv
engine
_ZN16AccelEnrichmemnt16getMapEnrichmentEv
engineConfiguration
_engine
config
firmwareError
_Z14setRpmTableBinPfi
_Z12setTableBin2Pfifff
memset
