ARM GAS  C:\Users\pc\AppData\Local\Temp\ccEFGtYf.s 			page 1


   1              		.syntax unified
   2              		.cpu cortex-m4
   3              		.eabi_attribute 27, 3
   4              		.fpu fpv4-sp-d16
   5              		.eabi_attribute 20, 1
   6              		.eabi_attribute 21, 1
   7              		.eabi_attribute 23, 3
   8              		.eabi_attribute 24, 1
   9              		.eabi_attribute 25, 1
  10              		.eabi_attribute 26, 1
  11              		.eabi_attribute 30, 2
  12              		.eabi_attribute 34, 1
  13              		.eabi_attribute 18, 4
  14              		.thumb
  15              		.file	"spi.c"
  16              		.section	.text.spiInit,"ax",%progbits
  17              		.align	2
  18              		.p2align 4,,15
  19              		.global	spiInit
  20              		.thumb
  21              		.thumb_func
  22              		.type	spiInit, %function
  23              	spiInit:
  24              		@ args = 0, pretend = 0, frame = 0
  25              		@ frame_needed = 0, uses_anonymous_args = 0
  26              		@ link register save eliminated.
  27 0000 FFF7FEBF 		b	spi_lld_init
  28              		.size	spiInit, .-spiInit
  29 0004 AFF30080 		.section	.text.spiObjectInit,"ax",%progbits
  29      AFF30080 
  29      AFF30080 
  30              		.align	2
  31              		.p2align 4,,15
  32              		.global	spiObjectInit
  33              		.thumb
  34              		.thumb_func
  35              		.type	spiObjectInit, %function
  36              	spiObjectInit:
  37              		@ args = 0, pretend = 0, frame = 0
  38              		@ frame_needed = 0, uses_anonymous_args = 0
  39              		@ link register save eliminated.
  40 0000 0023     		movs	r3, #0
  41 0002 0122     		movs	r2, #1
  42 0004 0270     		strb	r2, [r0]
  43 0006 4360     		str	r3, [r0, #4]
  44 0008 8360     		str	r3, [r0, #8]
  45 000a 0C30     		adds	r0, r0, #12
  46 000c FFF7FEBF 		b	chMtxInit
  47              		.size	spiObjectInit, .-spiObjectInit
  48              		.section	.text.spiStart,"ax",%progbits
  49              		.align	2
  50              		.p2align 4,,15
  51              		.global	spiStart
  52              		.thumb
  53              		.thumb_func
  54              		.type	spiStart, %function
  55              	spiStart:
ARM GAS  C:\Users\pc\AppData\Local\Temp\ccEFGtYf.s 			page 2


  56              		@ args = 0, pretend = 0, frame = 0
  57              		@ frame_needed = 0, uses_anonymous_args = 0
  58 0000 0029     		cmp	r1, #0
  59 0002 18BF     		it	ne
  60 0004 0028     		cmpne	r0, #0
  61 0006 38B5     		push	{r3, r4, r5, lr}
  62 0008 0446     		mov	r4, r0
  63 000a 0D46     		mov	r5, r1
  64 000c 1BD0     		beq	.L10
  65              	.L4:
  66 000e 2023     		movs	r3, #32
  67              	@ 111 "chibios/os/hal/src/spi.c" 1
  68 0010 83F31188 		msr     BASEPRI, r3
  69              	@ 0 "" 2
  70              		.thumb
  71 0014 FFF7FEFF 		bl	dbg_check_lock
  72 0018 2378     		ldrb	r3, [r4]	@ zero_extendqisi2
  73 001a 013B     		subs	r3, r3, #1
  74 001c DBB2     		uxtb	r3, r3
  75 001e 012B     		cmp	r3, #1
  76 0020 05D9     		bls	.L5
  77 0022 40F20000 		movw	r0, #:lower16:.LC2
  78 0026 C0F20000 		movt	r0, #:upper16:.LC2
  79 002a FFF7FEFF 		bl	chDbgPanic
  80              	.L5:
  81 002e 2046     		mov	r0, r4
  82 0030 6560     		str	r5, [r4, #4]
  83 0032 FFF7FEFF 		bl	spi_lld_start
  84 0036 0223     		movs	r3, #2
  85 0038 2370     		strb	r3, [r4]
  86 003a FFF7FEFF 		bl	dbg_check_unlock
  87 003e 0023     		movs	r3, #0
  88              	@ 117 "chibios/os/hal/src/spi.c" 1
  89 0040 83F31188 		msr     BASEPRI, r3
  90              	@ 0 "" 2
  91              		.thumb
  92 0044 38BD     		pop	{r3, r4, r5, pc}
  93              	.L10:
  94 0046 40F20000 		movw	r0, #:lower16:.LC0
  95 004a 40F20001 		movw	r1, #:lower16:.LC1
  96 004e C0F20000 		movt	r0, #:upper16:.LC0
  97 0052 C0F20001 		movt	r1, #:upper16:.LC1
  98 0056 6D22     		movs	r2, #109
  99 0058 FFF7FEFF 		bl	chDbgPanic3
 100 005c D7E7     		b	.L4
 101              		.size	spiStart, .-spiStart
 102 005e 00BF     		.section	.text.spiStop,"ax",%progbits
 103              		.align	2
 104              		.p2align 4,,15
 105              		.global	spiStop
 106              		.thumb
 107              		.thumb_func
 108              		.type	spiStop, %function
 109              	spiStop:
 110              		@ args = 0, pretend = 0, frame = 0
 111              		@ frame_needed = 0, uses_anonymous_args = 0
 112 0000 10B5     		push	{r4, lr}
ARM GAS  C:\Users\pc\AppData\Local\Temp\ccEFGtYf.s 			page 3


 113 0002 0446     		mov	r4, r0
 114 0004 E8B1     		cbz	r0, .L14
 115              	.L12:
 116 0006 2023     		movs	r3, #32
 117              	@ 133 "chibios/os/hal/src/spi.c" 1
 118 0008 83F31188 		msr     BASEPRI, r3
 119              	@ 0 "" 2
 120              		.thumb
 121 000c FFF7FEFF 		bl	dbg_check_lock
 122 0010 2378     		ldrb	r3, [r4]	@ zero_extendqisi2
 123 0012 013B     		subs	r3, r3, #1
 124 0014 DBB2     		uxtb	r3, r3
 125 0016 012B     		cmp	r3, #1
 126 0018 05D9     		bls	.L13
 127 001a 40F20000 		movw	r0, #:lower16:.LC4
 128 001e C0F20000 		movt	r0, #:upper16:.LC4
 129 0022 FFF7FEFF 		bl	chDbgPanic
 130              	.L13:
 131 0026 2046     		mov	r0, r4
 132 0028 FFF7FEFF 		bl	spi_lld_unselect
 133 002c 2046     		mov	r0, r4
 134 002e FFF7FEFF 		bl	spi_lld_stop
 135 0032 0123     		movs	r3, #1
 136 0034 2370     		strb	r3, [r4]
 137 0036 FFF7FEFF 		bl	dbg_check_unlock
 138 003a 0023     		movs	r3, #0
 139              	@ 139 "chibios/os/hal/src/spi.c" 1
 140 003c 83F31188 		msr     BASEPRI, r3
 141              	@ 0 "" 2
 142              		.thumb
 143 0040 10BD     		pop	{r4, pc}
 144              	.L14:
 145 0042 40F20000 		movw	r0, #:lower16:.LC3
 146 0046 40F20001 		movw	r1, #:lower16:.LC1
 147 004a C0F20000 		movt	r0, #:upper16:.LC3
 148 004e C0F20001 		movt	r1, #:upper16:.LC1
 149 0052 8322     		movs	r2, #131
 150 0054 FFF7FEFF 		bl	chDbgPanic3
 151 0058 D5E7     		b	.L12
 152              		.size	spiStop, .-spiStop
 153              		.section	.text.spiSelect,"ax",%progbits
 154              		.align	2
 155              		.p2align 4,,15
 156              		.global	spiSelect
 157              		.thumb
 158              		.thumb_func
 159              		.type	spiSelect, %function
 160              	spiSelect:
 161              		@ args = 0, pretend = 0, frame = 0
 162              		@ frame_needed = 0, uses_anonymous_args = 0
 163 0000 10B5     		push	{r4, lr}
 164 0002 0446     		mov	r4, r0
 165 0004 B0B1     		cbz	r0, .L21
 166              	.L16:
 167 0006 2023     		movs	r3, #32
 168              	@ 153 "chibios/os/hal/src/spi.c" 1
 169 0008 83F31188 		msr     BASEPRI, r3
ARM GAS  C:\Users\pc\AppData\Local\Temp\ccEFGtYf.s 			page 4


 170              	@ 0 "" 2
 171              		.thumb
 172 000c FFF7FEFF 		bl	dbg_check_lock
 173 0010 2378     		ldrb	r3, [r4]	@ zero_extendqisi2
 174 0012 022B     		cmp	r3, #2
 175 0014 05D0     		beq	.L17
 176 0016 40F20000 		movw	r0, #:lower16:.LC6
 177 001a C0F20000 		movt	r0, #:upper16:.LC6
 178 001e FFF7FEFF 		bl	chDbgPanic
 179              	.L17:
 180 0022 2046     		mov	r0, r4
 181 0024 FFF7FEFF 		bl	spi_lld_select
 182 0028 FFF7FEFF 		bl	dbg_check_unlock
 183 002c 0023     		movs	r3, #0
 184              	@ 156 "chibios/os/hal/src/spi.c" 1
 185 002e 83F31188 		msr     BASEPRI, r3
 186              	@ 0 "" 2
 187              		.thumb
 188 0032 10BD     		pop	{r4, pc}
 189              	.L21:
 190 0034 40F20000 		movw	r0, #:lower16:.LC5
 191 0038 40F20001 		movw	r1, #:lower16:.LC1
 192 003c C0F20000 		movt	r0, #:upper16:.LC5
 193 0040 C0F20001 		movt	r1, #:upper16:.LC1
 194 0044 9722     		movs	r2, #151
 195 0046 FFF7FEFF 		bl	chDbgPanic3
 196 004a DCE7     		b	.L16
 197              		.size	spiSelect, .-spiSelect
 198 004c AFF30080 		.section	.text.spiUnselect,"ax",%progbits
 199              		.align	2
 200              		.p2align 4,,15
 201              		.global	spiUnselect
 202              		.thumb
 203              		.thumb_func
 204              		.type	spiUnselect, %function
 205              	spiUnselect:
 206              		@ args = 0, pretend = 0, frame = 0
 207              		@ frame_needed = 0, uses_anonymous_args = 0
 208 0000 10B5     		push	{r4, lr}
 209 0002 0446     		mov	r4, r0
 210 0004 B0B1     		cbz	r0, .L28
 211              	.L23:
 212 0006 2023     		movs	r3, #32
 213              	@ 171 "chibios/os/hal/src/spi.c" 1
 214 0008 83F31188 		msr     BASEPRI, r3
 215              	@ 0 "" 2
 216              		.thumb
 217 000c FFF7FEFF 		bl	dbg_check_lock
 218 0010 2378     		ldrb	r3, [r4]	@ zero_extendqisi2
 219 0012 022B     		cmp	r3, #2
 220 0014 05D0     		beq	.L24
 221 0016 40F20000 		movw	r0, #:lower16:.LC8
 222 001a C0F20000 		movt	r0, #:upper16:.LC8
 223 001e FFF7FEFF 		bl	chDbgPanic
 224              	.L24:
 225 0022 2046     		mov	r0, r4
 226 0024 FFF7FEFF 		bl	spi_lld_unselect
ARM GAS  C:\Users\pc\AppData\Local\Temp\ccEFGtYf.s 			page 5


 227 0028 FFF7FEFF 		bl	dbg_check_unlock
 228 002c 0023     		movs	r3, #0
 229              	@ 174 "chibios/os/hal/src/spi.c" 1
 230 002e 83F31188 		msr     BASEPRI, r3
 231              	@ 0 "" 2
 232              		.thumb
 233 0032 10BD     		pop	{r4, pc}
 234              	.L28:
 235 0034 40F20000 		movw	r0, #:lower16:.LC7
 236 0038 40F20001 		movw	r1, #:lower16:.LC1
 237 003c C0F20000 		movt	r0, #:upper16:.LC7
 238 0040 C0F20001 		movt	r1, #:upper16:.LC1
 239 0044 A922     		movs	r2, #169
 240 0046 FFF7FEFF 		bl	chDbgPanic3
 241 004a DCE7     		b	.L23
 242              		.size	spiUnselect, .-spiUnselect
 243 004c AFF30080 		.section	.text.spiStartIgnore,"ax",%progbits
 244              		.align	2
 245              		.p2align 4,,15
 246              		.global	spiStartIgnore
 247              		.thumb
 248              		.thumb_func
 249              		.type	spiStartIgnore, %function
 250              	spiStartIgnore:
 251              		@ args = 0, pretend = 0, frame = 0
 252              		@ frame_needed = 0, uses_anonymous_args = 0
 253 0000 0029     		cmp	r1, #0
 254 0002 18BF     		it	ne
 255 0004 0028     		cmpne	r0, #0
 256 0006 38B5     		push	{r3, r4, r5, lr}
 257 0008 0446     		mov	r4, r0
 258 000a 0D46     		mov	r5, r1
 259 000c 19D0     		beq	.L38
 260              	.L30:
 261 000e 2023     		movs	r3, #32
 262              	@ 194 "chibios/os/hal/src/spi.c" 1
 263 0010 83F31188 		msr     BASEPRI, r3
 264              	@ 0 "" 2
 265              		.thumb
 266 0014 FFF7FEFF 		bl	dbg_check_lock
 267 0018 2378     		ldrb	r3, [r4]	@ zero_extendqisi2
 268 001a 022B     		cmp	r3, #2
 269 001c 05D0     		beq	.L31
 270 001e 40F20000 		movw	r0, #:lower16:.LC10
 271 0022 C0F20000 		movt	r0, #:upper16:.LC10
 272 0026 FFF7FEFF 		bl	chDbgPanic
 273              	.L31:
 274 002a 0323     		movs	r3, #3
 275 002c 2370     		strb	r3, [r4]
 276 002e 2946     		mov	r1, r5
 277 0030 2046     		mov	r0, r4
 278 0032 FFF7FEFF 		bl	spi_lld_ignore
 279 0036 FFF7FEFF 		bl	dbg_check_unlock
 280 003a 0023     		movs	r3, #0
 281              	@ 197 "chibios/os/hal/src/spi.c" 1
 282 003c 83F31188 		msr     BASEPRI, r3
 283              	@ 0 "" 2
ARM GAS  C:\Users\pc\AppData\Local\Temp\ccEFGtYf.s 			page 6


 284              		.thumb
 285 0040 38BD     		pop	{r3, r4, r5, pc}
 286              	.L38:
 287 0042 40F20000 		movw	r0, #:lower16:.LC9
 288 0046 40F20001 		movw	r1, #:lower16:.LC1
 289 004a C0F20000 		movt	r0, #:upper16:.LC9
 290 004e C0F20001 		movt	r1, #:upper16:.LC1
 291 0052 C022     		movs	r2, #192
 292 0054 FFF7FEFF 		bl	chDbgPanic3
 293 0058 D9E7     		b	.L30
 294              		.size	spiStartIgnore, .-spiStartIgnore
 295 005a 00BFAFF3 		.section	.text.spiStartExchange,"ax",%progbits
 295      0080
 296              		.align	2
 297              		.p2align 4,,15
 298              		.global	spiStartExchange
 299              		.thumb
 300              		.thumb_func
 301              		.type	spiStartExchange, %function
 302              	spiStartExchange:
 303              		@ args = 0, pretend = 0, frame = 0
 304              		@ frame_needed = 0, uses_anonymous_args = 0
 305 0000 0029     		cmp	r1, #0
 306 0002 18BF     		it	ne
 307 0004 0028     		cmpne	r0, #0
 308 0006 F8B5     		push	{r3, r4, r5, r6, r7, lr}
 309 0008 0446     		mov	r4, r0
 310 000a 0D46     		mov	r5, r1
 311 000c 1746     		mov	r7, r2
 312 000e 1E46     		mov	r6, r3
 313 0010 1FD0     		beq	.L40
 314 0012 002A     		cmp	r2, #0
 315 0014 18BF     		it	ne
 316 0016 002B     		cmpne	r3, #0
 317 0018 1BD0     		beq	.L40
 318              	.L41:
 319 001a 2023     		movs	r3, #32
 320              	@ 223 "chibios/os/hal/src/spi.c" 1
 321 001c 83F31188 		msr     BASEPRI, r3
 322              	@ 0 "" 2
 323              		.thumb
 324 0020 FFF7FEFF 		bl	dbg_check_lock
 325 0024 2378     		ldrb	r3, [r4]	@ zero_extendqisi2
 326 0026 022B     		cmp	r3, #2
 327 0028 05D0     		beq	.L42
 328 002a 40F20000 		movw	r0, #:lower16:.LC12
 329 002e C0F20000 		movt	r0, #:upper16:.LC12
 330 0032 FFF7FEFF 		bl	chDbgPanic
 331              	.L42:
 332 0036 0320     		movs	r0, #3
 333 0038 3346     		mov	r3, r6
 334 003a 2946     		mov	r1, r5
 335 003c 3A46     		mov	r2, r7
 336 003e 2070     		strb	r0, [r4]
 337 0040 2046     		mov	r0, r4
 338 0042 FFF7FEFF 		bl	spi_lld_exchange
 339 0046 FFF7FEFF 		bl	dbg_check_unlock
ARM GAS  C:\Users\pc\AppData\Local\Temp\ccEFGtYf.s 			page 7


 340 004a 0023     		movs	r3, #0
 341              	@ 226 "chibios/os/hal/src/spi.c" 1
 342 004c 83F31188 		msr     BASEPRI, r3
 343              	@ 0 "" 2
 344              		.thumb
 345 0050 F8BD     		pop	{r3, r4, r5, r6, r7, pc}
 346              	.L40:
 347 0052 40F20000 		movw	r0, #:lower16:.LC11
 348 0056 40F20001 		movw	r1, #:lower16:.LC1
 349 005a C0F20000 		movt	r0, #:upper16:.LC11
 350 005e C0F20001 		movt	r1, #:upper16:.LC1
 351 0062 DD22     		movs	r2, #221
 352 0064 FFF7FEFF 		bl	chDbgPanic3
 353 0068 D7E7     		b	.L41
 354              		.size	spiStartExchange, .-spiStartExchange
 355 006a 00BFAFF3 		.section	.text.spiStartSend,"ax",%progbits
 355      0080
 356              		.align	2
 357              		.p2align 4,,15
 358              		.global	spiStartSend
 359              		.thumb
 360              		.thumb_func
 361              		.type	spiStartSend, %function
 362              	spiStartSend:
 363              		@ args = 0, pretend = 0, frame = 0
 364              		@ frame_needed = 0, uses_anonymous_args = 0
 365 0000 0029     		cmp	r1, #0
 366 0002 18BF     		it	ne
 367 0004 0028     		cmpne	r0, #0
 368 0006 70B5     		push	{r4, r5, r6, lr}
 369 0008 0446     		mov	r4, r0
 370 000a 0D46     		mov	r5, r1
 371 000c 1646     		mov	r6, r2
 372 000e 1BD0     		beq	.L50
 373 0010 D2B1     		cbz	r2, .L50
 374              	.L51:
 375 0012 2023     		movs	r3, #32
 376              	@ 249 "chibios/os/hal/src/spi.c" 1
 377 0014 83F31188 		msr     BASEPRI, r3
 378              	@ 0 "" 2
 379              		.thumb
 380 0018 FFF7FEFF 		bl	dbg_check_lock
 381 001c 2378     		ldrb	r3, [r4]	@ zero_extendqisi2
 382 001e 022B     		cmp	r3, #2
 383 0020 05D0     		beq	.L52
 384 0022 40F20000 		movw	r0, #:lower16:.LC14
 385 0026 C0F20000 		movt	r0, #:upper16:.LC14
 386 002a FFF7FEFF 		bl	chDbgPanic
 387              	.L52:
 388 002e 0323     		movs	r3, #3
 389 0030 2370     		strb	r3, [r4]
 390 0032 2946     		mov	r1, r5
 391 0034 3246     		mov	r2, r6
 392 0036 2046     		mov	r0, r4
 393 0038 FFF7FEFF 		bl	spi_lld_send
 394 003c FFF7FEFF 		bl	dbg_check_unlock
 395 0040 0023     		movs	r3, #0
ARM GAS  C:\Users\pc\AppData\Local\Temp\ccEFGtYf.s 			page 8


 396              	@ 252 "chibios/os/hal/src/spi.c" 1
 397 0042 83F31188 		msr     BASEPRI, r3
 398              	@ 0 "" 2
 399              		.thumb
 400 0046 70BD     		pop	{r4, r5, r6, pc}
 401              	.L50:
 402 0048 40F20000 		movw	r0, #:lower16:.LC13
 403 004c 40F20001 		movw	r1, #:lower16:.LC1
 404 0050 C0F20000 		movt	r0, #:upper16:.LC13
 405 0054 C0F20001 		movt	r1, #:upper16:.LC1
 406 0058 F722     		movs	r2, #247
 407 005a FFF7FEFF 		bl	chDbgPanic3
 408 005e D8E7     		b	.L51
 409              		.size	spiStartSend, .-spiStartSend
 410              		.section	.text.spiStartReceive,"ax",%progbits
 411              		.align	2
 412              		.p2align 4,,15
 413              		.global	spiStartReceive
 414              		.thumb
 415              		.thumb_func
 416              		.type	spiStartReceive, %function
 417              	spiStartReceive:
 418              		@ args = 0, pretend = 0, frame = 0
 419              		@ frame_needed = 0, uses_anonymous_args = 0
 420 0000 0029     		cmp	r1, #0
 421 0002 18BF     		it	ne
 422 0004 0028     		cmpne	r0, #0
 423 0006 70B5     		push	{r4, r5, r6, lr}
 424 0008 0446     		mov	r4, r0
 425 000a 0D46     		mov	r5, r1
 426 000c 1646     		mov	r6, r2
 427 000e 1BD0     		beq	.L57
 428 0010 D2B1     		cbz	r2, .L57
 429              	.L58:
 430 0012 2023     		movs	r3, #32
 431              	@ 275 "chibios/os/hal/src/spi.c" 1
 432 0014 83F31188 		msr     BASEPRI, r3
 433              	@ 0 "" 2
 434              		.thumb
 435 0018 FFF7FEFF 		bl	dbg_check_lock
 436 001c 2378     		ldrb	r3, [r4]	@ zero_extendqisi2
 437 001e 022B     		cmp	r3, #2
 438 0020 05D0     		beq	.L59
 439 0022 40F20000 		movw	r0, #:lower16:.LC16
 440 0026 C0F20000 		movt	r0, #:upper16:.LC16
 441 002a FFF7FEFF 		bl	chDbgPanic
 442              	.L59:
 443 002e 0323     		movs	r3, #3
 444 0030 2370     		strb	r3, [r4]
 445 0032 2946     		mov	r1, r5
 446 0034 3246     		mov	r2, r6
 447 0036 2046     		mov	r0, r4
 448 0038 FFF7FEFF 		bl	spi_lld_receive
 449 003c FFF7FEFF 		bl	dbg_check_unlock
 450 0040 0023     		movs	r3, #0
 451              	@ 278 "chibios/os/hal/src/spi.c" 1
 452 0042 83F31188 		msr     BASEPRI, r3
ARM GAS  C:\Users\pc\AppData\Local\Temp\ccEFGtYf.s 			page 9


 453              	@ 0 "" 2
 454              		.thumb
 455 0046 70BD     		pop	{r4, r5, r6, pc}
 456              	.L57:
 457 0048 40F20000 		movw	r0, #:lower16:.LC15
 458 004c 40F20001 		movw	r1, #:lower16:.LC1
 459 0050 C0F20000 		movt	r0, #:upper16:.LC15
 460 0054 C0F20001 		movt	r1, #:upper16:.LC1
 461 0058 40F21112 		movw	r2, #273
 462 005c FFF7FEFF 		bl	chDbgPanic3
 463 0060 D7E7     		b	.L58
 464              		.size	spiStartReceive, .-spiStartReceive
 465 0062 00BFAFF3 		.section	.text.spiIgnore,"ax",%progbits
 465      0080AFF3 
 465      0080AFF3 
 465      0080
 466              		.align	2
 467              		.p2align 4,,15
 468              		.global	spiIgnore
 469              		.thumb
 470              		.thumb_func
 471              		.type	spiIgnore, %function
 472              	spiIgnore:
 473              		@ args = 0, pretend = 0, frame = 0
 474              		@ frame_needed = 0, uses_anonymous_args = 0
 475 0000 0029     		cmp	r1, #0
 476 0002 18BF     		it	ne
 477 0004 0028     		cmpne	r0, #0
 478 0006 38B5     		push	{r3, r4, r5, lr}
 479 0008 0446     		mov	r4, r0
 480 000a 0D46     		mov	r5, r1
 481 000c 33D0     		beq	.L80
 482              	.L64:
 483 000e 2023     		movs	r3, #32
 484              	@ 300 "chibios/os/hal/src/spi.c" 1
 485 0010 83F31188 		msr     BASEPRI, r3
 486              	@ 0 "" 2
 487              		.thumb
 488 0014 FFF7FEFF 		bl	dbg_check_lock
 489 0018 2378     		ldrb	r3, [r4]	@ zero_extendqisi2
 490 001a 022B     		cmp	r3, #2
 491 001c 05D0     		beq	.L65
 492 001e 40F20000 		movw	r0, #:lower16:.LC18
 493 0022 C0F20000 		movt	r0, #:upper16:.LC18
 494 0026 FFF7FEFF 		bl	chDbgPanic
 495              	.L65:
 496 002a 6368     		ldr	r3, [r4, #4]
 497 002c 1B68     		ldr	r3, [r3]
 498 002e 2BB1     		cbz	r3, .L66
 499 0030 40F20000 		movw	r0, #:lower16:.LC19
 500 0034 C0F20000 		movt	r0, #:upper16:.LC19
 501 0038 FFF7FEFF 		bl	chDbgPanic
 502              	.L66:
 503 003c 0323     		movs	r3, #3
 504 003e 2370     		strb	r3, [r4]
 505 0040 2946     		mov	r1, r5
 506 0042 2046     		mov	r0, r4
ARM GAS  C:\Users\pc\AppData\Local\Temp\ccEFGtYf.s 			page 10


 507 0044 FFF7FEFF 		bl	spi_lld_ignore
 508 0048 A368     		ldr	r3, [r4, #8]
 509 004a 2BB1     		cbz	r3, .L67
 510 004c 40F20000 		movw	r0, #:lower16:.LC20
 511 0050 C0F20000 		movt	r0, #:upper16:.LC20
 512 0054 FFF7FEFF 		bl	chDbgPanic
 513              	.L67:
 514 0058 40F20003 		movw	r3, #:lower16:rlist
 515 005c C0F20003 		movt	r3, #:upper16:rlist
 516 0060 0220     		movs	r0, #2
 517 0062 9B69     		ldr	r3, [r3, #24]
 518 0064 A360     		str	r3, [r4, #8]
 519 0066 FFF7FEFF 		bl	chSchGoSleepS
 520 006a FFF7FEFF 		bl	dbg_check_unlock
 521 006e 0023     		movs	r3, #0
 522              	@ 305 "chibios/os/hal/src/spi.c" 1
 523 0070 83F31188 		msr     BASEPRI, r3
 524              	@ 0 "" 2
 525              		.thumb
 526 0074 38BD     		pop	{r3, r4, r5, pc}
 527              	.L80:
 528 0076 40F20000 		movw	r0, #:lower16:.LC17
 529 007a 40F20001 		movw	r1, #:lower16:.LC1
 530 007e C0F20000 		movt	r0, #:upper16:.LC17
 531 0082 C0F20001 		movt	r1, #:upper16:.LC1
 532 0086 4FF49572 		mov	r2, #298
 533 008a FFF7FEFF 		bl	chDbgPanic3
 534 008e BEE7     		b	.L64
 535              		.size	spiIgnore, .-spiIgnore
 536              		.section	.text.spiExchange,"ax",%progbits
 537              		.align	2
 538              		.p2align 4,,15
 539              		.global	spiExchange
 540              		.thumb
 541              		.thumb_func
 542              		.type	spiExchange, %function
 543              	spiExchange:
 544              		@ args = 0, pretend = 0, frame = 0
 545              		@ frame_needed = 0, uses_anonymous_args = 0
 546 0000 0029     		cmp	r1, #0
 547 0002 18BF     		it	ne
 548 0004 0028     		cmpne	r0, #0
 549 0006 F8B5     		push	{r3, r4, r5, r6, r7, lr}
 550 0008 0446     		mov	r4, r0
 551 000a 0D46     		mov	r5, r1
 552 000c 1746     		mov	r7, r2
 553 000e 1E46     		mov	r6, r3
 554 0010 39D0     		beq	.L82
 555 0012 002A     		cmp	r2, #0
 556 0014 18BF     		it	ne
 557 0016 002B     		cmpne	r3, #0
 558 0018 35D0     		beq	.L82
 559              	.L83:
 560 001a 2023     		movs	r3, #32
 561              	@ 332 "chibios/os/hal/src/spi.c" 1
 562 001c 83F31188 		msr     BASEPRI, r3
 563              	@ 0 "" 2
ARM GAS  C:\Users\pc\AppData\Local\Temp\ccEFGtYf.s 			page 11


 564              		.thumb
 565 0020 FFF7FEFF 		bl	dbg_check_lock
 566 0024 2378     		ldrb	r3, [r4]	@ zero_extendqisi2
 567 0026 022B     		cmp	r3, #2
 568 0028 05D0     		beq	.L84
 569 002a 40F20000 		movw	r0, #:lower16:.LC22
 570 002e C0F20000 		movt	r0, #:upper16:.LC22
 571 0032 FFF7FEFF 		bl	chDbgPanic
 572              	.L84:
 573 0036 6368     		ldr	r3, [r4, #4]
 574 0038 1B68     		ldr	r3, [r3]
 575 003a 2BB1     		cbz	r3, .L85
 576 003c 40F20000 		movw	r0, #:lower16:.LC23
 577 0040 C0F20000 		movt	r0, #:upper16:.LC23
 578 0044 FFF7FEFF 		bl	chDbgPanic
 579              	.L85:
 580 0048 0320     		movs	r0, #3
 581 004a 3346     		mov	r3, r6
 582 004c 2070     		strb	r0, [r4]
 583 004e 2946     		mov	r1, r5
 584 0050 3A46     		mov	r2, r7
 585 0052 2046     		mov	r0, r4
 586 0054 FFF7FEFF 		bl	spi_lld_exchange
 587 0058 A368     		ldr	r3, [r4, #8]
 588 005a 2BB1     		cbz	r3, .L86
 589 005c 40F20000 		movw	r0, #:lower16:.LC20
 590 0060 C0F20000 		movt	r0, #:upper16:.LC20
 591 0064 FFF7FEFF 		bl	chDbgPanic
 592              	.L86:
 593 0068 40F20003 		movw	r3, #:lower16:rlist
 594 006c C0F20003 		movt	r3, #:upper16:rlist
 595 0070 0220     		movs	r0, #2
 596 0072 9B69     		ldr	r3, [r3, #24]
 597 0074 A360     		str	r3, [r4, #8]
 598 0076 FFF7FEFF 		bl	chSchGoSleepS
 599 007a FFF7FEFF 		bl	dbg_check_unlock
 600 007e 0023     		movs	r3, #0
 601              	@ 338 "chibios/os/hal/src/spi.c" 1
 602 0080 83F31188 		msr     BASEPRI, r3
 603              	@ 0 "" 2
 604              		.thumb
 605 0084 F8BD     		pop	{r3, r4, r5, r6, r7, pc}
 606              	.L82:
 607 0086 40F20000 		movw	r0, #:lower16:.LC21
 608 008a 40F20001 		movw	r1, #:lower16:.LC1
 609 008e C0F20000 		movt	r0, #:upper16:.LC21
 610 0092 C0F20001 		movt	r1, #:upper16:.LC1
 611 0096 4FF4A572 		mov	r2, #330
 612 009a FFF7FEFF 		bl	chDbgPanic3
 613 009e BCE7     		b	.L83
 614              		.size	spiExchange, .-spiExchange
 615              		.section	.text.spiSend,"ax",%progbits
 616              		.align	2
 617              		.p2align 4,,15
 618              		.global	spiSend
 619              		.thumb
 620              		.thumb_func
ARM GAS  C:\Users\pc\AppData\Local\Temp\ccEFGtYf.s 			page 12


 621              		.type	spiSend, %function
 622              	spiSend:
 623              		@ args = 0, pretend = 0, frame = 0
 624              		@ frame_needed = 0, uses_anonymous_args = 0
 625 0000 0029     		cmp	r1, #0
 626 0002 18BF     		it	ne
 627 0004 0028     		cmpne	r0, #0
 628 0006 70B5     		push	{r4, r5, r6, lr}
 629 0008 0446     		mov	r4, r0
 630 000a 0D46     		mov	r5, r1
 631 000c 1646     		mov	r6, r2
 632 000e 35D0     		beq	.L100
 633 0010 A2B3     		cbz	r2, .L100
 634              	.L101:
 635 0012 2023     		movs	r3, #32
 636              	@ 361 "chibios/os/hal/src/spi.c" 1
 637 0014 83F31188 		msr     BASEPRI, r3
 638              	@ 0 "" 2
 639              		.thumb
 640 0018 FFF7FEFF 		bl	dbg_check_lock
 641 001c 2378     		ldrb	r3, [r4]	@ zero_extendqisi2
 642 001e 022B     		cmp	r3, #2
 643 0020 05D0     		beq	.L102
 644 0022 40F20000 		movw	r0, #:lower16:.LC25
 645 0026 C0F20000 		movt	r0, #:upper16:.LC25
 646 002a FFF7FEFF 		bl	chDbgPanic
 647              	.L102:
 648 002e 6368     		ldr	r3, [r4, #4]
 649 0030 1B68     		ldr	r3, [r3]
 650 0032 2BB1     		cbz	r3, .L103
 651 0034 40F20000 		movw	r0, #:lower16:.LC26
 652 0038 C0F20000 		movt	r0, #:upper16:.LC26
 653 003c FFF7FEFF 		bl	chDbgPanic
 654              	.L103:
 655 0040 0323     		movs	r3, #3
 656 0042 2370     		strb	r3, [r4]
 657 0044 2946     		mov	r1, r5
 658 0046 3246     		mov	r2, r6
 659 0048 2046     		mov	r0, r4
 660 004a FFF7FEFF 		bl	spi_lld_send
 661 004e A368     		ldr	r3, [r4, #8]
 662 0050 2BB1     		cbz	r3, .L104
 663 0052 40F20000 		movw	r0, #:lower16:.LC20
 664 0056 C0F20000 		movt	r0, #:upper16:.LC20
 665 005a FFF7FEFF 		bl	chDbgPanic
 666              	.L104:
 667 005e 40F20003 		movw	r3, #:lower16:rlist
 668 0062 C0F20003 		movt	r3, #:upper16:rlist
 669 0066 0220     		movs	r0, #2
 670 0068 9B69     		ldr	r3, [r3, #24]
 671 006a A360     		str	r3, [r4, #8]
 672 006c FFF7FEFF 		bl	chSchGoSleepS
 673 0070 FFF7FEFF 		bl	dbg_check_unlock
 674 0074 0023     		movs	r3, #0
 675              	@ 366 "chibios/os/hal/src/spi.c" 1
 676 0076 83F31188 		msr     BASEPRI, r3
 677              	@ 0 "" 2
ARM GAS  C:\Users\pc\AppData\Local\Temp\ccEFGtYf.s 			page 13


 678              		.thumb
 679 007a 70BD     		pop	{r4, r5, r6, pc}
 680              	.L100:
 681 007c 40F20000 		movw	r0, #:lower16:.LC24
 682 0080 40F20001 		movw	r1, #:lower16:.LC1
 683 0084 C0F20000 		movt	r0, #:upper16:.LC24
 684 0088 C0F20001 		movt	r1, #:upper16:.LC1
 685 008c 40F26712 		movw	r2, #359
 686 0090 FFF7FEFF 		bl	chDbgPanic3
 687 0094 BDE7     		b	.L101
 688              		.size	spiSend, .-spiSend
 689 0096 00BFAFF3 		.section	.text.spiReceive,"ax",%progbits
 689      0080AFF3 
 689      0080
 690              		.align	2
 691              		.p2align 4,,15
 692              		.global	spiReceive
 693              		.thumb
 694              		.thumb_func
 695              		.type	spiReceive, %function
 696              	spiReceive:
 697              		@ args = 0, pretend = 0, frame = 0
 698              		@ frame_needed = 0, uses_anonymous_args = 0
 699 0000 0029     		cmp	r1, #0
 700 0002 18BF     		it	ne
 701 0004 0028     		cmpne	r0, #0
 702 0006 70B5     		push	{r4, r5, r6, lr}
 703 0008 0446     		mov	r4, r0
 704 000a 0D46     		mov	r5, r1
 705 000c 1646     		mov	r6, r2
 706 000e 35D0     		beq	.L115
 707 0010 A2B3     		cbz	r2, .L115
 708              	.L116:
 709 0012 2023     		movs	r3, #32
 710              	@ 390 "chibios/os/hal/src/spi.c" 1
 711 0014 83F31188 		msr     BASEPRI, r3
 712              	@ 0 "" 2
 713              		.thumb
 714 0018 FFF7FEFF 		bl	dbg_check_lock
 715 001c 2378     		ldrb	r3, [r4]	@ zero_extendqisi2
 716 001e 022B     		cmp	r3, #2
 717 0020 05D0     		beq	.L117
 718 0022 40F20000 		movw	r0, #:lower16:.LC28
 719 0026 C0F20000 		movt	r0, #:upper16:.LC28
 720 002a FFF7FEFF 		bl	chDbgPanic
 721              	.L117:
 722 002e 6368     		ldr	r3, [r4, #4]
 723 0030 1B68     		ldr	r3, [r3]
 724 0032 2BB1     		cbz	r3, .L118
 725 0034 40F20000 		movw	r0, #:lower16:.LC29
 726 0038 C0F20000 		movt	r0, #:upper16:.LC29
 727 003c FFF7FEFF 		bl	chDbgPanic
 728              	.L118:
 729 0040 0323     		movs	r3, #3
 730 0042 2370     		strb	r3, [r4]
 731 0044 2946     		mov	r1, r5
 732 0046 3246     		mov	r2, r6
ARM GAS  C:\Users\pc\AppData\Local\Temp\ccEFGtYf.s 			page 14


 733 0048 2046     		mov	r0, r4
 734 004a FFF7FEFF 		bl	spi_lld_receive
 735 004e A368     		ldr	r3, [r4, #8]
 736 0050 2BB1     		cbz	r3, .L119
 737 0052 40F20000 		movw	r0, #:lower16:.LC20
 738 0056 C0F20000 		movt	r0, #:upper16:.LC20
 739 005a FFF7FEFF 		bl	chDbgPanic
 740              	.L119:
 741 005e 40F20003 		movw	r3, #:lower16:rlist
 742 0062 C0F20003 		movt	r3, #:upper16:rlist
 743 0066 0220     		movs	r0, #2
 744 0068 9B69     		ldr	r3, [r3, #24]
 745 006a A360     		str	r3, [r4, #8]
 746 006c FFF7FEFF 		bl	chSchGoSleepS
 747 0070 FFF7FEFF 		bl	dbg_check_unlock
 748 0074 0023     		movs	r3, #0
 749              	@ 396 "chibios/os/hal/src/spi.c" 1
 750 0076 83F31188 		msr     BASEPRI, r3
 751              	@ 0 "" 2
 752              		.thumb
 753 007a 70BD     		pop	{r4, r5, r6, pc}
 754              	.L115:
 755 007c 40F20000 		movw	r0, #:lower16:.LC27
 756 0080 40F20001 		movw	r1, #:lower16:.LC1
 757 0084 C0F20000 		movt	r0, #:upper16:.LC27
 758 0088 C0F20001 		movt	r1, #:upper16:.LC1
 759 008c 4FF4C272 		mov	r2, #388
 760 0090 FFF7FEFF 		bl	chDbgPanic3
 761 0094 BDE7     		b	.L116
 762              		.size	spiReceive, .-spiReceive
 763 0096 00BFAFF3 		.section	.text.spiAcquireBus,"ax",%progbits
 763      0080AFF3 
 763      0080
 764              		.align	2
 765              		.p2align 4,,15
 766              		.global	spiAcquireBus
 767              		.thumb
 768              		.thumb_func
 769              		.type	spiAcquireBus, %function
 770              	spiAcquireBus:
 771              		@ args = 0, pretend = 0, frame = 0
 772              		@ frame_needed = 0, uses_anonymous_args = 0
 773 0000 10B5     		push	{r4, lr}
 774 0002 0446     		mov	r4, r0
 775 0004 28B1     		cbz	r0, .L131
 776 0006 04F10C00 		add	r0, r4, #12
 777 000a BDE81040 		pop	{r4, lr}
 778 000e FFF7FEBF 		b	chMtxLock
 779              	.L131:
 780 0012 40F20000 		movw	r0, #:lower16:.LC30
 781 0016 40F20001 		movw	r1, #:lower16:.LC1
 782 001a C0F20000 		movt	r0, #:upper16:.LC30
 783 001e C0F20001 		movt	r1, #:upper16:.LC1
 784 0022 4FF4CF72 		mov	r2, #414
 785 0026 FFF7FEFF 		bl	chDbgPanic3
 786 002a 04F10C00 		add	r0, r4, #12
 787 002e BDE81040 		pop	{r4, lr}
ARM GAS  C:\Users\pc\AppData\Local\Temp\ccEFGtYf.s 			page 15


 788 0032 FFF7FEBF 		b	chMtxLock
 789              		.size	spiAcquireBus, .-spiAcquireBus
 790 0036 00BFAFF3 		.section	.text.spiReleaseBus,"ax",%progbits
 790      0080AFF3 
 790      0080
 791              		.align	2
 792              		.p2align 4,,15
 793              		.global	spiReleaseBus
 794              		.thumb
 795              		.thumb_func
 796              		.type	spiReleaseBus, %function
 797              	spiReleaseBus:
 798              		@ args = 0, pretend = 0, frame = 0
 799              		@ frame_needed = 0, uses_anonymous_args = 0
 800 0000 08B5     		push	{r3, lr}
 801 0002 18B1     		cbz	r0, .L134
 802 0004 BDE80840 		pop	{r3, lr}
 803 0008 FFF7FEBF 		b	chMtxUnlock
 804              	.L134:
 805 000c 40F20000 		movw	r0, #:lower16:.LC31
 806 0010 40F20001 		movw	r1, #:lower16:.LC1
 807 0014 C0F20000 		movt	r0, #:upper16:.LC31
 808 0018 C0F20001 		movt	r1, #:upper16:.LC1
 809 001c 4FF4D972 		mov	r2, #434
 810 0020 FFF7FEFF 		bl	chDbgPanic3
 811 0024 BDE80840 		pop	{r3, lr}
 812 0028 FFF7FEBF 		b	chMtxUnlock
 813              		.size	spiReleaseBus, .-spiReleaseBus
 814 002c AFF30080 		.section	.rodata.str1.4,"aMS",%progbits,1
 815              		.align	2
 816              	.LC0:
 817 0000 22737069 		.ascii	"\"spiStart\"()\000"
 817      53746172 
 817      74222829 
 817      00
 818 000d 000000   		.space	3
 819              	.LC1:
 820 0010 63686962 		.ascii	"chibios/os/hal/src/spi.c\000"
 820      696F732F 
 820      6F732F68 
 820      616C2F73 
 820      72632F73 
 821 0029 000000   		.space	3
 822              	.LC2:
 823 002c 73706953 		.ascii	"spiStart(), #1\000"
 823      74617274 
 823      28292C20 
 823      233100
 824 003b 00       		.space	1
 825              	.LC3:
 826 003c 22737069 		.ascii	"\"spiStop\"()\000"
 826      53746F70 
 826      22282900 
 827              	.LC4:
 828 0048 73706953 		.ascii	"spiStop(), #1\000"
 828      746F7028 
 828      292C2023 
ARM GAS  C:\Users\pc\AppData\Local\Temp\ccEFGtYf.s 			page 16


 828      3100
 829 0056 0000     		.space	2
 830              	.LC5:
 831 0058 22737069 		.ascii	"\"spiSelect\"()\000"
 831      53656C65 
 831      63742228 
 831      2900
 832 0066 0000     		.space	2
 833              	.LC6:
 834 0068 73706953 		.ascii	"spiSelect(), #1\000"
 834      656C6563 
 834      7428292C 
 834      20233100 
 835              	.LC7:
 836 0078 22737069 		.ascii	"\"spiUnselect\"()\000"
 836      556E7365 
 836      6C656374 
 836      22282900 
 837              	.LC8:
 838 0088 73706955 		.ascii	"spiUnselect(), #1\000"
 838      6E73656C 
 838      65637428 
 838      292C2023 
 838      3100
 839 009a 0000     		.space	2
 840              	.LC9:
 841 009c 22737069 		.ascii	"\"spiStartIgnore\"()\000"
 841      53746172 
 841      7449676E 
 841      6F726522 
 841      282900
 842 00af 00       		.space	1
 843              	.LC10:
 844 00b0 73706953 		.ascii	"spiStartIgnore(), #1\000"
 844      74617274 
 844      49676E6F 
 844      72652829 
 844      2C202331 
 845 00c5 000000   		.space	3
 846              	.LC11:
 847 00c8 22737069 		.ascii	"\"spiStartExchange\"()\000"
 847      53746172 
 847      74457863 
 847      68616E67 
 847      65222829 
 848 00dd 000000   		.space	3
 849              	.LC12:
 850 00e0 73706953 		.ascii	"spiStartExchange(), #1\000"
 850      74617274 
 850      45786368 
 850      616E6765 
 850      28292C20 
 851 00f7 00       		.space	1
 852              	.LC13:
 853 00f8 22737069 		.ascii	"\"spiStartSend\"()\000"
 853      53746172 
 853      7453656E 
ARM GAS  C:\Users\pc\AppData\Local\Temp\ccEFGtYf.s 			page 17


 853      64222829 
 853      00
 854 0109 000000   		.space	3
 855              	.LC14:
 856 010c 73706953 		.ascii	"spiStartSend(), #1\000"
 856      74617274 
 856      53656E64 
 856      28292C20 
 856      233100
 857 011f 00       		.space	1
 858              	.LC15:
 859 0120 22737069 		.ascii	"\"spiStartReceive\"()\000"
 859      53746172 
 859      74526563 
 859      65697665 
 859      22282900 
 860              	.LC16:
 861 0134 73706953 		.ascii	"spiStartReceive(), #1\000"
 861      74617274 
 861      52656365 
 861      69766528 
 861      292C2023 
 862 014a 0000     		.space	2
 863              	.LC17:
 864 014c 22737069 		.ascii	"\"spiIgnoreWait\"()\000"
 864      49676E6F 
 864      72655761 
 864      69742228 
 864      2900
 865 015e 0000     		.space	2
 866              	.LC18:
 867 0160 73706949 		.ascii	"spiIgnore(), #1\000"
 867      676E6F72 
 867      6528292C 
 867      20233100 
 868              	.LC19:
 869 0170 73706949 		.ascii	"spiIgnore(), #2\000"
 869      676E6F72 
 869      6528292C 
 869      20233200 
 870              	.LC20:
 871 0180 5F737069 		.ascii	"_spi_wait(), #1\000"
 871      5F776169 
 871      7428292C 
 871      20233100 
 872              	.LC21:
 873 0190 22737069 		.ascii	"\"spiExchange\"()\000"
 873      45786368 
 873      616E6765 
 873      22282900 
 874              	.LC22:
 875 01a0 73706945 		.ascii	"spiExchange(), #1\000"
 875      78636861 
 875      6E676528 
 875      292C2023 
 875      3100
 876 01b2 0000     		.space	2
ARM GAS  C:\Users\pc\AppData\Local\Temp\ccEFGtYf.s 			page 18


 877              	.LC23:
 878 01b4 73706945 		.ascii	"spiExchange(), #2\000"
 878      78636861 
 878      6E676528 
 878      292C2023 
 878      3200
 879 01c6 0000     		.space	2
 880              	.LC24:
 881 01c8 22737069 		.ascii	"\"spiSend\"()\000"
 881      53656E64 
 881      22282900 
 882              	.LC25:
 883 01d4 73706953 		.ascii	"spiSend(), #1\000"
 883      656E6428 
 883      292C2023 
 883      3100
 884 01e2 0000     		.space	2
 885              	.LC26:
 886 01e4 73706953 		.ascii	"spiSend(), #2\000"
 886      656E6428 
 886      292C2023 
 886      3200
 887 01f2 0000     		.space	2
 888              	.LC27:
 889 01f4 22737069 		.ascii	"\"spiReceive\"()\000"
 889      52656365 
 889      69766522 
 889      282900
 890 0203 00       		.space	1
 891              	.LC28:
 892 0204 73706952 		.ascii	"spiReceive(), #1\000"
 892      65636569 
 892      76652829 
 892      2C202331 
 892      00
 893 0215 000000   		.space	3
 894              	.LC29:
 895 0218 73706952 		.ascii	"spiReceive(), #2\000"
 895      65636569 
 895      76652829 
 895      2C202332 
 895      00
 896 0229 000000   		.space	3
 897              	.LC30:
 898 022c 22737069 		.ascii	"\"spiAcquireBus\"()\000"
 898      41637175 
 898      69726542 
 898      75732228 
 898      2900
 899 023e 0000     		.space	2
 900              	.LC31:
 901 0240 22737069 		.ascii	"\"spiReleaseBus\"()\000"
 901      52656C65 
 901      61736542 
 901      75732228 
 901      2900
 902 0252 0000     		.ident	"GCC: (Sourcery CodeBench Lite 2013.11-24) 4.8.1"
ARM GAS  C:\Users\pc\AppData\Local\Temp\ccEFGtYf.s 			page 19


ARM GAS  C:\Users\pc\AppData\Local\Temp\ccEFGtYf.s 			page 20

