ARM GAS  C:\Users\pc\AppData\Local\Temp\ccRef6sd.s 			page 1


   1              		.syntax unified
   2              		.cpu cortex-m4
   3              		.eabi_attribute 27, 3
   4              		.fpu fpv4-sp-d16
   5              		.eabi_attribute 20, 1
   6              		.eabi_attribute 21, 1
   7              		.eabi_attribute 23, 3
   8              		.eabi_attribute 24, 1
   9              		.eabi_attribute 25, 1
  10              		.eabi_attribute 26, 1
  11              		.eabi_attribute 30, 2
  12              		.eabi_attribute 34, 1
  13              		.eabi_attribute 18, 4
  14              		.thumb
  15              		.file	"stm32_dma.c"
  16              		.section	.text.Vector6C,"ax",%progbits
  17              		.align	2
  18              		.p2align 4,,15
  19              		.global	Vector6C
  20              		.thumb
  21              		.thumb_func
  22              		.type	Vector6C, %function
  23              	Vector6C:
  24              		@ args = 0, pretend = 0, frame = 0
  25              		@ frame_needed = 0, uses_anonymous_args = 0
  26 0000 10B5     		push	{r4, lr}
  27 0002 FFF7FEFF 		bl	dbg_check_enter_isr
  28 0006 4FF4C042 		mov	r2, #24576
  29 000a C4F20202 		movt	r2, 16386
  30 000e 40F20003 		movw	r3, #:lower16:.LANCHOR0
  31 0012 C0F20003 		movt	r3, #:upper16:.LANCHOR0
  32 0016 1168     		ldr	r1, [r2]
  33 0018 1C68     		ldr	r4, [r3]
  34 001a 01F03D01 		and	r1, r1, #61
  35 001e 9160     		str	r1, [r2, #8]
  36 0020 0CB1     		cbz	r4, .L2
  37 0022 5868     		ldr	r0, [r3, #4]
  38 0024 A047     		blx	r4
  39              	.L2:
  40 0026 FFF7FEFF 		bl	dbg_check_leave_isr
  41 002a BDE81040 		pop	{r4, lr}
  42 002e FFF7FEBF 		b	_port_irq_epilogue
  43              		.size	Vector6C, .-Vector6C
  44 0032 00BFAFF3 		.section	.text.Vector70,"ax",%progbits
  44      0080AFF3 
  44      0080AFF3 
  44      0080
  45              		.align	2
  46              		.p2align 4,,15
  47              		.global	Vector70
  48              		.thumb
  49              		.thumb_func
  50              		.type	Vector70, %function
  51              	Vector70:
  52              		@ args = 0, pretend = 0, frame = 0
  53              		@ frame_needed = 0, uses_anonymous_args = 0
  54 0000 10B5     		push	{r4, lr}
ARM GAS  C:\Users\pc\AppData\Local\Temp\ccRef6sd.s 			page 2


  55 0002 FFF7FEFF 		bl	dbg_check_enter_isr
  56 0006 4FF4C042 		mov	r2, #24576
  57 000a C4F20202 		movt	r2, 16386
  58 000e 40F20003 		movw	r3, #:lower16:.LANCHOR0
  59 0012 1168     		ldr	r1, [r2]
  60 0014 C0F20003 		movt	r3, #:upper16:.LANCHOR0
  61 0018 8909     		lsrs	r1, r1, #6
  62 001a 01F03D01 		and	r1, r1, #61
  63 001e 9C68     		ldr	r4, [r3, #8]
  64 0020 8801     		lsls	r0, r1, #6
  65 0022 9060     		str	r0, [r2, #8]
  66 0024 0CB1     		cbz	r4, .L8
  67 0026 D868     		ldr	r0, [r3, #12]
  68 0028 A047     		blx	r4
  69              	.L8:
  70 002a FFF7FEFF 		bl	dbg_check_leave_isr
  71 002e BDE81040 		pop	{r4, lr}
  72 0032 FFF7FEBF 		b	_port_irq_epilogue
  73              		.size	Vector70, .-Vector70
  74 0036 00BFAFF3 		.section	.text.Vector74,"ax",%progbits
  74      0080AFF3 
  74      0080
  75              		.align	2
  76              		.p2align 4,,15
  77              		.global	Vector74
  78              		.thumb
  79              		.thumb_func
  80              		.type	Vector74, %function
  81              	Vector74:
  82              		@ args = 0, pretend = 0, frame = 0
  83              		@ frame_needed = 0, uses_anonymous_args = 0
  84 0000 10B5     		push	{r4, lr}
  85 0002 FFF7FEFF 		bl	dbg_check_enter_isr
  86 0006 4FF4C042 		mov	r2, #24576
  87 000a C4F20202 		movt	r2, 16386
  88 000e 40F20003 		movw	r3, #:lower16:.LANCHOR0
  89 0012 1168     		ldr	r1, [r2]
  90 0014 C0F20003 		movt	r3, #:upper16:.LANCHOR0
  91 0018 090C     		lsrs	r1, r1, #16
  92 001a 01F03D01 		and	r1, r1, #61
  93 001e 1C69     		ldr	r4, [r3, #16]
  94 0020 0804     		lsls	r0, r1, #16
  95 0022 9060     		str	r0, [r2, #8]
  96 0024 0CB1     		cbz	r4, .L13
  97 0026 5869     		ldr	r0, [r3, #20]
  98 0028 A047     		blx	r4
  99              	.L13:
 100 002a FFF7FEFF 		bl	dbg_check_leave_isr
 101 002e BDE81040 		pop	{r4, lr}
 102 0032 FFF7FEBF 		b	_port_irq_epilogue
 103              		.size	Vector74, .-Vector74
 104 0036 00BFAFF3 		.section	.text.Vector78,"ax",%progbits
 104      0080AFF3 
 104      0080
 105              		.align	2
 106              		.p2align 4,,15
 107              		.global	Vector78
ARM GAS  C:\Users\pc\AppData\Local\Temp\ccRef6sd.s 			page 3


 108              		.thumb
 109              		.thumb_func
 110              		.type	Vector78, %function
 111              	Vector78:
 112              		@ args = 0, pretend = 0, frame = 0
 113              		@ frame_needed = 0, uses_anonymous_args = 0
 114 0000 10B5     		push	{r4, lr}
 115 0002 FFF7FEFF 		bl	dbg_check_enter_isr
 116 0006 4FF4C042 		mov	r2, #24576
 117 000a C4F20202 		movt	r2, 16386
 118 000e 40F20003 		movw	r3, #:lower16:.LANCHOR0
 119 0012 1168     		ldr	r1, [r2]
 120 0014 C0F20003 		movt	r3, #:upper16:.LANCHOR0
 121 0018 890D     		lsrs	r1, r1, #22
 122 001a 01F03D01 		and	r1, r1, #61
 123 001e 9C69     		ldr	r4, [r3, #24]
 124 0020 8805     		lsls	r0, r1, #22
 125 0022 9060     		str	r0, [r2, #8]
 126 0024 0CB1     		cbz	r4, .L18
 127 0026 D869     		ldr	r0, [r3, #28]
 128 0028 A047     		blx	r4
 129              	.L18:
 130 002a FFF7FEFF 		bl	dbg_check_leave_isr
 131 002e BDE81040 		pop	{r4, lr}
 132 0032 FFF7FEBF 		b	_port_irq_epilogue
 133              		.size	Vector78, .-Vector78
 134 0036 00BFAFF3 		.section	.text.Vector7C,"ax",%progbits
 134      0080AFF3 
 134      0080
 135              		.align	2
 136              		.p2align 4,,15
 137              		.global	Vector7C
 138              		.thumb
 139              		.thumb_func
 140              		.type	Vector7C, %function
 141              	Vector7C:
 142              		@ args = 0, pretend = 0, frame = 0
 143              		@ frame_needed = 0, uses_anonymous_args = 0
 144 0000 10B5     		push	{r4, lr}
 145 0002 FFF7FEFF 		bl	dbg_check_enter_isr
 146 0006 4FF4C042 		mov	r2, #24576
 147 000a C4F20202 		movt	r2, 16386
 148 000e 40F20003 		movw	r3, #:lower16:.LANCHOR0
 149 0012 C0F20003 		movt	r3, #:upper16:.LANCHOR0
 150 0016 5168     		ldr	r1, [r2, #4]
 151 0018 1C6A     		ldr	r4, [r3, #32]
 152 001a 01F03D01 		and	r1, r1, #61
 153 001e D160     		str	r1, [r2, #12]
 154 0020 0CB1     		cbz	r4, .L23
 155 0022 586A     		ldr	r0, [r3, #36]
 156 0024 A047     		blx	r4
 157              	.L23:
 158 0026 FFF7FEFF 		bl	dbg_check_leave_isr
 159 002a BDE81040 		pop	{r4, lr}
 160 002e FFF7FEBF 		b	_port_irq_epilogue
 161              		.size	Vector7C, .-Vector7C
 162 0032 00BFAFF3 		.section	.text.Vector80,"ax",%progbits
ARM GAS  C:\Users\pc\AppData\Local\Temp\ccRef6sd.s 			page 4


 162      0080AFF3 
 162      0080AFF3 
 162      0080
 163              		.align	2
 164              		.p2align 4,,15
 165              		.global	Vector80
 166              		.thumb
 167              		.thumb_func
 168              		.type	Vector80, %function
 169              	Vector80:
 170              		@ args = 0, pretend = 0, frame = 0
 171              		@ frame_needed = 0, uses_anonymous_args = 0
 172 0000 10B5     		push	{r4, lr}
 173 0002 FFF7FEFF 		bl	dbg_check_enter_isr
 174 0006 4FF4C042 		mov	r2, #24576
 175 000a C4F20202 		movt	r2, 16386
 176 000e 40F20003 		movw	r3, #:lower16:.LANCHOR0
 177 0012 5168     		ldr	r1, [r2, #4]
 178 0014 C0F20003 		movt	r3, #:upper16:.LANCHOR0
 179 0018 8909     		lsrs	r1, r1, #6
 180 001a 01F03D01 		and	r1, r1, #61
 181 001e 9C6A     		ldr	r4, [r3, #40]
 182 0020 8801     		lsls	r0, r1, #6
 183 0022 D060     		str	r0, [r2, #12]
 184 0024 0CB1     		cbz	r4, .L28
 185 0026 D86A     		ldr	r0, [r3, #44]
 186 0028 A047     		blx	r4
 187              	.L28:
 188 002a FFF7FEFF 		bl	dbg_check_leave_isr
 189 002e BDE81040 		pop	{r4, lr}
 190 0032 FFF7FEBF 		b	_port_irq_epilogue
 191              		.size	Vector80, .-Vector80
 192 0036 00BFAFF3 		.section	.text.Vector84,"ax",%progbits
 192      0080AFF3 
 192      0080
 193              		.align	2
 194              		.p2align 4,,15
 195              		.global	Vector84
 196              		.thumb
 197              		.thumb_func
 198              		.type	Vector84, %function
 199              	Vector84:
 200              		@ args = 0, pretend = 0, frame = 0
 201              		@ frame_needed = 0, uses_anonymous_args = 0
 202 0000 10B5     		push	{r4, lr}
 203 0002 FFF7FEFF 		bl	dbg_check_enter_isr
 204 0006 4FF4C042 		mov	r2, #24576
 205 000a C4F20202 		movt	r2, 16386
 206 000e 40F20003 		movw	r3, #:lower16:.LANCHOR0
 207 0012 5168     		ldr	r1, [r2, #4]
 208 0014 C0F20003 		movt	r3, #:upper16:.LANCHOR0
 209 0018 090C     		lsrs	r1, r1, #16
 210 001a 01F03D01 		and	r1, r1, #61
 211 001e 1C6B     		ldr	r4, [r3, #48]
 212 0020 0804     		lsls	r0, r1, #16
 213 0022 D060     		str	r0, [r2, #12]
 214 0024 0CB1     		cbz	r4, .L33
ARM GAS  C:\Users\pc\AppData\Local\Temp\ccRef6sd.s 			page 5


 215 0026 586B     		ldr	r0, [r3, #52]
 216 0028 A047     		blx	r4
 217              	.L33:
 218 002a FFF7FEFF 		bl	dbg_check_leave_isr
 219 002e BDE81040 		pop	{r4, lr}
 220 0032 FFF7FEBF 		b	_port_irq_epilogue
 221              		.size	Vector84, .-Vector84
 222 0036 00BFAFF3 		.section	.text.VectorFC,"ax",%progbits
 222      0080AFF3 
 222      0080
 223              		.align	2
 224              		.p2align 4,,15
 225              		.global	VectorFC
 226              		.thumb
 227              		.thumb_func
 228              		.type	VectorFC, %function
 229              	VectorFC:
 230              		@ args = 0, pretend = 0, frame = 0
 231              		@ frame_needed = 0, uses_anonymous_args = 0
 232 0000 10B5     		push	{r4, lr}
 233 0002 FFF7FEFF 		bl	dbg_check_enter_isr
 234 0006 4FF4C042 		mov	r2, #24576
 235 000a C4F20202 		movt	r2, 16386
 236 000e 40F20003 		movw	r3, #:lower16:.LANCHOR0
 237 0012 5168     		ldr	r1, [r2, #4]
 238 0014 C0F20003 		movt	r3, #:upper16:.LANCHOR0
 239 0018 890D     		lsrs	r1, r1, #22
 240 001a 01F03D01 		and	r1, r1, #61
 241 001e 9C6B     		ldr	r4, [r3, #56]
 242 0020 8805     		lsls	r0, r1, #22
 243 0022 D060     		str	r0, [r2, #12]
 244 0024 0CB1     		cbz	r4, .L38
 245 0026 D86B     		ldr	r0, [r3, #60]
 246 0028 A047     		blx	r4
 247              	.L38:
 248 002a FFF7FEFF 		bl	dbg_check_leave_isr
 249 002e BDE81040 		pop	{r4, lr}
 250 0032 FFF7FEBF 		b	_port_irq_epilogue
 251              		.size	VectorFC, .-VectorFC
 252 0036 00BFAFF3 		.section	.text.Vector120,"ax",%progbits
 252      0080AFF3 
 252      0080
 253              		.align	2
 254              		.p2align 4,,15
 255              		.global	Vector120
 256              		.thumb
 257              		.thumb_func
 258              		.type	Vector120, %function
 259              	Vector120:
 260              		@ args = 0, pretend = 0, frame = 0
 261              		@ frame_needed = 0, uses_anonymous_args = 0
 262 0000 10B5     		push	{r4, lr}
 263 0002 FFF7FEFF 		bl	dbg_check_enter_isr
 264 0006 4FF4C842 		mov	r2, #25600
 265 000a C4F20202 		movt	r2, 16386
 266 000e 40F20003 		movw	r3, #:lower16:.LANCHOR0
 267 0012 C0F20003 		movt	r3, #:upper16:.LANCHOR0
ARM GAS  C:\Users\pc\AppData\Local\Temp\ccRef6sd.s 			page 6


 268 0016 1168     		ldr	r1, [r2]
 269 0018 1C6C     		ldr	r4, [r3, #64]
 270 001a 01F03D01 		and	r1, r1, #61
 271 001e 9160     		str	r1, [r2, #8]
 272 0020 0CB1     		cbz	r4, .L43
 273 0022 586C     		ldr	r0, [r3, #68]
 274 0024 A047     		blx	r4
 275              	.L43:
 276 0026 FFF7FEFF 		bl	dbg_check_leave_isr
 277 002a BDE81040 		pop	{r4, lr}
 278 002e FFF7FEBF 		b	_port_irq_epilogue
 279              		.size	Vector120, .-Vector120
 280 0032 00BFAFF3 		.section	.text.Vector124,"ax",%progbits
 280      0080AFF3 
 280      0080AFF3 
 280      0080
 281              		.align	2
 282              		.p2align 4,,15
 283              		.global	Vector124
 284              		.thumb
 285              		.thumb_func
 286              		.type	Vector124, %function
 287              	Vector124:
 288              		@ args = 0, pretend = 0, frame = 0
 289              		@ frame_needed = 0, uses_anonymous_args = 0
 290 0000 10B5     		push	{r4, lr}
 291 0002 FFF7FEFF 		bl	dbg_check_enter_isr
 292 0006 4FF4C842 		mov	r2, #25600
 293 000a C4F20202 		movt	r2, 16386
 294 000e 40F20003 		movw	r3, #:lower16:.LANCHOR0
 295 0012 1168     		ldr	r1, [r2]
 296 0014 C0F20003 		movt	r3, #:upper16:.LANCHOR0
 297 0018 8909     		lsrs	r1, r1, #6
 298 001a 01F03D01 		and	r1, r1, #61
 299 001e 9C6C     		ldr	r4, [r3, #72]
 300 0020 8801     		lsls	r0, r1, #6
 301 0022 9060     		str	r0, [r2, #8]
 302 0024 0CB1     		cbz	r4, .L48
 303 0026 D86C     		ldr	r0, [r3, #76]
 304 0028 A047     		blx	r4
 305              	.L48:
 306 002a FFF7FEFF 		bl	dbg_check_leave_isr
 307 002e BDE81040 		pop	{r4, lr}
 308 0032 FFF7FEBF 		b	_port_irq_epilogue
 309              		.size	Vector124, .-Vector124
 310 0036 00BFAFF3 		.section	.text.Vector128,"ax",%progbits
 310      0080AFF3 
 310      0080
 311              		.align	2
 312              		.p2align 4,,15
 313              		.global	Vector128
 314              		.thumb
 315              		.thumb_func
 316              		.type	Vector128, %function
 317              	Vector128:
 318              		@ args = 0, pretend = 0, frame = 0
 319              		@ frame_needed = 0, uses_anonymous_args = 0
ARM GAS  C:\Users\pc\AppData\Local\Temp\ccRef6sd.s 			page 7


 320 0000 10B5     		push	{r4, lr}
 321 0002 FFF7FEFF 		bl	dbg_check_enter_isr
 322 0006 4FF4C842 		mov	r2, #25600
 323 000a C4F20202 		movt	r2, 16386
 324 000e 40F20003 		movw	r3, #:lower16:.LANCHOR0
 325 0012 1168     		ldr	r1, [r2]
 326 0014 C0F20003 		movt	r3, #:upper16:.LANCHOR0
 327 0018 090C     		lsrs	r1, r1, #16
 328 001a 01F03D01 		and	r1, r1, #61
 329 001e 1C6D     		ldr	r4, [r3, #80]
 330 0020 0804     		lsls	r0, r1, #16
 331 0022 9060     		str	r0, [r2, #8]
 332 0024 0CB1     		cbz	r4, .L53
 333 0026 586D     		ldr	r0, [r3, #84]
 334 0028 A047     		blx	r4
 335              	.L53:
 336 002a FFF7FEFF 		bl	dbg_check_leave_isr
 337 002e BDE81040 		pop	{r4, lr}
 338 0032 FFF7FEBF 		b	_port_irq_epilogue
 339              		.size	Vector128, .-Vector128
 340 0036 00BFAFF3 		.section	.text.Vector12C,"ax",%progbits
 340      0080AFF3 
 340      0080
 341              		.align	2
 342              		.p2align 4,,15
 343              		.global	Vector12C
 344              		.thumb
 345              		.thumb_func
 346              		.type	Vector12C, %function
 347              	Vector12C:
 348              		@ args = 0, pretend = 0, frame = 0
 349              		@ frame_needed = 0, uses_anonymous_args = 0
 350 0000 10B5     		push	{r4, lr}
 351 0002 FFF7FEFF 		bl	dbg_check_enter_isr
 352 0006 4FF4C842 		mov	r2, #25600
 353 000a C4F20202 		movt	r2, 16386
 354 000e 40F20003 		movw	r3, #:lower16:.LANCHOR0
 355 0012 1168     		ldr	r1, [r2]
 356 0014 C0F20003 		movt	r3, #:upper16:.LANCHOR0
 357 0018 890D     		lsrs	r1, r1, #22
 358 001a 01F03D01 		and	r1, r1, #61
 359 001e 9C6D     		ldr	r4, [r3, #88]
 360 0020 8805     		lsls	r0, r1, #22
 361 0022 9060     		str	r0, [r2, #8]
 362 0024 0CB1     		cbz	r4, .L58
 363 0026 D86D     		ldr	r0, [r3, #92]
 364 0028 A047     		blx	r4
 365              	.L58:
 366 002a FFF7FEFF 		bl	dbg_check_leave_isr
 367 002e BDE81040 		pop	{r4, lr}
 368 0032 FFF7FEBF 		b	_port_irq_epilogue
 369              		.size	Vector12C, .-Vector12C
 370 0036 00BFAFF3 		.section	.text.Vector130,"ax",%progbits
 370      0080AFF3 
 370      0080
 371              		.align	2
 372              		.p2align 4,,15
ARM GAS  C:\Users\pc\AppData\Local\Temp\ccRef6sd.s 			page 8


 373              		.global	Vector130
 374              		.thumb
 375              		.thumb_func
 376              		.type	Vector130, %function
 377              	Vector130:
 378              		@ args = 0, pretend = 0, frame = 0
 379              		@ frame_needed = 0, uses_anonymous_args = 0
 380 0000 10B5     		push	{r4, lr}
 381 0002 FFF7FEFF 		bl	dbg_check_enter_isr
 382 0006 4FF4C842 		mov	r2, #25600
 383 000a C4F20202 		movt	r2, 16386
 384 000e 40F20003 		movw	r3, #:lower16:.LANCHOR0
 385 0012 C0F20003 		movt	r3, #:upper16:.LANCHOR0
 386 0016 5168     		ldr	r1, [r2, #4]
 387 0018 1C6E     		ldr	r4, [r3, #96]
 388 001a 01F03D01 		and	r1, r1, #61
 389 001e D160     		str	r1, [r2, #12]
 390 0020 0CB1     		cbz	r4, .L63
 391 0022 586E     		ldr	r0, [r3, #100]
 392 0024 A047     		blx	r4
 393              	.L63:
 394 0026 FFF7FEFF 		bl	dbg_check_leave_isr
 395 002a BDE81040 		pop	{r4, lr}
 396 002e FFF7FEBF 		b	_port_irq_epilogue
 397              		.size	Vector130, .-Vector130
 398 0032 00BFAFF3 		.section	.text.Vector150,"ax",%progbits
 398      0080AFF3 
 398      0080AFF3 
 398      0080
 399              		.align	2
 400              		.p2align 4,,15
 401              		.global	Vector150
 402              		.thumb
 403              		.thumb_func
 404              		.type	Vector150, %function
 405              	Vector150:
 406              		@ args = 0, pretend = 0, frame = 0
 407              		@ frame_needed = 0, uses_anonymous_args = 0
 408 0000 10B5     		push	{r4, lr}
 409 0002 FFF7FEFF 		bl	dbg_check_enter_isr
 410 0006 4FF4C842 		mov	r2, #25600
 411 000a C4F20202 		movt	r2, 16386
 412 000e 40F20003 		movw	r3, #:lower16:.LANCHOR0
 413 0012 5168     		ldr	r1, [r2, #4]
 414 0014 C0F20003 		movt	r3, #:upper16:.LANCHOR0
 415 0018 8909     		lsrs	r1, r1, #6
 416 001a 01F03D01 		and	r1, r1, #61
 417 001e 9C6E     		ldr	r4, [r3, #104]
 418 0020 8801     		lsls	r0, r1, #6
 419 0022 D060     		str	r0, [r2, #12]
 420 0024 0CB1     		cbz	r4, .L68
 421 0026 D86E     		ldr	r0, [r3, #108]
 422 0028 A047     		blx	r4
 423              	.L68:
 424 002a FFF7FEFF 		bl	dbg_check_leave_isr
 425 002e BDE81040 		pop	{r4, lr}
 426 0032 FFF7FEBF 		b	_port_irq_epilogue
ARM GAS  C:\Users\pc\AppData\Local\Temp\ccRef6sd.s 			page 9


 427              		.size	Vector150, .-Vector150
 428 0036 00BFAFF3 		.section	.text.Vector154,"ax",%progbits
 428      0080AFF3 
 428      0080
 429              		.align	2
 430              		.p2align 4,,15
 431              		.global	Vector154
 432              		.thumb
 433              		.thumb_func
 434              		.type	Vector154, %function
 435              	Vector154:
 436              		@ args = 0, pretend = 0, frame = 0
 437              		@ frame_needed = 0, uses_anonymous_args = 0
 438 0000 10B5     		push	{r4, lr}
 439 0002 FFF7FEFF 		bl	dbg_check_enter_isr
 440 0006 4FF4C842 		mov	r2, #25600
 441 000a C4F20202 		movt	r2, 16386
 442 000e 40F20003 		movw	r3, #:lower16:.LANCHOR0
 443 0012 5168     		ldr	r1, [r2, #4]
 444 0014 C0F20003 		movt	r3, #:upper16:.LANCHOR0
 445 0018 090C     		lsrs	r1, r1, #16
 446 001a 01F03D01 		and	r1, r1, #61
 447 001e 1C6F     		ldr	r4, [r3, #112]
 448 0020 0804     		lsls	r0, r1, #16
 449 0022 D060     		str	r0, [r2, #12]
 450 0024 0CB1     		cbz	r4, .L73
 451 0026 586F     		ldr	r0, [r3, #116]
 452 0028 A047     		blx	r4
 453              	.L73:
 454 002a FFF7FEFF 		bl	dbg_check_leave_isr
 455 002e BDE81040 		pop	{r4, lr}
 456 0032 FFF7FEBF 		b	_port_irq_epilogue
 457              		.size	Vector154, .-Vector154
 458 0036 00BFAFF3 		.section	.text.Vector158,"ax",%progbits
 458      0080AFF3 
 458      0080
 459              		.align	2
 460              		.p2align 4,,15
 461              		.global	Vector158
 462              		.thumb
 463              		.thumb_func
 464              		.type	Vector158, %function
 465              	Vector158:
 466              		@ args = 0, pretend = 0, frame = 0
 467              		@ frame_needed = 0, uses_anonymous_args = 0
 468 0000 10B5     		push	{r4, lr}
 469 0002 FFF7FEFF 		bl	dbg_check_enter_isr
 470 0006 4FF4C842 		mov	r2, #25600
 471 000a C4F20202 		movt	r2, 16386
 472 000e 40F20003 		movw	r3, #:lower16:.LANCHOR0
 473 0012 5168     		ldr	r1, [r2, #4]
 474 0014 C0F20003 		movt	r3, #:upper16:.LANCHOR0
 475 0018 890D     		lsrs	r1, r1, #22
 476 001a 01F03D01 		and	r1, r1, #61
 477 001e 9C6F     		ldr	r4, [r3, #120]
 478 0020 8805     		lsls	r0, r1, #22
 479 0022 D060     		str	r0, [r2, #12]
ARM GAS  C:\Users\pc\AppData\Local\Temp\ccRef6sd.s 			page 10


 480 0024 0CB1     		cbz	r4, .L78
 481 0026 D86F     		ldr	r0, [r3, #124]
 482 0028 A047     		blx	r4
 483              	.L78:
 484 002a FFF7FEFF 		bl	dbg_check_leave_isr
 485 002e BDE81040 		pop	{r4, lr}
 486 0032 FFF7FEBF 		b	_port_irq_epilogue
 487              		.size	Vector158, .-Vector158
 488 0036 00BFAFF3 		.section	.text.dmaInit,"ax",%progbits
 488      0080AFF3 
 488      0080
 489              		.align	2
 490              		.p2align 4,,15
 491              		.global	dmaInit
 492              		.thumb
 493              		.thumb_func
 494              		.type	dmaInit, %function
 495              	dmaInit:
 496              		@ args = 0, pretend = 0, frame = 0
 497              		@ frame_needed = 0, uses_anonymous_args = 0
 498              		@ link register save eliminated.
 499 0000 40F20003 		movw	r3, #:lower16:.LANCHOR1
 500 0004 C0F20003 		movt	r3, #:upper16:.LANCHOR1
 501 0008 30B4     		push	{r4, r5}
 502 000a 0021     		movs	r1, #0
 503 000c 40F20005 		movw	r5, #:lower16:.LANCHOR2
 504 0010 40F20004 		movw	r4, #:lower16:.LANCHOR0
 505 0014 1960     		str	r1, [r3]
 506 0016 0A46     		mov	r2, r1
 507 0018 0B46     		mov	r3, r1
 508 001a C0F20005 		movt	r5, #:upper16:.LANCHOR2
 509 001e C0F20004 		movt	r4, #:upper16:.LANCHOR0
 510              	.L84:
 511 0022 E858     		ldr	r0, [r5, r3]
 512 0024 0C33     		adds	r3, r3, #12
 513 0026 C02B     		cmp	r3, #192
 514 0028 0160     		str	r1, [r0]
 515 002a A150     		str	r1, [r4, r2]
 516 002c 02F10802 		add	r2, r2, #8
 517 0030 F7D1     		bne	.L84
 518 0032 4FF4C041 		mov	r1, #24576
 519 0036 4FF4C842 		mov	r2, #25600
 520 003a C4F20201 		movt	r1, 16386
 521 003e C4F20202 		movt	r2, 16386
 522 0042 4FF0FF33 		mov	r3, #-1
 523 0046 8B60     		str	r3, [r1, #8]
 524 0048 30BC     		pop	{r4, r5}
 525 004a CB60     		str	r3, [r1, #12]
 526 004c 9360     		str	r3, [r2, #8]
 527 004e D360     		str	r3, [r2, #12]
 528 0050 7047     		bx	lr
 529              		.size	dmaInit, .-dmaInit
 530 0052 00BFAFF3 		.section	.text.dmaStreamAllocate,"ax",%progbits
 530      0080AFF3 
 530      0080AFF3 
 530      0080
 531              		.align	2
ARM GAS  C:\Users\pc\AppData\Local\Temp\ccRef6sd.s 			page 11


 532              		.p2align 4,,15
 533              		.global	dmaStreamAllocate
 534              		.thumb
 535              		.thumb_func
 536              		.type	dmaStreamAllocate, %function
 537              	dmaStreamAllocate:
 538              		@ args = 0, pretend = 0, frame = 8
 539              		@ frame_needed = 0, uses_anonymous_args = 0
 540 0000 2DE9F043 		push	{r4, r5, r6, r7, r8, r9, lr}
 541 0004 0646     		mov	r6, r0
 542 0006 83B0     		sub	sp, sp, #12
 543 0008 8946     		mov	r9, r1
 544 000a 9046     		mov	r8, r2
 545 000c 0028     		cmp	r0, #0
 546 000e 4ED0     		beq	.L101
 547              	.L87:
 548 0010 40F20004 		movw	r4, #:lower16:.LANCHOR1
 549 0014 C0F20004 		movt	r4, #:upper16:.LANCHOR1
 550 0018 777A     		ldrb	r7, [r6, #9]	@ zero_extendqisi2
 551 001a 2268     		ldr	r2, [r4]
 552 001c 0125     		movs	r5, #1
 553 001e 05FA07F1 		lsl	r1, r5, r7
 554 0022 1142     		tst	r1, r2
 555 0024 18BF     		it	ne
 556 0026 2846     		movne	r0, r5
 557 0028 3ED1     		bne	.L88
 558 002a 40F2000C 		movw	ip, #:lower16:.LANCHOR0
 559 002e C0F2000C 		movt	ip, #:upper16:.LANCHOR0
 560 0032 0A43     		orrs	r2, r2, r1
 561 0034 0CEBC700 		add	r0, ip, r7, lsl #3
 562 0038 12F0FF0F 		tst	r2, #255
 563 003c 4CF83780 		str	r8, [ip, r7, lsl #3]
 564 0040 4360     		str	r3, [r0, #4]
 565 0042 1CBF     		itt	ne
 566 0044 4FF46053 		movne	r3, #14336
 567 0048 C4F20203 		movtne	r3, 16386
 568 004c 2260     		str	r2, [r4]
 569 004e 18BF     		it	ne
 570 0050 196B     		ldrne	r1, [r3, #48]
 571 0052 3468     		ldr	r4, [r6]
 572 0054 1CBF     		itt	ne
 573 0056 41F40011 		orrne	r1, r1, #2097152
 574 005a 1963     		strne	r1, [r3, #48]
 575 005c 12F47F4F 		tst	r2, #65280
 576 0060 1FBF     		itttt	ne
 577 0062 4FF46053 		movne	r3, #14336
 578 0066 C4F20203 		movtne	r3, 16386
 579 006a 1A6B     		ldrne	r2, [r3, #48]
 580 006c 42F48002 		orrne	r2, r2, #4194304
 581 0070 18BF     		it	ne
 582 0072 1A63     		strne	r2, [r3, #48]
 583 0074 2368     		ldr	r3, [r4]
 584 0076 23F01F03 		bic	r3, r3, #31
 585 007a 2360     		str	r3, [r4]
 586              	.L92:
 587 007c 2368     		ldr	r3, [r4]
 588 007e 13F00105 		ands	r5, r3, #1
ARM GAS  C:\Users\pc\AppData\Local\Temp\ccRef6sd.s 			page 12


 589 0082 FBD1     		bne	.L92
 590 0084 327A     		ldrb	r2, [r6, #8]	@ zero_extendqisi2
 591 0086 7368     		ldr	r3, [r6, #4]
 592 0088 3D21     		movs	r1, #61
 593 008a 9140     		lsls	r1, r1, r2
 594 008c 2122     		movs	r2, #33
 595 008e 1960     		str	r1, [r3]
 596 0090 4046     		mov	r0, r8
 597 0092 2560     		str	r5, [r4]
 598 0094 6261     		str	r2, [r4, #20]
 599 0096 B8F1000F 		cmp	r8, #0
 600 009a 05D0     		beq	.L88
 601 009c B07A     		ldrb	r0, [r6, #10]	@ zero_extendqisi2
 602 009e 4FEA0911 		lsl	r1, r9, #4
 603 00a2 FFF7FEFF 		bl	nvicEnableVector
 604 00a6 2846     		mov	r0, r5
 605              	.L88:
 606 00a8 03B0     		add	sp, sp, #12
 607              		@ sp needed
 608 00aa BDE8F083 		pop	{r4, r5, r6, r7, r8, r9, pc}
 609              	.L101:
 610 00ae 40F20000 		movw	r0, #:lower16:.LC0
 611 00b2 40F20001 		movw	r1, #:lower16:.LC1
 612 00b6 C0F20000 		movt	r0, #:upper16:.LC0
 613 00ba C0F20001 		movt	r1, #:upper16:.LC1
 614 00be 40F2CF12 		movw	r2, #463
 615 00c2 0193     		str	r3, [sp, #4]
 616 00c4 FFF7FEFF 		bl	chDbgPanic3
 617 00c8 019B     		ldr	r3, [sp, #4]
 618 00ca A1E7     		b	.L87
 619              		.size	dmaStreamAllocate, .-dmaStreamAllocate
 620 00cc AFF30080 		.section	.text.dmaStreamRelease,"ax",%progbits
 621              		.align	2
 622              		.p2align 4,,15
 623              		.global	dmaStreamRelease
 624              		.thumb
 625              		.thumb_func
 626              		.type	dmaStreamRelease, %function
 627              	dmaStreamRelease:
 628              		@ args = 0, pretend = 0, frame = 0
 629              		@ frame_needed = 0, uses_anonymous_args = 0
 630 0000 38B5     		push	{r3, r4, r5, lr}
 631 0002 0546     		mov	r5, r0
 632 0004 0028     		cmp	r0, #0
 633 0006 35D0     		beq	.L107
 634              	.L103:
 635 0008 40F20004 		movw	r4, #:lower16:.LANCHOR1
 636 000c C0F20004 		movt	r4, #:upper16:.LANCHOR1
 637 0010 6A7A     		ldrb	r2, [r5, #9]	@ zero_extendqisi2
 638 0012 2368     		ldr	r3, [r4]
 639 0014 0121     		movs	r1, #1
 640 0016 01FA02F2 		lsl	r2, r1, r2
 641 001a 1A42     		tst	r2, r3
 642 001c 23D0     		beq	.L108
 643              	.L104:
 644 001e A87A     		ldrb	r0, [r5, #10]	@ zero_extendqisi2
 645 0020 FFF7FEFF 		bl	nvicDisableVector
ARM GAS  C:\Users\pc\AppData\Local\Temp\ccRef6sd.s 			page 13


 646 0024 6B7A     		ldrb	r3, [r5, #9]	@ zero_extendqisi2
 647 0026 2268     		ldr	r2, [r4]
 648 0028 0121     		movs	r1, #1
 649 002a 01FA03F3 		lsl	r3, r1, r3
 650 002e 22EA0303 		bic	r3, r2, r3
 651 0032 13F0FF0F 		tst	r3, #255
 652 0036 04BF     		itt	eq
 653 0038 4FF46052 		moveq	r2, #14336
 654 003c C4F20202 		movteq	r2, 16386
 655 0040 2360     		str	r3, [r4]
 656 0042 02BF     		ittt	eq
 657 0044 116B     		ldreq	r1, [r2, #48]
 658 0046 21F40011 		biceq	r1, r1, #2097152
 659 004a 1163     		streq	r1, [r2, #48]
 660 004c 13F47F4F 		tst	r3, #65280
 661 0050 01BF     		itttt	eq
 662 0052 4FF46053 		moveq	r3, #14336
 663 0056 C4F20203 		movteq	r3, 16386
 664 005a 1A6B     		ldreq	r2, [r3, #48]
 665 005c 22F48002 		biceq	r2, r2, #4194304
 666 0060 08BF     		it	eq
 667 0062 1A63     		streq	r2, [r3, #48]
 668 0064 38BD     		pop	{r3, r4, r5, pc}
 669              	.L108:
 670 0066 40F20000 		movw	r0, #:lower16:.LC3
 671 006a C0F20000 		movt	r0, #:upper16:.LC3
 672 006e FFF7FEFF 		bl	chDbgPanic
 673 0072 D4E7     		b	.L104
 674              	.L107:
 675 0074 40F20000 		movw	r0, #:lower16:.LC2
 676 0078 40F20001 		movw	r1, #:lower16:.LC1
 677 007c C0F20000 		movt	r0, #:upper16:.LC2
 678 0080 C0F20001 		movt	r1, #:upper16:.LC1
 679 0084 40F2FB12 		movw	r2, #507
 680 0088 FFF7FEFF 		bl	chDbgPanic3
 681 008c BCE7     		b	.L103
 682              		.size	dmaStreamRelease, .-dmaStreamRelease
 683              		.global	_stm32_dma_streams
 684 008e 00BF     		.section	.rodata.str1.4,"aMS",%progbits,1
 685              		.align	2
 686              	.LC0:
 687 0000 22646D61 		.ascii	"\"dmaStreamAllocate\"()\000"
 687      53747265 
 687      616D416C 
 687      6C6F6361 
 687      74652228 
 688 0016 0000     		.space	2
 689              	.LC1:
 690 0018 63686962 		.ascii	"chibios/os/hal/platforms/STM32F4xx/stm32_dma.c\000"
 690      696F732F 
 690      6F732F68 
 690      616C2F70 
 690      6C617466 
 691 0047 00       		.space	1
 692              	.LC2:
 693 0048 22646D61 		.ascii	"\"dmaStreamRelease\"()\000"
 693      53747265 
ARM GAS  C:\Users\pc\AppData\Local\Temp\ccRef6sd.s 			page 14


 693      616D5265 
 693      6C656173 
 693      65222829 
 694 005d 000000   		.space	3
 695              	.LC3:
 696 0060 646D6153 		.ascii	"dmaStreamRelease(), #1\000"
 696      74726561 
 696      6D52656C 
 696      65617365 
 696      28292C20 
 697 0077 00       		.section	.bss.dma_isr_redir,"aw",%nobits
 698              		.align	2
 699              		.set	.LANCHOR0,. + 0
 700              		.type	dma_isr_redir, %object
 701              		.size	dma_isr_redir, 128
 702              	dma_isr_redir:
 703 0000 00000000 		.space	128
 703      00000000 
 703      00000000 
 703      00000000 
 703      00000000 
 704              		.section	.rodata._stm32_dma_streams,"a",%progbits
 705              		.align	2
 706              		.set	.LANCHOR2,. + 0
 707              		.type	_stm32_dma_streams, %object
 708              		.size	_stm32_dma_streams, 192
 709              	_stm32_dma_streams:
 710 0000 10600240 		.word	1073897488
 711 0004 08600240 		.word	1073897480
 712 0008 00       		.byte	0
 713 0009 00       		.byte	0
 714 000a 0B       		.byte	11
 715 000b 00       		.space	1
 716 000c 28600240 		.word	1073897512
 717 0010 08600240 		.word	1073897480
 718 0014 06       		.byte	6
 719 0015 01       		.byte	1
 720 0016 0C       		.byte	12
 721 0017 00       		.space	1
 722 0018 40600240 		.word	1073897536
 723 001c 08600240 		.word	1073897480
 724 0020 10       		.byte	16
 725 0021 02       		.byte	2
 726 0022 0D       		.byte	13
 727 0023 00       		.space	1
 728 0024 58600240 		.word	1073897560
 729 0028 08600240 		.word	1073897480
 730 002c 16       		.byte	22
 731 002d 03       		.byte	3
 732 002e 0E       		.byte	14
 733 002f 00       		.space	1
 734 0030 70600240 		.word	1073897584
 735 0034 0C600240 		.word	1073897484
 736 0038 00       		.byte	0
 737 0039 04       		.byte	4
 738 003a 0F       		.byte	15
 739 003b 00       		.space	1
ARM GAS  C:\Users\pc\AppData\Local\Temp\ccRef6sd.s 			page 15


 740 003c 88600240 		.word	1073897608
 741 0040 0C600240 		.word	1073897484
 742 0044 06       		.byte	6
 743 0045 05       		.byte	5
 744 0046 10       		.byte	16
 745 0047 00       		.space	1
 746 0048 A0600240 		.word	1073897632
 747 004c 0C600240 		.word	1073897484
 748 0050 10       		.byte	16
 749 0051 06       		.byte	6
 750 0052 11       		.byte	17
 751 0053 00       		.space	1
 752 0054 B8600240 		.word	1073897656
 753 0058 0C600240 		.word	1073897484
 754 005c 16       		.byte	22
 755 005d 07       		.byte	7
 756 005e 2F       		.byte	47
 757 005f 00       		.space	1
 758 0060 10640240 		.word	1073898512
 759 0064 08640240 		.word	1073898504
 760 0068 00       		.byte	0
 761 0069 08       		.byte	8
 762 006a 38       		.byte	56
 763 006b 00       		.space	1
 764 006c 28640240 		.word	1073898536
 765 0070 08640240 		.word	1073898504
 766 0074 06       		.byte	6
 767 0075 09       		.byte	9
 768 0076 39       		.byte	57
 769 0077 00       		.space	1
 770 0078 40640240 		.word	1073898560
 771 007c 08640240 		.word	1073898504
 772 0080 10       		.byte	16
 773 0081 0A       		.byte	10
 774 0082 3A       		.byte	58
 775 0083 00       		.space	1
 776 0084 58640240 		.word	1073898584
 777 0088 08640240 		.word	1073898504
 778 008c 16       		.byte	22
 779 008d 0B       		.byte	11
 780 008e 3B       		.byte	59
 781 008f 00       		.space	1
 782 0090 70640240 		.word	1073898608
 783 0094 0C640240 		.word	1073898508
 784 0098 00       		.byte	0
 785 0099 0C       		.byte	12
 786 009a 3C       		.byte	60
 787 009b 00       		.space	1
 788 009c 88640240 		.word	1073898632
 789 00a0 0C640240 		.word	1073898508
 790 00a4 06       		.byte	6
 791 00a5 0D       		.byte	13
 792 00a6 44       		.byte	68
 793 00a7 00       		.space	1
 794 00a8 A0640240 		.word	1073898656
 795 00ac 0C640240 		.word	1073898508
 796 00b0 10       		.byte	16
ARM GAS  C:\Users\pc\AppData\Local\Temp\ccRef6sd.s 			page 16


 797 00b1 0E       		.byte	14
 798 00b2 45       		.byte	69
 799 00b3 00       		.space	1
 800 00b4 B8640240 		.word	1073898680
 801 00b8 0C640240 		.word	1073898508
 802 00bc 16       		.byte	22
 803 00bd 0F       		.byte	15
 804 00be 46       		.byte	70
 805 00bf 00       		.space	1
 806              		.section	.bss.dma_streams_mask,"aw",%nobits
 807              		.align	2
 808              		.set	.LANCHOR1,. + 0
 809              		.type	dma_streams_mask, %object
 810              		.size	dma_streams_mask, 4
 811              	dma_streams_mask:
 812 0000 00000000 		.space	4
 813              		.ident	"GCC: (Sourcery CodeBench Lite 2013.11-24) 4.8.1"
ARM GAS  C:\Users\pc\AppData\Local\Temp\ccRef6sd.s 			page 17


DEFINED SYMBOLS
                            *ABS*:00000000 stm32_dma.c
C:\Users\pc\AppData\Local\Temp\ccRef6sd.s:17     .text.Vector6C:00000000 $t
C:\Users\pc\AppData\Local\Temp\ccRef6sd.s:23     .text.Vector6C:00000000 Vector6C
C:\Users\pc\AppData\Local\Temp\ccRef6sd.s:699    .bss.dma_isr_redir:00000000 .LANCHOR0
C:\Users\pc\AppData\Local\Temp\ccRef6sd.s:45     .text.Vector70:00000000 $t
C:\Users\pc\AppData\Local\Temp\ccRef6sd.s:51     .text.Vector70:00000000 Vector70
C:\Users\pc\AppData\Local\Temp\ccRef6sd.s:75     .text.Vector74:00000000 $t
C:\Users\pc\AppData\Local\Temp\ccRef6sd.s:81     .text.Vector74:00000000 Vector74
C:\Users\pc\AppData\Local\Temp\ccRef6sd.s:105    .text.Vector78:00000000 $t
C:\Users\pc\AppData\Local\Temp\ccRef6sd.s:111    .text.Vector78:00000000 Vector78
C:\Users\pc\AppData\Local\Temp\ccRef6sd.s:135    .text.Vector7C:00000000 $t
C:\Users\pc\AppData\Local\Temp\ccRef6sd.s:141    .text.Vector7C:00000000 Vector7C
C:\Users\pc\AppData\Local\Temp\ccRef6sd.s:163    .text.Vector80:00000000 $t
C:\Users\pc\AppData\Local\Temp\ccRef6sd.s:169    .text.Vector80:00000000 Vector80
C:\Users\pc\AppData\Local\Temp\ccRef6sd.s:193    .text.Vector84:00000000 $t
C:\Users\pc\AppData\Local\Temp\ccRef6sd.s:199    .text.Vector84:00000000 Vector84
C:\Users\pc\AppData\Local\Temp\ccRef6sd.s:223    .text.VectorFC:00000000 $t
C:\Users\pc\AppData\Local\Temp\ccRef6sd.s:229    .text.VectorFC:00000000 VectorFC
C:\Users\pc\AppData\Local\Temp\ccRef6sd.s:253    .text.Vector120:00000000 $t
C:\Users\pc\AppData\Local\Temp\ccRef6sd.s:259    .text.Vector120:00000000 Vector120
C:\Users\pc\AppData\Local\Temp\ccRef6sd.s:281    .text.Vector124:00000000 $t
C:\Users\pc\AppData\Local\Temp\ccRef6sd.s:287    .text.Vector124:00000000 Vector124
C:\Users\pc\AppData\Local\Temp\ccRef6sd.s:311    .text.Vector128:00000000 $t
C:\Users\pc\AppData\Local\Temp\ccRef6sd.s:317    .text.Vector128:00000000 Vector128
C:\Users\pc\AppData\Local\Temp\ccRef6sd.s:341    .text.Vector12C:00000000 $t
C:\Users\pc\AppData\Local\Temp\ccRef6sd.s:347    .text.Vector12C:00000000 Vector12C
C:\Users\pc\AppData\Local\Temp\ccRef6sd.s:371    .text.Vector130:00000000 $t
C:\Users\pc\AppData\Local\Temp\ccRef6sd.s:377    .text.Vector130:00000000 Vector130
C:\Users\pc\AppData\Local\Temp\ccRef6sd.s:399    .text.Vector150:00000000 $t
C:\Users\pc\AppData\Local\Temp\ccRef6sd.s:405    .text.Vector150:00000000 Vector150
C:\Users\pc\AppData\Local\Temp\ccRef6sd.s:429    .text.Vector154:00000000 $t
C:\Users\pc\AppData\Local\Temp\ccRef6sd.s:435    .text.Vector154:00000000 Vector154
C:\Users\pc\AppData\Local\Temp\ccRef6sd.s:459    .text.Vector158:00000000 $t
C:\Users\pc\AppData\Local\Temp\ccRef6sd.s:465    .text.Vector158:00000000 Vector158
C:\Users\pc\AppData\Local\Temp\ccRef6sd.s:489    .text.dmaInit:00000000 $t
C:\Users\pc\AppData\Local\Temp\ccRef6sd.s:495    .text.dmaInit:00000000 dmaInit
C:\Users\pc\AppData\Local\Temp\ccRef6sd.s:808    .bss.dma_streams_mask:00000000 .LANCHOR1
C:\Users\pc\AppData\Local\Temp\ccRef6sd.s:706    .rodata._stm32_dma_streams:00000000 .LANCHOR2
C:\Users\pc\AppData\Local\Temp\ccRef6sd.s:531    .text.dmaStreamAllocate:00000000 $t
C:\Users\pc\AppData\Local\Temp\ccRef6sd.s:537    .text.dmaStreamAllocate:00000000 dmaStreamAllocate
C:\Users\pc\AppData\Local\Temp\ccRef6sd.s:686    .rodata.str1.4:00000000 .LC0
C:\Users\pc\AppData\Local\Temp\ccRef6sd.s:689    .rodata.str1.4:00000018 .LC1
C:\Users\pc\AppData\Local\Temp\ccRef6sd.s:621    .text.dmaStreamRelease:00000000 $t
C:\Users\pc\AppData\Local\Temp\ccRef6sd.s:627    .text.dmaStreamRelease:00000000 dmaStreamRelease
C:\Users\pc\AppData\Local\Temp\ccRef6sd.s:695    .rodata.str1.4:00000060 .LC3
C:\Users\pc\AppData\Local\Temp\ccRef6sd.s:692    .rodata.str1.4:00000048 .LC2
C:\Users\pc\AppData\Local\Temp\ccRef6sd.s:709    .rodata._stm32_dma_streams:00000000 _stm32_dma_streams
C:\Users\pc\AppData\Local\Temp\ccRef6sd.s:685    .rodata.str1.4:00000000 $d
C:\Users\pc\AppData\Local\Temp\ccRef6sd.s:698    .bss.dma_isr_redir:00000000 $d
C:\Users\pc\AppData\Local\Temp\ccRef6sd.s:702    .bss.dma_isr_redir:00000000 dma_isr_redir
C:\Users\pc\AppData\Local\Temp\ccRef6sd.s:705    .rodata._stm32_dma_streams:00000000 $d
C:\Users\pc\AppData\Local\Temp\ccRef6sd.s:807    .bss.dma_streams_mask:00000000 $d
C:\Users\pc\AppData\Local\Temp\ccRef6sd.s:811    .bss.dma_streams_mask:00000000 dma_streams_mask

UNDEFINED SYMBOLS
dbg_check_enter_isr
ARM GAS  C:\Users\pc\AppData\Local\Temp\ccRef6sd.s 			page 18


dbg_check_leave_isr
_port_irq_epilogue
nvicEnableVector
chDbgPanic3
nvicDisableVector
chDbgPanic
