ARM GAS  C:\Users\pc\AppData\Local\Temp\cc8OESaY.s 			page 1


   1              		.syntax unified
   2              		.cpu cortex-m4
   3              		.eabi_attribute 27, 3
   4              		.fpu fpv4-sp-d16
   5              		.eabi_attribute 20, 1
   6              		.eabi_attribute 21, 1
   7              		.eabi_attribute 23, 3
   8              		.eabi_attribute 24, 1
   9              		.eabi_attribute 25, 1
  10              		.eabi_attribute 26, 1
  11              		.eabi_attribute 30, 2
  12              		.eabi_attribute 34, 1
  13              		.eabi_attribute 18, 4
  14              		.thumb
  15              		.file	"table_helper.cpp"
  16              		.section	.text._Z12setTableBin2Pfifff,"ax",%progbits
  17              		.align	2
  18              		.p2align 4,,15
  19              		.global	_Z12setTableBin2Pfifff
  20              		.thumb
  21              		.thumb_func
  22              		.type	_Z12setTableBin2Pfifff, %function
  23              	_Z12setTableBin2Pfifff:
  24              		@ args = 4, pretend = 0, frame = 0
  25              		@ frame_needed = 0, uses_anonymous_args = 0
  26 0000 2DE9F047 		push	{r4, r5, r6, r7, r8, r9, r10, lr}
  27 0004 82B0     		sub	sp, sp, #8
  28 0006 0E1E     		subs	r6, r1, #0
  29 0008 1746     		mov	r7, r2	@ float
  30 000a 9846     		mov	r8, r3	@ float
  31 000c DDF82890 		ldr	r9, [sp, #40]	@ float
  32 0010 1DDD     		ble	.L1
  33 0012 06F1FF3A 		add	r10, r6, #-1
  34 0016 07EE10AA 		fmsr	s14, r10	@ int
  35 001a B8EEC77A 		fsitos	s14, s14
  36 001e 0546     		mov	r5, r0
  37 0020 17EE10AA 		fmrs	r10, s14
  38 0024 0024     		movs	r4, #0
  39              	.L4:
  40 0026 07EE104A 		fmsr	s14, r4	@ int
  41 002a F8EEC77A 		fsitos	s15, s14
  42 002e 3946     		mov	r1, r7	@ float
  43 0030 CDED007A 		fsts	s15, [sp]
  44 0034 5246     		mov	r2, r10	@ float
  45 0036 4346     		mov	r3, r8	@ float
  46 0038 0020     		movs	r0, #0
  47 003a FFF7FEFF 		bl	_Z11interpolatefffff
  48 003e 4946     		mov	r1, r9	@ float
  49 0040 FFF7FEFF 		bl	efiRound
  50 0044 0134     		adds	r4, r4, #1
  51 0046 B442     		cmp	r4, r6
  52 0048 45F8040B 		str	r0, [r5], #4	@ float
  53 004c EBD1     		bne	.L4
  54              	.L1:
  55 004e 02B0     		add	sp, sp, #8
  56              		@ sp needed
  57 0050 BDE8F087 		pop	{r4, r5, r6, r7, r8, r9, r10, pc}
ARM GAS  C:\Users\pc\AppData\Local\Temp\cc8OESaY.s 			page 2


  58              		.size	_Z12setTableBin2Pfifff, .-_Z12setTableBin2Pfifff
  59 0054 AFF30080 		.section	.text._Z11setTableBinPfiff,"ax",%progbits
  59      AFF30080 
  59      AFF30080 
  60              		.align	2
  61              		.p2align 4,,15
  62              		.global	_Z11setTableBinPfiff
  63              		.thumb
  64              		.thumb_func
  65              		.type	_Z11setTableBinPfiff, %function
  66              	_Z11setTableBinPfiff:
  67              		@ args = 0, pretend = 0, frame = 0
  68              		@ frame_needed = 0, uses_anonymous_args = 0
  69 0000 10B5     		push	{r4, lr}
  70 0002 4DF20A74 		movw	r4, #55050
  71 0006 82B0     		sub	sp, sp, #8
  72 0008 C3F62344 		movt	r4, 15395
  73 000c 0094     		str	r4, [sp]	@ float
  74 000e FFF7FEFF 		bl	_Z12setTableBin2Pfifff
  75 0012 02B0     		add	sp, sp, #8
  76              		@ sp needed
  77 0014 10BD     		pop	{r4, pc}
  78              		.size	_Z11setTableBinPfiff, .-_Z11setTableBinPfiff
  79 0016 00BFAFF3 		.section	.text._Z14setRpmTableBinPfi,"ax",%progbits
  79      0080AFF3 
  79      0080
  80              		.align	2
  81              		.p2align 4,,15
  82              		.global	_Z14setRpmTableBinPfi
  83              		.thumb
  84              		.thumb_func
  85              		.type	_Z14setRpmTableBinPfi, %function
  86              	_Z14setRpmTableBinPfi:
  87              		@ args = 0, pretend = 0, frame = 0
  88              		@ frame_needed = 0, uses_anonymous_args = 0
  89 0000 00B5     		push	{lr}
  90 0002 83B0     		sub	sp, sp, #12
  91 0004 4FF07E53 		mov	r3, #1065353216
  92 0008 0093     		str	r3, [sp]	@ float
  93 000a 0022     		movs	r2, #0
  94 000c 4FF44043 		mov	r3, #49152
  95 0010 C4F24842 		movt	r2, 17480
  96 0014 C4F2DA53 		movt	r3, 17882
  97 0018 FFF7FEFF 		bl	_Z12setTableBin2Pfifff
  98 001c 03B0     		add	sp, sp, #12
  99              		@ sp needed
 100 001e 5DF804FB 		ldr	pc, [sp], #4
 101              		.size	_Z14setRpmTableBinPfi, .-_Z14setRpmTableBinPfi
 102 0022 00BFAFF3 		.ident	"GCC: (Sourcery CodeBench Lite 2013.11-24) 4.8.1"
 102      0080AFF3 
 102      0080AFF3 
 102      0080
ARM GAS  C:\Users\pc\AppData\Local\Temp\cc8OESaY.s 			page 3


DEFINED SYMBOLS
                            *ABS*:00000000 table_helper.cpp
C:\Users\pc\AppData\Local\Temp\cc8OESaY.s:17     .text._Z12setTableBin2Pfifff:00000000 $t
C:\Users\pc\AppData\Local\Temp\cc8OESaY.s:23     .text._Z12setTableBin2Pfifff:00000000 _Z12setTableBin2Pfifff
C:\Users\pc\AppData\Local\Temp\cc8OESaY.s:60     .text._Z11setTableBinPfiff:00000000 $t
C:\Users\pc\AppData\Local\Temp\cc8OESaY.s:66     .text._Z11setTableBinPfiff:00000000 _Z11setTableBinPfiff
C:\Users\pc\AppData\Local\Temp\cc8OESaY.s:80     .text._Z14setRpmTableBinPfi:00000000 $t
C:\Users\pc\AppData\Local\Temp\cc8OESaY.s:86     .text._Z14setRpmTableBinPfi:00000000 _Z14setRpmTableBinPfi

UNDEFINED SYMBOLS
_Z11interpolatefffff
efiRound
