ARM GAS  C:\Users\pc\AppData\Local\Temp\ccb32Tio.s 			page 1


   1              		.syntax unified
   2              		.cpu cortex-m4
   3              		.eabi_attribute 27, 3
   4              		.fpu fpv4-sp-d16
   5              		.eabi_attribute 20, 1
   6              		.eabi_attribute 21, 1
   7              		.eabi_attribute 23, 3
   8              		.eabi_attribute 24, 1
   9              		.eabi_attribute 25, 1
  10              		.eabi_attribute 26, 1
  11              		.eabi_attribute 30, 2
  12              		.eabi_attribute 34, 1
  13              		.eabi_attribute 18, 4
  14              		.thumb
  15              		.file	"thermistors.cpp"
  16              		.section	.text._Z21getR1InVoltageDividorfff,"ax",%progbits
  17              		.align	2
  18              		.p2align 4,,15
  19              		.global	_Z21getR1InVoltageDividorfff
  20              		.thumb
  21              		.thumb_func
  22              		.type	_Z21getR1InVoltageDividorfff, %function
  23              	_Z21getR1InVoltageDividorfff:
  24              		@ args = 0, pretend = 0, frame = 0
  25              		@ frame_needed = 0, uses_anonymous_args = 0
  26              		@ link register save eliminated.
  27 0000 07EE902A 		fmsr	s15, r2
  28 0004 06EE901A 		fmsr	s13, r1
  29 0008 27EEA67A 		fmuls	s14, s15, s13
  30 000c 06EE900A 		fmsr	s13, r0
  31 0010 87EE267A 		fdivs	s14, s14, s13
  32 0014 37EE677A 		fsubs	s14, s14, s15
  33 0018 17EE100A 		fmrs	r0, s14
  34 001c 7047     		bx	lr
  35              		.size	_Z21getR1InVoltageDividorfff, .-_Z21getR1InVoltageDividorfff
  36 001e 00BF     		.section	.text._Z21getR2InVoltageDividorfff,"ax",%progbits
  37              		.align	2
  38              		.p2align 4,,15
  39              		.global	_Z21getR2InVoltageDividorfff
  40              		.thumb
  41              		.thumb_func
  42              		.type	_Z21getR2InVoltageDividorfff, %function
  43              	_Z21getR2InVoltageDividorfff:
  44              		@ args = 0, pretend = 0, frame = 0
  45              		@ frame_needed = 0, uses_anonymous_args = 0
  46              		@ link register save eliminated.
  47 0000 07EE900A 		fmsr	s15, r0
  48 0004 06EE901A 		fmsr	s13, r1
  49 0008 F5EE407A 		fcmpzs	s15
  50 000c F1EE10FA 		fmstat
  51 0010 1EBF     		ittt	ne
  52 0012 C6EEA76A 		fdivsne	s13, s13, s15
  53 0016 F7EE007A 		fconstsne	s15, #112
  54 001a 76EEE77A 		fsubsne	s15, s13, s15
  55 001e 07EE102A 		fmsr	s14, r2
  56 0022 14BF     		ite	ne
  57 0024 C7EE277A 		fdivsne	s15, s14, s15
ARM GAS  C:\Users\pc\AppData\Local\Temp\ccb32Tio.s 			page 2


  58 0028 DFED027A 		fldseq	s15, .L5
  59 002c 17EE900A 		fmrs	r0, s15
  60 0030 7047     		bx	lr
  61              	.L6:
  62 0032 00BF     		.align	2
  63              	.L5:
  64 0034 0000C07F 		.word	2143289344
  65              		.size	_Z21getR2InVoltageDividorfff, .-_Z21getR2InVoltageDividorfff
  66 0038 AFF30080 		.section	.text._Z23getVoutInVoltageDividorfff,"ax",%progbits
  66      AFF30080 
  67              		.align	2
  68              		.p2align 4,,15
  69              		.global	_Z23getVoutInVoltageDividorfff
  70              		.thumb
  71              		.thumb_func
  72              		.type	_Z23getVoutInVoltageDividorfff, %function
  73              	_Z23getVoutInVoltageDividorfff:
  74              		@ args = 0, pretend = 0, frame = 0
  75              		@ frame_needed = 0, uses_anonymous_args = 0
  76              		@ link register save eliminated.
  77 0000 07EE902A 		fmsr	s15, r2
  78 0004 06EE900A 		fmsr	s13, r0
  79 0008 27EEA67A 		fmuls	s14, s15, s13
  80 000c 06EE901A 		fmsr	s13, r1
  81 0010 76EEA77A 		fadds	s15, s13, s15
  82 0014 C7EE276A 		fdivs	s13, s14, s15
  83 0018 16EE900A 		fmrs	r0, s13
  84 001c 7047     		bx	lr
  85              		.size	_Z23getVoutInVoltageDividorfff, .-_Z23getVoutInVoltageDividorfff
  86 001e 00BF     		.section	.text._Z17convertCelsiustoFf,"ax",%progbits
  87              		.align	2
  88              		.p2align 4,,15
  89              		.global	_Z17convertCelsiustoFf
  90              		.thumb
  91              		.thumb_func
  92              		.type	_Z17convertCelsiustoFf, %function
  93              	_Z17convertCelsiustoFf:
  94              		@ args = 0, pretend = 0, frame = 0
  95              		@ frame_needed = 0, uses_anonymous_args = 0
  96              		@ link register save eliminated.
  97 0000 07EE900A 		fmsr	s15, r0
  98 0004 B2EE027A 		fconsts	s14, #34
  99 0008 27EE877A 		fmuls	s14, s15, s14
 100 000c F1EE047A 		fconsts	s15, #20
 101 0010 87EE277A 		fdivs	s14, s14, s15
 102 0014 DFED037A 		flds	s15, .L9
 103 0018 77EE277A 		fadds	s15, s14, s15
 104 001c 17EE900A 		fmrs	r0, s15
 105 0020 7047     		bx	lr
 106              	.L10:
 107 0022 00BF     		.align	2
 108              	.L9:
 109 0024 00000042 		.word	1107296256
 110              		.size	_Z17convertCelsiustoFf, .-_Z17convertCelsiustoFf
 111 0028 AFF30080 		.section	.text._Z17convertFtoCelsiusf,"ax",%progbits
 111      AFF30080 
 112              		.align	2
ARM GAS  C:\Users\pc\AppData\Local\Temp\ccb32Tio.s 			page 3


 113              		.p2align 4,,15
 114              		.global	_Z17convertFtoCelsiusf
 115              		.thumb
 116              		.thumb_func
 117              		.type	_Z17convertFtoCelsiusf, %function
 118              	_Z17convertFtoCelsiusf:
 119              		@ args = 0, pretend = 0, frame = 0
 120              		@ frame_needed = 0, uses_anonymous_args = 0
 121              		@ link register save eliminated.
 122 0000 07EE900A 		fmsr	s15, r0
 123 0004 9FED077A 		flds	s14, .L12
 124 0008 37EEC77A 		fsubs	s14, s15, s14
 125 000c F2EE027A 		fconsts	s15, #34
 126 0010 87EE277A 		fdivs	s14, s14, s15
 127 0014 F1EE047A 		fconsts	s15, #20
 128 0018 67EE277A 		fmuls	s15, s14, s15
 129 001c 17EE900A 		fmrs	r0, s15
 130 0020 7047     		bx	lr
 131              	.L13:
 132 0022 00BF     		.align	2
 133              	.L12:
 134 0024 00000042 		.word	1107296256
 135              		.size	_Z17convertFtoCelsiusf, .-_Z17convertFtoCelsiusf
 136 0028 AFF30080 		.section	.text._Z25convertKelvinToFahrenheitf,"ax",%progbits
 136      AFF30080 
 137              		.align	2
 138              		.p2align 4,,15
 139              		.global	_Z25convertKelvinToFahrenheitf
 140              		.thumb
 141              		.thumb_func
 142              		.type	_Z25convertKelvinToFahrenheitf, %function
 143              	_Z25convertKelvinToFahrenheitf:
 144              		@ args = 0, pretend = 0, frame = 0
 145              		@ frame_needed = 0, uses_anonymous_args = 0
 146              		@ link register save eliminated.
 147 0000 07EE900A 		fmsr	s15, r0
 148 0004 9FED097A 		flds	s14, .L15
 149 0008 37EEC77A 		fsubs	s14, s15, s14
 150 000c F2EE027A 		fconsts	s15, #34
 151 0010 27EE277A 		fmuls	s14, s14, s15
 152 0014 F1EE047A 		fconsts	s15, #20
 153 0018 87EE277A 		fdivs	s14, s14, s15
 154 001c DFED047A 		flds	s15, .L15+4
 155 0020 77EE277A 		fadds	s15, s14, s15
 156 0024 17EE900A 		fmrs	r0, s15
 157 0028 7047     		bx	lr
 158              	.L16:
 159 002a 00BF     		.align	2
 160              	.L15:
 161 002c 33938843 		.word	1133024051
 162 0030 00000042 		.word	1107296256
 163              		.size	_Z25convertKelvinToFahrenheitf, .-_Z25convertKelvinToFahrenheitf
 164 0034 AFF30080 		.section	.text._Z13getResistanceP14ThermistorConf,"ax",%progbits
 164      AFF30080 
 164      AFF30080 
 165              		.align	2
 166              		.p2align 4,,15
ARM GAS  C:\Users\pc\AppData\Local\Temp\ccb32Tio.s 			page 4


 167              		.global	_Z13getResistanceP14ThermistorConf
 168              		.thumb
 169              		.thumb_func
 170              		.type	_Z13getResistanceP14ThermistorConf, %function
 171              	_Z13getResistanceP14ThermistorConf:
 172              		@ args = 0, pretend = 0, frame = 0
 173              		@ frame_needed = 0, uses_anonymous_args = 0
 174 0000 10B5     		push	{r4, lr}
 175 0002 0446     		mov	r4, r0
 176 0004 40F20000 		movw	r0, #:lower16:.LC0
 177 0008 E169     		ldr	r1, [r4, #28]
 178 000a C0F20000 		movt	r0, #:upper16:.LC0
 179 000e FFF7FEFF 		bl	_Z19getInternalAdcValuePKc13adc_channel_e
 180 0012 40F20003 		movw	r3, #:lower16:engineConfiguration
 181 0016 07EE900A 		fmsr	s15, r0	@ int
 182 001a C0F20003 		movt	r3, #:upper16:engineConfiguration
 183 001e B8EEE77A 		fsitos	s14, s15
 184 0022 1B68     		ldr	r3, [r3]
 185 0024 DFED0F7A 		flds	s15, .L20
 186 0028 67EE277A 		fmuls	s15, s14, s15
 187 002c 93ED747A 		flds	s14, [r3, #464]
 188 0030 67EE877A 		fmuls	s15, s15, s14
 189 0034 94ED067A 		flds	s14, [r4, #24]
 190 0038 F5EE407A 		fcmpzs	s15
 191 003c F1EE10FA 		fmstat
 192 0040 1FBF     		itttt	ne
 193 0042 F1EE046A 		fconstsne	s13, #20
 194 0046 C6EEA76A 		fdivsne	s13, s13, s15
 195 004a F7EE007A 		fconstsne	s15, #112
 196 004e 76EEE77A 		fsubsne	s15, s13, s15
 197 0052 0CBF     		ite	eq
 198 0054 DFED047A 		fldseq	s15, .L20+4
 199 0058 C7EE277A 		fdivsne	s15, s14, s15
 200 005c 17EE900A 		fmrs	r0, s15
 201 0060 10BD     		pop	{r4, pc}
 202              	.L21:
 203 0062 00BF     		.align	2
 204              	.L20:
 205 0064 010C403A 		.word	977275905
 206 0068 0000C07F 		.word	2143289344
 207              		.size	_Z13getResistanceP14ThermistorConf, .-_Z13getResistanceP14ThermistorConf
 208 006c AFF30080 		.section	.text._Z25isValidCoolantTemperaturef,"ax",%progbits
 209              		.align	2
 210              		.p2align 4,,15
 211              		.global	_Z25isValidCoolantTemperaturef
 212              		.thumb
 213              		.thumb_func
 214              		.type	_Z25isValidCoolantTemperaturef, %function
 215              	_Z25isValidCoolantTemperaturef:
 216              		@ args = 0, pretend = 0, frame = 0
 217              		@ frame_needed = 0, uses_anonymous_args = 0
 218 0000 08B5     		push	{r3, lr}
 219 0002 2DED028B 		fstmfdd	sp!, {d8}
 220 0006 08EE100A 		fmsr	s16, r0
 221 000a FFF7FEFF 		bl	__fpclassifyf
 222 000e 88B1     		cbz	r0, .L23
 223 0010 DFED0A7A 		flds	s15, .L30
ARM GAS  C:\Users\pc\AppData\Local\Temp\ccb32Tio.s 			page 5


 224 0014 B4EEE78A 		fcmpes	s16, s15
 225 0018 F1EE10FA 		fmstat
 226 001c D8BF     		it	le
 227 001e 0020     		movle	r0, #0
 228 0020 08DD     		ble	.L23
 229 0022 DFED077A 		flds	s15, .L30+4
 230 0026 B4EEE78A 		fcmpes	s16, s15
 231 002a F1EE10FA 		fmstat
 232 002e 54BF     		ite	pl
 233 0030 0020     		movpl	r0, #0
 234 0032 0120     		movmi	r0, #1
 235              	.L23:
 236 0034 BDEC028B 		fldmfdd	sp!, {d8}
 237 0038 08BD     		pop	{r3, pc}
 238              	.L31:
 239 003a 00BF     		.align	2
 240              	.L30:
 241 003c 000048C2 		.word	-1035468800
 242 0040 00007A43 		.word	1132068864
 243              		.size	_Z25isValidCoolantTemperaturef, .-_Z25isValidCoolantTemperaturef
 244 0044 AFF30080 		.section	.text._Z27isValidIntakeAirTemperaturef,"ax",%progbits
 244      AFF30080 
 244      AFF30080 
 245              		.align	2
 246              		.p2align 4,,15
 247              		.global	_Z27isValidIntakeAirTemperaturef
 248              		.thumb
 249              		.thumb_func
 250              		.type	_Z27isValidIntakeAirTemperaturef, %function
 251              	_Z27isValidIntakeAirTemperaturef:
 252              		@ args = 0, pretend = 0, frame = 0
 253              		@ frame_needed = 0, uses_anonymous_args = 0
 254 0000 08B5     		push	{r3, lr}
 255 0002 2DED028B 		fstmfdd	sp!, {d8}
 256 0006 08EE100A 		fmsr	s16, r0
 257 000a FFF7FEFF 		bl	__fpclassifyf
 258 000e 88B1     		cbz	r0, .L33
 259 0010 DFED0A7A 		flds	s15, .L39
 260 0014 B4EEE78A 		fcmpes	s16, s15
 261 0018 F1EE10FA 		fmstat
 262 001c D8BF     		it	le
 263 001e 0020     		movle	r0, #0
 264 0020 08DD     		ble	.L33
 265 0022 DFED077A 		flds	s15, .L39+4
 266 0026 B4EEE78A 		fcmpes	s16, s15
 267 002a F1EE10FA 		fmstat
 268 002e 54BF     		ite	pl
 269 0030 0020     		movpl	r0, #0
 270 0032 0120     		movmi	r0, #1
 271              	.L33:
 272 0034 BDEC028B 		fldmfdd	sp!, {d8}
 273 0038 08BD     		pop	{r3, pc}
 274              	.L40:
 275 003a 00BF     		.align	2
 276              	.L39:
 277 003c 000048C2 		.word	-1035468800
 278 0040 0000C842 		.word	1120403456
ARM GAS  C:\Users\pc\AppData\Local\Temp\ccb32Tio.s 			page 6


 279              		.size	_Z27isValidIntakeAirTemperaturef, .-_Z27isValidIntakeAirTemperaturef
 280 0044 AFF30080 		.section	.text._Z26setThermistorConfigurationP14ThermistorConfffffff,"ax",%progbits
 280      AFF30080 
 280      AFF30080 
 281              		.align	2
 282              		.p2align 4,,15
 283              		.global	_Z26setThermistorConfigurationP14ThermistorConfffffff
 284              		.thumb
 285              		.thumb_func
 286              		.type	_Z26setThermistorConfigurationP14ThermistorConfffffff, %function
 287              	_Z26setThermistorConfigurationP14ThermistorConfffffff:
 288              		@ args = 12, pretend = 0, frame = 0
 289              		@ frame_needed = 0, uses_anonymous_args = 0
 290              		@ link register save eliminated.
 291 0000 70B4     		push	{r4, r5, r6}
 292 0002 039E     		ldr	r6, [sp, #12]	@ float
 293 0004 049D     		ldr	r5, [sp, #16]	@ float
 294 0006 059C     		ldr	r4, [sp, #20]	@ float
 295 0008 0661     		str	r6, [r0, #16]	@ float
 296 000a 8560     		str	r5, [r0, #8]	@ float
 297 000c 4461     		str	r4, [r0, #20]	@ float
 298 000e 0160     		str	r1, [r0]	@ float
 299 0010 C260     		str	r2, [r0, #12]	@ float
 300 0012 4360     		str	r3, [r0, #4]	@ float
 301 0014 70BC     		pop	{r4, r5, r6}
 302 0016 7047     		bx	lr
 303              		.size	_Z26setThermistorConfigurationP14ThermistorConfffffff, .-_Z26setThermistorConfigurationP14Th
 304 0018 AFF30080 		.section	.text._Z14setDodgeSensorP14ThermistorConf,"ax",%progbits
 304      AFF30080 
 305              		.align	2
 306              		.p2align 4,,15
 307              		.global	_Z14setDodgeSensorP14ThermistorConf
 308              		.thumb
 309              		.thumb_func
 310              		.type	_Z14setDodgeSensorP14ThermistorConf, %function
 311              	_Z14setDodgeSensorP14ThermistorConf:
 312              		@ args = 0, pretend = 0, frame = 0
 313              		@ frame_needed = 0, uses_anonymous_args = 0
 314              		@ link register save eliminated.
 315 0000 70B4     		push	{r4, r5, r6}
 316 0002 4FF47041 		mov	r1, #61440
 317 0006 0025     		movs	r5, #0
 318 0008 4FF4C544 		mov	r4, #25216
 319 000c 0022     		movs	r2, #0
 320 000e 0023     		movs	r3, #0
 321 0010 0026     		movs	r6, #0
 322 0012 CCF22025 		movt	r5, 49696
 323 0016 C4F6A404 		movt	r4, 18596
 324 001a C4F2F016 		movt	r6, 16880
 325 001e C4F2EB51 		movt	r1, 17899
 326 0022 C4F2F022 		movt	r2, 17136
 327 0026 C4F2C333 		movt	r3, 17347
 328 002a 0560     		str	r5, [r0]	@ float
 329 002c C460     		str	r4, [r0, #12]	@ float
 330 002e 4660     		str	r6, [r0, #4]	@ float
 331 0030 0161     		str	r1, [r0, #16]	@ float
 332 0032 8260     		str	r2, [r0, #8]	@ float
ARM GAS  C:\Users\pc\AppData\Local\Temp\ccb32Tio.s 			page 7


 333 0034 4361     		str	r3, [r0, #20]	@ float
 334 0036 70BC     		pop	{r4, r5, r6}
 335 0038 7047     		bx	lr
 336              		.size	_Z14setDodgeSensorP14ThermistorConf, .-_Z14setDodgeSensorP14ThermistorConf
 337 003a 00BFAFF3 		.section	.text._Z18setCommonNTCSensorP14ThermistorConf,"ax",%progbits
 337      0080
 338              		.align	2
 339              		.p2align 4,,15
 340              		.global	_Z18setCommonNTCSensorP14ThermistorConf
 341              		.thumb
 342              		.thumb_func
 343              		.type	_Z18setCommonNTCSensorP14ThermistorConf, %function
 344              	_Z18setCommonNTCSensorP14ThermistorConf:
 345              		@ args = 0, pretend = 0, frame = 0
 346              		@ frame_needed = 0, uses_anonymous_args = 0
 347              		@ link register save eliminated.
 348 0000 70B4     		push	{r4, r5, r6}
 349 0002 4FF48041 		mov	r1, #16384
 350 0006 4FF42045 		mov	r5, #40960
 351 000a 41F67844 		movw	r4, #7288
 352 000e 0022     		movs	r2, #0
 353 0010 0023     		movs	r3, #0
 354 0012 0026     		movs	r6, #0
 355 0014 C4F28C65 		movt	r5, 18060
 356 0018 C4F2BF14 		movt	r4, 16831
 357 001c CCF2A016 		movt	r6, 49568
 358 0020 C4F20351 		movt	r1, 17667
 359 0024 C4F2F022 		movt	r2, 17136
 360 0028 C4F2C823 		movt	r3, 17096
 361 002c 0660     		str	r6, [r0]	@ float
 362 002e C560     		str	r5, [r0, #12]	@ float
 363 0030 4460     		str	r4, [r0, #4]	@ float
 364 0032 0161     		str	r1, [r0, #16]	@ float
 365 0034 8260     		str	r2, [r0, #8]	@ float
 366 0036 4361     		str	r3, [r0, #20]	@ float
 367 0038 70BC     		pop	{r4, r5, r6}
 368 003a 7047     		bx	lr
 369              		.size	_Z18setCommonNTCSensorP14ThermistorConf, .-_Z18setCommonNTCSensorP14ThermistorConf
 370 003c AFF30080 		.section	.text._Z15initThermistorsP7Logging,"ax",%progbits
 371              		.align	2
 372              		.p2align 4,,15
 373              		.global	_Z15initThermistorsP7Logging
 374              		.thumb
 375              		.thumb_func
 376              		.type	_Z15initThermistorsP7Logging, %function
 377              	_Z15initThermistorsP7Logging:
 378              		@ args = 0, pretend = 0, frame = 0
 379              		@ frame_needed = 0, uses_anonymous_args = 0
 380 0000 40F20002 		movw	r2, #:lower16:engine
 381 0004 C0F20002 		movt	r2, #:upper16:engine
 382 0008 08B5     		push	{r3, lr}
 383 000a 40F20003 		movw	r3, #:lower16:.LANCHOR0
 384 000e C0F20003 		movt	r3, #:upper16:.LANCHOR0
 385 0012 1268     		ldr	r2, [r2]
 386 0014 1860     		str	r0, [r3]
 387 0016 D2B1     		cbz	r2, .L47
 388 0018 936A     		ldr	r3, [r2, #40]
ARM GAS  C:\Users\pc\AppData\Local\Temp\ccb32Tio.s 			page 8


 389 001a 83B1     		cbz	r3, .L48
 390 001c 40F20000 		movw	r0, #:lower16:.LC3
 391 0020 40F20001 		movw	r1, #:lower16:_ZL10testCltByRf
 392 0024 C0F20000 		movt	r0, #:upper16:.LC3
 393 0028 C0F20001 		movt	r1, #:upper16:_ZL10testCltByRf
 394 002c FFF7FEFF 		bl	addConsoleActionF
 395 0030 40F20003 		movw	r3, #:lower16:.LANCHOR1
 396 0034 C0F20003 		movt	r3, #:upper16:.LANCHOR1
 397 0038 0122     		movs	r2, #1
 398 003a 1A70     		strb	r2, [r3]
 399 003c 08BD     		pop	{r3, pc}
 400              	.L48:
 401 003e 40F20000 		movw	r0, #:lower16:.LC2
 402 0042 C0F20000 		movt	r0, #:upper16:.LC2
 403 0046 BDE80840 		pop	{r3, lr}
 404 004a FFF7FEBF 		b	firmwareError
 405              	.L47:
 406 004e 40F20000 		movw	r0, #:lower16:.LC1
 407 0052 C0F20000 		movt	r0, #:upper16:.LC1
 408 0056 BDE80840 		pop	{r3, lr}
 409 005a FFF7FEBF 		b	firmwareError
 410              		.size	_Z15initThermistorsP7Logging, .-_Z15initThermistorsP7Logging
 411 005e 00BF     		.section	.text._ZN14ThermistorMathC2Ev,"ax",%progbits
 412              		.align	2
 413              		.p2align 4,,15
 414              		.global	_ZN14ThermistorMathC2Ev
 415              		.thumb
 416              		.thumb_func
 417              		.type	_ZN14ThermistorMathC2Ev, %function
 418              	_ZN14ThermistorMathC2Ev:
 419              		@ args = 0, pretend = 0, frame = 0
 420              		@ frame_needed = 0, uses_anonymous_args = 0
 421 0000 10B5     		push	{r4, lr}
 422 0002 0021     		movs	r1, #0
 423 0004 0446     		mov	r4, r0
 424 0006 1C22     		movs	r2, #28
 425 0008 0C30     		adds	r0, r0, #12
 426 000a FFF7FEFF 		bl	memset
 427 000e 2346     		mov	r3, r4
 428 0010 0022     		movs	r2, #0
 429 0012 03F8012B 		strb	r2, [r3], #1
 430 0016 0133     		adds	r3, r3, #1
 431 0018 6270     		strb	r2, [r4, #1]
 432 001a 03F8012B 		strb	r2, [r3], #1
 433 001e 03F8012B 		strb	r2, [r3], #1
 434 0022 03F8012B 		strb	r2, [r3], #1
 435 0026 03F8012B 		strb	r2, [r3], #1
 436 002a 03F8012B 		strb	r2, [r3], #1
 437 002e 03F8012B 		strb	r2, [r3], #1
 438 0032 03F8012B 		strb	r2, [r3], #1
 439 0036 03F8012B 		strb	r2, [r3], #1
 440 003a 03F8012B 		strb	r2, [r3], #1
 441 003e 1A70     		strb	r2, [r3]
 442 0040 2046     		mov	r0, r4
 443 0042 10BD     		pop	{r4, pc}
 444              		.size	_ZN14ThermistorMathC2Ev, .-_ZN14ThermistorMathC2Ev
 445              		.global	_ZN14ThermistorMathC1Ev
ARM GAS  C:\Users\pc\AppData\Local\Temp\ccb32Tio.s 			page 9


 446              		.thumb_set _ZN14ThermistorMathC1Ev,_ZN14ThermistorMathC2Ev
 447              		.global	__aeabi_f2d
 448              		.global	__aeabi_ddiv
 449              		.global	__aeabi_dmul
 450              		.global	__aeabi_d2f
 451 0044 AFF30080 		.section	.text._ZN14ThermistorMath4initEP17thermistor_conf_s,"ax",%progbits
 451      AFF30080 
 451      AFF30080 
 452              		.align	2
 453              		.p2align 4,,15
 454              		.global	_ZN14ThermistorMath4initEP17thermistor_conf_s
 455              		.thumb
 456              		.thumb_func
 457              		.type	_ZN14ThermistorMath4initEP17thermistor_conf_s, %function
 458              	_ZN14ThermistorMath4initEP17thermistor_conf_s:
 459              		@ args = 0, pretend = 0, frame = 0
 460              		@ frame_needed = 0, uses_anonymous_args = 0
 461 0000 2DE9F043 		push	{r4, r5, r6, r7, r8, r9, lr}
 462 0004 2DED068B 		fstmfdd	sp!, {d8, d9, d10}
 463 0008 8846     		mov	r8, r1
 464 000a 00F10C04 		add	r4, r0, #12
 465 000e 85B0     		sub	sp, sp, #20
 466 0010 0646     		mov	r6, r0
 467 0012 2146     		mov	r1, r4
 468 0014 4046     		mov	r0, r8
 469 0016 1C22     		movs	r2, #28
 470 0018 FFF7FEFF 		bl	memcmp
 471 001c 20B9     		cbnz	r0, .L56
 472 001e 05B0     		add	sp, sp, #20
 473              		@ sp needed
 474 0020 BDEC068B 		fldmfdd	sp!, {d8-d10}
 475 0024 BDE8F083 		pop	{r4, r5, r6, r7, r8, r9, pc}
 476              	.L56:
 477 0028 D8F80010 		ldr	r1, [r8]	@ unaligned
 478 002c D8F80420 		ldr	r2, [r8, #4]	@ unaligned
 479 0030 D8F80830 		ldr	r3, [r8, #8]	@ unaligned
 480 0034 D8F80C00 		ldr	r0, [r8, #12]	@ unaligned
 481 0038 F160     		str	r1, [r6, #12]	@ unaligned
 482 003a B061     		str	r0, [r6, #24]	@ unaligned
 483 003c 3261     		str	r2, [r6, #16]	@ unaligned
 484 003e 7361     		str	r3, [r6, #20]	@ unaligned
 485 0040 D8F81420 		ldr	r2, [r8, #20]	@ unaligned
 486 0044 D8F81830 		ldr	r3, [r8, #24]	@ unaligned
 487 0048 D8F81010 		ldr	r1, [r8, #16]	@ unaligned
 488 004c 3262     		str	r2, [r6, #32]	@ unaligned
 489 004e 7362     		str	r3, [r6, #36]	@ unaligned
 490 0050 F161     		str	r1, [r6, #28]	@ unaligned
 491 0052 DFED947A 		flds	s15, .L57
 492 0056 98ED009A 		flds	s18, [r8]
 493 005a 39EE279A 		fadds	s18, s18, s15
 494 005e D8ED01AA 		flds	s21, [r8, #4]
 495 0062 98ED02AA 		flds	s20, [r8, #8]
 496 0066 19EE100A 		fmrs	r0, s18
 497 006a 7AEEA7AA 		fadds	s21, s21, s15
 498 006e 3AEE27AA 		fadds	s20, s20, s15
 499 0072 FFF7FEFF 		bl	__aeabi_f2d
 500 0076 0446     		mov	r4, r0
ARM GAS  C:\Users\pc\AppData\Local\Temp\ccb32Tio.s 			page 10


 501 0078 1AEE900A 		fmrs	r0, s21
 502 007c 0D46     		mov	r5, r1
 503 007e FFF7FEFF 		bl	__aeabi_f2d
 504 0082 CDE90001 		strd	r0, [sp]
 505 0086 1AEE100A 		fmrs	r0, s20
 506 008a FFF7FEFF 		bl	__aeabi_f2d
 507 008e 40F20007 		movw	r7, #:lower16:.LANCHOR0
 508 0092 C0F20007 		movt	r7, #:upper16:.LANCHOR0
 509 0096 CDE90201 		strd	r0, [sp, #8]
 510 009a 40F20001 		movw	r1, #:lower16:.LC4
 511 009e 3868     		ldr	r0, [r7]
 512 00a0 2246     		mov	r2, r4
 513 00a2 2B46     		mov	r3, r5
 514 00a4 C0F20001 		movt	r1, #:upper16:.LC4
 515 00a8 FFF7FEFF 		bl	scheduleMsg
 516 00ac D8F80C00 		ldr	r0, [r8, #12]	@ float
 517 00b0 FFF7FEFF 		bl	logf
 518 00b4 D8ED037A 		flds	s15, [r8, #12]
 519 00b8 08EE100A 		fmsr	s16, r0
 520 00bc B4EE678A 		fcmps	s16, s15
 521 00c0 F1EE10FA 		fmstat
 522 00c4 05D1     		bne	.L52
 523 00c6 40F20000 		movw	r0, #:lower16:.LC5
 524 00ca C0F20000 		movt	r0, #:upper16:.LC5
 525 00ce FFF7FEFF 		bl	firmwareError
 526              	.L52:
 527 00d2 D8F81000 		ldr	r0, [r8, #16]	@ float
 528 00d6 FFF7FEFF 		bl	logf
 529 00da 08EE900A 		fmsr	s17, r0
 530 00de D8F81400 		ldr	r0, [r8, #20]	@ float
 531 00e2 FFF7FEFF 		bl	logf
 532 00e6 09EE900A 		fmsr	s19, r0
 533 00ea D8F80C00 		ldr	r0, [r8, #12]	@ float
 534 00ee D7F80090 		ldr	r9, [r7]
 535 00f2 FFF7FEFF 		bl	__aeabi_f2d
 536 00f6 0446     		mov	r4, r0
 537 00f8 D8F81000 		ldr	r0, [r8, #16]	@ float
 538 00fc 0D46     		mov	r5, r1
 539 00fe FFF7FEFF 		bl	__aeabi_f2d
 540 0102 CDE90001 		strd	r0, [sp]
 541 0106 D8F81400 		ldr	r0, [r8, #20]	@ float
 542 010a FFF7FEFF 		bl	__aeabi_f2d
 543 010e CDE90201 		strd	r0, [sp, #8]
 544 0112 40F20001 		movw	r1, #:lower16:.LC6
 545 0116 2246     		mov	r2, r4
 546 0118 2B46     		mov	r3, r5
 547 011a 4846     		mov	r0, r9
 548 011c C0F20001 		movt	r1, #:upper16:.LC6
 549 0120 FFF7FEFF 		bl	scheduleMsg
 550 0124 18EE100A 		fmrs	r0, s16
 551 0128 FFF7FEFF 		bl	__aeabi_f2d
 552 012c 8046     		mov	r8, r0
 553 012e 18EE900A 		fmrs	r0, s17
 554 0132 8946     		mov	r9, r1
 555 0134 FFF7FEFF 		bl	__aeabi_f2d
 556 0138 CDE90001 		strd	r0, [sp]
 557 013c 19EE900A 		fmrs	r0, s19
ARM GAS  C:\Users\pc\AppData\Local\Temp\ccb32Tio.s 			page 11


 558 0140 FFF7FEFF 		bl	__aeabi_f2d
 559 0144 3C68     		ldr	r4, [r7]
 560 0146 CDE90201 		strd	r0, [sp, #8]
 561 014a 40F20001 		movw	r1, #:lower16:.LC7
 562 014e 4246     		mov	r2, r8
 563 0150 4B46     		mov	r3, r9
 564 0152 2046     		mov	r0, r4
 565 0154 C0F20001 		movt	r1, #:upper16:.LC7
 566 0158 FFF7FEFF 		bl	scheduleMsg
 567 015c F7EE007A 		fconsts	s15, #112
 568 0160 87EE899A 		fdivs	s18, s15, s18
 569 0164 D7F80080 		ldr	r8, [r7]
 570 0168 C7EEAAAA 		fdivs	s21, s15, s21
 571 016c 87EE8AAA 		fdivs	s20, s15, s20
 572 0170 19EE100A 		fmrs	r0, s18
 573 0174 FFF7FEFF 		bl	__aeabi_f2d
 574 0178 0446     		mov	r4, r0
 575 017a 1AEE900A 		fmrs	r0, s21
 576 017e 0D46     		mov	r5, r1
 577 0180 FFF7FEFF 		bl	__aeabi_f2d
 578 0184 CDE90001 		strd	r0, [sp]
 579 0188 1AEE100A 		fmrs	r0, s20
 580 018c FFF7FEFF 		bl	__aeabi_f2d
 581 0190 CDE90201 		strd	r0, [sp, #8]
 582 0194 40F20001 		movw	r1, #:lower16:.LC8
 583 0198 2246     		mov	r2, r4
 584 019a 2B46     		mov	r3, r5
 585 019c 4046     		mov	r0, r8
 586 019e C0F20001 		movt	r1, #:upper16:.LC8
 587 01a2 FFF7FEFF 		bl	scheduleMsg
 588 01a6 78EEC87A 		fsubs	s15, s17, s16
 589 01aa 7AEEC9AA 		fsubs	s21, s21, s18
 590 01ae 3AEE497A 		fsubs	s14, s20, s18
 591 01b2 8AEEA7AA 		fdivs	s20, s21, s15
 592 01b6 D7F80080 		ldr	r8, [r7]
 593 01ba 79EEC87A 		fsubs	s15, s19, s16
 594 01be 1AEE100A 		fmrs	r0, s20
 595 01c2 C7EE27AA 		fdivs	s21, s14, s15
 596 01c6 FFF7FEFF 		bl	__aeabi_f2d
 597 01ca 0446     		mov	r4, r0
 598 01cc 0D46     		mov	r5, r1
 599 01ce 1AEE900A 		fmrs	r0, s21
 600 01d2 FFF7FEFF 		bl	__aeabi_f2d
 601 01d6 CDE90001 		strd	r0, [sp]
 602 01da 40F20001 		movw	r1, #:lower16:.LC9
 603 01de 2246     		mov	r2, r4
 604 01e0 2B46     		mov	r3, r5
 605 01e2 4046     		mov	r0, r8
 606 01e4 C0F20001 		movt	r1, #:upper16:.LC9
 607 01e8 FFF7FEFF 		bl	scheduleMsg
 608 01ec 79EEE87A 		fsubs	s15, s19, s17
 609 01f0 7AEECAAA 		fsubs	s21, s21, s20
 610 01f4 8AEEA77A 		fdivs	s14, s21, s15
 611 01f8 17EE100A 		fmrs	r0, s14
 612 01fc FFF7FEFF 		bl	__aeabi_f2d
 613 0200 78EE287A 		fadds	s15, s16, s17
 614 0204 0446     		mov	r4, r0
ARM GAS  C:\Users\pc\AppData\Local\Temp\ccb32Tio.s 			page 12


 615 0206 79EEA77A 		fadds	s15, s19, s15
 616 020a 0D46     		mov	r5, r1
 617 020c 17EE900A 		fmrs	r0, s15
 618 0210 FFF7FEFF 		bl	__aeabi_f2d
 619 0214 0B46     		mov	r3, r1
 620 0216 0021     		movs	r1, #0
 621 0218 0246     		mov	r2, r0
 622 021a C3F6F071 		movt	r1, 16368
 623 021e 0020     		movs	r0, #0
 624 0220 FFF7FEFF 		bl	__aeabi_ddiv
 625 0224 0246     		mov	r2, r0
 626 0226 0B46     		mov	r3, r1
 627 0228 2046     		mov	r0, r4
 628 022a 2946     		mov	r1, r5
 629 022c FFF7FEFF 		bl	__aeabi_dmul
 630 0230 FFF7FEFF 		bl	__aeabi_d2f
 631 0234 68EE086A 		fmuls	s13, s16, s16
 632 0238 07EE900A 		fmsr	s15, r0
 633 023c B0EE667A 		fcpys	s14, s13
 634 0240 A8EE287A 		vfma.f32	s14, s16, s17
 635 0244 B060     		str	r0, [r6, #8]	@ float
 636 0246 A8EEA87A 		vfma.f32	s14, s17, s17
 637 024a F0EE4A8A 		fcpys	s17, s20
 638 024e E7EEC78A 		vfms.f32	s17, s15, s14
 639 0252 3F68     		ldr	r7, [r7]
 640 0254 B0EE687A 		fcpys	s14, s17
 641 0258 A7EEA67A 		vfma.f32	s14, s15, s13
 642 025c C6ED018A 		fsts	s17, [r6, #4]
 643 0260 A8EE479A 		vfms.f32	s18, s16, s14
 644 0264 86ED009A 		fsts	s18, [r6]
 645 0268 FFF7FEFF 		bl	__aeabi_f2d
 646 026c 0446     		mov	r4, r0
 647 026e 18EE900A 		fmrs	r0, s17
 648 0272 0D46     		mov	r5, r1
 649 0274 FFF7FEFF 		bl	__aeabi_f2d
 650 0278 CDE90001 		strd	r0, [sp]
 651 027c 19EE100A 		fmrs	r0, s18
 652 0280 FFF7FEFF 		bl	__aeabi_f2d
 653 0284 CDE90201 		strd	r0, [sp, #8]
 654 0288 40F20001 		movw	r1, #:lower16:.LC10
 655 028c 3846     		mov	r0, r7
 656 028e 2246     		mov	r2, r4
 657 0290 2B46     		mov	r3, r5
 658 0292 C0F20001 		movt	r1, #:upper16:.LC10
 659 0296 FFF7FEFF 		bl	scheduleMsg
 660 029a 05B0     		add	sp, sp, #20
 661              		@ sp needed
 662 029c BDEC068B 		fldmfdd	sp!, {d8-d10}
 663 02a0 BDE8F083 		pop	{r4, r5, r6, r7, r8, r9, pc}
 664              	.L58:
 665              		.align	2
 666              	.L57:
 667 02a4 33938843 		.word	1133024051
 668              		.size	_ZN14ThermistorMath4initEP17thermistor_conf_s, .-_ZN14ThermistorMath4initEP17thermistor_conf
 669 02a8 AFF30080 		.section	.text._Z20getKelvinTemperatureP14ThermistorConffP14ThermistorMath,"ax",%progbits
 669      AFF30080 
 670              		.align	2
ARM GAS  C:\Users\pc\AppData\Local\Temp\ccb32Tio.s 			page 13


 671              		.p2align 4,,15
 672              		.global	_Z20getKelvinTemperatureP14ThermistorConffP14ThermistorMath
 673              		.thumb
 674              		.thumb_func
 675              		.type	_Z20getKelvinTemperatureP14ThermistorConffP14ThermistorMath, %function
 676              	_Z20getKelvinTemperatureP14ThermistorConffP14ThermistorMath:
 677              		@ args = 0, pretend = 0, frame = 0
 678              		@ frame_needed = 0, uses_anonymous_args = 0
 679 0000 10B5     		push	{r4, lr}
 680 0002 0346     		mov	r3, r0
 681 0004 2DED028B 		fstmfdd	sp!, {d8}
 682 0008 1446     		mov	r4, r2
 683 000a 08EE101A 		fmsr	s16, r1
 684 000e 1046     		mov	r0, r2
 685 0010 1946     		mov	r1, r3
 686 0012 FFF7FEFF 		bl	_ZN14ThermistorMath4initEP17thermistor_conf_s
 687 0016 44B3     		cbz	r4, .L63
 688 0018 B5EEC08A 		fcmpezs	s16
 689 001c F1EE10FA 		fmstat
 690 0020 1CD9     		bls	.L62
 691 0022 18EE100A 		fmrs	r0, s16
 692 0026 FFF7FEFF 		bl	logf
 693 002a D4ED016A 		flds	s13, [r4, #4]
 694 002e 07EE100A 		fmsr	s14, r0
 695 0032 D4ED007A 		flds	s15, [r4]
 696 0036 94ED026A 		flds	s12, [r4, #8]
 697 003a E7EE267A 		vfma.f32	s15, s14, s13
 698 003e 27EE066A 		fmuls	s12, s14, s12
 699 0042 F7EE006A 		fconsts	s13, #112
 700 0046 27EE066A 		fmuls	s12, s14, s12
 701 004a E7EE067A 		vfma.f32	s15, s14, s12
 702 004e C6EEA77A 		fdivs	s15, s13, s15
 703              	.L61:
 704 0052 BDEC028B 		fldmfdd	sp!, {d8}
 705 0056 17EE900A 		fmrs	r0, s15
 706 005a 10BD     		pop	{r4, pc}
 707              	.L62:
 708 005c BDEC028B 		fldmfdd	sp!, {d8}
 709 0060 DFED067A 		flds	s15, .L64
 710 0064 17EE900A 		fmrs	r0, s15
 711 0068 10BD     		pop	{r4, pc}
 712              	.L63:
 713 006a 40F20000 		movw	r0, #:lower16:.LC11
 714 006e C0F20000 		movt	r0, #:upper16:.LC11
 715 0072 FFF7FEFF 		bl	firmwareError
 716 0076 DFED027A 		flds	s15, .L64+4
 717 007a EAE7     		b	.L61
 718              	.L65:
 719              		.align	2
 720              	.L64:
 721 007c 00000000 		.word	0
 722 0080 0000C07F 		.word	2143289344
 723              		.size	_Z20getKelvinTemperatureP14ThermistorConffP14ThermistorMath, .-_Z20getKelvinTemperatureP14Th
 724 0084 AFF30080 		.section	.text._Z15getTemperatureCP14ThermistorConfP14ThermistorMath,"ax",%progbits
 724      AFF30080 
 724      AFF30080 
 725              		.align	2
ARM GAS  C:\Users\pc\AppData\Local\Temp\ccb32Tio.s 			page 14


 726              		.p2align 4,,15
 727              		.global	_Z15getTemperatureCP14ThermistorConfP14ThermistorMath
 728              		.thumb
 729              		.thumb_func
 730              		.type	_Z15getTemperatureCP14ThermistorConfP14ThermistorMath, %function
 731              	_Z15getTemperatureCP14ThermistorConfP14ThermistorMath:
 732              		@ args = 0, pretend = 0, frame = 0
 733              		@ frame_needed = 0, uses_anonymous_args = 0
 734 0000 38B5     		push	{r3, r4, r5, lr}
 735 0002 40F20003 		movw	r3, #:lower16:.LANCHOR1
 736 0006 C0F20003 		movt	r3, #:upper16:.LANCHOR1
 737 000a 0C46     		mov	r4, r1
 738 000c 1B78     		ldrb	r3, [r3]	@ zero_extendqisi2
 739 000e 0546     		mov	r5, r0
 740 0010 7BB1     		cbz	r3, .L69
 741 0012 FFF7FEFF 		bl	_Z13getResistanceP14ThermistorConf
 742 0016 2246     		mov	r2, r4
 743 0018 0146     		mov	r1, r0	@ float
 744 001a 2846     		mov	r0, r5
 745 001c FFF7FEFF 		bl	_Z20getKelvinTemperatureP14ThermistorConffP14ThermistorMath
 746 0020 DFED097A 		flds	s15, .L70
 747 0024 07EE100A 		fmsr	s14, r0
 748 0028 77EE677A 		fsubs	s15, s14, s15
 749 002c 17EE900A 		fmrs	r0, s15
 750 0030 38BD     		pop	{r3, r4, r5, pc}
 751              	.L69:
 752 0032 40F20000 		movw	r0, #:lower16:.LC12
 753 0036 C0F20000 		movt	r0, #:upper16:.LC12
 754 003a FFF7FEFF 		bl	firmwareError
 755 003e DFED037A 		flds	s15, .L70+4
 756 0042 17EE900A 		fmrs	r0, s15
 757 0046 38BD     		pop	{r3, r4, r5, pc}
 758              	.L71:
 759              		.align	2
 760              	.L70:
 761 0048 33938843 		.word	1133024051
 762 004c 0000C07F 		.word	2143289344
 763              		.size	_Z15getTemperatureCP14ThermistorConfP14ThermistorMath, .-_Z15getTemperatureCP14ThermistorCon
 764              		.section	.text._Z21getCoolantTemperaturev,"ax",%progbits
 765              		.align	2
 766              		.p2align 4,,15
 767              		.global	_Z21getCoolantTemperaturev
 768              		.thumb
 769              		.thumb_func
 770              		.type	_Z21getCoolantTemperaturev, %function
 771              	_Z21getCoolantTemperaturev:
 772              		@ args = 0, pretend = 0, frame = 0
 773              		@ frame_needed = 0, uses_anonymous_args = 0
 774 0000 38B5     		push	{r3, r4, r5, lr}
 775 0002 40F20003 		movw	r3, #:lower16:engine
 776 0006 C0F20003 		movt	r3, #:upper16:engine
 777 000a 40F20004 		movw	r4, #:lower16:engineConfiguration
 778 000e C0F20004 		movt	r4, #:upper16:engineConfiguration
 779 0012 1968     		ldr	r1, [r3]
 780 0014 2068     		ldr	r0, [r4]
 781 0016 01F5F451 		add	r1, r1, #7808
 782 001a 0431     		adds	r1, r1, #4
ARM GAS  C:\Users\pc\AppData\Local\Temp\ccb32Tio.s 			page 15


 783 001c 00F58070 		add	r0, r0, #256
 784 0020 FFF7FEFF 		bl	_Z15getTemperatureCP14ThermistorConfP14ThermistorMath
 785 0024 0546     		mov	r5, r0	@ float
 786 0026 FFF7FEFF 		bl	_Z25isValidCoolantTemperaturef
 787 002a D0B9     		cbnz	r0, .L75
 788 002c 2368     		ldr	r3, [r4]
 789 002e D3B1     		cbz	r3, .L77
 790 0030 93F8D835 		ldrb	r3, [r3, #1496]	@ zero_extendqisi2
 791 0034 DB09     		lsrs	r3, r3, #7
 792 0036 03D1     		bne	.L78
 793 0038 0020     		movs	r0, #0
 794 003a C4F28C20 		movt	r0, 17036
 795 003e 38BD     		pop	{r3, r4, r5, pc}
 796              	.L78:
 797 0040 2846     		mov	r0, r5	@ float
 798 0042 FFF7FEFF 		bl	__aeabi_f2d
 799 0046 0B46     		mov	r3, r1
 800 0048 40F20001 		movw	r1, #:lower16:.LC14
 801 004c 0246     		mov	r2, r0
 802 004e C0F20001 		movt	r1, #:upper16:.LC14
 803 0052 40F25E20 		movw	r0, #606
 804 0056 FFF7FEFF 		bl	warning
 805 005a 0020     		movs	r0, #0
 806 005c C4F28C20 		movt	r0, 17036
 807 0060 38BD     		pop	{r3, r4, r5, pc}
 808              	.L75:
 809 0062 2846     		mov	r0, r5	@ float
 810 0064 38BD     		pop	{r3, r4, r5, pc}
 811              	.L77:
 812 0066 40F20000 		movw	r0, #:lower16:.LC13
 813 006a C0F20000 		movt	r0, #:upper16:.LC13
 814 006e FFF7FEFF 		bl	firmwareError
 815 0072 0020     		movs	r0, #0
 816 0074 C7F6C070 		movt	r0, 32704
 817 0078 38BD     		pop	{r3, r4, r5, pc}
 818              		.size	_Z21getCoolantTemperaturev, .-_Z21getCoolantTemperaturev
 819 007a 00BFAFF3 		.section	.text._Z23getIntakeAirTemperaturev,"ax",%progbits
 819      0080
 820              		.align	2
 821              		.p2align 4,,15
 822              		.global	_Z23getIntakeAirTemperaturev
 823              		.thumb
 824              		.thumb_func
 825              		.type	_Z23getIntakeAirTemperaturev, %function
 826              	_Z23getIntakeAirTemperaturev:
 827              		@ args = 0, pretend = 0, frame = 0
 828              		@ frame_needed = 0, uses_anonymous_args = 0
 829 0000 38B5     		push	{r3, r4, r5, lr}
 830 0002 40F20003 		movw	r3, #:lower16:engine
 831 0006 C0F20003 		movt	r3, #:upper16:engine
 832 000a 40F20004 		movw	r4, #:lower16:engineConfiguration
 833 000e C0F20004 		movt	r4, #:upper16:engineConfiguration
 834 0012 1968     		ldr	r1, [r3]
 835 0014 2068     		ldr	r0, [r4]
 836 0016 01F5F251 		add	r1, r1, #7744
 837 001a 1C31     		adds	r1, r1, #28
 838 001c 00F59070 		add	r0, r0, #288
ARM GAS  C:\Users\pc\AppData\Local\Temp\ccb32Tio.s 			page 16


 839 0020 FFF7FEFF 		bl	_Z15getTemperatureCP14ThermistorConfP14ThermistorMath
 840 0024 0546     		mov	r5, r0	@ float
 841 0026 FFF7FEFF 		bl	_Z27isValidIntakeAirTemperaturef
 842 002a D0B9     		cbnz	r0, .L82
 843 002c 2368     		ldr	r3, [r4]
 844 002e D3B1     		cbz	r3, .L84
 845 0030 93F8D835 		ldrb	r3, [r3, #1496]	@ zero_extendqisi2
 846 0034 9B07     		lsls	r3, r3, #30
 847 0036 03D4     		bmi	.L85
 848 0038 0020     		movs	r0, #0
 849 003a C4F2F010 		movt	r0, 16880
 850 003e 38BD     		pop	{r3, r4, r5, pc}
 851              	.L85:
 852 0040 2846     		mov	r0, r5	@ float
 853 0042 FFF7FEFF 		bl	__aeabi_f2d
 854 0046 0B46     		mov	r3, r1
 855 0048 40F20001 		movw	r1, #:lower16:.LC15
 856 004c 0246     		mov	r2, r0
 857 004e C0F20001 		movt	r1, #:upper16:.LC15
 858 0052 40F25E20 		movw	r0, #606
 859 0056 FFF7FEFF 		bl	warning
 860 005a 0020     		movs	r0, #0
 861 005c C4F2F010 		movt	r0, 16880
 862 0060 38BD     		pop	{r3, r4, r5, pc}
 863              	.L82:
 864 0062 2846     		mov	r0, r5	@ float
 865 0064 38BD     		pop	{r3, r4, r5, pc}
 866              	.L84:
 867 0066 40F20000 		movw	r0, #:lower16:.LC13
 868 006a C0F20000 		movt	r0, #:upper16:.LC13
 869 006e FFF7FEFF 		bl	firmwareError
 870 0072 0020     		movs	r0, #0
 871 0074 C7F6C070 		movt	r0, 32704
 872 0078 38BD     		pop	{r3, r4, r5, pc}
 873              		.size	_Z23getIntakeAirTemperaturev, .-_Z23getIntakeAirTemperaturev
 874 007a 00BFAFF3 		.section	.text._ZL10testCltByRf,"ax",%progbits
 874      0080
 875              		.align	2
 876              		.p2align 4,,15
 877              		.thumb
 878              		.thumb_func
 879              		.type	_ZL10testCltByRf, %function
 880              	_ZL10testCltByRf:
 881              		@ args = 0, pretend = 0, frame = 0
 882              		@ frame_needed = 0, uses_anonymous_args = 0
 883 0000 70B5     		push	{r4, r5, r6, lr}
 884 0002 40F20002 		movw	r2, #:lower16:engine
 885 0006 C0F20002 		movt	r2, #:upper16:engine
 886 000a 40F20003 		movw	r3, #:lower16:engineConfiguration
 887 000e C0F20003 		movt	r3, #:upper16:engineConfiguration
 888 0012 2DED028B 		fstmfdd	sp!, {d8}
 889 0016 1268     		ldr	r2, [r2]
 890 0018 1B68     		ldr	r3, [r3]
 891 001a 0446     		mov	r4, r0	@ float
 892 001c 02F5F452 		add	r2, r2, #7808
 893 0020 82B0     		sub	sp, sp, #8
 894 0022 0432     		adds	r2, r2, #4
ARM GAS  C:\Users\pc\AppData\Local\Temp\ccb32Tio.s 			page 17


 895 0024 2146     		mov	r1, r4	@ float
 896 0026 03F58070 		add	r0, r3, #256
 897 002a FFF7FEFF 		bl	_Z20getKelvinTemperatureP14ThermistorConffP14ThermistorMath
 898 002e 40F20003 		movw	r3, #:lower16:.LANCHOR0
 899 0032 C0F20003 		movt	r3, #:upper16:.LANCHOR0
 900 0036 08EE100A 		fmsr	s16, r0
 901 003a 2046     		mov	r0, r4	@ float
 902 003c 1E68     		ldr	r6, [r3]
 903 003e FFF7FEFF 		bl	__aeabi_f2d
 904 0042 DFED0C7A 		flds	s15, .L87
 905 0046 78EE677A 		fsubs	s15, s16, s15
 906 004a 0446     		mov	r4, r0
 907 004c 17EE900A 		fmrs	r0, s15
 908 0050 0D46     		mov	r5, r1
 909 0052 FFF7FEFF 		bl	__aeabi_f2d
 910 0056 CDE90001 		strd	r0, [sp]
 911 005a 40F20001 		movw	r1, #:lower16:.LC16
 912 005e 3046     		mov	r0, r6
 913 0060 2246     		mov	r2, r4
 914 0062 2B46     		mov	r3, r5
 915 0064 C0F20001 		movt	r1, #:upper16:.LC16
 916 0068 FFF7FEFF 		bl	scheduleMsg
 917 006c 02B0     		add	sp, sp, #8
 918              		@ sp needed
 919 006e BDEC028B 		fldmfdd	sp!, {d8}
 920 0072 70BD     		pop	{r4, r5, r6, pc}
 921              	.L88:
 922              		.align	2
 923              	.L87:
 924 0074 33938843 		.word	1133024051
 925              		.size	_ZL10testCltByRf, .-_ZL10testCltByRf
 926 0078 AFF30080 		.section	.bss._ZL11initialized,"aw",%nobits
 926      AFF30080 
 927              		.set	.LANCHOR1,. + 0
 928              		.type	_ZL11initialized, %object
 929              		.size	_ZL11initialized, 1
 930              	_ZL11initialized:
 931 0000 00       		.space	1
 932              		.section	.rodata.str1.4,"aMS",%progbits,1
 933              		.align	2
 934              	.LC0:
 935 0000 7465726D 		.ascii	"term\000"
 935      00
 936 0005 000000   		.space	3
 937              	.LC1:
 938 0008 65204E55 		.ascii	"e NULL initThermistors\000"
 938      4C4C2069 
 938      6E697454 
 938      6865726D 
 938      6973746F 
 939 001f 00       		.space	1
 940              	.LC2:
 941 0020 6532204E 		.ascii	"e2 NULL initThermistors\000"
 941      554C4C20 
 941      696E6974 
 941      54686572 
 941      6D697374 
ARM GAS  C:\Users\pc\AppData\Local\Temp\ccb32Tio.s 			page 18


 942              	.LC3:
 943 0038 74657374 		.ascii	"test_clt_by_r\000"
 943      5F636C74 
 943      5F62795F 
 943      7200
 944 0046 0000     		.space	2
 945              	.LC4:
 946 0048 54313D25 		.ascii	"T1=%..100000f/T2=%..100000f/T3=%..100000f\000"
 946      2E2E3130 
 946      30303030 
 946      662F5432 
 946      3D252E2E 
 947 0072 0000     		.space	2
 948              	.LC5:
 949 0074 6C6F6720 		.ascii	"log is broken?\000"
 949      69732062 
 949      726F6B65 
 949      6E3F00
 950 0083 00       		.space	1
 951              	.LC6:
 952 0084 52313D25 		.ascii	"R1=%..100000f/R2=%..100000f/R3=%..100000f\000"
 952      2E2E3130 
 952      30303030 
 952      662F5232 
 952      3D252E2E 
 953 00ae 0000     		.space	2
 954              	.LC7:
 955 00b0 4C313D25 		.ascii	"L1=%..100000f/L2=%..100000f/L3=%..100000f\000"
 955      2E2E3130 
 955      30303030 
 955      662F4C32 
 955      3D252E2E 
 956 00da 0000     		.space	2
 957              	.LC8:
 958 00dc 59313D25 		.ascii	"Y1=%..100000f/Y2=%..100000f/Y3=%..100000f\000"
 958      2E2E3130 
 958      30303030 
 958      662F5932 
 958      3D252E2E 
 959 0106 0000     		.space	2
 960              	.LC9:
 961 0108 55323D25 		.ascii	"U2=%..100000f/U3=%..100000f\000"
 961      2E2E3130 
 961      30303030 
 961      662F5533 
 961      3D252E2E 
 962              	.LC10:
 963 0124 735F685F 		.ascii	"s_h_c=%..100000f/s_h_b=%..100000f/s_h_a=%..100000f\000"
 963      633D252E 
 963      2E313030 
 963      30303066 
 963      2F735F68 
 964 0157 00       		.space	1
 965              	.LC11:
 966 0158 74686572 		.ascii	"thermistor pointer is NULL\000"
 966      6D697374 
 966      6F722070 
ARM GAS  C:\Users\pc\AppData\Local\Temp\ccb32Tio.s 			page 19


 966      6F696E74 
 966      65722069 
 967 0173 00       		.space	1
 968              	.LC12:
 969 0174 74686572 		.ascii	"thermstr not initialized\000"
 969      6D737472 
 969      206E6F74 
 969      20696E69 
 969      7469616C 
 970 018d 000000   		.space	3
 971              	.LC13:
 972 0190 4E554C4C 		.ascii	"NULL engineConfiguration\000"
 972      20656E67 
 972      696E6543 
 972      6F6E6669 
 972      67757261 
 973 01a9 000000   		.space	3
 974              	.LC14:
 975 01ac 756E7265 		.ascii	"unrealistic CLT %f\000"
 975      616C6973 
 975      74696320 
 975      434C5420 
 975      256600
 976 01bf 00       		.space	1
 977              	.LC15:
 978 01c0 756E7265 		.ascii	"unrealistic IAT %f\000"
 978      616C6973 
 978      74696320 
 978      49415420 
 978      256600
 979 01d3 00       		.space	1
 980              	.LC16:
 981 01d4 666F7220 		.ascii	"for R=%f we have %f\000"
 981      523D2566 
 981      20776520 
 981      68617665 
 981      20256600 
 982              		.section	.bss._ZL6logger,"aw",%nobits
 983              		.align	2
 984              		.set	.LANCHOR0,. + 0
 985              		.type	_ZL6logger, %object
 986              		.size	_ZL6logger, 4
 987              	_ZL6logger:
 988 0000 00000000 		.space	4
 989              		.ident	"GCC: (Sourcery CodeBench Lite 2013.11-24) 4.8.1"
ARM GAS  C:\Users\pc\AppData\Local\Temp\ccb32Tio.s 			page 20

