ARM GAS  C:\Users\pc\AppData\Local\Temp\ccepp31b.s 			page 1


   1              		.syntax unified
   2              		.cpu cortex-m4
   3              		.eabi_attribute 27, 3
   4              		.fpu fpv4-sp-d16
   5              		.eabi_attribute 20, 1
   6              		.eabi_attribute 21, 1
   7              		.eabi_attribute 23, 3
   8              		.eabi_attribute 24, 1
   9              		.eabi_attribute 25, 1
  10              		.eabi_attribute 26, 1
  11              		.eabi_attribute 30, 2
  12              		.eabi_attribute 34, 1
  13              		.eabi_attribute 18, 4
  14              		.thumb
  15              		.file	"tps.cpp"
  16              		.section	.text._Z12saveTpsStatelf,"ax",%progbits
  17              		.align	2
  18              		.p2align 4,,15
  19              		.global	_Z12saveTpsStatelf
  20              		.thumb
  21              		.thumb_func
  22              		.type	_Z12saveTpsStatelf, %function
  23              	_Z12saveTpsStatelf:
  24              		@ args = 0, pretend = 0, frame = 0
  25              		@ frame_needed = 0, uses_anonymous_args = 0
  26              		@ link register save eliminated.
  27 0000 40F20002 		movw	r2, #:lower16:.LANCHOR0
  28 0004 C0F20002 		movt	r2, #:upper16:.LANCHOR0
  29 0008 F0B4     		push	{r4, r5, r6, r7}
  30 000a 1568     		ldr	r5, [r2]
  31 000c 1468     		ldr	r4, [r2]
  32 000e 0135     		adds	r5, r5, #1
  33 0010 EE0F     		lsrs	r6, r5, #31
  34 0012 3544     		add	r5, r5, r6
  35 0014 40F20003 		movw	r3, #:lower16:.LANCHOR1
  36 0018 05F00105 		and	r5, r5, #1
  37 001c AD1B     		subs	r5, r5, r6
  38 001e C0F20003 		movt	r3, #:upper16:.LANCHOR1
  39 0022 04EB8404 		add	r4, r4, r4, lsl #2
  40 0026 03EB8404 		add	r4, r3, r4, lsl #2
  41 002a 05EB8507 		add	r7, r5, r5, lsl #2
  42 002e BF00     		lsls	r7, r7, #2
  43 0030 A668     		ldr	r6, [r4, #8]
  44 0032 1560     		str	r5, [r2]
  45 0034 DA19     		adds	r2, r3, r7
  46 0036 DE51     		str	r6, [r3, r7]
  47 0038 E568     		ldr	r5, [r4, #12]	@ float
  48 003a 9060     		str	r0, [r2, #8]
  49 003c A368     		ldr	r3, [r4, #8]
  50 003e D160     		str	r1, [r2, #12]	@ float
  51 0040 C01A     		subs	r0, r0, r3
  52 0042 07EE900A 		fmsr	s15, r0	@ int
  53 0046 B8EEE77A 		fsitos	s14, s15
  54 004a DFED087A 		flds	s15, .L2
  55 004e 87EE277A 		fdivs	s14, s14, s15
  56 0052 D4ED036A 		flds	s13, [r4, #12]
  57 0056 07EE901A 		fmsr	s15, r1
ARM GAS  C:\Users\pc\AppData\Local\Temp\ccepp31b.s 			page 2


  58 005a 77EEE67A 		fsubs	s15, s15, s13
  59 005e 5560     		str	r5, [r2, #4]	@ float
  60 0060 C7EE877A 		fdivs	s15, s15, s14
  61 0064 F0BC     		pop	{r4, r5, r6, r7}
  62 0066 C2ED047A 		fsts	s15, [r2, #16]
  63 006a 7047     		bx	lr
  64              	.L3:
  65              		.align	2
  66              	.L2:
  67 006c 00007A44 		.word	1148846080
  68              		.size	_Z12saveTpsStatelf, .-_Z12saveTpsStatelf
  69              		.section	.text._Z18getTpsRateOfChangev,"ax",%progbits
  70              		.align	2
  71              		.p2align 4,,15
  72              		.global	_Z18getTpsRateOfChangev
  73              		.thumb
  74              		.thumb_func
  75              		.type	_Z18getTpsRateOfChangev, %function
  76              	_Z18getTpsRateOfChangev:
  77              		@ args = 0, pretend = 0, frame = 0
  78              		@ frame_needed = 0, uses_anonymous_args = 0
  79              		@ link register save eliminated.
  80 0000 40F20002 		movw	r2, #:lower16:.LANCHOR0
  81 0004 C0F20002 		movt	r2, #:upper16:.LANCHOR0
  82 0008 40F20003 		movw	r3, #:lower16:.LANCHOR1
  83 000c 1268     		ldr	r2, [r2]
  84 000e C0F20003 		movt	r3, #:upper16:.LANCHOR1
  85 0012 02EB8202 		add	r2, r2, r2, lsl #2
  86 0016 03EB8203 		add	r3, r3, r2, lsl #2
  87 001a 1869     		ldr	r0, [r3, #16]	@ float
  88 001c 7047     		bx	lr
  89              		.size	_Z18getTpsRateOfChangev, .-_Z18getTpsRateOfChangev
  90 001e 00BF     		.section	.text._Z11getTpsValuei,"ax",%progbits
  91              		.align	2
  92              		.p2align 4,,15
  93              		.global	_Z11getTpsValuei
  94              		.thumb
  95              		.thumb_func
  96              		.type	_Z11getTpsValuei, %function
  97              	_Z11getTpsValuei:
  98              		@ args = 0, pretend = 0, frame = 0
  99              		@ frame_needed = 0, uses_anonymous_args = 0
 100 0000 40F20003 		movw	r3, #:lower16:engineConfiguration
 101 0004 C0F20003 		movt	r3, #:upper16:engineConfiguration
 102 0008 00B5     		push	{lr}
 103 000a 1B68     		ldr	r3, [r3]
 104 000c B3F95220 		ldrsh	r2, [r3, #82]
 105 0010 B3F95430 		ldrsh	r3, [r3, #84]
 106 0014 9A42     		cmp	r2, r3
 107 0016 83B0     		sub	sp, sp, #12
 108 0018 24D0     		beq	.L9
 109 001a 07EE100A 		fmsr	s14, r0	@ int
 110 001e F8EEC77A 		fsitos	s15, s14
 111 0022 07EE102A 		fmsr	s14, r2	@ int
 112 0026 B8EEC77A 		fsitos	s14, s14
 113 002a CDED007A 		fsts	s15, [sp]
 114 002e 17EE100A 		fmrs	r0, s14
ARM GAS  C:\Users\pc\AppData\Local\Temp\ccepp31b.s 			page 3


 115 0032 07EE103A 		fmsr	s14, r3	@ int
 116 0036 B8EEC77A 		fsitos	s14, s14
 117 003a 0023     		movs	r3, #0
 118 003c 17EE102A 		fmrs	r2, s14
 119 0040 C4F2C823 		movt	r3, 17096
 120 0044 0021     		movs	r1, #0
 121 0046 FFF7FEFF 		bl	_Z11interpolatefffff
 122 004a 0146     		mov	r1, r0	@ float
 123 004c 0020     		movs	r0, #0
 124 004e C4F2C820 		movt	r0, 17096
 125 0052 FFF7FEFF 		bl	minF
 126 0056 0146     		mov	r1, r0	@ float
 127 0058 0020     		movs	r0, #0
 128 005a 03B0     		add	sp, sp, #12
 129              		@ sp needed
 130 005c 5DF804EB 		ldr	lr, [sp], #4
 131 0060 FFF7FEBF 		b	maxF
 132              	.L9:
 133 0064 40F20001 		movw	r1, #:lower16:.LC0
 134 0068 C0F20001 		movt	r1, #:upper16:.LC0
 135 006c 40F25E20 		movw	r0, #606
 136 0070 FFF7FEFF 		bl	warning
 137 0074 0020     		movs	r0, #0
 138 0076 C7F6C070 		movt	r0, 32704
 139 007a 03B0     		add	sp, sp, #12
 140              		@ sp needed
 141 007c 5DF804FB 		ldr	pc, [sp], #4
 142              		.size	_Z11getTpsValuei, .-_Z11getTpsValuei
 143              		.section	.text._Z13getTPSVoltagev,"ax",%progbits
 144              		.align	2
 145              		.p2align 4,,15
 146              		.global	_Z13getTPSVoltagev
 147              		.thumb
 148              		.thumb_func
 149              		.type	_Z13getTPSVoltagev, %function
 150              	_Z13getTPSVoltagev:
 151              		@ args = 0, pretend = 0, frame = 0
 152              		@ frame_needed = 0, uses_anonymous_args = 0
 153 0000 10B5     		push	{r4, lr}
 154 0002 40F20004 		movw	r4, #:lower16:engineConfiguration
 155 0006 C0F20004 		movt	r4, #:upper16:engineConfiguration
 156 000a 40F20000 		movw	r0, #:lower16:.LC1
 157 000e 2368     		ldr	r3, [r4]
 158 0010 C0F20000 		movt	r0, #:upper16:.LC1
 159 0014 D3F80C12 		ldr	r1, [r3, #524]
 160 0018 FFF7FEFF 		bl	_Z19getInternalAdcValuePKc13adc_channel_e
 161 001c 07EE900A 		fmsr	s15, r0	@ int
 162 0020 2368     		ldr	r3, [r4]
 163 0022 F8EEE76A 		fsitos	s13, s15
 164 0026 9FED057A 		flds	s14, .L12
 165 002a D3ED747A 		flds	s15, [r3, #464]
 166 002e 26EE877A 		fmuls	s14, s13, s14
 167 0032 67EE277A 		fmuls	s15, s14, s15
 168 0036 17EE900A 		fmrs	r0, s15
 169 003a 10BD     		pop	{r4, pc}
 170              	.L13:
 171              		.align	2
ARM GAS  C:\Users\pc\AppData\Local\Temp\ccepp31b.s 			page 4


 172              	.L12:
 173 003c 010C403A 		.word	977275905
 174              		.size	_Z13getTPSVoltagev, .-_Z13getTPSVoltagev
 175              		.section	.text._Z14getTPS10bitAdcv,"ax",%progbits
 176              		.align	2
 177              		.p2align 4,,15
 178              		.global	_Z14getTPS10bitAdcv
 179              		.thumb
 180              		.thumb_func
 181              		.type	_Z14getTPS10bitAdcv, %function
 182              	_Z14getTPS10bitAdcv:
 183              		@ args = 0, pretend = 0, frame = 0
 184              		@ frame_needed = 0, uses_anonymous_args = 0
 185              		@ link register save eliminated.
 186 0000 40F20003 		movw	r3, #:lower16:engineConfiguration
 187 0004 C0F20003 		movt	r3, #:upper16:engineConfiguration
 188 0008 1B68     		ldr	r3, [r3]
 189 000a D3F80C32 		ldr	r3, [r3, #524]
 190 000e B3F55E7F 		cmp	r3, #888
 191 0012 0BD0     		beq	.L16
 192 0014 40F20003 		movw	r3, #:lower16:.LANCHOR2
 193 0018 C0F20003 		movt	r3, #:upper16:.LANCHOR2
 194 001c 1B68     		ldr	r3, [r3]
 195 001e D81C     		adds	r0, r3, #3
 196 0020 33EA2303 		bics	r3, r3, r3, asr #32
 197 0024 28BF     		it	cs
 198 0026 0346     		movcs	r3, r0
 199 0028 9810     		asrs	r0, r3, #2
 200 002a 7047     		bx	lr
 201              	.L16:
 202 002c 4FF0FF30 		mov	r0, #-1
 203 0030 7047     		bx	lr
 204              		.size	_Z14getTPS10bitAdcv, .-_Z14getTPS10bitAdcv
 205 0032 00BFAFF3 		.section	.text._Z16getPedalPositionv,"ax",%progbits
 205      0080AFF3 
 205      0080AFF3 
 205      0080
 206              		.align	2
 207              		.p2align 4,,15
 208              		.global	_Z16getPedalPositionv
 209              		.thumb
 210              		.thumb_func
 211              		.type	_Z16getPedalPositionv, %function
 212              	_Z16getPedalPositionv:
 213              		@ args = 0, pretend = 0, frame = 0
 214              		@ frame_needed = 0, uses_anonymous_args = 0
 215 0000 30B5     		push	{r4, r5, lr}
 216 0002 40F20004 		movw	r4, #:lower16:engineConfiguration
 217 0006 C0F20004 		movt	r4, #:upper16:engineConfiguration
 218 000a 40F20000 		movw	r0, #:lower16:.LC2
 219 000e 2368     		ldr	r3, [r4]
 220 0010 83B0     		sub	sp, sp, #12
 221 0012 D3F85C12 		ldr	r1, [r3, #604]
 222 0016 C0F20000 		movt	r0, #:upper16:.LC2
 223 001a FFF7FEFF 		bl	_Z19getInternalAdcValuePKc13adc_channel_e
 224 001e 07EE900A 		fmsr	s15, r0	@ int
 225 0022 2368     		ldr	r3, [r4]
ARM GAS  C:\Users\pc\AppData\Local\Temp\ccepp31b.s 			page 5


 226 0024 F8EEE76A 		fsitos	s13, s15
 227 0028 DFED167A 		flds	s15, .L18
 228 002c 93ED747A 		flds	s14, [r3, #464]
 229 0030 66EEA77A 		fmuls	s15, s13, s15
 230 0034 B3F93C02 		ldrsh	r0, [r3, #572]
 231 0038 B3F93E22 		ldrsh	r2, [r3, #574]
 232 003c 67EE877A 		fmuls	s15, s15, s14
 233 0040 0025     		movs	r5, #0
 234 0042 CDED007A 		fsts	s15, [sp]
 235 0046 07EE900A 		fmsr	s15, r0	@ int
 236 004a F8EEE77A 		fsitos	s15, s15
 237 004e 0024     		movs	r4, #0
 238 0050 17EE900A 		fmrs	r0, s15
 239 0054 07EE902A 		fmsr	s15, r2	@ int
 240 0058 F8EEE77A 		fsitos	s15, s15
 241 005c C4F2C825 		movt	r5, 17096
 242 0060 17EE902A 		fmrs	r2, s15
 243 0064 2146     		mov	r1, r4	@ float
 244 0066 2B46     		mov	r3, r5	@ float
 245 0068 FFF7FEFF 		bl	_Z11interpolatefffff
 246 006c 0146     		mov	r1, r0	@ float
 247 006e 2846     		mov	r0, r5	@ float
 248 0070 FFF7FEFF 		bl	minF
 249 0074 0146     		mov	r1, r0	@ float
 250 0076 2046     		mov	r0, r4	@ float
 251 0078 03B0     		add	sp, sp, #12
 252              		@ sp needed
 253 007a BDE83040 		pop	{r4, r5, lr}
 254 007e FFF7FEBF 		b	maxF
 255              	.L19:
 256 0082 00BF     		.align	2
 257              	.L18:
 258 0084 010C403A 		.word	977275905
 259              		.size	_Z16getPedalPositionv, .-_Z16getPedalPositionv
 260 0088 AFF30080 		.section	.text._Z6getTPSv,"ax",%progbits
 260      AFF30080 
 261              		.align	2
 262              		.p2align 4,,15
 263              		.global	_Z6getTPSv
 264              		.thumb
 265              		.thumb_func
 266              		.type	_Z6getTPSv, %function
 267              	_Z6getTPSv:
 268              		@ args = 0, pretend = 0, frame = 0
 269              		@ frame_needed = 0, uses_anonymous_args = 0
 270              		@ link register save eliminated.
 271 0000 40F20003 		movw	r3, #:lower16:engineConfiguration
 272 0004 C0F20003 		movt	r3, #:upper16:engineConfiguration
 273 0008 1B68     		ldr	r3, [r3]
 274 000a 93F8D925 		ldrb	r2, [r3, #1497]	@ zero_extendqisi2
 275 000e D209     		lsrs	r2, r2, #7
 276 0010 04D1     		bne	.L24
 277 0012 43F6D500 		movw	r0, #14549
 278 0016 C4F28520 		movt	r0, 17029
 279 001a 7047     		bx	lr
 280              	.L24:
 281 001c D3F80C32 		ldr	r3, [r3, #524]
ARM GAS  C:\Users\pc\AppData\Local\Temp\ccepp31b.s 			page 6


 282 0020 B3F55E7F 		cmp	r3, #888
 283 0024 08BF     		it	eq
 284 0026 4FF0FF30 		moveq	r0, #-1
 285 002a 0AD0     		beq	.L22
 286 002c 40F20003 		movw	r3, #:lower16:.LANCHOR2
 287 0030 C0F20003 		movt	r3, #:upper16:.LANCHOR2
 288 0034 1B68     		ldr	r3, [r3]
 289 0036 D81C     		adds	r0, r3, #3
 290 0038 33EA2303 		bics	r3, r3, r3, asr #32
 291 003c 28BF     		it	cs
 292 003e 0346     		movcs	r3, r0
 293 0040 9810     		asrs	r0, r3, #2
 294              	.L22:
 295 0042 FFF7FEBF 		b	_Z11getTpsValuei
 296              		.size	_Z6getTPSv, .-_Z6getTPSv
 297 0046 00BFAFF3 		.section	.text._Z24convertVoltageTo10bitADCf,"ax",%progbits
 297      0080AFF3 
 297      0080
 298              		.align	2
 299              		.p2align 4,,15
 300              		.global	_Z24convertVoltageTo10bitADCf
 301              		.thumb
 302              		.thumb_func
 303              		.type	_Z24convertVoltageTo10bitADCf, %function
 304              	_Z24convertVoltageTo10bitADCf:
 305              		@ args = 0, pretend = 0, frame = 0
 306              		@ frame_needed = 0, uses_anonymous_args = 0
 307              		@ link register save eliminated.
 308 0000 07EE900A 		fmsr	s15, r0
 309 0004 B6EE007A 		fconsts	s14, #96
 310 0008 27EE877A 		fmuls	s14, s15, s14
 311 000c DFED066A 		flds	s13, .L26
 312 0010 DFED067A 		flds	s15, .L26+4
 313 0014 27EE267A 		fmuls	s14, s14, s13
 314 0018 C7EE277A 		fdivs	s15, s14, s15
 315 001c FDEEE77A 		ftosizs	s15, s15
 316 0020 17EE900A 		fmrs	r0, s15	@ int
 317 0024 7047     		bx	lr
 318              	.L27:
 319 0026 00BF     		.align	2
 320              	.L26:
 321 0028 00008044 		.word	1149239296
 322 002c 33335340 		.word	1079194419
 323              		.size	_Z24convertVoltageTo10bitADCf, .-_Z24convertVoltageTo10bitADCf
 324              		.global	tpsFastAdc
 325              		.section	.bss.tpsFastAdc,"aw",%nobits
 326              		.align	2
 327              		.set	.LANCHOR2,. + 0
 328              		.type	tpsFastAdc, %object
 329              		.size	tpsFastAdc, 4
 330              	tpsFastAdc:
 331 0000 00000000 		.space	4
 332              		.section	.bss._ZL11tpsRocIndex,"aw",%nobits
 333              		.align	2
 334              		.set	.LANCHOR0,. + 0
 335              		.type	_ZL11tpsRocIndex, %object
 336              		.size	_ZL11tpsRocIndex, 4
ARM GAS  C:\Users\pc\AppData\Local\Temp\ccepp31b.s 			page 7


 337              	_ZL11tpsRocIndex:
 338 0000 00000000 		.space	4
 339              		.section	.bss._ZL6states,"aw",%nobits
 340              		.align	2
 341              		.set	.LANCHOR1,. + 0
 342              		.type	_ZL6states, %object
 343              		.size	_ZL6states, 40
 344              	_ZL6states:
 345 0000 00000000 		.space	40
 345      00000000 
 345      00000000 
 345      00000000 
 345      00000000 
 346              		.section	.rodata.str1.4,"aMS",%progbits,1
 347              		.align	2
 348              	.LC0:
 349 0000 496E7661 		.ascii	"Invalid TPS configuration: same value %d\000"
 349      6C696420 
 349      54505320 
 349      636F6E66 
 349      69677572 
 350 0029 000000   		.space	3
 351              	.LC1:
 352 002c 74707300 		.ascii	"tps\000"
 353              	.LC2:
 354 0030 70505300 		.ascii	"pPS\000"
 355              		.ident	"GCC: (Sourcery CodeBench Lite 2013.11-24) 4.8.1"
ARM GAS  C:\Users\pc\AppData\Local\Temp\ccepp31b.s 			page 8

