ARM GAS  C:\Users\pc\AppData\Local\Temp\ccFXNpP7.s 			page 1


   1              		.syntax unified
   2              		.cpu cortex-m4
   3              		.eabi_attribute 27, 3
   4              		.fpu fpv4-sp-d16
   5              		.eabi_attribute 20, 1
   6              		.eabi_attribute 21, 1
   7              		.eabi_attribute 23, 3
   8              		.eabi_attribute 24, 1
   9              		.eabi_attribute 25, 1
  10              		.eabi_attribute 26, 1
  11              		.eabi_attribute 30, 2
  12              		.eabi_attribute 34, 1
  13              		.eabi_attribute 18, 4
  14              		.thumb
  15              		.file	"trigger_emulator_algo.cpp"
  16              		.section	.text._ZL18setEmulatorAtIndexiP6Engine,"ax",%progbits
  17              		.align	2
  18              		.p2align 4,,15
  19              		.thumb
  20              		.thumb_func
  21              		.type	_ZL18setEmulatorAtIndexiP6Engine, %function
  22              	_ZL18setEmulatorAtIndexiP6Engine:
  23              		@ args = 0, pretend = 0, frame = 0
  24              		@ frame_needed = 0, uses_anonymous_args = 0
  25              		@ link register save eliminated.
  26 0000 40F20003 		movw	r3, #:lower16:.LANCHOR0
  27 0004 C0F20003 		movt	r3, #:upper16:.LANCHOR0
  28 0008 1860     		str	r0, [r3]
  29 000a 7047     		bx	lr
  30              		.size	_ZL18setEmulatorAtIndexiP6Engine, .-_ZL18setEmulatorAtIndexiP6Engine
  31 000c AFF30080 		.section	.text._ZL16resumeStimulatorP6Engine,"ax",%progbits
  32              		.align	2
  33              		.p2align 4,,15
  34              		.thumb
  35              		.thumb_func
  36              		.type	_ZL16resumeStimulatorP6Engine, %function
  37              	_ZL16resumeStimulatorP6Engine:
  38              		@ args = 0, pretend = 0, frame = 0
  39              		@ frame_needed = 0, uses_anonymous_args = 0
  40              		@ link register save eliminated.
  41 0000 40F20002 		movw	r2, #:lower16:.LANCHOR1
  42 0004 40F20003 		movw	r3, #:lower16:.LANCHOR0
  43 0008 C0F20002 		movt	r2, #:upper16:.LANCHOR1
  44 000c C0F20003 		movt	r3, #:upper16:.LANCHOR0
  45 0010 4CF6FF11 		movw	r1, #51711
  46 0014 0120     		movs	r0, #1
  47 0016 C3F69A31 		movt	r1, 15258
  48 001a 1070     		strb	r0, [r2]
  49 001c 1960     		str	r1, [r3]
  50 001e 7047     		bx	lr
  51              		.size	_ZL16resumeStimulatorP6Engine, .-_ZL16resumeStimulatorP6Engine
  52              		.section	.text._ZL15fireShaftSignal15trigger_event_e,"ax",%progbits
  53              		.align	2
  54              		.p2align 4,,15
  55              		.thumb
  56              		.thumb_func
  57              		.type	_ZL15fireShaftSignal15trigger_event_e, %function
ARM GAS  C:\Users\pc\AppData\Local\Temp\ccFXNpP7.s 			page 2


  58              	_ZL15fireShaftSignal15trigger_event_e:
  59              		@ args = 0, pretend = 0, frame = 0
  60              		@ frame_needed = 0, uses_anonymous_args = 0
  61              		@ link register save eliminated.
  62 0000 40F20003 		movw	r3, #:lower16:engineConfiguration
  63 0004 C0F20003 		movt	r3, #:upper16:engineConfiguration
  64 0008 1B68     		ldr	r3, [r3]
  65 000a 93F8E535 		ldrb	r3, [r3, #1509]	@ zero_extendqisi2
  66 000e 5B06     		lsls	r3, r3, #25
  67 0010 05D5     		bpl	.L4
  68 0012 40F20003 		movw	r3, #:lower16:.LANCHOR2
  69 0016 C0F20003 		movt	r3, #:upper16:.LANCHOR2
  70 001a 1B5C     		ldrb	r3, [r3, r0]	@ zero_extendqisi2
  71 001c 0BB1     		cbz	r3, .L3
  72              	.L4:
  73 001e FFF7FEBF 		b	_Z19hwHandleShaftSignal15trigger_event_e
  74              	.L3:
  75 0022 7047     		bx	lr
  76              		.size	_ZL15fireShaftSignal15trigger_event_e, .-_ZL15fireShaftSignal15trigger_event_e
  77              		.global	__aeabi_f2ulz
  78              		.global	__aeabi_ul2f
  79 0024 AFF30080 		.section	.text._Z21setTriggerEmulatorRPMiP6Engine,"ax",%progbits
  79      AFF30080 
  79      AFF30080 
  80              		.align	2
  81              		.p2align 4,,15
  82              		.global	_Z21setTriggerEmulatorRPMiP6Engine
  83              		.thumb
  84              		.thumb_func
  85              		.type	_Z21setTriggerEmulatorRPMiP6Engine, %function
  86              	_Z21setTriggerEmulatorRPMiP6Engine:
  87              		@ args = 0, pretend = 0, frame = 0
  88              		@ frame_needed = 0, uses_anonymous_args = 0
  89 0000 40F20003 		movw	r3, #:lower16:engineConfiguration
  90 0004 C0F20003 		movt	r3, #:upper16:engineConfiguration
  91 0008 2DE9F041 		push	{r4, r5, r6, r7, r8, lr}
  92 000c 1B68     		ldr	r3, [r3]
  93 000e 0646     		mov	r6, r0
  94 0010 0F46     		mov	r7, r1
  95 0012 C3F84003 		str	r0, [r3, #832]
  96 0016 F0B9     		cbnz	r0, .L11
  97 0018 40F20003 		movw	r3, #:lower16:.LANCHOR3
  98 001c 0022     		movs	r2, #0
  99 001e C0F20003 		movt	r3, #:upper16:.LANCHOR3
 100 0022 C7F6C072 		movt	r2, 32704
 101 0026 9A61     		str	r2, [r3, #24]	@ float
 102              	.L12:
 103 0028 97F88032 		ldrb	r3, [r7, #640]	@ zero_extendqisi2
 104 002c 2BB1     		cbz	r3, .L13
 105 002e 40F20000 		movw	r0, #:lower16:waveChart
 106 0032 C0F20000 		movt	r0, #:upper16:waveChart
 107 0036 FFF7FEFF 		bl	_ZN9WaveChart14resetWaveChartEv
 108              	.L13:
 109 003a 40F20003 		movw	r3, #:lower16:.LANCHOR4
 110 003e C0F20003 		movt	r3, #:upper16:.LANCHOR4
 111 0042 40F20001 		movw	r1, #:lower16:.LC0
 112 0046 3246     		mov	r2, r6
ARM GAS  C:\Users\pc\AppData\Local\Temp\ccFXNpP7.s 			page 3


 113 0048 1868     		ldr	r0, [r3]
 114 004a C0F20001 		movt	r1, #:upper16:.LC0
 115 004e BDE8F041 		pop	{r4, r5, r6, r7, r8, lr}
 116 0052 FFF7FEBF 		b	scheduleMsg
 117              	.L11:
 118 0056 D3F8F401 		ldr	r0, [r3, #500]
 119 005a FFF7FEFF 		bl	_Z16getRpmMultiplier16operation_mode_e
 120 005e 07EE106A 		fmsr	s14, r6	@ int
 121 0062 F8EEC76A 		fsitos	s13, s14
 122 0066 07EE100A 		fmsr	s14, r0
 123 006a DFED0F7A 		flds	s15, .L17
 124 006e 66EE876A 		fmuls	s13, s13, s14
 125 0072 9FED0E7A 		flds	s14, .L17+4
 126 0076 C6EEA77A 		fdivs	s15, s13, s15
 127 007a 40F20008 		movw	r8, #:lower16:.LANCHOR3
 128 007e C0F20008 		movt	r8, #:upper16:.LANCHOR3
 129 0082 C7EE276A 		fdivs	s13, s14, s15
 130 0086 16EE900A 		fmrs	r0, s13
 131 008a FFF7FEFF 		bl	__aeabi_f2ulz
 132 008e A823     		movs	r3, #168
 133 0090 A0FB0345 		umull	r4, r5, r0, r3
 134 0094 03FB0155 		mla	r5, r3, r1, r5
 135 0098 2046     		mov	r0, r4
 136 009a 2946     		mov	r1, r5
 137 009c FFF7FEFF 		bl	__aeabi_ul2f
 138 00a0 C8F81800 		str	r0, [r8, #24]	@ float
 139 00a4 C0E7     		b	.L12
 140              	.L18:
 141 00a6 00BF     		.align	2
 142              	.L17:
 143 00a8 00007042 		.word	1114636288
 144 00ac 00247449 		.word	1232348160
 145              		.size	_Z21setTriggerEmulatorRPMiP6Engine, .-_Z21setTriggerEmulatorRPMiP6Engine
 146              		.section	.text._ZL26updateTriggerShapeIfNeededP9PwmConfig,"ax",%progbits
 147              		.align	2
 148              		.p2align 4,,15
 149              		.thumb
 150              		.thumb_func
 151              		.type	_ZL26updateTriggerShapeIfNeededP9PwmConfig, %function
 152              	_ZL26updateTriggerShapeIfNeededP9PwmConfig:
 153              		@ args = 0, pretend = 0, frame = 16
 154              		@ frame_needed = 0, uses_anonymous_args = 0
 155 0000 2DE9F041 		push	{r4, r5, r6, r7, r8, lr}
 156 0004 0546     		mov	r5, r0
 157 0006 40F20000 		movw	r0, #:lower16:.LANCHOR5
 158 000a 86B0     		sub	sp, sp, #24
 159 000c C0F20000 		movt	r0, #:upper16:.LANCHOR5
 160 0010 FFF7FEFF 		bl	_ZN18LocalVersionHolder5isOldEv
 161 0014 0028     		cmp	r0, #0
 162 0016 3BD0     		beq	.L19
 163 0018 40F20004 		movw	r4, #:lower16:.LANCHOR4
 164 001c C0F20004 		movt	r4, #:upper16:.LANCHOR4
 165 0020 40F20000 		movw	r0, #:lower16:.LANCHOR5
 166 0024 C0F20000 		movt	r0, #:upper16:.LANCHOR5
 167 0028 2668     		ldr	r6, [r4]
 168 002a FFF7FEFF 		bl	_ZN18LocalVersionHolder10getVersionEv
 169 002e 8046     		mov	r8, r0
ARM GAS  C:\Users\pc\AppData\Local\Temp\ccFXNpP7.s 			page 4


 170 0030 FFF7FEFF 		bl	_Z29getGlobalConfigurationVersionv
 171 0034 0746     		mov	r7, r0
 172 0036 FFF7FEFF 		bl	currentTimeMillis
 173 003a 40F20001 		movw	r1, #:lower16:.LC1
 174 003e C0F20001 		movt	r1, #:upper16:.LC1
 175 0042 4246     		mov	r2, r8
 176 0044 3B46     		mov	r3, r7
 177 0046 0090     		str	r0, [sp]
 178 0048 3046     		mov	r0, r6
 179 004a FFF7FEFF 		bl	scheduleMsg
 180 004e 2068     		ldr	r0, [r4]
 181 0050 FFF7FEFF 		bl	_Z31applyNonPersistentConfigurationP7Logging
 182 0054 40F20003 		movw	r3, #:lower16:engine
 183 0058 C0F20003 		movt	r3, #:upper16:engine
 184 005c 1C68     		ldr	r4, [r3]
 185 005e D4F8FC3D 		ldr	r3, [r4, #3580]
 186 0062 1A68     		ldr	r2, [r3]
 187 0064 0392     		str	r2, [sp, #12]
 188 0066 5A68     		ldr	r2, [r3, #4]
 189 0068 0492     		str	r2, [sp, #16]
 190 006a 9B68     		ldr	r3, [r3, #8]
 191 006c 04F52170 		add	r0, r4, #644
 192 0070 0593     		str	r3, [sp, #20]
 193 0072 FFF7FEFF 		bl	_ZNK12TriggerShape7getSizeEv
 194 0076 03AB     		add	r3, sp, #12
 195 0078 0146     		mov	r1, r0
 196 007a D4F8002E 		ldr	r2, [r4, #3584]
 197 007e 0093     		str	r3, [sp]
 198 0080 2846     		mov	r0, r5
 199 0082 0323     		movs	r3, #3
 200 0084 FFF7FEFF 		bl	_Z17copyPwmParametersP9PwmConfigiPfiPPa
 201 0088 0023     		movs	r3, #0
 202 008a CBF68073 		movt	r3, 49024
 203 008e AB63     		str	r3, [r5, #56]	@ float
 204              	.L19:
 205 0090 06B0     		add	sp, sp, #24
 206              		@ sp needed
 207 0092 BDE8F081 		pop	{r4, r5, r6, r7, r8, pc}
 208              		.size	_ZL26updateTriggerShapeIfNeededP9PwmConfig, .-_ZL26updateTriggerShapeIfNeededP9PwmConfig
 209 0096 00BFAFF3 		.section	.text._ZN21TriggerEmulatorHelperC2Ev,"ax",%progbits
 209      0080AFF3 
 209      0080
 210              		.align	2
 211              		.p2align 4,,15
 212              		.global	_ZN21TriggerEmulatorHelperC2Ev
 213              		.thumb
 214              		.thumb_func
 215              		.type	_ZN21TriggerEmulatorHelperC2Ev, %function
 216              	_ZN21TriggerEmulatorHelperC2Ev:
 217              		@ args = 0, pretend = 0, frame = 0
 218              		@ frame_needed = 0, uses_anonymous_args = 0
 219              		@ link register save eliminated.
 220 0000 0022     		movs	r2, #0
 221 0002 0270     		strb	r2, [r0]
 222 0004 4270     		strb	r2, [r0, #1]
 223 0006 8270     		strb	r2, [r0, #2]
 224 0008 7047     		bx	lr
ARM GAS  C:\Users\pc\AppData\Local\Temp\ccFXNpP7.s 			page 5


 225              		.size	_ZN21TriggerEmulatorHelperC2Ev, .-_ZN21TriggerEmulatorHelperC2Ev
 226              		.global	_ZN21TriggerEmulatorHelperC1Ev
 227              		.thumb_set _ZN21TriggerEmulatorHelperC1Ev,_ZN21TriggerEmulatorHelperC2Ev
 228 000a 00BFAFF3 		.section	.text._ZN21TriggerEmulatorHelper22handleEmulatorCallbackEP9PwmConfigi,"ax",%progbits
 228      0080
 229              		.align	2
 230              		.p2align 4,,15
 231              		.global	_ZN21TriggerEmulatorHelper22handleEmulatorCallbackEP9PwmConfigi
 232              		.thumb
 233              		.thumb_func
 234              		.type	_ZN21TriggerEmulatorHelper22handleEmulatorCallbackEP9PwmConfigi, %function
 235              	_ZN21TriggerEmulatorHelper22handleEmulatorCallbackEP9PwmConfigi:
 236              		@ args = 0, pretend = 0, frame = 0
 237              		@ frame_needed = 0, uses_anonymous_args = 0
 238 0000 086D     		ldr	r0, [r1, #80]
 239 0002 0969     		ldr	r1, [r1, #16]
 240 0004 F8B5     		push	{r3, r4, r5, r6, r7, lr}
 241 0006 8318     		adds	r3, r0, r2
 242 0008 013B     		subs	r3, r3, #1
 243 000a 93FBF0F4 		sdiv	r4, r3, r0
 244 000e 00FB1433 		mls	r3, r0, r4, r3
 245 0012 91E81100 		ldmia	r1, {r0, r4}
 246 0016 8968     		ldr	r1, [r1, #8]
 247 0018 10F903C0 		ldrsb	ip, [r0, r3]
 248 001c E756     		ldrsb	r7, [r4, r3]
 249 001e CE56     		ldrsb	r6, [r1, r3]
 250 0020 8056     		ldrsb	r0, [r0, r2]
 251 0022 A556     		ldrsb	r5, [r4, r2]
 252 0024 8C56     		ldrsb	r4, [r1, r2]
 253 0026 1CF10003 		adds	r3, ip, #0
 254 002a 18BF     		it	ne
 255 002c 0123     		movne	r3, #1
 256 002e 0037     		adds	r7, r7, #0
 257 0030 18BF     		it	ne
 258 0032 0127     		movne	r7, #1
 259 0034 0036     		adds	r6, r6, #0
 260 0036 18BF     		it	ne
 261 0038 0126     		movne	r6, #1
 262 003a 8342     		cmp	r3, r0
 263 003c 04D0     		beq	.L26
 264 003e 0030     		adds	r0, r0, #0
 265 0040 18BF     		it	ne
 266 0042 0120     		movne	r0, #1
 267 0044 FFF7FEFF 		bl	_ZL15fireShaftSignal15trigger_event_e
 268              	.L26:
 269 0048 AF42     		cmp	r7, r5
 270 004a 05D0     		beq	.L27
 271 004c 002D     		cmp	r5, #0
 272 004e 0CBF     		ite	eq
 273 0050 0220     		moveq	r0, #2
 274 0052 0320     		movne	r0, #3
 275 0054 FFF7FEFF 		bl	_ZL15fireShaftSignal15trigger_event_e
 276              	.L27:
 277 0058 A642     		cmp	r6, r4
 278 005a 07D0     		beq	.L25
 279 005c 002C     		cmp	r4, #0
 280 005e 0CBF     		ite	eq
ARM GAS  C:\Users\pc\AppData\Local\Temp\ccFXNpP7.s 			page 6


 281 0060 0420     		moveq	r0, #4
 282 0062 0520     		movne	r0, #5
 283 0064 BDE8F840 		pop	{r3, r4, r5, r6, r7, lr}
 284 0068 FFF7FEBF 		b	_ZL15fireShaftSignal15trigger_event_e
 285              	.L25:
 286 006c F8BD     		pop	{r3, r4, r5, r6, r7, pc}
 287              		.size	_ZN21TriggerEmulatorHelper22handleEmulatorCallbackEP9PwmConfigi, .-_ZN21TriggerEmulatorHelpe
 288 006e 00BF     		.section	.text._ZL21emulatorApplyPinStateP9PwmConfigi,"ax",%progbits
 289              		.align	2
 290              		.p2align 4,,15
 291              		.thumb
 292              		.thumb_func
 293              		.type	_ZL21emulatorApplyPinStateP9PwmConfigi, %function
 294              	_ZL21emulatorApplyPinStateP9PwmConfigi:
 295              		@ args = 0, pretend = 0, frame = 0
 296              		@ frame_needed = 0, uses_anonymous_args = 0
 297 0000 38B5     		push	{r3, r4, r5, lr}
 298 0002 40F20003 		movw	r3, #:lower16:.LANCHOR0
 299 0006 C0F20003 		movt	r3, #:upper16:.LANCHOR0
 300 000a 0C46     		mov	r4, r1
 301 000c 1B68     		ldr	r3, [r3]
 302 000e 8B42     		cmp	r3, r1
 303 0010 40F20003 		movw	r3, #:lower16:.LANCHOR1
 304 0014 0546     		mov	r5, r0
 305 0016 C0F20003 		movt	r3, #:upper16:.LANCHOR1
 306 001a 0DD0     		beq	.L41
 307 001c 1B78     		ldrb	r3, [r3]	@ zero_extendqisi2
 308 001e 53B1     		cbz	r3, .L33
 309 0020 FFF7FEFF 		bl	_Z13applyPinStateP9PwmConfigi
 310 0024 40F20003 		movw	r3, #:lower16:engineConfiguration
 311 0028 C0F20003 		movt	r3, #:upper16:engineConfiguration
 312 002c 1B68     		ldr	r3, [r3]
 313 002e 93F85030 		ldrb	r3, [r3, #80]	@ zero_extendqisi2
 314 0032 DA07     		lsls	r2, r3, #31
 315 0034 03D4     		bmi	.L42
 316              	.L33:
 317 0036 38BD     		pop	{r3, r4, r5, pc}
 318              	.L41:
 319 0038 0022     		movs	r2, #0
 320 003a 1A70     		strb	r2, [r3]
 321 003c 38BD     		pop	{r3, r4, r5, pc}
 322              	.L42:
 323 003e 40F20000 		movw	r0, #:lower16:.LANCHOR6
 324 0042 2946     		mov	r1, r5
 325 0044 2246     		mov	r2, r4
 326 0046 C0F20000 		movt	r0, #:upper16:.LANCHOR6
 327 004a BDE83840 		pop	{r3, r4, r5, lr}
 328 004e FFF7FEBF 		b	_ZN21TriggerEmulatorHelper22handleEmulatorCallbackEP9PwmConfigi
 329              		.size	_ZL21emulatorApplyPinStateP9PwmConfigi, .-_ZL21emulatorApplyPinStateP9PwmConfigi
 330 0052 00BFAFF3 		.section	.text._Z24initTriggerEmulatorLogicP7LoggingP6Engine,"ax",%progbits
 330      0080AFF3 
 330      0080AFF3 
 330      0080
 331              		.align	2
 332              		.p2align 4,,15
 333              		.global	_Z24initTriggerEmulatorLogicP7LoggingP6Engine
 334              		.thumb
ARM GAS  C:\Users\pc\AppData\Local\Temp\ccFXNpP7.s 			page 7


 335              		.thumb_func
 336              		.type	_Z24initTriggerEmulatorLogicP7LoggingP6Engine, %function
 337              	_Z24initTriggerEmulatorLogicP7LoggingP6Engine:
 338              		@ args = 0, pretend = 0, frame = 16
 339              		@ frame_needed = 0, uses_anonymous_args = 0
 340 0000 F0B5     		push	{r4, r5, r6, r7, lr}
 341 0002 40F20002 		movw	r2, #:lower16:engineConfiguration
 342 0006 C0F20002 		movt	r2, #:upper16:engineConfiguration
 343 000a 40F20003 		movw	r3, #:lower16:.LANCHOR4
 344 000e 1268     		ldr	r2, [r2]
 345 0010 C0F20003 		movt	r3, #:upper16:.LANCHOR4
 346 0014 0C46     		mov	r4, r1
 347 0016 89B0     		sub	sp, sp, #36
 348 0018 1860     		str	r0, [r3]
 349 001a D2F84003 		ldr	r0, [r2, #832]
 350 001e FFF7FEFF 		bl	_Z21setTriggerEmulatorRPMiP6Engine
 351 0022 D4F8FC3D 		ldr	r3, [r4, #3580]
 352 0026 1A68     		ldr	r2, [r3]
 353 0028 0592     		str	r2, [sp, #20]
 354 002a 5A68     		ldr	r2, [r3, #4]
 355 002c 0692     		str	r2, [sp, #24]
 356 002e 9B68     		ldr	r3, [r3, #8]
 357 0030 04F52170 		add	r0, r4, #644
 358 0034 0793     		str	r3, [sp, #28]
 359 0036 FFF7FEFF 		bl	_ZNK12TriggerShape7getSizeEv
 360 003a 40F20006 		movw	r6, #:lower16:_ZL26updateTriggerShapeIfNeededP9PwmConfig
 361 003e 40F20005 		movw	r5, #:lower16:_ZL21emulatorApplyPinStateP9PwmConfigi
 362 0042 4FF0030E 		mov	lr, #3
 363 0046 0246     		mov	r2, r0
 364 0048 C0F20006 		movt	r6, #:upper16:_ZL26updateTriggerShapeIfNeededP9PwmConfig
 365 004c C0F20005 		movt	r5, #:upper16:_ZL21emulatorApplyPinStateP9PwmConfigi
 366 0050 05AF     		add	r7, sp, #20
 367 0052 40F20000 		movw	r0, #:lower16:.LANCHOR3
 368 0056 40F20001 		movw	r1, #:lower16:.LC2
 369 005a D4F8003E 		ldr	r3, [r4, #3584]
 370 005e CDF800E0 		str	lr, [sp]
 371 0062 0296     		str	r6, [sp, #8]
 372 0064 0395     		str	r5, [sp, #12]
 373 0066 0197     		str	r7, [sp, #4]
 374 0068 C0F20000 		movt	r0, #:upper16:.LANCHOR3
 375 006c C0F20001 		movt	r1, #:upper16:.LC2
 376 0070 FFF7FEFF 		bl	_ZN9PwmConfig13weComplexInitEPKciPfiPPaPFvPS_EPFvS5_iE
 377 0074 40F20000 		movw	r0, #:lower16:.LC3
 378 0078 40F20001 		movw	r1, #:lower16:_Z21setTriggerEmulatorRPMiP6Engine
 379 007c 2246     		mov	r2, r4
 380 007e C0F20000 		movt	r0, #:upper16:.LC3
 381 0082 C0F20001 		movt	r1, #:upper16:_Z21setTriggerEmulatorRPMiP6Engine
 382 0086 FFF7FEFF 		bl	addConsoleActionIP
 383 008a 40F20000 		movw	r0, #:lower16:.LC4
 384 008e 40F20001 		movw	r1, #:lower16:_ZL18setEmulatorAtIndexiP6Engine
 385 0092 2246     		mov	r2, r4
 386 0094 C0F20000 		movt	r0, #:upper16:.LC4
 387 0098 C0F20001 		movt	r1, #:upper16:_ZL18setEmulatorAtIndexiP6Engine
 388 009c FFF7FEFF 		bl	addConsoleActionIP
 389 00a0 40F20000 		movw	r0, #:lower16:.LC5
 390 00a4 40F20001 		movw	r1, #:lower16:_ZL16resumeStimulatorP6Engine
 391 00a8 2246     		mov	r2, r4
ARM GAS  C:\Users\pc\AppData\Local\Temp\ccFXNpP7.s 			page 8


 392 00aa C0F20000 		movt	r0, #:upper16:.LC5
 393 00ae C0F20001 		movt	r1, #:upper16:_ZL16resumeStimulatorP6Engine
 394 00b2 FFF7FEFF 		bl	addConsoleActionP
 395 00b6 09B0     		add	sp, sp, #36
 396              		@ sp needed
 397 00b8 F0BD     		pop	{r4, r5, r6, r7, pc}
 398              		.size	_Z24initTriggerEmulatorLogicP7LoggingP6Engine, .-_Z24initTriggerEmulatorLogicP7LoggingP6Engi
 399 00ba 00BFAFF3 		.section	.text.startup._GLOBAL__sub_I__ZN21TriggerEmulatorHelperC2Ev,"ax",%progbits
 399      0080
 400              		.align	2
 401              		.p2align 4,,15
 402              		.thumb
 403              		.thumb_func
 404              		.type	_GLOBAL__sub_I__ZN21TriggerEmulatorHelperC2Ev, %function
 405              	_GLOBAL__sub_I__ZN21TriggerEmulatorHelperC2Ev:
 406              		@ args = 0, pretend = 0, frame = 0
 407              		@ frame_needed = 0, uses_anonymous_args = 0
 408 0000 70B5     		push	{r4, r5, r6, lr}
 409 0002 40F20004 		movw	r4, #:lower16:.LANCHOR7
 410 0006 C0F20004 		movt	r4, #:upper16:.LANCHOR7
 411 000a 40F20001 		movw	r1, #:lower16:.LANCHOR8
 412 000e 2046     		mov	r0, r4
 413 0010 C0F20001 		movt	r1, #:upper16:.LANCHOR8
 414 0014 FFF7FEFF 		bl	_ZN13single_wave_sC1EPa
 415 0018 40F20001 		movw	r1, #:lower16:.LANCHOR9
 416 001c 201D     		adds	r0, r4, #4
 417 001e C0F20001 		movt	r1, #:upper16:.LANCHOR9
 418 0022 FFF7FEFF 		bl	_ZN13single_wave_sC1EPa
 419 0026 40F20001 		movw	r1, #:lower16:.LANCHOR10
 420 002a 04F10800 		add	r0, r4, #8
 421 002e C0F20001 		movt	r1, #:upper16:.LANCHOR10
 422 0032 FFF7FEFF 		bl	_ZN13single_wave_sC1EPa
 423 0036 40F20003 		movw	r3, #:lower16:.LANCHOR11
 424 003a C0F20003 		movt	r3, #:upper16:.LANCHOR11
 425 003e 2668     		ldr	r6, [r4]
 426 0040 6568     		ldr	r5, [r4, #4]
 427 0042 A468     		ldr	r4, [r4, #8]
 428 0044 1E60     		str	r6, [r3]
 429 0046 40F20000 		movw	r0, #:lower16:.LANCHOR3
 430 004a 40F20001 		movw	r1, #:lower16:.LANCHOR12
 431 004e 1A46     		mov	r2, r3
 432 0050 5D60     		str	r5, [r3, #4]
 433 0052 9C60     		str	r4, [r3, #8]
 434 0054 C0F20001 		movt	r1, #:upper16:.LANCHOR12
 435 0058 C0F20000 		movt	r0, #:upper16:.LANCHOR3
 436 005c FFF7FEFF 		bl	_ZN9PwmConfigC1EPfP13single_wave_s
 437 0060 40F20000 		movw	r0, #:lower16:.LANCHOR5
 438 0064 C0F20000 		movt	r0, #:upper16:.LANCHOR5
 439 0068 FFF7FEFF 		bl	_ZN18LocalVersionHolderC1Ev
 440 006c 40F20003 		movw	r3, #:lower16:.LANCHOR6
 441 0070 C0F20003 		movt	r3, #:upper16:.LANCHOR6
 442 0074 0022     		movs	r2, #0
 443 0076 1A70     		strb	r2, [r3]
 444 0078 5A70     		strb	r2, [r3, #1]
 445 007a 9A70     		strb	r2, [r3, #2]
 446 007c 70BD     		pop	{r4, r5, r6, pc}
 447              		.size	_GLOBAL__sub_I__ZN21TriggerEmulatorHelperC2Ev, .-_GLOBAL__sub_I__ZN21TriggerEmulatorHelperC2
ARM GAS  C:\Users\pc\AppData\Local\Temp\ccFXNpP7.s 			page 9


 448 007e 00BF     		.section	.init_array,"aw",%init_array
 449              		.align	2
 450 0000 00000000 		.word	_GLOBAL__sub_I__ZN21TriggerEmulatorHelperC2Ev(target1)
 451              		.global	triggerSignal
 452              		.section	.data._ZL20stopEmulationAtIndex,"aw",%progbits
 453              		.align	2
 454              		.set	.LANCHOR0,. + 0
 455              		.type	_ZL20stopEmulationAtIndex, %object
 456              		.size	_ZL20stopEmulationAtIndex, 4
 457              	_ZL20stopEmulationAtIndex:
 458 0000 FFC99A3B 		.word	999999999
 459              		.section	.bss._ZL8swtchTms,"aw",%nobits
 460              		.align	2
 461              		.set	.LANCHOR12,. + 0
 462              		.type	_ZL8swtchTms, %object
 463              		.size	_ZL8swtchTms, 1008
 464              	_ZL8swtchTms:
 465 0000 00000000 		.space	1008
 465      00000000 
 465      00000000 
 465      00000000 
 465      00000000 
 466              		.section	.bss._ZL10pinStates1,"aw",%nobits
 467              		.align	2
 468              		.set	.LANCHOR8,. + 0
 469              		.type	_ZL10pinStates1, %object
 470              		.size	_ZL10pinStates1, 252
 471              	_ZL10pinStates1:
 472 0000 00000000 		.space	252
 472      00000000 
 472      00000000 
 472      00000000 
 472      00000000 
 473              		.section	.bss.triggerSignal,"aw",%nobits
 474              		.align	3
 475              		.set	.LANCHOR3,. + 0
 476              		.type	triggerSignal, %object
 477              		.size	triggerSignal, 96
 478              	triggerSignal:
 479 0000 00000000 		.space	96
 479      00000000 
 479      00000000 
 479      00000000 
 479      00000000 
 480              		.section	.bss._ZL10pinStates3,"aw",%nobits
 481              		.align	2
 482              		.set	.LANCHOR10,. + 0
 483              		.type	_ZL10pinStates3, %object
 484              		.size	_ZL10pinStates3, 252
 485              	_ZL10pinStates3:
 486 0000 00000000 		.space	252
 486      00000000 
 486      00000000 
 486      00000000 
 486      00000000 
 487              		.section	.bss._ZL21emulatorConfigVersion,"aw",%nobits
 488              		.align	2
ARM GAS  C:\Users\pc\AppData\Local\Temp\ccFXNpP7.s 			page 10


 489              		.set	.LANCHOR5,. + 0
 490              		.type	_ZL21emulatorConfigVersion, %object
 491              		.size	_ZL21emulatorConfigVersion, 4
 492              	_ZL21emulatorConfigVersion:
 493 0000 00000000 		.space	4
 494              		.section	.data._ZL11isEmulating,"aw",%progbits
 495              		.set	.LANCHOR1,. + 0
 496              		.type	_ZL11isEmulating, %object
 497              		.size	_ZL11isEmulating, 1
 498              	_ZL11isEmulating:
 499 0000 01       		.byte	1
 500              		.section	.rodata.str1.4,"aMS",%progbits,1
 501              		.align	2
 502              	.LC0:
 503 0000 456D756C 		.ascii	"Emulating position sensor(s). RPM=%d\000"
 503      6174696E 
 503      6720706F 
 503      73697469 
 503      6F6E2073 
 504 0025 000000   		.space	3
 505              	.LC1:
 506 0028 5374696D 		.ascii	"Stimulator: updating trigger shape: %d/%d %d\000"
 506      756C6174 
 506      6F723A20 
 506      75706461 
 506      74696E67 
 507 0055 000000   		.space	3
 508              	.LC2:
 509 0058 706F7369 		.ascii	"position sensor\000"
 509      74696F6E 
 509      2073656E 
 509      736F7200 
 510              	.LC3:
 511 0068 72706D00 		.ascii	"rpm\000"
 512              	.LC4:
 513 006c 73746F70 		.ascii	"stop_stimulator_at_index\000"
 513      5F737469 
 513      6D756C61 
 513      746F725F 
 513      61745F69 
 514 0085 000000   		.space	3
 515              	.LC5:
 516 0088 72657375 		.ascii	"resume_stimulator\000"
 516      6D655F73 
 516      74696D75 
 516      6C61746F 
 516      7200
 517 009a 0000     		.section	.bss._ZL6helper,"aw",%nobits
 518              		.align	2
 519              		.set	.LANCHOR6,. + 0
 520              		.type	_ZL6helper, %object
 521              		.size	_ZL6helper, 3
 522              	_ZL6helper:
 523 0000 000000   		.space	3
 524 0003 00       		.section	.bss._ZL2sr,"aw",%nobits
 525              		.align	2
 526              		.set	.LANCHOR11,. + 0
ARM GAS  C:\Users\pc\AppData\Local\Temp\ccFXNpP7.s 			page 11


 527              		.type	_ZL2sr, %object
 528              		.size	_ZL2sr, 12
 529              	_ZL2sr:
 530 0000 00000000 		.space	12
 530      00000000 
 530      00000000 
 531              		.section	.bss._ZL6logger,"aw",%nobits
 532              		.align	2
 533              		.set	.LANCHOR4,. + 0
 534              		.type	_ZL6logger, %object
 535              		.size	_ZL6logger, 4
 536              	_ZL6logger:
 537 0000 00000000 		.space	4
 538              		.section	.rodata._ZL9isUpEvent,"a",%progbits
 539              		.align	2
 540              		.set	.LANCHOR2,. + 0
 541              		.type	_ZL9isUpEvent, %object
 542              		.size	_ZL9isUpEvent, 6
 543              	_ZL9isUpEvent:
 544 0000 00       		.byte	0
 545 0001 01       		.byte	1
 546 0002 00       		.byte	0
 547 0003 01       		.byte	1
 548 0004 00       		.byte	0
 549 0005 01       		.byte	1
 550 0006 0000     		.section	.bss._ZL10pinStates2,"aw",%nobits
 551              		.align	2
 552              		.set	.LANCHOR9,. + 0
 553              		.type	_ZL10pinStates2, %object
 554              		.size	_ZL10pinStates2, 252
 555              	_ZL10pinStates2:
 556 0000 00000000 		.space	252
 556      00000000 
 556      00000000 
 556      00000000 
 556      00000000 
 557              		.section	.bss._ZL5waves,"aw",%nobits
 558              		.align	2
 559              		.set	.LANCHOR7,. + 0
 560              		.type	_ZL5waves, %object
 561              		.size	_ZL5waves, 12
 562              	_ZL5waves:
 563 0000 00000000 		.space	12
 563      00000000 
 563      00000000 
 564              		.ident	"GCC: (Sourcery CodeBench Lite 2013.11-24) 4.8.1"
ARM GAS  C:\Users\pc\AppData\Local\Temp\ccFXNpP7.s 			page 12

