ARM GAS  C:\Users\pc\AppData\Local\Temp\ccVNi9Zg.s 			page 1


   1              		.syntax unified
   2              		.cpu cortex-m4
   3              		.eabi_attribute 27, 3
   4              		.fpu fpv4-sp-d16
   5              		.eabi_attribute 20, 1
   6              		.eabi_attribute 21, 1
   7              		.eabi_attribute 23, 3
   8              		.eabi_attribute 24, 1
   9              		.eabi_attribute 25, 1
  10              		.eabi_attribute 26, 1
  11              		.eabi_attribute 30, 2
  12              		.eabi_attribute 34, 1
  13              		.eabi_attribute 18, 4
  14              		.thumb
  15              		.file	"trigger_bmw.cpp"
  16              		.section	.text._Z31configureMiniCooperTriggerShapeP12TriggerShape,"ax",%progbits
  17              		.align	2
  18              		.p2align 4,,15
  19              		.global	_Z31configureMiniCooperTriggerShapeP12TriggerShape
  20              		.thumb
  21              		.thumb_func
  22              		.type	_Z31configureMiniCooperTriggerShapeP12TriggerShape, %function
  23              	_Z31configureMiniCooperTriggerShapeP12TriggerShape:
  24              		@ args = 0, pretend = 0, frame = 0
  25              		@ frame_needed = 0, uses_anonymous_args = 0
  26 0000 38B5     		push	{r3, r4, r5, lr}
  27 0002 0221     		movs	r1, #2
  28 0004 2DED068B 		fstmfdd	sp!, {d8, d9, d10}
  29 0008 0122     		movs	r2, #1
  30 000a 0446     		mov	r4, r0
  31 000c FFF7FEFF 		bl	_ZN12TriggerShape5resetE16operation_mode_eb
  32 0010 46F6C911 		movw	r1, #27081
  33 0014 2046     		mov	r0, r4
  34 0016 C3F6BE71 		movt	r1, 16318
  35 001a 0122     		movs	r2, #1
  36 001c 0023     		movs	r3, #0
  37 001e FFF7FEFF 		bl	_ZN12TriggerShape8addEventEf15trigger_wheel_e15trigger_value_e
  38 0022 DFED6B8A 		flds	s17, .L15
  39 0026 9FED6B9A 		flds	s18, .L15+4
  40 002a 1725     		movs	r5, #23
  41              	.L3:
  42 002c 0122     		movs	r2, #1
  43 002e 1346     		mov	r3, r2
  44 0030 18EE901A 		fmrs	r1, s17
  45 0034 2046     		mov	r0, r4
  46 0036 FFF7FEFF 		bl	_ZN12TriggerShape8addEventEf15trigger_wheel_e15trigger_value_e
  47 003a 78EE898A 		fadds	s17, s17, s18
  48 003e 2046     		mov	r0, r4
  49 0040 18EE901A 		fmrs	r1, s17
  50 0044 0122     		movs	r2, #1
  51 0046 0023     		movs	r3, #0
  52 0048 FFF7FEFF 		bl	_ZN12TriggerShape8addEventEf15trigger_wheel_e15trigger_value_e
  53 004c 013D     		subs	r5, r5, #1
  54 004e DFED619A 		flds	s19, .L15+4
  55 0052 78EE898A 		fadds	s17, s17, s18
  56 0056 E9D1     		bne	.L3
  57 0058 9FED5F8A 		flds	s16, .L15+8
ARM GAS  C:\Users\pc\AppData\Local\Temp\ccVNi9Zg.s 			page 2


  58 005c 38EE88AA 		fadds	s20, s17, s16
  59 0060 0122     		movs	r2, #1
  60 0062 1346     		mov	r3, r2
  61 0064 1AEE101A 		fmrs	r1, s20
  62 0068 2046     		mov	r0, r4
  63 006a FFF7FEFF 		bl	_ZN12TriggerShape8addEventEf15trigger_wheel_e15trigger_value_e
  64 006e 3AEE088A 		fadds	s16, s20, s16
  65 0072 2B46     		mov	r3, r5
  66 0074 18EE101A 		fmrs	r1, s16
  67 0078 2046     		mov	r0, r4
  68 007a 0122     		movs	r2, #1
  69 007c FFF7FEFF 		bl	_ZN12TriggerShape8addEventEf15trigger_wheel_e15trigger_value_e
  70 0080 38EE298A 		fadds	s16, s16, s19
  71 0084 F0EE698A 		fcpys	s17, s19
  72 0088 2425     		movs	r5, #36
  73              	.L5:
  74 008a 0122     		movs	r2, #1
  75 008c 1346     		mov	r3, r2
  76 008e 18EE101A 		fmrs	r1, s16
  77 0092 2046     		mov	r0, r4
  78 0094 FFF7FEFF 		bl	_ZN12TriggerShape8addEventEf15trigger_wheel_e15trigger_value_e
  79 0098 38EE288A 		fadds	s16, s16, s17
  80 009c 2046     		mov	r0, r4
  81 009e 18EE101A 		fmrs	r1, s16
  82 00a2 0122     		movs	r2, #1
  83 00a4 0023     		movs	r3, #0
  84 00a6 FFF7FEFF 		bl	_ZN12TriggerShape8addEventEf15trigger_wheel_e15trigger_value_e
  85 00aa 013D     		subs	r5, r5, #1
  86 00ac 38EE288A 		fadds	s16, s16, s17
  87 00b0 EBD1     		bne	.L5
  88 00b2 0021     		movs	r1, #0
  89 00b4 2A46     		mov	r2, r5
  90 00b6 2046     		mov	r0, r4
  91 00b8 C4F2BC31 		movt	r1, 17340
  92 00bc 0123     		movs	r3, #1
  93 00be FFF7FEFF 		bl	_ZN12TriggerShape8addEventEf15trigger_wheel_e15trigger_value_e
  94 00c2 9FED449A 		flds	s18, .L15+4
  95 00c6 1525     		movs	r5, #21
  96              	.L7:
  97 00c8 0122     		movs	r2, #1
  98 00ca 1346     		mov	r3, r2
  99 00cc 18EE101A 		fmrs	r1, s16
 100 00d0 2046     		mov	r0, r4
 101 00d2 FFF7FEFF 		bl	_ZN12TriggerShape8addEventEf15trigger_wheel_e15trigger_value_e
 102 00d6 38EE098A 		fadds	s16, s16, s18
 103 00da 2046     		mov	r0, r4
 104 00dc 18EE101A 		fmrs	r1, s16
 105 00e0 0122     		movs	r2, #1
 106 00e2 0023     		movs	r3, #0
 107 00e4 FFF7FEFF 		bl	_ZN12TriggerShape8addEventEf15trigger_wheel_e15trigger_value_e
 108 00e8 013D     		subs	r5, r5, #1
 109 00ea DFED3A9A 		flds	s19, .L15+4
 110 00ee 38EE098A 		fadds	s16, s16, s18
 111 00f2 E9D1     		bne	.L7
 112 00f4 DFED397A 		flds	s15, .L15+12
 113 00f8 9FED379A 		flds	s18, .L15+8
 114 00fc 3AEE27AA 		fadds	s20, s20, s15
ARM GAS  C:\Users\pc\AppData\Local\Temp\ccVNi9Zg.s 			page 3


 115 0100 38EE098A 		fadds	s16, s16, s18
 116 0104 3AEE48AA 		fsubs	s20, s20, s16
 117 0108 1AEE100A 		fmrs	r0, s20
 118 010c FFF7FEFF 		bl	absF
 119 0110 DFED337A 		flds	s15, .L15+16
 120 0114 07EE100A 		fmsr	s14, r0
 121 0118 B4EEE77A 		fcmpes	s14, s15
 122 011c F1EE10FA 		fmstat
 123 0120 4CD5     		bpl	.L11
 124 0122 0122     		movs	r2, #1
 125 0124 1346     		mov	r3, r2
 126 0126 18EE101A 		fmrs	r1, s16
 127 012a 2046     		mov	r0, r4
 128 012c FFF7FEFF 		bl	_ZN12TriggerShape8addEventEf15trigger_wheel_e15trigger_value_e
 129 0130 38EE098A 		fadds	s16, s16, s18
 130 0134 2B46     		mov	r3, r5
 131 0136 18EE101A 		fmrs	r1, s16
 132 013a 2046     		mov	r0, r4
 133 013c 0122     		movs	r2, #1
 134 013e FFF7FEFF 		bl	_ZN12TriggerShape8addEventEf15trigger_wheel_e15trigger_value_e
 135 0142 38EE298A 		fadds	s16, s16, s19
 136 0146 F0EE698A 		fcpys	s17, s19
 137 014a 2125     		movs	r5, #33
 138              	.L10:
 139 014c 0122     		movs	r2, #1
 140 014e 1346     		mov	r3, r2
 141 0150 18EE101A 		fmrs	r1, s16
 142 0154 2046     		mov	r0, r4
 143 0156 FFF7FEFF 		bl	_ZN12TriggerShape8addEventEf15trigger_wheel_e15trigger_value_e
 144 015a 38EE288A 		fadds	s16, s16, s17
 145 015e 2046     		mov	r0, r4
 146 0160 18EE101A 		fmrs	r1, s16
 147 0164 0122     		movs	r2, #1
 148 0166 0023     		movs	r3, #0
 149 0168 FFF7FEFF 		bl	_ZN12TriggerShape8addEventEf15trigger_wheel_e15trigger_value_e
 150 016c 013D     		subs	r5, r5, #1
 151 016e 38EE288A 		fadds	s16, s16, s17
 152 0172 EBD1     		bne	.L10
 153 0174 DFED1B7A 		flds	s15, .L15+20
 154 0178 77EEC87A 		fsubs	s15, s15, s16
 155 017c 17EE900A 		fmrs	r0, s15
 156 0180 FFF7FEFF 		bl	absF
 157 0184 DFED167A 		flds	s15, .L15+16
 158 0188 07EE100A 		fmsr	s14, r0
 159 018c B4EEE77A 		fcmpes	s14, s15
 160 0190 F1EE10FA 		fmstat
 161 0194 12D5     		bpl	.L11
 162 0196 0122     		movs	r2, #1
 163 0198 1346     		mov	r3, r2
 164 019a 18EE101A 		fmrs	r1, s16
 165 019e 2046     		mov	r0, r4
 166 01a0 FFF7FEFF 		bl	_ZN12TriggerShape8addEventEf15trigger_wheel_e15trigger_value_e
 167 01a4 0021     		movs	r1, #0
 168 01a6 2046     		mov	r0, r4
 169 01a8 C4F23441 		movt	r1, 17460
 170 01ac 2A46     		mov	r2, r5
 171 01ae 2B46     		mov	r3, r5
ARM GAS  C:\Users\pc\AppData\Local\Temp\ccVNi9Zg.s 			page 4


 172 01b0 FFF7FEFF 		bl	_ZN12TriggerShape8addEventEf15trigger_wheel_e15trigger_value_e
 173 01b4 BDEC068B 		fldmfdd	sp!, {d8-d10}
 174 01b8 2570     		strb	r5, [r4]
 175 01ba 38BD     		pop	{r3, r4, r5, pc}
 176              	.L11:
 177 01bc BDEC068B 		fldmfdd	sp!, {d8-d10}
 178 01c0 40F20000 		movw	r0, #:lower16:.LC0
 179 01c4 C0F20000 		movt	r0, #:upper16:.LC0
 180 01c8 BDE83840 		pop	{r3, r4, r5, lr}
 181 01cc FFF7FEBF 		b	firmwareError
 182              	.L16:
 183              		.align	2
 184              	.L15:
 185 01d0 57CF8E40 		.word	1083101015
 186 01d4 C9693E40 		.word	1077832137
 187 01d8 57CF0E41 		.word	1091489623
 188 01dc 0000B443 		.word	1135869952
 189 01e0 CDCCCC3D 		.word	1036831949
 190 01e4 CBA03344 		.word	1144234187
 191              		.size	_Z31configureMiniCooperTriggerShapeP12TriggerShape, .-_Z31configureMiniCooperTriggerShapeP12
 192 01e8 AFF30080 		.section	.rodata.str1.4,"aMS",%progbits,1
 192      AFF30080 
 193              		.align	2
 194              	.LC0:
 195 0000 73686170 		.ascii	"shape constraint\000"
 195      6520636F 
 195      6E737472 
 195      61696E74 
 195      00
 196 0011 000000   		.ident	"GCC: (Sourcery CodeBench Lite 2013.11-24) 4.8.1"
ARM GAS  C:\Users\pc\AppData\Local\Temp\ccVNi9Zg.s 			page 5


DEFINED SYMBOLS
                            *ABS*:00000000 trigger_bmw.cpp
C:\Users\pc\AppData\Local\Temp\ccVNi9Zg.s:17     .text._Z31configureMiniCooperTriggerShapeP12TriggerShape:00000000 $t
C:\Users\pc\AppData\Local\Temp\ccVNi9Zg.s:23     .text._Z31configureMiniCooperTriggerShapeP12TriggerShape:00000000 _Z31configureMiniCooperTriggerShapeP12TriggerShape
C:\Users\pc\AppData\Local\Temp\ccVNi9Zg.s:194    .rodata.str1.4:00000000 .LC0
C:\Users\pc\AppData\Local\Temp\ccVNi9Zg.s:185    .text._Z31configureMiniCooperTriggerShapeP12TriggerShape:000001d0 $d
C:\Users\pc\AppData\Local\Temp\ccVNi9Zg.s:193    .rodata.str1.4:00000000 $d
C:\Users\pc\AppData\Local\Temp\ccVNi9Zg.s:192    .text._Z31configureMiniCooperTriggerShapeP12TriggerShape:000001e8 $t

UNDEFINED SYMBOLS
_ZN12TriggerShape5resetE16operation_mode_eb
_ZN12TriggerShape8addEventEf15trigger_wheel_e15trigger_value_e
absF
firmwareError
