ARM GAS  C:\Users\pc\AppData\Local\Temp\ccFvdfLX.s 			page 1


   1              		.syntax unified
   2              		.cpu cortex-m4
   3              		.eabi_attribute 27, 3
   4              		.fpu fpv4-sp-d16
   5              		.eabi_attribute 20, 1
   6              		.eabi_attribute 21, 1
   7              		.eabi_attribute 23, 3
   8              		.eabi_attribute 24, 1
   9              		.eabi_attribute 25, 1
  10              		.eabi_attribute 26, 1
  11              		.eabi_attribute 30, 2
  12              		.eabi_attribute 34, 1
  13              		.eabi_attribute 18, 4
  14              		.thumb
  15              		.file	"trigger_mazda.cpp"
  16              		.section	.text._Z27initializeMazdaMiataNaShapeP12TriggerShape,"ax",%progbits
  17              		.align	2
  18              		.p2align 4,,15
  19              		.global	_Z27initializeMazdaMiataNaShapeP12TriggerShape
  20              		.thumb
  21              		.thumb_func
  22              		.type	_Z27initializeMazdaMiataNaShapeP12TriggerShape, %function
  23              	_Z27initializeMazdaMiataNaShapeP12TriggerShape:
  24              		@ args = 0, pretend = 0, frame = 0
  25              		@ frame_needed = 0, uses_anonymous_args = 0
  26 0000 70B5     		push	{r4, r5, r6, lr}
  27 0002 0122     		movs	r2, #1
  28 0004 0221     		movs	r1, #2
  29 0006 0446     		mov	r4, r0
  30 0008 FFF7FEFF 		bl	_ZN12TriggerShape5resetE16operation_mode_eb
  31 000c 4FF4D551 		mov	r1, #6816
  32 0010 2046     		mov	r0, r4
  33 0012 C3F6BF71 		movt	r1, 16319
  34 0016 0125     		movs	r5, #1
  35 0018 0026     		movs	r6, #0
  36 001a FFF7FEFF 		bl	_ZN12TriggerShape28setTriggerSynchronizationGapEf
  37 001e 4DF27471 		movw	r1, #55156
  38 0022 2046     		mov	r0, r4
  39 0024 2A46     		mov	r2, r5
  40 0026 2B46     		mov	r3, r5
  41 0028 84F8646B 		strb	r6, [r4, #2916]
  42 002c 2570     		strb	r5, [r4]
  43 002e C4F25321 		movt	r1, 16979
  44 0032 FFF7FEFF 		bl	_ZN12TriggerShape8addEventEf15trigger_wheel_e15trigger_value_e
  45 0036 44F29C51 		movw	r1, #17820
  46 003a 2046     		mov	r0, r4
  47 003c 2A46     		mov	r2, r5
  48 003e 3346     		mov	r3, r6
  49 0040 C4F2F521 		movt	r1, 17141
  50 0044 FFF7FEFF 		bl	_ZN12TriggerShape8addEventEf15trigger_wheel_e15trigger_value_e
  51 0048 4EF2A451 		movw	r1, #58788
  52 004c 2046     		mov	r0, r4
  53 004e 3246     		mov	r2, r6
  54 0050 2B46     		mov	r3, r5
  55 0052 C4F25831 		movt	r1, 17240
  56 0056 FFF7FEFF 		bl	_ZN12TriggerShape8addEventEf15trigger_wheel_e15trigger_value_e
  57 005a 4AF2DB31 		movw	r1, #41947
ARM GAS  C:\Users\pc\AppData\Local\Temp\ccFvdfLX.s 			page 2


  58 005e 2046     		mov	r0, r4
  59 0060 2A46     		mov	r2, r5
  60 0062 2B46     		mov	r3, r5
  61 0064 C4F26831 		movt	r1, 17256
  62 0068 FFF7FEFF 		bl	_ZN12TriggerShape8addEventEf15trigger_wheel_e15trigger_value_e
  63 006c 46F6EC01 		movw	r1, #26860
  64 0070 2046     		mov	r0, r4
  65 0072 3246     		mov	r2, r6
  66 0074 3346     		mov	r3, r6
  67 0076 C4F29031 		movt	r1, 17296
  68 007a FFF7FEFF 		bl	_ZN12TriggerShape8addEventEf15trigger_wheel_e15trigger_value_e
  69 007e 45F2BB21 		movw	r1, #21179
  70 0082 2046     		mov	r0, r4
  71 0084 2A46     		mov	r2, r5
  72 0086 3346     		mov	r3, r6
  73 0088 C4F29731 		movt	r1, 17303
  74 008c FFF7FEFF 		bl	_ZN12TriggerShape8addEventEf15trigger_wheel_e15trigger_value_e
  75 0090 43F65A11 		movw	r1, #14682
  76 0094 2046     		mov	r0, r4
  77 0096 2A46     		mov	r2, r5
  78 0098 2B46     		mov	r3, r5
  79 009a C4F2CE31 		movt	r1, 17358
  80 009e FFF7FEFF 		bl	_ZN12TriggerShape8addEventEf15trigger_wheel_e15trigger_value_e
  81 00a2 46F68A01 		movw	r1, #26762
  82 00a6 2046     		mov	r0, r4
  83 00a8 2A46     		mov	r2, r5
  84 00aa 3346     		mov	r3, r6
  85 00ac C4F2F131 		movt	r1, 17393
  86 00b0 FFF7FEFF 		bl	_ZN12TriggerShape8addEventEf15trigger_wheel_e15trigger_value_e
  87 00b4 44F24621 		movw	r1, #16966
  88 00b8 2046     		mov	r0, r4
  89 00ba 3246     		mov	r2, r6
  90 00bc 2B46     		mov	r3, r5
  91 00be C4F21041 		movt	r1, 17424
  92 00c2 FFF7FEFF 		bl	_ZN12TriggerShape8addEventEf15trigger_wheel_e15trigger_value_e
  93 00c6 43F63301 		movw	r1, #14387
  94 00ca 2046     		mov	r0, r4
  95 00cc 2A46     		mov	r2, r5
  96 00ce 2B46     		mov	r3, r5
  97 00d0 C4F21441 		movt	r1, 17428
  98 00d4 FFF7FEFF 		bl	_ZN12TriggerShape8addEventEf15trigger_wheel_e15trigger_value_e
  99 00d8 4BF69511 		movw	r1, #47509
 100 00dc 2046     		mov	r0, r4
 101 00de 2A46     		mov	r2, r5
 102 00e0 3346     		mov	r3, r6
 103 00e2 C4F22541 		movt	r1, 17445
 104 00e6 FFF7FEFF 		bl	_ZN12TriggerShape8addEventEf15trigger_wheel_e15trigger_value_e
 105 00ea 0021     		movs	r1, #0
 106 00ec 2046     		mov	r0, r4
 107 00ee 3246     		mov	r2, r6
 108 00f0 3346     		mov	r3, r6
 109 00f2 C4F23441 		movt	r1, 17460
 110 00f6 BDE87040 		pop	{r4, r5, r6, lr}
 111 00fa FFF7FEBF 		b	_ZN12TriggerShape8addEventEf15trigger_wheel_e15trigger_value_e
 112              		.size	_Z27initializeMazdaMiataNaShapeP12TriggerShape, .-_Z27initializeMazdaMiataNaShapeP12TriggerS
 113 00fe 00BF     		.section	.text._Z27initializeMazdaMiataNbShapeP12TriggerShape,"ax",%progbits
 114              		.align	2
ARM GAS  C:\Users\pc\AppData\Local\Temp\ccFvdfLX.s 			page 3


 115              		.p2align 4,,15
 116              		.global	_Z27initializeMazdaMiataNbShapeP12TriggerShape
 117              		.thumb
 118              		.thumb_func
 119              		.type	_Z27initializeMazdaMiataNbShapeP12TriggerShape, %function
 120              	_Z27initializeMazdaMiataNbShapeP12TriggerShape:
 121              		@ args = 0, pretend = 0, frame = 0
 122              		@ frame_needed = 0, uses_anonymous_args = 0
 123 0000 70B5     		push	{r4, r5, r6, lr}
 124 0002 44F2AE71 		movw	r1, #18350
 125 0006 0446     		mov	r4, r0
 126 0008 0025     		movs	r5, #0
 127 000a C3F6E151 		movt	r1, 15841
 128 000e FFF7FEFF 		bl	_ZN12TriggerShape28setTriggerSynchronizationGapEf
 129 0012 2046     		mov	r0, r4
 130 0014 84F8645B 		strb	r5, [r4, #2916]
 131 0018 0221     		movs	r1, #2
 132 001a 0122     		movs	r2, #1
 133 001c FFF7FEFF 		bl	_ZN12TriggerShape5resetE16operation_mode_eb
 134 0020 0021     		movs	r1, #0
 135 0022 2046     		mov	r0, r4
 136 0024 2A46     		mov	r2, r5
 137 0026 C4F2A011 		movt	r1, 16800
 138 002a 0123     		movs	r3, #1
 139 002c FFF7FEFF 		bl	_ZN12TriggerShape8addEventEf15trigger_wheel_e15trigger_value_e
 140 0030 0021     		movs	r1, #0
 141 0032 2046     		mov	r0, r4
 142 0034 2B46     		mov	r3, r5
 143 0036 C4F28421 		movt	r1, 17028
 144 003a 0122     		movs	r2, #1
 145 003c FFF7FEFF 		bl	_ZN12TriggerShape8addEventEf15trigger_wheel_e15trigger_value_e
 146 0040 0122     		movs	r2, #1
 147 0042 0021     		movs	r1, #0
 148 0044 2046     		mov	r0, r4
 149 0046 1346     		mov	r3, r2
 150 0048 C4F28C21 		movt	r1, 17036
 151 004c FFF7FEFF 		bl	_ZN12TriggerShape8addEventEf15trigger_wheel_e15trigger_value_e
 152 0050 0021     		movs	r1, #0
 153 0052 2046     		mov	r0, r4
 154 0054 2B46     		mov	r3, r5
 155 0056 C4F20831 		movt	r1, 17160
 156 005a 0122     		movs	r2, #1
 157 005c FFF7FEFF 		bl	_ZN12TriggerShape8addEventEf15trigger_wheel_e15trigger_value_e
 158 0060 0122     		movs	r2, #1
 159 0062 0021     		movs	r1, #0
 160 0064 2046     		mov	r0, r4
 161 0066 1346     		mov	r3, r2
 162 0068 C4F20C31 		movt	r1, 17164
 163 006c FFF7FEFF 		bl	_ZN12TriggerShape8addEventEf15trigger_wheel_e15trigger_value_e
 164 0070 0021     		movs	r1, #0
 165 0072 2046     		mov	r0, r4
 166 0074 2B46     		mov	r3, r5
 167 0076 C4F27631 		movt	r1, 17270
 168 007a 0122     		movs	r2, #1
 169 007c FFF7FEFF 		bl	_ZN12TriggerShape8addEventEf15trigger_wheel_e15trigger_value_e
 170 0080 0122     		movs	r2, #1
 171 0082 0021     		movs	r1, #0
ARM GAS  C:\Users\pc\AppData\Local\Temp\ccFvdfLX.s 			page 4


 172 0084 2046     		mov	r0, r4
 173 0086 1346     		mov	r3, r2
 174 0088 C4F27A31 		movt	r1, 17274
 175 008c FFF7FEFF 		bl	_ZN12TriggerShape8addEventEf15trigger_wheel_e15trigger_value_e
 176 0090 0021     		movs	r1, #0
 177 0092 2046     		mov	r0, r4
 178 0094 2B46     		mov	r3, r5
 179 0096 C4F29E31 		movt	r1, 17310
 180 009a 0122     		movs	r2, #1
 181 009c FFF7FEFF 		bl	_ZN12TriggerShape8addEventEf15trigger_wheel_e15trigger_value_e
 182 00a0 0122     		movs	r2, #1
 183 00a2 0021     		movs	r1, #0
 184 00a4 2046     		mov	r0, r4
 185 00a6 1346     		mov	r3, r2
 186 00a8 C4F2A031 		movt	r1, 17312
 187 00ac FFF7FEFF 		bl	_ZN12TriggerShape8addEventEf15trigger_wheel_e15trigger_value_e
 188 00b0 0021     		movs	r1, #0
 189 00b2 2046     		mov	r0, r4
 190 00b4 2A46     		mov	r2, r5
 191 00b6 2B46     		mov	r3, r5
 192 00b8 C4F2AA31 		movt	r1, 17322
 193 00bc FFF7FEFF 		bl	_ZN12TriggerShape8addEventEf15trigger_wheel_e15trigger_value_e
 194 00c0 0021     		movs	r1, #0
 195 00c2 2046     		mov	r0, r4
 196 00c4 2A46     		mov	r2, r5
 197 00c6 C4F2B431 		movt	r1, 17332
 198 00ca 0123     		movs	r3, #1
 199 00cc FFF7FEFF 		bl	_ZN12TriggerShape8addEventEf15trigger_wheel_e15trigger_value_e
 200 00d0 0021     		movs	r1, #0
 201 00d2 2046     		mov	r0, r4
 202 00d4 2A46     		mov	r2, r5
 203 00d6 2B46     		mov	r3, r5
 204 00d8 C4F2BE31 		movt	r1, 17342
 205 00dc FFF7FEFF 		bl	_ZN12TriggerShape8addEventEf15trigger_wheel_e15trigger_value_e
 206 00e0 0021     		movs	r1, #0
 207 00e2 2046     		mov	r0, r4
 208 00e4 2A46     		mov	r2, r5
 209 00e6 C4F2C831 		movt	r1, 17352
 210 00ea 0123     		movs	r3, #1
 211 00ec FFF7FEFF 		bl	_ZN12TriggerShape8addEventEf15trigger_wheel_e15trigger_value_e
 212 00f0 0021     		movs	r1, #0
 213 00f2 2046     		mov	r0, r4
 214 00f4 2B46     		mov	r3, r5
 215 00f6 C4F2D531 		movt	r1, 17365
 216 00fa 0122     		movs	r2, #1
 217 00fc FFF7FEFF 		bl	_ZN12TriggerShape8addEventEf15trigger_wheel_e15trigger_value_e
 218 0100 0122     		movs	r2, #1
 219 0102 0021     		movs	r1, #0
 220 0104 2046     		mov	r0, r4
 221 0106 1346     		mov	r3, r2
 222 0108 C4F2D731 		movt	r1, 17367
 223 010c FFF7FEFF 		bl	_ZN12TriggerShape8addEventEf15trigger_wheel_e15trigger_value_e
 224 0110 0021     		movs	r1, #0
 225 0112 2046     		mov	r0, r4
 226 0114 2B46     		mov	r3, r5
 227 0116 C4F2F831 		movt	r1, 17400
 228 011a 0122     		movs	r2, #1
ARM GAS  C:\Users\pc\AppData\Local\Temp\ccFvdfLX.s 			page 5


 229 011c FFF7FEFF 		bl	_ZN12TriggerShape8addEventEf15trigger_wheel_e15trigger_value_e
 230 0120 0122     		movs	r2, #1
 231 0122 0021     		movs	r1, #0
 232 0124 2046     		mov	r0, r4
 233 0126 1346     		mov	r3, r2
 234 0128 C4F2FA31 		movt	r1, 17402
 235 012c FFF7FEFF 		bl	_ZN12TriggerShape8addEventEf15trigger_wheel_e15trigger_value_e
 236 0130 4FF40041 		mov	r1, #32768
 237 0134 2046     		mov	r0, r4
 238 0136 2B46     		mov	r3, r5
 239 0138 C4F21741 		movt	r1, 17431
 240 013c 0122     		movs	r2, #1
 241 013e FFF7FEFF 		bl	_ZN12TriggerShape8addEventEf15trigger_wheel_e15trigger_value_e
 242 0142 0122     		movs	r2, #1
 243 0144 4FF40041 		mov	r1, #32768
 244 0148 2046     		mov	r0, r4
 245 014a 1346     		mov	r3, r2
 246 014c C4F21841 		movt	r1, 17432
 247 0150 FFF7FEFF 		bl	_ZN12TriggerShape8addEventEf15trigger_wheel_e15trigger_value_e
 248 0154 0021     		movs	r1, #0
 249 0156 2046     		mov	r0, r4
 250 0158 2B46     		mov	r3, r5
 251 015a C4F22941 		movt	r1, 17449
 252 015e 0122     		movs	r2, #1
 253 0160 FFF7FEFF 		bl	_ZN12TriggerShape8addEventEf15trigger_wheel_e15trigger_value_e
 254 0164 0122     		movs	r2, #1
 255 0166 0021     		movs	r1, #0
 256 0168 2046     		mov	r0, r4
 257 016a 1346     		mov	r3, r2
 258 016c C4F22A41 		movt	r1, 17450
 259 0170 FFF7FEFF 		bl	_ZN12TriggerShape8addEventEf15trigger_wheel_e15trigger_value_e
 260 0174 0021     		movs	r1, #0
 261 0176 2046     		mov	r0, r4
 262 0178 2A46     		mov	r2, r5
 263 017a 2B46     		mov	r3, r5
 264 017c C4F23441 		movt	r1, 17460
 265 0180 BDE87040 		pop	{r4, r5, r6, lr}
 266 0184 FFF7FEBF 		b	_ZN12TriggerShape8addEventEf15trigger_wheel_e15trigger_value_e
 267              		.size	_Z27initializeMazdaMiataNbShapeP12TriggerShape, .-_Z27initializeMazdaMiataNbShapeP12TriggerS
 268 0188 AFF30080 		.section	.text._Z25configureMazdaProtegeSOHCP12TriggerShape,"ax",%progbits
 268      AFF30080 
 269              		.align	2
 270              		.p2align 4,,15
 271              		.global	_Z25configureMazdaProtegeSOHCP12TriggerShape
 272              		.thumb
 273              		.thumb_func
 274              		.type	_Z25configureMazdaProtegeSOHCP12TriggerShape, %function
 275              	_Z25configureMazdaProtegeSOHCP12TriggerShape:
 276              		@ args = 0, pretend = 0, frame = 0
 277              		@ frame_needed = 0, uses_anonymous_args = 0
 278 0000 10B5     		push	{r4, lr}
 279 0002 0221     		movs	r1, #2
 280 0004 0022     		movs	r2, #0
 281 0006 0446     		mov	r4, r0
 282 0008 FFF7FEFF 		bl	_ZN12TriggerShape5resetE16operation_mode_eb
 283 000c 41F27B41 		movw	r1, #5243
 284 0010 2046     		mov	r0, r4
ARM GAS  C:\Users\pc\AppData\Local\Temp\ccFvdfLX.s 			page 6


 285 0012 C4F2E221 		movt	r1, 17122
 286 0016 0022     		movs	r2, #0
 287 0018 0123     		movs	r3, #1
 288 001a FFF7FEFF 		bl	_ZN12TriggerShape8addEventEf15trigger_wheel_e15trigger_value_e
 289 001e 0022     		movs	r2, #0
 290 0020 0021     		movs	r1, #0
 291 0022 1346     		mov	r3, r2
 292 0024 2046     		mov	r0, r4
 293 0026 C4F23431 		movt	r1, 17204
 294 002a FFF7FEFF 		bl	_ZN12TriggerShape8addEventEf15trigger_wheel_e15trigger_value_e
 295 002e 48F21F51 		movw	r1, #34079
 296 0032 2046     		mov	r0, r4
 297 0034 C4F29231 		movt	r1, 17298
 298 0038 0022     		movs	r2, #0
 299 003a 0123     		movs	r3, #1
 300 003c FFF7FEFF 		bl	_ZN12TriggerShape8addEventEf15trigger_wheel_e15trigger_value_e
 301 0040 0022     		movs	r2, #0
 302 0042 0021     		movs	r1, #0
 303 0044 1346     		mov	r3, r2
 304 0046 2046     		mov	r0, r4
 305 0048 C4F2B431 		movt	r1, 17332
 306 004c FFF7FEFF 		bl	_ZN12TriggerShape8addEventEf15trigger_wheel_e15trigger_value_e
 307 0050 48F21F51 		movw	r1, #34079
 308 0054 2046     		mov	r0, r4
 309 0056 C4F2EC31 		movt	r1, 17388
 310 005a 0022     		movs	r2, #0
 311 005c 0123     		movs	r3, #1
 312 005e FFF7FEFF 		bl	_ZN12TriggerShape8addEventEf15trigger_wheel_e15trigger_value_e
 313 0062 0022     		movs	r2, #0
 314 0064 0021     		movs	r1, #0
 315 0066 1346     		mov	r3, r2
 316 0068 2046     		mov	r0, r4
 317 006a C4F20741 		movt	r1, 17415
 318 006e FFF7FEFF 		bl	_ZN12TriggerShape8addEventEf15trigger_wheel_e15trigger_value_e
 319 0072 44F28F21 		movw	r1, #17039
 320 0076 2046     		mov	r0, r4
 321 0078 C4F22341 		movt	r1, 17443
 322 007c 0022     		movs	r2, #0
 323 007e 0123     		movs	r3, #1
 324 0080 FFF7FEFF 		bl	_ZN12TriggerShape8addEventEf15trigger_wheel_e15trigger_value_e
 325 0084 0022     		movs	r2, #0
 326 0086 0021     		movs	r1, #0
 327 0088 1346     		mov	r3, r2
 328 008a 2046     		mov	r0, r4
 329 008c C4F23441 		movt	r1, 17460
 330 0090 FFF7FEFF 		bl	_ZN12TriggerShape8addEventEf15trigger_wheel_e15trigger_value_e
 331 0094 0023     		movs	r3, #0
 332 0096 2370     		strb	r3, [r4]
 333 0098 10BD     		pop	{r4, pc}
 334              		.size	_Z25configureMazdaProtegeSOHCP12TriggerShape, .-_Z25configureMazdaProtegeSOHCP12TriggerShape
 335 009a 00BFAFF3 		.section	.text._Z23configureMazdaProtegeLxP12TriggerShape,"ax",%progbits
 335      0080
 336              		.align	2
 337              		.p2align 4,,15
 338              		.global	_Z23configureMazdaProtegeLxP12TriggerShape
 339              		.thumb
 340              		.thumb_func
ARM GAS  C:\Users\pc\AppData\Local\Temp\ccFvdfLX.s 			page 7


 341              		.type	_Z23configureMazdaProtegeLxP12TriggerShape, %function
 342              	_Z23configureMazdaProtegeLxP12TriggerShape:
 343              		@ args = 0, pretend = 0, frame = 0
 344              		@ frame_needed = 0, uses_anonymous_args = 0
 345 0000 10B5     		push	{r4, lr}
 346 0002 0221     		movs	r1, #2
 347 0004 0122     		movs	r2, #1
 348 0006 0446     		mov	r4, r0
 349 0008 FFF7FEFF 		bl	_ZN12TriggerShape5resetE16operation_mode_eb
 350 000c 4AF69401 		movw	r1, #43156
 351 0010 2046     		mov	r0, r4
 352 0012 C4F2BE21 		movt	r1, 17086
 353 0016 0022     		movs	r2, #0
 354 0018 0123     		movs	r3, #1
 355 001a FFF7FEFF 		bl	_ZN12TriggerShape8addEventEf15trigger_wheel_e15trigger_value_e
 356 001e 0122     		movs	r2, #1
 357 0020 46F67211 		movw	r1, #26994
 358 0024 1346     		mov	r3, r2
 359 0026 2046     		mov	r0, r4
 360 0028 C4F2DC21 		movt	r1, 17116
 361 002c FFF7FEFF 		bl	_ZN12TriggerShape8addEventEf15trigger_wheel_e15trigger_value_e
 362 0030 40F2D751 		movw	r1, #1495
 363 0034 2046     		mov	r0, r4
 364 0036 C4F23231 		movt	r1, 17202
 365 003a 0122     		movs	r2, #1
 366 003c 0023     		movs	r3, #0
 367 003e FFF7FEFF 		bl	_ZN12TriggerShape8addEventEf15trigger_wheel_e15trigger_value_e
 368 0042 0022     		movs	r2, #0
 369 0044 47F2CB21 		movw	r1, #29387
 370 0048 1346     		mov	r3, r2
 371 004a 2046     		mov	r0, r4
 372 004c C4F26831 		movt	r1, 17256
 373 0050 FFF7FEFF 		bl	_ZN12TriggerShape8addEventEf15trigger_wheel_e15trigger_value_e
 374 0054 0122     		movs	r2, #1
 375 0056 4DF69221 		movw	r1, #55954
 376 005a 1346     		mov	r3, r2
 377 005c 2046     		mov	r0, r4
 378 005e C4F28F31 		movt	r1, 17295
 379 0062 FFF7FEFF 		bl	_ZN12TriggerShape8addEventEf15trigger_wheel_e15trigger_value_e
 380 0066 47F25E11 		movw	r1, #29022
 381 006a 2046     		mov	r0, r4
 382 006c C4F2B231 		movt	r1, 17330
 383 0070 0122     		movs	r2, #1
 384 0072 0023     		movs	r3, #0
 385 0074 FFF7FEFF 		bl	_ZN12TriggerShape8addEventEf15trigger_wheel_e15trigger_value_e
 386 0078 0122     		movs	r2, #1
 387 007a 43F2E711 		movw	r1, #12775
 388 007e 1346     		mov	r3, r2
 389 0080 2046     		mov	r0, r4
 390 0082 C4F2EA31 		movt	r1, 17386
 391 0086 FFF7FEFF 		bl	_ZN12TriggerShape8addEventEf15trigger_wheel_e15trigger_value_e
 392 008a 4BF24651 		movw	r1, #46406
 393 008e 2046     		mov	r0, r4
 394 0090 C4F20641 		movt	r1, 17414
 395 0094 0122     		movs	r2, #1
 396 0096 0023     		movs	r3, #0
 397 0098 FFF7FEFF 		bl	_ZN12TriggerShape8addEventEf15trigger_wheel_e15trigger_value_e
ARM GAS  C:\Users\pc\AppData\Local\Temp\ccFvdfLX.s 			page 8


 398 009c 0122     		movs	r2, #1
 399 009e 4AF67631 		movw	r1, #43894
 400 00a2 1346     		mov	r3, r2
 401 00a4 2046     		mov	r0, r4
 402 00a6 C4F22241 		movt	r1, 17442
 403 00aa FFF7FEFF 		bl	_ZN12TriggerShape8addEventEf15trigger_wheel_e15trigger_value_e
 404 00ae 0021     		movs	r1, #0
 405 00b0 C4F23441 		movt	r1, 17460
 406 00b4 0122     		movs	r2, #1
 407 00b6 0023     		movs	r3, #0
 408 00b8 2046     		mov	r0, r4
 409 00ba FFF7FEFF 		bl	_ZN12TriggerShape8addEventEf15trigger_wheel_e15trigger_value_e
 410 00be 41F68161 		movw	r1, #7809
 411 00c2 04F53662 		add	r2, r4, #2912
 412 00c6 C4F20931 		movt	r1, 17161
 413 00ca 0023     		movs	r3, #0
 414 00cc 1160     		str	r1, [r2]	@ float
 415 00ce 2370     		strb	r3, [r4]
 416 00d0 10BD     		pop	{r4, pc}
 417              		.size	_Z23configureMazdaProtegeLxP12TriggerShape, .-_Z23configureMazdaProtegeLxP12TriggerShape
 418 00d2 00BFAFF3 		.ident	"GCC: (Sourcery CodeBench Lite 2013.11-24) 4.8.1"
 418      0080AFF3 
 418      0080AFF3 
 418      0080
ARM GAS  C:\Users\pc\AppData\Local\Temp\ccFvdfLX.s 			page 9

