ARM GAS  C:\Users\pc\AppData\Local\Temp\cc9c3Esz.s 			page 1


   1              		.syntax unified
   2              		.cpu cortex-m4
   3              		.eabi_attribute 27, 3
   4              		.fpu fpv4-sp-d16
   5              		.eabi_attribute 20, 1
   6              		.eabi_attribute 21, 1
   7              		.eabi_attribute 23, 3
   8              		.eabi_attribute 24, 1
   9              		.eabi_attribute 25, 1
  10              		.eabi_attribute 26, 1
  11              		.eabi_attribute 30, 2
  12              		.eabi_attribute 34, 1
  13              		.eabi_attribute 18, 4
  14              		.thumb
  15              		.file	"trigger_gm.cpp"
  16              		.section	.text._Z23configureGmTriggerShapeP12TriggerShape,"ax",%progbits
  17              		.align	2
  18              		.p2align 4,,15
  19              		.global	_Z23configureGmTriggerShapeP12TriggerShape
  20              		.thumb
  21              		.thumb_func
  22              		.type	_Z23configureGmTriggerShapeP12TriggerShape, %function
  23              	_Z23configureGmTriggerShapeP12TriggerShape:
  24              		@ args = 0, pretend = 0, frame = 0
  25              		@ frame_needed = 0, uses_anonymous_args = 0
  26 0000 10B5     		push	{r4, lr}
  27 0002 0221     		movs	r1, #2
  28 0004 0022     		movs	r2, #0
  29 0006 0446     		mov	r4, r0
  30 0008 FFF7FEFF 		bl	_ZN12TriggerShape5resetE16operation_mode_eb
  31 000c 0021     		movs	r1, #0
  32 000e 2046     		mov	r0, r4
  33 0010 C4F2DC21 		movt	r1, 17116
  34 0014 0022     		movs	r2, #0
  35 0016 0123     		movs	r3, #1
  36 0018 FFF7FEFF 		bl	_ZN12TriggerShape8addEventEf15trigger_wheel_e15trigger_value_e
  37 001c 0022     		movs	r2, #0
  38 001e 0021     		movs	r1, #0
  39 0020 2046     		mov	r0, r4
  40 0022 1346     		mov	r3, r2
  41 0024 C4F2F021 		movt	r1, 17136
  42 0028 FFF7FEFF 		bl	_ZN12TriggerShape8addEventEf15trigger_wheel_e15trigger_value_e
  43 002c 0021     		movs	r1, #0
  44 002e 2046     		mov	r0, r4
  45 0030 C4F26631 		movt	r1, 17254
  46 0034 0022     		movs	r2, #0
  47 0036 0123     		movs	r3, #1
  48 0038 FFF7FEFF 		bl	_ZN12TriggerShape8addEventEf15trigger_wheel_e15trigger_value_e
  49 003c 0022     		movs	r2, #0
  50 003e 0021     		movs	r1, #0
  51 0040 2046     		mov	r0, r4
  52 0042 1346     		mov	r3, r2
  53 0044 C4F27031 		movt	r1, 17264
  54 0048 FFF7FEFF 		bl	_ZN12TriggerShape8addEventEf15trigger_wheel_e15trigger_value_e
  55 004c 0021     		movs	r1, #0
  56 004e 2046     		mov	r0, r4
  57 0050 C4F2AF31 		movt	r1, 17327
ARM GAS  C:\Users\pc\AppData\Local\Temp\cc9c3Esz.s 			page 2


  58 0054 0022     		movs	r2, #0
  59 0056 0123     		movs	r3, #1
  60 0058 FFF7FEFF 		bl	_ZN12TriggerShape8addEventEf15trigger_wheel_e15trigger_value_e
  61 005c 0022     		movs	r2, #0
  62 005e 0021     		movs	r1, #0
  63 0060 2046     		mov	r0, r4
  64 0062 1346     		mov	r3, r2
  65 0064 C4F2B431 		movt	r1, 17332
  66 0068 FFF7FEFF 		bl	_ZN12TriggerShape8addEventEf15trigger_wheel_e15trigger_value_e
  67 006c 0021     		movs	r1, #0
  68 006e 2046     		mov	r0, r4
  69 0070 C4F2EB31 		movt	r1, 17387
  70 0074 0022     		movs	r2, #0
  71 0076 0123     		movs	r3, #1
  72 0078 FFF7FEFF 		bl	_ZN12TriggerShape8addEventEf15trigger_wheel_e15trigger_value_e
  73 007c 0022     		movs	r2, #0
  74 007e 0021     		movs	r1, #0
  75 0080 2046     		mov	r0, r4
  76 0082 1346     		mov	r3, r2
  77 0084 C4F2F031 		movt	r1, 17392
  78 0088 FFF7FEFF 		bl	_ZN12TriggerShape8addEventEf15trigger_wheel_e15trigger_value_e
  79 008c 4FF40041 		mov	r1, #32768
  80 0090 2046     		mov	r0, r4
  81 0092 C4F21341 		movt	r1, 17427
  82 0096 0022     		movs	r2, #0
  83 0098 0123     		movs	r3, #1
  84 009a FFF7FEFF 		bl	_ZN12TriggerShape8addEventEf15trigger_wheel_e15trigger_value_e
  85 009e 0022     		movs	r2, #0
  86 00a0 0021     		movs	r1, #0
  87 00a2 2046     		mov	r0, r4
  88 00a4 1346     		mov	r3, r2
  89 00a6 C4F21641 		movt	r1, 17430
  90 00aa FFF7FEFF 		bl	_ZN12TriggerShape8addEventEf15trigger_wheel_e15trigger_value_e
  91 00ae 4FF40041 		mov	r1, #32768
  92 00b2 2046     		mov	r0, r4
  93 00b4 C4F22C41 		movt	r1, 17452
  94 00b8 0022     		movs	r2, #0
  95 00ba 0123     		movs	r3, #1
  96 00bc FFF7FEFF 		bl	_ZN12TriggerShape8addEventEf15trigger_wheel_e15trigger_value_e
  97 00c0 0022     		movs	r2, #0
  98 00c2 0021     		movs	r1, #0
  99 00c4 2046     		mov	r0, r4
 100 00c6 1346     		mov	r3, r2
 101 00c8 C4F22F41 		movt	r1, 17455
 102 00cc FFF7FEFF 		bl	_ZN12TriggerShape8addEventEf15trigger_wheel_e15trigger_value_e
 103 00d0 4FF40041 		mov	r1, #32768
 104 00d4 2046     		mov	r0, r4
 105 00d6 C4F23141 		movt	r1, 17457
 106 00da 0022     		movs	r2, #0
 107 00dc 0123     		movs	r3, #1
 108 00de FFF7FEFF 		bl	_ZN12TriggerShape8addEventEf15trigger_wheel_e15trigger_value_e
 109 00e2 0022     		movs	r2, #0
 110 00e4 0021     		movs	r1, #0
 111 00e6 2046     		mov	r0, r4
 112 00e8 1346     		mov	r3, r2
 113 00ea C4F23441 		movt	r1, 17460
 114 00ee BDE81040 		pop	{r4, lr}
ARM GAS  C:\Users\pc\AppData\Local\Temp\cc9c3Esz.s 			page 3


 115 00f2 FFF7FEBF 		b	_ZN12TriggerShape8addEventEf15trigger_wheel_e15trigger_value_e
 116              		.size	_Z23configureGmTriggerShapeP12TriggerShape, .-_Z23configureGmTriggerShapeP12TriggerShape
 117 00f6 00BFAFF3 		.ident	"GCC: (Sourcery CodeBench Lite 2013.11-24) 4.8.1"
 117      0080AFF3 
 117      0080
ARM GAS  C:\Users\pc\AppData\Local\Temp\cc9c3Esz.s 			page 4


DEFINED SYMBOLS
                            *ABS*:00000000 trigger_gm.cpp
C:\Users\pc\AppData\Local\Temp\cc9c3Esz.s:17     .text._Z23configureGmTriggerShapeP12TriggerShape:00000000 $t
C:\Users\pc\AppData\Local\Temp\cc9c3Esz.s:23     .text._Z23configureGmTriggerShapeP12TriggerShape:00000000 _Z23configureGmTriggerShapeP12TriggerShape

UNDEFINED SYMBOLS
_ZN12TriggerShape5resetE16operation_mode_eb
_ZN12TriggerShape8addEventEf15trigger_wheel_e15trigger_value_e
