ARM GAS  C:\Users\pc\AppData\Local\Temp\cc0pSwRc.s 			page 1


   1              		.syntax unified
   2              		.cpu cortex-m4
   3              		.eabi_attribute 27, 3
   4              		.fpu fpv4-sp-d16
   5              		.eabi_attribute 20, 1
   6              		.eabi_attribute 21, 1
   7              		.eabi_attribute 23, 3
   8              		.eabi_attribute 24, 1
   9              		.eabi_attribute 25, 1
  10              		.eabi_attribute 26, 1
  11              		.eabi_attribute 30, 2
  12              		.eabi_attribute 34, 1
  13              		.eabi_attribute 18, 4
  14              		.thumb
  15              		.file	"tunerstudio_io.cpp"
  16              		.section	.text._Z11startTsPortv,"ax",%progbits
  17              		.align	2
  18              		.p2align 4,,15
  19              		.global	_Z11startTsPortv
  20              		.thumb
  21              		.thumb_func
  22              		.type	_Z11startTsPortv, %function
  23              	_Z11startTsPortv:
  24              		@ args = 0, pretend = 0, frame = 0
  25              		@ frame_needed = 0, uses_anonymous_args = 0
  26 0000 10B5     		push	{r4, lr}
  27 0002 FFF7FEFF 		bl	_Z16isSerialOverUartv
  28 0006 0028     		cmp	r0, #0
  29 0008 3AD1     		bne	.L5
  30 000a 40F20004 		movw	r4, #:lower16:boardConfiguration
  31 000e C0F20004 		movt	r4, #:upper16:boardConfiguration
  32 0012 2368     		ldr	r3, [r4]
  33 0014 93F88131 		ldrb	r3, [r3, #385]	@ zero_extendqisi2
  34 0018 DB07     		lsls	r3, r3, #31
  35 001a 00D4     		bmi	.L6
  36 001c 10BD     		pop	{r4, pc}
  37              	.L6:
  38 001e 40F20000 		movw	r0, #:lower16:.LC1
  39 0022 C0F20000 		movt	r0, #:upper16:.LC1
  40 0026 FFF7FEFF 		bl	print
  41 002a 40F20000 		movw	r0, #:lower16:.LC2
  42 002e 4FF40061 		mov	r1, #2048
  43 0032 C0F20000 		movt	r0, #:upper16:.LC2
  44 0036 C4F20201 		movt	r1, 16386
  45 003a 0B22     		movs	r2, #11
  46 003c 40F28233 		movw	r3, #898
  47 0040 FFF7FEFF 		bl	_Z12mySetPadModePKcP12GPIO_TypeDefmm
  48 0044 40F20000 		movw	r0, #:lower16:.LC3
  49 0048 4FF40061 		mov	r1, #2048
  50 004c C0F20000 		movt	r0, #:upper16:.LC3
  51 0050 C4F20201 		movt	r1, 16386
  52 0054 0A22     		movs	r2, #10
  53 0056 40F28233 		movw	r3, #898
  54 005a FFF7FEFF 		bl	_Z12mySetPadModePKcP12GPIO_TypeDefmm
  55 005e 2268     		ldr	r2, [r4]
  56 0060 40F20003 		movw	r3, #:lower16:.LANCHOR0
  57 0064 C0F20003 		movt	r3, #:upper16:.LANCHOR0
ARM GAS  C:\Users\pc\AppData\Local\Temp\cc0pSwRc.s 			page 2


  58 0068 D2F84C21 		ldr	r2, [r2, #332]
  59 006c 40F20000 		movw	r0, #:lower16:SD3
  60 0070 1946     		mov	r1, r3
  61 0072 C0F20000 		movt	r0, #:upper16:SD3
  62 0076 BDE81040 		pop	{r4, lr}
  63 007a 1A60     		str	r2, [r3]
  64 007c FFF7FEBF 		b	sdStart
  65              	.L5:
  66 0080 40F20000 		movw	r0, #:lower16:.LC0
  67 0084 C0F20000 		movt	r0, #:upper16:.LC0
  68 0088 FFF7FEFF 		bl	print
  69 008c BDE81040 		pop	{r4, lr}
  70 0090 FFF7FEBF 		b	usb_serial_start
  71              		.size	_Z11startTsPortv, .-_Z11startTsPortv
  72 0094 AFF30080 		.section	.text._Z17getTsSerialDevicev,"ax",%progbits
  72      AFF30080 
  72      AFF30080 
  73              		.align	2
  74              		.p2align 4,,15
  75              		.global	_Z17getTsSerialDevicev
  76              		.thumb
  77              		.thumb_func
  78              		.type	_Z17getTsSerialDevicev, %function
  79              	_Z17getTsSerialDevicev:
  80              		@ args = 0, pretend = 0, frame = 0
  81              		@ frame_needed = 0, uses_anonymous_args = 0
  82 0000 08B5     		push	{r3, lr}
  83 0002 FFF7FEFF 		bl	_Z16isSerialOverUartv
  84 0006 40F20002 		movw	r2, #:lower16:SD3
  85 000a 40F20003 		movw	r3, #:lower16:SDU1
  86 000e C0F20002 		movt	r2, #:upper16:SD3
  87 0012 C0F20003 		movt	r3, #:upper16:SDU1
  88 0016 0028     		cmp	r0, #0
  89 0018 0CBF     		ite	eq
  90 001a 1046     		moveq	r0, r2
  91 001c 1846     		movne	r0, r3
  92 001e 08BD     		pop	{r3, pc}
  93              		.size	_Z17getTsSerialDevicev, .-_Z17getTsSerialDevicev
  94              		.section	.text._Z20tunerStudioWriteDataP12ts_channel_sPKhi,"ax",%progbits
  95              		.align	2
  96              		.p2align 4,,15
  97              		.global	_Z20tunerStudioWriteDataP12ts_channel_sPKhi
  98              		.thumb
  99              		.thumb_func
 100              		.type	_Z20tunerStudioWriteDataP12ts_channel_sPKhi, %function
 101              	_Z20tunerStudioWriteDataP12ts_channel_sPKhi:
 102              		@ args = 0, pretend = 0, frame = 0
 103              		@ frame_needed = 0, uses_anonymous_args = 0
 104 0000 40F20003 		movw	r3, #:lower16:rlist
 105 0004 C0F20003 		movt	r3, #:upper16:rlist
 106 0008 70B5     		push	{r4, r5, r6, lr}
 107 000a 0546     		mov	r5, r0
 108 000c 9869     		ldr	r0, [r3, #24]
 109 000e 0E46     		mov	r6, r1
 110 0010 1446     		mov	r4, r2
 111 0012 FFF7FEFF 		bl	getRemainingStack
 112 0016 4028     		cmp	r0, #64
ARM GAS  C:\Users\pc\AppData\Local\Temp\cc0pSwRc.s 			page 3


 113 0018 16DD     		ble	.L13
 114 001a 2868     		ldr	r0, [r5]
 115 001c 0368     		ldr	r3, [r0]
 116 001e 2246     		mov	r2, r4
 117 0020 3146     		mov	r1, r6
 118 0022 1B68     		ldr	r3, [r3]
 119 0024 9847     		blx	r3
 120 0026 8442     		cmp	r4, r0
 121 0028 0246     		mov	r2, r0
 122 002a 0CD0     		beq	.L10
 123 002c 40F20000 		movw	r0, #:lower16:tsLogger
 124 0030 40F20001 		movw	r1, #:lower16:.LC5
 125 0034 2346     		mov	r3, r4
 126 0036 C0F20000 		movt	r0, #:upper16:tsLogger
 127 003a C0F20001 		movt	r1, #:upper16:.LC5
 128 003e BDE87040 		pop	{r4, r5, r6, lr}
 129 0042 FFF7FEBF 		b	scheduleMsg
 130              	.L10:
 131 0046 70BD     		pop	{r4, r5, r6, pc}
 132              	.L13:
 133 0048 40F20000 		movw	r0, #:lower16:.LC4
 134 004c C0F20000 		movt	r0, #:upper16:.LC4
 135 0050 BDE87040 		pop	{r4, r5, r6, lr}
 136 0054 FFF7FEBF 		b	firmwareError
 137              		.size	_Z20tunerStudioWriteDataP12ts_channel_sPKhi, .-_Z20tunerStudioWriteDataP12ts_channel_sPKhi
 138 0058 AFF30080 		.section	.text._Z25tunerStudioWriteCrcPacketP12ts_channel_shPKvt,"ax",%progbits
 138      AFF30080 
 139              		.align	2
 140              		.p2align 4,,15
 141              		.global	_Z25tunerStudioWriteCrcPacketP12ts_channel_shPKvt
 142              		.thumb
 143              		.thumb_func
 144              		.type	_Z25tunerStudioWriteCrcPacketP12ts_channel_shPKvt, %function
 145              	_Z25tunerStudioWriteCrcPacketP12ts_channel_shPKvt:
 146              		@ args = 0, pretend = 0, frame = 0
 147              		@ frame_needed = 0, uses_anonymous_args = 0
 148 0000 F8B5     		push	{r3, r4, r5, r6, r7, lr}
 149 0002 5E1C     		adds	r6, r3, #1
 150 0004 4468     		ldr	r4, [r0, #4]
 151 0006 1D46     		mov	r5, r3
 152 0008 3302     		lsls	r3, r6, #8
 153 000a 43EA1623 		orr	r3, r3, r6, lsr #8
 154 000e 0746     		mov	r7, r0
 155 0010 2380     		strh	r3, [r4]	@ movhi
 156 0012 A170     		strb	r1, [r4, #2]
 157 0014 25B1     		cbz	r5, .L15
 158 0016 1146     		mov	r1, r2
 159 0018 E01C     		adds	r0, r4, #3
 160 001a 2A46     		mov	r2, r5
 161 001c FFF7FEFF 		bl	memcpy
 162              	.L15:
 163 0020 3146     		mov	r1, r6
 164 0022 A01C     		adds	r0, r4, #2
 165 0024 FFF7FEFF 		bl	crc32
 166 0028 6319     		adds	r3, r4, r5
 167 002a 00BA     		rev	r0, r0
 168 002c C3F80300 		str	r0, [r3, #3]
ARM GAS  C:\Users\pc\AppData\Local\Temp\cc0pSwRc.s 			page 4


 169 0030 2146     		mov	r1, r4
 170 0032 3846     		mov	r0, r7
 171 0034 EA1D     		adds	r2, r5, #7
 172 0036 BDE8F840 		pop	{r3, r4, r5, r6, r7, lr}
 173 003a FFF7FEBF 		b	_Z20tunerStudioWriteDataP12ts_channel_sPKhi
 174              		.size	_Z25tunerStudioWriteCrcPacketP12ts_channel_shPKvt, .-_Z25tunerStudioWriteCrcPacketP12ts_chan
 175 003e 00BF     		.section	.text._Z14tsSendResponseP12ts_channel_s20ts_response_format_ePKhi,"ax",%progbits
 176              		.align	2
 177              		.p2align 4,,15
 178              		.global	_Z14tsSendResponseP12ts_channel_s20ts_response_format_ePKhi
 179              		.thumb
 180              		.thumb_func
 181              		.type	_Z14tsSendResponseP12ts_channel_s20ts_response_format_ePKhi, %function
 182              	_Z14tsSendResponseP12ts_channel_s20ts_response_format_ePKhi:
 183              		@ args = 0, pretend = 0, frame = 0
 184              		@ frame_needed = 0, uses_anonymous_args = 0
 185              		@ link register save eliminated.
 186 0000 0129     		cmp	r1, #1
 187 0002 10B4     		push	{r4}
 188 0004 0AD0     		beq	.L21
 189 0006 002B     		cmp	r3, #0
 190 0008 05DD     		ble	.L18
 191 000a 1146     		mov	r1, r2
 192 000c 5DF8044B 		ldr	r4, [sp], #4
 193 0010 1A46     		mov	r2, r3
 194 0012 FFF7FEBF 		b	_Z20tunerStudioWriteDataP12ts_channel_sPKhi
 195              	.L18:
 196 0016 5DF8044B 		ldr	r4, [sp], #4
 197 001a 7047     		bx	lr
 198              	.L21:
 199 001c 9BB2     		uxth	r3, r3
 200 001e 0021     		movs	r1, #0
 201 0020 5DF8044B 		ldr	r4, [sp], #4
 202 0024 FFF7FEBF 		b	_Z25tunerStudioWriteCrcPacketP12ts_channel_shPKvt
 203              		.size	_Z14tsSendResponseP12ts_channel_s20ts_response_format_ePKhi, .-_Z14tsSendResponseP12ts_chann
 204 0028 AFF30080 		.section	.data._ZL14tsSerialConfig,"aw",%progbits
 204      AFF30080 
 205              		.align	2
 206              		.set	.LANCHOR0,. + 0
 207              		.type	_ZL14tsSerialConfig, %object
 208              		.size	_ZL14tsSerialConfig, 12
 209              	_ZL14tsSerialConfig:
 210 0000 00000000 		.word	0
 211 0004 0000     		.short	0
 212 0006 0040     		.short	16384
 213 0008 0000     		.short	0
 214 000a 0000     		.space	2
 215              		.section	.rodata.str1.4,"aMS",%progbits,1
 216              		.align	2
 217              	.LC0:
 218 0000 54756E65 		.ascii	"TunerStudio over USB serial\000"
 218      72537475 
 218      64696F20 
 218      6F766572 
 218      20555342 
 219              	.LC1:
 220 001c 54756E65 		.ascii	"TunerStudio over USART\000"
ARM GAS  C:\Users\pc\AppData\Local\Temp\cc0pSwRc.s 			page 5


 220      72537475 
 220      64696F20 
 220      6F766572 
 220      20555341 
 221 0033 00       		.space	1
 222              	.LC2:
 223 0034 74756E65 		.ascii	"tunerstudio rx\000"
 223      72737475 
 223      64696F20 
 223      727800
 224 0043 00       		.space	1
 225              	.LC3:
 226 0044 74756E65 		.ascii	"tunerstudio tx\000"
 226      72737475 
 226      64696F20 
 226      747800
 227 0053 00       		.space	1
 228              	.LC4:
 229 0054 74756E65 		.ascii	"tunerStudioWriteData\000"
 229      72537475 
 229      64696F57 
 229      72697465 
 229      44617461 
 230 0069 000000   		.space	3
 231              	.LC5:
 232 006c 21212120 		.ascii	"!!! NOT ACCEPTED %d out of %d !!!\000"
 232      4E4F5420 
 232      41434345 
 232      50544544 
 232      20256420 
 233 008e 0000     		.ident	"GCC: (Sourcery CodeBench Lite 2013.11-24) 4.8.1"
ARM GAS  C:\Users\pc\AppData\Local\Temp\cc0pSwRc.s 			page 6

