ARM GAS  C:\Users\pc\AppData\Local\Temp\ccTtWWKQ.s 			page 1


   1              		.syntax unified
   2              		.cpu cortex-m4
   3              		.eabi_attribute 27, 3
   4              		.fpu fpv4-sp-d16
   5              		.eabi_attribute 20, 1
   6              		.eabi_attribute 21, 1
   7              		.eabi_attribute 23, 3
   8              		.eabi_attribute 24, 1
   9              		.eabi_attribute 25, 1
  10              		.eabi_attribute 26, 1
  11              		.eabi_attribute 30, 2
  12              		.eabi_attribute 34, 1
  13              		.eabi_attribute 18, 4
  14              		.thumb
  15              		.file	"tunerstudio.cpp"
  16              		.section	.text._ZL18printErrorCountersv,"ax",%progbits
  17              		.align	2
  18              		.p2align 4,,15
  19              		.thumb
  20              		.thumb_func
  21              		.type	_ZL18printErrorCountersv, %function
  22              	_ZL18printErrorCountersv:
  23              		@ args = 0, pretend = 0, frame = 0
  24              		@ frame_needed = 0, uses_anonymous_args = 0
  25 0000 F0B5     		push	{r4, r5, r6, r7, lr}
  26 0002 40F20004 		movw	r4, #:lower16:.LANCHOR1
  27 0006 C0F20004 		movt	r4, #:upper16:.LANCHOR1
  28 000a 87B0     		sub	sp, sp, #28
  29 000c 216A     		ldr	r1, [r4, #32]
  30 000e 2768     		ldr	r7, [r4]
  31 0010 6668     		ldr	r6, [r4, #4]
  32 0012 A068     		ldr	r0, [r4, #8]
  33 0014 E268     		ldr	r2, [r4, #12]
  34 0016 636A     		ldr	r3, [r4, #36]
  35 0018 0091     		str	r1, [sp]
  36 001a 40F20005 		movw	r5, #:lower16:.LANCHOR0
  37 001e C0F20005 		movt	r5, #:upper16:.LANCHOR0
  38 0022 40F20001 		movw	r1, #:lower16:.LC0
  39 0026 0390     		str	r0, [sp, #12]
  40 0028 0492     		str	r2, [sp, #16]
  41 002a 2846     		mov	r0, r5
  42 002c 0197     		str	r7, [sp, #4]
  43 002e 0296     		str	r6, [sp, #8]
  44 0030 C0F20001 		movt	r1, #:upper16:.LC0
  45 0034 C422     		movs	r2, #196
  46 0036 FFF7FEFF 		bl	scheduleMsg
  47 003a 40F20001 		movw	r1, #:lower16:.LANCHOR2
  48 003e C0F20001 		movt	r1, #:upper16:.LANCHOR2
  49 0042 6269     		ldr	r2, [r4, #20]
  50 0044 E369     		ldr	r3, [r4, #28]
  51 0046 2069     		ldr	r0, [r4, #16]
  52 0048 B1F90040 		ldrsh	r4, [r1]
  53 004c 0090     		str	r0, [sp]
  54 004e 40F20001 		movw	r1, #:lower16:.LC1
  55 0052 2846     		mov	r0, r5
  56 0054 0194     		str	r4, [sp, #4]
  57 0056 C0F20001 		movt	r1, #:upper16:.LC1
ARM GAS  C:\Users\pc\AppData\Local\Temp\ccTtWWKQ.s 			page 2


  58 005a FFF7FEFF 		bl	scheduleMsg
  59 005e 07B0     		add	sp, sp, #28
  60              		@ sp needed
  61 0060 F0BD     		pop	{r4, r5, r6, r7, pc}
  62              		.size	_ZL18printErrorCountersv, .-_ZL18printErrorCountersv
  63 0062 00BFAFF3 		.section	.text._Z12printTsStatsv,"ax",%progbits
  63      0080AFF3 
  63      0080AFF3 
  63      0080
  64              		.align	2
  65              		.p2align 4,,15
  66              		.global	_Z12printTsStatsv
  67              		.thumb
  68              		.thumb_func
  69              		.type	_Z12printTsStatsv, %function
  70              	_Z12printTsStatsv:
  71              		@ args = 0, pretend = 0, frame = 0
  72              		@ frame_needed = 0, uses_anonymous_args = 0
  73 0000 10B5     		push	{r4, lr}
  74 0002 84B0     		sub	sp, sp, #16
  75 0004 FFF7FEFF 		bl	_Z16isSerialOverUartv
  76 0008 18BB     		cbnz	r0, .L3
  77 000a 4FF40060 		mov	r0, #2048
  78 000e C4F20200 		movt	r0, 16386
  79 0012 FFF7FEFF 		bl	_Z8portnameP12GPIO_TypeDef
  80 0016 0446     		mov	r4, r0
  81 0018 4FF40060 		mov	r0, #2048
  82 001c C4F20200 		movt	r0, 16386
  83 0020 FFF7FEFF 		bl	_Z8portnameP12GPIO_TypeDef
  84 0024 40F20003 		movw	r3, #:lower16:boardConfiguration
  85 0028 C0F20003 		movt	r3, #:upper16:boardConfiguration
  86 002c 0A22     		movs	r2, #10
  87 002e 1B68     		ldr	r3, [r3]
  88 0030 8DE80500 		stmia	sp, {r0, r2}
  89 0034 D3F84C31 		ldr	r3, [r3, #332]
  90 0038 40F20000 		movw	r0, #:lower16:.LANCHOR0
  91 003c 40F20001 		movw	r1, #:lower16:.LC2
  92 0040 0293     		str	r3, [sp, #8]
  93 0042 2246     		mov	r2, r4
  94 0044 C0F20000 		movt	r0, #:upper16:.LANCHOR0
  95 0048 C0F20001 		movt	r1, #:upper16:.LC2
  96 004c 0B23     		movs	r3, #11
  97 004e FFF7FEFF 		bl	scheduleMsg
  98              	.L3:
  99 0052 04B0     		add	sp, sp, #16
 100              		@ sp needed
 101 0054 BDE81040 		pop	{r4, lr}
 102 0058 FFF7FEBF 		b	_ZL18printErrorCountersv
 103              		.size	_Z12printTsStatsv, .-_Z12printTsStatsv
 104 005c AFF30080 		.section	.text._ZL10setTsSpeedi,"ax",%progbits
 105              		.align	2
 106              		.p2align 4,,15
 107              		.thumb
 108              		.thumb_func
 109              		.type	_ZL10setTsSpeedi, %function
 110              	_ZL10setTsSpeedi:
 111              		@ args = 0, pretend = 0, frame = 0
ARM GAS  C:\Users\pc\AppData\Local\Temp\ccTtWWKQ.s 			page 3


 112              		@ frame_needed = 0, uses_anonymous_args = 0
 113              		@ link register save eliminated.
 114 0000 40F20003 		movw	r3, #:lower16:boardConfiguration
 115 0004 C0F20003 		movt	r3, #:upper16:boardConfiguration
 116 0008 1B68     		ldr	r3, [r3]
 117 000a C3F84C01 		str	r0, [r3, #332]
 118 000e FFF7FEBF 		b	_Z12printTsStatsv
 119              		.size	_ZL10setTsSpeedi, .-_ZL10setTsSpeedi
 120 0012 00BFAFF3 		.section	.text._ZL7resetTsv,"ax",%progbits
 120      0080AFF3 
 120      0080AFF3 
 120      0080
 121              		.align	2
 122              		.p2align 4,,15
 123              		.thumb
 124              		.thumb_func
 125              		.type	_ZL7resetTsv, %function
 126              	_ZL7resetTsv:
 127              		@ args = 0, pretend = 0, frame = 0
 128              		@ frame_needed = 0, uses_anonymous_args = 0
 129              		@ link register save eliminated.
 130 0000 40F20001 		movw	r1, #:lower16:.LANCHOR1
 131 0004 C0F20001 		movt	r1, #:upper16:.LANCHOR1
 132 0008 0B46     		mov	r3, r1
 133 000a 0022     		movs	r2, #0
 134 000c 43F8042B 		str	r2, [r3], #4
 135 0010 0433     		adds	r3, r3, #4
 136 0012 4A60     		str	r2, [r1, #4]
 137 0014 43F8042B 		str	r2, [r3], #4
 138 0018 43F8042B 		str	r2, [r3], #4
 139 001c 43F8042B 		str	r2, [r3], #4
 140 0020 43F8042B 		str	r2, [r3], #4
 141 0024 43F8042B 		str	r2, [r3], #4
 142 0028 43F8042B 		str	r2, [r3], #4
 143 002c 43F8042B 		str	r2, [r3], #4
 144 0030 1A60     		str	r2, [r3]
 145 0032 7047     		bx	lr
 146              		.size	_ZL7resetTsv, .-_ZL7resetTsv
 147 0034 AFF30080 		.section	.text._Z11yellowMagiciii.part.1,"ax",%progbits
 147      AFF30080 
 147      AFF30080 
 148              		.align	2
 149              		.p2align 4,,15
 150              		.thumb
 151              		.thumb_func
 152              		.type	_Z11yellowMagiciii.part.1, %function
 153              	_Z11yellowMagiciii.part.1:
 154              		@ args = 0, pretend = 0, frame = 0
 155              		@ frame_needed = 0, uses_anonymous_args = 0
 156 0000 58B5     		push	{r3, r4, r6, lr}
 157 0002 0446     		mov	r4, r0
 158 0004 0E46     		mov	r6, r1
 159 0006 40F20000 		movw	r0, #:lower16:.LANCHOR0
 160 000a 40F20001 		movw	r1, #:lower16:.LC3
 161 000e 2246     		mov	r2, r4
 162 0010 3346     		mov	r3, r6
 163 0012 C0F20000 		movt	r0, #:upper16:.LANCHOR0
ARM GAS  C:\Users\pc\AppData\Local\Temp\ccTtWWKQ.s 			page 4


 164 0016 C0F20001 		movt	r1, #:upper16:.LC3
 165 001a FFF7FEFF 		bl	scheduleMsg
 166 001e 40F20000 		movw	r0, #:lower16:engineConfiguration
 167 0022 C0F20000 		movt	r0, #:upper16:engineConfiguration
 168 0026 40F20001 		movw	r1, #:lower16:.LANCHOR3
 169 002a 0068     		ldr	r0, [r0]
 170 002c C0F20001 		movt	r1, #:upper16:.LANCHOR3
 171 0030 3246     		mov	r2, r6
 172 0032 2044     		add	r0, r0, r4
 173 0034 2144     		add	r1, r1, r4
 174 0036 BDE85840 		pop	{r3, r4, r6, lr}
 175 003a FFF7FEBF 		b	memcpy
 176              		.size	_Z11yellowMagiciii.part.1, .-_Z11yellowMagiciii.part.1
 177 003e 00BF     		.section	.text._Z16tunerStudioDebugPKc,"ax",%progbits
 178              		.align	2
 179              		.p2align 4,,15
 180              		.global	_Z16tunerStudioDebugPKc
 181              		.thumb
 182              		.thumb_func
 183              		.type	_Z16tunerStudioDebugPKc, %function
 184              	_Z16tunerStudioDebugPKc:
 185              		@ args = 0, pretend = 0, frame = 0
 186              		@ frame_needed = 0, uses_anonymous_args = 0
 187              		@ link register save eliminated.
 188 0000 0246     		mov	r2, r0
 189 0002 40F20001 		movw	r1, #:lower16:.LC4
 190 0006 40F20000 		movw	r0, #:lower16:.LANCHOR0
 191 000a C0F20000 		movt	r0, #:upper16:.LANCHOR0
 192 000e C0F20001 		movt	r1, #:upper16:.LC4
 193 0012 FFF7FEBF 		b	scheduleMsg
 194              		.size	_Z16tunerStudioDebugPKc, .-_Z16tunerStudioDebugPKc
 195 0016 00BFAFF3 		.section	.text._Z18getWorkingPageAddri,"ax",%progbits
 195      0080AFF3 
 195      0080
 196              		.align	2
 197              		.p2align 4,,15
 198              		.global	_Z18getWorkingPageAddri
 199              		.thumb
 200              		.thumb_func
 201              		.type	_Z18getWorkingPageAddri, %function
 202              	_Z18getWorkingPageAddri:
 203              		@ args = 0, pretend = 0, frame = 0
 204              		@ frame_needed = 0, uses_anonymous_args = 0
 205              		@ link register save eliminated.
 206 0000 40F20003 		movw	r3, #:lower16:.LANCHOR3
 207 0004 C0F20003 		movt	r3, #:upper16:.LANCHOR3
 208 0008 0028     		cmp	r0, #0
 209 000a 0CBF     		ite	eq
 210 000c 1846     		moveq	r0, r3
 211 000e 0020     		movne	r0, #0
 212 0010 7047     		bx	lr
 213              		.size	_Z18getWorkingPageAddri, .-_Z18getWorkingPageAddri
 214 0012 00BFAFF3 		.section	.text._Z22getTunerStudioPageSizei,"ax",%progbits
 214      0080AFF3 
 214      0080AFF3 
 214      0080
 215              		.align	2
ARM GAS  C:\Users\pc\AppData\Local\Temp\ccTtWWKQ.s 			page 5


 216              		.p2align 4,,15
 217              		.global	_Z22getTunerStudioPageSizei
 218              		.thumb
 219              		.thumb_func
 220              		.type	_Z22getTunerStudioPageSizei, %function
 221              	_Z22getTunerStudioPageSizei:
 222              		@ args = 0, pretend = 0, frame = 0
 223              		@ frame_needed = 0, uses_anonymous_args = 0
 224              		@ link register save eliminated.
 225 0000 43F6B833 		movw	r3, #15288
 226 0004 0028     		cmp	r0, #0
 227 0006 0CBF     		ite	eq
 228 0008 1846     		moveq	r0, r3
 229 000a 0020     		movne	r0, #0
 230 000c 7047     		bx	lr
 231              		.size	_Z22getTunerStudioPageSizei, .-_Z22getTunerStudioPageSizei
 232 000e 00BF     		.section	.text._Z23handlePageSelectCommandP12ts_channel_s20ts_response_format_et,"ax",%progbits
 233              		.align	2
 234              		.p2align 4,,15
 235              		.global	_Z23handlePageSelectCommandP12ts_channel_s20ts_response_format_et
 236              		.thumb
 237              		.thumb_func
 238              		.type	_Z23handlePageSelectCommandP12ts_channel_s20ts_response_format_et, %function
 239              	_Z23handlePageSelectCommandP12ts_channel_s20ts_response_format_et:
 240              		@ args = 0, pretend = 0, frame = 0
 241              		@ frame_needed = 0, uses_anonymous_args = 0
 242 0000 40F20003 		movw	r3, #:lower16:.LANCHOR1
 243 0004 C0F20003 		movt	r3, #:upper16:.LANCHOR1
 244 0008 2DE9F041 		push	{r4, r5, r6, r7, r8, lr}
 245 000c 1E69     		ldr	r6, [r3, #16]
 246 000e 40F20004 		movw	r4, #:lower16:.LANCHOR2
 247 0012 8046     		mov	r8, r0
 248 0014 0F46     		mov	r7, r1
 249 0016 C0F20004 		movt	r4, #:upper16:.LANCHOR2
 250 001a 40F20000 		movw	r0, #:lower16:.LANCHOR0
 251 001e 40F20001 		movw	r1, #:lower16:.LC5
 252 0022 1546     		mov	r5, r2
 253 0024 0136     		adds	r6, r6, #1
 254 0026 12B2     		sxth	r2, r2
 255 0028 C0F20000 		movt	r0, #:upper16:.LANCHOR0
 256 002c C0F20001 		movt	r1, #:upper16:.LC5
 257 0030 1E61     		str	r6, [r3, #16]
 258 0032 2580     		strh	r5, [r4]	@ movhi
 259 0034 FFF7FEFF 		bl	scheduleMsg
 260 0038 0022     		movs	r2, #0
 261 003a 4046     		mov	r0, r8
 262 003c 3946     		mov	r1, r7
 263 003e 1346     		mov	r3, r2
 264 0040 BDE8F041 		pop	{r4, r5, r6, r7, r8, lr}
 265 0044 FFF7FEBF 		b	_Z14tsSendResponseP12ts_channel_s20ts_response_format_ePKhi
 266              		.size	_Z23handlePageSelectCommandP12ts_channel_s20ts_response_format_et, .-_Z23handlePageSelectCom
 267 0048 AFF30080 		.section	.text._Z11yellowMagiciii,"ax",%progbits
 267      AFF30080 
 268              		.align	2
 269              		.p2align 4,,15
 270              		.global	_Z11yellowMagiciii
 271              		.thumb
ARM GAS  C:\Users\pc\AppData\Local\Temp\ccTtWWKQ.s 			page 6


 272              		.thumb_func
 273              		.type	_Z11yellowMagiciii, %function
 274              	_Z11yellowMagiciii:
 275              		@ args = 0, pretend = 0, frame = 0
 276              		@ frame_needed = 0, uses_anonymous_args = 0
 277              		@ link register save eliminated.
 278 0000 41F63803 		movw	r3, #6200
 279 0004 9942     		cmp	r1, r3
 280 0006 00DC     		bgt	.L20
 281 0008 7047     		bx	lr
 282              	.L20:
 283 000a 0846     		mov	r0, r1
 284 000c 1146     		mov	r1, r2
 285 000e FFF7FEBF 		b	_Z11yellowMagiciii.part.1
 286              		.size	_Z11yellowMagiciii, .-_Z11yellowMagiciii
 287 0012 00BFAFF3 		.section	.text._Z16handleCrc32CheckP12ts_channel_s20ts_response_format_ettt,"ax",%progbits
 287      0080AFF3 
 287      0080AFF3 
 287      0080
 288              		.align	2
 289              		.p2align 4,,15
 290              		.global	_Z16handleCrc32CheckP12ts_channel_s20ts_response_format_ettt
 291              		.thumb
 292              		.thumb_func
 293              		.type	_Z16handleCrc32CheckP12ts_channel_s20ts_response_format_ettt, %function
 294              	_Z16handleCrc32CheckP12ts_channel_s20ts_response_format_ettt:
 295              		@ args = 4, pretend = 0, frame = 8
 296              		@ frame_needed = 0, uses_anonymous_args = 0
 297 0000 2DE9F043 		push	{r4, r5, r6, r7, r8, r9, lr}
 298 0004 40F20004 		movw	r4, #:lower16:.LANCHOR1
 299 0008 C0F20004 		movt	r4, #:upper16:.LANCHOR1
 300 000c 85B0     		sub	sp, sp, #20
 301 000e A569     		ldr	r5, [r4, #24]
 302 0010 0135     		adds	r5, r5, #1
 303 0012 A561     		str	r5, [r4, #24]
 304 0014 43F6B834 		movw	r4, #15288
 305 0018 0746     		mov	r7, r0
 306 001a 0E46     		mov	r6, r1
 307 001c 2546     		mov	r5, r4
 308 001e 0AB1     		cbz	r2, .L22
 309 0020 0024     		movs	r4, #0
 310 0022 2546     		mov	r5, r4
 311              	.L22:
 312 0024 40F20000 		movw	r0, #:lower16:.LANCHOR0
 313 0028 40F20001 		movw	r1, #:lower16:.LC6
 314 002c 0095     		str	r5, [sp]
 315 002e C0F20000 		movt	r0, #:upper16:.LANCHOR0
 316 0032 C0F20001 		movt	r1, #:upper16:.LC6
 317 0036 FFF7FEFF 		bl	scheduleMsg
 318 003a 40F20000 		movw	r0, #:lower16:.LANCHOR3
 319 003e 2146     		mov	r1, r4
 320 0040 C0F20000 		movt	r0, #:upper16:.LANCHOR3
 321 0044 FFF7FEFF 		bl	crc32
 322 0048 8146     		mov	r9, r0
 323 004a 40F20000 		movw	r0, #:lower16:.LANCHOR3
 324 004e 2146     		mov	r1, r4
 325 0050 C0F20000 		movt	r0, #:upper16:.LANCHOR3
ARM GAS  C:\Users\pc\AppData\Local\Temp\ccTtWWKQ.s 			page 7


 326 0054 FFF7FEFF 		bl	crc32
 327 0058 8046     		mov	r8, r0
 328 005a 40F20000 		movw	r0, #:lower16:.LANCHOR3
 329 005e 2146     		mov	r1, r4
 330 0060 C0F20000 		movt	r0, #:upper16:.LANCHOR3
 331 0064 FFF7FEFF 		bl	crc32
 332 0068 0546     		mov	r5, r0
 333 006a 40F20000 		movw	r0, #:lower16:.LANCHOR3
 334 006e 2146     		mov	r1, r4
 335 0070 C0F20000 		movt	r0, #:upper16:.LANCHOR3
 336 0074 FFF7FEFF 		bl	crc32
 337 0078 4FEA1969 		lsr	r9, r9, #24
 338 007c 4FEA0828 		lsl	r8, r8, #8
 339 0080 49EA0060 		orr	r0, r9, r0, lsl #24
 340 0084 08F47F08 		and	r8, r8, #16711680
 341 0088 2D0A     		lsrs	r5, r5, #8
 342 008a 40EA0802 		orr	r2, r0, r8
 343 008e 04AC     		add	r4, sp, #16
 344 0090 05F47F45 		and	r5, r5, #65280
 345 0094 2A43     		orrs	r2, r2, r5
 346 0096 44F8042D 		str	r2, [r4, #-4]!
 347 009a 40F20000 		movw	r0, #:lower16:.LANCHOR0
 348 009e 40F20001 		movw	r1, #:lower16:.LC7
 349 00a2 C0F20000 		movt	r0, #:upper16:.LANCHOR0
 350 00a6 C0F20001 		movt	r1, #:upper16:.LC7
 351 00aa FFF7FEFF 		bl	scheduleMsg
 352 00ae 3846     		mov	r0, r7
 353 00b0 3146     		mov	r1, r6
 354 00b2 2246     		mov	r2, r4
 355 00b4 0423     		movs	r3, #4
 356 00b6 FFF7FEFF 		bl	_Z14tsSendResponseP12ts_channel_s20ts_response_format_ePKhi
 357 00ba 05B0     		add	sp, sp, #20
 358              		@ sp needed
 359 00bc BDE8F083 		pop	{r4, r5, r6, r7, r8, r9, pc}
 360              		.size	_Z16handleCrc32CheckP12ts_channel_s20ts_response_format_ettt, .-_Z16handleCrc32CheckP12ts_ch
 361              		.section	.text._Z11requestBurnv,"ax",%progbits
 362              		.align	2
 363              		.p2align 4,,15
 364              		.global	_Z11requestBurnv
 365              		.thumb
 366              		.thumb_func
 367              		.type	_Z11requestBurnv, %function
 368              	_Z11requestBurnv:
 369              		@ args = 0, pretend = 0, frame = 0
 370              		@ frame_needed = 0, uses_anonymous_args = 0
 371 0000 08B5     		push	{r3, lr}
 372 0002 FFF7FEFF 		bl	_Z27setNeedToWriteConfigurationv
 373 0006 BDE80840 		pop	{r3, lr}
 374 000a FFF7FEBF 		b	_Z35incrementGlobalConfigurationVersionv
 375              		.size	_Z11requestBurnv, .-_Z11requestBurnv
 376 000e 00BF     		.section	.text._Z17handleBurnCommandP12ts_channel_s20ts_response_format_et,"ax",%progbits
 377              		.align	2
 378              		.p2align 4,,15
 379              		.global	_Z17handleBurnCommandP12ts_channel_s20ts_response_format_et
 380              		.thumb
 381              		.thumb_func
 382              		.type	_Z17handleBurnCommandP12ts_channel_s20ts_response_format_et, %function
ARM GAS  C:\Users\pc\AppData\Local\Temp\ccTtWWKQ.s 			page 8


 383              	_Z17handleBurnCommandP12ts_channel_s20ts_response_format_et:
 384              		@ args = 0, pretend = 0, frame = 0
 385              		@ frame_needed = 0, uses_anonymous_args = 0
 386 0000 F8B5     		push	{r3, r4, r5, r6, r7, lr}
 387 0002 0C46     		mov	r4, r1
 388 0004 1546     		mov	r5, r2
 389 0006 0746     		mov	r7, r0
 390 0008 FFF7FEFF 		bl	currentTimeMillis
 391 000c 40F20003 		movw	r3, #:lower16:.LANCHOR1
 392 0010 C0F20003 		movt	r3, #:upper16:.LANCHOR1
 393 0014 0646     		mov	r6, r0
 394 0016 DA68     		ldr	r2, [r3, #12]
 395 0018 0132     		adds	r2, r2, #1
 396 001a DA60     		str	r2, [r3, #12]
 397 001c 40F20000 		movw	r0, #:lower16:.LANCHOR0
 398 0020 40F20001 		movw	r1, #:lower16:.LC8
 399 0024 64B3     		cbz	r4, .L28
 400 0026 40F20002 		movw	r2, #:lower16:.LC9
 401 002a C0F20000 		movt	r0, #:upper16:.LANCHOR0
 402 002e C0F20001 		movt	r1, #:upper16:.LC8
 403 0032 C0F20002 		movt	r2, #:upper16:.LC9
 404 0036 FFF7FEFF 		bl	scheduleMsg
 405 003a 40F20003 		movw	r3, #:lower16:.LANCHOR2
 406 003e C0F20003 		movt	r3, #:upper16:.LANCHOR2
 407 0042 40F20001 		movw	r1, #:lower16:.LANCHOR3
 408 0046 C0F20001 		movt	r1, #:upper16:.LANCHOR3
 409 004a 43F6B832 		movw	r2, #15288
 410 004e 1E48     		ldr	r0, .L31
 411 0050 1D80     		strh	r5, [r3]	@ movhi
 412 0052 FFF7FEFF 		bl	memcpy
 413 0056 FFF7FEFF 		bl	_Z27setNeedToWriteConfigurationv
 414 005a FFF7FEFF 		bl	_Z35incrementGlobalConfigurationVersionv
 415 005e 012C     		cmp	r4, #1
 416 0060 2BD0     		beq	.L30
 417              	.L29:
 418 0062 FFF7FEFF 		bl	currentTimeMillis
 419 0066 40F20001 		movw	r1, #:lower16:.LC10
 420 006a 821B     		subs	r2, r0, r6
 421 006c 40F20000 		movw	r0, #:lower16:.LANCHOR0
 422 0070 C0F20000 		movt	r0, #:upper16:.LANCHOR0
 423 0074 C0F20001 		movt	r1, #:upper16:.LC10
 424 0078 BDE8F840 		pop	{r3, r4, r5, r6, r7, lr}
 425 007c FFF7FEBF 		b	scheduleMsg
 426              	.L28:
 427 0080 40F20002 		movw	r2, #:lower16:.LC11
 428 0084 C0F20000 		movt	r0, #:upper16:.LANCHOR0
 429 0088 C0F20001 		movt	r1, #:upper16:.LC8
 430 008c C0F20002 		movt	r2, #:upper16:.LC11
 431 0090 FFF7FEFF 		bl	scheduleMsg
 432 0094 40F20003 		movw	r3, #:lower16:.LANCHOR2
 433 0098 C0F20003 		movt	r3, #:upper16:.LANCHOR2
 434 009c 40F20001 		movw	r1, #:lower16:.LANCHOR3
 435 00a0 C0F20001 		movt	r1, #:upper16:.LANCHOR3
 436 00a4 43F6B832 		movw	r2, #15288
 437 00a8 0748     		ldr	r0, .L31
 438 00aa 1D80     		strh	r5, [r3]	@ movhi
 439 00ac FFF7FEFF 		bl	memcpy
ARM GAS  C:\Users\pc\AppData\Local\Temp\ccTtWWKQ.s 			page 9


 440 00b0 FFF7FEFF 		bl	_Z27setNeedToWriteConfigurationv
 441 00b4 FFF7FEFF 		bl	_Z35incrementGlobalConfigurationVersionv
 442 00b8 D3E7     		b	.L29
 443              	.L30:
 444 00ba 0022     		movs	r2, #0
 445 00bc 3846     		mov	r0, r7
 446 00be 1346     		mov	r3, r2
 447 00c0 0421     		movs	r1, #4
 448 00c2 FFF7FEFF 		bl	_Z25tunerStudioWriteCrcPacketP12ts_channel_shPKvt
 449 00c6 CCE7     		b	.L29
 450              	.L32:
 451              		.align	2
 452              	.L31:
 453 00c8 08000000 		.word	persistentState+8
 454              		.size	_Z17handleBurnCommandP12ts_channel_s20ts_response_format_et, .-_Z17handleBurnCommandP12ts_ch
 455 00cc AFF30080 		.section	.text._Z19syncTunerStudioCopyv,"ax",%progbits
 456              		.align	2
 457              		.p2align 4,,15
 458              		.global	_Z19syncTunerStudioCopyv
 459              		.thumb
 460              		.thumb_func
 461              		.type	_Z19syncTunerStudioCopyv, %function
 462              	_Z19syncTunerStudioCopyv:
 463              		@ args = 0, pretend = 0, frame = 0
 464              		@ frame_needed = 0, uses_anonymous_args = 0
 465 0000 08B5     		push	{r3, lr}
 466 0002 40F20000 		movw	r0, #:lower16:.LANCHOR3
 467 0006 0449     		ldr	r1, .L34
 468 0008 43F6B832 		movw	r2, #15288
 469 000c C0F20000 		movt	r0, #:upper16:.LANCHOR3
 470 0010 FFF7FEFF 		bl	memcpy
 471 0014 08BD     		pop	{r3, pc}
 472              	.L35:
 473 0016 00BF     		.align	2
 474              	.L34:
 475 0018 08000000 		.word	persistentState+8
 476              		.size	_Z19syncTunerStudioCopyv, .-_Z19syncTunerStudioCopyv
 477 001c AFF30080 		.section	.text._Z16tunerStudioErrorPKc,"ax",%progbits
 478              		.align	2
 479              		.p2align 4,,15
 480              		.global	_Z16tunerStudioErrorPKc
 481              		.thumb
 482              		.thumb_func
 483              		.type	_Z16tunerStudioErrorPKc, %function
 484              	_Z16tunerStudioErrorPKc:
 485              		@ args = 0, pretend = 0, frame = 0
 486              		@ frame_needed = 0, uses_anonymous_args = 0
 487 0000 0246     		mov	r2, r0
 488 0002 40F20001 		movw	r1, #:lower16:.LC4
 489 0006 40F20000 		movw	r0, #:lower16:.LANCHOR0
 490 000a 08B5     		push	{r3, lr}
 491 000c C0F20000 		movt	r0, #:upper16:.LANCHOR0
 492 0010 C0F20001 		movt	r1, #:upper16:.LC4
 493 0014 FFF7FEFF 		bl	scheduleMsg
 494 0018 FFF7FEFF 		bl	_ZL18printErrorCountersv
 495 001c 40F20003 		movw	r3, #:lower16:.LANCHOR1
 496 0020 C0F20003 		movt	r3, #:upper16:.LANCHOR1
ARM GAS  C:\Users\pc\AppData\Local\Temp\ccTtWWKQ.s 			page 10


 497 0024 1A6A     		ldr	r2, [r3, #32]
 498 0026 0132     		adds	r2, r2, #1
 499 0028 1A62     		str	r2, [r3, #32]
 500 002a 08BD     		pop	{r3, pc}
 501              		.size	_Z16tunerStudioErrorPKc, .-_Z16tunerStudioErrorPKc
 502 002c AFF30080 		.section	.text._Z23handleWriteChunkCommandP12ts_channel_s20ts_response_format_essPv,"ax",%progbits
 503              		.align	2
 504              		.p2align 4,,15
 505              		.global	_Z23handleWriteChunkCommandP12ts_channel_s20ts_response_format_essPv
 506              		.thumb
 507              		.thumb_func
 508              		.type	_Z23handleWriteChunkCommandP12ts_channel_s20ts_response_format_essPv, %function
 509              	_Z23handleWriteChunkCommandP12ts_channel_s20ts_response_format_essPv:
 510              		@ args = 4, pretend = 0, frame = 0
 511              		@ frame_needed = 0, uses_anonymous_args = 0
 512 0000 2DE9F04F 		push	{r4, r5, r6, r7, r8, r9, r10, fp, lr}
 513 0004 40F2000E 		movw	lr, #:lower16:.LANCHOR1
 514 0008 C0F2000E 		movt	lr, #:upper16:.LANCHOR1
 515 000c 40F20005 		movw	r5, #:lower16:.LANCHOR2
 516 0010 C0F20005 		movt	r5, #:upper16:.LANCHOR2
 517 0014 DEF81C70 		ldr	r7, [lr, #28]
 518 0018 B5F900C0 		ldrsh	ip, [r5]
 519 001c 83B0     		sub	sp, sp, #12
 520 001e 1E46     		mov	r6, r3
 521 0020 1446     		mov	r4, r2
 522 0022 8846     		mov	r8, r1
 523 0024 0137     		adds	r7, r7, #1
 524 0026 8146     		mov	r9, r0
 525 0028 40F20001 		movw	r1, #:lower16:.LC12
 526 002c 40F20000 		movw	r0, #:lower16:.LANCHOR0
 527 0030 8DE85000 		stmia	sp, {r4, r6}
 528 0034 6346     		mov	r3, ip
 529 0036 C0F20001 		movt	r1, #:upper16:.LC12
 530 003a CEF81C70 		str	r7, [lr, #28]
 531 003e 4246     		mov	r2, r8
 532 0040 C0F20000 		movt	r0, #:upper16:.LANCHOR0
 533 0044 DDF830A0 		ldr	r10, [sp, #48]
 534 0048 FFF7FEFF 		bl	scheduleMsg
 535 004c 2988     		ldrh	r1, [r5]
 536 004e 43F6B833 		movw	r3, #15288
 537 0052 0029     		cmp	r1, #0
 538 0054 18BF     		it	ne
 539 0056 0023     		movne	r3, #0
 540 0058 9C42     		cmp	r4, r3
 541 005a 3746     		mov	r7, r6
 542 005c 3DDC     		bgt	.L40
 543              	.L52:
 544 005e 09B2     		sxth	r1, r1
 545 0060 43F6B833 		movw	r3, #15288
 546 0064 0029     		cmp	r1, #0
 547 0066 18BF     		it	ne
 548 0068 0023     		movne	r3, #0
 549 006a 9E42     		cmp	r6, r3
 550 006c A346     		mov	fp, r4
 551 006e D8BF     		it	le
 552 0070 3246     		movle	r2, r6
 553 0072 1CDC     		bgt	.L53
ARM GAS  C:\Users\pc\AppData\Local\Temp\ccTtWWKQ.s 			page 11


 554              	.L45:
 555 0074 40F20003 		movw	r3, #:lower16:.LANCHOR3
 556 0078 C0F20003 		movt	r3, #:upper16:.LANCHOR3
 557 007c 0029     		cmp	r1, #0
 558 007e 0CBF     		ite	eq
 559 0080 1846     		moveq	r0, r3
 560 0082 0020     		movne	r0, #0
 561 0084 5844     		add	r0, r0, fp
 562 0086 5146     		mov	r1, r10
 563 0088 FFF7FEFF 		bl	memcpy
 564 008c 41F63803 		movw	r3, #6200
 565 0090 9C42     		cmp	r4, r3
 566 0092 03DD     		ble	.L48
 567 0094 2046     		mov	r0, r4
 568 0096 3946     		mov	r1, r7
 569 0098 FFF7FEFF 		bl	_Z11yellowMagiciii.part.1
 570              	.L48:
 571 009c 0022     		movs	r2, #0
 572 009e 4846     		mov	r0, r9
 573 00a0 4146     		mov	r1, r8
 574 00a2 1346     		mov	r3, r2
 575 00a4 03B0     		add	sp, sp, #12
 576              		@ sp needed
 577 00a6 BDE8F04F 		pop	{r4, r5, r6, r7, r8, r9, r10, fp, lr}
 578 00aa FFF7FEBF 		b	_Z14tsSendResponseP12ts_channel_s20ts_response_format_ePKhi
 579              	.L53:
 580 00ae 40F20000 		movw	r0, #:lower16:.LC15
 581 00b2 C0F20000 		movt	r0, #:upper16:.LC15
 582 00b6 FFF7FEFF 		bl	_Z16tunerStudioErrorPKc
 583 00ba 40F20000 		movw	r0, #:lower16:.LANCHOR0
 584 00be 40F20001 		movw	r1, #:lower16:.LC16
 585 00c2 3246     		mov	r2, r6
 586 00c4 C0F20001 		movt	r1, #:upper16:.LC16
 587 00c8 C0F20000 		movt	r0, #:upper16:.LANCHOR0
 588 00cc 0027     		movs	r7, #0
 589 00ce FFF7FEFF 		bl	scheduleMsg
 590 00d2 B5F90010 		ldrsh	r1, [r5]
 591 00d6 3A46     		mov	r2, r7
 592 00d8 CCE7     		b	.L45
 593              	.L40:
 594 00da 40F20000 		movw	r0, #:lower16:.LANCHOR0
 595 00de 40F20001 		movw	r1, #:lower16:.LC13
 596 00e2 2246     		mov	r2, r4
 597 00e4 C0F20001 		movt	r1, #:upper16:.LC13
 598 00e8 C0F20000 		movt	r0, #:upper16:.LANCHOR0
 599 00ec FFF7FEFF 		bl	scheduleMsg
 600 00f0 40F20000 		movw	r0, #:lower16:.LC14
 601 00f4 C0F20000 		movt	r0, #:upper16:.LC14
 602 00f8 FFF7FEFF 		bl	_Z16tunerStudioErrorPKc
 603 00fc 0024     		movs	r4, #0
 604 00fe 2988     		ldrh	r1, [r5]
 605 0100 ADE7     		b	.L52
 606              		.size	_Z23handleWriteChunkCommandP12ts_channel_s20ts_response_format_essPv, .-_Z23handleWriteChunk
 607 0102 00BFAFF3 		.section	.text._Z23handleWriteValueCommandP12ts_channel_s20ts_response_format_etth,"ax",%progbits
 607      0080AFF3 
 607      0080AFF3 
 607      0080
ARM GAS  C:\Users\pc\AppData\Local\Temp\ccTtWWKQ.s 			page 12


 608              		.align	2
 609              		.p2align 4,,15
 610              		.global	_Z23handleWriteValueCommandP12ts_channel_s20ts_response_format_etth
 611              		.thumb
 612              		.thumb_func
 613              		.type	_Z23handleWriteValueCommandP12ts_channel_s20ts_response_format_etth, %function
 614              	_Z23handleWriteValueCommandP12ts_channel_s20ts_response_format_etth:
 615              		@ args = 4, pretend = 0, frame = 0
 616              		@ frame_needed = 0, uses_anonymous_args = 0
 617 0000 F0B5     		push	{r4, r5, r6, r7, lr}
 618 0002 40F20005 		movw	r5, #:lower16:.LANCHOR1
 619 0006 C0F20005 		movt	r5, #:upper16:.LANCHOR1
 620 000a 40F20004 		movw	r4, #:lower16:.LANCHOR2
 621 000e C0F20004 		movt	r4, #:upper16:.LANCHOR2
 622 0012 6E69     		ldr	r6, [r5, #20]
 623 0014 2280     		strh	r2, [r4]	@ movhi
 624 0016 83B0     		sub	sp, sp, #12
 625 0018 40F20000 		movw	r0, #:lower16:.LANCHOR0
 626 001c 40F20001 		movw	r1, #:lower16:.LC4
 627 0020 40F20002 		movw	r2, #:lower16:.LC17
 628 0024 771C     		adds	r7, r6, #1
 629 0026 C0F20002 		movt	r2, #:upper16:.LC17
 630 002a C0F20000 		movt	r0, #:upper16:.LANCHOR0
 631 002e C0F20001 		movt	r1, #:upper16:.LC4
 632 0032 1E46     		mov	r6, r3
 633 0034 6F61     		str	r7, [r5, #20]
 634 0036 9DF82070 		ldrb	r7, [sp, #32]	@ zero_extendqisi2
 635 003a FFF7FEFF 		bl	scheduleMsg
 636 003e B4F90020 		ldrsh	r2, [r4]
 637 0042 43F6B833 		movw	r3, #15288
 638 0046 002A     		cmp	r2, #0
 639 0048 18BF     		it	ne
 640 004a 0023     		movne	r3, #0
 641 004c 9E42     		cmp	r6, r3
 642 004e 21DC     		bgt	.L64
 643 0050 40F20005 		movw	r5, #:lower16:.LANCHOR4
 644 0054 C0F20005 		movt	r5, #:upper16:.LANCHOR4
 645 0058 FFF7FEFF 		bl	currentTimeMillis
 646 005c 2B68     		ldr	r3, [r5]
 647 005e C31A     		subs	r3, r0, r3
 648 0060 052B     		cmp	r3, #5
 649 0062 8446     		mov	ip, r0
 650 0064 2AD8     		bhi	.L65
 651              	.L58:
 652 0066 B4F90020 		ldrsh	r2, [r4]
 653 006a 40F20003 		movw	r3, #:lower16:.LANCHOR3
 654 006e C0F20003 		movt	r3, #:upper16:.LANCHOR3
 655 0072 002A     		cmp	r2, #0
 656 0074 18BF     		it	ne
 657 0076 0023     		movne	r3, #0
 658 0078 41F63802 		movw	r2, #6200
 659 007c 9642     		cmp	r6, r2
 660 007e 9F55     		strb	r7, [r3, r6]
 661 0080 01DC     		bgt	.L66
 662 0082 03B0     		add	sp, sp, #12
 663              		@ sp needed
 664 0084 F0BD     		pop	{r4, r5, r6, r7, pc}
ARM GAS  C:\Users\pc\AppData\Local\Temp\ccTtWWKQ.s 			page 13


 665              	.L66:
 666 0086 3046     		mov	r0, r6
 667 0088 0121     		movs	r1, #1
 668 008a 03B0     		add	sp, sp, #12
 669              		@ sp needed
 670 008c BDE8F040 		pop	{r4, r5, r6, r7, lr}
 671 0090 FFF7FEBF 		b	_Z11yellowMagiciii.part.1
 672              	.L64:
 673 0094 40F20000 		movw	r0, #:lower16:.LC18
 674 0098 C0F20000 		movt	r0, #:upper16:.LC18
 675 009c FFF7FEFF 		bl	_Z16tunerStudioErrorPKc
 676 00a0 40F20000 		movw	r0, #:lower16:.LANCHOR0
 677 00a4 40F20001 		movw	r1, #:lower16:.LC19
 678 00a8 3246     		mov	r2, r6
 679 00aa C0F20000 		movt	r0, #:upper16:.LANCHOR0
 680 00ae C0F20001 		movt	r1, #:upper16:.LC19
 681 00b2 03B0     		add	sp, sp, #12
 682              		@ sp needed
 683 00b4 BDE8F040 		pop	{r4, r5, r6, r7, lr}
 684 00b8 FFF7FEBF 		b	scheduleMsg
 685              	.L65:
 686 00bc 40F20000 		movw	r0, #:lower16:.LANCHOR0
 687 00c0 40F20001 		movw	r1, #:lower16:.LC20
 688 00c4 0097     		str	r7, [sp]
 689 00c6 B4F90020 		ldrsh	r2, [r4]
 690 00ca C5F800C0 		str	ip, [r5]
 691 00ce C0F20000 		movt	r0, #:upper16:.LANCHOR0
 692 00d2 C0F20001 		movt	r1, #:upper16:.LC20
 693 00d6 3346     		mov	r3, r6
 694 00d8 FFF7FEFF 		bl	scheduleMsg
 695 00dc C3E7     		b	.L58
 696              		.size	_Z23handleWriteValueCommandP12ts_channel_s20ts_response_format_etth, .-_Z23handleWriteValueC
 697 00de 00BF     		.section	.text._Z21handlePageReadCommandP12ts_channel_s20ts_response_format_ettt,"ax",%progbits
 698              		.align	2
 699              		.p2align 4,,15
 700              		.global	_Z21handlePageReadCommandP12ts_channel_s20ts_response_format_ettt
 701              		.thumb
 702              		.thumb_func
 703              		.type	_Z21handlePageReadCommandP12ts_channel_s20ts_response_format_ettt, %function
 704              	_Z21handlePageReadCommandP12ts_channel_s20ts_response_format_ettt:
 705              		@ args = 4, pretend = 0, frame = 0
 706              		@ frame_needed = 0, uses_anonymous_args = 0
 707 0000 2DE9F047 		push	{r4, r5, r6, r7, r8, r9, r10, lr}
 708 0004 40F20005 		movw	r5, #:lower16:.LANCHOR1
 709 0008 82B0     		sub	sp, sp, #8
 710 000a C0F20005 		movt	r5, #:upper16:.LANCHOR1
 711 000e BDF82880 		ldrh	r8, [sp, #40]
 712 0012 AF68     		ldr	r7, [r5, #8]
 713 0014 0093     		str	r3, [sp]
 714 0016 40F20004 		movw	r4, #:lower16:.LANCHOR2
 715 001a 9646     		mov	lr, r2
 716 001c 8946     		mov	r9, r1
 717 001e C0F20004 		movt	r4, #:upper16:.LANCHOR2
 718 0022 8246     		mov	r10, r0
 719 0024 40F20001 		movw	r1, #:lower16:.LC21
 720 0028 40F20000 		movw	r0, #:lower16:.LANCHOR0
 721 002c 1E46     		mov	r6, r3
ARM GAS  C:\Users\pc\AppData\Local\Temp\ccTtWWKQ.s 			page 14


 722 002e 0137     		adds	r7, r7, #1
 723 0030 0FFA8EF3 		sxth	r3, lr
 724 0034 4A46     		mov	r2, r9
 725 0036 CDF80480 		str	r8, [sp, #4]
 726 003a C0F20000 		movt	r0, #:upper16:.LANCHOR0
 727 003e C0F20001 		movt	r1, #:upper16:.LC21
 728 0042 AF60     		str	r7, [r5, #8]
 729 0044 A4F800E0 		strh	lr, [r4]	@ movhi
 730 0048 FFF7FEFF 		bl	scheduleMsg
 731 004c B4F90030 		ldrsh	r3, [r4]
 732 0050 002B     		cmp	r3, #0
 733 0052 17DC     		bgt	.L76
 734 0054 0AD1     		bne	.L77
 735 0056 06EB0802 		add	r2, r6, r8
 736 005a 43F6B833 		movw	r3, #15288
 737 005e 9A42     		cmp	r2, r3
 738 0060 1BDC     		bgt	.L74
 739 0062 40F20002 		movw	r2, #:lower16:.LANCHOR3
 740 0066 C0F20002 		movt	r2, #:upper16:.LANCHOR3
 741 006a 02E0     		b	.L72
 742              	.L77:
 743 006c 16EB0802 		adds	r2, r6, r8
 744 0070 13D1     		bne	.L74
 745              	.L72:
 746 0072 5046     		mov	r0, r10
 747 0074 4946     		mov	r1, r9
 748 0076 3244     		add	r2, r2, r6
 749 0078 4346     		mov	r3, r8
 750 007a 02B0     		add	sp, sp, #8
 751              		@ sp needed
 752 007c BDE8F047 		pop	{r4, r5, r6, r7, r8, r9, r10, lr}
 753 0080 FFF7FEBF 		b	_Z14tsSendResponseP12ts_channel_s20ts_response_format_ePKhi
 754              	.L76:
 755 0084 40F20000 		movw	r0, #:lower16:.LC22
 756 0088 0023     		movs	r3, #0
 757 008a C0F20000 		movt	r0, #:upper16:.LC22
 758 008e 2380     		strh	r3, [r4]	@ movhi
 759 0090 02B0     		add	sp, sp, #8
 760              		@ sp needed
 761 0092 BDE8F047 		pop	{r4, r5, r6, r7, r8, r9, r10, lr}
 762 0096 FFF7FEBF 		b	_Z16tunerStudioErrorPKc
 763              	.L74:
 764 009a 40F20000 		movw	r0, #:lower16:.LANCHOR0
 765 009e 40F20001 		movw	r1, #:lower16:.LC23
 766 00a2 3246     		mov	r2, r6
 767 00a4 4346     		mov	r3, r8
 768 00a6 C0F20000 		movt	r0, #:upper16:.LANCHOR0
 769 00aa C0F20001 		movt	r1, #:upper16:.LC23
 770 00ae FFF7FEFF 		bl	scheduleMsg
 771 00b2 0022     		movs	r2, #0
 772 00b4 5046     		mov	r0, r10
 773 00b6 1346     		mov	r3, r2
 774 00b8 8221     		movs	r1, #130
 775 00ba 02B0     		add	sp, sp, #8
 776              		@ sp needed
 777 00bc BDE8F047 		pop	{r4, r5, r6, r7, r8, r9, r10, lr}
 778 00c0 FFF7FEBF 		b	_Z25tunerStudioWriteCrcPacketP12ts_channel_shPKvt
ARM GAS  C:\Users\pc\AppData\Local\Temp\ccTtWWKQ.s 			page 15


 779              		.size	_Z21handlePageReadCommandP12ts_channel_s20ts_response_format_ettt, .-_Z21handlePageReadComma
 780 00c4 AFF30080 		.section	.text._Z18handleQueryCommandP12ts_channel_s20ts_response_format_e,"ax",%progbits
 780      AFF30080 
 780      AFF30080 
 781              		.align	2
 782              		.p2align 4,,15
 783              		.global	_Z18handleQueryCommandP12ts_channel_s20ts_response_format_e
 784              		.thumb
 785              		.thumb_func
 786              		.type	_Z18handleQueryCommandP12ts_channel_s20ts_response_format_e, %function
 787              	_Z18handleQueryCommandP12ts_channel_s20ts_response_format_e:
 788              		@ args = 0, pretend = 0, frame = 0
 789              		@ frame_needed = 0, uses_anonymous_args = 0
 790 0000 40F20003 		movw	r3, #:lower16:.LANCHOR1
 791 0004 C0F20003 		movt	r3, #:upper16:.LANCHOR1
 792 0008 70B5     		push	{r4, r5, r6, lr}
 793 000a 1A68     		ldr	r2, [r3]
 794 000c 0C46     		mov	r4, r1
 795 000e 0546     		mov	r5, r0
 796 0010 40F20001 		movw	r1, #:lower16:.LC24
 797 0014 40F20000 		movw	r0, #:lower16:.LANCHOR0
 798 0018 561C     		adds	r6, r2, #1
 799 001a C0F20000 		movt	r0, #:upper16:.LANCHOR0
 800 001e 2246     		mov	r2, r4
 801 0020 C0F20001 		movt	r1, #:upper16:.LC24
 802 0024 1E60     		str	r6, [r3]
 803 0026 FFF7FEFF 		bl	scheduleMsg
 804 002a FFF7FEFF 		bl	_Z12printTsStatsv
 805 002e 40F20002 		movw	r2, #:lower16:.LC25
 806 0032 2846     		mov	r0, r5
 807 0034 2146     		mov	r1, r4
 808 0036 C0F20002 		movt	r2, #:upper16:.LC25
 809 003a 0D23     		movs	r3, #13
 810 003c BDE87040 		pop	{r4, r5, r6, lr}
 811 0040 FFF7FEBF 		b	_Z14tsSendResponseP12ts_channel_s20ts_response_format_ePKhi
 812              		.size	_Z18handleQueryCommandP12ts_channel_s20ts_response_format_e, .-_Z18handleQueryCommandP12ts_c
 813 0044 AFF30080 		.section	.text._Z27handleOutputChannelsCommandP12ts_channel_s20ts_response_format_e,"ax",%progbits
 813      AFF30080 
 813      AFF30080 
 814              		.align	2
 815              		.p2align 4,,15
 816              		.global	_Z27handleOutputChannelsCommandP12ts_channel_s20ts_response_format_e
 817              		.thumb
 818              		.thumb_func
 819              		.type	_Z27handleOutputChannelsCommandP12ts_channel_s20ts_response_format_e, %function
 820              	_Z27handleOutputChannelsCommandP12ts_channel_s20ts_response_format_e:
 821              		@ args = 0, pretend = 0, frame = 0
 822              		@ frame_needed = 0, uses_anonymous_args = 0
 823 0000 40F20003 		movw	r3, #:lower16:.LANCHOR1
 824 0004 C0F20003 		movt	r3, #:upper16:.LANCHOR1
 825 0008 70B5     		push	{r4, r5, r6, lr}
 826 000a 5A68     		ldr	r2, [r3, #4]
 827 000c 0132     		adds	r2, r2, #1
 828 000e 0546     		mov	r5, r0
 829 0010 0C46     		mov	r4, r1
 830 0012 5A60     		str	r2, [r3, #4]
 831 0014 FFF7FEFF 		bl	_Z25prepareTunerStudioOutputsv
ARM GAS  C:\Users\pc\AppData\Local\Temp\ccTtWWKQ.s 			page 16


 832 0018 40F20002 		movw	r2, #:lower16:.LANCHOR5
 833 001c 2846     		mov	r0, r5
 834 001e 2146     		mov	r1, r4
 835 0020 C0F20002 		movt	r2, #:upper16:.LANCHOR5
 836 0024 C423     		movs	r3, #196
 837 0026 BDE87040 		pop	{r4, r5, r6, lr}
 838 002a FFF7FEBF 		b	_Z14tsSendResponseP12ts_channel_s20ts_response_format_ePKhi
 839              		.size	_Z27handleOutputChannelsCommandP12ts_channel_s20ts_response_format_e, .-_Z27handleOutputChan
 840 002e 00BF     		.section	.text._Z17handleTestCommandP12ts_channel_s,"ax",%progbits
 841              		.align	2
 842              		.p2align 4,,15
 843              		.global	_Z17handleTestCommandP12ts_channel_s
 844              		.thumb
 845              		.thumb_func
 846              		.type	_Z17handleTestCommandP12ts_channel_s, %function
 847              	_Z17handleTestCommandP12ts_channel_s:
 848              		@ args = 0, pretend = 0, frame = 0
 849              		@ frame_needed = 0, uses_anonymous_args = 0
 850 0000 10B5     		push	{r4, lr}
 851 0002 40F20001 		movw	r1, #:lower16:.LC4
 852 0006 0446     		mov	r4, r0
 853 0008 40F20002 		movw	r2, #:lower16:.LC26
 854 000c 40F20000 		movw	r0, #:lower16:.LANCHOR0
 855 0010 C0F20000 		movt	r0, #:upper16:.LANCHOR0
 856 0014 C0F20001 		movt	r1, #:upper16:.LC4
 857 0018 C0F20002 		movt	r2, #:upper16:.LC26
 858 001c FFF7FEFF 		bl	scheduleMsg
 859 0020 40F20001 		movw	r1, #:lower16:.LC27
 860 0024 2046     		mov	r0, r4
 861 0026 C0F20001 		movt	r1, #:upper16:.LC27
 862 002a 0522     		movs	r2, #5
 863 002c FFF7FEFF 		bl	_Z20tunerStudioWriteDataP12ts_channel_sPKhi
 864 0030 40F20001 		movw	r1, #:lower16:.LC28
 865 0034 2046     		mov	r0, r4
 866 0036 C0F20001 		movt	r1, #:upper16:.LC28
 867 003a 0822     		movs	r2, #8
 868 003c BDE81040 		pop	{r4, lr}
 869 0040 FFF7FEBF 		b	_Z20tunerStudioWriteDataP12ts_channel_sPKhi
 870              		.size	_Z17handleTestCommandP12ts_channel_s, .-_Z17handleTestCommandP12ts_channel_s
 871 0044 AFF30080 		.section	.text._Z18handlePlainCommandP12ts_channel_sh,"ax",%progbits
 871      AFF30080 
 871      AFF30080 
 872              		.align	2
 873              		.p2align 4,,15
 874              		.global	_Z18handlePlainCommandP12ts_channel_sh
 875              		.thumb
 876              		.thumb_func
 877              		.type	_Z18handlePlainCommandP12ts_channel_sh, %function
 878              	_Z18handlePlainCommandP12ts_channel_sh:
 879              		@ args = 0, pretend = 0, frame = 8
 880              		@ frame_needed = 0, uses_anonymous_args = 0
 881 0000 F0B5     		push	{r4, r5, r6, r7, lr}
 882 0002 5329     		cmp	r1, #83
 883 0004 18BF     		it	ne
 884 0006 4829     		cmpne	r1, #72
 885 0008 85B0     		sub	sp, sp, #20
 886 000a 0546     		mov	r5, r0
ARM GAS  C:\Users\pc\AppData\Local\Temp\ccTtWWKQ.s 			page 17


 887 000c 14BF     		ite	ne
 888 000e 0024     		movne	r4, #0
 889 0010 0124     		moveq	r4, #1
 890 0012 17D0     		beq	.L99
 891 0014 01F0DF03 		and	r3, r1, #223
 892 0018 542B     		cmp	r3, #84
 893 001a 44D0     		beq	.L100
 894 001c 5029     		cmp	r1, #80
 895 001e 48D0     		beq	.L101
 896 0020 4229     		cmp	r1, #66
 897 0022 20D0     		beq	.L102
 898 0024 4329     		cmp	r1, #67
 899 0026 5BD0     		beq	.L103
 900 0028 5229     		cmp	r1, #82
 901 002a 00F09C80 		beq	.L104
 902 002e 4F29     		cmp	r1, #79
 903 0030 00F0D580 		beq	.L105
 904 0034 5129     		cmp	r1, #81
 905 0036 00F0D780 		beq	.L106
 906 003a 4629     		cmp	r1, #70
 907 003c 7CD0     		beq	.L107
 908              	.L83:
 909 003e 2046     		mov	r0, r4
 910 0040 05B0     		add	sp, sp, #20
 911              		@ sp needed
 912 0042 F0BD     		pop	{r4, r5, r6, r7, pc}
 913              	.L99:
 914 0044 40F20000 		movw	r0, #:lower16:.LANCHOR0
 915 0048 40F20001 		movw	r1, #:lower16:.LC29
 916 004c C0F20000 		movt	r0, #:upper16:.LANCHOR0
 917 0050 C0F20001 		movt	r1, #:upper16:.LC29
 918 0054 FFF7FEFF 		bl	scheduleMsg
 919 0058 2846     		mov	r0, r5
 920 005a 0021     		movs	r1, #0
 921 005c FFF7FEFF 		bl	_Z18handleQueryCommandP12ts_channel_s20ts_response_format_e
 922 0060 2046     		mov	r0, r4
 923 0062 05B0     		add	sp, sp, #20
 924              		@ sp needed
 925 0064 F0BD     		pop	{r4, r5, r6, r7, pc}
 926              	.L102:
 927 0066 40F20000 		movw	r0, #:lower16:.LANCHOR0
 928 006a 40F20001 		movw	r1, #:lower16:.LC31
 929 006e C0F20000 		movt	r0, #:upper16:.LANCHOR0
 930 0072 C0F20001 		movt	r1, #:upper16:.LC31
 931 0076 FFF7FEFF 		bl	scheduleMsg
 932 007a 2868     		ldr	r0, [r5]
 933 007c 0368     		ldr	r3, [r0]
 934 007e 0DF10E01 		add	r1, sp, #14
 935 0082 DE69     		ldr	r6, [r3, #28]
 936 0084 0222     		movs	r2, #2
 937 0086 40F6B833 		movw	r3, #3000
 938 008a B047     		blx	r6
 939 008c 0228     		cmp	r0, #2
 940 008e 00F0C280 		beq	.L88
 941 0092 40F20000 		movw	r0, #:lower16:.LC32
 942 0096 C0F20000 		movt	r0, #:upper16:.LC32
 943 009a FFF7FEFF 		bl	_Z16tunerStudioErrorPKc
ARM GAS  C:\Users\pc\AppData\Local\Temp\ccTtWWKQ.s 			page 18


 944              	.L97:
 945 009e 0124     		movs	r4, #1
 946 00a0 2046     		mov	r0, r4
 947 00a2 05B0     		add	sp, sp, #20
 948              		@ sp needed
 949 00a4 F0BD     		pop	{r4, r5, r6, r7, pc}
 950              	.L100:
 951 00a6 FFF7FEFF 		bl	_Z17handleTestCommandP12ts_channel_s
 952 00aa 0124     		movs	r4, #1
 953 00ac 2046     		mov	r0, r4
 954 00ae 05B0     		add	sp, sp, #20
 955              		@ sp needed
 956 00b0 F0BD     		pop	{r4, r5, r6, r7, pc}
 957              	.L101:
 958 00b2 0068     		ldr	r0, [r0]
 959 00b4 40F20006 		movw	r6, #:lower16:.LANCHOR6
 960 00b8 0368     		ldr	r3, [r0]
 961 00ba C0F20006 		movt	r6, #:upper16:.LANCHOR6
 962 00be DF69     		ldr	r7, [r3, #28]
 963 00c0 3146     		mov	r1, r6
 964 00c2 0222     		movs	r2, #2
 965 00c4 40F6B833 		movw	r3, #3000
 966 00c8 B847     		blx	r7
 967 00ca 0228     		cmp	r0, #2
 968 00cc 00F09C80 		beq	.L86
 969 00d0 40F20000 		movw	r0, #:lower16:.LC30
 970 00d4 C0F20000 		movt	r0, #:upper16:.LC30
 971 00d8 FFF7FEFF 		bl	_Z16tunerStudioErrorPKc
 972 00dc 0124     		movs	r4, #1
 973 00de AEE7     		b	.L83
 974              	.L103:
 975 00e0 40F20000 		movw	r0, #:lower16:.LANCHOR0
 976 00e4 40F20001 		movw	r1, #:lower16:.LC33
 977 00e8 C0F20000 		movt	r0, #:upper16:.LANCHOR0
 978 00ec C0F20001 		movt	r1, #:upper16:.LC33
 979 00f0 FFF7FEFF 		bl	scheduleMsg
 980 00f4 2868     		ldr	r0, [r5]
 981 00f6 40F20006 		movw	r6, #:lower16:.LANCHOR7
 982 00fa 0368     		ldr	r3, [r0]
 983 00fc C0F20006 		movt	r6, #:upper16:.LANCHOR7
 984 0100 DF69     		ldr	r7, [r3, #28]
 985 0102 0622     		movs	r2, #6
 986 0104 3146     		mov	r1, r6
 987 0106 40F6B833 		movw	r3, #3000
 988 010a B847     		blx	r7
 989 010c 0628     		cmp	r0, #6
 990 010e 0246     		mov	r2, r0
 991 0110 3FD0     		beq	.L91
 992 0112 40F20000 		movw	r0, #:lower16:.LANCHOR0
 993 0116 40F20001 		movw	r1, #:lower16:.LC34
 994 011a C0F20000 		movt	r0, #:upper16:.LANCHOR0
 995 011e C0F20001 		movt	r1, #:upper16:.LC34
 996 0122 FFF7FEFF 		bl	scheduleMsg
 997              	.L98:
 998 0126 40F20003 		movw	r3, #:lower16:.LANCHOR1
 999 012a C0F20003 		movt	r3, #:upper16:.LANCHOR1
 1000 012e 0124     		movs	r4, #1
ARM GAS  C:\Users\pc\AppData\Local\Temp\ccTtWWKQ.s 			page 19


 1001 0130 1A6A     		ldr	r2, [r3, #32]
 1002 0132 2244     		add	r2, r2, r4
 1003 0134 1A62     		str	r2, [r3, #32]
 1004 0136 82E7     		b	.L83
 1005              	.L107:
 1006 0138 40F20000 		movw	r0, #:lower16:.LANCHOR0
 1007 013c 40F20001 		movw	r1, #:lower16:.LC4
 1008 0140 40F20002 		movw	r2, #:lower16:.LC38
 1009 0144 C0F20000 		movt	r0, #:upper16:.LANCHOR0
 1010 0148 C0F20001 		movt	r1, #:upper16:.LC4
 1011 014c C0F20002 		movt	r2, #:upper16:.LC38
 1012 0150 FFF7FEFF 		bl	scheduleMsg
 1013 0154 40F20001 		movw	r1, #:lower16:.LC39
 1014 0158 2846     		mov	r0, r5
 1015 015a C0F20001 		movt	r1, #:upper16:.LC39
 1016 015e 0322     		movs	r2, #3
 1017 0160 FFF7FEFF 		bl	_Z20tunerStudioWriteDataP12ts_channel_sPKhi
 1018 0164 9BE7     		b	.L97
 1019              	.L104:
 1020 0166 0068     		ldr	r0, [r0]
 1021 0168 40F20006 		movw	r6, #:lower16:.LANCHOR8
 1022 016c 0368     		ldr	r3, [r0]
 1023 016e C0F20006 		movt	r6, #:upper16:.LANCHOR8
 1024 0172 DF69     		ldr	r7, [r3, #28]
 1025 0174 3146     		mov	r1, r6
 1026 0176 0622     		movs	r2, #6
 1027 0178 40F6B833 		movw	r3, #3000
 1028 017c B847     		blx	r7
 1029 017e 0628     		cmp	r0, #6
 1030 0180 23D0     		beq	.L94
 1031 0182 40F20000 		movw	r0, #:lower16:.LC36
 1032 0186 C0F20000 		movt	r0, #:upper16:.LC36
 1033 018a FFF7FEFF 		bl	_Z16tunerStudioErrorPKc
 1034 018e 0124     		movs	r4, #1
 1035 0190 55E7     		b	.L83
 1036              	.L91:
 1037 0192 2F46     		mov	r7, r5
 1038 0194 B6F90420 		ldrsh	r2, [r6, #4]
 1039 0198 57F8080B 		ldr	r0, [r7], #8
 1040 019c 0368     		ldr	r3, [r0]
 1041 019e 3946     		mov	r1, r7
 1042 01a0 D3F81CC0 		ldr	ip, [r3, #28]
 1043 01a4 40F6B833 		movw	r3, #3000
 1044 01a8 E047     		blx	ip
 1045 01aa B6F90430 		ldrsh	r3, [r6, #4]
 1046 01ae 8342     		cmp	r3, r0
 1047 01b0 0246     		mov	r2, r0
 1048 01b2 37D0     		beq	.L92
 1049 01b4 40F20000 		movw	r0, #:lower16:.LANCHOR0
 1050 01b8 40F20001 		movw	r1, #:lower16:.LC35
 1051 01bc C0F20000 		movt	r0, #:upper16:.LANCHOR0
 1052 01c0 C0F20001 		movt	r1, #:upper16:.LC35
 1053 01c4 FFF7FEFF 		bl	scheduleMsg
 1054 01c8 ADE7     		b	.L98
 1055              	.L94:
 1056 01ca 3288     		ldrh	r2, [r6]
 1057 01cc 7388     		ldrh	r3, [r6, #2]
ARM GAS  C:\Users\pc\AppData\Local\Temp\ccTtWWKQ.s 			page 20


 1058 01ce B688     		ldrh	r6, [r6, #4]
 1059 01d0 2146     		mov	r1, r4
 1060 01d2 2846     		mov	r0, r5
 1061 01d4 0096     		str	r6, [sp]
 1062 01d6 FFF7FEFF 		bl	_Z21handlePageReadCommandP12ts_channel_s20ts_response_format_ettt
 1063 01da 0124     		movs	r4, #1
 1064 01dc 2FE7     		b	.L83
 1065              	.L105:
 1066 01de 2146     		mov	r1, r4
 1067 01e0 FFF7FEFF 		bl	_Z27handleOutputChannelsCommandP12ts_channel_s20ts_response_format_e
 1068 01e4 0124     		movs	r4, #1
 1069 01e6 2AE7     		b	.L83
 1070              	.L106:
 1071 01e8 40F20000 		movw	r0, #:lower16:.LANCHOR0
 1072 01ec 40F20001 		movw	r1, #:lower16:.LC4
 1073 01f0 40F20002 		movw	r2, #:lower16:.LC37
 1074 01f4 C0F20000 		movt	r0, #:upper16:.LANCHOR0
 1075 01f8 C0F20001 		movt	r1, #:upper16:.LC4
 1076 01fc C0F20002 		movt	r2, #:upper16:.LC37
 1077 0200 FFF7FEFF 		bl	scheduleMsg
 1078 0204 0124     		movs	r4, #1
 1079 0206 1AE7     		b	.L83
 1080              	.L86:
 1081 0208 2146     		mov	r1, r4
 1082 020a 2846     		mov	r0, r5
 1083 020c 3288     		ldrh	r2, [r6]
 1084 020e FFF7FEFF 		bl	_Z23handlePageSelectCommandP12ts_channel_s20ts_response_format_et
 1085 0212 0124     		movs	r4, #1
 1086 0214 13E7     		b	.L83
 1087              	.L88:
 1088 0216 2846     		mov	r0, r5
 1089 0218 2146     		mov	r1, r4
 1090 021a BDF80E20 		ldrh	r2, [sp, #14]
 1091 021e FFF7FEFF 		bl	_Z17handleBurnCommandP12ts_channel_s20ts_response_format_et
 1092 0222 3CE7     		b	.L97
 1093              	.L92:
 1094 0224 40F2000E 		movw	lr, #:lower16:.LANCHOR2
 1095 0228 B6F90220 		ldrsh	r2, [r6, #2]
 1096 022c 3688     		ldrh	r6, [r6]
 1097 022e 0097     		str	r7, [sp]
 1098 0230 C0F2000E 		movt	lr, #:upper16:.LANCHOR2
 1099 0234 2146     		mov	r1, r4
 1100 0236 2846     		mov	r0, r5
 1101 0238 AEF80060 		strh	r6, [lr]	@ movhi
 1102 023c 0124     		movs	r4, #1
 1103 023e FFF7FEFF 		bl	_Z23handleWriteChunkCommandP12ts_channel_s20ts_response_format_essPv
 1104 0242 FCE6     		b	.L83
 1105              		.size	_Z18handlePlainCommandP12ts_channel_sh, .-_Z18handlePlainCommandP12ts_channel_sh
 1106 0244 AFF30080 		.section	.text._Z27tunerStudioHandleCrcCommandP12ts_channel_sPci,"ax",%progbits
 1106      AFF30080 
 1106      AFF30080 
 1107              		.align	2
 1108              		.p2align 4,,15
 1109              		.global	_Z27tunerStudioHandleCrcCommandP12ts_channel_sPci
 1110              		.thumb
 1111              		.thumb_func
 1112              		.type	_Z27tunerStudioHandleCrcCommandP12ts_channel_sPci, %function
ARM GAS  C:\Users\pc\AppData\Local\Temp\ccTtWWKQ.s 			page 21


 1113              	_Z27tunerStudioHandleCrcCommandP12ts_channel_sPci:
 1114              		@ args = 0, pretend = 0, frame = 8
 1115              		@ frame_needed = 0, uses_anonymous_args = 0
 1116 0000 F0B5     		push	{r4, r5, r6, r7, lr}
 1117 0002 0C78     		ldrb	r4, [r1]	@ zero_extendqisi2
 1118 0004 532C     		cmp	r4, #83
 1119 0006 18BF     		it	ne
 1120 0008 482C     		cmpne	r4, #72
 1121 000a 85B0     		sub	sp, sp, #20
 1122 000c 1746     		mov	r7, r2
 1123 000e 0546     		mov	r5, r0
 1124 0010 14BF     		ite	ne
 1125 0012 0026     		movne	r6, #0
 1126 0014 0126     		moveq	r6, #1
 1127 0016 27D0     		beq	.L123
 1128 0018 472C     		cmp	r4, #71
 1129 001a 3AD0     		beq	.L124
 1130 001c 452C     		cmp	r4, #69
 1131 001e 48D0     		beq	.L125
 1132 0020 4F2C     		cmp	r4, #79
 1133 0022 5AD0     		beq	.L126
 1134 0024 502C     		cmp	r4, #80
 1135 0026 5DD0     		beq	.L127
 1136 0028 432C     		cmp	r4, #67
 1137 002a 62D0     		beq	.L128
 1138 002c 572C     		cmp	r4, #87
 1139 002e 00F08280 		beq	.L129
 1140 0032 6B2C     		cmp	r4, #107
 1141 0034 00F08A80 		beq	.L130
 1142 0038 422C     		cmp	r4, #66
 1143 003a 00F09380 		beq	.L131
 1144 003e 522C     		cmp	r4, #82
 1145 0040 00F09780 		beq	.L132
 1146 0044 04F0DF03 		and	r3, r4, #223
 1147 0048 542B     		cmp	r3, #84
 1148 004a 2ED0     		beq	.L133
 1149 004c 512C     		cmp	r4, #81
 1150 004e 00F09C80 		beq	.L134
 1151 0052 462C     		cmp	r4, #70
 1152 0054 5FD0     		beq	.L135
 1153 0056 40F20000 		movw	r0, #:lower16:.LC43
 1154 005a C0F20000 		movt	r0, #:upper16:.LC43
 1155 005e FFF7FEFF 		bl	_Z16tunerStudioErrorPKc
 1156 0062 0020     		movs	r0, #0
 1157 0064 05B0     		add	sp, sp, #20
 1158              		@ sp needed
 1159 0066 F0BD     		pop	{r4, r5, r6, r7, pc}
 1160              	.L123:
 1161 0068 40F20000 		movw	r0, #:lower16:.LANCHOR0
 1162 006c 40F20001 		movw	r1, #:lower16:.LC4
 1163 0070 40F20002 		movw	r2, #:lower16:.LC40
 1164 0074 C0F20000 		movt	r0, #:upper16:.LANCHOR0
 1165 0078 C0F20001 		movt	r1, #:upper16:.LC4
 1166 007c C0F20002 		movt	r2, #:upper16:.LC40
 1167 0080 FFF7FEFF 		bl	scheduleMsg
 1168 0084 2846     		mov	r0, r5
 1169 0086 0121     		movs	r1, #1
ARM GAS  C:\Users\pc\AppData\Local\Temp\ccTtWWKQ.s 			page 22


 1170 0088 FFF7FEFF 		bl	_Z18handleQueryCommandP12ts_channel_s20ts_response_format_e
 1171 008c 0120     		movs	r0, #1
 1172              	.L110:
 1173 008e 05B0     		add	sp, sp, #20
 1174              		@ sp needed
 1175 0090 F0BD     		pop	{r4, r5, r6, r7, pc}
 1176              	.L124:
 1177 0092 03A8     		add	r0, sp, #12
 1178 0094 FFF7FEFF 		bl	_Z17swapOutputBuffersPi
 1179 0098 0721     		movs	r1, #7
 1180 009a 0246     		mov	r2, r0
 1181 009c BDF80C30 		ldrh	r3, [sp, #12]
 1182 00a0 2846     		mov	r0, r5
 1183 00a2 FFF7FEFF 		bl	_Z25tunerStudioWriteCrcPacketP12ts_channel_shPKvt
 1184 00a6 0120     		movs	r0, #1
 1185 00a8 F1E7     		b	.L110
 1186              	.L133:
 1187 00aa FFF7FEFF 		bl	_Z17handleTestCommandP12ts_channel_s
 1188 00ae 0120     		movs	r0, #1
 1189 00b0 EDE7     		b	.L110
 1190              	.L125:
 1191 00b2 4C1C     		adds	r4, r1, #1
 1192 00b4 2744     		add	r7, r7, r4
 1193 00b6 0721     		movs	r1, #7
 1194 00b8 3246     		mov	r2, r6
 1195 00ba 3346     		mov	r3, r6
 1196 00bc FFF7FEFF 		bl	_Z25tunerStudioWriteCrcPacketP12ts_channel_shPKvt
 1197 00c0 2046     		mov	r0, r4
 1198 00c2 07F8016C 		strb	r6, [r7, #-1]
 1199 00c6 FFF7FEFF 		bl	efiTrim
 1200 00ca 40F20003 		movw	r3, #:lower16:console_line_callback
 1201 00ce C0F20003 		movt	r3, #:upper16:console_line_callback
 1202 00d2 1B68     		ldr	r3, [r3]
 1203 00d4 9847     		blx	r3
 1204 00d6 0120     		movs	r0, #1
 1205 00d8 D9E7     		b	.L110
 1206              	.L126:
 1207 00da 0121     		movs	r1, #1
 1208 00dc FFF7FEFF 		bl	_Z27handleOutputChannelsCommandP12ts_channel_s20ts_response_format_e
 1209 00e0 0120     		movs	r0, #1
 1210 00e2 D4E7     		b	.L110
 1211              	.L127:
 1212 00e4 B1F80120 		ldrh	r2, [r1, #1]
 1213 00e8 0121     		movs	r1, #1
 1214 00ea FFF7FEFF 		bl	_Z23handlePageSelectCommandP12ts_channel_s20ts_response_format_et
 1215 00ee 0120     		movs	r0, #1
 1216 00f0 CDE7     		b	.L110
 1217              	.L128:
 1218 00f2 40F20004 		movw	r4, #:lower16:.LANCHOR2
 1219 00f6 B1F80150 		ldrh	r5, [r1, #1]
 1220 00fa B1F90320 		ldrsh	r2, [r1, #3]
 1221 00fe B1F90530 		ldrsh	r3, [r1, #5]
 1222 0102 C0F20004 		movt	r4, #:upper16:.LANCHOR2
 1223 0106 0731     		adds	r1, r1, #7
 1224 0108 0091     		str	r1, [sp]
 1225 010a 0121     		movs	r1, #1
 1226 010c 2580     		strh	r5, [r4]	@ movhi
ARM GAS  C:\Users\pc\AppData\Local\Temp\ccTtWWKQ.s 			page 23


 1227 010e FFF7FEFF 		bl	_Z23handleWriteChunkCommandP12ts_channel_s20ts_response_format_essPv
 1228 0112 0120     		movs	r0, #1
 1229 0114 BBE7     		b	.L110
 1230              	.L135:
 1231 0116 40F20000 		movw	r0, #:lower16:.LANCHOR0
 1232 011a 40F20001 		movw	r1, #:lower16:.LC4
 1233 011e 40F20002 		movw	r2, #:lower16:.LC42
 1234 0122 C0F20000 		movt	r0, #:upper16:.LANCHOR0
 1235 0126 C0F20001 		movt	r1, #:upper16:.LC4
 1236 012a C0F20002 		movt	r2, #:upper16:.LC42
 1237 012e FFF7FEFF 		bl	scheduleMsg
 1238 0132 0120     		movs	r0, #1
 1239 0134 ABE7     		b	.L110
 1240              	.L129:
 1241 0136 B1F80120 		ldrh	r2, [r1, #1]
 1242 013a B1F80330 		ldrh	r3, [r1, #3]
 1243 013e 4979     		ldrb	r1, [r1, #5]	@ zero_extendqisi2
 1244 0140 0091     		str	r1, [sp]
 1245 0142 0121     		movs	r1, #1
 1246 0144 FFF7FEFF 		bl	_Z23handleWriteValueCommandP12ts_channel_s20ts_response_format_etth
 1247 0148 0120     		movs	r0, #1
 1248 014a A0E7     		b	.L110
 1249              	.L130:
 1250 014c B1F80120 		ldrh	r2, [r1, #1]
 1251 0150 B1F80330 		ldrh	r3, [r1, #3]
 1252 0154 B1F80510 		ldrh	r1, [r1, #5]
 1253 0158 0091     		str	r1, [sp]
 1254 015a 0121     		movs	r1, #1
 1255 015c FFF7FEFF 		bl	_Z16handleCrc32CheckP12ts_channel_s20ts_response_format_ettt
 1256 0160 0120     		movs	r0, #1
 1257 0162 94E7     		b	.L110
 1258              	.L131:
 1259 0164 B1F80120 		ldrh	r2, [r1, #1]
 1260 0168 0121     		movs	r1, #1
 1261 016a FFF7FEFF 		bl	_Z17handleBurnCommandP12ts_channel_s20ts_response_format_et
 1262 016e 0120     		movs	r0, #1
 1263 0170 8DE7     		b	.L110
 1264              	.L132:
 1265 0172 B1F80120 		ldrh	r2, [r1, #1]
 1266 0176 B1F80330 		ldrh	r3, [r1, #3]
 1267 017a B1F80510 		ldrh	r1, [r1, #5]
 1268 017e 0091     		str	r1, [sp]
 1269 0180 0121     		movs	r1, #1
 1270 0182 FFF7FEFF 		bl	_Z21handlePageReadCommandP12ts_channel_s20ts_response_format_ettt
 1271 0186 0120     		movs	r0, #1
 1272 0188 81E7     		b	.L110
 1273              	.L134:
 1274 018a 40F20000 		movw	r0, #:lower16:.LANCHOR0
 1275 018e 40F20001 		movw	r1, #:lower16:.LC4
 1276 0192 40F20002 		movw	r2, #:lower16:.LC41
 1277 0196 C0F20000 		movt	r0, #:upper16:.LANCHOR0
 1278 019a C0F20001 		movt	r1, #:upper16:.LC4
 1279 019e C0F20002 		movt	r2, #:upper16:.LC41
 1280 01a2 FFF7FEFF 		bl	scheduleMsg
 1281 01a6 0120     		movs	r0, #1
 1282 01a8 71E7     		b	.L110
 1283              		.size	_Z27tunerStudioHandleCrcCommandP12ts_channel_sPci, .-_Z27tunerStudioHandleCrcCommandP12ts_ch
ARM GAS  C:\Users\pc\AppData\Local\Temp\ccTtWWKQ.s 			page 24


 1284 01aa 00BFAFF3 		.section	.text._Z21runBinaryProtocolLoopP12ts_channel_sb,"ax",%progbits
 1284      0080
 1285              		.align	2
 1286              		.p2align 4,,15
 1287              		.global	_Z21runBinaryProtocolLoopP12ts_channel_sb
 1288              		.thumb
 1289              		.thumb_func
 1290              		.type	_Z21runBinaryProtocolLoopP12ts_channel_sb, %function
 1291              	_Z21runBinaryProtocolLoopP12ts_channel_sb:
 1292              		@ args = 0, pretend = 0, frame = 16
 1293              		@ frame_needed = 0, uses_anonymous_args = 0
 1294 0000 2DE9F04F 		push	{r4, r5, r6, r7, r8, r9, r10, fp, lr}
 1295 0004 87B0     		sub	sp, sp, #28
 1296 0006 00F10803 		add	r3, r0, #8
 1297 000a 0493     		str	r3, [sp, #16]
 1298 000c 00F10903 		add	r3, r0, #9
 1299 0010 0593     		str	r3, [sp, #20]
 1300 0012 40F20003 		movw	r3, #:lower16:.LANCHOR9
 1301 0016 40F20004 		movw	r4, #:lower16:.LANCHOR1
 1302 001a 40F20009 		movw	r9, #:lower16:.LANCHOR10
 1303 001e C0F20003 		movt	r3, #:upper16:.LANCHOR9
 1304 0022 0646     		mov	r6, r0
 1305 0024 0D46     		mov	r5, r1
 1306 0026 C0F20004 		movt	r4, #:upper16:.LANCHOR1
 1307 002a 0393     		str	r3, [sp, #12]
 1308 002c C0F20009 		movt	r9, #:upper16:.LANCHOR10
 1309              	.L137:
 1310 0030 FFF7FEFF 		bl	_Z16isSerialOverUartv
 1311 0034 8542     		cmp	r5, r0
 1312 0036 09D0     		beq	.L139
 1313              	.L162:
 1314 0038 FFF7FEFF 		bl	is_usb_serial_ready
 1315 003c 30B9     		cbnz	r0, .L139
 1316 003e 0A20     		movs	r0, #10
 1317 0040 FFF7FEFF 		bl	chThdSleep
 1318 0044 FFF7FEFF 		bl	_Z16isSerialOverUartv
 1319 0048 8542     		cmp	r5, r0
 1320 004a F5D1     		bne	.L162
 1321              	.L139:
 1322 004c 3068     		ldr	r0, [r6]
 1323 004e 626A     		ldr	r2, [r4, #36]
 1324 0050 0368     		ldr	r3, [r0]
 1325 0052 0132     		adds	r2, r2, #1
 1326 0054 40F20001 		movw	r1, #:lower16:.LANCHOR9
 1327 0058 DF69     		ldr	r7, [r3, #28]
 1328 005a 6262     		str	r2, [r4, #36]
 1329 005c C0F20001 		movt	r1, #:upper16:.LANCHOR9
 1330 0060 0122     		movs	r2, #1
 1331 0062 40F6B833 		movw	r3, #3000
 1332 0066 B847     		blx	r7
 1333 0068 0128     		cmp	r0, #1
 1334 006a 0746     		mov	r7, r0
 1335 006c E0D1     		bne	.L137
 1336 006e 039B     		ldr	r3, [sp, #12]
 1337 0070 3046     		mov	r0, r6
 1338 0072 1978     		ldrb	r1, [r3]	@ zero_extendqisi2
 1339 0074 FFF7FEFF 		bl	_Z18handlePlainCommandP12ts_channel_sh
ARM GAS  C:\Users\pc\AppData\Local\Temp\ccTtWWKQ.s 			page 25


 1340 0078 8046     		mov	r8, r0
 1341 007a 0028     		cmp	r0, #0
 1342 007c D8D1     		bne	.L137
 1343 007e 3068     		ldr	r0, [r6]
 1344 0080 0368     		ldr	r3, [r0]
 1345 0082 40F20001 		movw	r1, #:lower16:.LANCHOR10
 1346 0086 3A46     		mov	r2, r7
 1347 0088 C0F20001 		movt	r1, #:upper16:.LANCHOR10
 1348 008c DF69     		ldr	r7, [r3, #28]
 1349 008e 40F6B833 		movw	r3, #3000
 1350 0092 B847     		blx	r7
 1351 0094 0128     		cmp	r0, #1
 1352 0096 06D0     		beq	.L142
 1353 0098 40F20000 		movw	r0, #:lower16:.LC44
 1354 009c C0F20000 		movt	r0, #:upper16:.LC44
 1355 00a0 FFF7FEFF 		bl	_Z16tunerStudioErrorPKc
 1356 00a4 C4E7     		b	.L137
 1357              	.L142:
 1358 00a6 039B     		ldr	r3, [sp, #12]
 1359 00a8 99F80020 		ldrb	r2, [r9]	@ zero_extendqisi2
 1360 00ac 1F78     		ldrb	r7, [r3]	@ zero_extendqisi2
 1361 00ae 47F60A63 		movw	r3, #32266
 1362 00b2 02EB0727 		add	r7, r2, r7, lsl #8
 1363 00b6 9F42     		cmp	r7, r3
 1364 00b8 4FD0     		beq	.L163
 1365 00ba 7B1E     		subs	r3, r7, #1
 1366 00bc B3F5927F 		cmp	r3, #292
 1367 00c0 33D8     		bhi	.L164
 1368 00c2 3368     		ldr	r3, [r6]
 1369 00c4 1968     		ldr	r1, [r3]
 1370 00c6 0246     		mov	r2, r0
 1371 00c8 D1F81CC0 		ldr	ip, [r1, #28]
 1372 00cc 0499     		ldr	r1, [sp, #16]
 1373 00ce 1846     		mov	r0, r3
 1374 00d0 40F6B833 		movw	r3, #3000
 1375 00d4 E047     		blx	ip
 1376 00d6 0128     		cmp	r0, #1
 1377 00d8 48D1     		bne	.L165
 1378 00da 96F80880 		ldrb	r8, [r6, #8]	@ zero_extendqisi2
 1379 00de A8F14F03 		sub	r3, r8, #79
 1380 00e2 DBB2     		uxtb	r3, r3
 1381 00e4 042B     		cmp	r3, #4
 1382 00e6 48D9     		bls	.L146
 1383 00e8 A8F14203 		sub	r3, r8, #66
 1384 00ec DBB2     		uxtb	r3, r3
 1385 00ee 012B     		cmp	r3, #1
 1386 00f0 43D9     		bls	.L146
 1387 00f2 B8F1570F 		cmp	r8, #87
 1388 00f6 40D0     		beq	.L146
 1389 00f8 08F0FD03 		and	r3, r8, #253
 1390 00fc 452B     		cmp	r3, #69
 1391 00fe 3CD0     		beq	.L146
 1392 0100 B8F16B0F 		cmp	r8, #107
 1393 0104 39D0     		beq	.L146
 1394 0106 40F20000 		movw	r0, #:lower16:.LANCHOR0
 1395 010a 40F20001 		movw	r1, #:lower16:.LC54
 1396 010e 4246     		mov	r2, r8
ARM GAS  C:\Users\pc\AppData\Local\Temp\ccTtWWKQ.s 			page 26


 1397 0110 C0F20000 		movt	r0, #:upper16:.LANCHOR0
 1398 0114 C0F20001 		movt	r1, #:upper16:.LC54
 1399 0118 FFF7FEFF 		bl	scheduleMsg
 1400 011c 0022     		movs	r2, #0
 1401 011e 3046     		mov	r0, r6
 1402 0120 1346     		mov	r3, r2
 1403 0122 8221     		movs	r1, #130
 1404 0124 FFF7FEFF 		bl	_Z25tunerStudioWriteCrcPacketP12ts_channel_shPKvt
 1405 0128 82E7     		b	.L137
 1406              	.L164:
 1407 012a 40F20000 		movw	r0, #:lower16:.LANCHOR0
 1408 012e 40F20001 		movw	r1, #:lower16:.LC45
 1409 0132 3A46     		mov	r2, r7
 1410 0134 C0F20001 		movt	r1, #:upper16:.LC45
 1411 0138 C0F20000 		movt	r0, #:upper16:.LANCHOR0
 1412 013c FFF7FEFF 		bl	scheduleMsg
 1413 0140 40F20000 		movw	r0, #:lower16:.LC46
 1414 0144 C0F20000 		movt	r0, #:upper16:.LC46
 1415 0148 FFF7FEFF 		bl	_Z16tunerStudioErrorPKc
 1416 014c 3046     		mov	r0, r6
 1417 014e 4246     		mov	r2, r8
 1418 0150 4346     		mov	r3, r8
 1419 0152 8221     		movs	r1, #130
 1420 0154 FFF7FEFF 		bl	_Z25tunerStudioWriteCrcPacketP12ts_channel_shPKvt
 1421 0158 6AE7     		b	.L137
 1422              	.L163:
 1423 015a 40F20001 		movw	r1, #:lower16:.LANCHOR11
 1424 015e C0F20001 		movt	r1, #:upper16:.LANCHOR11
 1425 0162 3046     		mov	r0, r6
 1426 0164 0222     		movs	r2, #2
 1427 0166 FFF7FEFF 		bl	_Z20tunerStudioWriteDataP12ts_channel_sPKhi
 1428 016a 61E7     		b	.L137
 1429              	.L165:
 1430 016c 40F20000 		movw	r0, #:lower16:.LC47
 1431 0170 C0F20000 		movt	r0, #:upper16:.LC47
 1432 0174 FFF7FEFF 		bl	_Z16tunerStudioErrorPKc
 1433 0178 5AE7     		b	.L137
 1434              	.L146:
 1435 017a 3068     		ldr	r0, [r6]
 1436 017c 0599     		ldr	r1, [sp, #20]
 1437 017e 0368     		ldr	r3, [r0]
 1438 0180 07F1030A 		add	r10, r7, #3
 1439 0184 D3F81CC0 		ldr	ip, [r3, #28]
 1440 0188 5246     		mov	r2, r10
 1441 018a 40F6B833 		movw	r3, #3000
 1442 018e E047     		blx	ip
 1443 0190 5045     		cmp	r0, r10
 1444 0192 8346     		mov	fp, r0
 1445 0194 1AD0     		beq	.L166
 1446 0196 40F20000 		movw	r0, #:lower16:.LANCHOR0
 1447 019a 40F20001 		movw	r1, #:lower16:.LC48
 1448 019e 5A46     		mov	r2, fp
 1449 01a0 5346     		mov	r3, r10
 1450 01a2 C0F20001 		movt	r1, #:upper16:.LC48
 1451 01a6 CDF80080 		str	r8, [sp]
 1452 01aa C0F20000 		movt	r0, #:upper16:.LANCHOR0
 1453 01ae FFF7FEFF 		bl	scheduleMsg
ARM GAS  C:\Users\pc\AppData\Local\Temp\ccTtWWKQ.s 			page 27


 1454 01b2 40F20000 		movw	r0, #:lower16:.LC49
 1455 01b6 C0F20000 		movt	r0, #:upper16:.LC49
 1456 01ba FFF7FEFF 		bl	_Z16tunerStudioErrorPKc
 1457 01be 0022     		movs	r2, #0
 1458 01c0 3046     		mov	r0, r6
 1459 01c2 1346     		mov	r3, r2
 1460 01c4 8021     		movs	r1, #128
 1461 01c6 FFF7FEFF 		bl	_Z25tunerStudioWriteCrcPacketP12ts_channel_shPKvt
 1462 01ca 31E7     		b	.L137
 1463              	.L166:
 1464 01cc 07F10803 		add	r3, r7, #8
 1465 01d0 0498     		ldr	r0, [sp, #16]
 1466 01d2 F358     		ldr	r3, [r6, r3]
 1467 01d4 3946     		mov	r1, r7
 1468 01d6 93FA83FA 		rev	r10, r3
 1469 01da FFF7FEFF 		bl	crc32
 1470 01de 5045     		cmp	r0, r10
 1471 01e0 8446     		mov	ip, r0
 1472 01e2 2BD0     		beq	.L148
 1473 01e4 B344     		add	fp, fp, r6
 1474 01e6 3744     		add	r7, r7, r6
 1475 01e8 9BF80810 		ldrb	r1, [fp, #8]	@ zero_extendqisi2
 1476 01ec 3A7A     		ldrb	r2, [r7, #8]	@ zero_extendqisi2
 1477 01ee 7B7A     		ldrb	r3, [r7, #9]	@ zero_extendqisi2
 1478 01f0 BF7A     		ldrb	r7, [r7, #10]	@ zero_extendqisi2
 1479 01f2 0191     		str	r1, [sp, #4]
 1480 01f4 40F20000 		movw	r0, #:lower16:.LANCHOR0
 1481 01f8 40F20001 		movw	r1, #:lower16:.LC50
 1482 01fc 0097     		str	r7, [sp]
 1483 01fe C0F20000 		movt	r0, #:upper16:.LANCHOR0
 1484 0202 C0F20001 		movt	r1, #:upper16:.LC50
 1485 0206 CDF808C0 		str	ip, [sp, #8]
 1486 020a FFF7FEFF 		bl	scheduleMsg
 1487 020e DDF808C0 		ldr	ip, [sp, #8]
 1488 0212 327A     		ldrb	r2, [r6, #8]	@ zero_extendqisi2
 1489 0214 CDF800A0 		str	r10, [sp]
 1490 0218 40F20000 		movw	r0, #:lower16:.LANCHOR0
 1491 021c 40F20001 		movw	r1, #:lower16:.LC51
 1492 0220 6346     		mov	r3, ip
 1493 0222 C0F20000 		movt	r0, #:upper16:.LANCHOR0
 1494 0226 C0F20001 		movt	r1, #:upper16:.LC51
 1495 022a FFF7FEFF 		bl	scheduleMsg
 1496 022e 40F20000 		movw	r0, #:lower16:.LC52
 1497 0232 C0F20000 		movt	r0, #:upper16:.LC52
 1498 0236 FFF7FEFF 		bl	_Z16tunerStudioErrorPKc
 1499 023a F9E6     		b	.L137
 1500              	.L148:
 1501 023c 3A46     		mov	r2, r7
 1502 023e 3046     		mov	r0, r6
 1503 0240 0499     		ldr	r1, [sp, #16]
 1504 0242 FFF7FEFF 		bl	_Z27tunerStudioHandleCrcCommandP12ts_channel_sPci
 1505 0246 0028     		cmp	r0, #0
 1506 0248 7FF4F2AE 		bne	.L137
 1507 024c 40F20000 		movw	r0, #:lower16:.LC53
 1508 0250 4146     		mov	r1, r8
 1509 0252 4246     		mov	r2, r8
 1510 0254 C0F20000 		movt	r0, #:upper16:.LC53
ARM GAS  C:\Users\pc\AppData\Local\Temp\ccTtWWKQ.s 			page 28


 1511 0258 FFF7FEFF 		bl	print
 1512 025c E8E6     		b	.L137
 1513              		.size	_Z21runBinaryProtocolLoopP12ts_channel_sb, .-_Z21runBinaryProtocolLoopP12ts_channel_sb
 1514 025e 00BF     		.section	.text._ZL18tsThreadEntryPointPv,"ax",%progbits
 1515              		.align	2
 1516              		.p2align 4,,15
 1517              		.thumb
 1518              		.thumb_func
 1519              		.type	_ZL18tsThreadEntryPointPv, %function
 1520              	_ZL18tsThreadEntryPointPv:
 1521              		@ Volatile: function does not return.
 1522              		@ args = 0, pretend = 0, frame = 0
 1523              		@ frame_needed = 0, uses_anonymous_args = 0
 1524 0000 40F20002 		movw	r2, #:lower16:rlist
 1525 0004 C0F20002 		movt	r2, #:upper16:rlist
 1526 0008 08B5     		push	{r3, lr}
 1527 000a 9269     		ldr	r2, [r2, #24]
 1528 000c 40F20003 		movw	r3, #:lower16:.LC55
 1529 0010 C0F20003 		movt	r3, #:upper16:.LC55
 1530 0014 9361     		str	r3, [r2, #24]
 1531 0016 FFF7FEFF 		bl	_Z11startTsPortv
 1532 001a 40F20000 		movw	r0, #:lower16:.LANCHOR12
 1533 001e C0F20000 		movt	r0, #:upper16:.LANCHOR12
 1534 0022 0021     		movs	r1, #0
 1535 0024 FFF7FEFF 		bl	_Z21runBinaryProtocolLoopP12ts_channel_sb
 1536              		.size	_ZL18tsThreadEntryPointPv, .-_ZL18tsThreadEntryPointPv
 1537 0028 AFF30080 		.section	.text._Z28startTunerStudioConnectivityv,"ax",%progbits
 1537      AFF30080 
 1538              		.align	2
 1539              		.p2align 4,,15
 1540              		.global	_Z28startTunerStudioConnectivityv
 1541              		.thumb
 1542              		.thumb_func
 1543              		.type	_Z28startTunerStudioConnectivityv, %function
 1544              	_Z28startTunerStudioConnectivityv:
 1545              		@ args = 0, pretend = 0, frame = 0
 1546              		@ frame_needed = 0, uses_anonymous_args = 0
 1547 0000 40F20002 		movw	r2, #:lower16:.LANCHOR1
 1548 0004 C0F20002 		movt	r2, #:upper16:.LANCHOR1
 1549 0008 1346     		mov	r3, r2
 1550 000a 70B5     		push	{r4, r5, r6, lr}
 1551 000c 0024     		movs	r4, #0
 1552 000e 43F8044B 		str	r4, [r3], #4
 1553 0012 0433     		adds	r3, r3, #4
 1554 0014 5460     		str	r4, [r2, #4]
 1555 0016 43F8044B 		str	r4, [r3], #4
 1556 001a 43F8044B 		str	r4, [r3], #4
 1557 001e 43F8044B 		str	r4, [r3], #4
 1558 0022 43F8044B 		str	r4, [r3], #4
 1559 0026 43F8044B 		str	r4, [r3], #4
 1560 002a 43F8044B 		str	r4, [r3], #4
 1561 002e 43F8044B 		str	r4, [r3], #4
 1562 0032 40F20000 		movw	r0, #:lower16:.LANCHOR3
 1563 0036 82B0     		sub	sp, sp, #8
 1564 0038 1C60     		str	r4, [r3]
 1565 003a 43F6B832 		movw	r2, #15288
 1566 003e 1F49     		ldr	r1, .L169
ARM GAS  C:\Users\pc\AppData\Local\Temp\ccTtWWKQ.s 			page 29


 1567 0040 C0F20000 		movt	r0, #:upper16:.LANCHOR3
 1568 0044 FFF7FEFF 		bl	memcpy
 1569 0048 40F20000 		movw	r0, #:lower16:.LC56
 1570 004c 40F20001 		movw	r1, #:lower16:_Z12printTsStatsv
 1571 0050 C0F20000 		movt	r0, #:upper16:.LC56
 1572 0054 C0F20001 		movt	r1, #:upper16:_Z12printTsStatsv
 1573 0058 FFF7FEFF 		bl	addConsoleAction
 1574 005c 40F20000 		movw	r0, #:lower16:.LC57
 1575 0060 40F20001 		movw	r1, #:lower16:_ZL7resetTsv
 1576 0064 C0F20000 		movt	r0, #:upper16:.LC57
 1577 0068 C0F20001 		movt	r1, #:upper16:_ZL7resetTsv
 1578 006c FFF7FEFF 		bl	addConsoleAction
 1579 0070 40F20000 		movw	r0, #:lower16:.LC58
 1580 0074 40F20001 		movw	r1, #:lower16:_ZL10setTsSpeedi
 1581 0078 C0F20001 		movt	r1, #:upper16:_ZL10setTsSpeedi
 1582 007c C0F20000 		movt	r0, #:upper16:.LC58
 1583 0080 FFF7FEFF 		bl	addConsoleActionI
 1584 0084 40F20005 		movw	r5, #:lower16:.LANCHOR12
 1585 0088 FFF7FEFF 		bl	_Z17getTsSerialDevicev
 1586 008c C0F20005 		movt	r5, #:upper16:.LANCHOR12
 1587 0090 40F20006 		movw	r6, #:lower16:.LANCHOR13
 1588 0094 2860     		str	r0, [r5]
 1589 0096 40F20003 		movw	r3, #:lower16:_ZL18tsThreadEntryPointPv
 1590 009a 40F20000 		movw	r0, #:lower16:.LANCHOR14
 1591 009e 0094     		str	r4, [sp]
 1592 00a0 C0F20006 		movt	r6, #:upper16:.LANCHOR13
 1593 00a4 C0F20003 		movt	r3, #:upper16:_ZL18tsThreadEntryPointPv
 1594 00a8 4FF4C161 		mov	r1, #1544
 1595 00ac 4022     		movs	r2, #64
 1596 00ae C0F20000 		movt	r0, #:upper16:.LANCHOR14
 1597 00b2 6E60     		str	r6, [r5, #4]
 1598 00b4 FFF7FEFF 		bl	chThdCreateStatic
 1599 00b8 02B0     		add	sp, sp, #8
 1600              		@ sp needed
 1601 00ba 70BD     		pop	{r4, r5, r6, pc}
 1602              	.L170:
 1603              		.align	2
 1604              	.L169:
 1605 00bc 08000000 		.word	persistentState+8
 1606              		.size	_Z28startTunerStudioConnectivityv, .-_Z28startTunerStudioConnectivityv
 1607              		.section	.text.startup._GLOBAL__sub_I_tsLogger,"ax",%progbits
 1608              		.align	2
 1609              		.p2align 4,,15
 1610              		.thumb
 1611              		.thumb_func
 1612              		.type	_GLOBAL__sub_I_tsLogger, %function
 1613              	_GLOBAL__sub_I_tsLogger:
 1614              		@ args = 0, pretend = 0, frame = 0
 1615              		@ frame_needed = 0, uses_anonymous_args = 0
 1616              		@ link register save eliminated.
 1617 0000 40F20000 		movw	r0, #:lower16:.LANCHOR0
 1618 0004 40F20001 		movw	r1, #:lower16:.LC59
 1619 0008 C0F20000 		movt	r0, #:upper16:.LANCHOR0
 1620 000c C0F20001 		movt	r1, #:upper16:.LC59
 1621 0010 FFF7FEBF 		b	_ZN18LoggingWithStorageC1EPKc
 1622              		.size	_GLOBAL__sub_I_tsLogger, .-_GLOBAL__sub_I_tsLogger
 1623 0014 AFF30080 		.section	.init_array,"aw",%init_array
ARM GAS  C:\Users\pc\AppData\Local\Temp\ccTtWWKQ.s 			page 30


 1623      AFF30080 
 1623      AFF30080 
 1624              		.align	2
 1625 0000 00000000 		.word	_GLOBAL__sub_I_tsLogger(target1)
 1626              		.global	currentPageId
 1627              		.global	configWorkingCopy
 1628              		.global	tsOutputChannels
 1629              		.global	tsState
 1630              		.global	tsChannel
 1631              		.global	tsLogger
 1632              		.section	.bss._ZL10secondByte,"aw",%nobits
 1633              		.set	.LANCHOR10,. + 0
 1634              		.type	_ZL10secondByte, %object
 1635              		.size	_ZL10secondByte, 1
 1636              	_ZL10secondByte:
 1637 0000 00       		.space	1
 1638              		.section	.bss._ZL17writeChunkRequest,"aw",%nobits
 1639              		.align	2
 1640              		.set	.LANCHOR7,. + 0
 1641              		.type	_ZL17writeChunkRequest, %object
 1642              		.size	_ZL17writeChunkRequest, 6
 1643              	_ZL17writeChunkRequest:
 1644 0000 00000000 		.space	6
 1644      0000
 1645 0006 0000     		.section	.bss._ZL9firstByte,"aw",%nobits
 1646              		.set	.LANCHOR9,. + 0
 1647              		.type	_ZL9firstByte, %object
 1648              		.size	_ZL9firstByte, 1
 1649              	_ZL9firstByte:
 1650 0000 00       		.space	1
 1651              		.section	.bss.tsOutputChannels,"aw",%nobits
 1652              		.align	2
 1653              		.set	.LANCHOR5,. + 0
 1654              		.type	tsOutputChannels, %object
 1655              		.size	tsOutputChannels, 196
 1656              	tsOutputChannels:
 1657 0000 00000000 		.space	196
 1657      00000000 
 1657      00000000 
 1657      00000000 
 1657      00000000 
 1658              		.section	.bss._ZL16tsCrcWriteBuffer,"aw",%nobits
 1659              		.align	2
 1660              		.set	.LANCHOR13,. + 0
 1661              		.type	_ZL16tsCrcWriteBuffer, %object
 1662              		.size	_ZL16tsCrcWriteBuffer, 300
 1663              	_ZL16tsCrcWriteBuffer:
 1664 0000 00000000 		.space	300
 1664      00000000 
 1664      00000000 
 1664      00000000 
 1664      00000000 
 1665              		.section	.bss._ZL6pageIn,"aw",%nobits
 1666              		.align	1
 1667              		.set	.LANCHOR6,. + 0
 1668              		.type	_ZL6pageIn, %object
 1669              		.size	_ZL6pageIn, 2
ARM GAS  C:\Users\pc\AppData\Local\Temp\ccTtWWKQ.s 			page 31


 1670              	_ZL6pageIn:
 1671 0000 0000     		.space	2
 1672              		.section	.bss.tsLogger,"aw",%nobits
 1673              		.align	2
 1674              		.set	.LANCHOR0,. + 0
 1675              		.type	tsLogger, %object
 1676              		.size	tsLogger, 260
 1677              	tsLogger:
 1678 0000 00000000 		.space	260
 1678      00000000 
 1678      00000000 
 1678      00000000 
 1678      00000000 
 1679              		.section	.bss._ZL11readRequest,"aw",%nobits
 1680              		.align	2
 1681              		.set	.LANCHOR8,. + 0
 1682              		.type	_ZL11readRequest, %object
 1683              		.size	_ZL11readRequest, 6
 1684              	_ZL11readRequest:
 1685 0000 00000000 		.space	6
 1685      0000
 1686 0006 0000     		.section	.rodata.str1.4,"aMS",%progbits,1
 1687              		.align	2
 1688              	.LC0:
 1689 0000 54756E65 		.ascii	"TunerStudio size=%d / total=%d / errors=%d / H=%d /"
 1689      72537475 
 1689      64696F20 
 1689      73697A65 
 1689      3D256420 
 1690 0033 204F3D25 		.ascii	" O=%d / P=%d / B=%d\000"
 1690      64202F20 
 1690      503D2564 
 1690      202F2042 
 1690      3D256400 
 1691 0047 00       		.space	1
 1692              	.LC1:
 1693 0048 54756E65 		.ascii	"TunerStudio W=%d / C=%d / P=%d / page=%d\000"
 1693      72537475 
 1693      64696F20 
 1693      573D2564 
 1693      202F2043 
 1694 0071 000000   		.space	3
 1695              	.LC2:
 1696 0074 54532052 		.ascii	"TS RX on %s%d/TX on %s%d @%d\000"
 1696      58206F6E 
 1696      20257325 
 1696      642F5458 
 1696      206F6E20 
 1697 0091 000000   		.space	3
 1698              	.LC3:
 1699 0094 6170706C 		.ascii	"applying soft change from %d length %d\000"
 1699      79696E67 
 1699      20736F66 
 1699      74206368 
 1699      616E6765 
 1700 00bb 00       		.space	1
 1701              	.LC4:
ARM GAS  C:\Users\pc\AppData\Local\Temp\ccTtWWKQ.s 			page 32


 1702 00bc 257300   		.ascii	"%s\000"
 1703 00bf 00       		.space	1
 1704              	.LC5:
 1705 00c0 50414745 		.ascii	"PAGE %d\000"
 1705      20256400 
 1706              	.LC6:
 1707 00c8 43524333 		.ascii	"CRC32 request: pageId %d offset %d size %d\000"
 1707      32207265 
 1707      71756573 
 1707      743A2070 
 1707      61676549 
 1708 00f3 00       		.space	1
 1709              	.LC7:
 1710 00f4 43524333 		.ascii	"CRC32 response: %x\000"
 1710      32207265 
 1710      73706F6E 
 1710      73653A20 
 1710      257800
 1711 0107 00       		.space	1
 1712              	.LC8:
 1713 0108 676F7420 		.ascii	"got B (Burn) %s\000"
 1713      42202842 
 1713      75726E29 
 1713      20257300 
 1714              	.LC9:
 1715 0118 43524300 		.ascii	"CRC\000"
 1716              	.LC10:
 1717 011c 4255524E 		.ascii	"BURN in %dms\000"
 1717      20696E20 
 1717      25646D73 
 1717      00
 1718 0129 000000   		.space	3
 1719              	.LC11:
 1720 012c 706C6169 		.ascii	"plain\000"
 1720      6E00
 1721 0132 0000     		.space	2
 1722              	.LC12:
 1723 0134 57524954 		.ascii	"WRITE CHUNK mode=%d p=%d o=%d s=%d\000"
 1723      45204348 
 1723      554E4B20 
 1723      6D6F6465 
 1723      3D256420 
 1724 0157 00       		.space	1
 1725              	.LC13:
 1726 0158 4552524F 		.ascii	"ERROR invalid offset %d\000"
 1726      5220696E 
 1726      76616C69 
 1726      64206F66 
 1726      66736574 
 1727              	.LC14:
 1728 0170 4552524F 		.ascii	"ERROR: out of range\000"
 1728      523A206F 
 1728      7574206F 
 1728      66207261 
 1728      6E676500 
 1729              	.LC15:
 1730 0184 4552524F 		.ascii	"ERROR: unexpected count\000"
ARM GAS  C:\Users\pc\AppData\Local\Temp\ccTtWWKQ.s 			page 33


 1730      523A2075 
 1730      6E657870 
 1730      65637465 
 1730      6420636F 
 1731              	.LC16:
 1732 019c 4552524F 		.ascii	"ERROR unexpected count %d\000"
 1732      5220756E 
 1732      65787065 
 1732      63746564 
 1732      20636F75 
 1733 01b6 0000     		.space	2
 1734              	.LC17:
 1735 01b8 676F7420 		.ascii	"got W (Write)\000"
 1735      57202857 
 1735      72697465 
 1735      2900
 1736 01c6 0000     		.space	2
 1737              	.LC18:
 1738 01c8 4552524F 		.ascii	"ERROR: out of range2\000"
 1738      523A206F 
 1738      7574206F 
 1738      66207261 
 1738      6E676532 
 1739 01dd 000000   		.space	3
 1740              	.LC19:
 1741 01e0 4552524F 		.ascii	"ERROR offset %d\000"
 1741      52206F66 
 1741      66736574 
 1741      20256400 
 1742              	.LC20:
 1743 01f0 70616765 		.ascii	"page %d offset %d: value=%d\000"
 1743      20256420 
 1743      6F666673 
 1743      65742025 
 1743      643A2076 
 1744              	.LC21:
 1745 020c 52454144 		.ascii	"READ mode=%d page=%d offset=%d size=%d\000"
 1745      206D6F64 
 1745      653D2564 
 1745      20706167 
 1745      653D2564 
 1746 0233 00       		.space	1
 1747              	.LC22:
 1748 0234 4552524F 		.ascii	"ERROR: invalid page number\000"
 1748      523A2069 
 1748      6E76616C 
 1748      69642070 
 1748      61676520 
 1749 024f 00       		.space	1
 1750              	.LC23:
 1751 0250 696E7661 		.ascii	"invalid offset/count %d/%d\000"
 1751      6C696420 
 1751      6F666673 
 1751      65742F63 
 1751      6F756E74 
 1752 026b 00       		.space	1
 1753              	.LC24:
ARM GAS  C:\Users\pc\AppData\Local\Temp\ccTtWWKQ.s 			page 34


 1754 026c 676F7420 		.ascii	"got S/H (queryCommand) mode=%d\000"
 1754      532F4820 
 1754      28717565 
 1754      7279436F 
 1754      6D6D616E 
 1755 028b 00       		.space	1
 1756              	.LC25:
 1757 028c 4D536869 		.ascii	"MShift v0.01\000"
 1757      66742076 
 1757      302E3031 
 1757      00
 1758 0299 000000   		.space	3
 1759              	.LC26:
 1760 029c 676F7420 		.ascii	"got T (Test)\000"
 1760      54202854 
 1760      65737429 
 1760      00
 1761 02a9 000000   		.space	3
 1762              	.LC27:
 1763 02ac 38323230 		.ascii	"8220\000"
 1763      00
 1764 02b1 000000   		.space	3
 1765              	.LC28:
 1766 02b4 2074735F 		.ascii	" ts_p_alive\015\012\000"
 1766      705F616C 
 1766      6976650D 
 1766      0A00
 1767 02c2 0000     		.space	2
 1768              	.LC29:
 1769 02c4 476F7420 		.ascii	"Got naked Query command\000"
 1769      6E616B65 
 1769      64205175 
 1769      65727920 
 1769      636F6D6D 
 1770              	.LC30:
 1771 02dc 4552524F 		.ascii	"ERROR: not enough for PAGE\000"
 1771      523A206E 
 1771      6F742065 
 1771      6E6F7567 
 1771      6820666F 
 1772 02f7 00       		.space	1
 1773              	.LC31:
 1774 02f8 476F7420 		.ascii	"Got naked BURN\000"
 1774      6E616B65 
 1774      64204255 
 1774      524E00
 1775 0307 00       		.space	1
 1776              	.LC32:
 1777 0308 4552524F 		.ascii	"ERROR: Not enough for plain burn\000"
 1777      523A204E 
 1777      6F742065 
 1777      6E6F7567 
 1777      6820666F 
 1778 0329 000000   		.space	3
 1779              	.LC33:
 1780 032c 476F7420 		.ascii	"Got naked CHUNK_WRITE\000"
 1780      6E616B65 
ARM GAS  C:\Users\pc\AppData\Local\Temp\ccTtWWKQ.s 			page 35


 1780      64204348 
 1780      554E4B5F 
 1780      57524954 
 1781 0342 0000     		.space	2
 1782              	.LC34:
 1783 0344 4552524F 		.ascii	"ERROR: Not enough for plain chunk write header: %d\000"
 1783      523A204E 
 1783      6F742065 
 1783      6E6F7567 
 1783      6820666F 
 1784 0377 00       		.space	1
 1785              	.LC35:
 1786 0378 4552524F 		.ascii	"ERROR: Not enough for plain chunk write content: %d"
 1786      523A204E 
 1786      6F742065 
 1786      6E6F7567 
 1786      6820666F 
 1787 03ab 20776869 		.ascii	" while expecting %d\000"
 1787      6C652065 
 1787      78706563 
 1787      74696E67 
 1787      20256400 
 1788 03bf 00       		.space	1
 1789              	.LC36:
 1790 03c0 4E6F7420 		.ascii	"Not enough for plain read header\000"
 1790      656E6F75 
 1790      67682066 
 1790      6F722070 
 1790      6C61696E 
 1791 03e1 000000   		.space	3
 1792              	.LC37:
 1793 03e4 69676E6F 		.ascii	"ignoring LEGACY_HELLO_COMMAND\000"
 1793      72696E67 
 1793      204C4547 
 1793      4143595F 
 1793      48454C4C 
 1794 0402 0000     		.space	2
 1795              	.LC38:
 1796 0404 6E6F7420 		.ascii	"not ignoring F\000"
 1796      69676E6F 
 1796      72696E67 
 1796      204600
 1797 0413 00       		.space	1
 1798              	.LC39:
 1799 0414 30303100 		.ascii	"001\000"
 1800              	.LC40:
 1801 0418 676F7420 		.ascii	"got Query command\000"
 1801      51756572 
 1801      7920636F 
 1801      6D6D616E 
 1801      6400
 1802 042a 0000     		.space	2
 1803              	.LC41:
 1804 042c 69676E6F 		.ascii	"ignoring Q\000"
 1804      72696E67 
 1804      205100
 1805 0437 00       		.space	1
ARM GAS  C:\Users\pc\AppData\Local\Temp\ccTtWWKQ.s 			page 36


 1806              	.LC42:
 1807 0438 69676E6F 		.ascii	"ignoring F\000"
 1807      72696E67 
 1807      204600
 1808 0443 00       		.space	1
 1809              	.LC43:
 1810 0444 4552524F 		.ascii	"ERROR: ignoring unexpected command\000"
 1810      523A2069 
 1810      676E6F72 
 1810      696E6720 
 1810      756E6578 
 1811 0467 00       		.space	1
 1812              	.LC44:
 1813 0468 4552524F 		.ascii	"ERROR: no second\000"
 1813      523A206E 
 1813      6F207365 
 1813      636F6E64 
 1813      00
 1814 0479 000000   		.space	3
 1815              	.LC45:
 1816 047c 54756E65 		.ascii	"TunerStudio: invalid size: %d\000"
 1816      72537475 
 1816      64696F3A 
 1816      20696E76 
 1816      616C6964 
 1817 049a 0000     		.space	2
 1818              	.LC46:
 1819 049c 4552524F 		.ascii	"ERROR: CRC header size\000"
 1819      523A2043 
 1819      52432068 
 1819      65616465 
 1819      72207369 
 1820 04b3 00       		.space	1
 1821              	.LC47:
 1822 04b4 4552524F 		.ascii	"ERROR: did not receive command\000"
 1822      523A2064 
 1822      6964206E 
 1822      6F742072 
 1822      65636569 
 1823 04d3 00       		.space	1
 1824              	.LC48:
 1825 04d4 476F7420 		.ascii	"Got only %d bytes while expecting %d for command %c"
 1825      6F6E6C79 
 1825      20256420 
 1825      62797465 
 1825      73207768 
 1826 0507 00       		.ascii	"\000"
 1827              	.LC49:
 1828 0508 4552524F 		.ascii	"ERROR: not enough bytes in stream\000"
 1828      523A206E 
 1828      6F742065 
 1828      6E6F7567 
 1828      68206279 
 1829 052a 0000     		.space	2
 1830              	.LC50:
 1831 052c 54756E65 		.ascii	"TunerStudio: CRC %x %x %x %x\000"
 1831      72537475 
ARM GAS  C:\Users\pc\AppData\Local\Temp\ccTtWWKQ.s 			page 37


 1831      64696F3A 
 1831      20435243 
 1831      20257820 
 1832 0549 000000   		.space	3
 1833              	.LC51:
 1834 054c 54756E65 		.ascii	"TunerStudio: command %c actual CRC %x/expected %x\000"
 1834      72537475 
 1834      64696F3A 
 1834      20636F6D 
 1834      6D616E64 
 1835 057e 0000     		.space	2
 1836              	.LC52:
 1837 0580 4552524F 		.ascii	"ERROR: CRC issue\000"
 1837      523A2043 
 1837      52432069 
 1837      73737565 
 1837      00
 1838 0591 000000   		.space	3
 1839              	.LC53:
 1840 0594 676F7420 		.ascii	"got unexpected TunerStudio command %x:%c\015\012\000"
 1840      756E6578 
 1840      70656374 
 1840      65642054 
 1840      756E6572 
 1841 05bf 00       		.space	1
 1842              	.LC54:
 1843 05c0 756E6578 		.ascii	"unexpected command %x\000"
 1843      70656374 
 1843      65642063 
 1843      6F6D6D61 
 1843      6E642025 
 1844 05d6 0000     		.space	2
 1845              	.LC55:
 1846 05d8 74756E65 		.ascii	"tunerstudio thread\000"
 1846      72737475 
 1846      64696F20 
 1846      74687265 
 1846      616400
 1847 05eb 00       		.space	1
 1848              	.LC56:
 1849 05ec 7473696E 		.ascii	"tsinfo\000"
 1849      666F00
 1850 05f3 00       		.space	1
 1851              	.LC57:
 1852 05f4 72657365 		.ascii	"reset_ts\000"
 1852      745F7473 
 1852      00
 1853 05fd 000000   		.space	3
 1854              	.LC58:
 1855 0600 7365745F 		.ascii	"set_ts_speed\000"
 1855      74735F73 
 1855      70656564 
 1855      00
 1856 060d 000000   		.space	3
 1857              	.LC59:
 1858 0610 62696E61 		.ascii	"binary\000"
 1858      727900
ARM GAS  C:\Users\pc\AppData\Local\Temp\ccTtWWKQ.s 			page 38


 1859 0617 00       		.section	.data._ZL15BINARY_RESPONSE,"aw",%progbits
 1860              		.align	1
 1861              		.set	.LANCHOR11,. + 0
 1862              		.type	_ZL15BINARY_RESPONSE, %object
 1863              		.size	_ZL15BINARY_RESPONSE, 2
 1864              	_ZL15BINARY_RESPONSE:
 1865 0000 7E0A     		.short	2686
 1866              		.section	.bss._ZL21previousWriteReportMs,"aw",%nobits
 1867              		.align	2
 1868              		.set	.LANCHOR4,. + 0
 1869              		.type	_ZL21previousWriteReportMs, %object
 1870              		.size	_ZL21previousWriteReportMs, 4
 1871              	_ZL21previousWriteReportMs:
 1872 0000 00000000 		.space	4
 1873              		.section	.bss._ZL13tsThreadStack,"aw",%nobits
 1874              		.align	3
 1875              		.set	.LANCHOR14,. + 0
 1876              		.type	_ZL13tsThreadStack, %object
 1877              		.size	_ZL13tsThreadStack, 1544
 1878              	_ZL13tsThreadStack:
 1879 0000 00000000 		.space	1544
 1879      00000000 
 1879      00000000 
 1879      00000000 
 1879      00000000 
 1880              		.section	.bss.configWorkingCopy,"aw",%nobits
 1881              		.align	2
 1882              		.set	.LANCHOR3,. + 0
 1883              		.type	configWorkingCopy, %object
 1884              		.size	configWorkingCopy, 15288
 1885              	configWorkingCopy:
 1886 0000 00000000 		.space	15288
 1886      00000000 
 1886      00000000 
 1886      00000000 
 1886      00000000 
 1887              		.section	.bss.tsState,"aw",%nobits
 1888              		.align	2
 1889              		.set	.LANCHOR1,. + 0
 1890              		.type	tsState, %object
 1891              		.size	tsState, 40
 1892              	tsState:
 1893 0000 00000000 		.space	40
 1893      00000000 
 1893      00000000 
 1893      00000000 
 1893      00000000 
 1894              		.section	.bss.currentPageId,"aw",%nobits
 1895              		.align	1
 1896              		.set	.LANCHOR2,. + 0
 1897              		.type	currentPageId, %object
 1898              		.size	currentPageId, 2
 1899              	currentPageId:
 1900 0000 0000     		.space	2
 1901              		.section	.bss.tsChannel,"aw",%nobits
 1902              		.align	2
 1903              		.set	.LANCHOR12,. + 0
ARM GAS  C:\Users\pc\AppData\Local\Temp\ccTtWWKQ.s 			page 39


 1904              		.type	tsChannel, %object
 1905              		.size	tsChannel, 308
 1906              	tsChannel:
 1907 0000 00000000 		.space	308
 1907      00000000 
 1907      00000000 
 1907      00000000 
 1907      00000000 
 1908              		.ident	"GCC: (Sourcery CodeBench Lite 2013.11-24) 4.8.1"
ARM GAS  C:\Users\pc\AppData\Local\Temp\ccTtWWKQ.s 			page 40


DEFINED SYMBOLS
                            *ABS*:00000000 tunerstudio.cpp
C:\Users\pc\AppData\Local\Temp\ccTtWWKQ.s:17     .text._ZL18printErrorCountersv:00000000 $t
C:\Users\pc\AppData\Local\Temp\ccTtWWKQ.s:22     .text._ZL18printErrorCountersv:00000000 _ZL18printErrorCountersv
C:\Users\pc\AppData\Local\Temp\ccTtWWKQ.s:1889   .bss.tsState:00000000 .LANCHOR1
C:\Users\pc\AppData\Local\Temp\ccTtWWKQ.s:1674   .bss.tsLogger:00000000 .LANCHOR0
C:\Users\pc\AppData\Local\Temp\ccTtWWKQ.s:1688   .rodata.str1.4:00000000 .LC0
C:\Users\pc\AppData\Local\Temp\ccTtWWKQ.s:1896   .bss.currentPageId:00000000 .LANCHOR2
C:\Users\pc\AppData\Local\Temp\ccTtWWKQ.s:1692   .rodata.str1.4:00000048 .LC1
C:\Users\pc\AppData\Local\Temp\ccTtWWKQ.s:64     .text._Z12printTsStatsv:00000000 $t
C:\Users\pc\AppData\Local\Temp\ccTtWWKQ.s:70     .text._Z12printTsStatsv:00000000 _Z12printTsStatsv
C:\Users\pc\AppData\Local\Temp\ccTtWWKQ.s:1695   .rodata.str1.4:00000074 .LC2
C:\Users\pc\AppData\Local\Temp\ccTtWWKQ.s:105    .text._ZL10setTsSpeedi:00000000 $t
C:\Users\pc\AppData\Local\Temp\ccTtWWKQ.s:110    .text._ZL10setTsSpeedi:00000000 _ZL10setTsSpeedi
C:\Users\pc\AppData\Local\Temp\ccTtWWKQ.s:121    .text._ZL7resetTsv:00000000 $t
C:\Users\pc\AppData\Local\Temp\ccTtWWKQ.s:126    .text._ZL7resetTsv:00000000 _ZL7resetTsv
C:\Users\pc\AppData\Local\Temp\ccTtWWKQ.s:148    .text._Z11yellowMagiciii.part.1:00000000 $t
C:\Users\pc\AppData\Local\Temp\ccTtWWKQ.s:153    .text._Z11yellowMagiciii.part.1:00000000 _Z11yellowMagiciii.part.1
C:\Users\pc\AppData\Local\Temp\ccTtWWKQ.s:1698   .rodata.str1.4:00000094 .LC3
C:\Users\pc\AppData\Local\Temp\ccTtWWKQ.s:1882   .bss.configWorkingCopy:00000000 .LANCHOR3
C:\Users\pc\AppData\Local\Temp\ccTtWWKQ.s:178    .text._Z16tunerStudioDebugPKc:00000000 $t
C:\Users\pc\AppData\Local\Temp\ccTtWWKQ.s:184    .text._Z16tunerStudioDebugPKc:00000000 _Z16tunerStudioDebugPKc
C:\Users\pc\AppData\Local\Temp\ccTtWWKQ.s:1701   .rodata.str1.4:000000bc .LC4
C:\Users\pc\AppData\Local\Temp\ccTtWWKQ.s:196    .text._Z18getWorkingPageAddri:00000000 $t
C:\Users\pc\AppData\Local\Temp\ccTtWWKQ.s:202    .text._Z18getWorkingPageAddri:00000000 _Z18getWorkingPageAddri
C:\Users\pc\AppData\Local\Temp\ccTtWWKQ.s:215    .text._Z22getTunerStudioPageSizei:00000000 $t
C:\Users\pc\AppData\Local\Temp\ccTtWWKQ.s:221    .text._Z22getTunerStudioPageSizei:00000000 _Z22getTunerStudioPageSizei
C:\Users\pc\AppData\Local\Temp\ccTtWWKQ.s:233    .text._Z23handlePageSelectCommandP12ts_channel_s20ts_response_format_et:00000000 $t
C:\Users\pc\AppData\Local\Temp\ccTtWWKQ.s:239    .text._Z23handlePageSelectCommandP12ts_channel_s20ts_response_format_et:00000000 _Z23handlePageSelectCommandP12ts_channel_s20ts_response_format_et
C:\Users\pc\AppData\Local\Temp\ccTtWWKQ.s:1704   .rodata.str1.4:000000c0 .LC5
C:\Users\pc\AppData\Local\Temp\ccTtWWKQ.s:268    .text._Z11yellowMagiciii:00000000 $t
C:\Users\pc\AppData\Local\Temp\ccTtWWKQ.s:274    .text._Z11yellowMagiciii:00000000 _Z11yellowMagiciii
C:\Users\pc\AppData\Local\Temp\ccTtWWKQ.s:288    .text._Z16handleCrc32CheckP12ts_channel_s20ts_response_format_ettt:00000000 $t
C:\Users\pc\AppData\Local\Temp\ccTtWWKQ.s:294    .text._Z16handleCrc32CheckP12ts_channel_s20ts_response_format_ettt:00000000 _Z16handleCrc32CheckP12ts_channel_s20ts_response_format_ettt
C:\Users\pc\AppData\Local\Temp\ccTtWWKQ.s:1706   .rodata.str1.4:000000c8 .LC6
C:\Users\pc\AppData\Local\Temp\ccTtWWKQ.s:1709   .rodata.str1.4:000000f4 .LC7
C:\Users\pc\AppData\Local\Temp\ccTtWWKQ.s:362    .text._Z11requestBurnv:00000000 $t
C:\Users\pc\AppData\Local\Temp\ccTtWWKQ.s:368    .text._Z11requestBurnv:00000000 _Z11requestBurnv
C:\Users\pc\AppData\Local\Temp\ccTtWWKQ.s:377    .text._Z17handleBurnCommandP12ts_channel_s20ts_response_format_et:00000000 $t
C:\Users\pc\AppData\Local\Temp\ccTtWWKQ.s:383    .text._Z17handleBurnCommandP12ts_channel_s20ts_response_format_et:00000000 _Z17handleBurnCommandP12ts_channel_s20ts_response_format_et
C:\Users\pc\AppData\Local\Temp\ccTtWWKQ.s:1712   .rodata.str1.4:00000108 .LC8
C:\Users\pc\AppData\Local\Temp\ccTtWWKQ.s:1714   .rodata.str1.4:00000118 .LC9
C:\Users\pc\AppData\Local\Temp\ccTtWWKQ.s:1716   .rodata.str1.4:0000011c .LC10
C:\Users\pc\AppData\Local\Temp\ccTtWWKQ.s:1719   .rodata.str1.4:0000012c .LC11
C:\Users\pc\AppData\Local\Temp\ccTtWWKQ.s:453    .text._Z17handleBurnCommandP12ts_channel_s20ts_response_format_et:000000c8 $d
C:\Users\pc\AppData\Local\Temp\ccTtWWKQ.s:456    .text._Z19syncTunerStudioCopyv:00000000 $t
C:\Users\pc\AppData\Local\Temp\ccTtWWKQ.s:462    .text._Z19syncTunerStudioCopyv:00000000 _Z19syncTunerStudioCopyv
C:\Users\pc\AppData\Local\Temp\ccTtWWKQ.s:475    .text._Z19syncTunerStudioCopyv:00000018 $d
C:\Users\pc\AppData\Local\Temp\ccTtWWKQ.s:478    .text._Z16tunerStudioErrorPKc:00000000 $t
C:\Users\pc\AppData\Local\Temp\ccTtWWKQ.s:484    .text._Z16tunerStudioErrorPKc:00000000 _Z16tunerStudioErrorPKc
C:\Users\pc\AppData\Local\Temp\ccTtWWKQ.s:503    .text._Z23handleWriteChunkCommandP12ts_channel_s20ts_response_format_essPv:00000000 $t
C:\Users\pc\AppData\Local\Temp\ccTtWWKQ.s:509    .text._Z23handleWriteChunkCommandP12ts_channel_s20ts_response_format_essPv:00000000 _Z23handleWriteChunkCommandP12ts_channel_s20ts_response_format_essPv
C:\Users\pc\AppData\Local\Temp\ccTtWWKQ.s:1722   .rodata.str1.4:00000134 .LC12
C:\Users\pc\AppData\Local\Temp\ccTtWWKQ.s:1729   .rodata.str1.4:00000184 .LC15
C:\Users\pc\AppData\Local\Temp\ccTtWWKQ.s:1731   .rodata.str1.4:0000019c .LC16
C:\Users\pc\AppData\Local\Temp\ccTtWWKQ.s:1725   .rodata.str1.4:00000158 .LC13
C:\Users\pc\AppData\Local\Temp\ccTtWWKQ.s:1727   .rodata.str1.4:00000170 .LC14
ARM GAS  C:\Users\pc\AppData\Local\Temp\ccTtWWKQ.s 			page 41


C:\Users\pc\AppData\Local\Temp\ccTtWWKQ.s:608    .text._Z23handleWriteValueCommandP12ts_channel_s20ts_response_format_etth:00000000 $t
C:\Users\pc\AppData\Local\Temp\ccTtWWKQ.s:614    .text._Z23handleWriteValueCommandP12ts_channel_s20ts_response_format_etth:00000000 _Z23handleWriteValueCommandP12ts_channel_s20ts_response_format_etth
C:\Users\pc\AppData\Local\Temp\ccTtWWKQ.s:1734   .rodata.str1.4:000001b8 .LC17
C:\Users\pc\AppData\Local\Temp\ccTtWWKQ.s:1868   .bss._ZL21previousWriteReportMs:00000000 .LANCHOR4
C:\Users\pc\AppData\Local\Temp\ccTtWWKQ.s:1737   .rodata.str1.4:000001c8 .LC18
C:\Users\pc\AppData\Local\Temp\ccTtWWKQ.s:1740   .rodata.str1.4:000001e0 .LC19
C:\Users\pc\AppData\Local\Temp\ccTtWWKQ.s:1742   .rodata.str1.4:000001f0 .LC20
C:\Users\pc\AppData\Local\Temp\ccTtWWKQ.s:698    .text._Z21handlePageReadCommandP12ts_channel_s20ts_response_format_ettt:00000000 $t
C:\Users\pc\AppData\Local\Temp\ccTtWWKQ.s:704    .text._Z21handlePageReadCommandP12ts_channel_s20ts_response_format_ettt:00000000 _Z21handlePageReadCommandP12ts_channel_s20ts_response_format_ettt
C:\Users\pc\AppData\Local\Temp\ccTtWWKQ.s:1744   .rodata.str1.4:0000020c .LC21
C:\Users\pc\AppData\Local\Temp\ccTtWWKQ.s:1747   .rodata.str1.4:00000234 .LC22
C:\Users\pc\AppData\Local\Temp\ccTtWWKQ.s:1750   .rodata.str1.4:00000250 .LC23
C:\Users\pc\AppData\Local\Temp\ccTtWWKQ.s:781    .text._Z18handleQueryCommandP12ts_channel_s20ts_response_format_e:00000000 $t
C:\Users\pc\AppData\Local\Temp\ccTtWWKQ.s:787    .text._Z18handleQueryCommandP12ts_channel_s20ts_response_format_e:00000000 _Z18handleQueryCommandP12ts_channel_s20ts_response_format_e
C:\Users\pc\AppData\Local\Temp\ccTtWWKQ.s:1753   .rodata.str1.4:0000026c .LC24
C:\Users\pc\AppData\Local\Temp\ccTtWWKQ.s:1756   .rodata.str1.4:0000028c .LC25
C:\Users\pc\AppData\Local\Temp\ccTtWWKQ.s:814    .text._Z27handleOutputChannelsCommandP12ts_channel_s20ts_response_format_e:00000000 $t
C:\Users\pc\AppData\Local\Temp\ccTtWWKQ.s:820    .text._Z27handleOutputChannelsCommandP12ts_channel_s20ts_response_format_e:00000000 _Z27handleOutputChannelsCommandP12ts_channel_s20ts_response_format_e
C:\Users\pc\AppData\Local\Temp\ccTtWWKQ.s:1653   .bss.tsOutputChannels:00000000 .LANCHOR5
C:\Users\pc\AppData\Local\Temp\ccTtWWKQ.s:841    .text._Z17handleTestCommandP12ts_channel_s:00000000 $t
C:\Users\pc\AppData\Local\Temp\ccTtWWKQ.s:847    .text._Z17handleTestCommandP12ts_channel_s:00000000 _Z17handleTestCommandP12ts_channel_s
C:\Users\pc\AppData\Local\Temp\ccTtWWKQ.s:1759   .rodata.str1.4:0000029c .LC26
C:\Users\pc\AppData\Local\Temp\ccTtWWKQ.s:1762   .rodata.str1.4:000002ac .LC27
C:\Users\pc\AppData\Local\Temp\ccTtWWKQ.s:1765   .rodata.str1.4:000002b4 .LC28
C:\Users\pc\AppData\Local\Temp\ccTtWWKQ.s:872    .text._Z18handlePlainCommandP12ts_channel_sh:00000000 $t
C:\Users\pc\AppData\Local\Temp\ccTtWWKQ.s:878    .text._Z18handlePlainCommandP12ts_channel_sh:00000000 _Z18handlePlainCommandP12ts_channel_sh
C:\Users\pc\AppData\Local\Temp\ccTtWWKQ.s:1768   .rodata.str1.4:000002c4 .LC29
C:\Users\pc\AppData\Local\Temp\ccTtWWKQ.s:1773   .rodata.str1.4:000002f8 .LC31
C:\Users\pc\AppData\Local\Temp\ccTtWWKQ.s:1776   .rodata.str1.4:00000308 .LC32
C:\Users\pc\AppData\Local\Temp\ccTtWWKQ.s:1667   .bss._ZL6pageIn:00000000 .LANCHOR6
C:\Users\pc\AppData\Local\Temp\ccTtWWKQ.s:1770   .rodata.str1.4:000002dc .LC30
C:\Users\pc\AppData\Local\Temp\ccTtWWKQ.s:1779   .rodata.str1.4:0000032c .LC33
C:\Users\pc\AppData\Local\Temp\ccTtWWKQ.s:1640   .bss._ZL17writeChunkRequest:00000000 .LANCHOR7
C:\Users\pc\AppData\Local\Temp\ccTtWWKQ.s:1782   .rodata.str1.4:00000344 .LC34
C:\Users\pc\AppData\Local\Temp\ccTtWWKQ.s:1795   .rodata.str1.4:00000404 .LC38
C:\Users\pc\AppData\Local\Temp\ccTtWWKQ.s:1798   .rodata.str1.4:00000414 .LC39
C:\Users\pc\AppData\Local\Temp\ccTtWWKQ.s:1681   .bss._ZL11readRequest:00000000 .LANCHOR8
C:\Users\pc\AppData\Local\Temp\ccTtWWKQ.s:1789   .rodata.str1.4:000003c0 .LC36
C:\Users\pc\AppData\Local\Temp\ccTtWWKQ.s:1785   .rodata.str1.4:00000378 .LC35
C:\Users\pc\AppData\Local\Temp\ccTtWWKQ.s:1792   .rodata.str1.4:000003e4 .LC37
C:\Users\pc\AppData\Local\Temp\ccTtWWKQ.s:1107   .text._Z27tunerStudioHandleCrcCommandP12ts_channel_sPci:00000000 $t
C:\Users\pc\AppData\Local\Temp\ccTtWWKQ.s:1113   .text._Z27tunerStudioHandleCrcCommandP12ts_channel_sPci:00000000 _Z27tunerStudioHandleCrcCommandP12ts_channel_sPci
C:\Users\pc\AppData\Local\Temp\ccTtWWKQ.s:1809   .rodata.str1.4:00000444 .LC43
C:\Users\pc\AppData\Local\Temp\ccTtWWKQ.s:1800   .rodata.str1.4:00000418 .LC40
C:\Users\pc\AppData\Local\Temp\ccTtWWKQ.s:1806   .rodata.str1.4:00000438 .LC42
C:\Users\pc\AppData\Local\Temp\ccTtWWKQ.s:1803   .rodata.str1.4:0000042c .LC41
C:\Users\pc\AppData\Local\Temp\ccTtWWKQ.s:1285   .text._Z21runBinaryProtocolLoopP12ts_channel_sb:00000000 $t
C:\Users\pc\AppData\Local\Temp\ccTtWWKQ.s:1291   .text._Z21runBinaryProtocolLoopP12ts_channel_sb:00000000 _Z21runBinaryProtocolLoopP12ts_channel_sb
C:\Users\pc\AppData\Local\Temp\ccTtWWKQ.s:1646   .bss._ZL9firstByte:00000000 .LANCHOR9
C:\Users\pc\AppData\Local\Temp\ccTtWWKQ.s:1633   .bss._ZL10secondByte:00000000 .LANCHOR10
C:\Users\pc\AppData\Local\Temp\ccTtWWKQ.s:1812   .rodata.str1.4:00000468 .LC44
C:\Users\pc\AppData\Local\Temp\ccTtWWKQ.s:1842   .rodata.str1.4:000005c0 .LC54
C:\Users\pc\AppData\Local\Temp\ccTtWWKQ.s:1815   .rodata.str1.4:0000047c .LC45
C:\Users\pc\AppData\Local\Temp\ccTtWWKQ.s:1818   .rodata.str1.4:0000049c .LC46
C:\Users\pc\AppData\Local\Temp\ccTtWWKQ.s:1861   .data._ZL15BINARY_RESPONSE:00000000 .LANCHOR11
C:\Users\pc\AppData\Local\Temp\ccTtWWKQ.s:1821   .rodata.str1.4:000004b4 .LC47
C:\Users\pc\AppData\Local\Temp\ccTtWWKQ.s:1824   .rodata.str1.4:000004d4 .LC48
ARM GAS  C:\Users\pc\AppData\Local\Temp\ccTtWWKQ.s 			page 42


C:\Users\pc\AppData\Local\Temp\ccTtWWKQ.s:1827   .rodata.str1.4:00000508 .LC49
C:\Users\pc\AppData\Local\Temp\ccTtWWKQ.s:1830   .rodata.str1.4:0000052c .LC50
C:\Users\pc\AppData\Local\Temp\ccTtWWKQ.s:1833   .rodata.str1.4:0000054c .LC51
C:\Users\pc\AppData\Local\Temp\ccTtWWKQ.s:1836   .rodata.str1.4:00000580 .LC52
C:\Users\pc\AppData\Local\Temp\ccTtWWKQ.s:1839   .rodata.str1.4:00000594 .LC53
C:\Users\pc\AppData\Local\Temp\ccTtWWKQ.s:1515   .text._ZL18tsThreadEntryPointPv:00000000 $t
C:\Users\pc\AppData\Local\Temp\ccTtWWKQ.s:1520   .text._ZL18tsThreadEntryPointPv:00000000 _ZL18tsThreadEntryPointPv
C:\Users\pc\AppData\Local\Temp\ccTtWWKQ.s:1845   .rodata.str1.4:000005d8 .LC55
C:\Users\pc\AppData\Local\Temp\ccTtWWKQ.s:1903   .bss.tsChannel:00000000 .LANCHOR12
C:\Users\pc\AppData\Local\Temp\ccTtWWKQ.s:1538   .text._Z28startTunerStudioConnectivityv:00000000 $t
C:\Users\pc\AppData\Local\Temp\ccTtWWKQ.s:1544   .text._Z28startTunerStudioConnectivityv:00000000 _Z28startTunerStudioConnectivityv
C:\Users\pc\AppData\Local\Temp\ccTtWWKQ.s:1848   .rodata.str1.4:000005ec .LC56
C:\Users\pc\AppData\Local\Temp\ccTtWWKQ.s:1851   .rodata.str1.4:000005f4 .LC57
C:\Users\pc\AppData\Local\Temp\ccTtWWKQ.s:1854   .rodata.str1.4:00000600 .LC58
C:\Users\pc\AppData\Local\Temp\ccTtWWKQ.s:1660   .bss._ZL16tsCrcWriteBuffer:00000000 .LANCHOR13
C:\Users\pc\AppData\Local\Temp\ccTtWWKQ.s:1875   .bss._ZL13tsThreadStack:00000000 .LANCHOR14
C:\Users\pc\AppData\Local\Temp\ccTtWWKQ.s:1605   .text._Z28startTunerStudioConnectivityv:000000bc $d
C:\Users\pc\AppData\Local\Temp\ccTtWWKQ.s:1608   .text.startup._GLOBAL__sub_I_tsLogger:00000000 $t
C:\Users\pc\AppData\Local\Temp\ccTtWWKQ.s:1613   .text.startup._GLOBAL__sub_I_tsLogger:00000000 _GLOBAL__sub_I_tsLogger
C:\Users\pc\AppData\Local\Temp\ccTtWWKQ.s:1857   .rodata.str1.4:00000610 .LC59
C:\Users\pc\AppData\Local\Temp\ccTtWWKQ.s:1624   .init_array:00000000 $d
C:\Users\pc\AppData\Local\Temp\ccTtWWKQ.s:1899   .bss.currentPageId:00000000 currentPageId
C:\Users\pc\AppData\Local\Temp\ccTtWWKQ.s:1885   .bss.configWorkingCopy:00000000 configWorkingCopy
C:\Users\pc\AppData\Local\Temp\ccTtWWKQ.s:1656   .bss.tsOutputChannels:00000000 tsOutputChannels
C:\Users\pc\AppData\Local\Temp\ccTtWWKQ.s:1892   .bss.tsState:00000000 tsState
C:\Users\pc\AppData\Local\Temp\ccTtWWKQ.s:1906   .bss.tsChannel:00000000 tsChannel
C:\Users\pc\AppData\Local\Temp\ccTtWWKQ.s:1677   .bss.tsLogger:00000000 tsLogger
C:\Users\pc\AppData\Local\Temp\ccTtWWKQ.s:1636   .bss._ZL10secondByte:00000000 _ZL10secondByte
C:\Users\pc\AppData\Local\Temp\ccTtWWKQ.s:1637   .bss._ZL10secondByte:00000000 $d
C:\Users\pc\AppData\Local\Temp\ccTtWWKQ.s:1639   .bss._ZL17writeChunkRequest:00000000 $d
C:\Users\pc\AppData\Local\Temp\ccTtWWKQ.s:1643   .bss._ZL17writeChunkRequest:00000000 _ZL17writeChunkRequest
C:\Users\pc\AppData\Local\Temp\ccTtWWKQ.s:1649   .bss._ZL9firstByte:00000000 _ZL9firstByte
C:\Users\pc\AppData\Local\Temp\ccTtWWKQ.s:1650   .bss._ZL9firstByte:00000000 $d
C:\Users\pc\AppData\Local\Temp\ccTtWWKQ.s:1652   .bss.tsOutputChannels:00000000 $d
C:\Users\pc\AppData\Local\Temp\ccTtWWKQ.s:1659   .bss._ZL16tsCrcWriteBuffer:00000000 $d
C:\Users\pc\AppData\Local\Temp\ccTtWWKQ.s:1663   .bss._ZL16tsCrcWriteBuffer:00000000 _ZL16tsCrcWriteBuffer
C:\Users\pc\AppData\Local\Temp\ccTtWWKQ.s:1666   .bss._ZL6pageIn:00000000 $d
C:\Users\pc\AppData\Local\Temp\ccTtWWKQ.s:1670   .bss._ZL6pageIn:00000000 _ZL6pageIn
C:\Users\pc\AppData\Local\Temp\ccTtWWKQ.s:1673   .bss.tsLogger:00000000 $d
C:\Users\pc\AppData\Local\Temp\ccTtWWKQ.s:1680   .bss._ZL11readRequest:00000000 $d
C:\Users\pc\AppData\Local\Temp\ccTtWWKQ.s:1684   .bss._ZL11readRequest:00000000 _ZL11readRequest
C:\Users\pc\AppData\Local\Temp\ccTtWWKQ.s:1687   .rodata.str1.4:00000000 $d
C:\Users\pc\AppData\Local\Temp\ccTtWWKQ.s:1860   .data._ZL15BINARY_RESPONSE:00000000 $d
C:\Users\pc\AppData\Local\Temp\ccTtWWKQ.s:1864   .data._ZL15BINARY_RESPONSE:00000000 _ZL15BINARY_RESPONSE
C:\Users\pc\AppData\Local\Temp\ccTtWWKQ.s:1867   .bss._ZL21previousWriteReportMs:00000000 $d
C:\Users\pc\AppData\Local\Temp\ccTtWWKQ.s:1871   .bss._ZL21previousWriteReportMs:00000000 _ZL21previousWriteReportMs
C:\Users\pc\AppData\Local\Temp\ccTtWWKQ.s:1874   .bss._ZL13tsThreadStack:00000000 $d
C:\Users\pc\AppData\Local\Temp\ccTtWWKQ.s:1878   .bss._ZL13tsThreadStack:00000000 _ZL13tsThreadStack
C:\Users\pc\AppData\Local\Temp\ccTtWWKQ.s:1881   .bss.configWorkingCopy:00000000 $d
C:\Users\pc\AppData\Local\Temp\ccTtWWKQ.s:1888   .bss.tsState:00000000 $d
C:\Users\pc\AppData\Local\Temp\ccTtWWKQ.s:1895   .bss.currentPageId:00000000 $d
C:\Users\pc\AppData\Local\Temp\ccTtWWKQ.s:1902   .bss.tsChannel:00000000 $d
C:\Users\pc\AppData\Local\Temp\ccTtWWKQ.s:455    .text._Z17handleBurnCommandP12ts_channel_s20ts_response_format_et:000000cc $t
C:\Users\pc\AppData\Local\Temp\ccTtWWKQ.s:477    .text._Z19syncTunerStudioCopyv:0000001c $t

UNDEFINED SYMBOLS
scheduleMsg
ARM GAS  C:\Users\pc\AppData\Local\Temp\ccTtWWKQ.s 			page 43


_Z16isSerialOverUartv
_Z8portnameP12GPIO_TypeDef
boardConfiguration
engineConfiguration
memcpy
_Z14tsSendResponseP12ts_channel_s20ts_response_format_ePKhi
crc32
_Z27setNeedToWriteConfigurationv
_Z35incrementGlobalConfigurationVersionv
currentTimeMillis
_Z25tunerStudioWriteCrcPacketP12ts_channel_shPKvt
persistentState
_Z25prepareTunerStudioOutputsv
_Z20tunerStudioWriteDataP12ts_channel_sPKhi
_Z17swapOutputBuffersPi
efiTrim
console_line_callback
is_usb_serial_ready
chThdSleep
print
rlist
_Z11startTsPortv
addConsoleAction
addConsoleActionI
_Z17getTsSerialDevicev
chThdCreateStatic
_ZN18LoggingWithStorageC1EPKc
