ARM GAS  C:\Users\pc\AppData\Local\Temp\ccRhUcXk.s 			page 1


   1              		.syntax unified
   2              		.cpu cortex-m4
   3              		.eabi_attribute 27, 3
   4              		.fpu fpv4-sp-d16
   5              		.eabi_attribute 20, 1
   6              		.eabi_attribute 21, 1
   7              		.eabi_attribute 23, 3
   8              		.eabi_attribute 24, 1
   9              		.eabi_attribute 25, 1
  10              		.eabi_attribute 26, 1
  11              		.eabi_attribute 30, 2
  12              		.eabi_attribute 34, 1
  13              		.eabi_attribute 18, 4
  14              		.thumb
  15              		.file	"wave_analyzer.cpp"
  16              		.section	.text._ZL18waAnaWidthCallbackP10WaveReader,"ax",%progbits
  17              		.align	2
  18              		.p2align 4,,15
  19              		.thumb
  20              		.thumb_func
  21              		.type	_ZL18waAnaWidthCallbackP10WaveReader, %function
  22              	_ZL18waAnaWidthCallbackP10WaveReader:
  23              		@ args = 0, pretend = 0, frame = 0
  24              		@ frame_needed = 0, uses_anonymous_args = 0
  25 0000 70B5     		push	{r4, r5, r6, lr}
  26 0002 0646     		mov	r6, r0
  27 0004 FFF7FEFF 		bl	getTimeNowUs
  28 0008 B368     		ldr	r3, [r6, #8]
  29 000a 0446     		mov	r4, r0
  30 000c 0D46     		mov	r5, r1
  31 000e 0133     		adds	r3, r3, #1
  32 0010 40F20000 		movw	r0, #:lower16:waveChart
  33 0014 40F20002 		movw	r2, #:lower16:.LC0
  34 0018 B360     		str	r3, [r6, #8]
  35 001a C0F20002 		movt	r2, #:upper16:.LC0
  36 001e 7168     		ldr	r1, [r6, #4]
  37 0020 C0F20000 		movt	r0, #:upper16:waveChart
  38 0024 C6E90845 		strd	r4, [r6, #32]
  39 0028 FFF7FEFF 		bl	_ZN9WaveChart18addWaveChartEvent3EPKcS1_
  40 002c D6E90A23 		ldrd	r2, [r6, #40]
  41 0030 A21A     		subs	r2, r4, r2
  42 0032 B264     		str	r2, [r6, #72]
  43 0034 D6E90C23 		ldrd	r2, [r6, #48]
  44 0038 A21A     		subs	r2, r4, r2
  45 003a B263     		str	r2, [r6, #56]
  46 003c C6E90C45 		strd	r4, [r6, #48]
  47 0040 70BD     		pop	{r4, r5, r6, pc}
  48              		.size	_ZL18waAnaWidthCallbackP10WaveReader, .-_ZL18waAnaWidthCallbackP10WaveReader
  49 0042 00BFAFF3 		.section	.text._ZL8waThreadPv,"ax",%progbits
  49      0080AFF3 
  49      0080AFF3 
  49      0080
  50              		.align	2
  51              		.p2align 4,,15
  52              		.thumb
  53              		.thumb_func
  54              		.type	_ZL8waThreadPv, %function
ARM GAS  C:\Users\pc\AppData\Local\Temp\ccRhUcXk.s 			page 2


  55              	_ZL8waThreadPv:
  56              		@ Volatile: function does not return.
  57              		@ args = 0, pretend = 0, frame = 0
  58              		@ frame_needed = 0, uses_anonymous_args = 0
  59 0000 40F20002 		movw	r2, #:lower16:rlist
  60 0004 C0F20002 		movt	r2, #:upper16:rlist
  61 0008 08B5     		push	{r3, lr}
  62 000a 9269     		ldr	r2, [r2, #24]
  63 000c 40F20003 		movw	r3, #:lower16:.LC1
  64 0010 C0F20003 		movt	r3, #:upper16:.LC1
  65 0014 9361     		str	r3, [r2, #24]
  66              	.L3:
  67 0016 4FF47A70 		mov	r0, #1000
  68 001a FFF7FEFF 		bl	chThdSleep
  69 001e 40F20000 		movw	r0, #:lower16:waveChart
  70 0022 C0F20000 		movt	r0, #:upper16:waveChart
  71 0026 FFF7FEFF 		bl	_ZN9WaveChart18publishChartIfFullEv
  72 002a F4E7     		b	.L3
  73              		.size	_ZL8waThreadPv, .-_ZL8waThreadPv
  74 002c AFF30080 		.section	.text._ZL17setWaveModeSilentii,"ax",%progbits
  75              		.align	2
  76              		.p2align 4,,15
  77              		.thumb
  78              		.thumb_func
  79              		.type	_ZL17setWaveModeSilentii, %function
  80              	_ZL17setWaveModeSilentii:
  81              		@ args = 0, pretend = 0, frame = 0
  82              		@ frame_needed = 0, uses_anonymous_args = 0
  83              		@ link register save eliminated.
  84 0000 40F20003 		movw	r3, #:lower16:.LANCHOR0
  85 0004 5822     		movs	r2, #88
  86 0006 C0F20003 		movt	r3, #:upper16:.LANCHOR0
  87 000a 02FB00F0 		mul	r0, r2, r0
  88 000e 0031     		adds	r1, r1, #0
  89 0010 18BF     		it	ne
  90 0012 0121     		movne	r1, #1
  91 0014 1858     		ldr	r0, [r3, r0]
  92 0016 FFF7FEBF 		b	_Z16startInputDriverP15digital_input_sb
  93              		.size	_ZL17setWaveModeSilentii, .-_ZL17setWaveModeSilentii
  94 001a 00BFAFF3 		.section	.text._ZL8initWavePKci,"ax",%progbits
  94      0080
  95              		.align	2
  96              		.p2align 4,,15
  97              		.thumb
  98              		.thumb_func
  99              		.type	_ZL8initWavePKci, %function
 100              	_ZL8initWavePKci:
 101              		@ args = 0, pretend = 0, frame = 0
 102              		@ frame_needed = 0, uses_anonymous_args = 0
 103 0000 40F20002 		movw	r2, #:lower16:boardConfiguration
 104 0004 2DE9F843 		push	{r3, r4, r5, r6, r7, r8, r9, lr}
 105 0008 C0F20002 		movt	r2, #:upper16:boardConfiguration
 106 000c 40F20003 		movw	r3, #:lower16:.LANCHOR1
 107 0010 C0F20003 		movt	r3, #:upper16:.LANCHOR1
 108 0014 1268     		ldr	r2, [r2]
 109 0016 1D68     		ldr	r5, [r3]
 110 0018 0C46     		mov	r4, r1
ARM GAS  C:\Users\pc\AppData\Local\Temp\ccRhUcXk.s 			page 3


 111 001a 02EB8101 		add	r1, r2, r1, lsl #2
 112 001e 2244     		add	r2, r2, r4
 113 0020 0135     		adds	r5, r5, #1
 114 0022 042C     		cmp	r4, #4
 115 0024 8446     		mov	ip, r0
 116 0026 D1F88481 		ldr	r8, [r1, #388]
 117 002a 92F89491 		ldrb	r9, [r2, #404]	@ zero_extendqisi2
 118 002e 1D60     		str	r5, [r3]
 119 0030 37DC     		bgt	.L8
 120 0032 40F20005 		movw	r5, #:lower16:.LANCHOR0
 121 0036 5826     		movs	r6, #88
 122 0038 C0F20005 		movt	r5, #:upper16:.LANCHOR0
 123 003c 06FB04F6 		mul	r6, r6, r4
 124 0040 AF19     		adds	r7, r5, r6
 125 0042 40F20000 		movw	r0, #:lower16:.LC3
 126 0046 C7F804C0 		str	ip, [r7, #4]
 127 004a 4146     		mov	r1, r8
 128 004c C0F20000 		movt	r0, #:upper16:.LC3
 129 0050 FFF7FEFF 		bl	_Z22initWaveAnalyzerDriverPKc11brain_pin_e
 130 0054 40F20001 		movw	r1, #:lower16:_ZL18waAnaWidthCallbackP10WaveReader
 131 0058 0346     		mov	r3, r0
 132 005a AB51     		str	r3, [r5, r6]
 133 005c 3A46     		mov	r2, r7
 134 005e 0830     		adds	r0, r0, #8
 135 0060 C0F20001 		movt	r1, #:upper16:_ZL18waAnaWidthCallbackP10WaveReader
 136 0064 FFF7FEFF 		bl	_ZN16IntListenerArray16registerCallbackEPFviEPv
 137 0068 A859     		ldr	r0, [r5, r6]
 138 006a 40F20001 		movw	r1, #:lower16:_ZL19waIcuPeriodCallbackP10WaveReader
 139 006e 3A46     		mov	r2, r7
 140 0070 C0F20001 		movt	r1, #:upper16:_ZL19waIcuPeriodCallbackP10WaveReader
 141 0074 8430     		adds	r0, r0, #132
 142 0076 FFF7FEFF 		bl	_ZN16IntListenerArray16registerCallbackEPFviEPv
 143 007a 4046     		mov	r0, r8
 144 007c FFF7FEFF 		bl	_Z10hwPortname11brain_pin_e
 145 0080 0246     		mov	r2, r0
 146 0082 40F20000 		movw	r0, #:lower16:.LC4
 147 0086 2146     		mov	r1, r4
 148 0088 C0F20000 		movt	r0, #:upper16:.LC4
 149 008c FFF7FEFF 		bl	print
 150 0090 19F10001 		adds	r1, r9, #0
 151 0094 A859     		ldr	r0, [r5, r6]
 152 0096 18BF     		it	ne
 153 0098 0121     		movne	r1, #1
 154 009a BDE8F843 		pop	{r3, r4, r5, r6, r7, r8, r9, lr}
 155 009e FFF7FEBF 		b	_Z16startInputDriverP15digital_input_sb
 156              	.L8:
 157 00a2 40F20000 		movw	r0, #:lower16:.LC2
 158 00a6 C0F20000 		movt	r0, #:upper16:.LC2
 159 00aa BDE8F843 		pop	{r3, r4, r5, r6, r7, r8, r9, lr}
 160 00ae FFF7FEBF 		b	firmwareError
 161              		.size	_ZL8initWavePKci, .-_ZL8initWavePKci
 162              		.global	__aeabi_ul2f
 163 00b2 00BFAFF3 		.section	.text._ZL10reportWaveP7Loggingi.part.0,"ax",%progbits
 163      0080AFF3 
 163      0080AFF3 
 163      0080
 164              		.align	2
ARM GAS  C:\Users\pc\AppData\Local\Temp\ccRhUcXk.s 			page 4


 165              		.p2align 4,,15
 166              		.thumb
 167              		.thumb_func
 168              		.type	_ZL10reportWaveP7Loggingi.part.0, %function
 169              	_ZL10reportWaveP7Loggingi.part.0:
 170              		@ args = 0, pretend = 0, frame = 0
 171              		@ frame_needed = 0, uses_anonymous_args = 0
 172 0000 2DE9F84F 		push	{r3, r4, r5, r6, r7, r8, r9, r10, fp, lr}
 173 0004 4FF05809 		mov	r9, #88
 174 0008 40F20008 		movw	r8, #:lower16:.LANCHOR0
 175 000c C0F20008 		movt	r8, #:upper16:.LANCHOR0
 176 0010 09FB01F9 		mul	r9, r9, r1
 177 0014 2DED048B 		fstmfdd	sp!, {d8, d9}
 178 0018 58F80930 		ldr	r3, [r8, r9]
 179 001c 5B79     		ldrb	r3, [r3, #5]	@ zero_extendqisi2
 180 001e 0F46     		mov	r7, r1
 181 0020 0646     		mov	r6, r0
 182 0022 C346     		mov	fp, r8
 183 0024 08EB090A 		add	r10, r8, r9
 184 0028 002B     		cmp	r3, #0
 185 002a 00F02381 		beq	.L30
 186              	.L10:
 187 002e FFF7FEFF 		bl	getTimeNowUs
 188 0032 DAE90845 		ldrd	r4, [r10, #32]
 189 0036 4FF41062 		mov	r2, #2304
 190 003a C0F23D02 		movt	r2, 61
 191 003e 0023     		movs	r3, #0
 192 0040 001B     		subs	r0, r0, r4
 193 0042 61EB0501 		sbc	r1, r1, r5
 194 0046 8B42     		cmp	r3, r1
 195 0048 08BF     		it eq
 196 004a 8242     		cmpeq	r2, r0
 197 004c C0F00F81 		bcc	.L24
 198 0050 DAE91401 		ldrd	r0, [r10, #80]
 199 0054 FFF7FEFF 		bl	__aeabi_ul2f
 200 0058 DFED927A 		flds	s15, .L34
 201 005c 07EE100A 		fmsr	s14, r0
 202 0060 87EE279A 		fdivs	s18, s14, s15
 203              	.L11:
 204 0064 5BF80930 		ldr	r3, [fp, r9]
 205 0068 5B79     		ldrb	r3, [r3, #5]	@ zero_extendqisi2
 206 006a 2BB9     		cbnz	r3, .L12
 207 006c 40F20000 		movw	r0, #:lower16:.LC5
 208 0070 C0F20000 		movt	r0, #:upper16:.LC5
 209 0074 FFF7FEFF 		bl	firmwareError
 210              	.L12:
 211 0078 40F20001 		movw	r1, #:lower16:.LC6
 212 007c DAED0E7A 		flds	s15, [r10, #56]	@ int
 213 0080 DFED888A 		flds	s17, .L34
 214 0084 F8EE677A 		fuitos	s15, s15
 215 0088 40F20003 		movw	r3, #:lower16:.LC7
 216 008c 87EEA88A 		fdivs	s16, s15, s17
 217 0090 C0F20003 		movt	r3, #:upper16:.LC7
 218 0094 C0F20001 		movt	r1, #:upper16:.LC6
 219 0098 3046     		mov	r0, r6
 220 009a 3A46     		mov	r2, r7
 221 009c FFF7FEFF 		bl	appendPrintf
ARM GAS  C:\Users\pc\AppData\Local\Temp\ccRhUcXk.s 			page 5


 222 00a0 3046     		mov	r0, r6
 223 00a2 0222     		movs	r2, #2
 224 00a4 DFED807A 		flds	s15, .L34+4
 225 00a8 69EE277A 		fmuls	s15, s18, s15
 226 00ac 87EE887A 		fdivs	s14, s15, s16
 227 00b0 17EE101A 		fmrs	r1, s14
 228 00b4 FFF7FEFF 		bl	appendFloat
 229 00b8 40F20001 		movw	r1, #:lower16:.LC8
 230 00bc 40F20002 		movw	r2, #:lower16:.LC7
 231 00c0 3046     		mov	r0, r6
 232 00c2 C0F20001 		movt	r1, #:upper16:.LC8
 233 00c6 C0F20002 		movt	r2, #:upper16:.LC7
 234 00ca FFF7FEFF 		bl	appendPrintf
 235 00ce 40F20001 		movw	r1, #:lower16:.LC9
 236 00d2 40F20003 		movw	r3, #:lower16:.LC7
 237 00d6 C0F20003 		movt	r3, #:upper16:.LC7
 238 00da 3046     		mov	r0, r6
 239 00dc C0F20001 		movt	r1, #:upper16:.LC9
 240 00e0 3A46     		mov	r2, r7
 241 00e2 FFF7FEFF 		bl	appendPrintf
 242 00e6 3046     		mov	r0, r6
 243 00e8 19EE101A 		fmrs	r1, s18
 244 00ec 0222     		movs	r2, #2
 245 00ee FFF7FEFF 		bl	appendFloat
 246 00f2 40F20001 		movw	r1, #:lower16:.LC8
 247 00f6 40F20002 		movw	r2, #:lower16:.LC7
 248 00fa 3046     		mov	r0, r6
 249 00fc C0F20001 		movt	r1, #:upper16:.LC8
 250 0100 C0F20002 		movt	r2, #:upper16:.LC7
 251 0104 FFF7FEFF 		bl	appendPrintf
 252 0108 40F20001 		movw	r1, #:lower16:.LC10
 253 010c 40F20003 		movw	r3, #:lower16:.LC7
 254 0110 3A46     		mov	r2, r7
 255 0112 3046     		mov	r0, r6
 256 0114 C0F20001 		movt	r1, #:upper16:.LC10
 257 0118 C0F20003 		movt	r3, #:upper16:.LC7
 258 011c FFF7FEFF 		bl	appendPrintf
 259 0120 5823     		movs	r3, #88
 260 0122 03FB0788 		mla	r8, r3, r7, r8
 261 0126 D8E90401 		ldrd	r0, [r8, #16]
 262 012a FFF7FEFF 		bl	__aeabi_ul2f
 263 012e 07EE100A 		fmsr	s14, r0
 264 0132 C7EE287A 		fdivs	s15, s14, s17
 265 0136 0222     		movs	r2, #2
 266 0138 3046     		mov	r0, r6
 267 013a 17EE901A 		fmrs	r1, s15
 268 013e FFF7FEFF 		bl	appendFloat
 269 0142 40F20001 		movw	r1, #:lower16:.LC8
 270 0146 40F20002 		movw	r2, #:lower16:.LC7
 271 014a 3046     		mov	r0, r6
 272 014c C0F20001 		movt	r1, #:upper16:.LC8
 273 0150 C0F20002 		movt	r2, #:upper16:.LC7
 274 0154 FFF7FEFF 		bl	appendPrintf
 275 0158 40F20001 		movw	r1, #:lower16:.LC11
 276 015c 40F20003 		movw	r3, #:lower16:.LC7
 277 0160 C0F20003 		movt	r3, #:upper16:.LC7
 278 0164 3046     		mov	r0, r6
ARM GAS  C:\Users\pc\AppData\Local\Temp\ccRhUcXk.s 			page 6


 279 0166 C0F20001 		movt	r1, #:upper16:.LC11
 280 016a 3A46     		mov	r2, r7
 281 016c FFF7FEFF 		bl	appendPrintf
 282 0170 3046     		mov	r0, r6
 283 0172 18EE101A 		fmrs	r1, s16
 284 0176 0222     		movs	r2, #2
 285 0178 FFF7FEFF 		bl	appendFloat
 286 017c 40F20001 		movw	r1, #:lower16:.LC8
 287 0180 40F20002 		movw	r2, #:lower16:.LC7
 288 0184 3046     		mov	r0, r6
 289 0186 C0F20001 		movt	r1, #:upper16:.LC8
 290 018a C0F20002 		movt	r2, #:upper16:.LC7
 291 018e FFF7FEFF 		bl	appendPrintf
 292 0192 5BF80930 		ldr	r3, [fp, r9]
 293 0196 5B79     		ldrb	r3, [r3, #5]	@ zero_extendqisi2
 294 0198 002B     		cmp	r3, #0
 295 019a 7BD0     		beq	.L31
 296              	.L13:
 297 019c 40F20003 		movw	r3, #:lower16:engine
 298 01a0 C0F20003 		movt	r3, #:upper16:engine
 299 01a4 DAE91045 		ldrd	r4, [r10, #64]
 300 01a8 1868     		ldr	r0, [r3]
 301 01aa FFF7FEFF 		bl	_ZN13RpmCalculator3rpmEv
 302 01ae 0028     		cmp	r0, #0
 303 01b0 5AD0     		beq	.L25
 304 01b2 07EE100A 		fmsr	s14, r0	@ int
 305 01b6 F8EEC77A 		fsitos	s15, s14
 306 01ba 9FED3C7A 		flds	s14, .L34+8
 307 01be 87EE278A 		fdivs	s16, s14, s15
 308              	.L14:
 309 01c2 40F20001 		movw	r1, #:lower16:.LC12
 310 01c6 40F20003 		movw	r3, #:lower16:.LC7
 311 01ca 3A46     		mov	r2, r7
 312 01cc C0F20003 		movt	r3, #:upper16:.LC7
 313 01d0 C0F20001 		movt	r1, #:upper16:.LC12
 314 01d4 3046     		mov	r0, r6
 315 01d6 FFF7FEFF 		bl	appendPrintf
 316 01da 354A     		ldr	r2, .L34+12
 317 01dc 07EE104A 		fmsr	s14, r4	@ int
 318 01e0 F8EE477A 		fuitos	s15, s14
 319 01e4 40F20004 		movw	r4, #:lower16:persistentState
 320 01e8 C7EE887A 		fdivs	s15, s15, s16
 321 01ec C0F20004 		movt	r4, #:upper16:persistentState
 322 01f0 D4F8A831 		ldr	r3, [r4, #424]
 323 01f4 94ED757A 		flds	s14, [r4, #468]
 324 01f8 92ED008A 		flds	s16, [r2]
 325 01fc 38EE078A 		fadds	s16, s16, s14
 326 0200 37EEC88A 		fsubs	s16, s15, s16
 327 0204 EBB3     		cbz	r3, .L32
 328              	.L15:
 329 0206 B5EEC08A 		fcmpezs	s16
 330 020a 07EE103A 		fmsr	s14, r3	@ int
 331 020e F1EE10FA 		fmstat
 332 0212 F8EEC77A 		fsitos	s15, s14
 333 0216 0DD5     		bpl	.L29
 334              	.L19:
 335 0218 38EE278A 		fadds	s16, s16, s15
ARM GAS  C:\Users\pc\AppData\Local\Temp\ccRhUcXk.s 			page 7


 336 021c B5EEC08A 		fcmpezs	s16
 337 0220 F1EE10FA 		fmstat
 338 0224 F8D4     		bmi	.L19
 339 0226 B4EEE78A 		fcmpes	s16, s15
 340 022a F1EE10FA 		fmstat
 341 022e 06DB     		blt	.L33
 342              	.L23:
 343 0230 38EE678A 		fsubs	s16, s16, s15
 344              	.L29:
 345 0234 B4EEE78A 		fcmpes	s16, s15
 346 0238 F1EE10FA 		fmstat
 347 023c F8DA     		bge	.L23
 348              	.L33:
 349 023e 3046     		mov	r0, r6
 350 0240 18EE101A 		fmrs	r1, s16
 351 0244 0322     		movs	r2, #3
 352 0246 FFF7FEFF 		bl	appendFloat
 353 024a BDEC048B 		fldmfdd	sp!, {d8-d9}
 354 024e 40F20001 		movw	r1, #:lower16:.LC8
 355 0252 40F20002 		movw	r2, #:lower16:.LC7
 356 0256 3046     		mov	r0, r6
 357 0258 C0F20001 		movt	r1, #:upper16:.LC8
 358 025c C0F20002 		movt	r2, #:upper16:.LC7
 359 0260 BDE8F84F 		pop	{r3, r4, r5, r6, r7, r8, r9, r10, fp, lr}
 360 0264 FFF7FEBF 		b	appendPrintf
 361              	.L25:
 362 0268 9FED128A 		flds	s16, .L34+16
 363 026c A9E7     		b	.L14
 364              	.L24:
 365 026e 9FED129A 		flds	s18, .L34+20
 366 0272 F7E6     		b	.L11
 367              	.L30:
 368 0274 40F20000 		movw	r0, #:lower16:.LC5
 369 0278 C0F20000 		movt	r0, #:upper16:.LC5
 370 027c FFF7FEFF 		bl	firmwareError
 371 0280 D5E6     		b	.L10
 372              	.L32:
 373 0282 40F20000 		movw	r0, #:lower16:.LC13
 374 0286 C0F20000 		movt	r0, #:upper16:.LC13
 375 028a FFF7FEFF 		bl	firmwareError
 376 028e D4F8A831 		ldr	r3, [r4, #424]
 377 0292 B8E7     		b	.L15
 378              	.L31:
 379 0294 40F20000 		movw	r0, #:lower16:.LC5
 380 0298 C0F20000 		movt	r0, #:upper16:.LC5
 381 029c FFF7FEFF 		bl	firmwareError
 382 02a0 7CE7     		b	.L13
 383              	.L35:
 384 02a2 00BF     		.align	2
 385              	.L34:
 386 02a4 00007A44 		.word	1148846080
 387 02a8 0000C842 		.word	1120403456
 388 02ac ABC22248 		.word	1210237611
 389 02b0 E40D0000 		.word	_engine+3556
 390 02b4 0000C07F 		.word	2143289344
 391 02b8 00000000 		.word	0
 392              		.size	_ZL10reportWaveP7Loggingi.part.0, .-_ZL10reportWaveP7Loggingi.part.0
ARM GAS  C:\Users\pc\AppData\Local\Temp\ccRhUcXk.s 			page 8


 393 02bc AFF30080 		.section	.text._ZN10WaveReader11onFallEventEv,"ax",%progbits
 394              		.align	2
 395              		.p2align 4,,15
 396              		.global	_ZN10WaveReader11onFallEventEv
 397              		.thumb
 398              		.thumb_func
 399              		.type	_ZN10WaveReader11onFallEventEv, %function
 400              	_ZN10WaveReader11onFallEventEv:
 401              		@ args = 0, pretend = 0, frame = 0
 402              		@ frame_needed = 0, uses_anonymous_args = 0
 403 0000 2DE9F04D 		push	{r4, r5, r6, r7, r8, r10, fp, lr}
 404 0004 8046     		mov	r8, r0
 405 0006 FFF7FEFF 		bl	getTimeNowUs
 406 000a D8F80830 		ldr	r3, [r8, #8]
 407 000e 0446     		mov	r4, r0
 408 0010 0133     		adds	r3, r3, #1
 409 0012 0D46     		mov	r5, r1
 410 0014 40F20000 		movw	r0, #:lower16:waveChart
 411 0018 40F20002 		movw	r2, #:lower16:.LC14
 412 001c C8F80830 		str	r3, [r8, #8]
 413 0020 D8F80410 		ldr	r1, [r8, #4]
 414 0024 C0F20002 		movt	r2, #:upper16:.LC14
 415 0028 C0F20000 		movt	r0, #:upper16:waveChart
 416 002c C8E90845 		strd	r4, [r8, #32]
 417 0030 FFF7FEFF 		bl	_ZN9WaveChart18addWaveChartEvent3EPKcS1_
 418 0034 D8E90C67 		ldrd	r6, [r8, #48]
 419 0038 A61B     		subs	r6, r4, r6
 420 003a 65EB0707 		sbc	r7, r5, r7
 421 003e C8E91467 		strd	r6, [r8, #80]
 422 0042 FFF7FEFF 		bl	_Z20getRevolutionCounterv
 423 0046 D8E90623 		ldrd	r2, [r8, #24]
 424 004a D8F80C10 		ldr	r1, [r8, #12]
 425 004e 9219     		adds	r2, r2, r6
 426 0050 43EB0703 		adc	r3, r3, r7
 427 0054 8142     		cmp	r1, r0
 428 0056 C8E90623 		strd	r2, [r8, #24]
 429 005a 14D0     		beq	.L37
 430 005c 40F20001 		movw	r1, #:lower16:.LANCHOR2
 431 0060 C0F20001 		movt	r1, #:upper16:.LANCHOR2
 432 0064 D1E90067 		ldrd	r6, [r1]
 433 0068 4FF0000A 		mov	r10, #0
 434 006c 4FF0000B 		mov	fp, #0
 435 0070 A61B     		subs	r6, r4, r6
 436 0072 65EB0707 		sbc	r7, r5, r7
 437 0076 C8E90423 		strd	r2, [r8, #16]
 438 007a C8E91067 		strd	r6, [r8, #64]
 439 007e C8E906AB 		strd	r10, [r8, #24]
 440 0082 C8F80C00 		str	r0, [r8, #12]
 441              	.L37:
 442 0086 C8E90A45 		strd	r4, [r8, #40]
 443 008a BDE8F08D 		pop	{r4, r5, r6, r7, r8, r10, fp, pc}
 444              		.size	_ZN10WaveReader11onFallEventEv, .-_ZN10WaveReader11onFallEventEv
 445 008e 00BF     		.section	.text._ZL19waIcuPeriodCallbackP10WaveReader,"ax",%progbits
 446              		.align	2
 447              		.p2align 4,,15
 448              		.thumb
 449              		.thumb_func
ARM GAS  C:\Users\pc\AppData\Local\Temp\ccRhUcXk.s 			page 9


 450              		.type	_ZL19waIcuPeriodCallbackP10WaveReader, %function
 451              	_ZL19waIcuPeriodCallbackP10WaveReader:
 452              		@ args = 0, pretend = 0, frame = 0
 453              		@ frame_needed = 0, uses_anonymous_args = 0
 454              		@ link register save eliminated.
 455 0000 FFF7FEBF 		b	_ZN10WaveReader11onFallEventEv
 456              		.size	_ZL19waIcuPeriodCallbackP10WaveReader, .-_ZL19waIcuPeriodCallbackP10WaveReader
 457 0004 AFF30080 		.section	.text._ZN10WaveReaderC2Ev,"ax",%progbits
 457      AFF30080 
 457      AFF30080 
 458              		.align	2
 459              		.p2align 4,,15
 460              		.global	_ZN10WaveReaderC2Ev
 461              		.thumb
 462              		.thumb_func
 463              		.type	_ZN10WaveReaderC2Ev, %function
 464              	_ZN10WaveReaderC2Ev:
 465              		@ args = 0, pretend = 0, frame = 0
 466              		@ frame_needed = 0, uses_anonymous_args = 0
 467              		@ link register save eliminated.
 468 0000 10B4     		push	{r4}
 469 0002 0024     		movs	r4, #0
 470 0004 0022     		movs	r2, #0
 471 0006 0023     		movs	r3, #0
 472 0008 0460     		str	r4, [r0]
 473 000a C0E91423 		strd	r2, [r0, #80]
 474 000e 5DF8044B 		ldr	r4, [sp], #4
 475 0012 7047     		bx	lr
 476              		.size	_ZN10WaveReaderC2Ev, .-_ZN10WaveReaderC2Ev
 477              		.global	_ZN10WaveReaderC1Ev
 478              		.thumb_set _ZN10WaveReaderC1Ev,_ZN10WaveReaderC2Ev
 479 0014 AFF30080 		.section	.text._Z9printWaveP7Logging,"ax",%progbits
 479      AFF30080 
 479      AFF30080 
 480              		.align	2
 481              		.p2align 4,,15
 482              		.global	_Z9printWaveP7Logging
 483              		.thumb
 484              		.thumb_func
 485              		.type	_Z9printWaveP7Logging, %function
 486              	_Z9printWaveP7Logging:
 487              		@ args = 0, pretend = 0, frame = 0
 488              		@ frame_needed = 0, uses_anonymous_args = 0
 489 0000 38B5     		push	{r3, r4, r5, lr}
 490 0002 40F20004 		movw	r4, #:lower16:.LANCHOR0
 491 0006 C0F20004 		movt	r4, #:upper16:.LANCHOR0
 492 000a 0546     		mov	r5, r0
 493 000c 2368     		ldr	r3, [r4]
 494 000e 5B79     		ldrb	r3, [r3, #5]	@ zero_extendqisi2
 495 0010 4BB9     		cbnz	r3, .L46
 496              	.L41:
 497 0012 A36D     		ldr	r3, [r4, #88]
 498 0014 5B79     		ldrb	r3, [r3, #5]	@ zero_extendqisi2
 499 0016 03B9     		cbnz	r3, .L47
 500 0018 38BD     		pop	{r3, r4, r5, pc}
 501              	.L47:
 502 001a 2846     		mov	r0, r5
ARM GAS  C:\Users\pc\AppData\Local\Temp\ccRhUcXk.s 			page 10


 503 001c 0121     		movs	r1, #1
 504 001e BDE83840 		pop	{r3, r4, r5, lr}
 505 0022 FFF7FEBF 		b	_ZL10reportWaveP7Loggingi.part.0
 506              	.L46:
 507 0026 0021     		movs	r1, #0
 508 0028 FFF7FEFF 		bl	_ZL10reportWaveP7Loggingi.part.0
 509 002c F1E7     		b	.L41
 510              		.size	_Z9printWaveP7Logging, .-_Z9printWaveP7Logging
 511 002e 00BF     		.section	.text._Z16initWaveAnalyzerP7Logging,"ax",%progbits
 512              		.align	2
 513              		.p2align 4,,15
 514              		.global	_Z16initWaveAnalyzerP7Logging
 515              		.thumb
 516              		.thumb_func
 517              		.type	_Z16initWaveAnalyzerP7Logging, %function
 518              	_Z16initWaveAnalyzerP7Logging:
 519              		@ args = 0, pretend = 0, frame = 0
 520              		@ frame_needed = 0, uses_anonymous_args = 0
 521 0000 00B5     		push	{lr}
 522 0002 40F20003 		movw	r3, #:lower16:.LANCHOR3
 523 0006 C0F20003 		movt	r3, #:upper16:.LANCHOR3
 524 000a 83B0     		sub	sp, sp, #12
 525 000c 1860     		str	r0, [r3]
 526 000e 40F20000 		movw	r0, #:lower16:.LC15
 527 0012 0021     		movs	r1, #0
 528 0014 C0F20000 		movt	r0, #:upper16:.LC15
 529 0018 FFF7FEFF 		bl	_ZL8initWavePKci
 530 001c 40F20000 		movw	r0, #:lower16:.LC16
 531 0020 C0F20000 		movt	r0, #:upper16:.LC16
 532 0024 0121     		movs	r1, #1
 533 0026 FFF7FEFF 		bl	_ZL8initWavePKci
 534 002a 40F20000 		movw	r0, #:lower16:.LC17
 535 002e 40F20001 		movw	r1, #:lower16:_ZL17setWaveModeSilentii
 536 0032 C0F20000 		movt	r0, #:upper16:.LC17
 537 0036 C0F20001 		movt	r1, #:upper16:_ZL17setWaveModeSilentii
 538 003a FFF7FEFF 		bl	addConsoleActionII
 539 003e 0022     		movs	r2, #0
 540 0040 40F20000 		movw	r0, #:lower16:.LANCHOR4
 541 0044 40F20003 		movw	r3, #:lower16:_ZL8waThreadPv
 542 0048 0092     		str	r2, [sp]
 543 004a C0F20003 		movt	r3, #:upper16:_ZL8waThreadPv
 544 004e 4FF43A71 		mov	r1, #744
 545 0052 4022     		movs	r2, #64
 546 0054 C0F20000 		movt	r0, #:upper16:.LANCHOR4
 547 0058 FFF7FEFF 		bl	chThdCreateStatic
 548 005c 03B0     		add	sp, sp, #12
 549              		@ sp needed
 550 005e 5DF804FB 		ldr	pc, [sp], #4
 551              		.size	_Z16initWaveAnalyzerP7Logging, .-_Z16initWaveAnalyzerP7Logging
 552 0062 00BFAFF3 		.section	.text.startup._GLOBAL__sub_I__ZN10WaveReader11onFallEventEv,"ax",%progbits
 552      0080AFF3 
 552      0080AFF3 
 552      0080
 553              		.align	2
 554              		.p2align 4,,15
 555              		.thumb
 556              		.thumb_func
ARM GAS  C:\Users\pc\AppData\Local\Temp\ccRhUcXk.s 			page 11


 557              		.type	_GLOBAL__sub_I__ZN10WaveReader11onFallEventEv, %function
 558              	_GLOBAL__sub_I__ZN10WaveReader11onFallEventEv:
 559              		@ args = 0, pretend = 0, frame = 0
 560              		@ frame_needed = 0, uses_anonymous_args = 0
 561              		@ link register save eliminated.
 562 0000 0849     		ldr	r1, .L53
 563 0002 30B4     		push	{r4, r5}
 564 0004 0022     		movs	r2, #0
 565 0006 0025     		movs	r5, #0
 566 0008 01F5DC74 		add	r4, r1, #440
 567 000c 0023     		movs	r3, #0
 568              	.L51:
 569 000e 41F8585C 		str	r5, [r1, #-88]
 570 0012 A1F15800 		sub	r0, r1, #88
 571 0016 5831     		adds	r1, r1, #88
 572 0018 A142     		cmp	r1, r4
 573 001a C0E91423 		strd	r2, [r0, #80]
 574 001e F6D1     		bne	.L51
 575 0020 30BC     		pop	{r4, r5}
 576 0022 7047     		bx	lr
 577              	.L54:
 578              		.align	2
 579              	.L53:
 580 0024 58000000 		.word	.LANCHOR0+88
 581              		.size	_GLOBAL__sub_I__ZN10WaveReader11onFallEventEv, .-_GLOBAL__sub_I__ZN10WaveReader11onFallEvent
 582 0028 AFF30080 		.section	.init_array,"aw",%init_array
 582      AFF30080 
 583              		.align	2
 584 0000 00000000 		.word	_GLOBAL__sub_I__ZN10WaveReader11onFallEventEv(target1)
 585              		.section	.bss._ZL21engineCycleDurationUs,"aw",%nobits
 586              		.align	2
 587              		.type	_ZL21engineCycleDurationUs, %object
 588              		.size	_ZL21engineCycleDurationUs, 4
 589              	_ZL21engineCycleDurationUs:
 590 0000 00000000 		.space	4
 591              		.section	.bss._ZL15waveReaderCount,"aw",%nobits
 592              		.align	2
 593              		.set	.LANCHOR1,. + 0
 594              		.type	_ZL15waveReaderCount, %object
 595              		.size	_ZL15waveReaderCount, 4
 596              	_ZL15waveReaderCount:
 597 0000 00000000 		.space	4
 598              		.section	.bss._ZL7readers,"aw",%nobits
 599              		.align	3
 600              		.set	.LANCHOR0,. + 0
 601              		.type	_ZL7readers, %object
 602              		.size	_ZL7readers, 440
 603              	_ZL7readers:
 604 0000 00000000 		.space	440
 604      00000000 
 604      00000000 
 604      00000000 
 604      00000000 
 605              		.section	.bss._ZL13waThreadStack,"aw",%nobits
 606              		.align	3
 607              		.set	.LANCHOR4,. + 0
 608              		.type	_ZL13waThreadStack, %object
ARM GAS  C:\Users\pc\AppData\Local\Temp\ccRhUcXk.s 			page 12


 609              		.size	_ZL13waThreadStack, 744
 610              	_ZL13waThreadStack:
 611 0000 00000000 		.space	744
 611      00000000 
 611      00000000 
 611      00000000 
 611      00000000 
 612              		.section	.rodata.str1.4,"aMS",%progbits,1
 613              		.align	2
 614              	.LC0:
 615 0000 7500     		.ascii	"u\000"
 616 0002 0000     		.space	2
 617              	.LC1:
 618 0004 57617665 		.ascii	"Wave Analyzer\000"
 618      20416E61 
 618      6C797A65 
 618      7200
 619 0012 0000     		.space	2
 620              	.LC2:
 621 0014 746F6F20 		.ascii	"too many ICUs\000"
 621      6D616E79 
 621      20494355 
 621      7300
 622 0022 0000     		.space	2
 623              	.LC3:
 624 0024 77617665 		.ascii	"wave input\000"
 624      20696E70 
 624      757400
 625 002f 00       		.space	1
 626              	.LC4:
 627 0030 77617665 		.ascii	"wave%d input on %s\015\012\000"
 627      25642069 
 627      6E707574 
 627      206F6E20 
 627      25730D0A 
 628 0045 000000   		.space	3
 629              	.LC5:
 630 0048 77617665 		.ascii	"wave analyzer NOT INITIALIZED\000"
 630      20616E61 
 630      6C797A65 
 630      72204E4F 
 630      5420494E 
 631 0066 0000     		.space	2
 632              	.LC6:
 633 0068 64757479 		.ascii	"duty%d%s\000"
 633      25642573 
 633      00
 634 0071 000000   		.space	3
 635              	.LC7:
 636 0074 2C00     		.ascii	",\000"
 637 0076 0000     		.space	2
 638              	.LC8:
 639 0078 257300   		.ascii	"%s\000"
 640 007b 00       		.space	1
 641              	.LC9:
 642 007c 6477656C 		.ascii	"dwell%d%s\000"
 642      6C256425 
ARM GAS  C:\Users\pc\AppData\Local\Temp\ccRhUcXk.s 			page 13


 642      7300
 643 0086 0000     		.space	2
 644              	.LC10:
 645 0088 746F7461 		.ascii	"total_dwell%d%s\000"
 645      6C5F6477 
 645      656C6C25 
 645      64257300 
 646              	.LC11:
 647 0098 70657269 		.ascii	"period%d%s\000"
 647      6F642564 
 647      257300
 648 00a3 00       		.space	1
 649              	.LC12:
 650 00a4 61647661 		.ascii	"advance%d%s\000"
 650      6E636525 
 650      64257300 
 651              	.LC13:
 652 00b0 7A65726F 		.ascii	"zero engineCycle\000"
 652      20656E67 
 652      696E6543 
 652      79636C65 
 652      00
 653 00c1 000000   		.space	3
 654              	.LC14:
 655 00c4 6400     		.ascii	"d\000"
 656 00c6 0000     		.space	2
 657              	.LC15:
 658 00c8 696E7075 		.ascii	"input1\000"
 658      743100
 659 00cf 00       		.space	1
 660              	.LC16:
 661 00d0 696E7075 		.ascii	"input2\000"
 661      743200
 662 00d7 00       		.space	1
 663              	.LC17:
 664 00d8 7365745F 		.ascii	"set_logic_input_mode\000"
 664      6C6F6769 
 664      635F696E 
 664      7075745F 
 664      6D6F6465 
 665 00ed 000000   		.section	.bss._ZL25previousEngineCycleTimeUs,"aw",%nobits
 666              		.align	3
 667              		.set	.LANCHOR2,. + 0
 668              		.type	_ZL25previousEngineCycleTimeUs, %object
 669              		.size	_ZL25previousEngineCycleTimeUs, 8
 670              	_ZL25previousEngineCycleTimeUs:
 671 0000 00000000 		.space	8
 671      00000000 
 672              		.section	.bss._ZL6logger,"aw",%nobits
 673              		.align	2
 674              		.set	.LANCHOR3,. + 0
 675              		.type	_ZL6logger, %object
 676              		.size	_ZL6logger, 4
 677              	_ZL6logger:
 678 0000 00000000 		.space	4
 679              		.ident	"GCC: (Sourcery CodeBench Lite 2013.11-24) 4.8.1"
ARM GAS  C:\Users\pc\AppData\Local\Temp\ccRhUcXk.s 			page 14

